(dp0
V1
p1
(dp2
Vdmn009
p3
(dp4
S'first_attemp'
p5
V2015-10-08 09:10:45
p6
sS'part1_correct_attempt'
p7
(lp8
S'0:00:34'
p9
aV36
p10
asS'part1_incorrect_attempt'
p11
(lp12
(S'0:00:00'
p13
V12^2
p14
tp15
assVb3hwang
p16
(dp17
g5
V2015-10-08 23:20:52
p18
sS'part1_correct_attempt'
p19
(lp20
S'0:00:17'
p21
aV36
p22
asS'part1_incorrect_attempt'
p23
(lp24
(S'0:00:00'
p25
V6! * 6!
p26
tp27
assVjag028
p28
(dp29
g5
V2015-10-05 03:53:05
p30
sS'part1_correct_attempt'
p31
(lp32
S'1:36:19'
p33
aV36
p34
asS'part1_incorrect_attempt'
p35
(lp36
(S'0:00:00'
p37
V6!*6!
p38
tp39
a(S'0:00:00'
p40
V36*36
p41
tp42
a(S'0:10:15'
p43
V36*35
p44
tp45
a(S'1:07:29'
p46
V36*36
p47
tp48
assVvsamant
p49
(dp50
g5
V2015-10-02 04:08:38
p51
sS'part1_correct_attempt'
p52
(lp53
S'0:00:41'
p54
aV6*6
p55
asS'part1_incorrect_attempt'
p56
(lp57
(S'0:00:00'
p58
V6*5*4*3*2*6*5*4*3*2
p59
tp60
assVkvass
p61
(dp62
g5
V2015-10-04 20:32:28
p63
sS'part1_correct_attempt'
p64
(lp65
S'0:00:21'
p66
aV6**2
p67
asS'part1_incorrect_attempt'
p68
(lp69
(S'0:00:00'
p70
V6**6
p71
tp72
assVkbielawi
p73
(dp74
g5
V2015-10-05 19:17:08
p75
sS'part1_correct_attempt'
p76
(lp77
S'0:00:18'
p78
aV36
p79
asS'part1_incorrect_attempt'
p80
(lp81
(S'0:00:00'
p82
V36*2
p83
tp84
assVaportuga
p85
(dp86
g5
V2015-10-06 05:21:17
p87
sS'part1_correct_attempt'
p88
(lp89
S'0:00:36'
p90
aV36
p91
asS'part1_incorrect_attempt'
p92
(lp93
(S'0:00:00'
p94
V2(6!)(6!)
p95
tp96
assVjjchung
p97
(dp98
g5
V2015-10-08 03:25:11
p99
sS'part1_correct_attempt'
p100
(lp101
S'0:00:33'
p102
aV36
p103
asS'part1_incorrect_attempt'
p104
(lp105
(S'0:00:00'
p106
V12! * 2
p107
tp108
a(S'0:00:15'
p109
V12!
p110
tp111
assVabjara
p112
(dp113
g5
V2015-10-05 21:44:29
p114
sS'part1_correct_attempt'
p115
(lp116
S'1:23:28'
p117
aV6^2
p118
asS'part1_incorrect_attempt'
p119
(lp120
(S'0:00:00'
p121
V12!
p122
tp123
assVasp025
p124
(dp125
g5
V2015-10-08 05:36:47
p126
sS'part1_correct_attempt'
p127
(lp128
S'9:55:18'
p129
aV36
p130
asS'part1_incorrect_attempt'
p131
(lp132
(S'0:00:00'
p133
V6!6!
p134
tp135
a(S'0:00:10'
p136
V6!
p137
tp138
a(S'0:00:00'
p139
V12!
p140
tp141
assVmroknich
p142
(dp143
g5
V2015-10-06 06:28:24
p144
sS'part1_correct_attempt'
p145
(lp146
S'0:00:43'
p147
aV36
p148
asS'part1_incorrect_attempt'
p149
(lp150
(S'0:00:00'
p151
V6^4
p152
tp153
a(S'0:00:11'
p154
V6*6*2
p155
tp156
assVt2li
p157
(dp158
g5
V2015-10-06 01:32:15
p159
sS'part1_correct_attempt'
p160
(lp161
S'0:03:47'
p162
aV36
p163
asS'part1_incorrect_attempt'
p164
(lp165
(S'0:00:00'
p166
V(12!)/(2*(10!))
p167
tp168
assVdkurli
p169
(dp170
g5
V2015-10-07 17:28:16
p171
sS'part1_correct_attempt'
p172
(lp173
S'0:02:59'
p174
aV36
p175
asS'part1_incorrect_attempt'
p176
(lp177
(S'0:00:00'
p178
V6!*2
p179
tp180
a(S'0:00:28'
p181
V12!
p182
tp183
a(S'0:00:58'
p184
V6!*4
p185
tp186
assVs2chaudh
p187
(dp188
g5
V2015-10-05 16:52:29
p189
sS'part1_correct_attempt'
p190
(lp191
S'0:00:07'
p192
aV36
p193
asS'part1_incorrect_attempt'
p194
(lp195
(S'0:00:00'
p196
V36*2
p197
tp198
assVtpmach
p199
(dp200
g5
V2015-10-03 21:04:13
p201
sS'part1_correct_attempt'
p202
(lp203
S'0:00:09'
p204
aV6*6
p205
asS'part1_incorrect_attempt'
p206
(lp207
(S'0:00:00'
p208
V6*6*2
p209
tp210
assVhaw081
p211
(dp212
g5
V2015-10-04 22:04:56
p213
sS'part1_correct_attempt'
p214
(lp215
S'0:14:10'
p216
aV36
p217
asS'part1_incorrect_attempt'
p218
(lp219
(S'0:00:00'
p220
V2*36
p221
tp222
a(S'0:08:03'
p223
V36*36
p224
tp225
assVmnrahman
p226
(dp227
g5
V2015-10-06 06:58:31
p228
sS'part1_correct_attempt'
p229
(lp230
S'0:03:10'
p231
aV36
p232
asS'part1_incorrect_attempt'
p233
(lp234
(S'0:00:00'
p235
V68*2
p236
tp237
assVjblynch
p238
(dp239
g5
V2015-10-05 03:56:26
p240
sS'part1_correct_attempt'
p241
(lp242
S'0:05:45'
p243
aV6*6
p244
asS'part1_incorrect_attempt'
p245
(lp246
(S'0:00:00'
p247
V6*6*2
p248
tp249
assVrlhagen
p250
(dp251
g5
V2015-10-04 22:16:11
p252
sS'part1_correct_attempt'
p253
(lp254
S'0:00:08'
p255
aV36
p256
asS'part1_incorrect_attempt'
p257
(lp258
(S'0:00:00'
p259
V720/2
p260
tp261
assVs6deng
p262
(dp263
g5
V2015-10-06 05:51:05
p264
sS'part1_correct_attempt'
p265
(lp266
S'0:00:58'
p267
aV6*6
p268
asS'part1_incorrect_attempt'
p269
(lp270
(S'0:00:00'
p271
V6*6*2
p272
tp273
assVakhmelni
p274
(dp275
g5
V2015-10-08 21:21:21
p276
sS'part1_correct_attempt'
p277
(lp278
S'0:01:05'
p279
aV6*6
p280
asS'part1_incorrect_attempt'
p281
(lp282
(S'0:00:00'
p283
V6*6*2
p284
tp285
assVkalang
p286
(dp287
g5
V2015-10-05 22:18:43
p288
sS'part1_correct_attempt'
p289
(lp290
S'0:04:00'
p291
aV6^2
p292
asS'part1_incorrect_attempt'
p293
(lp294
(S'0:00:00'
p295
V6!*6!
p296
tp297
a(S'0:00:18'
p298
V36!
p299
tp300
a(S'0:00:30'
p301
V6!
p302
tp303
a(S'0:00:38'
p304
V6!*2
p305
tp306
a(S'0:00:58'
p307
V12!
p308
tp309
assVkew017
p310
(dp311
g5
V2015-10-04 19:15:18
p312
sS'part1_correct_attempt'
p313
(lp314
S'0:01:57'
p315
aV36
p316
asS'part1_incorrect_attempt'
p317
(lp318
(S'0:00:00'
p319
V(6^2)*2
p320
tp321
assVthwan
p322
(dp323
g5
V2015-10-03 23:57:42
p324
sS'part1_correct_attempt'
p325
(lp326
S'0:00:22'
p327
aV6*6
p328
asS'part1_incorrect_attempt'
p329
(lp330
(S'0:00:00'
p331
V6*6*2
p332
tp333
assVl8ngo
p334
(dp335
g5
V2015-10-02 16:36:13
p336
sS'part1_correct_attempt'
p337
(lp338
S'0:03:13'
p339
aV6*6
p340
asS'part1_incorrect_attempt'
p341
(lp342
(S'0:00:00'
p343
V6!*6!
p344
tp345
assVajabasa
p346
(dp347
g5
V2015-10-05 19:27:09
p348
sS'part1_correct_attempt'
p349
(lp350
S'0:00:58'
p351
aV6*6
p352
asS'part1_incorrect_attempt'
p353
(lp354
(S'0:00:00'
p355
V3!*4!
p356
tp357
a(S'0:00:09'
p358
V3*4
p359
tp360
assVm4bui
p361
(dp362
g5
V2015-10-08 05:41:08
p363
sS'part1_correct_attempt'
p364
(lp365
S'0:01:40'
p366
aV36
p367
asS'part1_incorrect_attempt'
p368
(lp369
(S'0:00:00'
p370
V6!6!
p371
tp372
a(S'0:00:17'
p373
V2(6!)
p374
tp375
assVjtfrankl
p376
(dp377
g5
V2015-10-07 23:27:03
p378
sS'part1_correct_attempt'
p379
(lp380
S'0:00:59'
p381
aV6*6
p382
asS'part1_incorrect_attempt'
p383
(lp384
(S'0:00:00'
p385
V6*6*2
p386
tp387
assVedcole
p388
(dp389
g5
V2015-10-04 21:42:18
p390
sS'part1_correct_attempt'
p391
(lp392
S'0:01:02'
p393
aV6*6
p394
asS'part1_incorrect_attempt'
p395
(lp396
(S'0:00:00'
p397
V6*6*2
p398
tp399
a(S'0:08:22'
p400
V6*6*2
p401
tp402
assVstarinia
p403
(dp404
g5
V2015-10-06 23:10:13
p405
sS'part1_correct_attempt'
p406
(lp407
S'1:51:57'
p408
aV6*6
p409
asS'part1_incorrect_attempt'
p410
(lp411
(S'0:00:00'
p412
V6! * 6!
p413
tp414
a(S'0:06:11'
p415
V6! * 2
p416
tp417
a(S'0:08:31'
p418
V6!/(6-2)!
p419
tp420
a(S'0:39:04'
p421
V6!/(2!(6-2)!)
p422
tp423
assVdcastlem
p424
(dp425
g5
V2015-10-03 20:58:43
p426
sS'part1_correct_attempt'
p427
(lp428
S'0:00:11'
p429
aV6*6
p430
asS'part1_incorrect_attempt'
p431
(lp432
(S'0:00:00'
p433
V6!*6!
p434
tp435
assVlalacson
p436
(dp437
g5
V2015-10-03 02:34:40
p438
sS'part1_correct_attempt'
p439
(lp440
S'0:00:07'
p441
aV6*6
p442
asS'part1_incorrect_attempt'
p443
(lp444
(S'0:00:00'
p445
V12*12
p446
tp447
assVajvanega
p448
(dp449
g5
V2015-10-02 17:43:30
p450
sS'part1_correct_attempt'
p451
(lp452
S'0:05:51'
p453
aV36
p454
asS'part1_incorrect_attempt'
p455
(lp456
(S'0:00:00'
p457
V24!
p458
tp459
a(S'0:00:10'
p460
V12!
p461
tp462
assVsthapa
p463
(dp464
g5
V2015-10-06 06:01:02
p465
sS'part1_correct_attempt'
p466
(lp467
S'0:09:18'
p468
aV36
p469
asS'part1_incorrect_attempt'
p470
(lp471
(S'0:00:00'
p472
V6*5*4*3
p473
tp474
assVpnquach
p475
(dp476
g5
V2015-10-08 06:11:20
p477
sS'part1_correct_attempt'
p478
(lp479
S'0:01:33'
p480
aV36
p481
asS'part1_incorrect_attempt'
p482
(lp483
(S'0:00:00'
p484
V6*5*4*3*2*2
p485
tp486
asssV3
p487
(dp488
Vphodgson
p489
(dp490
S'part3_correct_attempt'
p491
(lp492
S'0:00:30'
p493
aV1*6 + 1*6 - 1
p494
asS'part3_incorrect_attempt'
p495
(lp496
(S'0:00:00'
p497
V1*6 + 1*6
p498
tp499
assVa8ho
p500
(dp501
S'part3_correct_attempt'
p502
(lp503
S'2:03:11'
p504
aV11
p505
asS'part3_incorrect_attempt'
p506
(lp507
(S'0:00:28'
p508
V2*30
p509
tp510
a(S'0:00:48'
p511
V2*2*6
p512
tp513
a(S'0:01:47'
p514
V2*6
p515
tp516
a(S'0:01:53'
p517
V2*6*6
p518
tp519
assVlpettit
p520
(dp521
S'part3_correct_attempt'
p522
(lp523
S'1 day, 3:28:44'
p524
aV11
p525
asS'part3_incorrect_attempt'
p526
(lp527
(S'0:00:00'
p528
V6*5
p529
tp530
a(S'0:00:14'
p531
V6*6
p532
tp533
assVeyhu
p534
(dp535
S'part3_correct_attempt'
p536
(lp537
S'0:00:50'
p538
aV2*6 - 1
p539
asS'part3_incorrect_attempt'
p540
(lp541
(S'0:00:00'
p542
V6*5
p543
tp544
a(S'0:00:19'
p545
V2*6
p546
tp547
assVachava
p548
(dp549
S'part3_correct_attempt'
p550
(lp551
S'0:11:55'
p552
aV11
p553
asS'part3_incorrect_attempt'
p554
(lp555
(S'0:02:19'
p556
V6!
p557
tp558
a(S'0:04:25'
p559
V5!
p560
tp561
a(S'0:06:25'
p562
V11!/(6! * 5!)
p563
tp564
a(S'0:06:36'
p565
V11!/((6!) * (5!))
p566
tp567
assVqtluong
p568
(dp569
S'part3_correct_attempt'
p570
(lp571
S'0:01:36'
p572
aV(1*5)+(5*1)+1
p573
asS'part3_incorrect_attempt'
p574
(lp575
(S'0:00:00'
p576
V(2+2)
p577
tp578
a(S'0:01:21'
p579
V(1*6)+(6*1)+1
p580
tp581
assVskarimik
p582
(dp583
S'part3_correct_attempt'
p584
(lp585
S'0:37:03'
p586
aV(6^2)-(5^2)
p587
asS'part3_incorrect_attempt'
p588
(lp589
(S'0:00:00'
p590
V6*5
p591
tp592
a(S'0:02:05'
p593
V2*6
p594
tp595
assVdkurli
p596
(dp597
S'part3_correct_attempt'
p598
(lp599
S'0:00:10'
p600
aV11
p601
asS'part3_incorrect_attempt'
p602
(lp603
(S'-1 day, 23:57:01'
p604
V6!*2-5!*2
p605
tp606
assVb1green
p607
(dp608
S'part3_correct_attempt'
p609
(lp610
S'0:18:02'
p611
aV6*2-1
p612
asS'part3_incorrect_attempt'
p613
(lp614
(S'0:00:00'
p615
V6*5
p616
tp617
a(S'0:12:52'
p618
V6*2
p619
tp620
assVs2chaudh
p621
(dp622
S'part3_correct_attempt'
p623
(lp624
S'0:03:16'
p625
aV11
p626
asS'part3_incorrect_attempt'
p627
(lp628
(S'-1 day, 23:59:53'
p629
V30*2
p630
tp631
assVtpmach
p632
(dp633
S'part3_correct_attempt'
p634
(lp635
S'1:04:44'
p636
aV6*6-5*5
p637
asS'part3_incorrect_attempt'
p638
(lp639
(S'0:02:50'
p640
V5*6
p641
tp642
a(S'0:05:10'
p643
V5*2
p644
tp645
a(S'0:08:46'
p646
V6*2
p647
tp648
a(S'0:09:47'
p649
V1*6
p650
tp651
a(S'0:13:26'
p652
V6*6
p653
tp654
assVksmurlo
p655
(dp656
S'part3_correct_attempt'
p657
(lp658
S'0:01:00'
p659
aV6*6-(5*5)
p660
asS'part3_incorrect_attempt'
p661
(lp662
(S'0:00:00'
p663
V6*1*2
p664
tp665
a(S'0:00:30'
p666
V6*1
p667
tp668
assVttimmons
p669
(dp670
S'part3_correct_attempt'
p671
(lp672
S'0:04:26'
p673
aV6^2-5^2
p674
asS'part3_incorrect_attempt'
p675
(lp676
(S'0:00:08'
p677
V2*6
p678
tp679
a(S'0:00:33'
p680
V2*5
p681
tp682
a(S'0:02:03'
p683
V1*6
p684
tp685
a(S'0:02:47'
p686
V5^2
p687
tp688
a(S'0:02:58'
p689
VP(6,1)
p690
tp691
a(S'0:03:07'
p692
V6!
p693
tp694
a(S'0:03:29'
p695
V6^2
p696
tp697
a(S'0:03:39'
p698
V6*5
p699
tp700
a(S'0:03:47'
p701
V6*2
p702
tp703
assVbmilton
p704
(dp705
S'part3_correct_attempt'
p706
(lp707
S'0:25:43'
p708
aV5 + 6
p709
asS'part3_incorrect_attempt'
p710
(lp711
(S'0:00:16'
p712
V2*6
p713
tp714
a(S'0:02:36'
p715
VC(2,1)*C(6,1)
p716
tp717
a(S'0:05:56'
p718
V2*1*6
p719
tp720
a(S'0:23:51'
p721
VC(2,1)
p722
tp723
assVdcgriffi
p724
(dp725
S'part3_correct_attempt'
p726
(lp727
S'0:01:52'
p728
aV11
p729
asS'part3_incorrect_attempt'
p730
(lp731
(S'0:00:00'
p732
V6*2
p733
tp734
assVjnatale
p735
(dp736
S'part3_correct_attempt'
p737
(lp738
S'0:09:25'
p739
aV11
p740
asS'part3_incorrect_attempt'
p741
(lp742
(S'0:00:22'
p743
V6*5
p744
tp745
a(S'0:00:55'
p746
V5*5
p747
tp748
a(S'0:07:51'
p749
V6*6
p750
tp751
assVjblynch
p752
(dp753
S'part3_correct_attempt'
p754
(lp755
S'0:03:35'
p756
aV(6*6)-(5*5)
p757
asS'part3_incorrect_attempt'
p758
(lp759
(S'-1 day, 23:54:15'
p760
V(6*2)
p761
tp762
a(S'0:01:05'
p763
V(6*2)
p764
tp765
assVganajera
p766
(dp767
S'part3_correct_attempt'
p768
(lp769
S'0:05:02'
p770
aV11
p771
asS'part3_incorrect_attempt'
p772
(lp773
(S'0:00:00'
p774
V6*5
p775
tp776
assVbtn023
p777
(dp778
S'part3_correct_attempt'
p779
(lp780
S'4 days, 5:49:02'
p781
aV1+2*5
p782
asS'part3_incorrect_attempt'
p783
(lp784
(S'0:00:00'
p785
V1*6*2
p786
tp787
a(S'0:00:19'
p788
V1*6*2+1
p789
tp790
assVlalacson
p791
(dp792
S'part3_correct_attempt'
p793
(lp794
S'0:02:22'
p795
aV6+5
p796
asS'part3_incorrect_attempt'
p797
(lp798
(S'0:01:18'
p799
V6+6
p800
tp801
assVdwzhang
p802
(dp803
S'part3_correct_attempt'
p804
(lp805
S'0:00:51'
p806
aV11
p807
asS'part3_incorrect_attempt'
p808
(lp809
(S'0:00:00'
p810
V6*2
p811
tp812
assVdis003
p813
(dp814
S'part3_correct_attempt'
p815
(lp816
S'0:32:26'
p817
aV6*6 - 5*5
p818
asS'part3_incorrect_attempt'
p819
(lp820
(S'0:00:10'
p821
V5*6
p822
tp823
assVdtea
p824
(dp825
S'part3_correct_attempt'
p826
(lp827
S'0:01:31'
p828
aV11
p829
asS'part3_incorrect_attempt'
p830
(lp831
(S'0:00:39'
p832
V6*2
p833
tp834
assVkrkelkar
p835
(dp836
S'part3_correct_attempt'
p837
(lp838
S'0:03:33'
p839
aV6*2 -1
p840
asS'part3_incorrect_attempt'
p841
(lp842
(S'0:00:38'
p843
V6*2
p844
tp845
assVl8ngo
p846
(dp847
S'part3_correct_attempt'
p848
(lp849
S'0:04:13'
p850
aV11
p851
asS'part3_incorrect_attempt'
p852
(lp853
(S'-1 day, 23:56:47'
p854
V5!*6!
p855
tp856
a(S'0:00:00'
p857
V6*5
p858
tp859
a(S'0:02:11'
p860
V6*2
p861
tp862
assVacs008
p863
(dp864
S'part3_correct_attempt'
p865
(lp866
S'0:00:57'
p867
aV11
p868
asS'part3_incorrect_attempt'
p869
(lp870
(S'0:00:32'
p871
V 13
p872
tp873
assVmuy002
p874
(dp875
S'part3_correct_attempt'
p876
(lp877
S'0:03:26'
p878
aV11
p879
asS'part3_incorrect_attempt'
p880
(lp881
(S'0:01:09'
p882
V6*5
p883
tp884
assVjtfrankl
p885
(dp886
S'part3_correct_attempt'
p887
(lp888
S'0:01:07'
p889
aV11
p890
asS'part3_incorrect_attempt'
p891
(lp892
(S'0:00:00'
p893
V6*1+6*1
p894
tp895
assVdaw023
p896
(dp897
S'part3_correct_attempt'
p898
(lp899
S'0:20:38'
p900
aV6+5
p901
asS'part3_incorrect_attempt'
p902
(lp903
(S'0:00:32'
p904
V6+6
p905
tp906
assVcstringh
p907
(dp908
S'part3_correct_attempt'
p909
(lp910
S'0:01:30'
p911
aV6*6 - 5*5
p912
asS'part3_incorrect_attempt'
p913
(lp914
(S'0:00:00'
p915
V6*5
p916
tp917
assVedcole
p918
(dp919
S'part3_correct_attempt'
p920
(lp921
S'0:00:00'
p922
aV(6*6) - (5*5)
p923
asS'part3_incorrect_attempt'
p924
(lp925
(S'-1 day, 23:58:58'
p926
V1*2*6
p927
tp928
a(S'0:07:20'
p929
V1*2*6
p930
tp931
assVjhc010
p932
(dp933
S'part3_correct_attempt'
p934
(lp935
S'0:00:33'
p936
aV11
p937
asS'part3_incorrect_attempt'
p938
(lp939
(S'0:00:00'
p940
V6^2
p941
tp942
assVdruble
p943
(dp944
S'part3_correct_attempt'
p945
(lp946
S'0:06:34'
p947
aV2*6*1 - 1
p948
asS'part3_incorrect_attempt'
p949
(lp950
(S'0:00:00'
p951
V6*1
p952
tp953
assVstarinia
p954
(dp955
S'part3_correct_attempt'
p956
(lp957
S'-1 day, 22:16:34'
p958
aV11
p959
asS'part3_incorrect_attempt'
p960
(lp961
(S'-1 day, 22:08:03'
p962
VC(6,1)
p963
tp964
a(S'-1 day, 22:08:43'
p965
V6!/(1!(6-1)!)
p966
tp967
assVdcastlem
p968
(dp969
S'part3_correct_attempt'
p970
(lp971
S'4 days, 2:32:03'
p972
aV11
p973
asS'part3_incorrect_attempt'
p974
(lp975
(S'0:01:45'
p976
V6*5
p977
tp978
a(S'0:02:28'
p979
V6!
p980
tp981
assVyypan
p982
(dp983
S'part3_correct_attempt'
p984
(lp985
S'0:06:08'
p986
aV11
p987
asS'part3_incorrect_attempt'
p988
(lp989
(S'0:00:30'
p990
V6*5
p991
tp992
a(S'0:03:10'
p993
V6*6
p994
tp995
assVtjke
p996
(dp997
S'part3_correct_attempt'
p998
(lp999
S'0:01:43'
p1000
aV5+5+1
p1001
asS'part3_incorrect_attempt'
p1002
(lp1003
(S'0:00:00'
p1004
V6+6+1
p1005
tp1006
assVpnquach
p1007
(dp1008
S'part3_correct_attempt'
p1009
(lp1010
S'0:02:59'
p1011
aV11
p1012
asS'part3_incorrect_attempt'
p1013
(lp1014
(S'-1 day, 23:58:27'
p1015
V6*5*4*3*2
p1016
tp1017
assVwhcombs
p1018
(dp1019
S'part3_correct_attempt'
p1020
(lp1021
S'0:27:30'
p1022
aV11
p1023
asS'part3_incorrect_attempt'
p1024
(lp1025
(S'0:01:05'
p1026
V6+6
p1027
tp1028
a(S'0:09:49'
p1029
V12!/((12-2)!)
p1030
tp1031
a(S'0:10:43'
p1032
V7!/((7-2)!)
p1033
tp1034
a(S'0:12:56'
p1035
V12!/(2!(12-2)!)
p1036
tp1037
a(S'0:14:05'
p1038
V6*6
p1039
tp1040
asssV2
p1041
(dp1042
Vm4bui
p1043
(dp1044
S'part2_correct_attempt'
p1045
(lp1046
S'0:00:00'
p1047
aV25
p1048
asS'part2_incorrect_attempt'
p1049
(lp1050
(S'-1 day, 23:58:20'
p1051
V5!5!
p1052
tp1053
a(S'-1 day, 23:58:37'
p1054
V2(5!)
p1055
tp1056
assVdkurli
p1057
(dp1058
S'part2_correct_attempt'
p1059
(lp1060
S'0:00:10'
p1061
aV25
p1062
asS'part2_incorrect_attempt'
p1063
(lp1064
(S'-1 day, 23:57:01'
p1065
V5!*2
p1066
tp1067
assVkalang
p1068
(dp1069
S'part2_correct_attempt'
p1070
(lp1071
S'0:00:11'
p1072
aV5^2
p1073
asS'part2_incorrect_attempt'
p1074
(lp1075
(S'-1 day, 23:56:00'
p1076
V5!*5!
p1077
tp1078
assVstarinia
p1079
(dp1080
S'part2_correct_attempt'
p1081
(lp1082
S'0:00:00'
p1083
aV6*6 - 11
p1084
asS'part2_incorrect_attempt'
p1085
(lp1086
(S'-1 day, 22:08:03'
p1087
VC(6,1)
p1088
tp1089
a(S'-1 day, 22:08:43'
p1090
V6!/(1!(6-1)!)
p1091
tp1092
a(S'-1 day, 22:14:14'
p1093
V6! * 2 - 12
p1094
tp1095
a(S'-1 day, 22:16:34'
p1096
V6!/(6-2)!
p1097
tp1098
a(S'-1 day, 22:47:07'
p1099
V6!/(2!(6-2)!)
p1100
tp1101
assVedcole
p1102
(dp1103
S'part2_correct_attempt'
p1104
(lp1105
S'0:00:00'
p1106
aV5*5
p1107
asS'part2_incorrect_attempt'
p1108
(lp1109
(S'-1 day, 23:58:58'
p1110
V5*5*2
p1111
tp1112
a(S'0:07:20'
p1113
V5*5*2
p1114
tp1115
assVkew017
p1116
(dp1117
S'part2_correct_attempt'
p1118
(lp1119
S'0:00:00'
p1120
aV25
p1121
asS'part2_incorrect_attempt'
p1122
(lp1123
(S'-1 day, 23:58:03'
p1124
V(5^2)*2
p1125
tp1126
assVs2chaudh
p1127
(dp1128
S'part2_correct_attempt'
p1129
(lp1130
S'0:00:08'
p1131
aV25
p1132
asS'part2_incorrect_attempt'
p1133
(lp1134
(S'-1 day, 23:59:53'
p1135
V25*2
p1136
tp1137
assVs6deng
p1138
(dp1139
S'part2_correct_attempt'
p1140
(lp1141
S'0:01:55'
p1142
aV5*5
p1143
asS'part2_incorrect_attempt'
p1144
(lp1145
(S'0:00:16'
p1146
V(6*6)-6
p1147
tp1148
a(S'0:00:36'
p1149
V(6*6)-12
p1150
tp1151
assVjyc018
p1152
(dp1153
S'part2_correct_attempt'
p1154
(lp1155
S'0:01:11'
p1156
aV36-6-5
p1157
asS'part2_incorrect_attempt'
p1158
(lp1159
(S'0:00:40'
p1160
V36-6-6-1
p1161
tp1162
assVm4salaza
p1163
(dp1164
S'part2_correct_attempt'
p1165
(lp1166
S'0:00:56'
p1167
aV36-11
p1168
asS'part2_incorrect_attempt'
p1169
(lp1170
(S'0:00:00'
p1171
V36-12
p1172
tp1173
assVglcohen
p1174
(dp1175
S'part2_correct_attempt'
p1176
(lp1177
S'0:17:23'
p1178
aV25
p1179
asS'part2_incorrect_attempt'
p1180
(lp1181
(S'0:00:00'
p1182
V36-12
p1183
tp1184
a(S'0:00:53'
p1185
V36-14
p1186
tp1187
assVdlgoldbe
p1188
(dp1189
S'part2_correct_attempt'
p1190
(lp1191
S'3:33:33'
p1192
aV5*5
p1193
asS'part2_incorrect_attempt'
p1194
(lp1195
(S'0:00:00'
p1196
V(6*6)-12
p1197
tp1198
assVl8ngo
p1199
(dp1200
S'part2_correct_attempt'
p1201
(lp1202
S'0:00:00'
p1203
aV5*5
p1204
asS'part2_incorrect_attempt'
p1205
(lp1206
(S'-1 day, 23:56:47'
p1207
V5!*5!
p1208
tp1209
assVjblynch
p1210
(dp1211
S'part2_correct_attempt'
p1212
(lp1213
S'0:02:14'
p1214
aV(5*5)
p1215
asS'part2_incorrect_attempt'
p1216
(lp1217
(S'-1 day, 23:54:15'
p1218
V(5*5*2)
p1219
tp1220
a(S'0:01:05'
p1221
V(6*6) - (6*2)
p1222
tp1223
assVpnquach
p1224
(dp1225
S'part2_correct_attempt'
p1226
(lp1227
S'0:00:00'
p1228
aV25
p1229
asS'part2_incorrect_attempt'
p1230
(lp1231
(S'-1 day, 23:58:27'
p1232
V5*4*3*2*2
p1233
tp1234
assVsayao
p1235
(dp1236
S'part2_correct_attempt'
p1237
(lp1238
S'0:06:07'
p1239
aV25
p1240
asS'part2_incorrect_attempt'
p1241
(lp1242
(S'0:00:00'
p1243
V36(5/6)
p1244
tp1245
assVlalacson
p1246
(dp1247
S'part2_correct_attempt'
p1248
(lp1249
S'0:02:54'
p1250
aV5*5
p1251
asS'part2_incorrect_attempt'
p1252
(lp1253
(S'0:01:00'
p1254
V6*6-2
p1255
tp1256
a(S'0:02:22'
p1257
V6*6-6-6
p1258
tp1259
a(S'0:02:28'
p1260
V6*6-6
p1261
tp1262
assVvsosnovs
p1263
(dp1264
S'part2_correct_attempt'
p1265
(lp1266
S'0:20:55'
p1267
aV25
p1268
asS'part2_incorrect_attempt'
p1269
(lp1270
(S'0:08:59'
p1271
V6!
p1272
tp1273
a(S'0:09:59'
p1274
V36!/2
p1275
tp1276
a(S'0:11:56'
p1277
V36!/((34!)(2))
p1278
tp1279
asss.