(dp0
V1
p1
(dp2
Va8ho
p3
(dp4
S'part1_correct_attempt'
p5
(lp6
S'0:11:02'
p7
aV2^10
p8
asS'first_attempt'
p9
V2015-10-07 05:49:11
p10
sS'part1_incorrect_attempt'
p11
(lp12
(S'0:00:00'
p13
V10^2
p14
tp15
assVdruble
p16
(dp17
S'part1_correct_attempt'
p18
(lp19
S'0:00:50'
p20
aV2^11
p21
asg9
V2015-10-08 20:48:25
p22
sS'part1_incorrect_attempt'
p23
(lp24
(S'0:00:00'
p25
V11^2
p26
tp27
assVjjchung
p28
(dp29
S'part1_correct_attempt'
p30
(lp31
S'1:13:13'
p32
aV2^11
p33
asg9
V2015-10-08 05:10:39
p34
sS'part1_incorrect_attempt'
p35
(lp36
(S'0:00:00'
p37
V11*11
p38
tp39
a(S'0:01:08'
p40
V11!
p41
tp42
assVabjara
p43
(dp44
S'part1_correct_attempt'
p45
(lp46
S'0:05:28'
p47
aV2**11
p48
asg9
V2015-10-05 22:29:23
p49
sS'part1_incorrect_attempt'
p50
(lp51
(S'0:00:00'
p52
V11**2
p53
tp54
assVany027
p55
(dp56
S'part1_correct_attempt'
p57
(lp58
S'0:00:51'
p59
aV2^11
p60
asg9
V2015-10-03 10:48:59
p61
sS'part1_incorrect_attempt'
p62
(lp63
(S'0:00:00'
p64
V11!
p65
tp66
assVkthui
p67
(dp68
S'part1_correct_attempt'
p69
(lp70
S'0:05:19'
p71
aV2^11
p72
asg9
V2015-10-04 06:58:52
p73
sS'part1_incorrect_attempt'
p74
(lp75
(S'0:00:00'
p76
V11!
p77
tp78
a(S'0:02:52'
p79
V11*11
p80
tp81
assVvsosnovs
p82
(dp83
S'part1_correct_attempt'
p84
(lp85
S'0:01:36'
p86
aV2^9
p87
asg9
V2015-10-04 17:38:59
p88
sS'part1_incorrect_attempt'
p89
(lp90
(S'0:00:00'
p91
V9^2
p92
tp93
assVmbl003
p94
(dp95
S'part1_correct_attempt'
p96
(lp97
S'10:06:20'
p98
aV2^10
p99
asg9
V2015-10-02 20:51:23
p100
sS'part1_incorrect_attempt'
p101
(lp102
(S'0:00:00'
p103
V10^2
p104
tp105
a(S'0:04:40'
p106
V10^2
p107
tp108
assVamquinte
p109
(dp110
S'part1_correct_attempt'
p111
(lp112
S'0:02:11'
p113
aV2048
p114
asg9
V2015-10-05 22:17:37
p115
sS'part1_incorrect_attempt'
p116
(lp117
(S'0:00:00'
p118
V11!2
p119
tp120
a(S'0:01:20'
p121
V11!
p122
tp123
assVmnrahman
p124
(dp125
S'part1_correct_attempt'
p126
(lp127
S'0:03:07'
p128
aV2^10
p129
asg9
V2015-10-08 02:42:43
p130
sS'part1_incorrect_attempt'
p131
(lp132
(S'0:00:00'
p133
V10!/9!
p134
tp135
a(S'0:00:51'
p136
V10!/9!
p137
tp138
a(S'0:01:17'
p139
V10!/9!
p140
tp141
a(S'0:01:55'
p142
V10!/9!
p143
tp144
a(S'0:02:08'
p145
V10!/9!
p146
tp147
a(S'0:02:56'
p148
V10^2
p149
tp150
assVs6deng
p151
(dp152
S'part1_correct_attempt'
p153
(lp154
S'0:04:14'
p155
aV2^10
p156
asg9
V2015-10-06 21:01:29
p157
sS'part1_incorrect_attempt'
p158
(lp159
(S'0:00:00'
p160
V10^2
p161
tp162
assVakhmelni
p163
(dp164
S'part1_correct_attempt'
p165
(lp166
S'0:01:19'
p167
aV2^9
p168
asg9
V2015-10-08 21:41:09
p169
sS'part1_incorrect_attempt'
p170
(lp171
(S'0:00:00'
p172
V9^2
p173
tp174
assVssamudra
p175
(dp176
S'part1_correct_attempt'
p177
(lp178
S'0:00:07'
p179
aV2^11
p180
asg9
V2015-10-08 07:52:33
p181
sS'part1_incorrect_attempt'
p182
(lp183
(S'0:00:00'
p184
V11^11
p185
tp186
assVjhw015
p187
(dp188
S'part1_correct_attempt'
p189
(lp190
S'0:03:29'
p191
aV2^9
p192
asg9
V2015-10-04 02:49:52
p193
sS'part1_incorrect_attempt'
p194
(lp195
(S'0:00:00'
p196
VP(9,2)
p197
tp198
assVhah008
p199
(dp200
S'part1_correct_attempt'
p201
(lp202
S'0:07:28'
p203
aV2^9
p204
asg9
V2015-10-08 06:27:43
p205
sS'part1_incorrect_attempt'
p206
(lp207
(S'0:00:00'
p208
V9^2
p209
tp210
assVsayao
p211
(dp212
S'part1_correct_attempt'
p213
(lp214
S'0:00:20'
p215
aV2^11
p216
asg9
V2015-10-03 00:24:44
p217
sS'part1_incorrect_attempt'
p218
(lp219
(S'0:00:00'
p220
V11^4
p221
tp222
assVachava
p223
(dp224
S'part1_correct_attempt'
p225
(lp226
S'0:06:08'
p227
aV2^11
p228
asg9
V2015-10-02 05:03:10
p229
sS'part1_incorrect_attempt'
p230
(lp231
(S'0:00:00'
p232
V11*11
p233
tp234
a(S'0:00:39'
p235
V11^2
p236
tp237
a(S'0:00:59'
p238
V11^3
p239
tp240
a(S'0:02:05'
p241
V11^11
p242
tp243
a(S'0:04:23'
p244
V11!
p245
tp246
a(S'0:04:55'
p247
V11!*11!
p248
tp249
assVhmshah
p250
(dp251
S'part1_correct_attempt'
p252
(lp253
S'0:00:49'
p254
aV2^11
p255
asg9
V2015-10-06 01:52:02
p256
sS'part1_incorrect_attempt'
p257
(lp258
(S'0:00:00'
p259
V11*11
p260
tp261
assVwcwhite
p262
(dp263
S'part1_correct_attempt'
p264
(lp265
S'7:37:30'
p266
aV2^11
p267
asg9
V2015-10-06 19:10:30
p268
sS'part1_incorrect_attempt'
p269
(lp270
(S'0:00:00'
p271
V11^2
p272
tp273
a(S'0:00:08'
p274
V11*11
p275
tp276
a(S'0:00:16'
p277
V11+11
p278
tp279
a(S'0:00:45'
p280
V11!
p281
tp282
a(S'0:01:02'
p283
V11!/(2!(11-2)!)
p284
tp285
a(S'0:01:21'
p286
V11!/(4!(11-4)!)
p287
tp288
a(S'0:00:00'
p289
V11!/2!
p290
tp291
a(S'0:00:15'
p292
V11!/4!
p293
tp294
a(S'0:00:20'
p295
V2!
p296
tp297
a(S'0:00:24'
p298
V11!
p299
tp300
assVc1wei
p301
(dp302
S'part1_correct_attempt'
p303
(lp304
S'0:06:10'
p305
aV2^9
p306
asg9
V2015-10-08 07:38:25
p307
sS'part1_incorrect_attempt'
p308
(lp309
(S'0:00:00'
p310
V9^9
p311
tp312
assVedcole
p313
(dp314
S'part1_correct_attempt'
p315
(lp316
S'1 day, 19:23:04'
p317
aV2^11
p318
asg9
V2015-10-04 22:11:06
p319
sS'part1_incorrect_attempt'
p320
(lp321
(S'0:00:00'
p322
V11*2
p323
tp324
assVvasharma
p325
(dp326
S'part1_correct_attempt'
p327
(lp328
S'0:32:38'
p329
aV2^10
p330
asg9
V2015-10-05 06:20:38
p331
sS'part1_incorrect_attempt'
p332
(lp333
(S'0:00:00'
p334
V10^10
p335
tp336
a(S'0:00:05'
p337
V10!
p338
tp339
a(S'0:32:01'
p340
V10!/(10-2)!
p341
tp342
a(S'0:32:14'
p343
V10!/(10-8)!
p344
tp345
assVlalacson
p346
(dp347
S'part1_correct_attempt'
p348
(lp349
S'0:02:41'
p350
aV2^11
p351
asg9
V2015-10-03 15:21:32
p352
sS'part1_incorrect_attempt'
p353
(lp354
(S'0:00:00'
p355
V11!
p356
tp357
a(S'0:01:33'
p358
VP(11,2)
p359
tp360
a(S'0:01:54'
p361
V11!/((11-2)!)
p362
tp363
a(S'0:02:22'
p364
V11*4
p365
tp366
assVxweng
p367
(dp368
S'part1_correct_attempt'
p369
(lp370
S'0:00:39'
p371
aV2^9
p372
asg9
V2015-10-07 07:00:24
p373
sS'part1_incorrect_attempt'
p374
(lp375
(S'0:00:00'
p376
V9^2
p377
tp378
asssV3
p379
(dp380
Vjtfrankl
p381
(dp382
S'part3_correct_attempt'
p383
(lp384
S'2:55:15'
p385
aV11*(1/2)**11
p386
asS'part2_correct_attempt'
p387
(lp388
S'0:00:37'
p389
aV11
p390
asS'part1_correct_attempt'
p391
(lp392
S'0:00:00'
p393
aV2**11
p394
asg9
V2015-10-07 23:40:21
p395
sS'part3_incorrect_attempt'
p396
(lp397
(S'0:01:03'
p398
V(1/2)**11
p399
tp400
a(S'0:01:22'
p401
V(1/2)**19
p402
tp403
a(S'0:01:29'
p404
V(1/2)**10
p405
tp406
assVmsaguiar
p407
(dp408
S'part3_correct_attempt'
p409
(lp410
S'0:21:32'
p411
aV9/(2^9)
p412
asS'part2_correct_attempt'
p413
(lp414
S'0:00:30'
p415
aV9
p416
asS'part1_correct_attempt'
p417
(lp418
S'0:00:00'
p419
aV(2^9)
p420
asg9
V2015-10-06 04:23:45
p421
sS'part3_incorrect_attempt'
p422
(lp423
(S'0:02:31'
p424
V9*((1/2)^8)
p425
tp426
assVcstringh
p427
(dp428
S'part3_correct_attempt'
p429
(lp430
S'0:06:43'
p431
aV10/(2^10)
p432
asS'part2_correct_attempt'
p433
(lp434
S'0:03:12'
p435
aV10
p436
asS'part1_correct_attempt'
p437
(lp438
S'0:00:00'
p439
aV2^10
p440
asg9
V2015-10-04 00:02:56
p441
sS'part3_incorrect_attempt'
p442
(lp443
(S'0:05:36'
p444
V(1/2)^9
p445
tp446
assVagoldsht
p447
(dp448
S'part3_correct_attempt'
p449
(lp450
S'0:22:32'
p451
aV11/2^11
p452
asS'part2_correct_attempt'
p453
(lp454
S'0:19:06'
p455
aV(11!/10!)
p456
asS'part1_correct_attempt'
p457
(lp458
S'0:00:00'
p459
aV2^11
p460
asg9
V2015-10-06 23:09:31
p461
sS'part3_incorrect_attempt'
p462
(lp463
(S'0:21:43'
p464
V11/10
p465
tp466
a(S'0:21:51'
p467
V11/10!
p468
tp469
assVjag028
p470
(dp471
S'part3_correct_attempt'
p472
(lp473
S'2 days, 16:23:40'
p474
aV(9!/(8!*1!))*(1/2)^8*(1/2)^1
p475
asS'part2_correct_attempt'
p476
(lp477
S'0:19:02'
p478
aV9
p479
asS'part1_correct_attempt'
p480
(lp481
S'0:00:00'
p482
aV2^9
p483
asg9
V2015-10-05 06:22:46
p484
sS'part3_incorrect_attempt'
p485
(lp486
(S'0:19:20'
p487
V8/9
p488
tp489
assVt2shin
p490
(dp491
S'part3_correct_attempt'
p492
(lp493
S'0:00:55'
p494
aV10/(2^10)
p495
asS'part2_correct_attempt'
p496
(lp497
S'0:00:00'
p498
aV10
p499
asS'part1_correct_attempt'
p500
(lp501
S'0:00:00'
p502
aV2^10
p503
asg9
V2015-10-08 02:00:14
p504
sS'part3_incorrect_attempt'
p505
(lp506
(S'0:00:35'
p507
V(1/2)^10
p508
tp509
assVksmurlo
p510
(dp511
S'part3_correct_attempt'
p512
(lp513
S'1 day, 2:26:52'
p514
aV10/(2^10)
p515
asS'part2_correct_attempt'
p516
(lp517
S'0:00:00'
p518
aV10
p519
asS'part1_correct_attempt'
p520
(lp521
S'0:00:00'
p522
aV2^10
p523
asg9
V2015-10-05 22:14:02
p524
sS'part3_incorrect_attempt'
p525
(lp526
(S'1 day, 2:26:07'
p527
V10!/(1!9!)
p528
tp529
assVc2qiu
p530
(dp531
S'part3_correct_attempt'
p532
(lp533
S'0:05:29'
p534
aV11*((1/2)^11)
p535
asS'part2_correct_attempt'
p536
(lp537
S'0:00:00'
p538
aV11
p539
asS'part1_correct_attempt'
p540
(lp541
S'0:00:00'
p542
aV2^11
p543
asg9
V2015-10-03 18:41:23
p544
sS'part3_incorrect_attempt'
p545
(lp546
(S'0:00:00'
p547
V11/(1/2)^11
p548
tp549
assVlrlai
p550
(dp551
S'part3_correct_attempt'
p552
(lp553
S'0:01:25'
p554
aV0.5^11*11
p555
asS'part2_correct_attempt'
p556
(lp557
S'0:00:00'
p558
aV11
p559
asS'part1_correct_attempt'
p560
(lp561
S'0:00:00'
p562
aV2^11
p563
asg9
V2015-10-04 23:21:49
p564
sS'part3_incorrect_attempt'
p565
(lp566
(S'0:00:00'
p567
V0.5^11
p568
tp569
assVkmc012
p570
(dp571
S'part3_correct_attempt'
p572
(lp573
S'2 days, 22:15:32'
p574
aV11/(2^11)
p575
asS'part2_correct_attempt'
p576
(lp577
S'2 days, 21:57:13'
p578
aV11
p579
asS'part1_correct_attempt'
p580
(lp581
S'0:00:00'
p582
aV2^(11)
p583
asg9
V2015-10-05 07:50:52
p584
sS'part3_incorrect_attempt'
p585
(lp586
(S'2 days, 21:57:35'
p587
VC(11,10)
p588
tp589
a(S'2 days, 22:03:19'
p590
VC(11,10)/(11!)
p591
tp592
a(S'2 days, 22:04:22'
p593
V11/(11!)
p594
tp595
assVc1sorian
p596
(dp597
S'part3_correct_attempt'
p598
(lp599
S'0:04:22'
p600
aV10/(2^10)
p601
asS'part2_correct_attempt'
p602
(lp603
S'0:02:09'
p604
aV10
p605
asS'part1_correct_attempt'
p606
(lp607
S'0:00:00'
p608
aV2^10
p609
asg9
V2015-10-08 05:40:36
p610
sS'part3_incorrect_attempt'
p611
(lp612
(S'0:02:36'
p613
V10!/(9!)
p614
tp615
assVjnatale
p616
(dp617
S'part3_correct_attempt'
p618
(lp619
S'0:13:55'
p620
aV9/(2^9)
p621
asS'part2_correct_attempt'
p622
(lp623
S'0:08:02'
p624
aV9
p625
asS'part1_correct_attempt'
p626
(lp627
S'0:00:00'
p628
aV2^9
p629
asg9
V2015-10-08 00:17:10
p630
sS'part3_incorrect_attempt'
p631
(lp632
(S'0:09:58'
p633
V(2^9)/(1/2)^8
p634
tp635
a(S'0:10:06'
p636
V(1/2)^8
p637
tp638
a(S'0:10:17'
p639
V((1/2)^8)/9
p640
tp641
a(S'0:10:24'
p642
V(1/2)*8
p643
tp644
a(S'0:11:02'
p645
V(1/2)*9
p646
tp647
a(S'0:11:13'
p648
V(1/2)^9
p649
tp650
a(S'0:11:18'
p651
V(1/2)*9
p652
tp653
a(S'0:12:47'
p654
V(2^9)/8
p655
tp656
assVjcl084
p657
(dp658
S'part3_correct_attempt'
p659
(lp660
S'0:08:31'
p661
aV10 * (1/2)^10
p662
asS'part2_correct_attempt'
p663
(lp664
S'0:02:58'
p665
aV10
p666
asS'part1_correct_attempt'
p667
(lp668
S'0:00:00'
p669
aV2^10
p670
asg9
V2015-10-08 19:25:12
p671
sS'part3_incorrect_attempt'
p672
(lp673
(S'0:07:38'
p674
V 126* ((1/2)^9) * 1/2
p675
tp676
a(S'0:07:48'
p677
V 126* ((1/2)^9) * (1/2)
p678
tp679
assVyil035
p680
(dp681
S'part3_correct_attempt'
p682
(lp683
S'0:01:00'
p684
aV9/512
p685
asS'part2_correct_attempt'
p686
(lp687
S'0:00:00'
p688
aV9
p689
asS'part1_correct_attempt'
p690
(lp691
S'0:00:00'
p692
aV2^9
p693
asg9
V2015-10-07 06:03:13
p694
sS'part3_incorrect_attempt'
p695
(lp696
(S'0:00:00'
p697
V1/256
p698
tp699
assVedescobe
p700
(dp701
S'part3_correct_attempt'
p702
(lp703
S'0:00:33'
p704
aV.017578
p705
asS'part3_incorrect_attempt'
p706
(lp707
(S'0:00:00'
p708
V.0175
p709
tp710
asS'part1_correct_attempt'
p711
(lp712
S'0:00:00'
p713
aV512
p714
asg9
V2015-10-04 09:40:33
p715
ssVmtrafeca
p716
(dp717
S'part3_correct_attempt'
p718
(lp719
S'12:32:46'
p720
aV10/(2^10)
p721
asS'part2_correct_attempt'
p722
(lp723
S'0:00:26'
p724
aV10
p725
asS'part1_correct_attempt'
p726
(lp727
S'0:00:00'
p728
aV2^10
p729
asg9
V2015-10-02 06:02:13
p730
sS'part3_incorrect_attempt'
p731
(lp732
(S'0:03:34'
p733
V(.5^9)*2
p734
tp735
a(S'0:04:01'
p736
V(.5^9)*10
p737
tp738
a(S'12:29:12'
p739
V(.5^9)
p740
tp741
a(S'12:29:25'
p742
V(.5^9)*10
p743
tp744
assVt2li
p745
(dp746
S'part3_correct_attempt'
p747
(lp748
S'0:06:34'
p749
aV10/2^10
p750
asS'part2_correct_attempt'
p751
(lp752
S'0:01:45'
p753
aV10
p754
asS'part1_correct_attempt'
p755
(lp756
S'0:00:00'
p757
aV2^10
p758
asg9
V2015-10-06 03:19:13
p759
sS'part3_incorrect_attempt'
p760
(lp761
(S'0:06:15'
p762
V10/100
p763
tp764
asssV2
p765
(dp766
Va8ho
p767
(dp768
S'part2_correct_attempt'
p769
(lp770
S'0:11:19'
p771
aV10
p772
asg9
V2015-10-07 06:00:13
p773
sS'part2_incorrect_attempt'
p774
(lp775
(S'0:00:32'
p776
V2^10
p777
tp778
a(S'0:00:38'
p779
V2^9
p780
tp781
assVdmn009
p782
(dp783
g9
V2015-10-08 09:33:03
p784
sS'part2_incorrect_attempt'
p785
(lp786
(S'0:00:10'
p787
V2^10
p788
tp789
assVfichoi
p790
(dp791
S'part2_correct_attempt'
p792
(lp793
S'0:03:40'
p794
aV10
p795
asg9
V2015-10-06 21:42:14
p796
sS'part2_incorrect_attempt'
p797
(lp798
(S'0:01:27'
p799
VC(10,9)
p800
tp801
assVttimmons
p802
(dp803
S'part2_correct_attempt'
p804
(lp805
S'0:02:07'
p806
aV[9!]/[8!*(9-8)!]
p807
asg9
V2015-10-02 19:39:22
p808
sS'part2_incorrect_attempt'
p809
(lp810
(S'0:00:00'
p811
V2^8
p812
tp813
a(S'0:00:56'
p814
VC(2^9,8)
p815
tp816
a(S'0:01:37'
p817
VC(9,8)
p818
tp819
assVlpettit
p820
(dp821
S'part2_correct_attempt'
p822
(lp823
S'0:37:47'
p824
aV11
p825
asg9
V2015-10-06 02:52:20
p826
sS'part2_incorrect_attempt'
p827
(lp828
(S'0:28:22'
p829
V2^10
p830
tp831
assVagoldsht
p832
(dp833
S'part2_correct_attempt'
p834
(lp835
S'0:19:06'
p836
ag456
asg9
g461
sS'part2_incorrect_attempt'
p837
(lp838
(S'0:15:59'
p839
V10!
p840
tp841
assVctroncos
p842
(dp843
S'part2_correct_attempt'
p844
(lp845
S'0:02:53'
p846
aV11
p847
asg9
V2015-10-08 05:42:25
p848
sS'part2_incorrect_attempt'
p849
(lp850
(S'0:01:38'
p851
V10!
p852
tp853
assVglcohen
p854
(dp855
S'part2_correct_attempt'
p856
(lp857
S'0:13:34'
p858
aV(10!)/(9!(10-9)!)
p859
asg9
V2015-10-04 22:55:55
p860
sS'part2_incorrect_attempt'
p861
(lp862
(S'0:02:08'
p863
V2^9
p864
tp865
assVacvuong
p866
(dp867
S'part2_correct_attempt'
p868
(lp869
S'0:01:31'
p870
aV9
p871
asg9
V2015-10-04 00:17:26
p872
sS'part2_incorrect_attempt'
p873
(lp874
(S'-1 day, 23:57:47'
p875
V2^8
p876
tp877
a(S'0:00:00'
p878
VC(9,8)
p879
tp880
assVjcl084
p881
(dp882
S'part2_correct_attempt'
p883
(lp884
S'0:02:58'
p885
ag666
asg9
g671
sS'part2_incorrect_attempt'
p886
(lp887
(S'0:00:00'
p888
V2^9
p889
tp890
a(S'0:00:57'
p891
V2^10 - 2
p892
tp893
assVany027
p894
(dp895
S'part2_correct_attempt'
p896
(lp897
S'14:36:10'
p898
aV(11!/ (1! * 10!))
p899
asg9
V2015-10-03 10:49:50
p900
sS'part2_incorrect_attempt'
p901
(lp902
(S'0:03:28'
p903
V2^11 - 2^10
p904
tp905
a(S'0:23:20'
p906
V2^10
p907
tp908
assVjjm019
p909
(dp910
S'part2_correct_attempt'
p911
(lp912
S'0:34:31'
p913
aV9
p914
asg9
V2015-10-08 01:43:02
p915
sS'part2_incorrect_attempt'
p916
(lp917
(S'0:02:53'
p918
V2^8
p919
tp920
assVsachadal
p921
(dp922
S'part2_correct_attempt'
p923
(lp924
S'0:07:23'
p925
aV10
p926
asg9
V2015-10-05 18:52:40
p927
sS'part2_incorrect_attempt'
p928
(lp929
(S'0:02:14'
p930
VC(10,9)
p931
tp932
assVkthui
p933
(dp934
S'part2_correct_attempt'
p935
(lp936
S'0:07:22'
p937
aV11!/((11-10)!10!)
p938
asg9
V2015-10-04 07:04:11
p939
sS'part2_incorrect_attempt'
p940
(lp941
(S'0:03:36'
p942
V2^10*11
p943
tp944
a(S'0:07:04'
p945
VC(11, 10)
p946
tp947
assVe9brown
p948
(dp949
S'part2_correct_attempt'
p950
(lp951
S'-1 day, 23:59:47'
p952
aV11
p953
asg9
V2015-10-08 02:09:24
p954
sS'part2_incorrect_attempt'
p955
(lp956
(S'-1 day, 23:58:48'
p957
VC(11,10)
p958
tp959
assVvsosnovs
p960
(dp961
S'part2_correct_attempt'
p962
(lp963
S'0:20:15'
p964
aV9!/8!
p965
asg9
V2015-10-04 17:40:35
p966
sS'part2_incorrect_attempt'
p967
(lp968
(S'0:02:35'
p969
V(2^9)/(2)
p970
tp971
assVaportuga
p972
(dp973
S'part2_correct_attempt'
p974
(lp975
S'0:10:01'
p976
aV10
p977
asg9
V2015-10-06 05:36:44
p978
sS'part2_incorrect_attempt'
p979
(lp980
(S'0:01:00'
p981
V2^9
p982
tp983
a(S'0:02:47'
p984
V2^10
p985
tp986
assVb1green
p987
(dp988
S'part2_correct_attempt'
p989
(lp990
S'12:59:54'
p991
aV11
p992
asg9
V2015-10-08 06:08:57
p993
sS'part2_incorrect_attempt'
p994
(lp995
(S'0:05:35'
p996
VP(11,10)
p997
tp998
assVnhn018
p999
(dp1000
S'part2_correct_attempt'
p1001
(lp1002
S'0:41:48'
p1003
aV10
p1004
asg9
V2015-10-07 03:00:39
p1005
sS'part2_incorrect_attempt'
p1006
(lp1007
(S'0:00:00'
p1008
V2^9
p1009
tp1010
a(S'0:27:51'
p1011
V2^10
p1012
tp1013
a(S'0:34:17'
p1014
V2^9
p1015
tp1016
a(S'0:40:10'
p1017
V2^9
p1018
tp1019
assVn2patil
p1020
(dp1021
S'part2_correct_attempt'
p1022
(lp1023
S'1 day, 13:30:58'
p1024
aV11
p1025
asg9
V2015-10-06 15:47:55
p1026
sS'part2_incorrect_attempt'
p1027
(lp1028
(S'0:00:33'
p1029
V2^10
p1030
tp1031
assVpcdo
p1032
(dp1033
S'part2_correct_attempt'
p1034
(lp1035
S'0:26:04'
p1036
aV11
p1037
asg9
V2015-10-06 19:56:42
p1038
sS'part2_incorrect_attempt'
p1039
(lp1040
(S'0:00:00'
p1041
V2^10
p1042
tp1043
a(S'0:10:58'
p1044
V10!2!
p1045
tp1046
a(S'0:12:07'
p1047
VC(11,10)
p1048
tp1049
a(S'0:21:04'
p1050
V10!/10
p1051
tp1052
a(S'0:24:40'
p1053
V2^11
p1054
tp1055
a(S'0:25:32'
p1056
VC(11, 10)
p1057
tp1058
assVgsrandha
p1059
(dp1060
S'part2_correct_attempt'
p1061
(lp1062
S'0:08:19'
p1063
aV9
p1064
asg9
V2015-10-02 02:24:47
p1065
sS'part2_incorrect_attempt'
p1066
(lp1067
(S'0:00:22'
p1068
V2^8
p1069
tp1070
assVjhw015
p1071
(dp1072
S'part2_correct_attempt'
p1073
(lp1074
S'0:12:48'
p1075
aV9
p1076
asg9
V2015-10-04 02:53:21
p1077
sS'part2_incorrect_attempt'
p1078
(lp1079
(S'0:07:17'
p1080
V8^2
p1081
tp1082
a(S'0:08:54'
p1083
V2^8
p1084
tp1085
a(S'0:10:11'
p1086
V8^9
p1087
tp1088
a(S'0:12:30'
p1089
VC(9,8)
p1090
tp1091
assVrlhagen
p1092
(dp1093
S'part2_correct_attempt'
p1094
(lp1095
S'0:02:03'
p1096
aV(9!)/8!(9-8)!
p1097
asg9
V2015-10-04 22:41:32
p1098
sS'part2_incorrect_attempt'
p1099
(lp1100
(S'0:00:00'
p1101
V9!/(9-8)!
p1102
tp1103
assVbtn023
p1104
(dp1105
S'part2_correct_attempt'
p1106
(lp1107
S'0:01:01'
p1108
aV9
p1109
asg9
V2015-10-02 01:49:20
p1110
sS'part2_incorrect_attempt'
p1111
(lp1112
(S'0:00:00'
p1113
VC(9,8)
p1114
tp1115
assVajvanega
p1116
(dp1117
S'part2_correct_attempt'
p1118
(lp1119
S'0:03:12'
p1120
aV11
p1121
asg9
V2015-10-02 21:17:52
p1122
sS'part2_incorrect_attempt'
p1123
(lp1124
(S'0:01:33'
p1125
V2^10
p1126
tp1127
assVielouaae
p1128
(dp1129
S'part2_correct_attempt'
p1130
(lp1131
S'0:07:20'
p1132
aV11
p1133
asg9
V2015-10-08 23:17:41
p1134
sS'part2_incorrect_attempt'
p1135
(lp1136
(S'0:00:26'
p1137
V2^10
p1138
tp1139
a(S'0:01:55'
p1140
V2^11
p1141
tp1142
a(S'0:04:58'
p1143
V2^10
p1144
tp1145
assVtcn013
p1146
(dp1147
S'part2_correct_attempt'
p1148
(lp1149
S'0:00:13'
p1150
aV11
p1151
asg9
V2015-10-06 00:57:02
p1152
sS'part2_incorrect_attempt'
p1153
(lp1154
(S'-1 day, 23:59:29'
p1155
V2^10
p1156
tp1157
assVskodigal
p1158
(dp1159
S'part2_correct_attempt'
p1160
(lp1161
S'0:03:11'
p1162
aV10
p1163
asg9
V2015-10-08 00:45:33
p1164
sS'part2_incorrect_attempt'
p1165
(lp1166
(S'0:00:58'
p1167
VC(10,9)
p1168
tp1169
assVrraiyyan
p1170
(dp1171
S'part2_correct_attempt'
p1172
(lp1173
S'0:03:35'
p1174
aV11!/(10!*1!)
p1175
asg9
V2015-10-06 06:46:36
p1176
sS'part2_incorrect_attempt'
p1177
(lp1178
(S'0:00:00'
p1179
V10!/(2!*8!)
p1180
tp1181
assVhachrist
p1182
(dp1183
S'part2_correct_attempt'
p1184
(lp1185
S'2 days, 8:23:35'
p1186
aV9!/(8!)
p1187
asg9
V2015-10-02 19:51:04
p1188
sS'part2_incorrect_attempt'
p1189
(lp1190
(S'2 days, 2:22:45'
p1191
V2^8
p1192
tp1193
assVkew017
p1194
(dp1195
S'part2_correct_attempt'
p1196
(lp1197
S'0:23:37'
p1198
aV11
p1199
asg9
V2015-10-04 19:42:44
p1200
sS'part2_incorrect_attempt'
p1201
(lp1202
(S'0:15:26'
p1203
V2*11
p1204
tp1205
assVdsmonaha
p1206
(dp1207
S'part2_correct_attempt'
p1208
(lp1209
S'0:08:03'
p1210
aV9
p1211
asg9
V2015-10-05 18:33:47
p1212
sS'part2_incorrect_attempt'
p1213
(lp1214
(S'0:06:37'
p1215
V9!
p1216
tp1217
a(S'0:07:29'
p1218
V2^8
p1219
tp1220
assVthwan
p1221
(dp1222
S'part2_correct_attempt'
p1223
(lp1224
S'1 day, 16:21:21'
p1225
aV10!/9!
p1226
asg9
V2015-10-04 00:06:24
p1227
sS'part2_incorrect_attempt'
p1228
(lp1229
(S'0:01:37'
p1230
V2^10-1
p1231
tp1232
a(S'1 day, 16:12:36'
p1233
V1^(9)*2^(1)
p1234
tp1235
a(S'1 day, 16:14:15'
p1236
V2*9!/8!
p1237
tp1238
assVkmc012
p1239
(dp1240
S'part2_correct_attempt'
p1241
(lp1242
S'2 days, 21:57:13'
p1243
ag579
asg9
g584
sS'part2_incorrect_attempt'
p1244
(lp1245
(S'2 days, 21:56:26'
p1246
V2^10
p1247
tp1248
a(S'2 days, 21:56:32'
p1249
V2^11
p1250
tp1251
assVhah008
p1252
(dp1253
S'part2_correct_attempt'
p1254
(lp1255
S'0:47:58'
p1256
aV9
p1257
asg9
V2015-10-08 06:35:11
p1258
sS'part2_incorrect_attempt'
p1259
(lp1260
(S'0:02:12'
p1261
V2^8
p1262
tp1263
a(S'0:27:32'
p1264
V2^8
p1265
tp1266
assVtdurrer
p1267
(dp1268
S'part2_correct_attempt'
p1269
(lp1270
S'0:13:40'
p1271
aV11
p1272
asg9
V2015-10-04 03:04:55
p1273
sS'part2_incorrect_attempt'
p1274
(lp1275
(S'0:00:00'
p1276
VC(2048, 10)
p1277
tp1278
assVq3wen
p1279
(dp1280
S'part2_correct_attempt'
p1281
(lp1282
S'0:01:10'
p1283
aV10
p1284
asg9
V2015-10-07 07:23:37
p1285
sS'part2_incorrect_attempt'
p1286
(lp1287
(S'0:00:00'
p1288
V2^9
p1289
tp1290
assVlguintu
p1291
(dp1292
S'part2_correct_attempt'
p1293
(lp1294
S'0:00:52'
p1295
aV10
p1296
asg9
V2015-10-06 16:52:34
p1297
sS'part2_incorrect_attempt'
p1298
(lp1299
(S'0:00:00'
p1300
VC(10,9)
p1301
tp1302
assVasp025
p1303
(dp1304
S'part2_correct_attempt'
p1305
(lp1306
S'1:23:52'
p1307
aV10
p1308
asg9
V2015-10-08 15:57:20
p1309
sS'part2_incorrect_attempt'
p1310
(lp1311
(S'0:47:36'
p1312
V10!
p1313
tp1314
a(S'0:47:46'
p1315
V9!
p1316
tp1317
assVhmshah
p1318
(dp1319
S'part2_correct_attempt'
p1320
(lp1321
S'0:13:31'
p1322
aV11
p1323
asg9
V2015-10-06 01:52:51
p1324
sS'part2_incorrect_attempt'
p1325
(lp1326
(S'0:12:25'
p1327
V10!
p1328
tp1329
assVwcwhite
p1330
(dp1331
S'part2_correct_attempt'
p1332
(lp1333
S'0:05:48'
p1334
aV11
p1335
asg9
V2015-10-07 02:48:00
p1336
sS'part2_incorrect_attempt'
p1337
(lp1338
(S'0:01:11'
p1339
V.5*10
p1340
tp1341
a(S'0:01:24'
p1342
V11!
p1343
tp1344
assVdaw023
p1345
(dp1346
S'part2_correct_attempt'
p1347
(lp1348
S'19:20:57'
p1349
aV11
p1350
asg9
V2015-10-03 08:19:29
p1351
sS'part2_incorrect_attempt'
p1352
(lp1353
(S'0:00:00'
p1354
V2^11-2^10-1
p1355
tp1356
assVcstringh
p1357
(dp1358
S'part2_correct_attempt'
p1359
(lp1360
S'0:03:12'
p1361
ag436
asg9
g441
sS'part2_incorrect_attempt'
p1362
(lp1363
(S'0:01:54'
p1364
V2^9+2
p1365
tp1366
a(S'0:02:02'
p1367
V2^9
p1368
tp1369
a(S'0:02:20'
p1370
V9+2
p1371
tp1372
a(S'0:02:50'
p1373
V10!
p1374
tp1375
a(S'0:03:00'
p1376
V9!
p1377
tp1378
assVedcole
p1379
(dp1380
S'part2_correct_attempt'
p1381
(lp1382
S'0:02:55'
p1383
aV11
p1384
asg9
V2015-10-06 17:34:10
p1385
sS'part2_incorrect_attempt'
p1386
(lp1387
(S'-2 days, 4:35:45'
p1388
V11*2
p1389
tp1390
a(S'0:00:00'
p1391
V2^10
p1392
tp1393
a(S'0:02:26'
p1394
V2^11
p1395
tp1396
assVrbdoming
p1397
(dp1398
S'part2_correct_attempt'
p1399
(lp1400
S'0:02:26'
p1401
aV9
p1402
asg9
V2015-10-02 21:11:01
p1403
sS'part2_incorrect_attempt'
p1404
(lp1405
(S'0:00:00'
p1406
VC(9,8)
p1407
tp1408
assVaurodrig
p1409
(dp1410
S'part2_correct_attempt'
p1411
(lp1412
S'0:38:57'
p1413
aV9
p1414
asg9
V2015-10-07 04:38:05
p1415
sS'part2_incorrect_attempt'
p1416
(lp1417
(S'0:09:40'
p1418
V2^8
p1419
tp1420
assVdruble
p1421
(dp1422
S'part2_correct_attempt'
p1423
(lp1424
S'0:27:46'
p1425
aV11
p1426
asg9
V2015-10-08 20:49:15
p1427
sS'part2_incorrect_attempt'
p1428
(lp1429
(S'0:18:10'
p1430
VC(11, 10)
p1431
tp1432
assVyjshin
p1433
(dp1434
S'part2_correct_attempt'
p1435
(lp1436
S'0:00:37'
p1437
aV10
p1438
asg9
V2015-10-07 07:48:44
p1439
sS'part2_incorrect_attempt'
p1440
(lp1441
(S'-1 day, 23:57:39'
p1442
V2^9
p1443
tp1444
a(S'-1 day, 23:57:43'
p1445
V2^10
p1446
tp1447
assVdcastlem
p1448
(dp1449
S'part2_correct_attempt'
p1450
(lp1451
S'0:18:33'
p1452
aV10!/9!
p1453
asg9
V2015-10-03 21:42:23
p1454
sS'part2_incorrect_attempt'
p1455
(lp1456
(S'0:17:31'
p1457
V9!
p1458
tp1459
assVarvenega
p1460
(dp1461
S'part2_correct_attempt'
p1462
(lp1463
S'0:07:59'
p1464
aV11
p1465
asg9
V2015-10-08 04:49:12
p1466
sS'part2_incorrect_attempt'
p1467
(lp1468
(S'0:00:11'
p1469
V2^10
p1470
tp1471
assVhsc052
p1472
(dp1473
S'part2_correct_attempt'
p1474
(lp1475
S'0:00:18'
p1476
aV9!/[1!(9-1)!]
p1477
asg9
V2015-10-08 04:59:09
p1478
sS'part2_incorrect_attempt'
p1479
(lp1480
(S'0:00:00'
p1481
V8!/[1!(8-1)!]
p1482
tp1483
assVlcardoso
p1484
(dp1485
S'part2_correct_attempt'
p1486
(lp1487
S'0:20:00'
p1488
aV10
p1489
asg9
V2015-10-08 05:57:54
p1490
sS'part2_incorrect_attempt'
p1491
(lp1492
(S'0:00:00'
p1493
V(1^9)*2
p1494
tp1495
a(S'0:02:50'
p1496
V(1^9)*(1^(10-9))
p1497
tp1498
assVv3doan
p1499
(dp1500
S'part2_correct_attempt'
p1501
(lp1502
S'0:00:31'
p1503
aV10
p1504
asg9
V2015-10-04 00:02:45
p1505
sS'part2_incorrect_attempt'
p1506
(lp1507
(S'0:00:00'
p1508
V2^9
p1509
tp1510
assVhmnaing
p1511
(dp1512
S'part2_correct_attempt'
p1513
(lp1514
S'21:20:36'
p1515
aV11
p1516
asg9
V2015-10-07 02:45:21
p1517
sS'part2_incorrect_attempt'
p1518
(lp1519
(S'16:46:00'
p1520
V10* C(2,1)
p1521
tp1522
a(S'16:46:29'
p1523
V10*( C(2,1))
p1524
tp1525
assVmjethani
p1526
(dp1527
S'part2_correct_attempt'
p1528
(lp1529
S'0:16:35'
p1530
aV11
p1531
asg9
V2015-10-04 23:03:15
p1532
sS'part2_incorrect_attempt'
p1533
(lp1534
(S'0:15:28'
p1535
V(2^11)-11
p1536
tp1537
assVsyc078
p1538
(dp1539
S'part2_correct_attempt'
p1540
(lp1541
S'0:38:26'
p1542
aV11
p1543
asg9
V2015-10-08 22:37:44
p1544
sS'part2_incorrect_attempt'
p1545
(lp1546
(S'0:16:41'
p1547
V2^10
p1548
tp1549
assVwhcombs
p1550
(dp1551
S'part2_correct_attempt'
p1552
(lp1553
S'0:20:10'
p1554
aV(9!)/(1!(9-1)!)
p1555
asg9
V2015-10-07 18:57:17
p1556
sS'part2_incorrect_attempt'
p1557
(lp1558
(S'0:07:22'
p1559
V8!/(2!(8-2)!)
p1560
tp1561
assVcprafull
p1562
(dp1563
S'part2_correct_attempt'
p1564
(lp1565
S'0:00:38'
p1566
aV11
p1567
asg9
V2015-10-06 19:24:57
p1568
sS'part2_incorrect_attempt'
p1569
(lp1570
(S'0:00:11'
p1571
V2^10
p1572
tp1573
asssV5
p1574
(dp1575
Vgthorn
p1576
(dp1577
S'part5_correct_attempt'
p1578
(lp1579
S'0:10:51'
p1580
aV0.1640625
p1581
asS'part2_correct_attempt'
p1582
(lp1583
S'0:00:00'
p1584
aV9
p1585
asS'part5_incorrect_attempt'
p1586
(lp1587
(S'0:07:15'
p1588
V0.01171875
p1589
tp1590
asS'part3_correct_attempt'
p1591
(lp1592
S'0:00:00'
p1593
aV0.017578125
p1594
asS'part1_correct_attempt'
p1595
(lp1596
S'0:00:00'
p1597
aV512
p1598
asg9
V2015-10-04 02:24:46
p1599
ssVdlgoldbe
p1600
(dp1601
S'part5_correct_attempt'
p1602
(lp1603
S'0:07:56'
p1604
aV((9!)/(3!*6!))/(2^9)
p1605
asS'part2_correct_attempt'
p1606
(lp1607
S'0:00:49'
p1608
aV9
p1609
asS'part5_incorrect_attempt'
p1610
(lp1611
(S'0:07:40'
p1612
V(9!)/(3!*6!)
p1613
tp1614
asS'part3_correct_attempt'
p1615
(lp1616
S'0:00:49'
p1617
aV9/(2^9)
p1618
asS'part1_correct_attempt'
p1619
(lp1620
S'0:00:00'
p1621
aV2^9
p1622
asg9
V2015-10-08 04:52:01
p1623
ssVaportuga
p1624
(dp1625
S'part5_correct_attempt'
p1626
(lp1627
S'0:50:48'
p1628
aV((10!/4!)/6!)/(2^10)
p1629
asS'part2_correct_attempt'
p1630
(lp1631
S'0:10:01'
p1632
ag977
asS'part5_incorrect_attempt'
p1633
(lp1634
(S'0:15:33'
p1635
V10!/((10-6)!6!)
p1636
tp1637
asS'part3_correct_attempt'
p1638
(lp1639
S'0:10:19'
p1640
aV10/(2^10)
p1641
asS'part1_correct_attempt'
p1642
(lp1643
S'0:00:00'
p1644
aV2^10
p1645
asg9
g978
ssVlpettit
p1646
(dp1647
S'part5_correct_attempt'
p1648
(lp1649
S'0:41:37'
p1650
aV((11!)/(6!*(5!)))/2048
p1651
asS'part2_correct_attempt'
p1652
(lp1653
S'0:37:47'
p1654
ag825
asS'part5_incorrect_attempt'
p1655
(lp1656
(S'0:40:55'
p1657
V(11!)/(6!*(5!))
p1658
tp1659
asS'part3_correct_attempt'
p1660
(lp1661
S'0:38:21'
p1662
aV11/2048
p1663
asS'part1_correct_attempt'
p1664
(lp1665
S'0:00:00'
p1666
aV2^11
p1667
asg9
g826
ssVagoldsht
p1668
(dp1669
S'part5_correct_attempt'
p1670
(lp1671
S'2:03:52'
p1672
aV11!/(5!*6!*2^11)
p1673
asS'part2_correct_attempt'
p1674
(lp1675
S'0:19:06'
p1676
ag456
asS'part5_incorrect_attempt'
p1677
(lp1678
(S'2:03:03'
p1679
V11!/(5!6!)
p1680
tp1681
asS'part3_correct_attempt'
p1682
(lp1683
S'0:22:32'
p1684
ag452
asS'part1_correct_attempt'
p1685
(lp1686
S'0:00:00'
p1687
ag460
asg9
g461
ssVv4zhang
p1688
(dp1689
S'part5_correct_attempt'
p1690
(lp1691
S'0:25:22'
p1692
aV462/2048
p1693
asS'part2_correct_attempt'
p1694
(lp1695
S'0:01:21'
p1696
aV11
p1697
asS'part5_incorrect_attempt'
p1698
(lp1699
(S'0:19:33'
p1700
V1-[(2^6)/2048]
p1701
tp1702
asS'part3_correct_attempt'
p1703
(lp1704
S'0:01:21'
p1705
aV11/2048
p1706
asS'part1_correct_attempt'
p1707
(lp1708
S'0:00:00'
p1709
aV2048
p1710
asg9
V2015-10-08 08:01:07
p1711
ssVkebao
p1712
(dp1713
S'part5_correct_attempt'
p1714
(lp1715
S'0:15:37'
p1716
aV(11!/(6!*5!))/2048
p1717
asS'part2_correct_attempt'
p1718
(lp1719
S'0:08:16'
p1720
aV11
p1721
asS'part5_incorrect_attempt'
p1722
(lp1723
(S'0:09:12'
p1724
V6!
p1725
tp1726
asS'part3_correct_attempt'
p1727
(lp1728
S'0:08:39'
p1729
aV11/2048
p1730
asS'part1_correct_attempt'
p1731
(lp1732
S'0:00:00'
p1733
aV2048
p1734
asg9
V2015-10-03 17:50:44
p1735
ssVglcohen
p1736
(dp1737
S'part5_correct_attempt'
p1738
(lp1739
S'0:15:29'
p1740
aV(10!)/(6!(10-6)!)/1024
p1741
asS'part2_correct_attempt'
p1742
(lp1743
S'0:13:34'
p1744
ag859
asS'part5_incorrect_attempt'
p1745
(lp1746
(S'0:15:13'
p1747
V(10!)/(6!(10-6)!)
p1748
tp1749
asS'part3_correct_attempt'
p1750
(lp1751
S'0:12:30'
p1752
aV((10!)/(9!))/1024
p1753
asS'part1_correct_attempt'
p1754
(lp1755
S'0:00:00'
p1756
aV1024
p1757
asg9
g860
ssVppanourg
p1758
(dp1759
S'part5_correct_attempt'
p1760
(lp1761
S'6:35:41'
p1762
aV((9*8*7)/6)/(2^9)
p1763
asS'part2_correct_attempt'
p1764
(lp1765
S'0:01:09'
p1766
aV9
p1767
asS'part5_incorrect_attempt'
p1768
(lp1769
(S'0:02:47'
p1770
V(9*8*7)/(3!)
p1771
tp1772
asS'part3_correct_attempt'
p1773
(lp1774
S'0:02:47'
p1775
aV9/(2^9)
p1776
asS'part1_correct_attempt'
p1777
(lp1778
S'0:00:00'
p1779
aV2^9
p1780
asg9
V2015-10-07 23:44:44
p1781
ssVewbrenna
p1782
(dp1783
S'part5_correct_attempt'
p1784
(lp1785
S'0:49:49'
p1786
aV(9!/(6!*(3!)))/512
p1787
asS'part2_correct_attempt'
p1788
(lp1789
S'0:00:00'
p1790
aV9
p1791
asS'part5_incorrect_attempt'
p1792
(lp1793
(S'0:49:22'
p1794
V9!/(6!*(3!))
p1795
tp1796
asS'part3_correct_attempt'
p1797
(lp1798
S'0:00:00'
p1799
aV9/(2^9)
p1800
asS'part1_correct_attempt'
p1801
(lp1802
S'0:00:00'
p1803
aV2^9
p1804
asg9
V2015-10-04 04:13:31
p1805
ssVjcl084
p1806
(dp1807
S'part5_correct_attempt'
p1808
(lp1809
S'0:19:32'
p1810
aV210 * (1/2)^10
p1811
asS'part2_correct_attempt'
p1812
(lp1813
S'0:02:58'
p1814
ag666
asS'part5_incorrect_attempt'
p1815
(lp1816
(S'0:17:48'
p1817
V90 * (1/2)^10
p1818
tp1819
a(S'0:18:02'
p1820
V90 * (1/2)^7
p1821
tp1822
asS'part3_correct_attempt'
p1823
(lp1824
S'0:08:31'
p1825
ag662
asS'part1_correct_attempt'
p1826
(lp1827
S'0:00:00'
p1828
ag670
asg9
g671
ssVspw006
p1829
(dp1830
S'part5_correct_attempt'
p1831
(lp1832
S'13:31:25'
p1833
aV(10*9*8*7/4!)(1/64)(1/16)
p1834
asS'part2_correct_attempt'
p1835
(lp1836
S'0:00:47'
p1837
aV10
p1838
asS'part5_incorrect_attempt'
p1839
(lp1840
(S'13:30:37'
p1841
V(10*9*8*7)(1/64)(1/16)
p1842
tp1843
asS'part3_correct_attempt'
p1844
(lp1845
S'0:01:24'
p1846
aV10/1024
p1847
asS'part1_correct_attempt'
p1848
(lp1849
S'0:00:00'
p1850
aV2^10
p1851
asg9
V2015-10-04 05:55:21
p1852
ssVcprafull
p1853
(dp1854
S'part5_correct_attempt'
p1855
(lp1856
S'6:00:12'
p1857
aV(11!/[(6!)(5!)])/(2^11)
p1858
asS'part2_correct_attempt'
p1859
(lp1860
S'0:00:38'
p1861
ag1567
asS'part5_incorrect_attempt'
p1862
(lp1863
(S'5:59:49'
p1864
V11!/[(6!)(5!)]
p1865
tp1866
asS'part3_correct_attempt'
p1867
(lp1868
S'0:00:56'
p1869
aV11/(2^11)
p1870
asS'part1_correct_attempt'
p1871
(lp1872
S'0:00:00'
p1873
aV2^11
p1874
asg9
g1568
ssVanislam
p1875
(dp1876
S'part5_correct_attempt'
p1877
(lp1878
S'0:08:13'
p1879
aV(10! / (6! * 4!)) * (1/2)^6 * (1/2)^4
p1880
asS'part2_correct_attempt'
p1881
(lp1882
S'0:00:00'
p1883
aV10
p1884
asS'part5_incorrect_attempt'
p1885
(lp1886
(S'0:00:00'
p1887
V10 * 9 * 8 * 7
p1888
tp1889
a(S'0:02:07'
p1890
V10 * 9 * 8 * 7 / 10!
p1891
tp1892
asS'part3_correct_attempt'
p1893
(lp1894
S'0:00:00'
p1895
aV10 / 2 ^ 10
p1896
asS'part1_correct_attempt'
p1897
(lp1898
S'0:00:00'
p1899
aV2^10
p1900
asg9
V2015-10-08 23:47:23
p1901
ssVeaherman
p1902
(dp1903
S'part5_correct_attempt'
p1904
(lp1905
S'0:07:21'
p1906
aV[(10!)/((6!)(4!))]/1024
p1907
asS'part2_correct_attempt'
p1908
(lp1909
S'0:01:17'
p1910
aV10
p1911
asS'part5_incorrect_attempt'
p1912
(lp1913
(S'0:03:55'
p1914
V[10!]/[(6!)(4!)]
p1915
tp1916
a(S'0:05:16'
p1917
V6!
p1918
tp1919
a(S'0:05:23'
p1920
V4!
p1921
tp1922
asS'part3_correct_attempt'
p1923
(lp1924
S'0:02:10'
p1925
aV10/1024
p1926
asS'part1_correct_attempt'
p1927
(lp1928
S'0:00:00'
p1929
aV2^(10)
p1930
asg9
V2015-10-03 20:58:35
p1931
ssVl5han
p1932
(dp1933
S'part5_correct_attempt'
p1934
(lp1935
S'1 day, 16:29:51'
p1936
aV[11!/(5!*6!)]/2^11
p1937
asS'part2_correct_attempt'
p1938
(lp1939
S'0:00:00'
p1940
aV11
p1941
asS'part5_incorrect_attempt'
p1942
(lp1943
(S'1 day, 16:28:53'
p1944
V11!/(5!*6!)
p1945
tp1946
asS'part3_correct_attempt'
p1947
(lp1948
S'0:00:00'
p1949
aV11/(2^11)
p1950
asS'part1_correct_attempt'
p1951
(lp1952
S'0:00:00'
p1953
aV2^11
p1954
asg9
V2015-10-05 01:51:13
p1955
ssVpvl001
p1956
(dp1957
S'part5_correct_attempt'
p1958
(lp1959
S'0:02:22'
p1960
aV210/1024
p1961
asS'part2_correct_attempt'
p1962
(lp1963
S'0:01:26'
p1964
aV10
p1965
asS'part5_incorrect_attempt'
p1966
(lp1967
(S'0:01:26'
p1968
V1/210
p1969
tp1970
asS'part3_correct_attempt'
p1971
(lp1972
S'0:01:26'
p1973
aV10/1024
p1974
asS'part1_correct_attempt'
p1975
(lp1976
S'0:00:00'
p1977
aV1024
p1978
asg9
V2015-10-03 15:48:09
p1979
ssVvsosnovs
p1980
(dp1981
S'part5_correct_attempt'
p1982
(lp1983
S'0:25:41'
p1984
aV84/512
p1985
asS'part2_correct_attempt'
p1986
(lp1987
S'0:20:15'
p1988
ag965
asS'part5_incorrect_attempt'
p1989
(lp1990
(S'0:23:02'
p1991
V9!/(6!(3!))
p1992
tp1993
a(S'0:23:17'
p1994
V9!/(6!3!)
p1995
tp1996
asS'part3_correct_attempt'
p1997
(lp1998
S'0:20:45'
p1999
aV9/512
p2000
asS'part1_correct_attempt'
p2001
(lp2002
S'0:00:00'
p2003
ag87
asg9
g966
ssVb1green
p2004
(dp2005
S'part5_correct_attempt'
p2006
(lp2007
S'13:23:41'
p2008
aV462/(2^11)
p2009
asS'part2_correct_attempt'
p2010
(lp2011
S'12:59:54'
p2012
ag992
asS'part5_incorrect_attempt'
p2013
(lp2014
(S'13:04:41'
p2015
VP(11,6)
p2016
tp2017
asS'part3_correct_attempt'
p2018
(lp2019
S'13:00:45'
p2020
aV11/(2^11)
p2021
asS'part1_correct_attempt'
p2022
(lp2023
S'0:00:00'
p2024
aV2^11
p2025
asg9
g993
ssVb3hwang
p2026
(dp2027
S'part5_correct_attempt'
p2028
(lp2029
S'0:03:17'
p2030
aV210/(2^10)
p2031
asS'part2_correct_attempt'
p2032
(lp2033
S'0:00:00'
p2034
aV10
p2035
asS'part5_incorrect_attempt'
p2036
(lp2037
(S'0:01:39'
p2038
V(.5)^10
p2039
tp2040
asS'part3_correct_attempt'
p2041
(lp2042
S'0:00:00'
p2043
aV10/(2^10)
p2044
asS'part1_correct_attempt'
p2045
(lp2046
S'0:00:00'
p2047
aV2^10
p2048
asg9
V2015-10-08 23:36:30
p2049
ssVc4du
p2050
(dp2051
S'part5_correct_attempt'
p2052
(lp2053
S'0:15:19'
p2054
aV84/2^9
p2055
asS'part2_correct_attempt'
p2056
(lp2057
S'0:00:00'
p2058
aV9
p2059
asS'part5_incorrect_attempt'
p2060
(lp2061
(S'0:02:39'
p2062
VC(9,6)
p2063
tp2064
asS'part3_correct_attempt'
p2065
(lp2066
S'0:00:00'
p2067
aV9/2^9
p2068
asS'part1_correct_attempt'
p2069
(lp2070
S'0:00:00'
p2071
aV2^9
p2072
asg9
V2015-10-07 06:43:50
p2073
ssVtpmach
p2074
(dp2075
S'part5_correct_attempt'
p2076
(lp2077
S'0:09:02'
p2078
aV(9!/[6!(9-6)!])/2^9
p2079
asS'part2_correct_attempt'
p2080
(lp2081
S'0:03:24'
p2082
aV9!/[8!(9-8)!]
p2083
asS'part5_incorrect_attempt'
p2084
(lp2085
(S'0:08:35'
p2086
V9!/[6!(9-6)!]
p2087
tp2088
asS'part3_correct_attempt'
p2089
(lp2090
S'0:03:36'
p2091
aV9/2^9
p2092
asS'part1_correct_attempt'
p2093
(lp2094
S'0:00:00'
p2095
aV2^9
p2096
asg9
V2015-10-03 21:40:56
p2097
ssVsyc078
p2098
(dp2099
S'part5_correct_attempt'
p2100
(lp2101
S'0:40:48'
p2102
aV((11!) / ( (6!) (5!) )) / (2^11)
p2103
asS'part2_correct_attempt'
p2104
(lp2105
S'0:38:26'
p2106
ag1543
asS'part5_incorrect_attempt'
p2107
(lp2108
(S'0:38:26'
p2109
VC(11, 5)
p2110
tp2111
a(S'0:39:03'
p2112
V11/((6!)(5!))
p2113
tp2114
a(S'0:39:38'
p2115
V(11!)/((6!)(5!))
p2116
tp2117
a(S'0:40:04'
p2118
V(11!) / ( (6!) (5!) )
p2119
tp2120
asS'part3_correct_attempt'
p2121
(lp2122
S'0:38:26'
p2123
aV11/(2^11)
p2124
asS'part1_correct_attempt'
p2125
(lp2126
S'0:00:00'
p2127
aV2^11
p2128
asg9
g1544
ssVctroncos
p2129
(dp2130
S'part5_correct_attempt'
p2131
(lp2132
S'17:59:52'
p2133
aV(11!/(6!*5!))(0.5^6)(0.5)^5
p2134
asS'part2_correct_attempt'
p2135
(lp2136
S'0:02:53'
p2137
ag847
asS'part5_incorrect_attempt'
p2138
(lp2139
(S'17:57:27'
p2140
V(11!/(11!*5!))(0.5^6)(0.5)^5
p2141
tp2142
asS'part3_correct_attempt'
p2143
(lp2144
S'0:03:29'
p2145
aV11/(2^11)
p2146
asS'part1_correct_attempt'
p2147
(lp2148
S'0:00:00'
p2149
aV2^11
p2150
asg9
g848
ssVbmilton
p2151
(dp2152
S'part5_correct_attempt'
p2153
(lp2154
S'0:20:08'
p2155
aV210/1024
p2156
asS'part2_correct_attempt'
p2157
(lp2158
S'0:01:06'
p2159
aV10
p2160
asS'part5_incorrect_attempt'
p2161
(lp2162
(S'0:04:12'
p2163
V1/2(10*9*8*7)/1024
p2164
tp2165
a(S'0:04:25'
p2166
V(1/2)^6
p2167
tp2168
a(S'0:04:32'
p2169
V(1/2)^10
p2170
tp2171
asS'part3_correct_attempt'
p2172
(lp2173
S'0:02:50'
p2174
aV10/1024
p2175
asS'part1_correct_attempt'
p2176
(lp2177
S'0:00:00'
p2178
aV2^10
p2179
asg9
V2015-10-04 01:42:25
p2180
ssVdcgriffi
p2181
(dp2182
S'part5_correct_attempt'
p2183
(lp2184
S'2:35:04'
p2185
aV((11!)/((6!)*(5!)))/(2^11)
p2186
asS'part2_correct_attempt'
p2187
(lp2188
S'0:00:00'
p2189
aV11
p2190
asS'part5_incorrect_attempt'
p2191
(lp2192
(S'0:07:42'
p2193
V11^5
p2194
tp2195
a(S'0:07:58'
p2196
V11*5
p2197
tp2198
a(S'0:35:45'
p2199
V(11!)/(6!)
p2200
tp2201
a(S'2:25:32'
p2202
V(11!)/(5!)
p2203
tp2204
asS'part3_correct_attempt'
p2205
(lp2206
S'0:00:00'
p2207
aV11/(2^11)
p2208
asS'part1_correct_attempt'
p2209
(lp2210
S'0:00:00'
p2211
aV2^11
p2212
asg9
V2015-10-08 03:55:58
p2213
ssVrsmurlo
p2214
(dp2215
S'part5_correct_attempt'
p2216
(lp2217
S'0:33:46'
p2218
aV(9!/(3!6!))/2^9
p2219
asS'part2_correct_attempt'
p2220
(lp2221
S'0:00:51'
p2222
aV9
p2223
asS'part5_incorrect_attempt'
p2224
(lp2225
(S'0:33:07'
p2226
V9!/(3!6!)
p2227
tp2228
asS'part3_correct_attempt'
p2229
(lp2230
S'0:00:00'
p2231
aV9/2^9
p2232
asS'part1_correct_attempt'
p2233
(lp2234
S'0:00:00'
p2235
aV2^9
p2236
asg9
V2015-10-08 01:54:38
p2237
ssVjnatale
p2238
(dp2239
S'part5_correct_attempt'
p2240
(lp2241
S'2:38:01'
p2242
aV21/128
p2243
asS'part2_correct_attempt'
p2244
(lp2245
S'0:08:02'
p2246
ag625
asS'part5_incorrect_attempt'
p2247
(lp2248
(S'0:14:41'
p2249
V6/(2^9) + 4/(2^9)
p2250
tp2251
a(S'0:14:46'
p2252
V6/(2^9) + 3/(2^9)
p2253
tp2254
asS'part3_correct_attempt'
p2255
(lp2256
S'0:13:55'
p2257
ag621
asS'part1_correct_attempt'
p2258
(lp2259
S'0:00:00'
p2260
ag629
asg9
g630
ssVavasavad
p2261
(dp2262
S'part5_correct_attempt'
p2263
(lp2264
S'2 days, 16:39:24'
p2265
aV(11!/[6!5!])/2^11
p2266
asS'part2_correct_attempt'
p2267
(lp2268
S'0:00:00'
p2269
aV11
p2270
asS'part5_incorrect_attempt'
p2271
(lp2272
(S'0:19:36'
p2273
V6!(5!*6!)
p2274
tp2275
a(S'0:21:23'
p2276
V4* 6!(5!*6!)
p2277
tp2278
asS'part3_correct_attempt'
p2279
(lp2280
S'0:00:00'
p2281
aV11/(2^11)
p2282
asS'part1_correct_attempt'
p2283
(lp2284
S'0:00:00'
p2285
aV2^11
p2286
asg9
V2015-10-06 06:11:58
p2287
ssVmrchin
p2288
(dp2289
S'part5_correct_attempt'
p2290
(lp2291
S'0:09:54'
p2292
aV[(10*9*8*7)/(4*3*2)]*[(1/2)^6]*[1-(1/2)]^4
p2293
asS'part2_correct_attempt'
p2294
(lp2295
S'0:00:42'
p2296
aV10
p2297
asS'part5_incorrect_attempt'
p2298
(lp2299
(S'0:08:03'
p2300
V[(2^10)/6]*[(1/2)^6]*[1-(1/2)]^4
p2301
tp2302
asS'part3_correct_attempt'
p2303
(lp2304
S'0:00:47'
p2305
aV10/(2^10)
p2306
asS'part1_correct_attempt'
p2307
(lp2308
S'0:00:00'
p2309
aV2^10
p2310
asg9
V2015-10-05 20:49:34
p2311
ssVtwsalim
p2312
(dp2313
S'part5_correct_attempt'
p2314
(lp2315
S'0:17:19'
p2316
aV0.22558
p2317
asS'part2_correct_attempt'
p2318
(lp2319
S'0:00:00'
p2320
aV11
p2321
asS'part5_incorrect_attempt'
p2322
(lp2323
(S'0:00:00'
p2324
V0.225
p2325
tp2326
asS'part3_correct_attempt'
p2327
(lp2328
S'0:00:00'
p2329
aV0.00537
p2330
asS'part1_correct_attempt'
p2331
(lp2332
S'0:00:00'
p2333
aV2048
p2334
asg9
V2015-10-04 00:20:29
p2335
ssVachinn
p2336
(dp2337
S'part5_correct_attempt'
p2338
(lp2339
S'0:01:55'
p2340
aV(10!/((6!)*(4!)))/2^10
p2341
asS'part2_correct_attempt'
p2342
(lp2343
S'0:00:00'
p2344
aV10
p2345
asS'part5_incorrect_attempt'
p2346
(lp2347
(S'0:00:00'
p2348
V10!/((6!)*(4!))
p2349
tp2350
asS'part3_correct_attempt'
p2351
(lp2352
S'0:00:00'
p2353
aV10/(2^10)
p2354
asS'part1_correct_attempt'
p2355
(lp2356
S'0:00:00'
p2357
aV2^10
p2358
asg9
V2015-10-06 19:28:30
p2359
ssVjap009
p2360
(dp2361
S'part5_correct_attempt'
p2362
(lp2363
S'0:20:06'
p2364
aV231/1024
p2365
asS'part2_correct_attempt'
p2366
(lp2367
S'0:00:56'
p2368
aV11
p2369
asS'part5_incorrect_attempt'
p2370
(lp2371
(S'0:06:37'
p2372
V1/2
p2373
tp2374
asS'part3_correct_attempt'
p2375
(lp2376
S'0:01:44'
p2377
aV11/2^11
p2378
asS'part1_correct_attempt'
p2379
(lp2380
S'0:00:00'
p2381
aV2^11
p2382
asg9
V2015-10-08 22:38:05
p2383
ssVkalang
p2384
(dp2385
S'part5_correct_attempt'
p2386
(lp2387
S'0:23:51'
p2388
aV(9!/(6!*3!))/2^9
p2389
asS'part2_correct_attempt'
p2390
(lp2391
S'0:02:01'
p2392
aV9
p2393
asS'part5_incorrect_attempt'
p2394
(lp2395
(S'0:04:03'
p2396
V1/(2^9)*9^3
p2397
tp2398
asS'part3_correct_attempt'
p2399
(lp2400
S'0:01:35'
p2401
aV1/(2^9)*9
p2402
asS'part1_correct_attempt'
p2403
(lp2404
S'0:00:00'
p2405
aV2^9
p2406
asg9
V2015-10-05 22:33:36
p2407
ssVmsaguiar
p2408
(dp2409
S'part5_correct_attempt'
p2410
(lp2411
S'0:25:58'
p2412
aV(9!/((6!)(3!)))/2^9
p2413
asS'part2_correct_attempt'
p2414
(lp2415
S'0:00:30'
p2416
ag416
asS'part5_incorrect_attempt'
p2417
(lp2418
(S'0:25:34'
p2419
V9!/((6!)(3!))
p2420
tp2421
asS'part3_correct_attempt'
p2422
(lp2423
S'0:21:32'
p2424
ag412
asS'part1_correct_attempt'
p2425
(lp2426
S'0:00:00'
p2427
ag420
asg9
g421
ssVaalhaida
p2428
(dp2429
S'part5_correct_attempt'
p2430
(lp2431
S'0:25:29'
p2432
aV(10!/(6!*4!))/2^10
p2433
asS'part2_correct_attempt'
p2434
(lp2435
S'0:16:09'
p2436
aV10
p2437
asS'part5_incorrect_attempt'
p2438
(lp2439
(S'0:22:46'
p2440
V10!/(3!*6!*2^10)
p2441
tp2442
asS'part3_correct_attempt'
p2443
(lp2444
S'0:16:09'
p2445
aV10/2^10
p2446
asS'part1_correct_attempt'
p2447
(lp2448
S'0:00:00'
p2449
aV2^10
p2450
asg9
V2015-10-08 11:46:36
p2451
ssVctgraves
p2452
(dp2453
S'part5_correct_attempt'
p2454
(lp2455
S'0:05:06'
p2456
aV(11!)/(6! * (11-6)!)/2^11
p2457
asS'part2_correct_attempt'
p2458
(lp2459
S'0:00:00'
p2460
aV11
p2461
asS'part5_incorrect_attempt'
p2462
(lp2463
(S'0:00:58'
p2464
V6!/(11-6)!
p2465
tp2466
a(S'0:04:59'
p2467
V(11!)/(6!  * (11-6)!)
p2468
tp2469
asS'part3_correct_attempt'
p2470
(lp2471
S'0:00:00'
p2472
aV11/(2^11)
p2473
asS'part1_correct_attempt'
p2474
(lp2475
S'0:00:00'
p2476
aV2^11
p2477
asg9
V2015-10-06 00:21:53
p2478
ssVdsmonaha
p2479
(dp2480
S'part5_correct_attempt'
p2481
(lp2482
S'1 day, 22:43:27'
p2483
aV84/2^9
p2484
asS'part2_correct_attempt'
p2485
(lp2486
S'0:08:03'
p2487
ag1211
asS'part5_incorrect_attempt'
p2488
(lp2489
(S'1 day, 22:40:25'
p2490
V1-(C(9,6)/(2^9))
p2491
tp2492
asS'part3_correct_attempt'
p2493
(lp2494
S'0:08:30'
p2495
aV9/512
p2496
asS'part1_correct_attempt'
p2497
(lp2498
S'0:00:00'
p2499
aV2^9
p2500
asg9
g1212
ssVtstevens
p2501
(dp2502
S'part5_correct_attempt'
p2503
(lp2504
S'1 day, 5:28:04'
p2505
aV0.205078125
p2506
asS'part2_correct_attempt'
p2507
(lp2508
S'0:00:00'
p2509
aV10
p2510
asS'part5_incorrect_attempt'
p2511
(lp2512
(S'0:00:59'
p2513
V.5^.6
p2514
tp2515
asS'part3_correct_attempt'
p2516
(lp2517
S'0:00:00'
p2518
aV10/1024
p2519
asS'part1_correct_attempt'
p2520
(lp2521
S'0:00:00'
p2522
aV1024
p2523
asg9
V2015-10-07 12:14:07
p2524
ssVwcwhite
p2525
(dp2526
S'part5_correct_attempt'
p2527
(lp2528
S'1 day, 16:20:21'
p2529
aV(11!/(6!(11-6)!))*(.5^6)*(.5^5)
p2530
asS'part2_correct_attempt'
p2531
(lp2532
S'0:05:48'
p2533
ag1335
asS'part5_incorrect_attempt'
p2534
(lp2535
(S'1 day, 16:10:13'
p2536
V11!/(6!(11-6)!)
p2537
tp2538
a(S'1 day, 16:11:10'
p2539
V11!/(6!5!)
p2540
tp2541
a(S'1 day, 16:11:19'
p2542
V11!/30!
p2543
tp2544
a(S'1 day, 16:12:20'
p2545
V1/2
p2546
tp2547
asS'part3_correct_attempt'
p2548
(lp2549
S'18:12:44'
p2550
aV11/2^11
p2551
asS'part1_correct_attempt'
p2552
(lp2553
S'0:00:00'
p2554
ag267
asg9
g1336
ssVjcj006
p2555
(dp2556
S'part5_correct_attempt'
p2557
(lp2558
S'0:09:24'
p2559
aV(7+6*2+5*3+4*4+3*5+2*6+7)/2^9
p2560
asS'part2_correct_attempt'
p2561
(lp2562
S'0:00:00'
p2563
aV9
p2564
asS'part5_incorrect_attempt'
p2565
(lp2566
(S'0:05:46'
p2567
V7!*6!*5!*4!*3!*2
p2568
tp2569
a(S'0:07:32'
p2570
V7+6*2+5*3+4*4+3*5+2*6+7
p2571
tp2572
a(S'0:08:28'
p2573
V1/(7+6*2+5*3+4*4+3*5+2*6+7)
p2574
tp2575
a(S'0:09:03'
p2576
V1/(2^9 - (7+6*2+5*3+4*4+3*5+2*6+7))
p2577
tp2578
asS'part3_correct_attempt'
p2579
(lp2580
S'0:00:00'
p2581
aV9/(2^9)
p2582
asS'part1_correct_attempt'
p2583
(lp2584
S'0:00:00'
p2585
aV2^9
p2586
asg9
V2015-10-08 00:18:54
p2587
ssVsippolit
p2588
(dp2589
S'part5_correct_attempt'
p2590
(lp2591
S'0:24:07'
p2592
aV(9!/(6!*3!))/512
p2593
asS'part2_correct_attempt'
p2594
(lp2595
S'0:01:40'
p2596
aV9
p2597
asS'part5_incorrect_attempt'
p2598
(lp2599
(S'0:19:40'
p2600
V6!/(6!*4!)
p2601
tp2602
asS'part3_correct_attempt'
p2603
(lp2604
S'0:01:40'
p2605
aV9/512
p2606
asS'part1_correct_attempt'
p2607
(lp2608
S'0:00:00'
p2609
aV2^9
p2610
asg9
V2015-10-03 20:02:36
p2611
ssVaadhakal
p2612
(dp2613
S'part5_correct_attempt'
p2614
(lp2615
S'13:44:41'
p2616
aV210/1024
p2617
asS'part2_correct_attempt'
p2618
(lp2619
S'-1 day, 23:57:19'
p2620
aV10
p2621
asS'part5_incorrect_attempt'
p2622
(lp2623
(S'12:52:14'
p2624
V1/7
p2625
tp2626
asS'part3_correct_attempt'
p2627
(lp2628
S'0:08:17'
p2629
aV10/1024
p2630
asS'part1_correct_attempt'
p2631
(lp2632
S'0:00:00'
p2633
aV1024
p2634
asg9
V2015-10-05 07:24:25
p2635
ssVsayao
p2636
(dp2637
S'part5_correct_attempt'
p2638
(lp2639
S'0:15:12'
p2640
aV11!/(5! * 6!)/2^11
p2641
asS'part2_correct_attempt'
p2642
(lp2643
S'0:00:57'
p2644
aV11
p2645
asS'part5_incorrect_attempt'
p2646
(lp2647
(S'0:02:26'
p2648
VC(11,6)
p2649
tp2650
a(S'0:08:07'
p2651
V11!/5!
p2652
tp2653
a(S'0:08:24'
p2654
V2^6
p2655
tp2656
a(S'0:12:42'
p2657
VC(11,5)
p2658
tp2659
asS'part3_correct_attempt'
p2660
(lp2661
S'0:01:13'
p2662
aV11/2^11
p2663
asS'part1_correct_attempt'
p2664
(lp2665
S'0:00:00'
p2666
ag216
asg9
V2015-10-03 00:25:04
p2667
ssVanvan
p2668
(dp2669
S'part5_correct_attempt'
p2670
(lp2671
S'0:01:48'
p2672
aV11!/(6!5!) * (1/2)^11
p2673
asS'part2_correct_attempt'
p2674
(lp2675
S'0:00:29'
p2676
aV11
p2677
asS'part5_incorrect_attempt'
p2678
(lp2679
(S'0:01:06'
p2680
V11 * (1/2)^11
p2681
tp2682
asS'part3_correct_attempt'
p2683
(lp2684
S'0:01:06'
p2685
aV11 * (1/2)^11
p2686
asS'part1_correct_attempt'
p2687
(lp2688
S'0:00:00'
p2689
aV2^(11)
p2690
asg9
V2015-10-03 07:47:33
p2691
ssVjnn015
p2692
(dp2693
S'part5_correct_attempt'
p2694
(lp2695
S'0:36:58'
p2696
aV11!/6!/5!/2^11
p2697
asS'part2_correct_attempt'
p2698
(lp2699
S'0:02:15'
p2700
aV11
p2701
asS'part5_incorrect_attempt'
p2702
(lp2703
(S'0:34:29'
p2704
V12!/6!/6!
p2705
tp2706
asS'part3_correct_attempt'
p2707
(lp2708
S'0:02:15'
p2709
aV11/2^11
p2710
asS'part1_correct_attempt'
p2711
(lp2712
S'0:00:00'
p2713
aV2^11
p2714
asg9
V2015-10-03 20:45:32
p2715
ssVksrijong
p2716
(dp2717
S'part5_correct_attempt'
p2718
(lp2719
S'0:09:57'
p2720
aV[(11*10*9*8*7*6)/(6!)]/2^11
p2721
asS'part2_correct_attempt'
p2722
(lp2723
S'0:04:03'
p2724
aV11
p2725
asS'part5_incorrect_attempt'
p2726
(lp2727
(S'0:05:55'
p2728
V(11*10*9*8*7*6)/(6!)
p2729
tp2730
asS'part3_correct_attempt'
p2731
(lp2732
S'0:04:36'
p2733
aV11/2^11
p2734
asS'part1_correct_attempt'
p2735
(lp2736
S'0:00:00'
p2737
aV2^11
p2738
asg9
V2015-10-08 08:03:24
p2739
ssVjjchung
p2740
(dp2741
S'part5_correct_attempt'
p2742
(lp2743
S'0:06:25'
p2744
aV(11!/(6!*5!))*(.5^6)*(.5^5)
p2745
asS'part2_correct_attempt'
p2746
(lp2747
S'0:00:50'
p2748
aV11
p2749
asS'part5_incorrect_attempt'
p2750
(lp2751
(S'0:06:11'
p2752
V(11!/6!*5!)*(.5^6)*(.5^5)
p2753
tp2754
asS'part3_correct_attempt'
p2755
(lp2756
S'0:02:03'
p2757
aV11/(2^11)
p2758
asS'part1_correct_attempt'
p2759
(lp2760
S'0:00:00'
p2761
ag33
asg9
V2015-10-08 06:23:52
p2762
ssVjtfrankl
p2763
(dp2764
S'part5_correct_attempt'
p2765
(lp2766
S'3:05:24'
p2767
aV(11!/(5!6!))/(2**11)
p2768
asS'part2_correct_attempt'
p2769
(lp2770
S'0:00:37'
p2771
ag390
asS'part5_incorrect_attempt'
p2772
(lp2773
(S'2:56:30'
p2774
V6*(1/2)**11
p2775
tp2776
asS'part3_correct_attempt'
p2777
(lp2778
S'2:55:15'
p2779
ag386
asS'part1_correct_attempt'
p2780
(lp2781
S'0:00:00'
p2782
ag394
asg9
g395
ssVtdurrer
p2783
(dp2784
S'part5_correct_attempt'
p2785
(lp2786
S'0:15:24'
p2787
aV[(11!)/((6!)(5!))]/2048
p2788
asS'part2_correct_attempt'
p2789
(lp2790
S'0:13:40'
p2791
ag1272
asS'part5_incorrect_attempt'
p2792
(lp2793
(S'0:14:56'
p2794
V(11!)/((6!)(5!))
p2795
tp2796
asS'part3_correct_attempt'
p2797
(lp2798
S'0:14:56'
p2799
aV11/2048
p2800
asS'part1_correct_attempt'
p2801
(lp2802
S'0:00:00'
p2803
aV2^11
p2804
asg9
g1273
ssVcstringh
p2805
(dp2806
S'part5_correct_attempt'
p2807
(lp2808
S'2 days, 21:57:10'
p2809
aV(10!)/(6!(10-6)!)* (1/2)^6*(1/2)^4
p2810
asS'part2_correct_attempt'
p2811
(lp2812
S'0:03:12'
p2813
ag436
asS'part5_incorrect_attempt'
p2814
(lp2815
(S'2 days, 21:51:37'
p2816
V(1/2)^6
p2817
tp2818
a(S'2 days, 21:56:27'
p2819
V(10!)/(6!(10-6)!)
p2820
tp2821
a(S'2 days, 21:56:56'
p2822
V(10!)/(6!(10-6)!)* (1/2)^6*(1/2)4
p2823
tp2824
asS'part3_correct_attempt'
p2825
(lp2826
S'0:06:43'
p2827
ag432
asS'part1_correct_attempt'
p2828
(lp2829
S'0:00:00'
p2830
ag440
asg9
g441
ssVcsl030
p2831
(dp2832
S'part5_correct_attempt'
p2833
(lp2834
S'0:13:55'
p2835
aV(9!/(6!* 3!))/2^9
p2836
asS'part2_correct_attempt'
p2837
(lp2838
S'0:00:00'
p2839
aV9
p2840
asS'part5_incorrect_attempt'
p2841
(lp2842
(S'0:07:25'
p2843
V(1/2)^6 * 2 * 2 * 2
p2844
tp2845
a(S'0:08:49'
p2846
V(1/2)^6
p2847
tp2848
a(S'0:09:03'
p2849
V(1/2)^9
p2850
tp2851
a(S'0:11:35'
p2852
VC(9, 6)
p2853
tp2854
a(S'0:12:16'
p2855
VC(9,6)
p2856
tp2857
asS'part3_correct_attempt'
p2858
(lp2859
S'0:00:00'
p2860
aV9/2^9
p2861
asS'part1_correct_attempt'
p2862
(lp2863
S'0:00:00'
p2864
aV2^9
p2865
asg9
V2015-10-04 21:44:22
p2866
ssVv4sharma
p2867
(dp2868
S'part5_correct_attempt'
p2869
(lp2870
S'1:01:05'
p2871
aV10!/((2^10)(4!)(6!))
p2872
asS'part2_correct_attempt'
p2873
(lp2874
S'0:00:37'
p2875
aV10
p2876
asS'part5_incorrect_attempt'
p2877
(lp2878
(S'0:32:09'
p2879
V10!/(2^10)(6!)(4!)
p2880
tp2881
a(S'0:59:42'
p2882
V10!/(2^10)(6!)(4!)(6!)
p2883
tp2884
asS'part3_correct_attempt'
p2885
(lp2886
S'0:00:59'
p2887
aV10/(2^10)
p2888
asS'part1_correct_attempt'
p2889
(lp2890
S'0:00:00'
p2891
aV2^10
p2892
asg9
V2015-10-05 01:23:58
p2893
ssVr2fisher
p2894
(dp2895
S'part5_correct_attempt'
p2896
(lp2897
S'4:20:14'
p2898
aV(11!/(6!*5!))/(2^11)
p2899
asS'part2_correct_attempt'
p2900
(lp2901
S'0:00:18'
p2902
aV11
p2903
asS'part5_incorrect_attempt'
p2904
(lp2905
(S'0:01:53'
p2906
V11!/(6!*5!)
p2907
tp2908
a(S'0:02:10'
p2909
V11!/(6!)
p2910
tp2911
a(S'0:02:15'
p2912
V11!/(5!)
p2913
tp2914
a(S'0:03:56'
p2915
V11!/(6!*5!)
p2916
tp2917
a(S'0:04:33'
p2918
V11*10*9*8*7
p2919
tp2920
a(S'4:20:00'
p2921
V11!/(6!*5!)
p2922
tp2923
asS'part3_correct_attempt'
p2924
(lp2925
S'0:00:26'
p2926
aV11/(2^11)
p2927
asS'part1_correct_attempt'
p2928
(lp2929
S'0:00:00'
p2930
aV2^11
p2931
asg9
V2015-10-05 16:26:17
p2932
ssVajabasa
p2933
(dp2934
S'part5_correct_attempt'
p2935
(lp2936
S'0:11:27'
p2937
aV(10!/(6!*4!))/1024
p2938
asS'part2_correct_attempt'
p2939
(lp2940
S'0:01:48'
p2941
aV10
p2942
asS'part5_incorrect_attempt'
p2943
(lp2944
(S'0:07:42'
p2945
V(10!/6!)/1024 + (10!/4!)/1024
p2946
tp2947
asS'part3_correct_attempt'
p2948
(lp2949
S'0:01:48'
p2950
aV10/1024
p2951
asS'part1_correct_attempt'
p2952
(lp2953
S'0:00:00'
p2954
aV1024
p2955
asg9
V2015-10-05 21:18:45
p2956
ssVxweng
p2957
(dp2958
S'part5_correct_attempt'
p2959
(lp2960
S'0:34:35'
p2961
aV84/2^9
p2962
asS'part2_correct_attempt'
p2963
(lp2964
S'0:00:12'
p2965
aV9
p2966
asS'part5_incorrect_attempt'
p2967
(lp2968
(S'0:03:03'
p2969
V1-27/2^9
p2970
tp2971
asS'part3_correct_attempt'
p2972
(lp2973
S'0:00:26'
p2974
aV9/2^9
p2975
asS'part1_correct_attempt'
p2976
(lp2977
S'0:00:00'
p2978
ag372
asg9
V2015-10-07 07:01:03
p2979
ssVyypan
p2980
(dp2981
S'part5_correct_attempt'
p2982
(lp2983
S'0:10:40'
p2984
aV[10!/(6!*4!)]/(2^10)
p2985
asS'part2_correct_attempt'
p2986
(lp2987
S'0:01:10'
p2988
aV10
p2989
asS'part5_incorrect_attempt'
p2990
(lp2991
(S'0:10:02'
p2992
V10!/(6!*4!)
p2993
tp2994
asS'part3_correct_attempt'
p2995
(lp2996
S'0:04:22'
p2997
aV10/(2^10)
p2998
asS'part1_correct_attempt'
p2999
(lp3000
S'0:00:00'
p3001
aV2^10
p3002
asg9
V2015-10-02 04:53:04
p3003
ssVrohan
p3004
(dp3005
S'part5_correct_attempt'
p3006
(lp3007
S'0:36:52'
p3008
aV210(((1/2)^6)((1/2)^4))
p3009
asS'part2_correct_attempt'
p3010
(lp3011
S'0:00:00'
p3012
aV10
p3013
asS'part5_incorrect_attempt'
p3014
(lp3015
(S'0:00:24'
p3016
V7/128
p3017
tp3018
a(S'0:03:22'
p3019
V1.025
p3020
tp3021
a(S'0:33:36'
p3022
V13.125
p3023
tp3024
a(S'0:34:55'
p3025
V.0205
p3026
tp3027
asS'part3_correct_attempt'
p3028
(lp3029
S'0:00:00'
p3030
aV10/1024
p3031
asS'part1_correct_attempt'
p3032
(lp3033
S'0:00:00'
p3034
aV1024
p3035
asg9
V2015-10-08 22:59:07
p3036
ssVv3doan
p3037
(dp3038
S'part5_correct_attempt'
p3039
(lp3040
S'0:07:32'
p3041
aV10! / (6! 4!)/ 2^10
p3042
asS'part2_correct_attempt'
p3043
(lp3044
S'0:00:31'
p3045
ag1504
asS'part5_incorrect_attempt'
p3046
(lp3047
(S'0:00:51'
p3048
VC(10,6)
p3049
tp3050
a(S'0:01:00'
p3051
VP(10,6)
p3052
tp3053
a(S'0:01:40'
p3054
VC(10,6)
p3055
tp3056
asS'part3_correct_attempt'
p3057
(lp3058
S'0:00:31'
p3059
aV10/2^10
p3060
asS'part1_correct_attempt'
p3061
(lp3062
S'0:00:00'
p3063
aV2^10
p3064
asg9
g1505
ssVzig006
p3065
(dp3066
S'part5_correct_attempt'
p3067
(lp3068
S'0:15:37'
p3069
aV(9!/(3!6!))/2^9
p3070
asS'part2_correct_attempt'
p3071
(lp3072
S'-1 day, 23:57:44'
p3073
aV9
p3074
asS'part5_incorrect_attempt'
p3075
(lp3076
(S'0:01:06'
p3077
V1-(9*8*7)/2^9
p3078
tp3079
a(S'0:02:42'
p3080
V9*8*7/9!
p3081
tp3082
asS'part3_correct_attempt'
p3083
(lp3084
S'-1 day, 23:57:44'
p3085
aV9/2^9
p3086
asS'part1_correct_attempt'
p3087
(lp3088
S'0:00:00'
p3089
aV2^9
p3090
asg9
V2015-10-06 00:44:46
p3091
ssVzhw110
p3092
(dp3093
S'part5_correct_attempt'
p3094
(lp3095
S'0:02:32'
p3096
aV10*9*8*7*6*5/(2^10 * 6!)
p3097
asS'part2_correct_attempt'
p3098
(lp3099
S'0:00:00'
p3100
aV10
p3101
asS'part5_incorrect_attempt'
p3102
(lp3103
(S'0:02:07'
p3104
V10*9*8*7/(2^10 * 6!)
p3105
tp3106
asS'part3_correct_attempt'
p3107
(lp3108
S'0:00:00'
p3109
aV10/(2^10)
p3110
asS'part1_correct_attempt'
p3111
(lp3112
S'0:00:00'
p3113
aV2^10
p3114
asg9
V2015-10-08 04:34:27
p3115
ssVjit002
p3116
(dp3117
S'part5_correct_attempt'
p3118
(lp3119
S'0:01:25'
p3120
aV462/2048
p3121
asS'part2_correct_attempt'
p3122
(lp3123
S'0:00:00'
p3124
aV11
p3125
asS'part5_incorrect_attempt'
p3126
(lp3127
(S'0:00:00'
p3128
VC(11,6)
p3129
tp3130
asS'part3_correct_attempt'
p3131
(lp3132
S'0:00:00'
p3133
aV11/2048
p3134
asS'part1_correct_attempt'
p3135
(lp3136
S'0:00:00'
p3137
aV2048
p3138
asg9
V2015-10-08 15:53:44
p3139
sssV4
p3140
(dp3141
Vgthorn
p3142
(dp3143
S'part4_incorrect_attempt'
p3144
(lp3145
(S'0:06:06'
p3146
V0.99609375
p3147
tp3148
asS'part2_correct_attempt'
p3149
(lp3150
S'0:00:00'
p3151
ag1585
asS'part4_correct_attempt'
p3152
(lp3153
S'0:12:53'
p3154
aV0.998046875
p3155
asS'part3_correct_attempt'
p3156
(lp3157
S'0:00:00'
p3158
ag1594
asS'part1_correct_attempt'
p3159
(lp3160
S'0:00:00'
p3161
ag1598
asg9
g1599
ssVv4zhang
p3162
(dp3163
S'part4_incorrect_attempt'
p3164
(lp3165
(S'0:02:10'
p3166
V110/2048
p3167
tp3168
asS'part2_correct_attempt'
p3169
(lp3170
S'0:01:21'
p3171
ag1697
asS'part4_correct_attempt'
p3172
(lp3173
S'0:11:28'
p3174
aV1-1/2048
p3175
asS'part3_correct_attempt'
p3176
(lp3177
S'0:01:21'
p3178
ag1706
asS'part1_correct_attempt'
p3179
(lp3180
S'0:00:00'
p3181
ag1710
asg9
g1711
ssVkew060
p3182
(dp3183
S'part4_incorrect_attempt'
p3184
(lp3185
(S'0:03:57'
p3186
V9/(2^9)
p3187
tp3188
a(S'0:06:46'
p3189
V(0.5)^9
p3190
tp3191
asS'part2_correct_attempt'
p3192
(lp3193
S'0:00:00'
p3194
aV9
p3195
asS'part4_correct_attempt'
p3196
(lp3197
S'0:06:58'
p3198
aV1-(0.5)^9
p3199
asS'part3_correct_attempt'
p3200
(lp3201
S'0:03:22'
p3202
aV9/(2^9)
p3203
asS'part1_correct_attempt'
p3204
(lp3205
S'0:00:00'
p3206
aV2^9
p3207
asg9
V2015-10-08 22:03:58
p3208
ssVkbielawi
p3209
(dp3210
S'part4_incorrect_attempt'
p3211
(lp3212
(S'0:03:41'
p3213
V1/2
p3214
tp3215
a(S'0:21:47'
p3216
V2^9 - 2^8
p3217
tp3218
a(S'0:22:36'
p3219
V2^8/(2^9)
p3220
tp3221
asS'part2_correct_attempt'
p3222
(lp3223
S'-1 day, 23:59:01'
p3224
aV9
p3225
asS'part4_correct_attempt'
p3226
(lp3227
S'0:23:32'
p3228
aV1-1/(2^9)
p3229
asS'part3_correct_attempt'
p3230
(lp3231
S'0:00:00'
p3232
aV9/(2^9)
p3233
asS'part1_correct_attempt'
p3234
(lp3235
S'0:00:00'
p3236
aV2^9
p3237
asg9
V2015-10-05 19:36:00
p3238
ssVjguanzho
p3239
(dp3240
S'part4_incorrect_attempt'
p3241
(lp3242
(S'0:01:47'
p3243
V8/(2**9)
p3244
tp3245
a(S'0:03:15'
p3246
V(9! / (5! * 4!))/(2**9)
p3247
tp3248
a(S'0:05:10'
p3249
V1/2
p3250
tp3251
a(S'0:05:32'
p3252
V1/9
p3253
tp3254
a(S'0:18:05'
p3255
V1/(2**8)
p3256
tp3257
a(S'0:20:47'
p3258
V8/(2**9)
p3259
tp3260
a(S'0:34:51'
p3261
V1/(2**8)
p3262
tp3263
asS'part2_correct_attempt'
p3264
(lp3265
S'0:01:22'
p3266
aV9
p3267
asS'part4_correct_attempt'
p3268
(lp3269
S'0:38:11'
p3270
aV1 - (1/(2**9))
p3271
asS'part3_correct_attempt'
p3272
(lp3273
S'0:01:47'
p3274
aV9/(2**9)
p3275
asS'part1_correct_attempt'
p3276
(lp3277
S'0:00:00'
p3278
aV2**9
p3279
asg9
V2015-10-02 07:55:22
p3280
ssValakamsa
p3281
(dp3282
S'part4_incorrect_attempt'
p3283
(lp3284
(S'0:00:00'
p3285
V(2^11 - 12)/(2^11)
p3286
tp3287
asS'part2_correct_attempt'
p3288
(lp3289
S'0:00:00'
p3290
aV11
p3291
asS'part4_correct_attempt'
p3292
(lp3293
S'0:00:22'
p3294
aV(2^11 - 1)/(2^11)
p3295
asS'part3_correct_attempt'
p3296
(lp3297
S'0:00:00'
p3298
aV11/(2^11)
p3299
asS'part1_correct_attempt'
p3300
(lp3301
S'0:00:00'
p3302
aV2^11
p3303
asg9
V2015-10-04 19:44:31
p3304
ssVjjm019
p3305
(dp3306
S'part4_incorrect_attempt'
p3307
(lp3308
(S'0:44:12'
p3309
V(9+36+84+126+126+84+36+9)/(2^9)
p3310
tp3311
a(S'0:45:30'
p3312
V(9+36+84+126)/(2^9)
p3313
tp3314
a(S'0:49:20'
p3315
V(1/9)+(2/9)+(3/9)+(4/9)+(5/9)+(6/9)+(7/9)+(8/9)
p3316
tp3317
a(S'0:49:41'
p3318
V8/9
p3319
tp3320
a(S'0:50:10'
p3321
V2*(8/9)
p3322
tp3323
a(S'1:02:13'
p3324
V9+26+84+126+126+84+36+9+1
p3325
tp3326
a(S'1:02:40'
p3327
V(9+26+84+126+126+84+36+9+1)/512
p3328
tp3329
a(S'1:07:01'
p3330
V(512-9)/512
p3331
tp3332
asS'part2_correct_attempt'
p3333
(lp3334
S'0:34:31'
p3335
ag914
asS'part4_correct_attempt'
p3336
(lp3337
S'1:12:11'
p3338
aV(512-1)/512
p3339
asS'part3_correct_attempt'
p3340
(lp3341
S'0:34:55'
p3342
aV9/(2^9)
p3343
asS'part1_correct_attempt'
p3344
(lp3345
S'0:00:00'
p3346
aV2^9
p3347
asg9
g915
ssVdan029
p3348
(dp3349
S'part4_incorrect_attempt'
p3350
(lp3351
(S'0:00:18'
p3352
V1-(9/(2**9) + 1/(2**9))
p3353
tp3354
asS'part2_correct_attempt'
p3355
(lp3356
S'0:00:00'
p3357
aV9
p3358
asS'part4_correct_attempt'
p3359
(lp3360
S'0:01:27'
p3361
aV1-1/(2**9)
p3362
asS'part3_correct_attempt'
p3363
(lp3364
S'0:00:00'
p3365
aV9/(2**9)
p3366
asS'part1_correct_attempt'
p3367
(lp3368
S'0:00:00'
p3369
aV2**9
p3370
asg9
V2015-10-05 00:32:38
p3371
ssVhaw081
p3372
(dp3373
S'part4_incorrect_attempt'
p3374
(lp3375
(S'0:19:03'
p3376
V11/2^11
p3377
tp3378
a(S'0:33:03'
p3379
V1132318/2^11
p3380
tp3381
asS'part2_correct_attempt'
p3382
(lp3383
S'0:13:36'
p3384
aV11
p3385
asS'part4_correct_attempt'
p3386
(lp3387
S'0:45:18'
p3388
aV1-1/2^11
p3389
asS'part3_correct_attempt'
p3390
(lp3391
S'0:09:13'
p3392
aV11*0.5^10*0.5^1
p3393
asS'part1_correct_attempt'
p3394
(lp3395
S'0:00:00'
p3396
aV2^11
p3397
asg9
V2015-10-04 23:16:06
p3398
ssVjew037
p3399
(dp3400
S'part4_incorrect_attempt'
p3401
(lp3402
(S'0:03:38'
p3403
V10/2048
p3404
tp3405
a(S'0:08:08'
p3406
V10/2048
p3407
tp3408
a(S'0:08:19'
p3409
V9/2048
p3410
tp3411
a(S'0:08:24'
p3412
V8/2048
p3413
tp3414
a(S'0:14:49'
p3415
V1013/2048
p3416
tp3417
asS'part2_correct_attempt'
p3418
(lp3419
S'0:02:41'
p3420
aV11
p3421
asS'part4_correct_attempt'
p3422
(lp3423
S'23:24:18'
p3424
aV2046/2048
p3425
asS'part3_correct_attempt'
p3426
(lp3427
S'0:03:27'
p3428
aV11/2048
p3429
asS'part1_correct_attempt'
p3430
(lp3431
S'0:00:00'
p3432
aV2048
p3433
asg9
V2015-10-06 02:20:40
p3434
ssVavasavad
p3435
(dp3436
S'part4_incorrect_attempt'
p3437
(lp3438
(S'2 days, 15:55:06'
p3439
V(2^11)-1
p3440
tp3441
asS'part2_correct_attempt'
p3442
(lp3443
S'0:00:00'
p3444
ag2270
asS'part4_correct_attempt'
p3445
(lp3446
S'2 days, 15:55:34'
p3447
aV[(2^11)-1]/2^11
p3448
asS'part3_correct_attempt'
p3449
(lp3450
S'0:00:00'
p3451
ag2282
asS'part1_correct_attempt'
p3452
(lp3453
S'0:00:00'
p3454
ag2286
asg9
g2287
ssVlalacson
p3455
(dp3456
S'part4_incorrect_attempt'
p3457
(lp3458
(S'0:02:21'
p3459
V11^10/2^11
p3460
tp3461
a(S'0:03:04'
p3462
V11!/2^11
p3463
tp3464
a(S'0:09:18'
p3465
V2^10/2^11
p3466
tp3467
a(S'0:10:35'
p3468
V(2^11-11)/2^11
p3469
tp3470
asS'part2_correct_attempt'
p3471
(lp3472
S'0:01:38'
p3473
aV11
p3474
asS'part4_correct_attempt'
p3475
(lp3476
S'0:11:29'
p3477
aV(2^11-1)/2^11
p3478
asS'part3_correct_attempt'
p3479
(lp3480
S'0:01:38'
p3481
aV11/2^11
p3482
asS'part1_correct_attempt'
p3483
(lp3484
S'0:00:00'
p3485
ag351
asg9
V2015-10-03 15:24:13
p3486
ssVdgunawan
p3487
(dp3488
S'part4_incorrect_attempt'
p3489
(lp3490
(S'0:01:36'
p3491
V10/(2^10)
p3492
tp3493
a(S'0:03:09'
p3494
V1/(2^10)
p3495
tp3496
a(S'0:03:43'
p3497
V9/(2^10)
p3498
tp3499
asS'part2_correct_attempt'
p3500
(lp3501
S'0:00:21'
p3502
aV10
p3503
asS'part4_correct_attempt'
p3504
(lp3505
S'0:20:47'
p3506
aV(2^10 - 1)/(2^10)
p3507
asS'part3_correct_attempt'
p3508
(lp3509
S'0:00:37'
p3510
aV10/(2^10)
p3511
asS'part1_correct_attempt'
p3512
(lp3513
S'0:00:00'
p3514
aV2^10
p3515
asg9
V2015-10-08 23:24:41
p3516
ssVarvenega
p3517
(dp3518
S'part4_incorrect_attempt'
p3519
(lp3520
(S'0:12:25'
p3521
V.9946
p3522
tp3523
a(S'0:12:38'
p3524
V.99462891
p3525
tp3526
asS'part2_correct_attempt'
p3527
(lp3528
S'0:07:59'
p3529
ag1465
asS'part4_correct_attempt'
p3530
(lp3531
S'0:17:16'
p3532
aV1-(1/(2^11))
p3533
asS'part3_correct_attempt'
p3534
(lp3535
S'0:01:03'
p3536
aV11/(2^11)
p3537
asS'part1_correct_attempt'
p3538
(lp3539
S'0:00:00'
p3540
aV2^11
p3541
asg9
g1466
ssVaggouw
p3542
(dp3543
S'part4_incorrect_attempt'
p3544
(lp3545
(S'0:07:12'
p3546
V11/2048
p3547
tp3548
a(S'0:07:55'
p3549
V2037/2048
p3550
tp3551
asS'part2_correct_attempt'
p3552
(lp3553
S'0:05:46'
p3554
aV11
p3555
asS'part4_correct_attempt'
p3556
(lp3557
S'1 day, 21:11:35'
p3558
aV2047/2048
p3559
asS'part3_correct_attempt'
p3560
(lp3561
S'0:05:58'
p3562
aV11/2048
p3563
asS'part1_correct_attempt'
p3564
(lp3565
S'0:00:00'
p3566
aV2048
p3567
asg9
V2015-10-05 06:32:13
p3568
ssVtcn013
p3569
(dp3570
S'part4_incorrect_attempt'
p3571
(lp3572
(S'0:01:44'
p3573
V12/(2^11)
p3574
tp3575
a(S'0:02:10'
p3576
V2^10/(2^11)
p3577
tp3578
asS'part2_correct_attempt'
p3579
(lp3580
S'0:00:13'
p3581
ag1151
asS'part4_correct_attempt'
p3582
(lp3583
S'0:03:01'
p3584
aV(2^11-1)/(2^11)
p3585
asS'part3_correct_attempt'
p3586
(lp3587
S'0:01:44'
p3588
aV11/(2^11)
p3589
asS'part1_correct_attempt'
p3590
(lp3591
S'0:00:00'
p3592
aV2^11
p3593
asg9
g1152
ssVpthsu
p3594
(dp3595
S'part4_incorrect_attempt'
p3596
(lp3597
(S'0:05:03'
p3598
V(2^11) - 1
p3599
tp3600
asS'part2_correct_attempt'
p3601
(lp3602
S'0:01:20'
p3603
aV11!/(10!)
p3604
asS'part4_correct_attempt'
p3605
(lp3606
S'0:06:12'
p3607
aV[(2^11) - 1] / (2^11) 
p3608
asS'part3_correct_attempt'
p3609
(lp3610
S'0:01:34'
p3611
aV(11!/(10!))/(2^11)
p3612
asS'part1_correct_attempt'
p3613
(lp3614
S'0:00:00'
p3615
aV(2^11)
p3616
asg9
V2015-10-02 04:22:43
p3617
ssVdando
p3618
(dp3619
S'part4_incorrect_attempt'
p3620
(lp3621
(S'0:00:00'
p3622
V12/(2^11)
p3623
tp3624
asS'part2_correct_attempt'
p3625
(lp3626
S'0:00:00'
p3627
aV11
p3628
asS'part4_correct_attempt'
p3629
(lp3630
S'0:00:51'
p3631
aV(2^11-1)/(2^11)
p3632
asS'part3_correct_attempt'
p3633
(lp3634
S'0:00:00'
p3635
aV11/(2^11)
p3636
asS'part1_correct_attempt'
p3637
(lp3638
S'0:00:00'
p3639
aV2^11
p3640
asg9
V2015-10-04 19:57:51
p3641
ssVdsriniva
p3642
(dp3643
S'part4_incorrect_attempt'
p3644
(lp3645
(S'0:03:36'
p3646
V0.5^10*10
p3647
tp3648
asS'part2_correct_attempt'
p3649
(lp3650
S'0:03:05'
p3651
aV10
p3652
asS'part4_correct_attempt'
p3653
(lp3654
S'0:04:16'
p3655
aV1-0.5^10
p3656
asS'part3_correct_attempt'
p3657
(lp3658
S'0:02:57'
p3659
aV0.5^10*10
p3660
asS'part1_correct_attempt'
p3661
(lp3662
S'0:00:00'
p3663
aV2^10
p3664
asg9
V2015-10-08 17:43:25
p3665
ssVm4bui
p3666
(dp3667
S'part4_incorrect_attempt'
p3668
(lp3669
(S'0:09:10'
p3670
V1013/1024
p3671
tp3672
asS'part2_correct_attempt'
p3673
(lp3674
S'0:03:35'
p3675
aV10
p3676
asS'part4_correct_attempt'
p3677
(lp3678
S'0:14:37'
p3679
aV1023/1024
p3680
asS'part3_correct_attempt'
p3681
(lp3682
S'0:03:35'
p3683
aV10/1024
p3684
asS'part1_correct_attempt'
p3685
(lp3686
S'0:00:00'
p3687
aV1024
p3688
asg9
V2015-10-08 06:08:30
p3689
ssVseleon
p3690
(dp3691
S'part4_incorrect_attempt'
p3692
(lp3693
(S'0:02:46'
p3694
V9/510
p3695
tp3696
a(S'0:02:51'
p3697
V9/511
p3698
tp3699
a(S'0:04:02'
p3700
V9/512
p3701
tp3702
a(S'0:04:12'
p3703
V510/512
p3704
tp3705
asS'part2_correct_attempt'
p3706
(lp3707
S'0:02:14'
p3708
aV9
p3709
asS'part4_correct_attempt'
p3710
(lp3711
S'0:04:21'
p3712
aV511/512
p3713
asS'part3_correct_attempt'
p3714
(lp3715
S'0:02:22'
p3716
aV9/512
p3717
asS'part1_correct_attempt'
p3718
(lp3719
S'0:00:00'
p3720
aV512
p3721
asg9
V2015-10-07 19:48:38
p3722
ssVc1wei
p3723
(dp3724
S'part4_incorrect_attempt'
p3725
(lp3726
(S'0:11:49'
p3727
V9/(2^9)
p3728
tp3729
a(S'0:12:40'
p3730
V((2^9)-2)/(2^9)
p3731
tp3732
asS'part2_correct_attempt'
p3733
(lp3734
S'0:10:09'
p3735
aV9
p3736
asS'part4_correct_attempt'
p3737
(lp3738
S'0:17:09'
p3739
aV((2^9)-1)/(2^9)
p3740
asS'part3_correct_attempt'
p3741
(lp3742
S'0:10:22'
p3743
aV9/(2^9)
p3744
asS'part1_correct_attempt'
p3745
(lp3746
S'0:00:00'
p3747
ag306
asg9
V2015-10-08 07:44:35
p3748
ssVstarinia
p3749
(dp3750
S'part4_incorrect_attempt'
p3751
(lp3752
(S'1 day, 1:28:34'
p3753
V((10!/(9!1!)) * (10!/(8!2!)) * (10!/(7!3!) )* (10!/(6!4!)) * (10!/(5!5!)) * (10!/(4!6!)) * (10!/(3!7!)) * (10!/(2!8!)) * (10!/(1!9!)))/2^10
p3754
tp3755
asS'part2_correct_attempt'
p3756
(lp3757
S'0:00:00'
p3758
aV10
p3759
asS'part4_correct_attempt'
p3760
(lp3761
S'1 day, 8:22:52'
p3762
aV511/512
p3763
asS'part3_correct_attempt'
p3764
(lp3765
S'1:46:51'
p3766
aV10/2^10
p3767
asS'part1_correct_attempt'
p3768
(lp3769
S'0:00:00'
p3770
aV2^10
p3771
asg9
V2015-10-06 23:47:21
p3772
ssVm4salaza
p3773
(dp3774
S'part4_incorrect_attempt'
p3775
(lp3776
(S'0:00:45'
p3777
V9/(2^9)*8+1
p3778
tp3779
a(S'0:10:17'
p3780
V9!/(8!*1)/(2^9)
p3781
tp3782
asS'part2_correct_attempt'
p3783
(lp3784
S'0:00:00'
p3785
aV9
p3786
asS'part4_correct_attempt'
p3787
(lp3788
S'0:13:47'
p3789
aV1-1/(2^9)
p3790
asS'part3_correct_attempt'
p3791
(lp3792
S'0:00:00'
p3793
aV9/(2^9)
p3794
asS'part1_correct_attempt'
p3795
(lp3796
S'0:00:00'
p3797
aV2^9
p3798
asg9
V2015-10-07 03:29:19
p3799
ssVyos017
p3800
(dp3801
S'part4_incorrect_attempt'
p3802
(lp3803
(S'0:08:28'
p3804
V2/2^10
p3805
tp3806
a(S'0:09:25'
p3807
V2^9/2^10
p3808
tp3809
a(S'0:09:47'
p3810
V1014/2^10
p3811
tp3812
asS'part2_correct_attempt'
p3813
(lp3814
S'0:04:44'
p3815
aV10
p3816
asS'part4_correct_attempt'
p3817
(lp3818
S'0:10:58'
p3819
aV1022/2^10
p3820
asS'part3_correct_attempt'
p3821
(lp3822
S'0:04:44'
p3823
aV10/2^10
p3824
asS'part1_correct_attempt'
p3825
(lp3826
S'0:00:00'
p3827
aV2^10
p3828
asg9
V2015-10-02 11:37:53
p3829
ssVa8ho
p3830
(dp3831
S'part4_incorrect_attempt'
p3832
(lp3833
(S'0:23:02'
p3834
V56/2^10
p3835
tp3836
a(S'0:30:08'
p3837
V(10*2+45*2+240+420+252*2)/2^10
p3838
tp3839
asS'part2_correct_attempt'
p3840
(lp3841
S'0:11:19'
p3842
ag772
asS'part4_correct_attempt'
p3843
(lp3844
S'0:45:04'
p3845
aV(10+45+120+210+252+210+120+45+10)/2^10
p3846
asS'part3_correct_attempt'
p3847
(lp3848
S'0:12:16'
p3849
aV10/2^10
p3850
asS'part1_correct_attempt'
p3851
(lp3852
S'0:00:00'
p3853
ag8
asg9
g773
ssVh4tu
p3854
(dp3855
S'part4_incorrect_attempt'
p3856
(lp3857
(S'0:00:00'
p3858
V10/(2^9)
p3859
tp3860
asS'part2_correct_attempt'
p3861
(lp3862
S'0:00:00'
p3863
aV9
p3864
asS'part4_correct_attempt'
p3865
(lp3866
S'0:00:26'
p3867
aV(2^9-1)/(2^9)
p3868
asS'part3_correct_attempt'
p3869
(lp3870
S'0:00:00'
p3871
aV9/(2^9)
p3872
asS'part1_correct_attempt'
p3873
(lp3874
S'0:00:00'
p3875
aV2^9
p3876
asg9
V2015-10-08 18:54:59
p3877
ssVjag028
p3878
(dp3879
S'part4_incorrect_attempt'
p3880
(lp3881
(S'2 days, 16:26:08'
p3882
V(9!/(8!*1!))*(1/2)^8*(1/2)^1
p3883
tp3884
a(S'3 days, 11:52:48'
p3885
V[(9!)/[(8!)(9-8)!]]
p3886
tp3887
a(S'3 days, 12:04:26'
p3888
V1-(8!/9!)
p3889
tp3890
a(S'3 days, 12:04:38'
p3891
V1-(8/9)
p3892
tp3893
a(S'3 days, 12:05:10'
p3894
V1-(9!/(8!*1!))*(1/2)^8*(1/2)^1
p3895
tp3896
asS'part2_correct_attempt'
p3897
(lp3898
S'0:19:02'
p3899
ag479
asS'part4_correct_attempt'
p3900
(lp3901
S'3 days, 13:38:53'
p3902
aV1-(1/2)^9
p3903
asS'part3_correct_attempt'
p3904
(lp3905
S'2 days, 16:23:40'
p3906
ag475
asS'part1_correct_attempt'
p3907
(lp3908
S'0:00:00'
p3909
ag483
asg9
g484
ssVasetters
p3910
(dp3911
S'part4_incorrect_attempt'
p3912
(lp3913
(S'0:00:00'
p3914
V502/512
p3915
tp3916
asS'part2_correct_attempt'
p3917
(lp3918
S'0:00:00'
p3919
aV9
p3920
asS'part4_correct_attempt'
p3921
(lp3922
S'0:00:16'
p3923
aV511/512
p3924
asS'part3_correct_attempt'
p3925
(lp3926
S'0:00:00'
p3927
aV9/(2^9)
p3928
asS'part1_correct_attempt'
p3929
(lp3930
S'0:00:00'
p3931
aV2^9
p3932
asg9
V2015-10-02 19:56:13
p3933
ssVc1sorian
p3934
(dp3935
S'part4_incorrect_attempt'
p3936
(lp3937
(S'0:04:22'
p3938
V10!/(2^10)
p3939
tp3940
a(S'0:07:15'
p3941
V(10+45+120+210+120+45+10)/(2^10)
p3942
tp3943
asS'part2_correct_attempt'
p3944
(lp3945
S'0:02:09'
p3946
ag605
asS'part4_correct_attempt'
p3947
(lp3948
S'0:13:02'
p3949
aV1-(1/(2^10))
p3950
asS'part3_correct_attempt'
p3951
(lp3952
S'0:04:22'
p3953
ag601
asS'part1_correct_attempt'
p3954
(lp3955
S'0:00:00'
p3956
ag609
asg9
g610
ssVabjara
p3957
(dp3958
S'part4_incorrect_attempt'
p3959
(lp3960
(S'0:01:51'
p3961
V((2**11)-11)/2**11
p3962
tp3963
asS'part2_correct_attempt'
p3964
(lp3965
S'-1 day, 23:54:09'
p3966
aV11
p3967
asS'part4_correct_attempt'
p3968
(lp3969
S'0:29:03'
p3970
aV[(2^11)-1]/2^11
p3971
asS'part3_correct_attempt'
p3972
(lp3973
S'0:00:00'
p3974
aV11/2**11
p3975
asS'part1_correct_attempt'
p3976
(lp3977
S'0:00:00'
p3978
ag48
asg9
V2015-10-05 22:34:51
p3979
ssVcprafull
p3980
(dp3981
S'part4_incorrect_attempt'
p3982
(lp3983
(S'0:01:57'
p3984
V2^11 - 1
p3985
tp3986
a(S'0:02:07'
p3987
V(2^11) - 1
p3988
tp3989
a(S'5:43:44'
p3990
V2^11 - 11
p3991
tp3992
a(S'5:43:56'
p3993
V(2^11) - 11
p3994
tp3995
a(S'5:44:24'
p3996
V[(2^11) - 11]/(2^11)
p3997
tp3998
asS'part2_correct_attempt'
p3999
(lp4000
S'0:00:38'
p4001
ag1567
asS'part4_correct_attempt'
p4002
(lp4003
S'6:04:23'
p4004
aV2*[11!/(10!1!) + 11!/(9!2!) + 11!/(8!3!) + 11!/(7!4!) + 11!/(6!5!)]/(2^11)
p4005
asS'part3_correct_attempt'
p4006
(lp4007
S'0:00:56'
p4008
ag1870
asS'part1_correct_attempt'
p4009
(lp4010
S'0:00:00'
p4011
ag1874
asg9
g1568
ssVanislam
p4012
(dp4013
S'part4_incorrect_attempt'
p4014
(lp4015
(S'0:00:00'
p4016
V2^10 - 1
p4017
tp4018
asS'part2_correct_attempt'
p4019
(lp4020
S'0:00:00'
p4021
ag1884
asS'part4_correct_attempt'
p4022
(lp4023
S'0:00:56'
p4024
aV(2^10 - 1) / 2^10
p4025
asS'part3_correct_attempt'
p4026
(lp4027
S'0:00:00'
p4028
ag1896
asS'part1_correct_attempt'
p4029
(lp4030
S'0:00:00'
p4031
ag1900
asg9
g1901
ssVb3hwang
p4032
(dp4033
S'part4_incorrect_attempt'
p4034
(lp4035
(S'0:06:35'
p4036
V(2^10) - 1
p4037
tp4038
asS'part2_correct_attempt'
p4039
(lp4040
S'0:00:00'
p4041
ag2035
asS'part4_correct_attempt'
p4042
(lp4043
S'0:07:12'
p4044
aV((2^10) -1)/(2^10)
p4045
asS'part3_correct_attempt'
p4046
(lp4047
S'0:00:00'
p4048
ag2044
asS'part1_correct_attempt'
p4049
(lp4050
S'0:00:00'
p4051
ag2048
asg9
g2049
ssVtpmach
p4052
(dp4053
S'part4_incorrect_attempt'
p4054
(lp4055
(S'0:05:49'
p4056
V2^9-(9!/[1!(9-1)!])-1
p4057
tp4058
a(S'0:10:22'
p4059
V(2^9-1-9!/[1!(9-1)!])/2^9
p4060
tp4061
a(S'0:17:24'
p4062
V504/512
p4063
tp4064
a(S'0:30:54'
p4065
V(2^9-10)/2^9
p4066
tp4067
a(S'0:35:09'
p4068
V2^9-1
p4069
tp4070
a(S'0:35:43'
p4071
V2^9-2
p4072
tp4073
asS'part2_correct_attempt'
p4074
(lp4075
S'0:03:24'
p4076
ag2083
asS'part4_correct_attempt'
p4077
(lp4078
S'0:36:08'
p4079
aV(2^9-1)/2^9
p4080
asS'part3_correct_attempt'
p4081
(lp4082
S'0:03:36'
p4083
ag2092
asS'part1_correct_attempt'
p4084
(lp4085
S'0:00:00'
p4086
ag2096
asg9
g2097
ssVmrchin
p4087
(dp4088
S'part4_incorrect_attempt'
p4089
(lp4090
(S'0:00:57'
p4091
V(2^10) - 10
p4092
tp4093
a(S'0:01:12'
p4094
V((2^10) - 10)/2^10
p4095
tp4096
asS'part2_correct_attempt'
p4097
(lp4098
S'0:00:42'
p4099
ag2297
asS'part4_correct_attempt'
p4100
(lp4101
S'2:14:20'
p4102
aV((2^10) - 1)/2^10
p4103
asS'part3_correct_attempt'
p4104
(lp4105
S'0:00:47'
p4106
ag2306
asS'part1_correct_attempt'
p4107
(lp4108
S'0:00:00'
p4109
ag2310
asg9
g2311
ssVdis003
p4110
(dp4111
S'part4_incorrect_attempt'
p4112
(lp4113
(S'0:05:04'
p4114
V(2^11-11)/2^11
p4115
tp4116
a(S'0:07:26'
p4117
V(2^11-11-11)/2^11
p4118
tp4119
asS'part2_correct_attempt'
p4120
(lp4121
S'0:03:55'
p4122
aV11
p4123
asS'part4_correct_attempt'
p4124
(lp4125
S'0:08:32'
p4126
aV(2^11-1)/2^11
p4127
asS'part3_correct_attempt'
p4128
(lp4129
S'0:05:04'
p4130
aV11/2^11
p4131
asS'part1_correct_attempt'
p4132
(lp4133
S'0:00:00'
p4134
aV2^11
p4135
asg9
V2015-10-08 07:13:16
p4136
ssVrraiyyan
p4137
(dp4138
S'part4_incorrect_attempt'
p4139
(lp4140
(S'0:03:35'
p4141
V(11!/(10!*1!)+11!/(2!*9!)+11!/(3!*8!)+11!/(4!*7!)+11!/(5!*6!))/(2^11)
p4142
tp4143
asS'part2_correct_attempt'
p4144
(lp4145
S'0:03:35'
p4146
ag1175
asS'part4_correct_attempt'
p4147
(lp4148
S'0:04:51'
p4149
aV2*(11!/(10!*1!)+11!/(2!*9!)+11!/(3!*8!)+11!/(4!*7!)+11!/(5!*6!))/(2^11)
p4150
asS'part3_correct_attempt'
p4151
(lp4152
S'0:03:35'
p4153
aV11/(2^11)
p4154
asS'part1_correct_attempt'
p4155
(lp4156
S'0:00:00'
p4157
aV2^11
p4158
asg9
g1176
ssVjhw015
p4159
(dp4160
S'part4_incorrect_attempt'
p4161
(lp4162
(S'2 days, 12:39:24'
p4163
V9!/2^9
p4164
tp4165
asS'part2_correct_attempt'
p4166
(lp4167
S'0:12:48'
p4168
ag1076
asS'part4_correct_attempt'
p4169
(lp4170
S'4 days, 1:34:30'
p4171
aV511/512
p4172
asS'part3_correct_attempt'
p4173
(lp4174
S'0:16:59'
p4175
aV9/ 2^9
p4176
asS'part1_correct_attempt'
p4177
(lp4178
S'0:00:00'
p4179
ag192
asg9
g1077
ssVdsmonaha
p4180
(dp4181
S'part4_incorrect_attempt'
p4182
(lp4183
(S'0:09:03'
p4184
V9/512
p4185
tp4186
a(S'0:16:16'
p4187
V(8!)^2
p4188
tp4189
a(S'0:16:23'
p4190
V(8!)
p4191
tp4192
a(S'0:16:39'
p4193
V((8!)^2)/512
p4194
tp4195
a(S'0:16:59'
p4196
V(8!)/512
p4197
tp4198
asS'part2_correct_attempt'
p4199
(lp4200
S'0:08:03'
p4201
ag1211
asS'part4_correct_attempt'
p4202
(lp4203
S'1 day, 22:38:58'
p4204
aV511/512
p4205
asS'part3_correct_attempt'
p4206
(lp4207
S'0:08:30'
p4208
ag2496
asS'part1_correct_attempt'
p4209
(lp4210
S'0:00:00'
p4211
ag2500
asg9
g1212
ssVhmnaing
p4212
(dp4213
S'part4_incorrect_attempt'
p4214
(lp4215
(S'21:21:11'
p4216
V11/(2^11)
p4217
tp4218
a(S'21:24:07'
p4219
V(2^10)/(2^11)
p4220
tp4221
a(S'21:28:41'
p4222
V1/(2^11)
p4223
tp4224
a(S'21:31:08'
p4225
V10/(2^11)
p4226
tp4227
a(S'21:31:22'
p4228
V11/(2^11)
p4229
tp4230
asS'part2_correct_attempt'
p4231
(lp4232
S'21:20:36'
p4233
ag1516
asS'part4_correct_attempt'
p4234
(lp4235
S'21:35:00'
p4236
aV1-(1/(2^11))
p4237
asS'part3_correct_attempt'
p4238
(lp4239
S'21:20:36'
p4240
aV11/(2^11)
p4241
asS'part1_correct_attempt'
p4242
(lp4243
S'0:00:00'
p4244
aV2^11
p4245
asg9
g1517
ssVedescobe
p4246
(dp4247
S'part4_correct_attempt'
p4248
(lp4249
S'0:03:45'
p4250
aV.998046
p4251
asS'part3_correct_attempt'
p4252
(lp4253
S'0:00:33'
p4254
ag705
asS'part1_correct_attempt'
p4255
(lp4256
S'0:00:00'
p4257
ag714
asg9
g715
sS'part4_incorrect_attempt'
p4258
(lp4259
(S'0:03:06'
p4260
V.99069
p4261
tp4262
assVsmohiman
p4263
(dp4264
S'part4_incorrect_attempt'
p4265
(lp4266
(S'0:00:00'
p4267
V(2^9)-(9/(2^9))
p4268
tp4269
a(S'0:04:27'
p4270
V(2^9)-1
p4271
tp4272
a(S'0:08:28'
p4273
V(2^9)-9
p4274
tp4275
a(S'0:08:37'
p4276
V(2^9)-8
p4277
tp4278
a(S'0:12:41'
p4279
V2^9
p4280
tp4281
a(S'0:12:58'
p4282
V(2^9)-1
p4283
tp4284
a(S'0:14:21'
p4285
V(2^9)-(9/(2^9))-1
p4286
tp4287
asS'part2_correct_attempt'
p4288
(lp4289
S'0:00:00'
p4290
aV9!/(1!*8!)
p4291
asS'part4_correct_attempt'
p4292
(lp4293
S'0:16:53'
p4294
aV((2^9)-1)/(2^9)
p4295
asS'part3_correct_attempt'
p4296
(lp4297
S'0:00:00'
p4298
aV9/(2^9)
p4299
asS'part1_correct_attempt'
p4300
(lp4301
S'0:00:00'
p4302
aV2^9
p4303
asg9
V2015-10-02 21:05:12
p4304
ssVyig015
p4305
(dp4306
S'part4_incorrect_attempt'
p4307
(lp4308
(S'0:00:00'
p4309
V1014/1024
p4310
tp4311
asS'part2_correct_attempt'
p4312
(lp4313
S'0:00:00'
p4314
aV10
p4315
asS'part4_correct_attempt'
p4316
(lp4317
S'0:42:23'
p4318
aV1023/1024
p4319
asS'part3_correct_attempt'
p4320
(lp4321
S'0:00:00'
p4322
aV10/1024
p4323
asS'part1_correct_attempt'
p4324
(lp4325
S'0:00:00'
p4326
aV1024
p4327
asg9
V2015-10-08 07:11:22
p4328
ssVmuy002
p4329
(dp4330
S'part4_incorrect_attempt'
p4331
(lp4332
(S'0:02:57'
p4333
V10/2^11
p4334
tp4335
a(S'0:03:28'
p4336
V11/2^11
p4337
tp4338
a(S'0:05:23'
p4339
V(11!/(10!*1!))/2^11
p4340
tp4341
a(S'0:05:55'
p4342
V11!/10!
p4343
tp4344
a(S'0:06:20'
p4345
V(11!/10!)/2^11
p4346
tp4347
a(S'0:07:05'
p4348
V10!/2^11
p4349
tp4350
a(S'0:22:53'
p4351
V(11!/10)/2^11
p4352
tp4353
a(S'0:23:08'
p4354
V(11/10!)/2^11
p4355
tp4356
a(S'0:23:19'
p4357
V(11/10)/2^11
p4358
tp4359
a(S'0:23:45'
p4360
V(11!/(10!*(11-10)!))/2^11
p4361
tp4362
a(S'1:56:01'
p4363
V(11!/10!)/2^10
p4364
tp4365
a(S'1:56:41'
p4366
V(11!/10!)/2^11
p4367
tp4368
a(S'22:13:24'
p4369
V(11!/(2!*9!))/2^11
p4370
tp4371
a(S'22:14:16'
p4372
V1/2^11
p4373
tp4374
asS'part2_correct_attempt'
p4375
(lp4376
S'0:02:15'
p4377
aV11
p4378
asS'part4_correct_attempt'
p4379
(lp4380
S'22:14:33'
p4381
aV1-(1/2^11)
p4382
asS'part3_correct_attempt'
p4383
(lp4384
S'0:02:41'
p4385
aV11/2^11
p4386
asS'part1_correct_attempt'
p4387
(lp4388
S'0:00:00'
p4389
aV2^11
p4390
asg9
V2015-10-07 21:36:23
p4391
ssVwcwhite
p4392
(dp4393
S'part4_incorrect_attempt'
p4394
(lp4395
(S'18:14:40'
p4396
V1/2^11
p4397
tp4398
a(S'18:15:21'
p4399
V121/2^11
p4400
tp4401
a(S'18:21:04'
p4402
V1-0.00537109
p4403
tp4404
a(S'18:21:17'
p4405
V1/(1-0.00537109)
p4406
tp4407
a(S'18:23:56'
p4408
V11!/10!
p4409
tp4410
a(S'18:24:08'
p4411
V10!/11!
p4412
tp4413
a(S'1 day, 16:09:20'
p4414
V11!(10!(11-10)!)
p4415
tp4416
a(S'1 day, 16:09:30'
p4417
V11!/(10!(11-10)!)
p4418
tp4419
asS'part2_correct_attempt'
p4420
(lp4421
S'0:05:48'
p4422
ag1335
asS'part4_correct_attempt'
p4423
(lp4424
S'1 day, 16:09:49'
p4425
aV1
p4426
asS'part3_correct_attempt'
p4427
(lp4428
S'18:12:44'
p4429
ag2551
asS'part1_correct_attempt'
p4430
(lp4431
S'0:00:00'
p4432
ag267
asg9
g1336
ssVcstringh
p4433
(dp4434
S'part4_incorrect_attempt'
p4435
(lp4436
(S'2 days, 21:42:55'
p4437
V10!
p4438
tp4439
a(S'2 days, 21:47:04'
p4440
V(11/(2^10)) - (10/(2^10))
p4441
tp4442
a(S'2 days, 21:47:19'
p4443
V(10/(2^10)) - (10/(2^10))
p4444
tp4445
asS'part2_correct_attempt'
p4446
(lp4447
S'0:03:12'
p4448
ag436
asS'part4_correct_attempt'
p4449
(lp4450
S'2 days, 22:05:57'
p4451
aV1- (1/2)^10
p4452
asS'part3_correct_attempt'
p4453
(lp4454
S'0:06:43'
p4455
ag432
asS'part1_correct_attempt'
p4456
(lp4457
S'0:00:00'
p4458
ag440
asg9
g441
ssVj5phung
p4459
(dp4460
S'part4_incorrect_attempt'
p4461
(lp4462
(S'0:02:38'
p4463
V2042/2048
p4464
tp4465
a(S'0:05:35'
p4466
V2037/2048
p4467
tp4468
asS'part2_correct_attempt'
p4469
(lp4470
S'0:01:01'
p4471
aV11
p4472
asS'part4_correct_attempt'
p4473
(lp4474
S'0:12:51'
p4475
aV2047/2048
p4476
asS'part3_correct_attempt'
p4477
(lp4478
S'0:01:01'
p4479
aV11/2048
p4480
asS'part1_correct_attempt'
p4481
(lp4482
S'0:00:00'
p4483
aV2048
p4484
asg9
V2015-10-02 17:08:28
p4485
ssVeshung
p4486
(dp4487
S'part4_incorrect_attempt'
p4488
(lp4489
(S'0:02:10'
p4490
V(C(9,2)+C(9,3)+C(9,4)+C(9,5)+C(9,6)+C(9,7)+9)/(2^9)
p4491
tp4492
a(S'0:03:16'
p4493
V510/(2^9)
p4494
tp4495
a(S'0:09:45'
p4496
V510/(2^9)
p4497
tp4498
asS'part2_correct_attempt'
p4499
(lp4500
S'0:00:00'
p4501
aV9
p4502
asS'part4_correct_attempt'
p4503
(lp4504
S'0:11:55'
p4505
aV511/(2^9)
p4506
asS'part3_correct_attempt'
p4507
(lp4508
S'0:00:00'
p4509
aV9/(2^9)
p4510
asS'part1_correct_attempt'
p4511
(lp4512
S'0:00:00'
p4513
aV2^9
p4514
asg9
V2015-10-08 18:29:05
p4515
ssVrbdoming
p4516
(dp4517
S'part4_incorrect_attempt'
p4518
(lp4519
(S'0:02:40'
p4520
V9/2^9
p4521
tp4522
a(S'0:07:49'
p4523
V(2^9) -1
p4524
tp4525
asS'part2_correct_attempt'
p4526
(lp4527
S'0:02:26'
p4528
ag1402
asS'part4_correct_attempt'
p4529
(lp4530
S'0:11:16'
p4531
aV511/512
p4532
asS'part3_correct_attempt'
p4533
(lp4534
S'0:02:40'
p4535
aV9/2^9
p4536
asS'part1_correct_attempt'
p4537
(lp4538
S'0:00:00'
p4539
aV2^9
p4540
asg9
g1403
ssVaurodrig
p4541
(dp4542
S'part4_incorrect_attempt'
p4543
(lp4544
(S'0:51:04'
p4545
V56/512
p4546
tp4547
a(S'0:57:52'
p4548
V1/512
p4549
tp4550
a(S'0:57:59'
p4551
V17/512
p4552
tp4553
a(S'1:09:56'
p4554
V1/512
p4555
tp4556
a(S'1:10:03'
p4557
V.99/512
p4558
tp4559
a(S'1:12:04'
p4560
V8/512
p4561
tp4562
asS'part2_correct_attempt'
p4563
(lp4564
S'0:38:57'
p4565
ag1414
asS'part4_correct_attempt'
p4566
(lp4567
S'1:12:16'
p4568
aV511/512
p4569
asS'part3_correct_attempt'
p4570
(lp4571
S'0:39:11'
p4572
aV9/512
p4573
asS'part1_correct_attempt'
p4574
(lp4575
S'0:00:00'
p4576
aV512
p4577
asg9
g1415
ssVyjshin
p4578
(dp4579
S'part4_incorrect_attempt'
p4580
(lp4581
(S'0:01:51'
p4582
V1013/1024
p4583
tp4584
a(S'0:02:19'
p4585
V1004/1024
p4586
tp4587
a(S'0:31:47'
p4588
V1014/1024
p4589
tp4590
a(S'0:32:06'
p4591
V1004/1024
p4592
tp4593
a(S'0:34:17'
p4594
V1013/1024
p4595
tp4596
asS'part2_correct_attempt'
p4597
(lp4598
S'0:00:37'
p4599
ag1438
asS'part4_correct_attempt'
p4600
(lp4601
S'0:36:06'
p4602
aV1022/1024
p4603
asS'part3_correct_attempt'
p4604
(lp4605
S'0:01:02'
p4606
aV10/1024
p4607
asS'part1_correct_attempt'
p4608
(lp4609
S'0:00:00'
p4610
aV2^10
p4611
asg9
g1439
ssVaportuga
p4612
(dp4613
S'part4_incorrect_attempt'
p4614
(lp4615
(S'0:10:49'
p4616
V((2^10)-10)/(2^10)
p4617
tp4618
a(S'0:11:15'
p4619
V10!/(2^10)
p4620
tp4621
asS'part2_correct_attempt'
p4622
(lp4623
S'0:10:01'
p4624
ag977
asS'part4_correct_attempt'
p4625
(lp4626
S'0:53:16'
p4627
aV1-(1/(2^10))
p4628
asS'part3_correct_attempt'
p4629
(lp4630
S'0:10:19'
p4631
ag1641
asS'part1_correct_attempt'
p4632
(lp4633
S'0:00:00'
p4634
ag1645
asg9
g978
ssVbpandayk
p4635
(dp4636
S'part4_incorrect_attempt'
p4637
(lp4638
(S'0:01:19'
p4639
V9!/1024
p4640
tp4641
asS'part2_correct_attempt'
p4642
(lp4643
S'0:00:21'
p4644
aV10
p4645
asS'part4_correct_attempt'
p4646
(lp4647
S'0:16:02'
p4648
aV1022/1024
p4649
asS'part3_correct_attempt'
p4650
(lp4651
S'0:00:48'
p4652
aV10/1024
p4653
asS'part1_correct_attempt'
p4654
(lp4655
S'0:00:00'
p4656
aV2^10
p4657
asg9
V2015-10-08 15:23:40
p4658
ssVbkoli
p4659
(dp4660
S'part4_incorrect_attempt'
p4661
(lp4662
(S'8:09:41'
p4663
V2^11 - 2^10
p4664
tp4665
a(S'8:10:52'
p4666
V(2^11 - 10)/2^11
p4667
tp4668
a(S'8:11:27'
p4669
V(2^11 - 11)/2^11
p4670
tp4671
a(S'8:12:18'
p4672
V2^11 - (11/(2^11))
p4673
tp4674
a(S'8:13:14'
p4675
V2^11 - 1
p4676
tp4677
a(S'8:15:05'
p4678
V2^11 - 2
p4679
tp4680
asS'part2_correct_attempt'
p4681
(lp4682
S'0:01:18'
p4683
aV11
p4684
asS'part4_correct_attempt'
p4685
(lp4686
S'8:18:29'
p4687
aV(2^11 - 2)/2^11
p4688
asS'part3_correct_attempt'
p4689
(lp4690
S'0:01:55'
p4691
aV11/(2^11)
p4692
asS'part1_correct_attempt'
p4693
(lp4694
S'0:00:00'
p4695
aV2^11
p4696
asg9
V2015-10-08 08:26:36
p4697
ssVdac064
p4698
(dp4699
S'part4_incorrect_attempt'
p4700
(lp4701
(S'0:00:00'
p4702
V22/2048
p4703
tp4704
asS'part2_correct_attempt'
p4705
(lp4706
S'0:00:00'
p4707
aV11
p4708
asS'part4_correct_attempt'
p4709
(lp4710
S'0:03:01'
p4711
aV2047/2048
p4712
asS'part3_correct_attempt'
p4713
(lp4714
S'0:00:00'
p4715
aV11/2048
p4716
asS'part1_correct_attempt'
p4717
(lp4718
S'0:00:00'
p4719
aV2048
p4720
asg9
V2015-10-08 21:38:33
p4721
ssVsghouse
p4722
(dp4723
S'part4_incorrect_attempt'
p4724
(lp4725
(S'0:00:00'
p4726
V(2^9-9)/2^9
p4727
tp4728
asS'part2_correct_attempt'
p4729
(lp4730
S'0:00:00'
p4731
aV9
p4732
asS'part4_correct_attempt'
p4733
(lp4734
S'0:03:21'
p4735
aV(2^9-1)/2^9
p4736
asS'part3_correct_attempt'
p4737
(lp4738
S'0:00:00'
p4739
aV9/2^9
p4740
asS'part1_correct_attempt'
p4741
(lp4742
S'0:00:00'
p4743
aV2^9
p4744
asg9
V2015-10-04 18:47:47
p4745
ssVjyc018
p4746
(dp4747
S'part4_incorrect_attempt'
p4748
(lp4749
(S'0:00:00'
p4750
V2**11-1-11
p4751
tp4752
a(S'0:01:59'
p4753
V2**11-1
p4754
tp4755
a(S'0:02:12'
p4756
V2**11-2
p4757
tp4758
a(S'0:03:53'
p4759
V11+C(11,2)+C(11,3)+C(11,4)+C(11,5)+C(11,6)+C(11,7)+C(11,8)+C(11,9)+C(11,10)
p4760
tp4761
a(S'0:04:13'
p4762
VC(11,2)
p4763
tp4764
asS'part2_correct_attempt'
p4765
(lp4766
S'0:00:00'
p4767
aV11
p4768
asS'part4_correct_attempt'
p4769
(lp4770
S'0:09:48'
p4771
aV2046/2**11
p4772
asS'part3_correct_attempt'
p4773
(lp4774
S'0:00:00'
p4775
aV11/2**11
p4776
asS'part1_correct_attempt'
p4777
(lp4778
S'0:00:00'
p4779
aV2**11
p4780
asg9
V2015-10-05 15:59:34
p4781
ssVctroncos
p4782
(dp4783
S'part4_incorrect_attempt'
p4784
(lp4785
(S'17:44:41'
p4786
V66/(2^11)
p4787
tp4788
a(S'17:45:06'
p4789
V55/(2^11)
p4790
tp4791
a(S'17:47:43'
p4792
V(C(11,10) + C(11,11))/(2^11)
p4793
tp4794
asS'part3_correct_attempt'
p4795
(lp4796
S'0:03:29'
p4797
ag2146
asS'part2_correct_attempt'
p4798
(lp4799
S'0:02:53'
p4800
ag847
asS'part1_correct_attempt'
p4801
(lp4802
S'0:00:00'
p4803
ag2150
asg9
g848
ssVlywong
p4804
(dp4805
S'part4_incorrect_attempt'
p4806
(lp4807
(S'15:23:35'
p4808
V1014/1024
p4809
tp4810
asS'part2_correct_attempt'
p4811
(lp4812
S'15:21:31'
p4813
aV10
p4814
asS'part4_correct_attempt'
p4815
(lp4816
S'15:24:05'
p4817
aV1023/1024
p4818
asS'part3_correct_attempt'
p4819
(lp4820
S'15:23:35'
p4821
aV10/1024
p4822
asS'part1_correct_attempt'
p4823
(lp4824
S'0:00:00'
p4825
aV1024
p4826
asg9
V2015-10-05 23:28:10
p4827
ssVhkhodada
p4828
(dp4829
S'part4_incorrect_attempt'
p4830
(lp4831
(S'10:48:29'
p4832
V9/512
p4833
tp4834
asS'part2_correct_attempt'
p4835
(lp4836
S'0:15:04'
p4837
aV9
p4838
asS'part4_correct_attempt'
p4839
(lp4840
S'11:42:43'
p4841
aV511/512
p4842
asS'part3_correct_attempt'
p4843
(lp4844
S'0:15:20'
p4845
aV9/512
p4846
asS'part1_correct_attempt'
p4847
(lp4848
S'0:00:00'
p4849
aV512
p4850
asg9
V2015-10-02 18:49:54
p4851
ssVjcl084
p4852
(dp4853
S'part4_incorrect_attempt'
p4854
(lp4855
(S'0:09:49'
p4856
V10 * (1/2)^10 /2
p4857
tp4858
a(S'0:14:56'
p4859
V1/10
p4860
tp4861
a(S'0:15:47'
p4862
VC(10,1)
p4863
tp4864
a(S'0:21:31'
p4865
V1- (10 * (1/2)^10 )
p4866
tp4867
asS'part2_correct_attempt'
p4868
(lp4869
S'0:02:58'
p4870
ag666
asS'part4_correct_attempt'
p4871
(lp4872
S'0:23:53'
p4873
aV1-(1/(2^10))
p4874
asS'part3_correct_attempt'
p4875
(lp4876
S'0:08:31'
p4877
ag662
asS'part1_correct_attempt'
p4878
(lp4879
S'0:00:00'
p4880
ag670
asg9
g671
ssVglcohen
p4881
(dp4882
S'part4_incorrect_attempt'
p4883
(lp4884
(S'0:13:34'
p4885
V(10!)/(9!(10-9)!)
p4886
tp4887
a(S'0:14:34'
p4888
V5/1024
p4889
tp4890
asS'part2_correct_attempt'
p4891
(lp4892
S'0:13:34'
p4893
ag859
asS'part4_correct_attempt'
p4894
(lp4895
S'0:15:13'
p4896
aV1023/1024
p4897
asS'part3_correct_attempt'
p4898
(lp4899
S'0:12:30'
p4900
ag1753
asS'part1_correct_attempt'
p4901
(lp4902
S'0:00:00'
p4903
ag1757
asg9
g860
ssVachava
p4904
(dp4905
S'part4_incorrect_attempt'
p4906
(lp4907
(S'0:08:24'
p4908
V(11!/((10!)*(1!)))/(2^11)
p4909
tp4910
a(S'0:14:43'
p4911
V(11!/((1!)*(10!)))*(11!/((2!)*(9!)))*(11!/((3!)*(8!)))*(11!/((4!)*(7!)))*(11!/((5!)*(6!)))*(11!/((6!)*(5!)))*(11!/((7!)*(4!)))*(11!/((8!)*(3!)))*(11!/((9!)*(2!)))*(11!/((10!)*(1!)))
p4912
tp4913
a(S'0:15:08'
p4914
V((11!/((1!)*(10!)))*(11!/((2!)*(9!)))*(11!/((3!)*(8!)))*(11!/((4!)*(7!)))*(11!/((5!)*(6!)))*(11!/((6!)*(5!)))*(11!/((7!)*(4!)))*(11!/((8!)*(3!)))*(11!/((9!)*(2!)))*(11!/((10!)*(1!))))*2^11
p4915
tp4916
a(S'0:16:27'
p4917
V((11!/((1!)+(10!)))+(11!/((2!)+(9!)))+(11!/((3!)+(8!)))+(11!/((4!)+(7!)))+(11!/((5!)+(6!)))+(11!/((6!)+(5!)))+(11!/((7!)+(4!)))+(11!/((8!)+(3!)))+(11!/((9!)+(2!)))+(11!/((10!)+(1!))))*2^11
p4918
tp4919
a(S'0:18:18'
p4920
V(10!/((10!)*(1!)))/(2^11)
p4921
tp4922
a(S'0:18:26'
p4923
V(10!/((10!)*(1!)))/(2^10)
p4924
tp4925
a(S'0:18:35'
p4926
V(11!/((10!)*(1!)))/(2^10)
p4927
tp4928
a(S'0:19:18'
p4929
V(10!/((10!)*(1!)))/(2^11)
p4930
tp4931
a(S'0:19:37'
p4932
V(10!/((9!)*(1!)))/(2^11)
p4933
tp4934
a(S'0:20:42'
p4935
V(10!/((10!)*(1!)))/(2^11)
p4936
tp4937
a(S'0:29:02'
p4938
V(2^11)-((11!/((10!)*(1!)))/(2^11))
p4939
tp4940
a(S'0:34:38'
p4941
V(2^11) - ((2^11) - ((11!/((10!)*(1!)))/(2^11)))
p4942
tp4943
asS'part2_correct_attempt'
p4944
(lp4945
S'0:07:10'
p4946
aV(11!/((10!)*(1!)))
p4947
asS'part4_correct_attempt'
p4948
(lp4949
S'0:37:03'
p4950
aV((2^11) - ((11!/((11!)*(0!)))/(2^11)))/(2^11)
p4951
asS'part3_correct_attempt'
p4952
(lp4953
S'0:07:23'
p4954
aV(11!/((10!)*(1!)))/(2^11)
p4955
asS'part1_correct_attempt'
p4956
(lp4957
S'0:00:00'
p4958
ag228
asg9
V2015-10-02 05:09:18
p4959
ssVffhaddad
p4960
(dp4961
S'part4_incorrect_attempt'
p4962
(lp4963
(S'0:10:41'
p4964
V((2^9)-2)/2^9
p4965
tp4966
asS'part2_correct_attempt'
p4967
(lp4968
S'0:05:43'
p4969
aV9
p4970
asS'part4_correct_attempt'
p4971
(lp4972
S'0:12:53'
p4973
aV((2^9)-1)/2^9
p4974
asS'part3_correct_attempt'
p4975
(lp4976
S'0:06:01'
p4977
aV9/2^9
p4978
asS'part1_correct_attempt'
p4979
(lp4980
S'0:00:00'
p4981
aV2^9
p4982
asg9
V2015-10-03 00:06:40
p4983
ssVawollner
p4984
(dp4985
S'part4_incorrect_attempt'
p4986
(lp4987
(S'0:00:00'
p4988
V2^11-1
p4989
tp4990
asS'part2_correct_attempt'
p4991
(lp4992
S'0:00:00'
p4993
aV11
p4994
asS'part4_correct_attempt'
p4995
(lp4996
S'0:02:38'
p4997
aV2047/2048
p4998
asS'part3_correct_attempt'
p4999
(lp5000
S'0:00:00'
p5001
aV11/2^11
p5002
asS'part1_correct_attempt'
p5003
(lp5004
S'0:00:00'
p5005
aV2^11
p5006
asg9
V2015-10-06 15:40:09
p5007
ssVdcrume
p5008
(dp5009
S'part4_incorrect_attempt'
p5010
(lp5011
(S'0:03:10'
p5012
V2^(10)/2^(11)
p5013
tp5014
asS'part3_correct_attempt'
p5015
(lp5016
S'0:00:00'
p5017
aV11/(2^11)
p5018
asS'part2_correct_attempt'
p5019
(lp5020
S'0:00:43'
p5021
aV11
p5022
asS'part1_correct_attempt'
p5023
(lp5024
S'0:00:00'
p5025
aV2^(11)
p5026
asg9
V2015-10-08 17:32:07
p5027
ssVpvl001
p5028
(dp5029
S'part4_incorrect_attempt'
p5030
(lp5031
(S'0:01:26'
p5032
V11/1024
p5033
tp5034
asS'part2_correct_attempt'
p5035
(lp5036
S'0:01:26'
p5037
ag1965
asS'part4_correct_attempt'
p5038
(lp5039
S'0:02:22'
p5040
aV1023/1024
p5041
asS'part3_correct_attempt'
p5042
(lp5043
S'0:01:26'
p5044
ag1974
asS'part1_correct_attempt'
p5045
(lp5046
S'0:00:00'
p5047
ag1978
asg9
g1979
ssVt2li
p5048
(dp5049
S'part4_incorrect_attempt'
p5050
(lp5051
(S'0:07:02'
p5052
V(2^10-10)/2^10
p5053
tp5054
a(S'0:07:22'
p5055
V(2^10-10-1)/2^10
p5056
tp5057
asS'part2_correct_attempt'
p5058
(lp5059
S'0:01:45'
p5060
ag754
asS'part4_correct_attempt'
p5061
(lp5062
S'0:15:03'
p5063
aV(2^10-1)/2^10
p5064
asS'part3_correct_attempt'
p5065
(lp5066
S'0:06:34'
p5067
ag750
asS'part1_correct_attempt'
p5068
(lp5069
S'0:00:00'
p5070
ag758
asg9
g759
ssVjfalcone
p5071
(dp5072
S'part4_incorrect_attempt'
p5073
(lp5074
(S'0:00:59'
p5075
V((2^8)*9)/(2^9)
p5076
tp5077
asS'part2_correct_attempt'
p5078
(lp5079
S'0:00:00'
p5080
aV9
p5081
asS'part4_correct_attempt'
p5082
(lp5083
S'0:06:37'
p5084
aV((2^9)-1)/(2^9)
p5085
asS'part3_correct_attempt'
p5086
(lp5087
S'0:00:13'
p5088
aV9/(2^9)
p5089
asS'part1_correct_attempt'
p5090
(lp5091
S'0:00:00'
p5092
aV2^9
p5093
asg9
V2015-10-07 03:37:38
p5094
ssVn2patil
p5095
(dp5096
S'part4_incorrect_attempt'
p5097
(lp5098
(S'1 day, 14:07:32'
p5099
V(11/(2^11))/1
p5100
tp5101
a(S'1 day, 14:16:03'
p5102
V((2^11)-12)/(2^11)
p5103
tp5104
asS'part2_correct_attempt'
p5105
(lp5106
S'1 day, 13:30:58'
p5107
ag1025
asS'part4_correct_attempt'
p5108
(lp5109
S'1 day, 14:20:24'
p5110
aV1-(1/2^11)
p5111
asS'part3_correct_attempt'
p5112
(lp5113
S'1 day, 13:33:19'
p5114
aV11/(2^11)
p5115
asS'part1_correct_attempt'
p5116
(lp5117
S'0:00:00'
p5118
aV2^11
p5119
asg9
g1026
ssVttimmons
p5120
(dp5121
S'part4_incorrect_attempt'
p5122
(lp5123
(S'0:08:03'
p5124
V([8!]/[7!])/(2^9)
p5125
tp5126
a(S'0:08:31'
p5127
V([8!])/(2^9)
p5128
tp5129
asS'part2_correct_attempt'
p5130
(lp5131
S'0:02:07'
p5132
ag807
asS'part4_correct_attempt'
p5133
(lp5134
S'1 day, 4:18:37'
p5135
aV1-(1/[2^9])
p5136
asS'part3_correct_attempt'
p5137
(lp5138
S'0:07:23'
p5139
aV([9!]/[8!(9-8)!])/(2^9)
p5140
asS'part1_correct_attempt'
p5141
(lp5142
S'0:00:00'
p5143
aV2^9
p5144
asg9
g808
ssVjeqin
p5145
(dp5146
S'part4_incorrect_attempt'
p5147
(lp5148
(S'0:00:25'
p5149
V1/(2^10)
p5150
tp5151
asS'part2_correct_attempt'
p5152
(lp5153
S'0:00:00'
p5154
aV10
p5155
asS'part4_correct_attempt'
p5156
(lp5157
S'1:39:14'
p5158
aV[(2^10)-1]/(2^10)
p5159
asS'part3_correct_attempt'
p5160
(lp5161
S'0:00:00'
p5162
aV10/(2^10)
p5163
asS'part1_correct_attempt'
p5164
(lp5165
S'0:00:00'
p5166
aV2^10
p5167
asg9
V2015-10-02 20:22:54
p5168
ssVjnatale
p5169
(dp5170
S'part4_incorrect_attempt'
p5171
(lp5172
(S'0:16:26'
p5173
V8/(2^9)
p5174
tp5175
a(S'0:16:43'
p5176
V7/(2^9)
p5177
tp5178
a(S'0:16:56'
p5179
V6/(2^9)
p5180
tp5181
a(S'2:42:44'
p5182
V9/4
p5183
tp5184
a(S'2:44:33'
p5185
V(1/2)^2
p5186
tp5187
a(S'2:45:15'
p5188
V(1/2)^8
p5189
tp5190
a(S'2:45:28'
p5191
V9/(2^9)
p5192
tp5193
a(S'2:45:42'
p5194
V8/9
p5195
tp5196
asS'part2_correct_attempt'
p5197
(lp5198
S'0:08:02'
p5199
ag625
asS'part4_correct_attempt'
p5200
(lp5201
S'3:58:41'
p5202
aV1-((1/2)^9)
p5203
asS'part3_correct_attempt'
p5204
(lp5205
S'0:13:55'
p5206
ag621
asS'part1_correct_attempt'
p5207
(lp5208
S'0:00:00'
p5209
ag629
asg9
g630
ssVjblynch
p5210
(dp5211
S'part4_incorrect_attempt'
p5212
(lp5213
(S'0:11:52'
p5214
V(10*45*120*210*252*210*120*45*10)/2^10
p5215
tp5216
asS'part2_correct_attempt'
p5217
(lp5218
S'0:02:39'
p5219
aV10
p5220
asS'part4_correct_attempt'
p5221
(lp5222
S'0:12:32'
p5223
aV(10+45+120+210+252+210+120+45+10)/2^10
p5224
asS'part3_correct_attempt'
p5225
(lp5226
S'0:07:04'
p5227
aV10/2^10
p5228
asS'part1_correct_attempt'
p5229
(lp5230
S'0:00:00'
p5231
aV2^10
p5232
asg9
V2015-10-05 04:20:47
p5233
ssVnnh002
p5234
(dp5235
S'part4_incorrect_attempt'
p5236
(lp5237
(S'0:00:00'
p5238
V2036/2048
p5239
tp5240
asS'part2_correct_attempt'
p5241
(lp5242
S'0:00:00'
p5243
aV11
p5244
asS'part4_correct_attempt'
p5245
(lp5246
S'0:03:33'
p5247
aV2047/2048
p5248
asS'part3_correct_attempt'
p5249
(lp5250
S'0:00:00'
p5251
aV11/2048
p5252
asS'part1_correct_attempt'
p5253
(lp5254
S'0:00:00'
p5255
aV2048
p5256
asg9
V2015-10-07 00:34:05
p5257
ssVtol003
p5258
(dp5259
S'part4_incorrect_attempt'
p5260
(lp5261
(S'0:00:00'
p5262
V66/2048
p5263
tp5264
a(S'0:01:55'
p5265
V65/2048
p5266
tp5267
a(S'0:03:23'
p5268
V67/2048
p5269
tp5270
a(S'0:05:57'
p5271
V2037/2048
p5272
tp5273
a(S'0:19:53'
p5274
V1024/2048
p5275
tp5276
a(S'0:20:45'
p5277
V1013/2048
p5278
tp5279
a(S'0:27:02'
p5280
V2037/2048
p5281
tp5282
a(S'0:33:04'
p5283
V11/2048
p5284
tp5285
a(S'0:33:54'
p5286
V2036/2048
p5287
tp5288
a(S'0:35:29'
p5289
V2038/2048
p5290
tp5291
asS'part2_correct_attempt'
p5292
(lp5293
S'0:00:00'
p5294
aV11
p5295
asS'part4_correct_attempt'
p5296
(lp5297
S'0:38:31'
p5298
aV2047/2048
p5299
asS'part3_correct_attempt'
p5300
(lp5301
S'0:00:00'
p5302
aV11/2048
p5303
asS'part1_correct_attempt'
p5304
(lp5305
S'0:00:00'
p5306
aV2048
p5307
asg9
V2015-10-06 23:33:00
p5308
ssVaakumar
p5309
(dp5310
S'part4_incorrect_attempt'
p5311
(lp5312
(S'0:01:55'
p5313
V11023/1024
p5314
tp5315
asS'part2_correct_attempt'
p5316
(lp5317
S'-1 day, 23:59:44'
p5318
aV10
p5319
asS'part4_correct_attempt'
p5320
(lp5321
S'0:02:01'
p5322
aV1023/1024
p5323
asS'part3_correct_attempt'
p5324
(lp5325
S'0:01:55'
p5326
aV10/1024
p5327
asS'part1_correct_attempt'
p5328
(lp5329
S'0:00:00'
p5330
aV2^10
p5331
asg9
V2015-10-03 22:23:21
p5332
ssVjtfrankl
p5333
(dp5334
S'part4_incorrect_attempt'
p5335
(lp5336
(S'3:00:51'
p5337
V11!/(10!)
p5338
tp5339
a(S'3:00:58'
p5340
V11!/(10!1!)
p5341
tp5342
a(S'3:02:13'
p5343
V.5
p5344
tp5345
a(S'3:03:01'
p5346
V11!/1!
p5347
tp5348
a(S'3:03:06'
p5349
V11!/10!
p5350
tp5351
a(S'3:03:21'
p5352
V1.2
p5353
tp5354
asS'part2_correct_attempt'
p5355
(lp5356
S'0:00:37'
p5357
ag390
asS'part4_correct_attempt'
p5358
(lp5359
S'3:07:03'
p5360
aV1-(1/2)^11
p5361
asS'part3_correct_attempt'
p5362
(lp5363
S'2:55:15'
p5364
ag386
asS'part1_correct_attempt'
p5365
(lp5366
S'0:00:00'
p5367
ag394
asg9
g395
ssVlahawkin
p5368
(dp5369
S'part4_incorrect_attempt'
p5370
(lp5371
(S'5 days, 5:14:42'
p5372
V8/(2^9)
p5373
tp5374
a(S'5 days, 5:15:13'
p5375
V2/(2^9)
p5376
tp5377
asS'part2_correct_attempt'
p5378
(lp5379
S'0:05:04'
p5380
aV9
p5381
asS'part4_correct_attempt'
p5382
(lp5383
S'5 days, 5:24:29'
p5384
aV1-(1/(2^9))
p5385
asS'part3_correct_attempt'
p5386
(lp5387
S'0:06:10'
p5388
aV9/(2^9)
p5389
asS'part1_correct_attempt'
p5390
(lp5391
S'0:00:00'
p5392
aV2^9
p5393
asg9
V2015-10-03 17:54:16
p5394
ssVppanourg
p5395
(dp5396
S'part4_incorrect_attempt'
p5397
(lp5398
(S'0:02:47'
p5399
V9/(2^9)
p5400
tp5401
asS'part2_correct_attempt'
p5402
(lp5403
S'0:01:09'
p5404
ag1767
asS'part4_correct_attempt'
p5405
(lp5406
S'6:35:41'
p5407
aV1-(1/(2^9))
p5408
asS'part3_correct_attempt'
p5409
(lp5410
S'0:02:47'
p5411
ag1776
asS'part1_correct_attempt'
p5412
(lp5413
S'0:00:00'
p5414
ag1780
asg9
g1781
ssVcsl030
p5415
(dp5416
S'part4_incorrect_attempt'
p5417
(lp5418
(S'0:01:45'
p5419
V1 - (1- 9/2^9)
p5420
tp5421
a(S'0:05:15'
p5422
V2^8 / 2 ^ 9
p5423
tp5424
asS'part2_correct_attempt'
p5425
(lp5426
S'0:00:00'
p5427
ag2840
asS'part4_correct_attempt'
p5428
(lp5429
S'0:06:24'
p5430
aV1 - (1/2)^9
p5431
asS'part3_correct_attempt'
p5432
(lp5433
S'0:00:00'
p5434
ag2861
asS'part1_correct_attempt'
p5435
(lp5436
S'0:00:00'
p5437
ag2865
asg9
g2866
ssVvolim
p5438
(dp5439
S'part4_incorrect_attempt'
p5440
(lp5441
(S'0:00:00'
p5442
V(2^11)-1
p5443
tp5444
asS'part2_correct_attempt'
p5445
(lp5446
S'0:00:00'
p5447
aV(11!)/(10!)
p5448
asS'part4_correct_attempt'
p5449
(lp5450
S'0:01:28'
p5451
aV[(2^11)-1]/(2^11)
p5452
asS'part3_correct_attempt'
p5453
(lp5454
S'0:00:00'
p5455
aV11/(2^11)
p5456
asS'part1_correct_attempt'
p5457
(lp5458
S'0:00:00'
p5459
aV2^11
p5460
asg9
V2015-10-03 18:48:40
p5461
ssVralhadda
p5462
(dp5463
S'part4_incorrect_attempt'
p5464
(lp5465
(S'0:07:03'
p5466
V10/(2^10)
p5467
tp5468
a(S'0:11:28'
p5469
V10/(2^10)
p5470
tp5471
a(S'0:11:45'
p5472
V9/(2^10)
p5473
tp5474
a(S'0:11:50'
p5475
V8/(2^10)
p5476
tp5477
a(S'0:11:56'
p5478
V7/(2^10)
p5479
tp5480
a(S'0:12:02'
p5481
V6/(2^10)
p5482
tp5483
a(S'0:12:07'
p5484
V5/(2^10)
p5485
tp5486
a(S'0:12:12'
p5487
V4/(2^10)
p5488
tp5489
a(S'0:12:17'
p5490
V3/(2^10)
p5491
tp5492
a(S'0:12:22'
p5493
V2/(2^10)
p5494
tp5495
a(S'0:12:28'
p5496
V1/(2^10)
p5497
tp5498
a(S'0:12:40'
p5499
V100/(2^10)
p5500
tp5501
asS'part3_correct_attempt'
p5502
(lp5503
S'0:06:43'
p5504
aV10/(2^10)
p5505
asS'part2_correct_attempt'
p5506
(lp5507
S'0:05:25'
p5508
aV10
p5509
asS'part1_correct_attempt'
p5510
(lp5511
S'0:00:00'
p5512
aV2^10
p5513
asg9
V2015-10-08 17:31:19
p5514
ssVytc012
p5515
(dp5516
S'part4_incorrect_attempt'
p5517
(lp5518
(S'0:01:40'
p5519
V2^9-1
p5520
tp5521
asS'part2_correct_attempt'
p5522
(lp5523
S'0:00:34'
p5524
aV9
p5525
asS'part4_correct_attempt'
p5526
(lp5527
S'0:02:06'
p5528
aV(2^9-1)/2^9
p5529
asS'part3_correct_attempt'
p5530
(lp5531
S'0:00:54'
p5532
aV9/2^9
p5533
asS'part1_correct_attempt'
p5534
(lp5535
S'0:00:00'
p5536
aV2^9
p5537
asg9
V2015-10-06 09:44:37
p5538
ssVtjke
p5539
(dp5540
S'part4_incorrect_attempt'
p5541
(lp5542
(S'0:00:00'
p5543
V(11+1)/2^11
p5544
tp5545
asS'part2_correct_attempt'
p5546
(lp5547
S'0:00:00'
p5548
aV11
p5549
asS'part4_correct_attempt'
p5550
(lp5551
S'0:00:25'
p5552
aV(2^11-1)/2^11
p5553
asS'part3_correct_attempt'
p5554
(lp5555
S'0:00:00'
p5556
aV11/2^11
p5557
asS'part1_correct_attempt'
p5558
(lp5559
S'0:00:00'
p5560
aV2^11
p5561
asg9
V2015-10-03 23:29:08
p5562
ssVasp025
p5563
(dp5564
S'part4_incorrect_attempt'
p5565
(lp5566
(S'1:24:24'
p5567
V9!/2^10
p5568
tp5569
asS'part2_correct_attempt'
p5570
(lp5571
S'1:23:52'
p5572
ag1308
asS'part4_correct_attempt'
p5573
(lp5574
S'1:55:21'
p5575
aV1022/2^10
p5576
asS'part3_correct_attempt'
p5577
(lp5578
S'1:16:39'
p5579
aV10/2^10
p5580
asS'part1_correct_attempt'
p5581
(lp5582
S'0:00:00'
p5583
aV2^10
p5584
asg9
g1309
ssVdlgoldbe
p5585
(dp5586
S'part4_incorrect_attempt'
p5587
(lp5588
(S'0:02:39'
p5589
V9!/(2^9)
p5590
tp5591
a(S'0:03:50'
p5592
V(9+8+7+6+5+4+3+2)/(2^9)
p5593
tp5594
a(S'0:09:00'
p5595
V(2^9) - 1
p5596
tp5597
asS'part2_correct_attempt'
p5598
(lp5599
S'0:00:49'
p5600
ag1609
asS'part4_correct_attempt'
p5601
(lp5602
S'0:09:17'
p5603
aV((2^9) - 1)/(2^9)
p5604
asS'part3_correct_attempt'
p5605
(lp5606
S'0:00:49'
p5607
ag1618
asS'part1_correct_attempt'
p5608
(lp5609
S'0:00:00'
p5610
ag1622
asg9
g1623
ssVkquong
p5611
(dp5612
S'part4_incorrect_attempt'
p5613
(lp5614
(S'0:00:00'
p5615
V(512-9-1)/512
p5616
tp5617
asS'part2_correct_attempt'
p5618
(lp5619
S'0:00:00'
p5620
aV9
p5621
asS'part4_correct_attempt'
p5622
(lp5623
S'0:01:15'
p5624
aV(512-1)/512
p5625
asS'part3_correct_attempt'
p5626
(lp5627
S'0:00:00'
p5628
aV9/512
p5629
asS'part1_correct_attempt'
p5630
(lp5631
S'0:00:00'
p5632
aV512
p5633
asg9
V2015-10-03 21:26:11
p5634
ssVagoldsht
p5635
(dp5636
S'part4_incorrect_attempt'
p5637
(lp5638
(S'0:22:53'
p5639
V11!/2^11
p5640
tp5641
a(S'0:26:15'
p5642
V(11+10+9+8+7+6+5+4+3+2+1)/2^11
p5643
tp5644
a(S'1:47:15'
p5645
V1-(1/2^11 + 11/2^11)
p5646
tp5647
asS'part2_correct_attempt'
p5648
(lp5649
S'0:19:06'
p5650
ag456
asS'part4_correct_attempt'
p5651
(lp5652
S'1:59:16'
p5653
aV(2^11 - 1) / (2^11)
p5654
asS'part3_correct_attempt'
p5655
(lp5656
S'0:22:32'
p5657
ag452
asS'part1_correct_attempt'
p5658
(lp5659
S'0:00:00'
p5660
ag460
asg9
g461
ssVvsamant
p5661
(dp5662
S'part4_incorrect_attempt'
p5663
(lp5664
(S'0:06:24'
p5665
V(1-(9!/(9!)))/(2^9)
p5666
tp5667
a(S'1 day, 9:46:17'
p5668
V1/256
p5669
tp5670
a(S'1 day, 23:53:03'
p5671
V(2^9-(1/512))/(2^9)
p5672
tp5673
asS'part2_correct_attempt'
p5674
(lp5675
S'-1 day, 23:57:54'
p5676
aV9
p5677
asS'part4_correct_attempt'
p5678
(lp5679
S'1 day, 23:56:00'
p5680
aV1-1/(2^9)
p5681
asS'part3_correct_attempt'
p5682
(lp5683
S'0:06:24'
p5684
aV((9!)/((8!)(1!)))/(2^9)
p5685
asS'part1_correct_attempt'
p5686
(lp5687
S'0:00:00'
p5688
aV2^9
p5689
asg9
V2015-10-02 17:03:06
p5690
ssVdcastlem
p5691
(dp5692
S'part4_incorrect_attempt'
p5693
(lp5694
(S'0:19:06'
p5695
V10/1024
p5696
tp5697
a(S'0:21:57'
p5698
V9!/1024
p5699
tp5700
a(S'1:05:27'
p5701
V9/1024
p5702
tp5703
a(S'1:05:46'
p5704
V11/1024
p5705
tp5706
asS'part2_correct_attempt'
p5707
(lp5708
S'0:18:33'
p5709
ag1453
asS'part4_correct_attempt'
p5710
(lp5711
S'1:09:38'
p5712
aV1023/1024
p5713
asS'part3_correct_attempt'
p5714
(lp5715
S'0:18:56'
p5716
aV10/1024
p5717
asS'part1_correct_attempt'
p5718
(lp5719
S'0:00:00'
p5720
aV2^10
p5721
asg9
g1454
ssVfichoi
p5722
(dp5723
S'part4_incorrect_attempt'
p5724
(lp5725
(S'0:05:25'
p5726
V10/1024
p5727
tp5728
a(S'0:25:37'
p5729
V45/512
p5730
tp5731
a(S'0:27:30'
p5732
V23/256
p5733
tp5734
a(S'0:47:50'
p5735
V10/1024
p5736
tp5737
asS'part2_correct_attempt'
p5738
(lp5739
S'0:03:40'
p5740
ag795
asS'part4_correct_attempt'
p5741
(lp5742
S'0:55:35'
p5743
aV1023/1024
p5744
asS'part3_correct_attempt'
p5745
(lp5746
S'0:05:25'
p5747
aV10/1024
p5748
asS'part1_correct_attempt'
p5749
(lp5750
S'0:00:00'
p5751
aV2^10
p5752
asg9
g796
ssVspw006
p5753
(dp5754
S'part4_incorrect_attempt'
p5755
(lp5756
(S'0:02:21'
p5757
V1/2
p5758
tp5759
a(S'13:11:03'
p5760
V1/512
p5761
tp5762
asS'part2_correct_attempt'
p5763
(lp5764
S'0:00:47'
p5765
ag1838
asS'part4_correct_attempt'
p5766
(lp5767
S'13:11:24'
p5768
aV1-(1/512)
p5769
asS'part3_correct_attempt'
p5770
(lp5771
S'0:01:24'
p5772
ag1847
asS'part1_correct_attempt'
p5773
(lp5774
S'0:00:00'
p5775
ag1851
asg9
g1852
ssVpcdo
p5776
(dp5777
S'part4_incorrect_attempt'
p5778
(lp5779
(S'0:27:15'
p5780
V1 - (11(1/(2^11)))
p5781
tp5782
asS'part2_correct_attempt'
p5783
(lp5784
S'0:26:04'
p5785
ag1037
asS'part4_correct_attempt'
p5786
(lp5787
S'0:31:52'
p5788
aV1 - (1(1/(2^11)) - 2/(2^11))
p5789
asS'part3_correct_attempt'
p5790
(lp5791
S'0:26:30'
p5792
aV11(1/(2^11))
p5793
asS'part1_correct_attempt'
p5794
(lp5795
S'0:00:00'
p5796
aV2^11
p5797
asg9
g1038
ssVvsosnovs
p5798
(dp5799
S'part4_incorrect_attempt'
p5800
(lp5801
(S'0:42:00'
p5802
V512-9
p5803
tp5804
a(S'0:47:13'
p5805
V512-18
p5806
tp5807
asS'part2_correct_attempt'
p5808
(lp5809
S'0:20:15'
p5810
ag965
asS'part4_correct_attempt'
p5811
(lp5812
S'0:47:47'
p5813
aV511/512
p5814
asS'part3_correct_attempt'
p5815
(lp5816
S'0:20:45'
p5817
ag2000
asS'part1_correct_attempt'
p5818
(lp5819
S'0:00:00'
p5820
ag87
asg9
g966
ssVk5law
p5821
(dp5822
S'part4_incorrect_attempt'
p5823
(lp5824
(S'0:10:29'
p5825
V1-((9!)/(9!))
p5826
tp5827
a(S'0:36:11'
p5828
V(1-((9!)/(9!)))/2^9
p5829
tp5830
a(S'0:40:10'
p5831
V1/(2^9)
p5832
tp5833
asS'part2_correct_attempt'
p5834
(lp5835
S'0:06:23'
p5836
aV(9!)/(8!)
p5837
asS'part4_correct_attempt'
p5838
(lp5839
S'0:50:09'
p5840
aV1-(1/(2^9))
p5841
asS'part3_correct_attempt'
p5842
(lp5843
S'0:06:23'
p5844
aV((9!)/(8!))/2^9
p5845
asS'part1_correct_attempt'
p5846
(lp5847
S'0:00:00'
p5848
aV2^9
p5849
asg9
V2015-10-05 01:55:27
p5850
ssVp4kumar
p5851
(dp5852
S'part4_incorrect_attempt'
p5853
(lp5854
(S'0:00:00'
p5855
V857/(2^10)
p5856
tp5857
a(S'0:01:06'
p5858
V1014/(2^10)
p5859
tp5860
a(S'0:20:59'
p5861
V(1024 - 11)/(2^10)
p5862
tp5863
asS'part2_correct_attempt'
p5864
(lp5865
S'0:00:00'
p5866
aV10
p5867
asS'part4_correct_attempt'
p5868
(lp5869
S'0:23:12'
p5870
aV1022/(2^10)
p5871
asS'part3_correct_attempt'
p5872
(lp5873
S'0:00:00'
p5874
aV10/(2^10)
p5875
asS'part1_correct_attempt'
p5876
(lp5877
S'0:00:00'
p5878
aV2^10
p5879
asg9
V2015-10-08 19:05:26
p5880
ssVamquinte
p5881
(dp5882
S'part4_incorrect_attempt'
p5883
(lp5884
(S'0:04:04'
p5885
V12376/2048
p5886
tp5887
asS'part2_correct_attempt'
p5888
(lp5889
S'0:04:04'
p5890
aV11
p5891
asS'part4_correct_attempt'
p5892
(lp5893
S'0:12:09'
p5894
aV1-(1/2048)
p5895
asS'part3_correct_attempt'
p5896
(lp5897
S'0:04:04'
p5898
aV11/2048
p5899
asS'part1_correct_attempt'
p5900
(lp5901
S'0:00:00'
p5902
ag114
asg9
V2015-10-05 22:19:48
p5903
ssVjmiclat
p5904
(dp5905
S'part4_incorrect_attempt'
p5906
(lp5907
(S'20:15:41'
p5908
V11 * 11!/10
p5909
tp5910
a(S'20:18:12'
p5911
VC(11,10)
p5912
tp5913
asS'part2_correct_attempt'
p5914
(lp5915
S'20:11:38'
p5916
aV11
p5917
asS'part4_correct_attempt'
p5918
(lp5919
S'20:19:46'
p5920
aV(2^11 - 1)/2^11
p5921
asS'part3_correct_attempt'
p5922
(lp5923
S'20:11:48'
p5924
aV11/2^11
p5925
asS'part1_correct_attempt'
p5926
(lp5927
S'0:00:00'
p5928
aV2^11
p5929
asg9
V2015-10-08 00:00:28
p5930
ssVbmilton
p5931
(dp5932
S'part4_incorrect_attempt'
p5933
(lp5934
(S'0:05:14'
p5935
V10/1024
p5936
tp5937
a(S'0:06:17'
p5938
VC(10,1)*(1/2)^9
p5939
tp5940
a(S'0:06:34'
p5941
V(1/2)^9 * 10
p5942
tp5943
a(S'0:12:56'
p5944
V1014/1024
p5945
tp5946
asS'part2_correct_attempt'
p5947
(lp5948
S'0:01:06'
p5949
ag2160
asS'part4_correct_attempt'
p5950
(lp5951
S'0:18:07'
p5952
aV1023/1024
p5953
asS'part3_correct_attempt'
p5954
(lp5955
S'0:02:50'
p5956
ag2175
asS'part1_correct_attempt'
p5957
(lp5958
S'0:00:00'
p5959
ag2179
asg9
g2180
ssVjhc010
p5960
(dp5961
S'part4_incorrect_attempt'
p5962
(lp5963
(S'0:00:00'
p5964
V2^9-1
p5965
tp5966
a(S'0:00:16'
p5967
V2^9-2
p5968
tp5969
asS'part2_correct_attempt'
p5970
(lp5971
S'0:00:00'
p5972
aV9
p5973
asS'part4_correct_attempt'
p5974
(lp5975
S'0:01:10'
p5976
aV(2^9-1)/(2^9)
p5977
asS'part3_correct_attempt'
p5978
(lp5979
S'0:00:00'
p5980
aV9/2^9
p5981
asS'part1_correct_attempt'
p5982
(lp5983
S'0:00:00'
p5984
aV2^9
p5985
asg9
V2015-10-08 14:26:02
p5986
ssVrsmurlo
p5987
(dp5988
S'part4_incorrect_attempt'
p5989
(lp5990
(S'0:02:29'
p5991
V(2^9-9)/2^9
p5992
tp5993
asS'part2_correct_attempt'
p5994
(lp5995
S'0:00:51'
p5996
ag2223
asS'part4_correct_attempt'
p5997
(lp5998
S'0:04:13'
p5999
aV(2^9-1)/2^9
p6000
asS'part3_correct_attempt'
p6001
(lp6002
S'0:00:00'
p6003
ag2232
asS'part1_correct_attempt'
p6004
(lp6005
S'0:00:00'
p6006
ag2236
asg9
g2237
ssVdkostins
p6007
(dp6008
S'part4_incorrect_attempt'
p6009
(lp6010
(S'0:07:25'
p6011
V(11+10+9+8+7+6+5+4+3+2+1)/2048
p6012
tp6013
a(S'0:08:10'
p6014
V(11!)/2048
p6015
tp6016
a(S'0:08:16'
p6017
V(10!)/2048
p6018
tp6019
asS'part2_correct_attempt'
p6020
(lp6021
S'0:01:59'
p6022
aV11
p6023
asS'part4_correct_attempt'
p6024
(lp6025
S'4:38:27'
p6026
aV2046/2048
p6027
asS'part3_correct_attempt'
p6028
(lp6029
S'0:06:07'
p6030
aV11/2048
p6031
asS'part1_correct_attempt'
p6032
(lp6033
S'0:00:00'
p6034
aV2048
p6035
asg9
V2015-10-05 21:07:11
p6036
ssVagarango
p6037
(dp6038
S'part4_incorrect_attempt'
p6039
(lp6040
(S'2:13:00'
p6041
V2037/2048
p6042
tp6043
a(S'2:13:07'
p6044
V2038/2048
p6045
tp6046
asS'part2_correct_attempt'
p6047
(lp6048
S'0:00:00'
p6049
aV11
p6050
asS'part4_correct_attempt'
p6051
(lp6052
S'2:13:16'
p6053
aV2046/2048
p6054
asS'part3_correct_attempt'
p6055
(lp6056
S'0:00:00'
p6057
aV11/2048
p6058
asS'part1_correct_attempt'
p6059
(lp6060
S'0:00:00'
p6061
aV2048
p6062
asg9
V2015-10-08 20:23:20
p6063
ssVtwsalim
p6064
(dp6065
S'part4_incorrect_attempt'
p6066
(lp6067
(S'0:00:00'
p6068
V0.9946
p6069
tp6070
a(S'0:03:36'
p6071
V99.994
p6072
tp6073
a(S'0:13:34'
p6074
V0.99463
p6075
tp6076
asS'part2_correct_attempt'
p6077
(lp6078
S'0:00:00'
p6079
ag2321
asS'part4_correct_attempt'
p6080
(lp6081
S'0:15:09'
p6082
aV0.99951
p6083
asS'part3_correct_attempt'
p6084
(lp6085
S'0:00:00'
p6086
ag2330
asS'part1_correct_attempt'
p6087
(lp6088
S'0:00:00'
p6089
ag2334
asg9
g2335
ssVs6deng
p6090
(dp6091
S'part4_incorrect_attempt'
p6092
(lp6093
(S'0:03:59'
p6094
V[(10!)(10!)*(10!/2!)*(10!/3!)*(10!/4!)*(10!/5!)*(10!/6!)*(10!/7!)*(10!/8!)*10]/(2^10)
p6095
tp6096
a(S'0:06:03'
p6097
V[(10!/10!)(10!/9!)*(10!/(8!2!))*(10!/(7!3!))*(10!/(6!4!))*(10!/(5!5!))*(10!/(6!4!))*(10!/(7!3!))*(10!/(8!2!))*10]/(2^10)
p6098
tp6099
a(S'0:08:00'
p6100
V[10*(10!/(2!8!))*(10!/(3!7!))*(10!/(4!6!))*(10!/(5!5!))]/(2^10)
p6101
tp6102
a(S'0:08:46'
p6103
V[10*(10!/(2!8!))*(10!/(3!7!))*(10!/(4!6!))*(10!/(5!5!))*(10!/(6!/4!))*(10!/(7!3!))*(10!/(8!2!))*10]/(2^10)
p6104
tp6105
a(S'0:12:32'
p6106
V[10+(10!/(2!8!))+(10!/(3!7!))+(10!/(4!6!))+(10!/(5!5!))+(10!/(6!/4!))+(10!/(7!3!))+(10!/(8!2!))+10]/(2^10)
p6107
tp6108
a(S'0:13:06'
p6109
V[(10!/(0!10!))+(10!/(1!9!))+(10!/(2!8!))+(10!/(3!7!))+(10!/(4!6!))+(10!/(5!5!))+(10!/(6!/4!))+(10!/(7!3!))+(10!/(8!2!))+10]/(2^10)
p6110
tp6111
a(S'0:13:19'
p6112
V[(10!/(0!10!))+(10!/(1!9!))+(10!/(2!8!))+(10!/(3!7!))+(10!/(4!6!))+(10!/(5!5!))+(10!/(6!/4!))+(10!/(7!3!))+(10!/(8!2!))+10]*(2^10)
p6113
tp6114
a(S'0:13:47'
p6115
V[(10!/(0!10!))+(10!/(1!9!))+(10!/(2!8!))+(10!/(3!7!))+(10!/(4!6!))+(10!/(5!5!))+(10!/(6!4!))+(10!/(7!3!))+(10!/(8!2!))+10]*(2^10)
p6116
tp6117
asS'part2_correct_attempt'
p6118
(lp6119
S'0:00:00'
p6120
aV10
p6121
asS'part4_correct_attempt'
p6122
(lp6123
S'0:14:05'
p6124
aV[(10!/(0!10!))+(10!/(1!9!))+(10!/(2!8!))+(10!/(3!7!))+(10!/(4!6!))+(10!/(5!5!))+(10!/(6!4!))+(10!/(7!3!))+(10!/(8!2!))+10]/(2^10)
p6125
asS'part3_correct_attempt'
p6126
(lp6127
S'0:03:59'
p6128
aV10/(2^10)
p6129
asS'part1_correct_attempt'
p6130
(lp6131
S'0:00:00'
p6132
ag156
asg9
V2015-10-06 21:05:43
p6133
ssVachinn
p6134
(dp6135
S'part4_incorrect_attempt'
p6136
(lp6137
(S'0:00:00'
p6138
V(2^10)-1
p6139
tp6140
asS'part2_correct_attempt'
p6141
(lp6142
S'0:00:00'
p6143
ag2345
asS'part4_correct_attempt'
p6144
(lp6145
S'0:02:06'
p6146
aV((2^10)-1)/2^10
p6147
asS'part3_correct_attempt'
p6148
(lp6149
S'0:00:00'
p6150
ag2354
asS'part1_correct_attempt'
p6151
(lp6152
S'0:00:00'
p6153
ag2358
asg9
g2359
ssVkalang
p6154
(dp6155
S'part4_incorrect_attempt'
p6156
(lp6157
(S'0:02:46'
p6158
V1/(2^9)*2^8
p6159
tp6160
a(S'0:03:30'
p6161
V8/9
p6162
tp6163
a(S'0:06:29'
p6164
V2^8/2^9
p6165
tp6166
a(S'0:11:18'
p6167
V9!/(8!*1!)
p6168
tp6169
a(S'0:12:28'
p6170
V9/2^9
p6171
tp6172
a(S'0:26:54'
p6173
V1-(1/2^9)*(9/2^9)*(36/2^9)
p6174
tp6175
asS'part2_correct_attempt'
p6176
(lp6177
S'0:02:01'
p6178
ag2393
asS'part4_correct_attempt'
p6179
(lp6180
S'0:28:48'
p6181
aV1-(1/2^9)
p6182
asS'part3_correct_attempt'
p6183
(lp6184
S'0:01:35'
p6185
ag2402
asS'part1_correct_attempt'
p6186
(lp6187
S'0:00:00'
p6188
ag2406
asg9
g2407
ssVmsaguiar
p6189
(dp6190
S'part4_incorrect_attempt'
p6191
(lp6192
(S'0:23:17'
p6193
V((2^9)-9)/(2^9)
p6194
tp6195
asS'part2_correct_attempt'
p6196
(lp6197
S'0:00:30'
p6198
ag416
asS'part4_correct_attempt'
p6199
(lp6200
S'0:23:38'
p6201
aV((2^9)-1)/(2^9)
p6202
asS'part3_correct_attempt'
p6203
(lp6204
S'0:21:32'
p6205
ag412
asS'part1_correct_attempt'
p6206
(lp6207
S'0:00:00'
p6208
ag420
asg9
g421
ssVmcatozzi
p6209
(dp6210
S'part4_incorrect_attempt'
p6211
(lp6212
(S'0:02:45'
p6213
V503/512
p6214
tp6215
a(S'0:16:55'
p6216
V502/512
p6217
tp6218
a(S'0:32:44'
p6219
V426/512
p6220
tp6221
a(S'0:32:58'
p6222
V427/512
p6223
tp6224
a(S'0:36:45'
p6225
V503/512
p6226
tp6227
a(S'0:45:07'
p6228
V510/512
p6229
tp6230
asS'part2_correct_attempt'
p6231
(lp6232
S'0:00:56'
p6233
aV9
p6234
asS'part4_correct_attempt'
p6235
(lp6236
S'0:52:44'
p6237
aV511/512
p6238
asS'part3_correct_attempt'
p6239
(lp6240
S'0:02:23'
p6241
aV9/512
p6242
asS'part1_correct_attempt'
p6243
(lp6244
S'0:00:00'
p6245
aV512
p6246
asg9
V2015-10-06 23:18:51
p6247
ssVaadhakal
p6248
(dp6249
S'part4_incorrect_attempt'
p6250
(lp6251
(S'0:08:17'
p6252
V11/1024
p6253
tp6254
a(S'0:09:35'
p6255
V1013/1024
p6256
tp6257
a(S'0:11:58'
p6258
V372400/1024
p6259
tp6260
asS'part2_correct_attempt'
p6261
(lp6262
S'-1 day, 23:57:19'
p6263
ag2621
asS'part4_correct_attempt'
p6264
(lp6265
S'12:52:14'
p6266
aV1023/1024
p6267
asS'part3_correct_attempt'
p6268
(lp6269
S'0:08:17'
p6270
ag2630
asS'part1_correct_attempt'
p6271
(lp6272
S'0:00:00'
p6273
ag2634
asg9
g2635
ssVjnn015
p6274
(dp6275
S'part4_incorrect_attempt'
p6276
(lp6277
(S'0:02:15'
p6278
V(2^11 - 11)/2^11
p6279
tp6280
asS'part2_correct_attempt'
p6281
(lp6282
S'0:02:15'
p6283
ag2701
asS'part4_correct_attempt'
p6284
(lp6285
S'0:03:24'
p6286
aV(2^11 - 1)/2^11
p6287
asS'part3_correct_attempt'
p6288
(lp6289
S'0:02:15'
p6290
ag2710
asS'part1_correct_attempt'
p6291
(lp6292
S'0:00:00'
p6293
ag2714
asg9
g2715
ssVdpereira
p6294
(dp6295
S'part4_correct_attempt'
p6296
(lp6297
S'0:01:49'
p6298
aV1 - (1/(2^10))
p6299
asS'part4_incorrect_attempt'
p6300
(lp6301
(S'0:00:00'
p6302
V(2^10 - 10)/(2^10)
p6303
tp6304
asg9
V2015-10-03 20:57:44
p6305
ssVhmshah
p6306
(dp6307
S'part4_incorrect_attempt'
p6308
(lp6309
(S'0:16:55'
p6310
V(2048-11)/2048
p6311
tp6312
a(S'0:17:01'
p6313
V(2048-10)/2048
p6314
tp6315
asS'part3_correct_attempt'
p6316
(lp6317
S'0:13:49'
p6318
aV11/2048
p6319
asS'part2_correct_attempt'
p6320
(lp6321
S'0:13:31'
p6322
ag1323
asS'part1_correct_attempt'
p6323
(lp6324
S'0:00:00'
p6325
ag255
asg9
g1324
ssVdtea
p6326
(dp6327
S'part4_incorrect_attempt'
p6328
(lp6329
(S'2:29:46'
p6330
V(2*(10!))/2**10
p6331
tp6332
a(S'2:43:39'
p6333
V(((10!/(1!(10-1)!))+(10!/(2!(10-2)!))+(10!/(3!(10-3)!))+(10!/(4!(10-4)!)))*2+(5!/(5!(10-5)!)))/2**10
p6334
tp6335
asS'part2_correct_attempt'
p6336
(lp6337
S'0:02:04'
p6338
aV10
p6339
asS'part4_correct_attempt'
p6340
(lp6341
S'2:43:54'
p6342
aV(((10!/(1!(10-1)!))+(10!/(2!(10-2)!))+(10!/(3!(10-3)!))+(10!/(4!(10-4)!)))*2+(10!/(5!(10-5)!)))/2**10
p6343
asS'part3_correct_attempt'
p6344
(lp6345
S'2:29:34'
p6346
aV10/2**10
p6347
asS'part1_correct_attempt'
p6348
(lp6349
S'0:00:00'
p6350
aV2**10
p6351
asg9
V2015-10-08 18:56:06
p6352
ssVmtrafeca
p6353
(dp6354
S'part4_incorrect_attempt'
p6355
(lp6356
(S'12:43:18'
p6357
V(10!/(9!))/(2^10)
p6358
tp6359
a(S'12:44:19'
p6360
VC(10,9)
p6361
tp6362
asS'part2_correct_attempt'
p6363
(lp6364
S'0:00:26'
p6365
ag725
asS'part4_correct_attempt'
p6366
(lp6367
S'6 days, 13:29:10'
p6368
aV1-(1/2^10)
p6369
asS'part3_correct_attempt'
p6370
(lp6371
S'12:32:46'
p6372
ag721
asS'part1_correct_attempt'
p6373
(lp6374
S'0:00:00'
p6375
ag729
asg9
g730
ssVr2fisher
p6376
(dp6377
S'part4_incorrect_attempt'
p6378
(lp6379
(S'0:00:26'
p6380
V(2^11-11)/(2^11)
p6381
tp6382
asS'part2_correct_attempt'
p6383
(lp6384
S'0:00:18'
p6385
ag2903
asS'part4_correct_attempt'
p6386
(lp6387
S'0:00:36'
p6388
aV(2^11-1)/(2^11)
p6389
asS'part3_correct_attempt'
p6390
(lp6391
S'0:00:26'
p6392
ag2927
asS'part1_correct_attempt'
p6393
(lp6394
S'0:00:00'
p6395
ag2931
asg9
g2932
ssVhpc001
p6396
(dp6397
S'part4_incorrect_attempt'
p6398
(lp6399
(S'0:05:49'
p6400
V56/512
p6401
tp6402
a(S'0:06:23'
p6403
V456/512
p6404
tp6405
asS'part2_correct_attempt'
p6406
(lp6407
S'0:00:00'
p6408
aV9
p6409
asS'part4_correct_attempt'
p6410
(lp6411
S'0:06:55'
p6412
aV511/512
p6413
asS'part3_correct_attempt'
p6414
(lp6415
S'-1 day, 23:57:24'
p6416
aV9/512
p6417
asS'part1_correct_attempt'
p6418
(lp6419
S'0:00:00'
p6420
aV2^9
p6421
asg9
V2015-10-03 00:07:11
p6422
ssVkgrozav
p6423
(dp6424
S'part4_incorrect_attempt'
p6425
(lp6426
(S'0:05:05'
p6427
V11/(2^11)
p6428
tp6429
a(S'0:23:23'
p6430
V11!/(2^11)
p6431
tp6432
a(S'0:30:36'
p6433
V121/(2^11)
p6434
tp6435
asS'part3_correct_attempt'
p6436
(lp6437
S'0:02:41'
p6438
aV11/(2^11)
p6439
asS'part2_correct_attempt'
p6440
(lp6441
S'0:02:13'
p6442
aV11
p6443
asS'part1_correct_attempt'
p6444
(lp6445
S'0:00:00'
p6446
aV2^11
p6447
asg9
V2015-10-02 21:09:10
p6448
ssVs2chaudh
p6449
(dp6450
S'part4_incorrect_attempt'
p6451
(lp6452
(S'0:16:27'
p6453
V(9+36+84+126+126+84+36+9)/512
p6454
tp6455
asS'part2_correct_attempt'
p6456
(lp6457
S'0:04:27'
p6458
aV9
p6459
asS'part4_correct_attempt'
p6460
(lp6461
S'0:16:54'
p6462
aV(9+36+84+126+126+84+36+9+1)/512
p6463
asS'part3_correct_attempt'
p6464
(lp6465
S'0:02:41'
p6466
aV9/512
p6467
asS'part1_correct_attempt'
p6468
(lp6469
S'0:00:00'
p6470
aV2^9
p6471
asg9
V2015-10-08 06:12:52
p6472
ssVc3chung
p6473
(dp6474
S'part4_incorrect_attempt'
p6475
(lp6476
(S'0:00:00'
p6477
V(2^10)-1
p6478
tp6479
asS'part2_correct_attempt'
p6480
(lp6481
S'0:00:00'
p6482
aV10
p6483
asS'part4_correct_attempt'
p6484
(lp6485
S'0:04:50'
p6486
aV[(2^10)-1]/(2^10)
p6487
asS'part3_correct_attempt'
p6488
(lp6489
S'0:00:00'
p6490
aV10/(2^10)
p6491
asS'part1_correct_attempt'
p6492
(lp6493
S'0:00:00'
p6494
aV2^10
p6495
asg9
V2015-10-07 23:22:29
p6496
ssVajvanega
p6497
(dp6498
S'part4_incorrect_attempt'
p6499
(lp6500
(S'0:06:04'
p6501
V2^10/2^11
p6502
tp6503
a(S'0:07:24'
p6504
V((2^10)-1)/2^11
p6505
tp6506
a(S'0:26:45'
p6507
V10/(2^11)
p6508
tp6509
a(S'0:38:20'
p6510
V(2^9)/(2^11)
p6511
tp6512
a(S'0:38:32'
p6513
V(2^10)/(2^11)
p6514
tp6515
a(S'4 days, 4:26:41'
p6516
V10/11
p6517
tp6518
a(S'4 days, 4:30:55'
p6519
V2^10/(2^11)
p6520
tp6521
a(S'4 days, 5:03:36'
p6522
V11/(2^11)
p6523
tp6524
a(S'4 days, 5:12:23'
p6525
V1-(11/(2^11)+(1/2^11))
p6526
tp6527
asS'part2_correct_attempt'
p6528
(lp6529
S'0:03:12'
p6530
ag1121
asS'part4_correct_attempt'
p6531
(lp6532
S'4 days, 5:23:34'
p6533
aV1-(1/(2^11))
p6534
asS'part3_correct_attempt'
p6535
(lp6536
S'0:03:56'
p6537
aV11/(2^11)
p6538
asS'part1_correct_attempt'
p6539
(lp6540
S'0:00:00'
p6541
aV2^11
p6542
asg9
g1122
ssVsthapa
p6543
(dp6544
S'part4_incorrect_attempt'
p6545
(lp6546
(S'0:03:57'
p6547
V7!/(2^9)
p6548
tp6549
a(S'0:04:02'
p6550
V8!/(2^9)
p6551
tp6552
a(S'0:06:12'
p6553
V(2!*3!*4!*5!*6!*7!*8!)/(2^9)
p6554
tp6555
a(S'0:06:31'
p6556
V8!/(2^9)
p6557
tp6558
a(S'0:09:29'
p6559
V2^9 - 9
p6560
tp6561
asS'part2_correct_attempt'
p6562
(lp6563
S'0:02:06'
p6564
aV9!/(8!)
p6565
asS'part4_correct_attempt'
p6566
(lp6567
S'0:15:31'
p6568
aV511/(2^9)
p6569
asS'part3_correct_attempt'
p6570
(lp6571
S'0:02:43'
p6572
aV(9!/(8!))/(2^9)
p6573
asS'part1_correct_attempt'
p6574
(lp6575
S'0:00:00'
p6576
aV2^9
p6577
asg9
V2015-10-06 06:38:14
p6578
ssVkosung
p6579
(dp6580
S'part4_incorrect_attempt'
p6581
(lp6582
(S'0:00:31'
p6583
V12/2^11
p6584
tp6585
asS'part2_correct_attempt'
p6586
(lp6587
S'0:00:31'
p6588
aV11
p6589
asS'part4_correct_attempt'
p6590
(lp6591
S'0:01:59'
p6592
aV(2^11-1)/2^11
p6593
asS'part3_correct_attempt'
p6594
(lp6595
S'0:00:31'
p6596
aV11/2^11
p6597
asS'part1_correct_attempt'
p6598
(lp6599
S'0:00:00'
p6600
aV2^11
p6601
asg9
V2015-10-07 06:17:44
p6602
ssVwhcombs
p6603
(dp6604
S'part4_incorrect_attempt'
p6605
(lp6606
(S'0:23:03'
p6607
V((9!)/(8!(9-8)!))/2^9
p6608
tp6609
a(S'0:27:09'
p6610
V9!/(8!(9-8)!)/(2^9)
p6611
tp6612
a(S'0:35:40'
p6613
V510/(2^9)
p6614
tp6615
a(S'0:37:42'
p6616
V9!/(2!(9-2)!)/(2^9)
p6617
tp6618
a(S'0:46:08'
p6619
V510/(2^9)
p6620
tp6621
a(S'0:47:07'
p6622
V501/(2^9)
p6623
tp6624
asS'part2_correct_attempt'
p6625
(lp6626
S'0:20:10'
p6627
ag1555
asS'part4_correct_attempt'
p6628
(lp6629
S'0:48:56'
p6630
aV511/(2^9)
p6631
asS'part3_correct_attempt'
p6632
(lp6633
S'0:21:39'
p6634
aV9/(2^9)
p6635
asS'part1_correct_attempt'
p6636
(lp6637
S'0:00:00'
p6638
aV2^9
p6639
asg9
g1556
ssVj2phung
p6640
(dp6641
S'part4_incorrect_attempt'
p6642
(lp6643
(S'0:07:01'
p6644
V1013/1024
p6645
tp6646
a(S'0:08:03'
p6647
V1014/1024
p6648
tp6649
asS'part2_correct_attempt'
p6650
(lp6651
S'0:07:01'
p6652
aV10
p6653
asS'part4_correct_attempt'
p6654
(lp6655
S'0:09:31'
p6656
aV1023/1024
p6657
asS'part3_correct_attempt'
p6658
(lp6659
S'0:07:01'
p6660
aV10/1024
p6661
asS'part1_correct_attempt'
p6662
(lp6663
S'0:00:00'
p6664
aV1024
p6665
asg9
V2015-10-06 18:58:26
p6666
sss.