(dp0
V1
p1
(dp2
Va8ho
p3
(dp4
S'part1_correct_attempt'
p5
(lp6
S'0:00:17'
p7
aV26^3
p8
asS'first_attempt'
p9
V2015-10-07 05:50:21
p10
sS'part1_incorrect_attempt'
p11
(lp12
(S'0:00:00'
p13
V3^26
p14
tp15
assVdmn009
p16
(dp17
S'part1_correct_attempt'
p18
(lp19
S'0:07:34'
p20
aV26^6
p21
asg9
V2015-10-08 09:24:34
p22
sS'part1_incorrect_attempt'
p23
(lp24
(S'0:00:00'
p25
V6^26-6^25
p26
tp27
assVkquong
p28
(dp29
S'part1_correct_attempt'
p30
(lp31
S'0:00:13'
p32
aV26^6
p33
asg9
V2015-10-03 21:30:17
p34
sS'part1_incorrect_attempt'
p35
(lp36
(S'0:00:00'
p37
V6^6
p38
tp39
assVjfalcone
p40
(dp41
S'part1_correct_attempt'
p42
(lp43
S'0:01:35'
p44
aV26 * 26 * 26 * 26
p45
asg9
V2015-10-07 03:48:13
p46
sS'part1_incorrect_attempt'
p47
(lp48
(S'0:00:00'
p49
V26!/(22!4!)
p50
tp51
assVccn001
p52
(dp53
S'part1_correct_attempt'
p54
(lp55
S'0:03:43'
p56
aV26^5
p57
asg9
V2015-10-06 06:28:27
p58
sS'part1_incorrect_attempt'
p59
(lp60
(S'0:00:00'
p61
V(26!)/(5!)(26-5)!
p62
tp63
assVvsamant
p64
(dp65
S'part1_correct_attempt'
p66
(lp67
S'0:00:45'
p68
aV26^5
p69
asg9
V2015-10-02 17:18:49
p70
sS'part1_incorrect_attempt'
p71
(lp72
(S'0:00:00'
p73
V26!/((5!)(21!))
p74
tp75
assVdcastlem
p76
(dp77
S'part1_correct_attempt'
p78
(lp79
S'0:27:37'
p80
aV26^5
p81
asg9
V2015-10-03 21:48:46
p82
sS'part1_incorrect_attempt'
p83
(lp84
(S'0:00:00'
p85
V5!
p86
tp87
assVabjara
p88
(dp89
S'part1_correct_attempt'
p90
(lp91
S'0:00:41'
p92
aV26^5
p93
asg9
V2015-10-05 23:04:49
p94
sS'part1_incorrect_attempt'
p95
(lp96
(S'0:00:00'
p97
V5^26
p98
tp99
assVany027
p100
(dp101
S'part1_correct_attempt'
p102
(lp103
S'0:00:22'
p104
aV26^6
p105
asg9
V2015-10-03 11:09:25
p106
sS'part1_incorrect_attempt'
p107
(lp108
(S'0:00:00'
p109
V(26! / (6! * (20!)) )
p110
tp111
assVsachadal
p112
(dp113
S'part1_correct_attempt'
p114
(lp115
S'0:02:24'
p116
aV26^4
p117
asg9
V2015-10-05 19:05:50
p118
sS'part1_incorrect_attempt'
p119
(lp120
(S'0:00:00'
p121
V26!/(26-4)!
p122
tp123
assVawollner
p124
(dp125
S'part1_correct_attempt'
p126
(lp127
S'0:02:42'
p128
aV26^6
p129
asg9
V2015-10-06 15:45:29
p130
sS'part1_incorrect_attempt'
p131
(lp132
(S'0:00:00'
p133
V26!/20!
p134
tp135
assVkthui
p136
(dp137
S'part1_correct_attempt'
p138
(lp139
S'0:13:40'
p140
aV26*26*26
p141
asg9
V2015-10-04 07:35:17
p142
sS'part1_incorrect_attempt'
p143
(lp144
(S'0:00:00'
p145
V26!/3!
p146
tp147
a(S'0:00:28'
p148
V26!/(26-3)!
p149
tp150
assVvsosnovs
p151
(dp152
S'part1_correct_attempt'
p153
(lp154
S'0:08:24'
p155
aV26^6
p156
asg9
V2015-10-04 18:07:56
p157
sS'part1_incorrect_attempt'
p158
(lp159
(S'0:00:00'
p160
V26!/20!
p161
tp162
assVaportuga
p163
(dp164
S'part1_correct_attempt'
p165
(lp166
S'0:51:59'
p167
aV26^5
p168
asg9
V2015-10-06 05:43:16
p169
sS'part1_incorrect_attempt'
p170
(lp171
(S'0:00:00'
p172
V26!/5!
p173
tp174
a(S'0:01:26'
p175
V26!/(26-5)!
p176
tp177
a(S'0:00:00'
p178
V26!/((26-5)!5!)
p179
tp180
a(S'0:02:09'
p181
V((26-5)!/21!)
p182
tp183
assVjag028
p184
(dp185
S'part1_correct_attempt'
p186
(lp187
S'1:28:08'
p188
aV26^6
p189
asg9
V2015-10-08 18:45:30
p190
sS'part1_incorrect_attempt'
p191
(lp192
(S'0:00:00'
p193
V26!*26!
p194
tp195
a(S'0:00:48'
p196
V26!*26!*26!*26!*26!*26!
p197
tp198
a(S'0:05:09'
p199
V26!*25!*24!*23!*22!*21!
p200
tp201
assVtpmach
p202
(dp203
S'part1_correct_attempt'
p204
(lp205
S'0:01:10'
p206
aV26^6
p207
asg9
V2015-10-03 22:00:48
p208
sS'part1_incorrect_attempt'
p209
(lp210
(S'0:00:00'
p211
V26!/(26-6)!
p212
tp213
assVgsrandha
p214
(dp215
S'part1_correct_attempt'
p216
(lp217
S'0:00:17'
p218
aV26*26*26*26*26*26
p219
asg9
V2015-10-02 02:08:50
p220
sS'part1_incorrect_attempt'
p221
(lp222
(S'0:00:00'
p223
V6*5*4*3*2
p224
tp225
assVctroncos
p226
(dp227
S'part1_correct_attempt'
p228
(lp229
S'18:03:29'
p230
aV26^3
p231
asg9
V2015-10-08 05:50:16
p232
sS'part1_incorrect_attempt'
p233
(lp234
(S'0:00:00'
p235
V26!/(3!(26-3)!)
p236
tp237
a(S'0:00:11'
p238
V26!/((26-3)!)
p239
tp240
a(S'0:01:22'
p241
V26!/((26-2)!)
p242
tp243
a(S'0:01:30'
p244
V26!/(2!(26-2)!)
p245
tp246
a(S'0:00:00'
p247
V26!/(26-3)!
p248
tp249
a(S'0:00:18'
p250
V26!/(3!(26-3)!)
p251
tp252
a(S'0:00:37'
p253
V26*25*24
p254
tp255
a(S'0:01:23'
p256
V26^3*3!
p257
tp258
assVjew037
p259
(dp260
S'part1_correct_attempt'
p261
(lp262
S'0:00:22'
p263
aV11881376
p264
asg9
V2015-10-06 02:24:44
p265
sS'part1_incorrect_attempt'
p266
(lp267
(S'0:00:00'
p268
V1.49*10^18
p269
tp270
assVdkostins
p271
(dp272
S'part1_correct_attempt'
p273
(lp274
S'4:37:06'
p275
aV26^6
p276
asg9
V2015-10-05 21:16:32
p277
sS'part1_incorrect_attempt'
p278
(lp279
(S'0:00:00'
p280
V6!
p281
tp282
a(S'0:00:00'
p283
V6^26
p284
tp285
assVjblynch
p286
(dp287
S'part1_correct_attempt'
p288
(lp289
S'0:03:10'
p290
aV26^5
p291
asg9
V2015-10-05 04:34:38
p292
sS'part1_incorrect_attempt'
p293
(lp294
(S'0:00:00'
p295
V26!/21!
p296
tp297
assVrlhagen
p298
(dp299
S'part1_correct_attempt'
p300
(lp301
S'0:01:02'
p302
aV26^4
p303
asg9
V2015-10-04 22:54:32
p304
sS'part1_incorrect_attempt'
p305
(lp306
(S'0:00:00'
p307
V26!/(4!(26-4)!)
p308
tp309
a(S'0:00:12'
p310
V26!/((26-4)!)
p311
tp312
assVm4bui
p313
(dp314
S'part1_correct_attempt'
p315
(lp316
S'0:06:18'
p317
aV26^5
p318
asg9
V2015-10-08 21:10:38
p319
sS'part1_incorrect_attempt'
p320
(lp321
(S'0:00:00'
p322
V26!25!24!23!22!
p323
tp324
a(S'0:03:19'
p325
V26!/5!
p326
tp327
assVs6deng
p328
(dp329
S'part1_correct_attempt'
p330
(lp331
S'0:00:09'
p332
aV26^5
p333
asg9
V2015-10-06 21:23:09
p334
sS'part1_incorrect_attempt'
p335
(lp336
(S'0:00:00'
p337
V5*(26^5)
p338
tp339
assVsyc078
p340
(dp341
S'part1_correct_attempt'
p342
(lp343
S'3:45:28'
p344
aV26^6
p345
asg9
V2015-10-08 19:35:35
p346
sS'part1_incorrect_attempt'
p347
(lp348
(S'0:00:00'
p349
V26*25*24*23*22*21
p350
tp351
assVdis003
p352
(dp353
S'part1_correct_attempt'
p354
(lp355
S'0:00:41'
p356
aV26^5
p357
asg9
V2015-10-08 07:25:36
p358
sS'part1_incorrect_attempt'
p359
(lp360
(S'0:00:00'
p361
V5^26
p362
tp363
assVkalang
p364
(dp365
S'part1_correct_attempt'
p366
(lp367
S'0:01:07'
p368
aV26^6
p369
asg9
V2015-10-05 22:48:58
p370
sS'part1_incorrect_attempt'
p371
(lp372
(S'0:00:00'
p373
V26!/20!
p374
tp375
a(S'0:00:34'
p376
V26!/(6!*20!)
p377
tp378
assVhachrist
p379
(dp380
S'part1_correct_attempt'
p381
(lp382
S'0:08:13'
p383
aV26^6
p384
asg9
V2015-10-04 22:44:44
p385
sS'part1_incorrect_attempt'
p386
(lp387
(S'0:00:00'
p388
V26!/(20!)
p389
tp390
assValhung
p391
(dp392
S'part1_correct_attempt'
p393
(lp394
S'0:00:51'
p395
aV26^4
p396
asg9
V2015-10-08 07:58:03
p397
sS'part1_incorrect_attempt'
p398
(lp399
(S'0:00:00'
p400
V26!/22!
p401
tp402
a(S'0:00:31'
p403
V4^26
p404
tp405
assVtcuddy
p406
(dp407
S'part1_correct_attempt'
p408
(lp409
S'0:00:29'
p410
aV26**5
p411
asg9
V2015-10-02 20:23:28
p412
sS'part1_incorrect_attempt'
p413
(lp414
(S'0:00:00'
p415
V26*26*26
p416
tp417
assVajabasa
p418
(dp419
S'part1_correct_attempt'
p420
(lp421
S'0:01:33'
p422
aV26^4
p423
asg9
V2015-10-05 21:32:45
p424
sS'part1_incorrect_attempt'
p425
(lp426
(S'0:00:00'
p427
V26!/22!
p428
tp429
assVstarinia
p430
(dp431
S'part1_correct_attempt'
p432
(lp433
S'0:01:00'
p434
aV26^4
p435
asg9
V2015-10-07 01:44:03
p436
sS'part1_incorrect_attempt'
p437
(lp438
(S'0:00:00'
p439
V26!/(4!(22!))
p440
tp441
assVjel075
p442
(dp443
S'part1_correct_attempt'
p444
(lp445
S'0:04:38'
p446
aV26*26*26*26
p447
asg9
V2015-10-08 00:48:32
p448
sS'part1_incorrect_attempt'
p449
(lp450
(S'0:00:00'
p451
V(26!/(22!))/4!
p452
tp453
a(S'0:00:26'
p454
V(26!/(22!))
p455
tp456
a(S'0:01:41'
p457
V26*25*24*23
p458
tp459
assVhmnaing
p460
(dp461
S'part1_correct_attempt'
p462
(lp463
S'15:10:57'
p464
aV26^5
p465
asg9
V2015-10-07 02:57:56
p466
sS'part1_incorrect_attempt'
p467
(lp468
(S'0:00:00'
p469
VC(26,5)*1
p470
tp471
assVeaherman
p472
(dp473
S'part1_correct_attempt'
p474
(lp475
S'0:00:29'
p476
aV26^4
p477
asg9
V2015-10-03 21:07:10
p478
sS'part1_incorrect_attempt'
p479
(lp480
(S'0:00:00'
p481
V4!
p482
tp483
assVsayao
p484
(dp485
S'part1_correct_attempt'
p486
(lp487
S'0:00:43'
p488
aV26^4
p489
asg9
V2015-10-03 00:41:11
p490
sS'part1_incorrect_attempt'
p491
(lp492
(S'0:00:00'
p493
V(26*4)!/7!
p494
tp495
assVdpereira
p496
(dp497
S'part1_correct_attempt'
p498
(lp499
S'0:00:32'
p500
aV26^4
p501
asg9
V2015-10-03 21:15:59
p502
sS'part1_incorrect_attempt'
p503
(lp504
(S'0:00:00'
p505
V26! / 22!
p506
tp507
assVmuy002
p508
(dp509
S'part1_correct_attempt'
p510
(lp511
S'0:10:39'
p512
aV26^4
p513
asg9
V2015-10-07 21:44:49
p514
sS'part1_incorrect_attempt'
p515
(lp516
(S'0:00:00'
p517
V26!/(4!*22!)
p518
tp519
a(S'0:03:59'
p520
V26*25*24*23
p521
tp522
assVwcwhite
p523
(dp524
S'part1_correct_attempt'
p525
(lp526
S'0:00:59'
p527
aV26^4
p528
asg9
V2015-10-08 19:08:50
p529
sS'part1_incorrect_attempt'
p530
(lp531
(S'0:00:00'
p532
V4^26
p533
tp534
a(S'0:00:41'
p535
V26*25*24*23
p536
tp537
assVcstringh
p538
(dp539
S'part1_correct_attempt'
p540
(lp541
S'0:00:18'
p542
aV26^4
p543
asg9
V2015-10-04 00:13:03
p544
sS'part1_incorrect_attempt'
p545
(lp546
(S'0:00:00'
p547
V4^26
p548
tp549
assVralhadda
p550
(dp551
S'part1_correct_attempt'
p552
(lp553
S'0:01:42'
p554
aV26*26*26
p555
asg9
V2015-10-08 17:49:51
p556
sS'part1_incorrect_attempt'
p557
(lp558
(S'0:00:00'
p559
V(26*25*24)
p560
tp561
a(S'0:00:22'
p562
V(26*25*24)/(3*2*1)
p563
tp564
assVr2fisher
p565
(dp566
S'part1_correct_attempt'
p567
(lp568
S'4:09:19'
p569
aV26^3
p570
asg9
V2015-10-05 16:37:51
p571
sS'part1_incorrect_attempt'
p572
(lp573
(S'0:00:00'
p574
V3^26
p575
tp576
assVvasharma
p577
(dp578
S'part1_correct_attempt'
p579
(lp580
S'0:12:04'
p581
aV26*26*26*26
p582
asg9
V2015-10-05 06:33:05
p583
sS'part1_incorrect_attempt'
p584
(lp585
(S'0:00:00'
p586
V26!/(26-4)!
p587
tp588
a(S'0:11:38'
p589
V26!/4!(26-4)!
p590
tp591
a(S'0:11:45'
p592
V26!/(4!(26-4)!)
p593
tp594
assVkosung
p595
(dp596
S'part1_correct_attempt'
p597
(lp598
S'0:02:12'
p599
aV26^5
p600
asg9
V2015-10-07 06:23:39
p601
sS'part1_incorrect_attempt'
p602
(lp603
(S'0:00:00'
p604
V24!/19!
p605
tp606
a(S'0:01:44'
p607
V26!/21!
p608
tp609
assVajvanega
p610
(dp611
S'part1_correct_attempt'
p612
(lp613
S'5 days, 0:49:38'
p614
aV26^6
p615
asg9
V2015-10-02 22:53:31
p616
sS'part1_incorrect_attempt'
p617
(lp618
(S'0:00:00'
p619
V(26*25*24*23*22*21)
p620
tp621
a(S'0:00:00'
p622
V((26*25*24*23*22*21)/(6*5*4*3*2))
p623
tp624
a(S'0:01:47'
p625
V26!/(6!(20!))
p626
tp627
a(S'0:02:08'
p628
V26!/(6!(26-6)!)
p629
tp630
a(S'0:04:27'
p631
V26!/6!
p632
tp633
a(S'0:35:32'
p634
V26!/(6!*(26-6)!)
p635
tp636
assVytc012
p637
(dp638
S'part1_correct_attempt'
p639
(lp640
S'0:00:27'
p641
aV26^6
p642
asg9
V2015-10-06 09:51:49
p643
sS'part1_incorrect_attempt'
p644
(lp645
(S'0:00:00'
p646
V26!/(20!6!)
p647
tp648
assVmtrafeca
p649
(dp650
S'part1_correct_attempt'
p651
(lp652
S'0:06:46'
p653
aV26^5
p654
asg9
V2015-10-02 06:10:03
p655
sS'part1_incorrect_attempt'
p656
(lp657
(S'0:00:00'
p658
V26*25*24*23*22
p659
tp660
assVksmurlo
p661
(dp662
S'part1_correct_attempt'
p663
(lp664
S'1 day, 2:31:16'
p665
aV26*26*26*26*26
p666
asg9
V2015-10-05 22:10:46
p667
sS'part1_incorrect_attempt'
p668
(lp669
(S'0:00:00'
p670
V26*26*26
p671
tp672
assVwhcombs
p673
(dp674
S'part1_correct_attempt'
p675
(lp676
S'0:05:15'
p677
aV26^6
p678
asg9
V2015-10-07 19:49:54
p679
sS'part1_incorrect_attempt'
p680
(lp681
(S'0:00:00'
p682
V(26!)/(6!(26-6)!)
p683
tp684
a(S'0:00:31'
p685
V(26!)/((26-6)!)
p686
tp687
a(S'0:04:03'
p688
V(26!)/(6!(26-6)!)
p689
tp690
asssV3
p691
(dp692
Vkvass
p693
(dp694
S'part3_correct_attempt'
p695
(lp696
S'1 day, 8:28:23'
p697
aV26**3-25**3
p698
asS'part2_correct_attempt'
p699
(lp700
S'0:00:00'
p701
aV25**3
p702
asS'part1_correct_attempt'
p703
(lp704
S'0:00:00'
p705
aV26**3
p706
asg9
V2015-10-06 06:18:37
p707
sS'part3_incorrect_attempt'
p708
(lp709
(S'0:00:00'
p710
V25*26**2
p711
tp712
a(S'0:00:30'
p713
V26**2
p714
tp715
a(S'0:01:18'
p716
V3*26**2
p717
tp718
assVkbielawi
p719
(dp720
S'part3_correct_attempt'
p721
(lp722
S'0:13:51'
p723
aV26^5-25^5
p724
asS'part2_correct_attempt'
p725
(lp726
S'0:00:00'
p727
aV25^5
p728
asS'part1_correct_attempt'
p729
(lp730
S'0:00:00'
p731
aV26^5
p732
asg9
V2015-10-05 19:41:05
p733
sS'part3_incorrect_attempt'
p734
(lp735
(S'0:00:00'
p736
V25^4
p737
tp738
a(S'0:00:21'
p739
V26^4
p740
tp741
a(S'0:00:36'
p742
V4*(26^4)
p743
tp744
a(S'0:00:45'
p745
V5*(26^4)
p746
tp747
a(S'0:04:23'
p748
V5!*(26^4)
p749
tp750
a(S'0:12:23'
p751
V4*(26^4)
p752
tp753
assVjguanzho
p754
(dp755
S'part3_correct_attempt'
p756
(lp757
S'0:54:33'
p758
aV26**5 - 25**5
p759
asS'part2_correct_attempt'
p760
(lp761
S'0:00:00'
p762
aV25**5
p763
asS'part1_correct_attempt'
p764
(lp765
S'0:00:00'
p766
aV26**5
p767
asg9
V2015-10-02 08:03:39
p768
sS'part3_incorrect_attempt'
p769
(lp770
(S'0:00:00'
p771
V(25**4) * 26
p772
tp773
a(S'0:00:14'
p774
V(25**4) * 26 * 5
p775
tp776
a(S'0:01:39'
p777
V26**4
p778
tp779
a(S'0:01:52'
p780
V5 * 26**4
p781
tp782
a(S'0:48:59'
p783
V5 * 26! / (4! * 22!)
p784
tp785
assValakamsa
p786
(dp787
S'part3_correct_attempt'
p788
(lp789
S'0:01:51'
p790
aV25^2*3 + 25*3 + 1
p791
asS'part2_correct_attempt'
p792
(lp793
S'0:00:00'
p794
aV25^3
p795
asS'part1_correct_attempt'
p796
(lp797
S'0:00:00'
p798
aV26^3
p799
asg9
V2015-10-04 19:46:42
p800
sS'part3_incorrect_attempt'
p801
(lp802
(S'0:00:00'
p803
V25^2*3
p804
tp805
assVjjm019
p806
(dp807
S'part3_correct_attempt'
p808
(lp809
S'0:51:53'
p810
aV(25*25*3)+(25*3)+(1)
p811
asS'part2_correct_attempt'
p812
(lp813
S'0:00:11'
p814
aV25^3
p815
asS'part1_correct_attempt'
p816
(lp817
S'0:00:00'
p818
aV26^3
p819
asg9
V2015-10-08 01:47:21
p820
sS'part3_incorrect_attempt'
p821
(lp822
(S'0:00:54'
p823
V26^2
p824
tp825
a(S'0:01:15'
p826
V3*26*26
p827
tp828
a(S'0:01:43'
p829
V25^2
p830
tp831
a(S'0:02:34'
p832
V25*25*3
p833
tp834
a(S'0:04:18'
p835
V25*25*6
p836
tp837
a(S'0:11:13'
p838
V26^3
p839
tp840
a(S'0:48:46'
p841
V(25*25)+(2*25)+(3)
p842
tp843
a(S'0:49:17'
p844
V(25*25*3)+(2*25*3)+(3)
p845
tp846
assVctgraves
p847
(dp848
S'part3_correct_attempt'
p849
(lp850
S'0:05:44'
p851
aV26^5-25^5
p852
asS'part2_correct_attempt'
p853
(lp854
S'0:00:00'
p855
aV25^5
p856
asS'part1_correct_attempt'
p857
(lp858
S'0:00:00'
p859
aV26^5
p860
asg9
V2015-10-06 00:28:08
p861
sS'part3_incorrect_attempt'
p862
(lp863
(S'0:00:00'
p864
V26^4
p865
tp866
a(S'0:00:23'
p867
V25^4
p868
tp869
a(S'0:00:37'
p870
V26^5
p871
tp872
a(S'0:00:43'
p873
V26^4
p874
tp875
a(S'0:01:16'
p876
V(5!/(4!))26^4
p877
tp878
a(S'0:01:28'
p879
V5*26^4
p880
tp881
assVnhn018
p882
(dp883
S'part3_correct_attempt'
p884
(lp885
S'0:20:56'
p886
aV26^4-25^4
p887
asS'part2_correct_attempt'
p888
(lp889
S'0:00:00'
p890
aV25^4
p891
asS'part1_correct_attempt'
p892
(lp893
S'0:00:00'
p894
aV26^4
p895
asg9
V2015-10-07 03:02:14
p896
sS'part3_incorrect_attempt'
p897
(lp898
(S'0:00:00'
p899
V25^3
p900
tp901
a(S'0:00:23'
p902
V26^3
p903
tp904
a(S'0:00:50'
p905
V25^4
p906
tp907
a(S'0:18:42'
p908
V25^9
p909
tp910
a(S'0:20:21'
p911
V25^9
p912
tp913
assVj5phung
p914
(dp915
S'part3_correct_attempt'
p916
(lp917
S'0:02:55'
p918
aV26*26*26-25*25*25
p919
asS'part2_correct_attempt'
p920
(lp921
S'0:00:46'
p922
aV25*25*25
p923
asS'part1_correct_attempt'
p924
(lp925
S'0:00:00'
p926
aV26*26*26
p927
asg9
V2015-10-02 17:17:17
p928
sS'part3_incorrect_attempt'
p929
(lp930
(S'0:00:46'
p931
V25*25*26*3
p932
tp933
a(S'0:01:09'
p934
V25*25*26+25*26*26+26*26*26
p935
tp936
assVanl114
p937
(dp938
S'part3_correct_attempt'
p939
(lp940
S'0:01:06'
p941
aV(26^3)-(25^3)
p942
asS'part2_correct_attempt'
p943
(lp944
S'0:00:00'
p945
aV25^3
p946
asS'part1_correct_attempt'
p947
(lp948
S'0:00:00'
p949
aV26^3
p950
asg9
V2015-10-08 06:59:12
p951
sS'part3_incorrect_attempt'
p952
(lp953
(S'0:00:34'
p954
V26*26
p955
tp956
assVc4du
p957
(dp958
S'part3_correct_attempt'
p959
(lp960
S'0:04:19'
p961
aV26^5-25^5
p962
asS'part2_correct_attempt'
p963
(lp964
S'0:00:00'
p965
aV25^5
p966
asS'part1_correct_attempt'
p967
(lp968
S'0:00:00'
p969
aV26^5
p970
asg9
V2015-10-07 07:02:55
p971
sS'part3_incorrect_attempt'
p972
(lp973
(S'0:02:36'
p974
V26^4
p975
tp976
assVctroncos
p977
(dp978
S'part2_correct_attempt'
p979
(lp980
S'0:02:16'
p981
aV25^3
p982
asS'part1_correct_attempt'
p983
(lp984
S'0:00:00'
p985
ag231
asg9
V2015-10-08 23:53:45
p986
sS'part3_incorrect_attempt'
p987
(lp988
(S'0:02:44'
p989
V26^2
p990
tp991
a(S'0:06:31'
p992
V25*24*3
p993
tp994
assVrlhagen
p995
(dp996
S'part3_correct_attempt'
p997
(lp998
S'0:05:31'
p999
aV26^4 - 25^4
p1000
asS'part2_correct_attempt'
p1001
(lp1002
S'0:00:00'
p1003
aV25^4
p1004
asS'part1_correct_attempt'
p1005
(lp1006
S'0:00:00'
p1007
ag303
asg9
V2015-10-04 22:55:34
p1008
sS'part3_incorrect_attempt'
p1009
(lp1010
(S'0:01:08'
p1011
V26^3
p1012
tp1013
a(S'0:03:25'
p1014
V25^3
p1015
tp1016
assVavasavad
p1017
(dp1018
S'part3_correct_attempt'
p1019
(lp1020
S'0:00:54'
p1021
aV26^5 - 25^5
p1022
asS'part2_correct_attempt'
p1023
(lp1024
S'0:00:00'
p1025
aV25^5
p1026
asS'part1_correct_attempt'
p1027
(lp1028
S'0:00:00'
p1029
aV26^5
p1030
asg9
V2015-10-06 06:25:54
p1031
sS'part3_incorrect_attempt'
p1032
(lp1033
(S'0:00:00'
p1034
V25^4 + 1
p1035
tp1036
assVtcn013
p1037
(dp1038
S'part3_correct_attempt'
p1039
(lp1040
S'1 day, 1:04:27'
p1041
aV3*25^2+3*25+1
p1042
asS'part2_correct_attempt'
p1043
(lp1044
S'0:00:00'
p1045
aV25^3
p1046
asS'part1_correct_attempt'
p1047
(lp1048
S'0:00:00'
p1049
aV26^3
p1050
asg9
V2015-10-06 03:56:57
p1051
sS'part3_incorrect_attempt'
p1052
(lp1053
(S'0:00:54'
p1054
V26^2
p1055
tp1056
a(S'0:01:15'
p1057
V3*26^2
p1058
tp1059
a(S'0:06:17'
p1060
V3*25^2+4
p1061
tp1062
assVtstevens
p1063
(dp1064
S'part3_correct_attempt'
p1065
(lp1066
S'0:03:48'
p1067
aV26^5-25^5
p1068
asS'part2_correct_attempt'
p1069
(lp1070
S'0:00:00'
p1071
aV25^5
p1072
asS'part1_correct_attempt'
p1073
(lp1074
S'0:00:00'
p1075
aV26^5
p1076
asg9
V2015-10-07 12:15:55
p1077
sS'part3_incorrect_attempt'
p1078
(lp1079
(S'0:00:00'
p1080
V26^4
p1081
tp1082
a(S'0:00:38'
p1083
V5*(26^4)
p1084
tp1085
assVpthsu
p1086
(dp1087
S'part3_correct_attempt'
p1088
(lp1089
S'0:03:39'
p1090
aV26**5-25**5
p1091
asS'part2_correct_attempt'
p1092
(lp1093
S'0:00:00'
p1094
aV25**5
p1095
asS'part1_correct_attempt'
p1096
(lp1097
S'0:00:00'
p1098
aV26**5
p1099
asg9
V2015-10-02 04:29:29
p1100
sS'part3_incorrect_attempt'
p1101
(lp1102
(S'0:00:00'
p1103
V26**4
p1104
tp1105
assVtcuddy
p1106
(dp1107
S'part3_correct_attempt'
p1108
(lp1109
S'0:04:41'
p1110
aV(26**5)-(25**5)
p1111
asS'part2_correct_attempt'
p1112
(lp1113
S'0:00:00'
p1114
aV25**5
p1115
asS'part1_correct_attempt'
p1116
(lp1117
S'0:00:00'
p1118
ag411
asg9
V2015-10-02 20:23:57
p1119
sS'part3_incorrect_attempt'
p1120
(lp1121
(S'0:00:00'
p1122
V26*4
p1123
tp1124
a(S'0:00:06'
p1125
V26**4
p1126
tp1127
a(S'0:01:31'
p1128
V26**4
p1129
tp1130
assVl8ngo
p1131
(dp1132
S'part3_correct_attempt'
p1133
(lp1134
S'1:29:06'
p1135
aV(26^6) - (25^6)
p1136
asS'part2_correct_attempt'
p1137
(lp1138
S'0:00:00'
p1139
aV25^6
p1140
asS'part1_correct_attempt'
p1141
(lp1142
S'0:00:00'
p1143
aV26^6
p1144
asg9
V2015-10-05 03:02:26
p1145
sS'part3_incorrect_attempt'
p1146
(lp1147
(S'0:00:00'
p1148
V25^5
p1149
tp1150
a(S'0:00:28'
p1151
V[25^5]*6
p1152
tp1153
a(S'0:01:26'
p1154
V26^5
p1155
tp1156
assVdjk006
p1157
(dp1158
S'part3_correct_attempt'
p1159
(lp1160
S'0:02:24'
p1161
aV26^5-25^5
p1162
asS'part2_correct_attempt'
p1163
(lp1164
S'0:00:00'
p1165
aV25^5
p1166
asS'part1_correct_attempt'
p1167
(lp1168
S'0:00:00'
p1169
aV26^5
p1170
asg9
V2015-10-04 23:54:43
p1171
sS'part3_incorrect_attempt'
p1172
(lp1173
(S'0:00:32'
p1174
V26^4
p1175
tp1176
assVaysee
p1177
(dp1178
S'part3_correct_attempt'
p1179
(lp1180
S'0:07:30'
p1181
aV64775151
p1182
asS'part2_correct_attempt'
p1183
(lp1184
S'0:00:00'
p1185
aV244140625
p1186
asS'part1_correct_attempt'
p1187
(lp1188
S'0:00:00'
p1189
aV308915776
p1190
asg9
V2015-10-08 23:10:18
p1191
sS'part3_incorrect_attempt'
p1192
(lp1193
(S'0:00:00'
p1194
V244140625 * 6
p1195
tp1196
a(S'0:01:54'
p1197
V6*(7893600)
p1198
tp1199
assVdando
p1200
(dp1201
S'part3_correct_attempt'
p1202
(lp1203
S'0:07:11'
p1204
aV1 + 3 * 25 + 3 * 25^2
p1205
asS'part2_correct_attempt'
p1206
(lp1207
S'0:00:00'
p1208
aV25^3
p1209
asS'part1_correct_attempt'
p1210
(lp1211
S'0:00:00'
p1212
aV26^3
p1213
asg9
V2015-10-04 20:01:26
p1214
sS'part3_incorrect_attempt'
p1215
(lp1216
(S'0:00:00'
p1217
V26^2
p1218
tp1219
a(S'0:00:27'
p1220
V3*26^2
p1221
tp1222
a(S'0:03:16'
p1223
V3 * (1 * 26 * 26) - 3
p1224
tp1225
a(S'0:03:24'
p1226
V3 * (1 * 26 * 26) - 2
p1227
tp1228
a(S'0:03:34'
p1229
V3 * (1 * 26 * 26) - 1
p1230
tp1231
a(S'0:03:45'
p1232
V3 * (1 * 26 * 26) - 9
p1233
tp1234
assVdsriniva
p1235
(dp1236
S'part3_correct_attempt'
p1237
(lp1238
S'0:04:03'
p1239
aV26^6-25^6
p1240
asS'part2_correct_attempt'
p1241
(lp1242
S'0:00:00'
p1243
aV25^6
p1244
asS'part1_correct_attempt'
p1245
(lp1246
S'0:00:00'
p1247
aV26^6
p1248
asg9
V2015-10-08 17:44:48
p1249
sS'part3_incorrect_attempt'
p1250
(lp1251
(S'0:00:15'
p1252
V6*25^5+26*6
p1253
tp1254
assVa2ahmed
p1255
(dp1256
S'part3_correct_attempt'
p1257
(lp1258
S'0:06:14'
p1259
aV(26^4) - (25^4)
p1260
asS'part2_correct_attempt'
p1261
(lp1262
S'0:00:00'
p1263
aV25^4
p1264
asS'part1_correct_attempt'
p1265
(lp1266
S'0:00:00'
p1267
aV26^4
p1268
asg9
V2015-10-08 17:13:15
p1269
sS'part3_incorrect_attempt'
p1270
(lp1271
(S'0:00:00'
p1272
V4*(26^3)
p1273
tp1274
a(S'0:01:52'
p1275
V4*(26^3) + 4*(26^2) + 4*(26) + 1
p1276
tp1277
a(S'0:04:42'
p1278
V4*(26^3) + 6*(26^2) + 4*(26) + 1
p1279
tp1280
assVm4salaza
p1281
(dp1282
S'part3_correct_attempt'
p1283
(lp1284
S'0:01:51'
p1285
aV26^6-25^6
p1286
asS'part2_correct_attempt'
p1287
(lp1288
S'0:00:00'
p1289
aV25^6
p1290
asS'part1_correct_attempt'
p1291
(lp1292
S'0:00:00'
p1293
aV26^6
p1294
asg9
V2015-10-07 03:46:12
p1295
sS'part3_incorrect_attempt'
p1296
(lp1297
(S'0:00:00'
p1298
V1+26^5
p1299
tp1300
assVyos017
p1301
(dp1302
S'part3_correct_attempt'
p1303
(lp1304
S'0:20:50'
p1305
aV1+(15*25^2)+(20*25^3)+(15*25^4)+(6*25^5)
p1306
asS'part2_correct_attempt'
p1307
(lp1308
S'0:00:00'
p1309
aV25^6
p1310
asS'part1_correct_attempt'
p1311
(lp1312
S'0:00:00'
p1313
aV26^6
p1314
asg9
V2015-10-02 11:51:03
p1315
sS'part3_incorrect_attempt'
p1316
(lp1317
(S'0:00:00'
p1318
V25^6
p1319
tp1320
a(S'0:00:24'
p1321
V25^5
p1322
tp1323
a(S'0:02:59'
p1324
V5*26^5
p1325
tp1326
a(S'0:04:20'
p1327
V6*26^5
p1328
tp1329
assVsmall
p1330
(dp1331
S'part3_correct_attempt'
p1332
(lp1333
S'0:04:15'
p1334
aV26^3 - 25^3
p1335
asS'part2_correct_attempt'
p1336
(lp1337
S'0:00:13'
p1338
aV25^3
p1339
asS'part1_correct_attempt'
p1340
(lp1341
S'0:00:00'
p1342
aV26^3
p1343
asg9
V2015-10-08 23:40:08
p1344
sS'part3_incorrect_attempt'
p1345
(lp1346
(S'0:00:40'
p1347
V26*26
p1348
tp1349
a(S'0:02:14'
p1350
V676*3
p1351
tp1352
a(S'0:03:01'
p1353
V676*3 - 2
p1354
tp1355
assVm8woo
p1356
(dp1357
S'part3_correct_attempt'
p1358
(lp1359
S'0:01:40'
p1360
aV26^5-25^5
p1361
asS'part2_correct_attempt'
p1362
(lp1363
S'0:00:00'
p1364
aV25^5
p1365
asS'part1_correct_attempt'
p1366
(lp1367
S'0:00:00'
p1368
aV26^5
p1369
asg9
V2015-10-08 20:50:24
p1370
sS'part3_incorrect_attempt'
p1371
(lp1372
(S'0:00:00'
p1373
V26^4
p1374
tp1375
assVggaddi
p1376
(dp1377
S'part3_correct_attempt'
p1378
(lp1379
S'0:01:51'
p1380
aV25^2*3 + 25*3 + 1
p1381
asS'part2_correct_attempt'
p1382
(lp1383
S'0:00:00'
p1384
aV25^3
p1385
asS'part1_correct_attempt'
p1386
(lp1387
S'0:00:00'
p1388
aV26^3
p1389
asg9
V2015-10-03 01:10:14
p1390
sS'part3_incorrect_attempt'
p1391
(lp1392
(S'0:01:29'
p1393
V25^2*3 + 25*2 + 1
p1394
tp1395
assVa8ho
p1396
(dp1397
S'part3_correct_attempt'
p1398
(lp1399
S'1:01:25'
p1400
aV26^3-25^3
p1401
asS'part2_correct_attempt'
p1402
(lp1403
S'0:00:00'
p1404
aV25^3
p1405
asS'part1_correct_attempt'
p1406
(lp1407
S'0:00:00'
p1408
ag8
asg9
V2015-10-07 05:50:38
p1409
sS'part3_incorrect_attempt'
p1410
(lp1411
(S'0:02:56'
p1412
V3*25*26^2
p1413
tp1414
a(S'0:03:46'
p1415
V3*26^2
p1416
tp1417
a(S'0:05:26'
p1418
V3(26^2)
p1419
tp1420
a(S'0:57:46'
p1421
V3*25^2+1+3*24^2
p1422
tp1423
a(S'0:58:42'
p1424
V3*25^2+1+3*24
p1425
tp1426
assVh4tu
p1427
(dp1428
S'part3_correct_attempt'
p1429
(lp1430
S'0:01:11'
p1431
aV26^3-25^3
p1432
asS'part2_correct_attempt'
p1433
(lp1434
S'0:00:30'
p1435
aV25^3
p1436
asS'part1_correct_attempt'
p1437
(lp1438
S'0:00:00'
p1439
aV26^3
p1440
asg9
V2015-10-08 19:03:17
p1441
sS'part3_incorrect_attempt'
p1442
(lp1443
(S'0:00:30'
p1444
V26^2
p1445
tp1446
assVccn001
p1447
(dp1448
S'part3_correct_attempt'
p1449
(lp1450
S'11:08:31'
p1451
aV(5!/((1!)(5-1)!))25^4+(5!/((2!)(5-2)!))25^3+(5!/((3!)(5-3)!))25^2+(5!/((4!)(5-4)!))25^1+1
p1452
asS'part2_correct_attempt'
p1453
(lp1454
S'0:00:00'
p1455
aV25^5
p1456
asS'part1_correct_attempt'
p1457
(lp1458
S'0:00:00'
p1459
ag57
asg9
V2015-10-06 06:32:10
p1460
sS'part3_incorrect_attempt'
p1461
(lp1462
(S'0:00:00'
p1463
V1*26^4
p1464
tp1465
a(S'0:28:08'
p1466
V26^4+26^4+26^4+26^4+26^4
p1467
tp1468
assVlrlai
p1469
(dp1470
S'part3_correct_attempt'
p1471
(lp1472
S'0:47:12'
p1473
aV26^4 - (25^4)
p1474
asS'part2_correct_attempt'
p1475
(lp1476
S'0:00:00'
p1477
aV25^4
p1478
asS'part1_correct_attempt'
p1479
(lp1480
S'0:00:00'
p1481
aV26^4
p1482
asg9
V2015-10-04 23:28:25
p1483
sS'part3_incorrect_attempt'
p1484
(lp1485
(S'0:00:00'
p1486
V(25^3) * 3
p1487
tp1488
a(S'0:02:17'
p1489
V((25^3) * 5) + ((25^2)*3) + (25*5) + 1
p1490
tp1491
assVasetters
p1492
(dp1493
S'part3_correct_attempt'
p1494
(lp1495
S'0:02:21'
p1496
aV26^6-25^6
p1497
asS'part2_correct_attempt'
p1498
(lp1499
S'0:00:00'
p1500
aV25^6
p1501
asS'part1_correct_attempt'
p1502
(lp1503
S'0:00:00'
p1504
aV26^6
p1505
asg9
V2015-10-02 19:57:28
p1506
sS'part3_incorrect_attempt'
p1507
(lp1508
(S'0:00:00'
p1509
V25^5
p1510
tp1511
a(S'0:00:11'
p1512
V25^5*6
p1513
tp1514
assVc1sorian
p1515
(dp1516
S'part3_correct_attempt'
p1517
(lp1518
S'0:07:28'
p1519
aV(26^3)-(25^3)
p1520
asS'part2_correct_attempt'
p1521
(lp1522
S'0:00:58'
p1523
aV25^3
p1524
asS'part1_correct_attempt'
p1525
(lp1526
S'0:00:00'
p1527
aV26^3
p1528
asg9
V2015-10-08 05:54:51
p1529
sS'part3_incorrect_attempt'
p1530
(lp1531
(S'0:01:19'
p1532
V26*26
p1533
tp1534
a(S'0:01:42'
p1535
V3*26*26
p1536
tp1537
assVatorr
p1538
(dp1539
S'part3_correct_attempt'
p1540
(lp1541
S'0:08:25'
p1542
aV26^3 - 25^3
p1543
asS'part2_correct_attempt'
p1544
(lp1545
S'0:00:00'
p1546
aV25^3
p1547
asS'part1_correct_attempt'
p1548
(lp1549
S'0:00:00'
p1550
aV26^3
p1551
asg9
V2015-10-05 05:57:50
p1552
sS'part3_incorrect_attempt'
p1553
(lp1554
(S'0:00:12'
p1555
V26^3
p1556
tp1557
a(S'0:00:30'
p1558
V26^2
p1559
tp1560
a(S'0:00:49'
p1561
V25^2
p1562
tp1563
a(S'0:01:00'
p1564
V1 * 26 * 26
p1565
tp1566
a(S'0:02:42'
p1567
V26^3
p1568
tp1569
a(S'0:02:57'
p1570
V3 * 26^3
p1571
tp1572
a(S'0:03:30'
p1573
V26^6
p1574
tp1575
assVcprafull
p1576
(dp1577
S'part3_correct_attempt'
p1578
(lp1579
S'6:06:04'
p1580
aV(26^4) - (25^4)
p1581
asS'part2_correct_attempt'
p1582
(lp1583
S'0:00:14'
p1584
aV25*25*25*25
p1585
asS'part1_correct_attempt'
p1586
(lp1587
S'0:00:00'
p1588
aV26*26*26*26
p1589
asg9
V2015-10-06 19:29:17
p1590
sS'part3_incorrect_attempt'
p1591
(lp1592
(S'0:00:59'
p1593
V26*26*26*4
p1594
tp1595
a(S'0:01:04'
p1596
V26*26*26
p1597
tp1598
a(S'0:02:03'
p1599
V26*26*26*4
p1600
tp1601
a(S'6:01:46'
p1602
V25*25*25*4
p1603
tp1604
assVanislam
p1605
(dp1606
S'part2_correct_attempt'
p1607
(lp1608
S'0:00:00'
p1609
aV25^3
p1610
asS'part1_correct_attempt'
p1611
(lp1612
S'0:00:00'
p1613
aV26^3
p1614
asg9
V2015-10-08 23:56:54
p1615
sS'part3_incorrect_attempt'
p1616
(lp1617
(S'0:00:29'
p1618
V26^2 * 3 - 2
p1619
tp1620
a(S'0:01:32'
p1621
V26^2 * 3 - 2 - 1 -1 - 1
p1622
tp1623
a(S'0:05:05'
p1624
V26^2 + 26^2 + 26^2 - 1 - 1 - 26 - 26 - 26
p1625
tp1626
assVmroknich
p1627
(dp1628
S'part3_correct_attempt'
p1629
(lp1630
S'0:16:01'
p1631
aV26^4-25^4
p1632
asS'part2_correct_attempt'
p1633
(lp1634
S'0:00:00'
p1635
aV25^4
p1636
asS'part1_correct_attempt'
p1637
(lp1638
S'0:00:00'
p1639
aV26^4
p1640
asg9
V2015-10-06 06:11:24
p1641
sS'part3_incorrect_attempt'
p1642
(lp1643
(S'0:00:40'
p1644
V26^4
p1645
tp1646
a(S'0:07:52'
p1647
V(26^3*4)+(26^3*C(4,2))+(26*C(4,3))+1
p1648
tp1649
assValhung
p1650
(dp1651
S'part3_correct_attempt'
p1652
(lp1653
S'0:22:15'
p1654
aV26^4-25^4
p1655
asS'part2_correct_attempt'
p1656
(lp1657
S'0:00:00'
p1658
aV25^4
p1659
asS'part1_correct_attempt'
p1660
(lp1661
S'0:00:00'
p1662
ag396
asg9
V2015-10-08 07:58:54
p1663
sS'part3_incorrect_attempt'
p1664
(lp1665
(S'0:00:00'
p1666
V26^3
p1667
tp1668
a(S'0:00:29'
p1669
V4*26^3
p1670
tp1671
a(S'0:01:53'
p1672
V4*26!/23!
p1673
tp1674
a(S'0:06:17'
p1675
V4!*26^3
p1676
tp1677
a(S'0:07:27'
p1678
V4*26^3
p1679
tp1680
assVc2qiu
p1681
(dp1682
S'part3_correct_attempt'
p1683
(lp1684
S'0:02:50'
p1685
aV26^6-25^6
p1686
asS'part2_correct_attempt'
p1687
(lp1688
S'0:00:00'
p1689
aV25^6
p1690
asS'part1_correct_attempt'
p1691
(lp1692
S'0:00:00'
p1693
aV26^6
p1694
asg9
V2015-10-03 18:25:48
p1695
sS'part3_incorrect_attempt'
p1696
(lp1697
(S'0:00:00'
p1698
V6*26^5
p1699
tp1700
assVjcj006
p1701
(dp1702
S'part3_correct_attempt'
p1703
(lp1704
S'0:01:16'
p1705
aV26^4-25^4
p1706
asS'part2_correct_attempt'
p1707
(lp1708
S'0:00:00'
p1709
aV25^4
p1710
asS'part1_correct_attempt'
p1711
(lp1712
S'0:00:00'
p1713
aV26^4
p1714
asg9
V2015-10-08 00:29:09
p1715
sS'part3_incorrect_attempt'
p1716
(lp1717
(S'0:00:00'
p1718
V4*26^3
p1719
tp1720
assVdis003
p1721
(dp1722
S'part3_correct_attempt'
p1723
(lp1724
S'0:01:09'
p1725
aV26^5 - 25^5
p1726
asS'part2_correct_attempt'
p1727
(lp1728
S'0:00:00'
p1729
aV25^5
p1730
asS'part1_correct_attempt'
p1731
(lp1732
S'0:00:00'
p1733
ag357
asg9
V2015-10-08 07:26:17
p1734
sS'part3_incorrect_attempt'
p1735
(lp1736
(S'0:00:00'
p1737
V26^4
p1738
tp1739
assVrraiyyan
p1740
(dp1741
S'part3_correct_attempt'
p1742
(lp1743
S'0:06:06'
p1744
aV(1*25*25)*3 + (1*25*1)*3 + 1
p1745
asS'part2_correct_attempt'
p1746
(lp1747
S'0:00:00'
p1748
aV25^3
p1749
asS'part1_correct_attempt'
p1750
(lp1751
S'0:00:00'
p1752
aV26^3
p1753
asg9
V2015-10-06 06:55:02
p1754
sS'part3_incorrect_attempt'
p1755
(lp1756
(S'0:00:00'
p1757
V3 * 26*25*25
p1758
tp1759
a(S'0:00:20'
p1760
V(26*25*25)^3
p1761
tp1762
a(S'0:01:56'
p1763
V(26*25*25 * 26*25*26 * 26)^3
p1764
tp1765
assVjhw015
p1766
(dp1767
S'part3_correct_attempt'
p1768
(lp1769
S'0:08:22'
p1770
aV26^3 - 25^3
p1771
asS'part2_correct_attempt'
p1772
(lp1773
S'0:00:19'
p1774
aV25^3
p1775
asS'part1_correct_attempt'
p1776
(lp1777
S'0:00:00'
p1778
aV26^3
p1779
asg9
V2015-10-06 15:12:52
p1780
sS'part3_incorrect_attempt'
p1781
(lp1782
(S'0:01:24'
p1783
V26^2
p1784
tp1785
assVkrkelkar
p1786
(dp1787
S'part3_correct_attempt'
p1788
(lp1789
S'0:02:50'
p1790
aV26**3-25**3
p1791
asS'part2_correct_attempt'
p1792
(lp1793
S'0:00:00'
p1794
aV25**3
p1795
asS'part1_correct_attempt'
p1796
(lp1797
S'0:00:00'
p1798
aV26**3
p1799
asg9
V2015-10-03 07:12:29
p1800
sS'part3_incorrect_attempt'
p1801
(lp1802
(S'0:00:00'
p1803
V3* 26**2
p1804
tp1805
assVlcardoso
p1806
(dp1807
S'part3_correct_attempt'
p1808
(lp1809
S'0:02:52'
p1810
aV26*26*26 - 25*25*25
p1811
asS'part2_correct_attempt'
p1812
(lp1813
S'0:00:00'
p1814
aV25*25*25
p1815
asS'part1_correct_attempt'
p1816
(lp1817
S'0:00:00'
p1818
aV26*26*26
p1819
asg9
V2015-10-08 07:07:35
p1820
sS'part3_incorrect_attempt'
p1821
(lp1822
(S'0:00:00'
p1823
V1*25*25
p1824
tp1825
a(S'0:00:51'
p1826
V1*25*25 * (3!/(2!*1!))
p1827
tp1828
assVjel075
p1829
(dp1830
S'part3_correct_attempt'
p1831
(lp1832
S'3:32:15'
p1833
aV26*26*26*26-25*25*25*25
p1834
asS'part2_correct_attempt'
p1835
(lp1836
S'0:00:25'
p1837
aV25*25*25*25
p1838
asS'part1_correct_attempt'
p1839
(lp1840
S'0:00:00'
p1841
ag447
asg9
V2015-10-08 00:53:10
p1842
sS'part3_incorrect_attempt'
p1843
(lp1844
(S'0:00:25'
p1845
V1*26*26*26
p1846
tp1847
a(S'0:03:28'
p1848
V26*26*26*4
p1849
tp1850
a(S'3:30:54'
p1851
V26*26*26+26*26*26+26*26*26+26*26*26
p1852
tp1853
assVhmnaing
p1854
(dp1855
S'part3_correct_attempt'
p1856
(lp1857
S'5:01:36'
p1858
aV(26^5) - (25^5)
p1859
asS'part2_correct_attempt'
p1860
(lp1861
S'0:00:00'
p1862
aV25^5
p1863
asS'part1_correct_attempt'
p1864
(lp1865
S'0:00:00'
p1866
ag465
asg9
V2015-10-07 18:08:53
p1867
sS'part3_incorrect_attempt'
p1868
(lp1869
(S'0:00:00'
p1870
V(25^5)*5
p1871
tp1872
assVkgrozav
p1873
(dp1874
S'part3_correct_attempt'
p1875
(lp1876
S'0:13:33'
p1877
aV(26^4) - (25^4)
p1878
asS'part2_correct_attempt'
p1879
(lp1880
S'0:00:13'
p1881
aV25^4
p1882
asS'part1_correct_attempt'
p1883
(lp1884
S'0:00:00'
p1885
aV26^4
p1886
asg9
V2015-10-02 21:18:30
p1887
sS'part3_incorrect_attempt'
p1888
(lp1889
(S'0:01:00'
p1890
V26^3
p1891
tp1892
a(S'0:11:34'
p1893
V4*((26^3) + (26^2) + 26)
p1894
tp1895
assVetemlock
p1896
(dp1897
S'part3_correct_attempt'
p1898
(lp1899
S'0:08:08'
p1900
aV(26^6)-(25^6)
p1901
asS'part2_correct_attempt'
p1902
(lp1903
S'0:00:00'
p1904
aV25^6
p1905
asS'part1_correct_attempt'
p1906
(lp1907
S'0:00:00'
p1908
aV26^6
p1909
asg9
V2015-10-02 17:50:03
p1910
sS'part3_incorrect_attempt'
p1911
(lp1912
(S'0:00:00'
p1913
V26^5
p1914
tp1915
assVmuy002
p1916
(dp1917
S'part3_correct_attempt'
p1918
(lp1919
S'0:01:23'
p1920
aV26^4-25^4
p1921
asS'part2_correct_attempt'
p1922
(lp1923
S'0:00:00'
p1924
aV25^4
p1925
asS'part1_correct_attempt'
p1926
(lp1927
S'0:00:00'
p1928
ag513
asg9
V2015-10-07 21:55:28
p1929
sS'part3_incorrect_attempt'
p1930
(lp1931
(S'0:00:00'
p1932
V1*26*26*26
p1933
tp1934
assVjtfrankl
p1935
(dp1936
S'part3_correct_attempt'
p1937
(lp1938
S'3:12:30'
p1939
aV26**6-25**6
p1940
asS'part2_correct_attempt'
p1941
(lp1942
S'0:00:00'
p1943
aV25**6
p1944
asS'part1_correct_attempt'
p1945
(lp1946
S'0:00:00'
p1947
aV26**6
p1948
asg9
V2015-10-07 23:43:24
p1949
sS'part3_incorrect_attempt'
p1950
(lp1951
(S'0:00:00'
p1952
V26**5
p1953
tp1954
a(S'0:01:15'
p1955
V(26!/(5!21!))6
p1956
tp1957
a(S'0:01:31'
p1958
V(26!/(5!21!))5
p1959
tp1960
a(S'3:06:58'
p1961
V(26!/(5!21!))6
p1962
tp1963
assVeshung
p1964
(dp1965
S'part3_correct_attempt'
p1966
(lp1967
S'0:05:40'
p1968
aV26^4-25^4
p1969
asS'part2_correct_attempt'
p1970
(lp1971
S'0:00:00'
p1972
aV25^4
p1973
asS'part1_correct_attempt'
p1974
(lp1975
S'0:00:00'
p1976
aV26^4
p1977
asg9
V2015-10-08 18:41:54
p1978
sS'part3_incorrect_attempt'
p1979
(lp1980
(S'0:04:00'
p1981
V(25^3)*(3)+(25^2)*(6)+(25*3)+1
p1982
tp1983
a(S'0:05:23'
p1984
V25^4
p1985
tp1986
assVrbdoming
p1987
(dp1988
S'part3_correct_attempt'
p1989
(lp1990
S'0:11:04'
p1991
aV26* 26* 26 - 25*25*25
p1992
asS'part2_correct_attempt'
p1993
(lp1994
S'0:00:00'
p1995
aV25*25*25
p1996
asS'part1_correct_attempt'
p1997
(lp1998
S'0:00:00'
p1999
aV26*26*26
p2000
asg9
V2015-10-02 21:26:44
p2001
sS'part3_incorrect_attempt'
p2002
(lp2003
(S'0:00:00'
p2004
V26*26*26
p2005
tp2006
a(S'0:07:48'
p2007
V3(26*26*25)
p2008
tp2009
assVaurodrig
p2010
(dp2011
S'part3_correct_attempt'
p2012
(lp2013
S'0:09:37'
p2014
aV26^6-25^6
p2015
asS'part2_correct_attempt'
p2016
(lp2017
S'0:00:23'
p2018
aV25^6
p2019
asS'part1_correct_attempt'
p2020
(lp2021
S'0:00:00'
p2022
aV26^6
p2023
asg9
V2015-10-07 04:55:05
p2024
sS'part3_incorrect_attempt'
p2025
(lp2026
(S'0:06:43'
p2027
V6^26-6^25
p2028
tp2029
a(S'0:07:04'
p2030
V6^26-1^25
p2031
tp2032
a(S'0:07:19'
p2033
V6^26-5^25
p2034
tp2035
assVdcastlem
p2036
(dp2037
S'part3_correct_attempt'
p2038
(lp2039
S'0:16:46'
p2040
aV26^5-25^5
p2041
asS'part2_correct_attempt'
p2042
(lp2043
S'0:00:00'
p2044
aV25^5
p2045
asS'part1_correct_attempt'
p2046
(lp2047
S'0:00:00'
p2048
ag81
asg9
V2015-10-03 22:16:23
p2049
sS'part3_incorrect_attempt'
p2050
(lp2051
(S'0:01:49'
p2052
V26*2
p2053
tp2054
a(S'0:01:57'
p2055
V26^2
p2056
tp2057
a(S'0:11:38'
p2058
V26^4
p2059
tp2060
assVbkoli
p2061
(dp2062
S'part3_correct_attempt'
p2063
(lp2064
S'0:15:37'
p2065
aV26^5-25^5
p2066
asS'part2_correct_attempt'
p2067
(lp2068
S'0:00:23'
p2069
aV25^5
p2070
asS'part1_correct_attempt'
p2071
(lp2072
S'0:00:00'
p2073
aV26^5
p2074
asg9
V2015-10-08 16:45:51
p2075
sS'part3_incorrect_attempt'
p2076
(lp2077
(S'0:03:23'
p2078
V25*26^4
p2079
tp2080
a(S'0:03:47'
p2081
V1*26^4
p2082
tp2083
a(S'0:05:30'
p2084
V1+26^4
p2085
tp2086
a(S'0:11:39'
p2087
V26^4+1+26^4
p2088
tp2089
assVv3doan
p2090
(dp2091
S'part3_correct_attempt'
p2092
(lp2093
S'0:12:49'
p2094
aV3 * 26 * 26 - (26 * 3) + 1
p2095
asS'part2_correct_attempt'
p2096
(lp2097
S'0:00:00'
p2098
aV25 * 25 * 25
p2099
asS'part1_correct_attempt'
p2100
(lp2101
S'0:00:00'
p2102
aV26 * 26 *26
p2103
asg9
V2015-10-04 00:06:48
p2104
sS'part3_incorrect_attempt'
p2105
(lp2106
(S'0:01:22'
p2107
V26 * 26
p2108
tp2109
a(S'0:02:16'
p2110
VC(26, 3)
p2111
tp2112
a(S'0:06:33'
p2113
V26 * 26 * 3 - 1 -3
p2114
tp2115
a(S'0:06:43'
p2116
V26 * 26 * 3 - 1
p2117
tp2118
a(S'0:06:53'
p2119
V26 * 26 * 3 + 2
p2120
tp2121
a(S'0:07:00'
p2122
V26 * 26 * 3 + 1
p2123
tp2124
a(S'0:07:05'
p2125
V26 * 26 * 3 - 2
p2126
tp2127
a(S'0:08:49'
p2128
V26 * 26 * 3 + 1 - 6
p2129
tp2130
a(S'0:12:35'
p2131
V26 * 26 - (26 * 3) + 1
p2132
tp2133
assVyil035
p2134
(dp2135
S'part3_correct_attempt'
p2136
(lp2137
S'0:01:11'
p2138
aV26^5-25^5
p2139
asS'part2_correct_attempt'
p2140
(lp2141
S'0:00:00'
p2142
aV25^5
p2143
asS'part1_correct_attempt'
p2144
(lp2145
S'0:00:00'
p2146
aV26^5
p2147
asg9
V2015-10-07 06:05:33
p2148
sS'part3_incorrect_attempt'
p2149
(lp2150
(S'0:00:00'
p2151
V26^4
p2152
tp2153
assVwmiao
p2154
(dp2155
S'part3_correct_attempt'
p2156
(lp2157
S'0:12:57'
p2158
aV2115751
p2159
asS'part2_correct_attempt'
p2160
(lp2161
S'0:00:00'
p2162
aV25^5
p2163
asS'part1_correct_attempt'
p2164
(lp2165
S'0:00:00'
p2166
aV26^5
p2167
asg9
V2015-10-07 04:41:54
p2168
sS'part3_incorrect_attempt'
p2169
(lp2170
(S'0:00:00'
p2171
V26^4
p2172
tp2173
a(S'0:00:49'
p2174
V5*26^4
p2175
tp2176
a(S'0:01:10'
p2177
V5!*26^4
p2178
tp2179
assVdruble
p2180
(dp2181
S'part3_correct_attempt'
p2182
(lp2183
S'0:00:53'
p2184
aV26^4 - 25^4
p2185
asS'part2_correct_attempt'
p2186
(lp2187
S'0:00:00'
p2188
aV25^4
p2189
asS'part1_correct_attempt'
p2190
(lp2191
S'0:00:00'
p2192
aV26^4
p2193
asg9
V2015-10-08 21:21:34
p2194
sS'part3_incorrect_attempt'
p2195
(lp2196
(S'0:00:00'
p2197
V4*1*26^3
p2198
tp2199
assVlpettit
p2200
(dp2201
S'part3_correct_attempt'
p2202
(lp2203
S'11:33:41'
p2204
aV26^4 - 25^4
p2205
asS'part2_correct_attempt'
p2206
(lp2207
S'0:00:27'
p2208
aV25^4
p2209
asS'part1_correct_attempt'
p2210
(lp2211
S'0:00:00'
p2212
aV26^4
p2213
asg9
V2015-10-06 03:35:15
p2214
sS'part3_incorrect_attempt'
p2215
(lp2216
(S'0:00:55'
p2217
V26^3
p2218
tp2219
a(S'0:03:34'
p2220
V4*(26^3)
p2221
tp2222
a(S'0:08:18'
p2223
V(26!)/(1!*(25!))
p2224
tp2225
a(S'0:08:32'
p2226
V(26!)/(1!*(25!)) * 26^3
p2227
tp2228
a(S'0:09:37'
p2229
V4*(26^3) - 4
p2230
tp2231
a(S'0:10:18'
p2232
V4*(26^3) - 4!
p2233
tp2234
a(S'0:10:35'
p2235
V4*(26^3) - 4*4!
p2236
tp2237
a(S'0:16:22'
p2238
V(26^3)
p2239
tp2240
assVb3hwang
p2241
(dp2242
S'part3_correct_attempt'
p2243
(lp2244
S'0:01:37'
p2245
aV(26^4)-(25^4)
p2246
asS'part2_correct_attempt'
p2247
(lp2248
S'0:00:11'
p2249
aV25^4
p2250
asS'part1_correct_attempt'
p2251
(lp2252
S'0:00:00'
p2253
aV26^4
p2254
asg9
V2015-10-08 23:26:34
p2255
sS'part3_incorrect_attempt'
p2256
(lp2257
(S'0:00:22'
p2258
V26^3
p2259
tp2260
a(S'0:00:46'
p2261
V4*26^3
p2262
tp2263
assVkebao
p2264
(dp2265
S'part3_correct_attempt'
p2266
(lp2267
S'0:15:33'
p2268
aV26^6-25^6
p2269
asS'part2_correct_attempt'
p2270
(lp2271
S'0:00:28'
p2272
aV25^6
p2273
asS'part1_correct_attempt'
p2274
(lp2275
S'0:00:00'
p2276
aV26^6
p2277
asg9
V2015-10-03 18:10:46
p2278
sS'part3_incorrect_attempt'
p2279
(lp2280
(S'0:01:09'
p2281
V26^5
p2282
tp2283
a(S'0:06:26'
p2284
V6!/5!
p2285
tp2286
a(S'0:11:55'
p2287
V25^5
p2288
tp2289
assVglcohen
p2290
(dp2291
S'part3_correct_attempt'
p2292
(lp2293
S'0:17:08'
p2294
aV(26^3)-(25^3)
p2295
asS'part2_correct_attempt'
p2296
(lp2297
S'0:00:00'
p2298
aV25*25*25
p2299
asS'part1_correct_attempt'
p2300
(lp2301
S'0:00:00'
p2302
aV26*26*26
p2303
asg9
V2015-10-04 23:11:58
p2304
sS'part3_incorrect_attempt'
p2305
(lp2306
(S'0:00:00'
p2307
V1*26*26
p2308
tp2309
a(S'0:00:09'
p2310
V3*26*26
p2311
tp2312
a(S'0:00:36'
p2313
V(26*26)(26*26)(26*26)
p2314
tp2315
a(S'0:08:19'
p2316
V(26*26)+(26*26)+(26*26)+(26*26)+(3*26)+1
p2317
tp2318
a(S'0:08:40'
p2319
V(25*25)+(25*25)+(25*25)+(25*25)+(3*25)+1
p2320
tp2321
a(S'0:08:54'
p2322
V(25*25)+(25*25)+(25*25)+(25*25)+(3*25)
p2323
tp2324
a(S'0:11:00'
p2325
V25*26*26
p2326
tp2327
a(S'0:11:09'
p2328
V3(25*26*26)
p2329
tp2330
a(S'0:11:17'
p2331
V2(25*26*26)
p2332
tp2333
a(S'0:11:37'
p2334
V3*(1*26*26)
p2335
tp2336
a(S'0:11:54'
p2337
V2*(26*26)
p2338
tp2339
a(S'0:11:59'
p2340
V3*(26*26)
p2341
tp2342
a(S'0:13:58'
p2343
V(26*26)
p2344
tp2345
a(S'0:14:09'
p2346
V2(26*26)
p2347
tp2348
a(S'0:14:15'
p2349
V4(26*26)
p2350
tp2351
a(S'0:14:48'
p2352
V3(26*26)
p2353
tp2354
assVachava
p2355
(dp2356
S'part3_correct_attempt'
p2357
(lp2358
S'2:21:19'
p2359
aV26^4-25^4
p2360
asS'part2_correct_attempt'
p2361
(lp2362
S'0:16:14'
p2363
aV25^4
p2364
asS'part1_correct_attempt'
p2365
(lp2366
S'0:00:00'
p2367
aV26^4
p2368
asg9
V2015-10-02 05:30:54
p2369
sS'part3_incorrect_attempt'
p2370
(lp2371
(S'0:16:39'
p2372
V26*25*25*25
p2373
tp2374
a(S'0:16:55'
p2375
V26*25*26*25
p2376
tp2377
a(S'0:18:08'
p2378
V26^4
p2379
tp2380
a(S'0:19:57'
p2381
V26!/((1!)*(25!))
p2382
tp2383
a(S'0:22:22'
p2384
V26*25*25*25
p2385
tp2386
a(S'0:22:34'
p2387
V26*26*25*26
p2388
tp2389
a(S'0:22:38'
p2390
V26*26*25*25
p2391
tp2392
a(S'0:38:09'
p2393
V25*25*25+1
p2394
tp2395
a(S'0:38:37'
p2396
V(25*25*25*25)+4
p2397
tp2398
assVd6he
p2399
(dp2400
S'part3_correct_attempt'
p2401
(lp2402
S'0:04:04'
p2403
aV(26^6)-(25^6)
p2404
asS'part2_correct_attempt'
p2405
(lp2406
S'0:00:00'
p2407
aV25^6
p2408
asS'part1_correct_attempt'
p2409
(lp2410
S'0:00:00'
p2411
aV26^6
p2412
asg9
V2015-10-07 21:22:22
p2413
sS'part3_incorrect_attempt'
p2414
(lp2415
(S'0:00:12'
p2416
V5*(26^5)
p2417
tp2418
a(S'0:00:21'
p2419
V6*(26^5)
p2420
tp2421
a(S'0:02:54'
p2422
V6*(26^5)-1
p2423
tp2424
a(S'0:03:00'
p2425
V6*(26^5)-6
p2426
tp2427
assVsachadal
p2428
(dp2429
S'part3_correct_attempt'
p2430
(lp2431
S'0:05:41'
p2432
aV(26^4) - (25^4)
p2433
asS'part2_correct_attempt'
p2434
(lp2435
S'0:00:21'
p2436
aV25^4
p2437
asS'part1_correct_attempt'
p2438
(lp2439
S'0:00:00'
p2440
ag117
asg9
V2015-10-05 19:08:14
p2441
sS'part3_incorrect_attempt'
p2442
(lp2443
(S'0:00:21'
p2444
V26^3
p2445
tp2446
a(S'0:02:07'
p2447
V4*26^3
p2448
tp2449
assVawollner
p2450
(dp2451
S'part3_correct_attempt'
p2452
(lp2453
S'0:26:09'
p2454
aV26^6-25^6
p2455
asS'part2_correct_attempt'
p2456
(lp2457
S'0:00:00'
p2458
aV25^6
p2459
asS'part1_correct_attempt'
p2460
(lp2461
S'0:00:00'
p2462
ag129
asg9
V2015-10-06 15:48:11
p2463
sS'part3_incorrect_attempt'
p2464
(lp2465
(S'0:00:00'
p2466
V26^5
p2467
tp2468
a(S'0:00:08'
p2469
V26^6
p2470
tp2471
assVdcrume
p2472
(dp2473
S'part2_correct_attempt'
p2474
(lp2475
S'0:00:00'
p2476
aV25^(5)
p2477
asS'part1_correct_attempt'
p2478
(lp2479
S'0:00:00'
p2480
aV26^(5)
p2481
asg9
V2015-10-08 17:20:35
p2482
sS'part3_incorrect_attempt'
p2483
(lp2484
(S'0:00:00'
p2485
V26^(4)
p2486
tp2487
a(S'0:01:54'
p2488
V26^(4) + 26^(3) + 26^(2) + 26 + 1
p2489
tp2490
assVt2li
p2491
(dp2492
S'part3_correct_attempt'
p2493
(lp2494
S'0:07:50'
p2495
aV26^4-25^4
p2496
asS'part2_correct_attempt'
p2497
(lp2498
S'0:00:00'
p2499
aV25^4
p2500
asS'part1_correct_attempt'
p2501
(lp2502
S'0:00:00'
p2503
aV26^4
p2504
asg9
V2015-10-06 03:41:50
p2505
sS'part3_incorrect_attempt'
p2506
(lp2507
(S'0:02:55'
p2508
V25^3
p2509
tp2510
a(S'0:04:34'
p2511
V4*26*26*26
p2512
tp2513
a(S'0:07:28'
p2514
V26*26*26
p2515
tp2516
assVdlt009
p2517
(dp2518
S'part3_correct_attempt'
p2519
(lp2520
S'0:04:23'
p2521
aV(26^5)-(25^5)
p2522
asS'part2_correct_attempt'
p2523
(lp2524
S'0:00:00'
p2525
aV25^5
p2526
asS'part1_correct_attempt'
p2527
(lp2528
S'0:00:00'
p2529
aV26^5
p2530
asg9
V2015-10-05 00:31:46
p2531
sS'part3_incorrect_attempt'
p2532
(lp2533
(S'0:00:00'
p2534
V26^4
p2535
tp2536
assVn2patil
p2537
(dp2538
S'part3_correct_attempt'
p2539
(lp2540
S'0:21:15'
p2541
aV(26^4)-(25^4)
p2542
asS'part2_correct_attempt'
p2543
(lp2544
S'0:00:13'
p2545
aV25^4
p2546
asS'part1_correct_attempt'
p2547
(lp2548
S'0:00:00'
p2549
aV26^4
p2550
asg9
V2015-10-08 05:32:55
p2551
sS'part3_incorrect_attempt'
p2552
(lp2553
(S'0:00:52'
p2554
V26*26*26*25
p2555
tp2556
a(S'0:01:24'
p2557
V26*26*26
p2558
tp2559
a(S'0:05:36'
p2560
V26*26*26*4
p2561
tp2562
assVttimmons
p2563
(dp2564
S'part3_correct_attempt'
p2565
(lp2566
S'0:02:25'
p2567
aV26^5-25^5
p2568
asS'part2_correct_attempt'
p2569
(lp2570
S'0:00:00'
p2571
aV25^5
p2572
asS'part1_correct_attempt'
p2573
(lp2574
S'0:00:00'
p2575
aV26^5
p2576
asg9
V2015-10-04 00:10:57
p2577
sS'part3_incorrect_attempt'
p2578
(lp2579
(S'0:00:12'
p2580
V25^4
p2581
tp2582
a(S'0:00:35'
p2583
V26*26*26*26
p2584
tp2585
a(S'0:00:51'
p2586
V4*26*26*26*26
p2587
tp2588
assVjnatale
p2589
(dp2590
S'part3_correct_attempt'
p2591
(lp2592
S'0:12:04'
p2593
aV26^3 - 25^3
p2594
asS'part2_correct_attempt'
p2595
(lp2596
S'0:00:13'
p2597
aV25*25*25
p2598
asS'part1_correct_attempt'
p2599
(lp2600
S'0:00:00'
p2601
aV26*26*26
p2602
asg9
V2015-10-08 02:38:05
p2603
sS'part3_incorrect_attempt'
p2604
(lp2605
(S'0:00:32'
p2606
V1*26*26
p2607
tp2608
a(S'0:02:36'
p2609
V26^3
p2610
tp2611
a(S'0:05:15'
p2612
V26*26
p2613
tp2614
a(S'0:05:36'
p2615
V(26*26)^3 - 3
p2616
tp2617
a(S'0:05:52'
p2618
V(26*26)^3 - 6
p2619
tp2620
a(S'0:05:57'
p2621
V(26*26)^3 - 5
p2622
tp2623
a(S'0:06:01'
p2624
V(26*26)^3 - 4
p2625
tp2626
a(S'0:06:04'
p2627
V(26*26)^3 - 7
p2628
tp2629
a(S'0:06:08'
p2630
V(26*26)^3 - 8
p2631
tp2632
assVjblynch
p2633
(dp2634
S'part3_correct_attempt'
p2635
(lp2636
S'0:00:23'
p2637
aV26^5 - 25^5
p2638
asS'part2_correct_attempt'
p2639
(lp2640
S'0:00:00'
p2641
aV25^5
p2642
asS'part1_correct_attempt'
p2643
(lp2644
S'0:00:00'
p2645
ag291
asg9
V2015-10-05 04:37:48
p2646
sS'part3_incorrect_attempt'
p2647
(lp2648
(S'0:00:00'
p2649
V26^4
p2650
tp2651
assVganajera
p2652
(dp2653
S'part3_correct_attempt'
p2654
(lp2655
S'0:02:01'
p2656
aV(26^4)-(25^4)
p2657
asS'part2_correct_attempt'
p2658
(lp2659
S'0:00:00'
p2660
aV25^4
p2661
asS'part1_correct_attempt'
p2662
(lp2663
S'0:00:00'
p2664
aV26^4
p2665
asg9
V2015-10-03 18:27:27
p2666
sS'part3_incorrect_attempt'
p2667
(lp2668
(S'0:00:00'
p2669
V4*26*26*26
p2670
tp2671
assVnnh002
p2672
(dp2673
S'part3_correct_attempt'
p2674
(lp2675
S'0:00:46'
p2676
aV26^4-(25^4)
p2677
asS'part2_correct_attempt'
p2678
(lp2679
S'0:00:00'
p2680
aV25^4
p2681
asS'part1_correct_attempt'
p2682
(lp2683
S'0:00:00'
p2684
aV26^4
p2685
asg9
V2015-10-07 00:43:18
p2686
sS'part3_incorrect_attempt'
p2687
(lp2688
(S'0:00:00'
p2689
V26^3
p2690
tp2691
assVskodigal
p2692
(dp2693
S'part3_correct_attempt'
p2694
(lp2695
S'1:47:54'
p2696
aV66351
p2697
asS'part2_correct_attempt'
p2698
(lp2699
S'0:00:00'
p2700
aV25^4
p2701
asS'part1_correct_attempt'
p2702
(lp2703
S'0:00:00'
p2704
aV26^4
p2705
asg9
V2015-10-08 00:51:25
p2706
sS'part3_incorrect_attempt'
p2707
(lp2708
(S'0:00:41'
p2709
V26^3
p2710
tp2711
a(S'0:10:27'
p2712
V(26^4)*4*6*4
p2713
tp2714
a(S'0:10:43'
p2715
V(26^4)/4*6*4
p2716
tp2717
assVdtea
p2718
(dp2719
S'part3_correct_attempt'
p2720
(lp2721
S'2:52:58'
p2722
aV26**4-25**4
p2723
asS'part2_correct_attempt'
p2724
(lp2725
S'0:00:06'
p2726
aV25**4
p2727
asS'part1_correct_attempt'
p2728
(lp2729
S'0:00:00'
p2730
aV26**4
p2731
asg9
V2015-10-08 19:00:09
p2732
sS'part3_incorrect_attempt'
p2733
(lp2734
(S'0:00:21'
p2735
V26*26*26
p2736
tp2737
a(S'0:01:04'
p2738
V26*26*26*25
p2739
tp2740
a(S'0:01:45'
p2741
V26*26*26*4
p2742
tp2743
a(S'0:03:40'
p2744
V4*26*C(4,1)
p2745
tp2746
a(S'0:04:04'
p2747
V4*26*4
p2748
tp2749
a(S'0:04:09'
p2750
V4*26*4!
p2751
tp2752
a(S'2:33:23'
p2753
V26**3
p2754
tp2755
a(S'2:52:18'
p2756
V26**3
p2757
tp2758
assVeaherman
p2759
(dp2760
S'part3_correct_attempt'
p2761
(lp2762
S'1 day, 20:19:56'
p2763
aV(26^4)-(25^4)
p2764
asS'part2_correct_attempt'
p2765
(lp2766
S'0:00:24'
p2767
aV25^4
p2768
asS'part1_correct_attempt'
p2769
(lp2770
S'0:00:00'
p2771
ag477
asg9
V2015-10-03 21:07:39
p2772
sS'part3_incorrect_attempt'
p2773
(lp2774
(S'0:01:31'
p2775
V(25)(26)(26)
p2776
tp2777
a(S'0:01:45'
p2778
V(25)(26)(26)(26)
p2779
tp2780
a(S'0:02:03'
p2781
V(26)(26)(26)
p2782
tp2783
a(S'0:08:12'
p2784
V(25^3)(4)
p2785
tp2786
a(S'0:19:55'
p2787
V[(26^3)(4)]-24
p2788
tp2789
a(S'0:37:46'
p2790
V[(26^3)(4)]-27
p2791
tp2792
a(S'1 day, 19:52:10'
p2793
V[(26^3)(4)]-6
p2794
tp2795
a(S'1 day, 19:52:24'
p2796
V(26^3)
p2797
tp2798
a(S'1 day, 20:15:54'
p2799
V(25^3)(4)+11
p2800
tp2801
assVlguintu
p2802
(dp2803
S'part3_correct_attempt'
p2804
(lp2805
S'0:01:04'
p2806
aV26^5-25^5
p2807
asS'part2_correct_attempt'
p2808
(lp2809
S'0:00:00'
p2810
aV25^5
p2811
asS'part1_correct_attempt'
p2812
(lp2813
S'0:00:00'
p2814
aV26^5
p2815
asg9
V2015-10-06 16:56:19
p2816
sS'part3_incorrect_attempt'
p2817
(lp2818
(S'0:00:00'
p2819
V26^4
p2820
tp2821
assVjjchung
p2822
(dp2823
S'part3_correct_attempt'
p2824
(lp2825
S'0:06:57'
p2826
aV(26^3 - 25^3)
p2827
asS'part2_correct_attempt'
p2828
(lp2829
S'0:00:11'
p2830
aV25^3
p2831
asS'part1_correct_attempt'
p2832
(lp2833
S'0:00:00'
p2834
aV26^3
p2835
asg9
V2015-10-08 06:33:53
p2836
sS'part3_incorrect_attempt'
p2837
(lp2838
(S'0:00:37'
p2839
V26^2
p2840
tp2841
a(S'0:02:23'
p2842
V(26^2)*3-2
p2843
tp2844
a(S'0:02:28'
p2845
V(26^2)*3-3
p2846
tp2847
a(S'0:02:36'
p2848
V(26^2)*3-1
p2849
tp2850
assVvolim
p2851
(dp2852
S'part3_correct_attempt'
p2853
(lp2854
S'0:15:25'
p2855
aV(26^6)-(25^6)
p2856
asS'part2_correct_attempt'
p2857
(lp2858
S'0:00:00'
p2859
aV(25)^6
p2860
asS'part1_correct_attempt'
p2861
(lp2862
S'0:00:00'
p2863
aV(26)^6
p2864
asg9
V2015-10-03 18:52:37
p2865
sS'part3_incorrect_attempt'
p2866
(lp2867
(S'0:00:00'
p2868
V(26)^5
p2869
tp2870
assVralhadda
p2871
(dp2872
S'part2_correct_attempt'
p2873
(lp2874
S'0:00:35'
p2875
aV25*25*25
p2876
asS'part1_correct_attempt'
p2877
(lp2878
S'0:00:00'
p2879
ag555
asg9
V2015-10-08 17:51:33
p2880
sS'part3_incorrect_attempt'
p2881
(lp2882
(S'0:00:54'
p2883
V25*26*26
p2884
tp2885
a(S'0:01:00'
p2886
V25*26*24
p2887
tp2888
a(S'0:02:07'
p2889
V26*26*26
p2890
tp2891
assVytc012
p2892
(dp2893
S'part3_correct_attempt'
p2894
(lp2895
S'0:25:28'
p2896
aV26^6 -25^6
p2897
asS'part2_correct_attempt'
p2898
(lp2899
S'0:00:10'
p2900
aV25^6
p2901
asS'part1_correct_attempt'
p2902
(lp2903
S'0:00:00'
p2904
ag642
asg9
V2015-10-06 09:52:16
p2905
sS'part3_incorrect_attempt'
p2906
(lp2907
(S'0:00:28'
p2908
V26^5
p2909
tp2910
a(S'0:03:00'
p2911
V26^5
p2912
tp2913
a(S'0:03:11'
p2914
V6*(26^5)
p2915
tp2916
a(S'0:03:16'
p2917
V5*(26^5)
p2918
tp2919
a(S'0:14:55'
p2920
V26^5
p2921
tp2922
a(S'0:16:22'
p2923
V6*26^5-6!
p2924
tp2925
a(S'0:16:42'
p2926
V6*26^5-6
p2927
tp2928
assVtjke
p2929
(dp2930
S'part3_correct_attempt'
p2931
(lp2932
S'0:07:46'
p2933
aV26^6-25^6
p2934
asS'part2_correct_attempt'
p2935
(lp2936
S'0:00:00'
p2937
aV25^6
p2938
asS'part1_correct_attempt'
p2939
(lp2940
S'0:00:00'
p2941
aV26^6
p2942
asg9
V2015-10-03 23:34:41
p2943
sS'part3_incorrect_attempt'
p2944
(lp2945
(S'0:00:00'
p2946
VC(5,1)*26^5
p2947
tp2948
a(S'0:02:40'
p2949
V[5!/(4!)]*26^5
p2950
tp2951
assVklala
p2952
(dp2953
S'part3_correct_attempt'
p2954
(lp2955
S'0:02:15'
p2956
aV26^4 - 25^4
p2957
asS'part2_correct_attempt'
p2958
(lp2959
S'0:00:00'
p2960
aV25^4
p2961
asS'part1_correct_attempt'
p2962
(lp2963
S'0:00:00'
p2964
aV26^4
p2965
asg9
V2015-10-05 20:22:54
p2966
sS'part3_incorrect_attempt'
p2967
(lp2968
(S'0:00:00'
p2969
V26^3
p2970
tp2971
assVasp025
p2972
(dp2973
S'part3_correct_attempt'
p2974
(lp2975
S'0:56:57'
p2976
aV66351
p2977
asS'part2_correct_attempt'
p2978
(lp2979
S'0:00:43'
p2980
aV25^4
p2981
asS'part1_correct_attempt'
p2982
(lp2983
S'0:00:00'
p2984
aV26^4
p2985
asg9
V2015-10-08 16:07:28
p2986
sS'part3_incorrect_attempt'
p2987
(lp2988
(S'0:02:42'
p2989
V(25^4)+1
p2990
tp2991
a(S'0:03:14'
p2992
V26*25*25*25
p2993
tp2994
a(S'0:07:02'
p2995
V(26!26!26!26!)/26^3
p2996
tp2997
a(S'0:12:52'
p2998
V(4*26)-1
p2999
tp3000
a(S'0:13:17'
p3001
V(4*25)+1
p3002
tp3003
a(S'0:56:09'
p3004
V4*25*25*25
p3005
tp3006
assVdlgoldbe
p3007
(dp3008
S'part3_correct_attempt'
p3009
(lp3010
S'0:19:50'
p3011
aV(26^5)-(25^5)
p3012
asS'part2_correct_attempt'
p3013
(lp3014
S'0:00:13'
p3015
aV25^5
p3016
asS'part1_correct_attempt'
p3017
(lp3018
S'0:00:00'
p3019
aV26^5
p3020
asg9
V2015-10-08 05:02:14
p3021
sS'part3_incorrect_attempt'
p3022
(lp3023
(S'0:01:44'
p3024
V5*26^4
p3025
tp3026
a(S'0:02:10'
p3027
V26^4
p3028
tp3029
a(S'0:07:28'
p3030
V5*((104!)/(4!*100!))
p3031
tp3032
a(S'0:09:26'
p3033
V5*(26^4)
p3034
tp3035
a(S'0:10:23'
p3036
V5+(26^4)
p3037
tp3038
a(S'0:11:05'
p3039
V26^4
p3040
tp3041
a(S'0:18:08'
p3042
V(25^4)*5*4*3*2
p3043
tp3044
assVjfalcone
p3045
(dp3046
S'part3_correct_attempt'
p3047
(lp3048
S'0:02:19'
p3049
aV(26^4)-(25^4)
p3050
asS'part2_correct_attempt'
p3051
(lp3052
S'0:00:00'
p3053
aV25^4
p3054
asS'part1_correct_attempt'
p3055
(lp3056
S'0:00:00'
p3057
ag45
asg9
V2015-10-07 03:49:48
p3058
sS'part3_incorrect_attempt'
p3059
(lp3060
(S'0:00:30'
p3061
V25^2
p3062
tp3063
a(S'0:00:43'
p3064
V26^2
p3065
tp3066
a(S'0:01:10'
p3067
V(26^3)
p3068
tp3069
a(S'0:01:38'
p3070
V25^4
p3071
tp3072
assVeyhu
p3073
(dp3074
S'part3_correct_attempt'
p3075
(lp3076
S'0:06:59'
p3077
aV(26^3) - (25^3)
p3078
asS'part2_correct_attempt'
p3079
(lp3080
S'0:00:00'
p3081
aV25^3
p3082
asS'part1_correct_attempt'
p3083
(lp3084
S'0:00:00'
p3085
aV26^3
p3086
asg9
V2015-10-02 01:26:46
p3087
sS'part3_incorrect_attempt'
p3088
(lp3089
(S'0:00:00'
p3090
V3*26^2
p3091
tp3092
a(S'0:02:39'
p3093
V25^2 + 25 + 25 + 1
p3094
tp3095
assVppanourg
p3096
(dp3097
S'part3_correct_attempt'
p3098
(lp3099
S'5 days, 22:04:34'
p3100
aV26^5 - 25^5
p3101
asS'part2_correct_attempt'
p3102
(lp3103
S'0:00:00'
p3104
aV25^5
p3105
asS'part1_correct_attempt'
p3106
(lp3107
S'0:00:00'
p3108
aV26^5
p3109
asg9
V2015-10-02 08:28:07
p3110
sS'part3_incorrect_attempt'
p3111
(lp3112
(S'0:00:00'
p3113
V26^4
p3114
tp3115
a(S'0:02:11'
p3116
V5*26^4
p3117
tp3118
a(S'5 days, 21:58:09'
p3119
V5!*26^4
p3120
tp3121
a(S'5 days, 22:00:35'
p3122
V26^4
p3123
tp3124
assVewbrenna
p3125
(dp3126
S'part3_correct_attempt'
p3127
(lp3128
S'0:50:54'
p3129
aV26^5-25^5
p3130
asS'part2_correct_attempt'
p3131
(lp3132
S'0:00:00'
p3133
aV25^5
p3134
asS'part1_correct_attempt'
p3135
(lp3136
S'0:00:00'
p3137
aV26^5
p3138
asg9
V2015-10-04 04:17:49
p3139
sS'part3_incorrect_attempt'
p3140
(lp3141
(S'0:00:00'
p3142
V5*(26^4)
p3143
tp3144
assVmasaro
p3145
(dp3146
S'part3_correct_attempt'
p3147
(lp3148
S'0:03:33'
p3149
aV26^5-25^5
p3150
asS'part2_correct_attempt'
p3151
(lp3152
S'0:00:00'
p3153
aV25^5
p3154
asS'part1_correct_attempt'
p3155
(lp3156
S'0:00:00'
p3157
aV26^5
p3158
asg9
V2015-10-05 15:33:06
p3159
sS'part3_incorrect_attempt'
p3160
(lp3161
(S'0:00:00'
p3162
V5*26^4
p3163
tp3164
assVrwthomps
p3165
(dp3166
S'part3_correct_attempt'
p3167
(lp3168
S'0:06:11'
p3169
aV26^5 - 25^5
p3170
asS'part2_correct_attempt'
p3171
(lp3172
S'0:00:00'
p3173
aV25^5
p3174
asS'part1_correct_attempt'
p3175
(lp3176
S'0:00:00'
p3177
aV26^5
p3178
asg9
V2015-10-06 20:06:38
p3179
sS'part3_incorrect_attempt'
p3180
(lp3181
(S'0:00:00'
p3182
V26^4
p3183
tp3184
assVpcdo
p3185
(dp3186
S'part3_correct_attempt'
p3187
(lp3188
S'0:10:20'
p3189
aV26^6 - 25^6
p3190
asS'part2_correct_attempt'
p3191
(lp3192
S'0:02:43'
p3193
aV25^6
p3194
asS'part1_correct_attempt'
p3195
(lp3196
S'0:00:00'
p3197
aV26^6
p3198
asg9
V2015-10-06 20:30:14
p3199
sS'part3_incorrect_attempt'
p3200
(lp3201
(S'0:08:35'
p3202
V26^6 - 25^6 - 5*25^5
p3203
tp3204
a(S'0:09:37'
p3205
V26^6 - 25^6 - 6*25^5
p3206
tp3207
assVe9brown
p3208
(dp3209
S'part3_correct_attempt'
p3210
(lp3211
S'0:07:27'
p3212
aV(25^2)3 + 76
p3213
asS'part2_correct_attempt'
p3214
(lp3215
S'0:00:00'
p3216
aV25^3
p3217
asS'part1_correct_attempt'
p3218
(lp3219
S'0:00:00'
p3220
aV26^3
p3221
asg9
V2015-10-08 02:11:55
p3222
sS'part3_incorrect_attempt'
p3223
(lp3224
(S'0:02:57'
p3225
V(26^2-4)3
p3226
tp3227
assVvsosnovs
p3228
(dp3229
S'part3_correct_attempt'
p3230
(lp3231
S'0:05:49'
p3232
aV(26^6)- 25^6
p3233
asS'part2_correct_attempt'
p3234
(lp3235
S'0:00:20'
p3236
aV25^6
p3237
asS'part1_correct_attempt'
p3238
(lp3239
S'0:00:00'
p3240
ag156
asg9
V2015-10-04 18:16:20
p3241
sS'part3_incorrect_attempt'
p3242
(lp3243
(S'0:01:59'
p3244
V(25^6)+ 1
p3245
tp3246
a(S'0:02:27'
p3247
V6!
p3248
tp3249
a(S'0:04:58'
p3250
V6!/5!
p3251
tp3252
assVjdeon
p3253
(dp3254
S'part3_correct_attempt'
p3255
(lp3256
S'0:03:23'
p3257
aV(26^3)-(25^3)
p3258
asS'part2_correct_attempt'
p3259
(lp3260
S'0:00:13'
p3261
aV25^3
p3262
asS'part1_correct_attempt'
p3263
(lp3264
S'0:00:00'
p3265
aV26^3
p3266
asg9
V2015-10-03 19:43:42
p3267
sS'part3_incorrect_attempt'
p3268
(lp3269
(S'0:01:08'
p3270
V26^2
p3271
tp3272
a(S'0:01:44'
p3273
V26^2*3 - 2
p3274
tp3275
a(S'0:01:50'
p3276
V26^2*3 - 3
p3277
tp3278
a(S'0:02:47'
p3279
V(26!/(24!*2!)) * 3
p3280
tp3281
assVb1green
p3282
(dp3283
S'part3_correct_attempt'
p3284
(lp3285
S'0:41:54'
p3286
aV26*26*26-25*25*25
p3287
asS'part2_correct_attempt'
p3288
(lp3289
S'0:00:00'
p3290
aV25*25*25
p3291
asS'part1_correct_attempt'
p3292
(lp3293
S'0:00:00'
p3294
aV26*26*26
p3295
asg9
V2015-10-08 18:55:10
p3296
sS'part3_incorrect_attempt'
p3297
(lp3298
(S'0:02:26'
p3299
V25*26*26
p3300
tp3301
a(S'0:03:52'
p3302
V26*26
p3303
tp3304
assVp4kumar
p3305
(dp3306
S'part3_correct_attempt'
p3307
(lp3308
S'0:08:48'
p3309
aV(26^5) - (25^5)
p3310
asS'part2_correct_attempt'
p3311
(lp3312
S'0:00:00'
p3313
aV25^5
p3314
asS'part1_correct_attempt'
p3315
(lp3316
S'0:00:00'
p3317
aV26^5
p3318
asg9
V2015-10-08 19:16:37
p3319
sS'part3_incorrect_attempt'
p3320
(lp3321
(S'0:00:43'
p3322
V(25^4) * 5
p3323
tp3324
a(S'0:01:23'
p3325
V(26^4)
p3326
tp3327
assVj6quach
p3328
(dp3329
S'part3_correct_attempt'
p3330
(lp3331
S'0:28:50'
p3332
aV26^3 - 25^3
p3333
asS'part2_correct_attempt'
p3334
(lp3335
S'0:00:00'
p3336
aV25^3
p3337
asS'part1_correct_attempt'
p3338
(lp3339
S'0:00:00'
p3340
aV26^3
p3341
asg9
V2015-10-06 18:21:10
p3342
sS'part3_incorrect_attempt'
p3343
(lp3344
(S'0:00:00'
p3345
V26^2
p3346
tp3347
a(S'0:04:40'
p3348
V3*(26^2)
p3349
tp3350
assVgsrandha
p3351
(dp3352
S'part3_correct_attempt'
p3353
(lp3354
S'0:07:16'
p3355
aV(26*26*26*26*26*26)-(25*25*25*25*25*25)
p3356
asS'part2_correct_attempt'
p3357
(lp3358
S'0:00:12'
p3359
aV25*25*25*25*25*25
p3360
asS'part1_correct_attempt'
p3361
(lp3362
S'0:00:00'
p3363
ag219
asg9
V2015-10-02 02:09:07
p3364
sS'part3_incorrect_attempt'
p3365
(lp3366
(S'0:01:04'
p3367
V26*26*26*26*26*1
p3368
tp3369
a(S'0:01:27'
p3370
V1*26*26*26*26*26
p3371
tp3372
assVbmilton
p3373
(dp3374
S'part3_correct_attempt'
p3375
(lp3376
S'0:01:39'
p3377
aV26^3 - 25^3
p3378
asS'part2_correct_attempt'
p3379
(lp3380
S'0:00:14'
p3381
aV25^3
p3382
asS'part1_correct_attempt'
p3383
(lp3384
S'0:00:00'
p3385
aV26^3
p3386
asg9
V2015-10-04 01:49:46
p3387
sS'part3_incorrect_attempt'
p3388
(lp3389
(S'0:00:14'
p3390
V3*26^2
p3391
tp3392
assVc3chung
p3393
(dp3394
S'part3_correct_attempt'
p3395
(lp3396
S'18:07:17'
p3397
aV(26^5)-(25^5)
p3398
asS'part2_correct_attempt'
p3399
(lp3400
S'0:00:00'
p3401
aV25^5
p3402
asS'part1_correct_attempt'
p3403
(lp3404
S'0:00:00'
p3405
aV26^5
p3406
asg9
V2015-10-07 23:29:37
p3407
sS'part3_incorrect_attempt'
p3408
(lp3409
(S'0:00:00'
p3410
V26^4
p3411
tp3412
a(S'0:03:35'
p3413
V(25^4)5
p3414
tp3415
a(S'0:10:09'
p3416
V32(26^4)
p3417
tp3418
assVdcgriffi
p3419
(dp3420
S'part3_correct_attempt'
p3421
(lp3422
S'0:03:51'
p3423
aV(26^5)-(25^5)
p3424
asS'part2_correct_attempt'
p3425
(lp3426
S'0:00:00'
p3427
aV25^5
p3428
asS'part1_correct_attempt'
p3429
(lp3430
S'0:00:00'
p3431
aV26^5
p3432
asg9
V2015-10-08 06:38:28
p3433
sS'part3_incorrect_attempt'
p3434
(lp3435
(S'0:00:00'
p3436
V26^4
p3437
tp3438
a(S'0:02:21'
p3439
V26^4
p3440
tp3441
a(S'0:02:59'
p3442
V5*(26^4)
p3443
tp3444
a(S'0:03:05'
p3445
V4*(26^4)
p3446
tp3447
assVrsmurlo
p3448
(dp3449
S'part3_correct_attempt'
p3450
(lp3451
S'0:05:37'
p3452
aV(26^4)-(25^4)
p3453
asS'part2_correct_attempt'
p3454
(lp3455
S'0:00:00'
p3456
aV25^4
p3457
asS'part1_correct_attempt'
p3458
(lp3459
S'0:00:00'
p3460
aV26^4
p3461
asg9
V2015-10-08 02:30:19
p3462
sS'part3_incorrect_attempt'
p3463
(lp3464
(S'0:00:00'
p3465
V4*26^3
p3466
tp3467
a(S'0:03:24'
p3468
V(2*(4*25^3))*(6*25^2)+1
p3469
tp3470
a(S'0:04:08'
p3471
V(4*25^3)*(6*25^2)*(4*25)+1
p3472
tp3473
assVdkostins
p3474
(dp3475
S'part3_correct_attempt'
p3476
(lp3477
S'0:16:28'
p3478
aV(26^6)-(25^6)
p3479
asS'part2_correct_attempt'
p3480
(lp3481
S'0:01:00'
p3482
aV25^6
p3483
asS'part1_correct_attempt'
p3484
(lp3485
S'0:00:00'
p3486
ag276
asg9
V2015-10-06 01:53:38
p3487
sS'part3_incorrect_attempt'
p3488
(lp3489
(S'0:01:39'
p3490
V26^5
p3491
tp3492
a(S'0:01:49'
p3493
V25^5
p3494
tp3495
a(S'0:06:19'
p3496
V5(26^5)
p3497
tp3498
a(S'0:06:29'
p3499
V6(26^5)
p3500
tp3501
a(S'0:13:11'
p3502
V6(26^6)
p3503
tp3504
a(S'0:13:23'
p3505
V26^6
p3506
tp3507
assVpnquach
p3508
(dp3509
S'part3_correct_attempt'
p3510
(lp3511
S'0:02:15'
p3512
aV26^4 - 25^4
p3513
asS'part2_correct_attempt'
p3514
(lp3515
S'0:00:00'
p3516
aV25^4
p3517
asS'part1_correct_attempt'
p3518
(lp3519
S'0:00:00'
p3520
aV26^4
p3521
asg9
V2015-10-08 06:37:02
p3522
sS'part3_incorrect_attempt'
p3523
(lp3524
(S'0:00:00'
p3525
V(26^3)*4 - 4
p3526
tp3527
a(S'0:00:30'
p3528
V(26^3)*4 - 1
p3529
tp3530
assVwcwhite
p3531
(dp3532
S'part2_correct_attempt'
p3533
(lp3534
S'0:00:44'
p3535
aV25^4
p3536
asS'part1_correct_attempt'
p3537
(lp3538
S'0:00:00'
p3539
ag528
asg9
V2015-10-08 19:09:49
p3540
sS'part3_incorrect_attempt'
p3541
(lp3542
(S'0:00:59'
p3543
V26^4
p3544
tp3545
a(S'0:01:09'
p3546
V26^3
p3547
tp3548
a(S'0:01:21'
p3549
V25^3
p3550
tp3551
a(S'0:07:07'
p3552
V4*26^4
p3553
tp3554
assVachinn
p3555
(dp3556
S'part3_correct_attempt'
p3557
(lp3558
S'0:19:23'
p3559
aV26^6-25^6
p3560
asS'part2_correct_attempt'
p3561
(lp3562
S'0:00:00'
p3563
aV25^6
p3564
asS'part1_correct_attempt'
p3565
(lp3566
S'0:00:00'
p3567
aV26^6
p3568
asg9
V2015-10-06 19:35:35
p3569
sS'part3_incorrect_attempt'
p3570
(lp3571
(S'0:00:00'
p3572
V26^5
p3573
tp3574
a(S'0:01:31'
p3575
V25^5
p3576
tp3577
assVkalang
p3578
(dp3579
S'part3_correct_attempt'
p3580
(lp3581
S'0:17:50'
p3582
aV26^6-25^6
p3583
asS'part2_correct_attempt'
p3584
(lp3585
S'0:00:09'
p3586
aV25^6
p3587
asS'part1_correct_attempt'
p3588
(lp3589
S'0:00:00'
p3590
ag369
asg9
V2015-10-05 22:50:05
p3591
sS'part3_incorrect_attempt'
p3592
(lp3593
(S'0:00:25'
p3594
V25^5
p3595
tp3596
a(S'0:00:32'
p3597
V25^6
p3598
tp3599
a(S'0:01:07'
p3600
V26^5
p3601
tp3602
a(S'0:13:29'
p3603
V6*26^5
p3604
tp3605
a(S'0:15:16'
p3606
V6*26^6
p3607
tp3608
a(S'0:16:42'
p3609
V26^5
p3610
tp3611
assVmsaguiar
p3612
(dp3613
S'part3_correct_attempt'
p3614
(lp3615
S'0:09:30'
p3616
aV26^3-25^3
p3617
asS'part2_correct_attempt'
p3618
(lp3619
S'0:00:00'
p3620
aV25^3
p3621
asS'part1_correct_attempt'
p3622
(lp3623
S'0:00:00'
p3624
aV26^3
p3625
asg9
V2015-10-06 04:32:43
p3626
sS'part3_incorrect_attempt'
p3627
(lp3628
(S'0:00:00'
p3629
V26*26
p3630
tp3631
a(S'0:00:27'
p3632
V3(26*26)
p3633
tp3634
a(S'0:05:20'
p3635
V3(1*26*26)
p3636
tp3637
a(S'0:06:37'
p3638
V1*26*26
p3639
tp3640
assVaalhaida
p3641
(dp3642
S'part3_correct_attempt'
p3643
(lp3644
S'0:19:05'
p3645
aV(26^6)-(25^6)
p3646
asS'part2_correct_attempt'
p3647
(lp3648
S'0:00:00'
p3649
aV25^6
p3650
asS'part1_correct_attempt'
p3651
(lp3652
S'0:00:00'
p3653
aV26^6
p3654
asg9
V2015-10-08 12:38:07
p3655
sS'part3_incorrect_attempt'
p3656
(lp3657
(S'0:00:00'
p3658
V6*(26^5)
p3659
tp3660
assVhah008
p3661
(dp3662
S'part3_correct_attempt'
p3663
(lp3664
S'12:33:31'
p3665
aV26^6- 25^6
p3666
asS'part2_correct_attempt'
p3667
(lp3668
S'-1 day, 16:30:46'
p3669
aV25^6
p3670
asS'part1_correct_attempt'
p3671
(lp3672
S'0:00:00'
p3673
aV26^6
p3674
asg9
V2015-10-08 07:10:44
p3675
sS'part3_incorrect_attempt'
p3676
(lp3677
(S'0:01:09'
p3678
V26^6
p3679
tp3680
a(S'0:14:21'
p3681
V26^5
p3682
tp3683
a(S'12:27:46'
p3684
V(26^4)
p3685
tp3686
a(S'12:28:32'
p3687
V25^4
p3688
tp3689
a(S'12:28:55'
p3690
V26^5
p3691
tp3692
assVajabasa
p3693
(dp3694
S'part3_correct_attempt'
p3695
(lp3696
S'0:02:55'
p3697
aV26^4-25^4
p3698
asS'part2_correct_attempt'
p3699
(lp3700
S'0:01:01'
p3701
aV25^4
p3702
asS'part1_correct_attempt'
p3703
(lp3704
S'0:00:00'
p3705
ag423
asg9
V2015-10-05 21:34:18
p3706
sS'part3_incorrect_attempt'
p3707
(lp3708
(S'0:01:13'
p3709
V26^3
p3710
tp3711
assVjnn015
p3712
(dp3713
S'part3_correct_attempt'
p3714
(lp3715
S'0:43:22'
p3716
aV6*25^5 + 6*5*25^4/2! + 6 * 5 * 4 * 25^3/3! + 6*5*4*3 *25^2/4! + 6* 5 * 4 * 3 *2*25/5! + 1
p3717
asS'part2_correct_attempt'
p3718
(lp3719
S'0:00:34'
p3720
aV25^6
p3721
asS'part1_correct_attempt'
p3722
(lp3723
S'0:00:00'
p3724
aV26^6
p3725
asg9
V2015-10-03 21:43:03
p3726
sS'part3_incorrect_attempt'
p3727
(lp3728
(S'0:18:59'
p3729
V1 + 6*25^5 + 6!/2! * 25^4 + 6!/3!*25^3 + 6!/4!*25^2 +6!/5! *25
p3730
tp3731
a(S'0:20:34'
p3732
V1 + 6!*25^5 + 6!/2! * 25^4 + 6!/3!*25^3 + 6!/4!*25^2 +6!/5! *25
p3733
tp3734
a(S'0:41:43'
p3735
V6*25^5 + 6*5*25^4 + 6 * 5 * 4 * 25^3 + 6*5*4*3 *25^2 + 6* 5 * 4 * 3 *2*25 + 1
p3736
tp3737
assVdpereira
p3738
(dp3739
S'part3_correct_attempt'
p3740
(lp3741
S'0:12:55'
p3742
aV26^4 - 25^4
p3743
asS'part2_correct_attempt'
p3744
(lp3745
S'0:00:00'
p3746
aV25^4
p3747
asS'part1_correct_attempt'
p3748
(lp3749
S'0:00:00'
p3750
ag501
asg9
V2015-10-03 21:16:31
p3751
sS'part3_incorrect_attempt'
p3752
(lp3753
(S'0:00:00'
p3754
V26^3
p3755
tp3756
a(S'0:02:08'
p3757
V25*26*26*26*4
p3758
tp3759
assVhmshah
p3760
(dp3761
S'part3_correct_attempt'
p3762
(lp3763
S'2 days, 19:57:22'
p3764
aV(26*26*26*26)-(25*25*25*25)
p3765
asS'part2_correct_attempt'
p3766
(lp3767
S'0:00:32'
p3768
aV25*25*25*25
p3769
asS'part1_correct_attempt'
p3770
(lp3771
S'0:00:00'
p3772
aV26*26*26*26
p3773
asg9
V2015-10-06 02:10:55
p3774
sS'part3_incorrect_attempt'
p3775
(lp3776
(S'0:00:32'
p3777
V26*26*26
p3778
tp3779
a(S'0:00:47'
p3780
V26*26*26*4
p3781
tp3782
a(S'0:13:02'
p3783
V26*26*26
p3784
tp3785
assVhaliew
p3786
(dp3787
S'part3_correct_attempt'
p3788
(lp3789
S'0:12:51'
p3790
aV26^5-25^5
p3791
asS'part2_correct_attempt'
p3792
(lp3793
S'0:00:00'
p3794
aV25^5
p3795
asS'part1_correct_attempt'
p3796
(lp3797
S'0:00:00'
p3798
aV26^5
p3799
asg9
V2015-10-06 05:07:20
p3800
sS'part3_incorrect_attempt'
p3801
(lp3802
(S'0:00:00'
p3803
V26^5
p3804
tp3805
a(S'0:11:40'
p3806
V25^5 +((26^5/2))
p3807
tp3808
a(S'0:11:57'
p3809
V25^5 +((26^5/26))
p3810
tp3811
assVmtrafeca
p3812
(dp3813
S'part3_correct_attempt'
p3814
(lp3815
S'12:11:57'
p3816
aV(26^5)-25^5
p3817
asS'part2_correct_attempt'
p3818
(lp3819
S'0:26:12'
p3820
aV25^5
p3821
asS'part1_correct_attempt'
p3822
(lp3823
S'0:00:00'
p3824
ag654
asg9
V2015-10-02 06:16:49
p3825
sS'part3_incorrect_attempt'
p3826
(lp3827
(S'0:27:13'
p3828
V4!
p3829
tp3830
assVkquong
p3831
(dp3832
S'part3_correct_attempt'
p3833
(lp3834
S'0:10:34'
p3835
aV26^6-25^6
p3836
asS'part2_correct_attempt'
p3837
(lp3838
S'0:00:17'
p3839
aV25^6
p3840
asS'part1_correct_attempt'
p3841
(lp3842
S'0:00:00'
p3843
ag33
asg9
V2015-10-03 21:30:30
p3844
sS'part3_incorrect_attempt'
p3845
(lp3846
(S'0:00:36'
p3847
V26^5*26
p3848
tp3849
a(S'0:00:46'
p3850
V25^5*26
p3851
tp3852
assVvasharma
p3853
(dp3854
S'part3_correct_attempt'
p3855
(lp3856
S'0:05:44'
p3857
aV26*26*26*26-25*25*25*25
p3858
asS'part2_correct_attempt'
p3859
(lp3860
S'0:00:15'
p3861
aV25*25*25*25
p3862
asS'part1_correct_attempt'
p3863
(lp3864
S'0:00:00'
p3865
ag582
asg9
V2015-10-05 06:45:09
p3866
sS'part3_incorrect_attempt'
p3867
(lp3868
(S'0:00:55'
p3869
V4*24*24*24*24
p3870
tp3871
a(S'0:01:08'
p3872
V4*1*24*24*24
p3873
tp3874
a(S'0:01:28'
p3875
V(24*24*24)(24*24*24)(24*24*24)(24*24*24)
p3876
tp3877
a(S'0:03:55'
p3878
V4*(26*26*26)
p3879
tp3880
assVhpc001
p3881
(dp3882
S'part3_correct_attempt'
p3883
(lp3884
S'0:04:19'
p3885
aV26^6 - 25^6
p3886
asS'part2_correct_attempt'
p3887
(lp3888
S'0:00:00'
p3889
aV25^6
p3890
asS'part1_correct_attempt'
p3891
(lp3892
S'0:00:00'
p3893
aV26^6
p3894
asg9
V2015-10-03 00:18:57
p3895
sS'part3_incorrect_attempt'
p3896
(lp3897
(S'0:00:00'
p3898
V26^5
p3899
tp3900
a(S'0:03:00'
p3901
V26^6
p3902
tp3903
assVsyip
p3904
(dp3905
S'part3_correct_attempt'
p3906
(lp3907
S'0:03:56'
p3908
aV26^3 - 25^3
p3909
asS'part2_correct_attempt'
p3910
(lp3911
S'0:00:00'
p3912
aV25^3
p3913
asS'part1_correct_attempt'
p3914
(lp3915
S'0:00:00'
p3916
aV26^3
p3917
asg9
V2015-10-03 20:18:50
p3918
sS'part3_incorrect_attempt'
p3919
(lp3920
(S'0:00:00'
p3921
V3*26^2
p3922
tp3923
a(S'0:01:24'
p3924
V3*26^2 - 3
p3925
tp3926
assVxweng
p3927
(dp3928
S'part3_correct_attempt'
p3929
(lp3930
S'0:02:02'
p3931
aV26^4-25^4
p3932
asS'part2_correct_attempt'
p3933
(lp3934
S'0:00:20'
p3935
aV25^4
p3936
asS'part1_correct_attempt'
p3937
(lp3938
S'0:00:00'
p3939
aV26^4
p3940
asg9
V2015-10-07 07:05:23
p3941
sS'part3_incorrect_attempt'
p3942
(lp3943
(S'0:01:03'
p3944
V3*26^3
p3945
tp3946
assVyypan
p3947
(dp3948
S'part3_correct_attempt'
p3949
(lp3950
S'0:12:28'
p3951
aV26^5-25^5
p3952
asS'part2_correct_attempt'
p3953
(lp3954
S'0:00:30'
p3955
aV25^5
p3956
asS'part1_correct_attempt'
p3957
(lp3958
S'0:00:00'
p3959
aV26^5
p3960
asg9
V2015-10-02 05:04:37
p3961
sS'part3_incorrect_attempt'
p3962
(lp3963
(S'0:04:02'
p3964
V25*26
p3965
tp3966
a(S'0:04:25'
p3967
V25*26^4
p3968
tp3969
a(S'0:06:06'
p3970
V5*25*26^4
p3971
tp3972
assVajvanega
p3973
(dp3974
S'part3_correct_attempt'
p3975
(lp3976
S'3:03:23'
p3977
aV(26^6)-(25^6)
p3978
asS'part2_correct_attempt'
p3979
(lp3980
S'0:09:06'
p3981
aV25^6
p3982
asS'part1_correct_attempt'
p3983
(lp3984
S'0:00:00'
p3985
ag615
asg9
V2015-10-07 23:43:09
p3986
sS'part3_incorrect_attempt'
p3987
(lp3988
(S'0:10:06'
p3989
V25^6
p3990
tp3991
a(S'0:10:18'
p3992
V27^6
p3993
tp3994
a(S'0:10:59'
p3995
V25^5
p3996
tp3997
a(S'0:11:09'
p3998
V26^5
p3999
tp4000
a(S'0:17:23'
p4001
V(25^5)26
p4002
tp4003
a(S'0:18:44'
p4004
V26^5
p4005
tp4006
a(S'0:20:02'
p4007
V25^5
p4008
tp4009
assVjmiclat
p4010
(dp4011
S'part3_correct_attempt'
p4012
(lp4013
S'12:04:30'
p4014
aV26^5-25^5
p4015
asS'part2_correct_attempt'
p4016
(lp4017
S'0:00:00'
p4018
aV25^5
p4019
asS'part1_correct_attempt'
p4020
(lp4021
S'0:00:00'
p4022
aV26^5
p4023
asg9
V2015-10-08 09:01:23
p4024
sS'part3_incorrect_attempt'
p4025
(lp4026
(S'0:01:07'
p4027
V26*25*25*25*25*25
p4028
tp4029
a(S'0:01:15'
p4030
V26*25*25*25*25
p4031
tp4032
a(S'11:08:40'
p4033
V5*26^4
p4034
tp4035
a(S'11:20:52'
p4036
V5*26*25*24*23
p4037
tp4038
a(S'11:25:05'
p4039
V5(26^4)
p4040
tp4041
assVsthapa
p4042
(dp4043
S'part3_correct_attempt'
p4044
(lp4045
S'0:03:58'
p4046
aV26^5 - 25^5
p4047
asS'part2_correct_attempt'
p4048
(lp4049
S'0:00:20'
p4050
aV25^5
p4051
asS'part1_correct_attempt'
p4052
(lp4053
S'0:00:00'
p4054
aV26^5
p4055
asg9
V2015-10-06 06:54:40
p4056
sS'part3_incorrect_attempt'
p4057
(lp4058
(S'0:01:12'
p4059
V25^5 + 1
p4060
tp4061
assVkosung
p4062
(dp4063
S'part3_correct_attempt'
p4064
(lp4065
S'0:05:44'
p4066
aV26^5 - 25^5
p4067
asS'part2_correct_attempt'
p4068
(lp4069
S'0:00:37'
p4070
aV25^5
p4071
asS'part1_correct_attempt'
p4072
(lp4073
S'0:00:00'
p4074
ag600
asg9
V2015-10-07 06:25:51
p4075
sS'part3_incorrect_attempt'
p4076
(lp4077
(S'0:00:37'
p4078
V26^4
p4079
tp4080
assVj2phung
p4081
(dp4082
S'part3_correct_attempt'
p4083
(lp4084
S'0:28:25'
p4085
aV26^6-25^6
p4086
asS'part2_correct_attempt'
p4087
(lp4088
S'0:02:37'
p4089
aV25^6
p4090
asS'part1_correct_attempt'
p4091
(lp4092
S'0:00:00'
p4093
aV26^6
p4094
asg9
V2015-10-06 19:16:32
p4095
sS'part3_incorrect_attempt'
p4096
(lp4097
(S'0:02:37'
p4098
V26^5
p4099
tp4100
a(S'0:15:59'
p4101
V(26^5)+(26^4)+(26^3)+(26^2)+(26^1)+(26^0)
p4102
tp4103
a(S'0:23:39'
p4104
V25^5 + 25^4 +25^3 + 25^2 + 25^1 + 21^0
p4105
tp4106
asssV2
p4107
(dp4108
Va8ho
p4109
(dp4110
S'part2_correct_attempt'
p4111
(lp4112
S'0:00:00'
p4113
ag1405
asg9
g1409
sS'part2_incorrect_attempt'
p4114
(lp4115
(S'-1 day, 23:59:43'
p4116
V3^25
p4117
tp4118
assVstarinia
p4119
(dp4120
S'part2_correct_attempt'
p4121
(lp4122
S'0:02:54'
p4123
aV25^4
p4124
asg9
V2015-10-07 01:45:03
p4125
sS'part2_incorrect_attempt'
p4126
(lp4127
(S'0:00:00'
p4128
V26^4 - 4!
p4129
tp4130
assVccn001
p4131
(dp4132
S'part2_correct_attempt'
p4133
(lp4134
S'0:00:00'
p4135
ag1456
asg9
g1460
sS'part2_incorrect_attempt'
p4136
(lp4137
(S'-1 day, 23:56:17'
p4138
V25!/(5!(20!))
p4139
tp4140
assVvsamant
p4141
(dp4142
S'part2_correct_attempt'
p4143
(lp4144
S'0:00:00'
p4145
aV25^5
p4146
asg9
V2015-10-02 17:19:34
p4147
sS'part2_incorrect_attempt'
p4148
(lp4149
(S'-1 day, 23:59:15'
p4150
V25!/((5!)(20!))
p4151
tp4152
assVabjara
p4153
(dp4154
S'part2_correct_attempt'
p4155
(lp4156
S'0:00:00'
p4157
aV25^5
p4158
asg9
V2015-10-05 23:05:30
p4159
sS'part2_incorrect_attempt'
p4160
(lp4161
(S'-1 day, 23:59:19'
p4162
V5^25
p4163
tp4164
assVsachadal
p4165
(dp4166
S'part2_correct_attempt'
p4167
(lp4168
S'0:00:21'
p4169
ag2437
asg9
g2441
sS'part2_incorrect_attempt'
p4170
(lp4171
(S'-1 day, 23:57:36'
p4172
V25!/(25-4)!
p4173
tp4174
assVawollner
p4175
(dp4176
S'part2_correct_attempt'
p4177
(lp4178
S'0:00:00'
p4179
ag2459
asg9
g2463
sS'part2_incorrect_attempt'
p4180
(lp4181
(S'-1 day, 23:57:18'
p4182
V25!/19!
p4183
tp4184
assVvsosnovs
p4185
(dp4186
S'part2_correct_attempt'
p4187
(lp4188
S'0:00:20'
p4189
ag3237
asg9
g3241
sS'part2_incorrect_attempt'
p4190
(lp4191
(S'0:00:12'
p4192
V26^5
p4193
tp4194
assValhung
p4195
(dp4196
S'part2_correct_attempt'
p4197
(lp4198
S'0:00:00'
p4199
ag1659
asg9
g1663
sS'part2_incorrect_attempt'
p4200
(lp4201
(S'-1 day, 23:59:09'
p4202
V25!/21!
p4203
tp4204
a(S'-1 day, 23:59:40'
p4205
V4^25
p4206
tp4207
assVksmurlo
p4208
(dp4209
S'part2_correct_attempt'
p4210
(lp4211
S'0:00:33'
p4212
aV25*25*25*25*25
p4213
asg9
V2015-10-07 00:42:02
p4214
sS'part2_incorrect_attempt'
p4215
(lp4216
(S'-2 days, 21:28:44'
p4217
V25*25*25
p4218
tp4219
assVjyc018
p4220
(dp4221
S'part2_correct_attempt'
p4222
(lp4223
S'0:03:35'
p4224
aV25**4
p4225
asg9
V2015-10-05 16:10:20
p4226
sS'part2_incorrect_attempt'
p4227
(lp4228
(S'0:00:00'
p4229
V3*26**3
p4230
tp4231
a(S'0:02:26'
p4232
V25*3*26**3
p4233
tp4234
a(S'0:02:48'
p4235
V25*3*25**3
p4236
tp4237
a(S'0:03:08'
p4238
V25*4*25**3
p4239
tp4240
assVjblynch
p4241
(dp4242
S'part2_correct_attempt'
p4243
(lp4244
S'0:00:00'
p4245
ag2642
asg9
g2646
sS'part2_incorrect_attempt'
p4246
(lp4247
(S'-1 day, 23:56:50'
p4248
V25!/20!
p4249
tp4250
assVrlhagen
p4251
(dp4252
S'part2_correct_attempt'
p4253
(lp4254
S'0:00:00'
p4255
ag1004
asg9
g1008
sS'part2_incorrect_attempt'
p4256
(lp4257
(S'-1 day, 23:58:58'
p4258
V25!/(4!(25-4)!)
p4259
tp4260
a(S'-1 day, 23:59:10'
p4261
V25!/((25-4)!)
p4262
tp4263
assVsyc078
p4264
(dp4265
S'part2_correct_attempt'
p4266
(lp4267
S'0:00:14'
p4268
aV25^6
p4269
asg9
V2015-10-08 23:21:03
p4270
sS'part2_incorrect_attempt'
p4271
(lp4272
(S'-1 day, 20:14:32'
p4273
V25*24*23*22*21*20
p4274
tp4275
assVdis003
p4276
(dp4277
S'part2_correct_attempt'
p4278
(lp4279
S'0:00:00'
p4280
ag1730
asg9
g1734
sS'part2_incorrect_attempt'
p4281
(lp4282
(S'-1 day, 23:59:19'
p4283
V5^25
p4284
tp4285
assVkalang
p4286
(dp4287
S'part2_correct_attempt'
p4288
(lp4289
S'0:00:09'
p4290
ag3587
asg9
g3591
sS'part2_incorrect_attempt'
p4291
(lp4292
(S'-1 day, 23:58:53'
p4293
V25!/19!
p4294
tp4295
assVhachrist
p4296
(dp4297
S'part2_correct_attempt'
p4298
(lp4299
S'0:00:07'
p4300
aV25^6
p4301
asg9
V2015-10-04 22:52:57
p4302
sS'part2_incorrect_attempt'
p4303
(lp4304
(S'-1 day, 23:51:31'
p4305
V25!/(19! 6!)
p4306
tp4307
assVkew017
p4308
(dp4309
S'part2_correct_attempt'
p4310
(lp4311
S'0:00:41'
p4312
aV25^5
p4313
asg9
V2015-10-04 20:16:52
p4314
sS'part2_incorrect_attempt'
p4315
(lp4316
(S'0:00:00'
p4317
V26^4
p4318
tp4319
a(S'0:00:17'
p4320
V2*26^4
p4321
tp4322
assVtcuddy
p4323
(dp4324
S'part2_correct_attempt'
p4325
(lp4326
S'0:00:00'
p4327
ag1115
asg9
g1119
sS'part2_incorrect_attempt'
p4328
(lp4329
(S'-1 day, 23:59:31'
p4330
V25*25*25
p4331
tp4332
assVctroncos
p4333
(dp4334
S'part2_correct_attempt'
p4335
(lp4336
S'0:02:16'
p4337
ag982
asg9
g986
sS'part2_incorrect_attempt'
p4338
(lp4339
(S'-1 day, 23:58:46'
p4340
V26^2*25
p4341
tp4342
a(S'0:00:07'
p4343
V26^2*25*3!
p4344
tp4345
assVdpereira
p4346
(dp4347
S'part2_correct_attempt'
p4348
(lp4349
S'0:00:00'
p4350
ag3747
asg9
g3751
sS'part2_incorrect_attempt'
p4351
(lp4352
(S'-1 day, 23:59:28'
p4353
V25! / 21!
p4354
tp4355
assVmitopete
p4356
(dp4357
S'part2_correct_attempt'
p4358
(lp4359
S'0:02:53'
p4360
aV25^3
p4361
asg9
V2015-10-06 04:38:09
p4362
sS'part2_incorrect_attempt'
p4363
(lp4364
(S'0:00:42'
p4365
V26^3-(2600)
p4366
tp4367
a(S'0:01:53'
p4368
V26^3-25^3
p4369
tp4370
assVr2fisher
p4371
(dp4372
S'part2_correct_attempt'
p4373
(lp4374
S'0:00:00'
p4375
aV25^3
p4376
asg9
V2015-10-05 20:47:10
p4377
sS'part2_incorrect_attempt'
p4378
(lp4379
(S'-1 day, 19:50:41'
p4380
V3^25
p4381
tp4382
assVaportuga
p4383
(dp4384
S'part2_correct_attempt'
p4385
(lp4386
S'0:00:22'
p4387
aV25^5
p4388
asg9
V2015-10-06 06:35:15
p4389
sS'part2_incorrect_attempt'
p4390
(lp4391
(S'-1 day, 23:23:33'
p4392
V25!/(25-5)!
p4393
tp4394
assVajvanega
p4395
(dp4396
S'part2_correct_attempt'
p4397
(lp4398
S'0:09:06'
p4399
ag3982
asg9
g3986
sS'part2_incorrect_attempt'
p4400
(lp4401
(S'0:08:55'
p4402
V(26^1)*(25^6)
p4403
tp4404
assVzig006
p4405
(dp4406
S'part2_correct_attempt'
p4407
(lp4408
S'0:00:27'
p4409
aV25^4
p4410
asg9
V2015-10-06 00:43:44
p4411
sS'part2_incorrect_attempt'
p4412
(lp4413
(S'0:00:00'
p4414
V26^4-4*26^3
p4415
tp4416
assVralhadda
p4417
(dp4418
S'part2_correct_attempt'
p4419
(lp4420
S'0:00:35'
p4421
ag2876
asg9
g2880
sS'part2_incorrect_attempt'
p4422
(lp4423
(S'0:00:13'
p4424
V26*25*24
p4425
tp4426
assVmtrafeca
p4427
(dp4428
S'part2_correct_attempt'
p4429
(lp4430
S'0:26:12'
p4431
ag3821
asg9
g3825
sS'part2_incorrect_attempt'
p4432
(lp4433
(S'0:25:59'
p4434
V4!
p4435
tp4436
assVkosung
p4437
(dp4438
S'part2_correct_attempt'
p4439
(lp4440
S'0:00:37'
p4441
ag4071
asg9
g4075
sS'part2_incorrect_attempt'
p4442
(lp4443
(S'-1 day, 23:59:32'
p4444
V25!/20!
p4445
tp4446
asss.