(dp0
V1
p1
(dp2
Vdmn009
p3
(dp4
S'part1_correct_attempt'
p5
(lp6
S'0:00:26'
p7
aV260
p8
asS'first_attempt'
p9
V2015-10-08 09:23:27
p10
sS'part1_incorrect_attempt'
p11
(lp12
(S'0:00:00'
p13
V9*27
p14
tp15
a(S'0:00:13'
p16
V9*25
p17
tp18
assVdlgoldbe
p19
(dp20
S'part1_correct_attempt'
p21
(lp22
S'0:07:03'
p23
aV10*26
p24
asg9
V2015-10-08 04:32:40
p25
sS'part1_incorrect_attempt'
p26
(lp27
(S'0:00:00'
p28
V(9*26)/2
p29
tp30
a(S'0:04:32'
p31
V(9!*26!)/2
p32
tp33
assVjag028
p34
(dp35
S'part1_correct_attempt'
p36
(lp37
S'0:00:25'
p38
aV10*26
p39
asg9
V2015-10-05 05:41:04
p40
sS'part1_incorrect_attempt'
p41
(lp42
(S'0:00:00'
p43
V9!*26!
p44
tp45
assVctroncos
p46
(dp47
S'part1_correct_attempt'
p48
(lp49
S'0:00:35'
p50
aV10*26
p51
asg9
V2015-10-07 21:26:11
p52
sS'part1_incorrect_attempt'
p53
(lp54
(S'0:00:00'
p55
V9*27
p56
tp57
assVkvass
p58
(dp59
S'part1_correct_attempt'
p60
(lp61
S'0:01:53'
p62
aV10*26
p63
asg9
V2015-10-04 20:44:25
p64
sS'part1_incorrect_attempt'
p65
(lp66
(S'0:00:00'
p67
V9*24
p68
tp69
assVnisharma
p70
(dp71
S'part1_correct_attempt'
p72
(lp73
S'0:00:38'
p74
aV26*10
p75
asg9
V2015-10-04 22:42:36
p76
sS'part1_incorrect_attempt'
p77
(lp78
(S'0:00:00'
p79
V26*9
p80
tp81
assVjguanzho
p82
(dp83
S'part1_correct_attempt'
p84
(lp85
S'0:01:14'
p86
aV10*26
p87
asg9
V2015-10-02 07:47:07
p88
sS'part1_incorrect_attempt'
p89
(lp90
(S'0:00:00'
p91
V9!*26!
p92
tp93
assVvsosnovs
p94
(dp95
S'part1_correct_attempt'
p96
(lp97
S'0:01:04'
p98
aV(10)(26)
p99
asg9
V2015-10-04 17:12:46
p100
sS'part1_incorrect_attempt'
p101
(lp102
(S'0:00:00'
p103
V(10!)(26!)
p104
tp105
a(S'0:00:20'
p106
V(10!)(26!)/(36)
p107
tp108
assVlalacson
p109
(dp110
S'part1_correct_attempt'
p111
(lp112
S'12:31:44'
p113
aV10*26
p114
asg9
V2015-10-03 02:40:41
p115
sS'part1_incorrect_attempt'
p116
(lp117
(S'0:00:00'
p118
V9!*26!
p119
tp120
assVkalang
p121
(dp122
S'part1_correct_attempt'
p123
(lp124
S'0:00:59'
p125
aV10*26
p126
asg9
V2015-10-05 22:25:41
p127
sS'part1_incorrect_attempt'
p128
(lp129
(S'0:00:00'
p130
V10*26/2
p131
tp132
assVssamudra
p133
(dp134
S'part1_correct_attempt'
p135
(lp136
S'0:00:21'
p137
aV10 * 26
p138
asg9
V2015-10-08 07:33:03
p139
sS'part1_incorrect_attempt'
p140
(lp141
(S'0:00:00'
p142
V26 * 9
p143
tp144
assVjhw015
p145
(dp146
S'part1_correct_attempt'
p147
(lp148
S'0:00:36'
p149
aV10*26
p150
asg9
V2015-10-04 02:22:45
p151
sS'part1_incorrect_attempt'
p152
(lp153
(S'0:00:00'
p154
V9! * 26!
p155
tp156
a(S'0:00:16'
p157
V10! * 26!
p158
tp159
assVajabasa
p160
(dp161
S'part1_correct_attempt'
p162
(lp163
S'0:00:09'
p164
aV10*26
p165
asg9
V2015-10-05 19:42:26
p166
sS'part1_incorrect_attempt'
p167
(lp168
(S'0:00:00'
p169
V10*10*26*26*10*10*10
p170
tp171
assVsayao
p172
(dp173
S'part1_correct_attempt'
p174
(lp175
S'0:46:17'
p176
aV(10)*(26)
p177
asg9
V2015-10-02 23:58:14
p178
sS'part1_incorrect_attempt'
p179
(lp180
(S'0:00:00'
p181
V26*9
p182
tp183
a(S'0:46:08'
p184
V(10!)*(26!)
p185
tp186
assVachava
p187
(dp188
S'part1_correct_attempt'
p189
(lp190
S'0:00:08'
p191
aV260
p192
asg9
V2015-10-02 04:28:37
p193
sS'part1_incorrect_attempt'
p194
(lp195
(S'0:00:00'
p196
V10!26!
p197
tp198
assVwcwhite
p199
(dp200
S'part1_correct_attempt'
p201
(lp202
S'0:04:24'
p203
aV10*26
p204
asg9
V2015-10-06 18:32:55
p205
sS'part1_incorrect_attempt'
p206
(lp207
(S'0:00:00'
p208
V10! * 26!
p209
tp210
a(S'0:00:11'
p211
V10! +26!
p212
tp213
a(S'0:02:58'
p214
V36!
p215
tp216
a(S'0:04:00'
p217
V36!*10
p218
tp219
assVmtrafeca
p220
(dp221
S'part1_correct_attempt'
p222
(lp223
S'0:36:29'
p224
aV10*26
p225
asg9
V2015-10-02 03:32:10
p226
sS'part1_incorrect_attempt'
p227
(lp228
(S'0:00:00'
p229
V10!*26!
p230
tp231
assVarc013
p232
(dp233
S'part1_correct_attempt'
p234
(lp235
S'0:00:55'
p236
aV10*26
p237
asg9
V2015-10-04 21:50:37
p238
sS'part1_incorrect_attempt'
p239
(lp240
(S'0:00:00'
p241
V10!26!
p242
tp243
assVralhadda
p244
(dp245
S'part1_correct_attempt'
p246
(lp247
S'0:09:16'
p248
aV260
p249
asg9
V2015-10-08 16:43:55
p250
sS'part1_incorrect_attempt'
p251
(lp252
(S'0:00:00'
p253
V1*10^26
p254
tp255
a(S'0:01:08'
p256
V26^10
p257
tp258
assVbkoli
p259
(dp260
S'part1_correct_attempt'
p261
(lp262
S'0:01:51'
p263
aV10*26
p264
asg9
V2015-10-08 06:36:09
p265
sS'part1_incorrect_attempt'
p266
(lp267
(S'0:00:00'
p268
V10!*26!
p269
tp270
assVyypan
p271
(dp272
S'part1_correct_attempt'
p273
(lp274
S'0:00:27'
p275
aV10*26
p276
asg9
V2015-10-02 04:41:41
p277
sS'part1_incorrect_attempt'
p278
(lp279
(S'0:00:00'
p280
V9*24
p281
tp282
assVajvanega
p283
(dp284
S'part1_correct_attempt'
p285
(lp286
S'0:01:31'
p287
aV26*10
p288
asg9
V2015-10-02 17:59:00
p289
sS'part1_incorrect_attempt'
p290
(lp291
(S'0:00:00'
p292
V26^10
p293
tp294
assVsthapa
p295
(dp296
S'part1_correct_attempt'
p297
(lp298
S'0:03:32'
p299
aV260
p300
asg9
V2015-10-06 06:11:02
p301
sS'part1_incorrect_attempt'
p302
(lp303
(S'0:00:00'
p304
V9*15
p305
tp306
a(S'0:01:45'
p307
V(26!/(9!*15!))
p308
tp309
assVkgrozav
p310
(dp311
S'part1_correct_attempt'
p312
(lp313
S'0:00:52'
p314
aV10*26
p315
asg9
V2015-10-02 20:56:22
p316
sS'part1_incorrect_attempt'
p317
(lp318
(S'0:00:00'
p319
V9^2
p320
tp321
asssV2
p322
(dp323
Vagoldsht
p324
(dp325
S'part2_correct_attempt'
p326
(lp327
S'0:03:07'
p328
aV100*26*26*100*10
p329
asS'part1_correct_attempt'
p330
(lp331
S'0:00:00'
p332
aV260
p333
asg9
V2015-10-06 22:36:56
p334
sS'part2_incorrect_attempt'
p335
(lp336
(S'0:00:00'
p337
V20*26*26*30
p338
tp339
assVctroncos
p340
(dp341
S'part2_correct_attempt'
p342
(lp343
S'0:01:39'
p344
aV10*10*26*26*26*10*10
p345
asS'part1_correct_attempt'
p346
(lp347
S'0:00:00'
p348
ag51
asg9
V2015-10-07 21:26:46
p349
sS'part2_incorrect_attempt'
p350
(lp351
(S'0:00:37'
p352
V10*9*26*10
p353
tp354
assVdkurli
p355
(dp356
S'part2_correct_attempt'
p357
(lp358
S'0:00:20'
p359
aV26^3*10^4
p360
asS'part1_correct_attempt'
p361
(lp362
S'0:00:00'
p363
aV10*26
p364
asg9
V2015-10-07 17:32:49
p365
sS'part2_incorrect_attempt'
p366
(lp367
(S'0:00:00'
p368
V26^3*10^5
p369
tp370
assVvsamant
p371
(dp372
S'part2_correct_attempt'
p373
(lp374
S'1 day, 22:32:57'
p375
aV(10^4)*(26^3)
p376
asS'part1_correct_attempt'
p377
(lp378
S'0:00:00'
p379
aV26*10
p380
asg9
V2015-10-02 04:12:16
p381
sS'part2_incorrect_attempt'
p382
(lp383
(S'0:00:00'
p384
V9*2+3*26+2*9
p385
tp386
a(S'0:02:00'
p387
V9*2*3*26*2*9
p388
tp389
a(S'0:03:37'
p390
V9*8*26*25*24*9*8
p391
tp392
a(S'0:04:18'
p393
V9*9*26*26*26*9*9
p394
tp395
a(S'0:07:31'
p396
V(9^4)*(26^3)
p397
tp398
assVjguanzho
p399
(dp400
S'part2_correct_attempt'
p401
(lp402
S'0:00:11'
p403
aV(10**4)*(26**3)
p404
asS'part1_correct_attempt'
p405
(lp406
S'0:00:00'
p407
ag87
asg9
V2015-10-02 07:48:21
p408
sS'part2_incorrect_attempt'
p409
(lp410
(S'0:00:00'
p411
V(9**4)*(26**3)
p412
tp413
assVspw006
p414
(dp415
S'part2_correct_attempt'
p416
(lp417
S'0:00:10'
p418
aV10^5*26^2
p419
asS'part1_correct_attempt'
p420
(lp421
S'0:00:00'
p422
aV260
p423
asg9
V2015-10-04 01:15:42
p424
sS'part2_incorrect_attempt'
p425
(lp426
(S'0:00:00'
p427
V10^5*2^26
p428
tp429
assVany027
p430
(dp431
S'part2_correct_attempt'
p432
(lp433
S'0:02:24'
p434
aV10 * 10 * 26 * 26 * 10 * 10 * 10
p435
asS'part1_correct_attempt'
p436
(lp437
S'0:00:00'
p438
aV260
p439
asg9
V2015-10-03 10:26:37
p440
sS'part2_incorrect_attempt'
p441
(lp442
(S'0:00:37'
p443
V10 + 10 + 26 + 26 + 10 + 10 + 10
p444
tp445
assVjdeon
p446
(dp447
S'part2_correct_attempt'
p448
(lp449
S'0:01:45'
p450
aV10*10*26*26*1000
p451
asS'part1_correct_attempt'
p452
(lp453
S'0:00:00'
p454
aV260
p455
asg9
V2015-10-03 19:34:19
p456
sS'part2_incorrect_attempt'
p457
(lp458
(S'0:01:15'
p459
V10*26*10
p460
tp461
assVjfalcone
p462
(dp463
S'part2_correct_attempt'
p464
(lp465
S'0:00:32'
p466
aV10 * 10 * 26 * 26 * 10 * 10 *10
p467
asS'part1_correct_attempt'
p468
(lp469
S'0:00:00'
p470
aV10 * 26
p471
asg9
V2015-10-07 03:08:28
p472
sS'part2_incorrect_attempt'
p473
(lp474
(S'0:00:00'
p475
V10 * 26 * 10 * 10 *10
p476
tp477
a(S'0:00:15'
p478
V10 * 10 * 26 * 10 * 10 *10
p479
tp480
assVjmiclat
p481
(dp482
S'part2_correct_attempt'
p483
(lp484
S'0:00:23'
p485
aV10*10*26*26*10*10*10
p486
asS'part1_correct_attempt'
p487
(lp488
S'0:00:00'
p489
aV260
p490
asg9
V2015-10-07 23:29:55
p491
sS'part2_incorrect_attempt'
p492
(lp493
(S'0:00:00'
p494
V26*26*26*10*10*10
p495
tp496
assVc2qiu
p497
(dp498
S'part2_correct_attempt'
p499
(lp500
S'0:00:38'
p501
aV100*1000*26*26
p502
asS'part1_correct_attempt'
p503
(lp504
S'0:00:00'
p505
aV260
p506
asg9
V2015-10-06 15:23:09
p507
sS'part2_incorrect_attempt'
p508
(lp509
(S'0:00:00'
p510
V(10!/8!)*(26!/24!)*(10!/7!)
p511
tp512
assVjnatale
p513
(dp514
S'part2_correct_attempt'
p515
(lp516
S'0:01:51'
p517
aV10*10*26*26*26*10*10
p518
asS'part1_correct_attempt'
p519
(lp520
S'0:00:00'
p521
aV10*26
p522
asg9
V2015-10-08 00:06:33
p523
sS'part2_incorrect_attempt'
p524
(lp525
(S'0:00:36'
p526
V2*3*2
p527
tp528
assVganajera
p529
(dp530
S'part2_correct_attempt'
p531
(lp532
S'0:00:13'
p533
aV10*10*10*10*26*26*26
p534
asS'part1_correct_attempt'
p535
(lp536
S'0:00:00'
p537
aV10*26
p538
asg9
V2015-10-03 17:54:44
p539
sS'part2_incorrect_attempt'
p540
(lp541
(S'0:00:00'
p542
V10*10*10*10*26*26*26*26
p543
tp544
assVajvanega
p545
(dp546
S'part2_correct_attempt'
p547
(lp548
S'0:06:21'
p549
aV10*10*26*26*1000
p550
asS'part1_correct_attempt'
p551
(lp552
S'0:00:00'
p553
ag288
asg9
V2015-10-02 18:00:31
p554
sS'part2_incorrect_attempt'
p555
(lp556
(S'0:05:40'
p557
V10*26*10
p558
tp559
assVskodigal
p560
(dp561
S'part2_correct_attempt'
p562
(lp563
S'0:00:19'
p564
aV26^3 * 10^4
p565
asS'part1_correct_attempt'
p566
(lp567
S'0:00:00'
p568
aV260
p569
asg9
V2015-10-07 05:15:25
p570
sS'part2_incorrect_attempt'
p571
(lp572
(S'0:00:00'
p573
V26^3 * 10^3
p574
tp575
assVhachrist
p576
(dp577
S'part2_correct_attempt'
p578
(lp579
S'2 days, 1:57:17'
p580
aV175760000
p581
asS'part1_correct_attempt'
p582
(lp583
S'0:00:00'
p584
aV260
p585
asg9
V2015-10-02 19:41:28
p586
sS'part2_incorrect_attempt'
p587
(lp588
(S'0:00:43'
p589
V26*26*10*10*10*10
p590
tp591
assVkew017
p592
(dp593
S'part2_correct_attempt'
p594
(lp595
S'0:02:21'
p596
aV10^2*26^3*10^2
p597
asS'part1_correct_attempt'
p598
(lp599
S'0:00:00'
p600
aV10*26
p601
asg9
V2015-10-04 19:18:54
p602
sS'part2_incorrect_attempt'
p603
(lp604
(S'0:00:00'
p605
V2*3*2*6
p606
tp607
a(S'0:00:48'
p608
V10^2*26^3*10^2*3!
p609
tp610
assVv4zhang
p611
(dp612
S'part2_correct_attempt'
p613
(lp614
S'1:11:23'
p615
aV(26^3) * (10^4)
p616
asS'part1_correct_attempt'
p617
(lp618
S'0:00:00'
p619
aV260
p620
asg9
V2015-10-08 07:34:53
p621
sS'part2_incorrect_attempt'
p622
(lp623
(S'0:03:15'
p624
V9*9*26*26*26*9*9
p625
tp626
a(S'0:58:47'
p627
V2600+126
p628
tp629
assVyeh013
p630
(dp631
S'part2_correct_attempt'
p632
(lp633
S'0:03:39'
p634
aV175760000
p635
asS'part1_correct_attempt'
p636
(lp637
S'0:00:00'
p638
aV260
p639
asg9
V2015-10-08 08:15:01
p640
sS'part2_incorrect_attempt'
p641
(lp642
(S'0:00:00'
p643
V(26!*8100)/3!
p644
tp645
assVjtfrankl
p646
(dp647
S'part2_correct_attempt'
p648
(lp649
S'0:04:24'
p650
aV10*10*26*26*10*10*10
p651
asS'part1_correct_attempt'
p652
(lp653
S'0:00:00'
p654
aV10*26
p655
asg9
V2015-10-07 23:30:31
p656
sS'part2_incorrect_attempt'
p657
(lp658
(S'0:03:00'
p659
V2*10*2*26*3*10
p660
tp661
assVkmc012
p662
(dp663
S'part2_correct_attempt'
p664
(lp665
S'0:00:49'
p666
aV100*26*26*26*100
p667
asS'part1_correct_attempt'
p668
(lp669
S'0:00:00'
p670
aV260
p671
asg9
V2015-10-05 05:58:18
p672
sS'part2_incorrect_attempt'
p673
(lp674
(S'0:00:00'
p675
V2!3!2!
p676
tp677
assVdando
p678
(dp679
S'part2_correct_attempt'
p680
(lp681
S'0:01:22'
p682
aV10 * 10 * 26 * 26 * 10 * 10 * 10
p683
asS'part1_correct_attempt'
p684
(lp685
S'0:00:00'
p686
aV10 * 26
p687
asg9
V2015-10-04 19:48:18
p688
sS'part2_incorrect_attempt'
p689
(lp690
(S'0:00:00'
p691
V10 * 9 * 26 * 25 * 8 * 7 * 6
p692
tp693
assVbakang
p694
(dp695
S'part2_correct_attempt'
p696
(lp697
S'0:01:22'
p698
aV(10^5)*(26^2)
p699
asS'part1_correct_attempt'
p700
(lp701
S'0:00:00'
p702
aV10*26
p703
asg9
V2015-10-08 02:47:31
p704
sS'part2_incorrect_attempt'
p705
(lp706
(S'0:00:00'
p707
V3*10*2*26
p708
tp709
a(S'0:00:26'
p710
V5*10*2*26
p711
tp712
assVacs008
p713
(dp714
S'part2_correct_attempt'
p715
(lp716
S'0:37:20'
p717
aV10*10*26*10*26*10*10
p718
asS'part1_correct_attempt'
p719
(lp720
S'0:00:00'
p721
aV260
p722
asg9
V2015-10-02 23:23:43
p723
sS'part2_incorrect_attempt'
p724
(lp725
(S'0:37:03'
p726
V10*10*26*10*26
p727
tp728
assVasp025
p729
(dp730
S'part2_correct_attempt'
p731
(lp732
S'0:03:02'
p733
aV(10^5)*(26^2)
p734
asS'part1_correct_attempt'
p735
(lp736
S'0:00:00'
p737
aV10*26
p738
asg9
V2015-10-08 15:47:31
p739
sS'part2_incorrect_attempt'
p740
(lp741
(S'0:02:48'
p742
V(10^5)*(10^2)
p743
tp744
assVssamudra
p745
(dp746
S'part2_correct_attempt'
p747
(lp748
S'0:09:02'
p749
aV10*26*10*10*10*10*26
p750
asS'part1_correct_attempt'
p751
(lp752
S'0:00:00'
p753
ag138
asg9
V2015-10-08 07:33:24
p754
sS'part2_incorrect_attempt'
p755
(lp756
(S'0:00:13'
p757
V10 * 26 * 10 * 10 * 10* 10
p758
tp759
a(S'0:03:13'
p760
V10 * 26 * 10 * 10 * 10* 10 * 3
p761
tp762
a(S'0:08:37'
p763
V10*26*9*10*9*8
p764
tp765
assVwcwhite
p766
(dp767
S'part2_correct_attempt'
p768
(lp769
S'0:06:47'
p770
aV10*10*26*26*26*10*10
p771
asS'part1_correct_attempt'
p772
(lp773
S'0:00:00'
p774
ag204
asg9
V2015-10-06 18:37:19
p775
sS'part2_incorrect_attempt'
p776
(lp777
(S'0:04:39'
p778
V2!*3!*2!
p779
tp780
a(S'0:05:35'
p781
V2*10+3*26+2*10
p782
tp783
a(S'0:05:44'
p784
V2*10*3*26*2*10
p785
tp786
assVcsl030
p787
(dp788
S'part2_correct_attempt'
p789
(lp790
S'0:00:30'
p791
aV10^2 * 26 ^ 3 * 10^2
p792
asS'part1_correct_attempt'
p793
(lp794
S'0:00:00'
p795
aV10 * 26
p796
asg9
V2015-10-04 21:28:35
p797
sS'part2_incorrect_attempt'
p798
(lp799
(S'0:00:00'
p800
V10^4 * 26 ^ 2
p801
tp802
assVralhadda
p803
(dp804
S'part1_correct_attempt'
p805
(lp806
S'0:00:00'
p807
ag249
asg9
V2015-10-08 16:53:11
p808
sS'part2_incorrect_attempt'
p809
(lp810
(S'0:05:25'
p811
V 126360000
p812
tp813
a(S'0:06:36'
p814
V 32760000
p815
tp816
a(S'0:07:03'
p817
V 78624000
p818
tp819
a(S'0:07:35'
p820
V 1010880000
p821
tp822
a(S'0:10:46'
p823
V 49400000
p824
tp825
a(S'0:11:35'
p826
V 46124000
p827
tp828
assVdcastlem
p829
(dp830
S'part2_correct_attempt'
p831
(lp832
S'4 days, 5:45:31'
p833
aV10^2*26^3*10^2
p834
asS'part1_correct_attempt'
p835
(lp836
S'0:00:00'
p837
aV260
p838
asg9
V2015-10-03 21:08:39
p839
sS'part2_incorrect_attempt'
p840
(lp841
(S'0:08:14'
p842
V20*26*10
p843
tp844
a(S'4 days, 5:45:08'
p845
V10^2*26*3*10
p846
tp847
assVv3doan
p848
(dp849
S'part2_correct_attempt'
p850
(lp851
S'0:00:10'
p852
aV10 * 10 * 26 * 26 * 26 * 10 * 10
p853
asS'part1_correct_attempt'
p854
(lp855
S'0:00:00'
p856
aV26 * 10
p857
asg9
V2015-10-03 23:56:31
p858
sS'part2_incorrect_attempt'
p859
(lp860
(S'0:00:00'
p861
V10 * 10 * 26 * 26 * 10 * 10
p862
tp863
assVm8woo
p864
(dp865
S'part2_correct_attempt'
p866
(lp867
S'0:00:08'
p868
aV10000*26^3
p869
asS'part1_correct_attempt'
p870
(lp871
S'0:00:00'
p872
aV260
p873
asg9
V2015-10-08 20:34:18
p874
sS'part2_incorrect_attempt'
p875
(lp876
(S'0:00:00'
p877
V1000*26^3
p878
tp879
assVsthapa
p880
(dp881
S'part2_correct_attempt'
p882
(lp883
S'0:12:25'
p884
aV26^3*10^4
p885
asS'part1_correct_attempt'
p886
(lp887
S'0:00:00'
p888
ag300
asg9
V2015-10-06 06:14:34
p889
sS'part2_incorrect_attempt'
p890
(lp891
(S'0:04:06'
p892
V2*3*2*2
p893
tp894
a(S'0:04:27'
p895
V2*(10)*3*2*26*2*10
p896
tp897
assVcprafull
p898
(dp899
S'part2_correct_attempt'
p900
(lp901
S'0:01:09'
p902
aV10*10*26*26*26*10*10
p903
asS'part1_correct_attempt'
p904
(lp905
S'0:00:00'
p906
aV10*26
p907
asg9
V2015-10-06 19:05:34
p908
sS'part2_incorrect_attempt'
p909
(lp910
(S'0:00:56'
p911
V10*10*25*25*25*10*10
p912
tp913
asss.