(dp0
V1
p1
ccollections
defaultdict
p2
(c__builtin__
list
p3
tp4
Rp5
S'Digits'
p6
(lp7
(V3*2
p8
V110
p9
tp10
a(V3*2
p11
V9
p12
tp13
a(V3*2
p14
V5
p15
tp16
a(V3*2
p17
V19
p18
tp19
a(g17
V9
p20
tp21
a(V3*2
p22
V12
p23
tp24
a(V3*2
p25
V8
p26
tp27
a(V3*2
p28
V9
p29
tp30
a(V3*2
p31
V8
p32
tp33
a(V3*2
p34
V15
p35
tp36
a(V3*2
p37
V20
p38
tp39
a(V3*2
p40
V8
p41
tp42
a(V3*2
p43
V9
p44
tp45
a(V3*2
p46
V8
p47
tp48
a(V3*2
p49
V8
p50
tp51
a(V3*2
p52
V140
p53
tp54
a(V3*2
p55
V8
p56
tp57
a(V3*2
p58
V8
p59
tp60
a(V3*2
p61
V8
p62
tp63
a(V3*2
p64
V5
p65
tp66
a(V3*2
p67
V9
p68
tp69
a(V3*2
p70
V8
p71
tp72
a(V3*2
p73
V9
p74
tp75
a(V3*2
p76
V12
p77
tp78
asS"['R.1']"
p79
(lp80
(V3*2
p81
V3!*2!
p82
(lp83
(S'R.1'
p84
F2.0
V2
p85
V2!
p86
tp87
atp88
a(g22
V3!2!
p89
(lp90
(S'R.1'
p91
F2.0
g85
V2!
p92
tp93
atp94
a(V3*2
p95
V3!*2!
p96
(lp97
(S'R.1'
p98
F2.0
g85
V2!
p99
tp100
atp101
a(V3*2
p102
V3!2!
p103
(lp104
(S'R.1'
p105
F2.0
g85
V2!
p106
tp107
atp108
asS"['R']"
p109
(lp110
(V3*2
p111
VC(3,1)*C(2,1)
p112
(lp113
(S'R'
p114
F6.0
g111
g112
tp115
atp116
asS'Fraction'
p117
(lp118
(g14
V1/6
p119
tp120
asS"['R.0']"
p121
(lp122
(V3*2
p123
V3*3
p124
(lp125
(S'R.0'
p126
F3.0
V3
p127
g127
tp128
atp129
assV2
p130
g2
(g3
tp131
Rp132
g6
(lp133
(V13*2*3
p134
V39
p135
tp136
a(V14*2*4
p137
V96
p138
tp139
a(V13*2*2
p140
V60
p141
tp142
a(V11*2*4
p143
V44
p144
tp145
a(V12*2*3
p146
V73
p147
tp148
a(V11*2*4
p149
V8
p150
tp151
a(g149
V44
p152
tp153
a(V13*2*4
p154
V16
p155
tp156
a(g154
V52
p157
tp158
a(V11*2*2
p159
V22
p160
tp161
a(V13*2*2
p162
V338
p163
tp164
a(V12*2*4
p165
V192
p166
tp167
a(g165
V48
p168
tp169
a(V14*2*5
p170
V120
p171
tp172
a(V10*2*3
p173
V50
p174
tp175
a(V11*2*3
p176
V1294920
p177
tp178
a(g176
V26235
p179
tp180
a(g176
V88
p181
tp182
a(g176
V72
p183
tp184
a(V12*2*2
p185
V24
p186
tp187
a(V12*2*2
p188
V24
p189
tp190
a(V14*2*4
p191
V84
p192
tp193
a(V10*2*5
p194
V500
p195
tp196
a(g194
V200
p197
tp198
a(V11*2*2
p199
V22
p200
tp201
a(V13*2*3
p202
V58
p203
tp204
a(V10*2*5
p205
V50
p206
tp207
a(V10*2*3
p208
V30
p209
tp210
a(V13*2*2
p211
V26
p212
tp213
a(V13*2*2
p214
V26
p215
tp216
a(V14*2*3
p217
V56
p218
tp219
a(V12*2*2
p220
V24
p221
tp222
a(V14*2*3
p223
V96
p224
tp225
a(V14*2*2
p226
V48
p227
tp228
asS"['R.1']"
p229
(lp230
(V11*2*4
p231
V11*4
p232
(lp233
(S'R.1'
p234
F4.0
V4
p235
g235
tp236
atp237
ass.