(dp0
V1
p1
ccollections
defaultdict
p2
(c__builtin__
list
p3
tp4
Rp5
S'Digits'
p6
(lp7
(V12
p8
V7
p9
tp10
a(V18
p11
V8
p12
tp13
a(V11
p14
V1
p15
tp16
a(V10
p17
V5
p18
tp19
a(V20
p20
V7
p21
tp22
a(g20
V1
p23
tp24
a(V13
p25
V7
p26
tp27
a(V10
p28
V7
p29
tp30
a(g28
V1,2,3,4,5,6,7
p31
tp32
a(V18
p33
V2
p34
tp35
a(V13
p36
V7
p37
tp38
a(V15
p39
V1,2,3,4,5,6,7,8,9,10
p40
tp41
a(g39
V10
p42
tp43
a(V17
p44
V7
p45
tp46
a(V10
p47
V7
p48
tp49
a(V10
p50
V9
p51
tp52
a(V19
p53
V9
p54
tp55
a(V18
p56
V12
p57
tp58
a(V19
p59
V11
p60
tp61
a(V19
p62
V6
p63
tp64
a(V10
p65
V6
p66
tp67
a(V10
p68
V7
p69
tp70
a(V11
p71
V6
p72
tp73
a(V11
p74
V5
p75
tp76
a(g74
V1
p77
tp78
a(V10
p79
V5
p80
tp81
a(g79
V1,2,3,4,5
p82
tp83
a(g79
V5
p84
tp85
a(g79
V4
p86
tp87
a(g79
V6
p88
tp89
a(g79
V5
p90
tp91
a(V19
p92
V12
p93
tp94
a(V14
p95
V1,2,3,4,5,6,7,8
p96
tp97
a(V14
p98
V12
p99
tp100
a(g98
V2
p101
tp102
a(g98
V11
p103
tp104
a(V14
p105
V10
p106
tp107
a(V18
p108
V17
p109
tp110
a(g108
V17
p111
tp112
a(g108
V1
p113
tp114
a(V16
p115
V9
p116
tp117
a(g115
V9
p118
tp119
a(g115
V1,2,3,4,5,6,7,8,9
p120
tp121
a(V12
p122
V9
p123
tp124
a(V16
p125
V10
p126
tp127
a(V13
p128
V11
p129
tp130
a(g128
V10
p131
tp132
a(V19
p133
V14
p134
tp135
a(V18
p136
V16
p137
tp138
a(V18
p139
V15
p140
tp141
a(V10
p142
V7
p143
tp144
a(V12
p145
V8
p146
tp147
a(g145
V1,2,3,4,5,6,7,8
p148
tp149
a(V20
p150
V15
p151
tp152
a(V15
p153
V11
p154
tp155
a(V20
p156
V11
p157
tp158
a(V12
p159
V10
p160
tp161
a(V11
p162
V5
p163
tp164
a(g162
V1,2,3,4,5
p165
tp166
a(V20
p167
V16
p168
tp169
a(V18
p170
V15
p171
tp172
a(V14
p173
V11
p174
tp175
a(V16
p176
V9
p177
tp178
a(g176
V1
p179
tp180
a(V11
p181
V5
p182
tp183
a(g181
V1,2,3,4,5
p184
tp185
a(g181
V5
p186
tp187
a(g181
V1
p188
tp189
a(V20
p190
V10
p191
tp192
a(V19
p193
V5
p194
tp195
a(V14
p196
V3
p197
tp198
a(g196
V12
p199
tp200
a(V11
p201
V1,2,3,4,5,6,7,8,9
p202
tp203
a(g201
V9
p204
tp205
a(V13
p206
V9
p207
tp208
a(V14
p209
V13
p210
tp211
a(V18
p212
V10
p213
tp214
a(V19
p215
V14
p216
tp217
a(V10
p218
V1,2,3,4,5,6,7,8,9,10
p219
tp220
a(g218
V1,2,3,4,5,6,7,8
p221
tp222
a(g218
V8
p223
tp224
a(V11
p225
V1,2,3,4,5,6,7,8,9,10,11
p226
tp227
a(V17
p228
V9
p229
tp230
a(V15
p231
V12
p232
tp233
a(V16
p234
V1
p235
tp236
a(V12
p237
V1
p238
tp239
a(V18
p240
V7
p241
tp242
a(g240
V6
p243
tp244
a(V11
p245
V7
p246
tp247
a(V10
p248
V8
p249
tp250
a(g248
V7
p251
tp252
a(V16
p253
V1,2,3,4,5,6,7,8,9,10,11,12,13
p254
tp255
a(g253
V13
p256
tp257
a(V20
p258
V17
p259
tp260
a(g258
V1
p261
tp262
a(V16
p263
V9
p264
tp265
asS'Fraction'
p266
(lp267
(V19
p268
V5/19
p269
tp270
a(g20
V.35
p271
tp272
a(g28
V7/10
p273
tp274
a(V19
p275
V7/19
p276
tp277
a(V19
p278
V17/19
p279
tp280
a(g98
V12/14
p281
tp282
a(g98
V6/7
p283
tp284
a(g115
V(9)/(16)
p285
tp286
a(g115
V9/16
p287
tp288
a(g115
V1/9
p289
tp290
a(g115
V9/16
p291
tp292
a(V12
p293
V9/12
p294
tp295
a(g209
V13/14
p296
tp297
a(g212
V1/18
p298
tp299
a(g215
V14/19
p300
tp301
a(g240
V7/18
p302
tp303
a(g248
V8/10
p304
tp305
a(V16
p306
V12/16
p307
tp308
assV3
p309
g2
(g3
tp310
Rp311
S"['R.1']"
p312
(lp313
(V5/12
p314
V7/12
p315
(lp316
(S'R.1'
p317
F12.0
V12
p318
V12
p319
tp320
atp321
a(V5/14
p322
V1/14
p323
(lp324
(S'R.1'
p325
F14.0
V14
p326
V14
p327
tp328
atp329
a(V7/20
p330
V6/20
p331
(lp332
(S'R.1'
p333
F20.0
V20
p334
V20
p335
tp336
atp337
a(V10/20
p338
V1/20
p339
(lp340
(S'R.1'
p341
F20.0
V20
p342
V20
p343
tp344
atp345
a(V5/15
p346
V1/15
p347
(lp348
(S'R.1'
p349
F15.0
V15
p350
V15
p351
tp352
atp353
a(V7/17
p354
V1/17
p355
(lp356
(S'R.1'
p357
F17.0
V17
p358
V17
p359
tp360
atp361
a(V6/18
p362
V1/18
p363
(lp364
(S'R.1'
p365
F18.0
V18
p366
V18
p367
tp368
atp369
a(V8/17
p370
V1/17
p371
(lp372
(S'R.1'
p373
F17.0
V17
p374
V17
p375
tp376
atp377
a(V11/12
p378
V1/12
p379
(lp380
(S'R.1'
p381
F12.0
V12
p382
V12
p383
tp384
atp385
a(V9/12
p386
V1/12
p387
(lp388
(S'R.1'
p389
F12.0
V12
p390
V12
p391
tp392
atp393
a(V12/13
p394
V1/13
p395
(lp396
(S'R.1'
p397
F13.0
V13
p398
V13
p399
tp400
atp401
a(V14/19
p402
V1/19
p403
(lp404
(S'R.1'
p405
F19.0
V19
p406
V19
p407
tp408
atp409
a(V14/20
p410
V1/20
p411
(lp412
(S'R.1'
p413
F20.0
V20
p414
V20
p415
tp416
atp417
a(V12/14
p418
V3/14
p419
(lp420
(S'R.1'
p421
F14.0
V14
p422
V14
p423
tp424
atp425
a(V10/12
p426
V1/12
p427
(lp428
(S'R.1'
p429
F12.0
V12
p430
V12
p431
tp432
atp433
a(V18/20
p434
V1/20
p435
(lp436
(S'R.1'
p437
F20.0
V20
p438
V20
p439
tp440
atp441
a(V8/16
p442
V7/16
p443
(lp444
(S'R.1'
p445
F16.0
V16
p446
V16
p447
tp448
atp449
asg6
(lp450
(V10/10
p451
V10
p452
tp453
a(g386
V1
p454
tp455
a(V17/20
p456
V17
p457
tp458
asg266
(lp459
(V15/15
p460
V1/15
p461
tp462
a(V13/13
p463
V1/13
p464
tp465
a(g451
V1/10
p466
tp467
a(g451
V10/(10+9+8+7+6+5+4+3+2+1)
p468
tp469
a(V19/19
p470
V18/19
p471
tp472
asS'redirect'
p473
(lp474
(V11/12
p475
V1/11
p476
tp477
a(V13/14
p478
V6/7
p479
tp480
a(V9/12
p481
V2/3
p482
tp483
a(V16/18
p484
V1/16
p485
tp486
a(V12/14
p487
V3/6
p488
tp489
a(V8/18
p490
V1/2
p491
tp492
a(g402
V1/14
p493
tp494
a(V11/13
p495
V1/10
p496
tp497
a(V8/10
p498
V(1*10)^8
p499
tp500
assV2
p501
g2
(g3
tp502
Rp503
g6
(lp504
(V6
p505
V16
p506
tp507
a(g505
V15
p508
tp509
a(V5
p510
V12
p511
tp512
a(V8
p513
V18
p514
tp515
a(V5
p516
V14
p517
tp518
a(V7
p519
V6
p520
tp521
a(V10
p522
V20
p523
tp524
a(V5
p525
V15
p526
tp527
a(V7
p528
V10
p529
tp530
a(g528
V1,2,3,4,5,6,7,8,9,10
p531
tp532
a(V16
p533
V18
p534
tp535
a(g533
V3
p536
tp537
a(V11
p538
V1
p539
tp540
a(V7
p541
V17
p542
tp543
a(V7
p544
V10
p545
tp546
a(V8
p547
V13
p548
tp549
a(V7
p550
V17
p551
tp552
a(V11
p553
V19
p554
tp555
a(V11
p556
V12
p557
tp558
a(V6
p559
V19
p560
tp561
a(V6
p562
V17
p563
tp564
a(V6
p565
V19
p566
tp567
a(V7
p568
V10
p569
tp570
a(V8
p571
V17
p572
tp573
a(V12
p574
V19
p575
tp576
a(V12
p577
V14
p578
tp579
a(g577
V1
p580
tp581
a(g577
V14
p582
tp583
a(V13
p584
V12
p585
tp586
a(V7
p587
V20
p588
tp589
a(V10
p590
V16
p591
tp592
a(V12
p593
V14
p594
tp595
a(V16
p596
V17
p597
tp598
a(V11
p599
V12
p600
tp601
a(V10
p602
V1
p603
tp604
a(V15
p605
V18
p606
tp607
a(V16
p608
V19
p609
tp610
a(V12
p611
V37
p612
tp613
a(V15
p614
V20
p615
tp616
a(V9
p617
V12
p618
tp619
a(g617
V1
p620
tp621
a(V12
p622
V13
p623
tp624
a(V12
p625
V6
p626
tp627
a(g625
V14
p628
tp629
a(V15
p630
V17
p631
tp632
a(V7
p633
V20
p634
tp635
a(V11
p636
V20
p637
tp638
a(V8
p639
V18
p640
tp641
a(g639
V5
p642
tp643
a(g639
V9
p644
tp645
a(V14
p646
V20
p647
tp648
a(V17
p649
V20
p650
tp651
a(V8
p652
V10
p653
tp654
a(V12
p655
V14
p656
tp657
a(V8
p658
V15
p659
tp660
a(V9
p661
V13
p662
tp663
a(V10
p664
V12
p665
tp666
a(V7
p667
V11
p668
tp669
a(V12
p670
V15
p671
tp672
a(V18
p673
V20
p674
tp675
a(V11
p676
V10
p677
tp678
a(V5
p679
V16
p680
tp681
a(g679
V16
p682
tp683
a(V8
p684
V7
p685
tp686
a(V8
p687
V10
p688
tp689
asg266
(lp690
(g550
V1/17
p691
tp692
a(V9
p693
V9/19
p694
tp695
a(g617
V1/12
p696
tp697
a(g630
V1/17
p698
tp699
a(g679
V1/16
p700
tp701
ass.