(dp0
V1
p1
(dp2
sV2
p3
(dp4
Vwcwhite
p5
(dp6
S'part2_correct_attempt'
p7
(lp8
S'0:00:00'
p9
aV4/52
p10
asS'first_attempt'
p11
V2015-10-06 19:06:09
p12
sS'part2_incorrect_attempt'
p13
(lp14
(S'-1 day, 23:59:25'
p15
V16/52
p16
tp17
assVstarinia
p18
(dp19
S'part2_correct_attempt'
p20
(lp21
S'0:00:07'
p22
aV4/52
p23
asg11
V2015-10-06 23:37:06
p24
sS'part2_incorrect_attempt'
p25
(lp26
(S'0:00:00'
p27
V1/52
p28
tp29
assVj5phung
p30
(dp31
S'part2_correct_attempt'
p32
(lp33
S'0:00:17'
p34
aV4/52
p35
asg11
V2015-10-02 17:00:59
p36
sS'part2_incorrect_attempt'
p37
(lp38
(S'0:00:00'
p39
V1/52
p40
tp41
assVkew017
p42
(dp43
S'part2_correct_attempt'
p44
(lp45
S'0:00:00'
p46
aV4/52
p47
asg11
V2015-10-04 19:39:12
p48
sS'part2_incorrect_attempt'
p49
(lp50
(S'-1 day, 23:58:07'
p51
V1/52
p52
tp53
assVmitopete
p54
(dp55
S'part2_correct_attempt'
p56
(lp57
S'0:00:09'
p58
aV4/52
p59
asg11
V2015-10-06 04:12:40
p60
sS'part2_incorrect_attempt'
p61
(lp62
(S'0:00:00'
p63
V0.076
p64
tp65
assVjic212
p66
(dp67
S'part2_correct_attempt'
p68
(lp69
S'0:00:10'
p70
aV4/52
p71
asg11
V2015-10-08 04:46:58
p72
sS'part2_incorrect_attempt'
p73
(lp74
(S'0:00:00'
p75
V1/52
p76
tp77
assVtcn013
p78
(dp79
S'part2_correct_attempt'
p80
(lp81
S'0:00:00'
p82
aV4/52
p83
asg11
V2015-10-06 00:55:54
p84
sS'part2_incorrect_attempt'
p85
(lp86
(S'-1 day, 23:59:50'
p87
V13/52
p88
tp89
assVjnatale
p90
(dp91
S'part2_correct_attempt'
p92
(lp93
S'0:00:11'
p94
aV4/52
p95
asg11
V2015-10-08 00:12:35
p96
sS'part2_incorrect_attempt'
p97
(lp98
(S'0:00:00'
p99
V52/4
p100
tp101
assVhpc001
p102
(dp103
S'part2_correct_attempt'
p104
(lp105
S'0:00:00'
p106
aV4/52
p107
asg11
V2015-10-02 23:55:02
p108
sS'part2_incorrect_attempt'
p109
(lp110
(S'-1 day, 23:59:45'
p111
V13/52
p112
tp113
assVtcuddy
p114
(dp115
S'part2_correct_attempt'
p116
(lp117
S'0:00:15'
p118
aV4/52
p119
asg11
V2015-10-02 20:03:39
p120
sS'part2_incorrect_attempt'
p121
(lp122
(S'0:00:00'
p123
V5/52
p124
tp125
assVyypan
p126
(dp127
S'part2_correct_attempt'
p128
(lp129
S'0:00:10'
p130
aV4/52
p131
asg11
V2015-10-02 04:49:53
p132
sS'part2_incorrect_attempt'
p133
(lp134
(S'-1 day, 23:59:31'
p135
V16/52
p136
tp137
assVxil109
p138
(dp139
S'part2_correct_attempt'
p140
(lp141
S'0:00:04'
p142
aV4/52
p143
asg11
V2015-10-03 20:06:10
p144
sS'part2_incorrect_attempt'
p145
(lp146
(S'0:00:00'
p147
V5/52
p148
tp149
assVralhadda
p150
(dp151
S'part2_correct_attempt'
p152
(lp153
S'0:00:00'
p154
aV4/52
p155
asg11
V2015-10-08 17:19:42
p156
sS'part2_incorrect_attempt'
p157
(lp158
(S'-1 day, 23:58:31'
p159
V13/52
p160
tp161
assVmcatozzi
p162
(dp163
S'part2_correct_attempt'
p164
(lp165
S'0:00:00'
p166
aV4/52
p167
asg11
V2015-10-06 23:14:07
p168
sS'part2_incorrect_attempt'
p169
(lp170
(S'-1 day, 23:59:02'
p171
V16/52
p172
tp173
assVjjm019
p174
(dp175
S'part2_correct_attempt'
p176
(lp177
S'0:00:12'
p178
aV4/52
p179
asg11
V2015-10-08 01:41:59
p180
sS'part2_incorrect_attempt'
p181
(lp182
(S'0:00:00'
p183
V1/52
p184
tp185
assVzhw110
p186
(dp187
S'part2_correct_attempt'
p188
(lp189
S'0:00:27'
p190
aV4/52
p191
asg11
V2015-10-08 04:14:36
p192
sS'part2_incorrect_attempt'
p193
(lp194
(S'0:00:00'
p195
V4!/52/51/50/49
p196
tp197
assVetemlock
p198
(dp199
S'part2_correct_attempt'
p200
(lp201
S'0:00:07'
p202
aV4/52
p203
asg11
V2015-10-02 17:38:17
p204
sS'part2_incorrect_attempt'
p205
(lp206
(S'0:00:00'
p207
V4/24
p208
tp209
assVanvan
p210
(dp211
S'part2_correct_attempt'
p212
(lp213
S'0:00:06'
p214
aV4/52
p215
asg11
V2015-10-03 07:43:12
p216
sS'part2_incorrect_attempt'
p217
(lp218
(S'0:00:00'
p219
V1/12
p220
tp221
assVj2phung
p222
(dp223
S'part2_correct_attempt'
p224
(lp225
S'0:00:08'
p226
aV4/52
p227
asg11
V2015-10-06 18:39:01
p228
sS'part2_incorrect_attempt'
p229
(lp230
(S'0:00:00'
p231
V4/54
p232
tp233
asss.