(dp0
V1
p1
ccollections
defaultdict
p2
(c__builtin__
list
p3
tp4
Rp5
S'Digits'
p6
(lp7
(V4
p8
V16
p9
tp10
a(V4
p11
V134
p12
tp13
a(V4
p14
V13
p15
tp16
a(V4
p17
V16
p18
tp19
a(V4
p20
V1
p21
tp22
a(V4
p23
V13
p24
tp25
a(V4
p26
V1
p27
tp28
a(V4
p29
V16
p30
tp31
a(V4
p32
V16
p33
tp34
a(V4
p35
V13
p36
tp37
asS'Fraction'
p38
(lp39
(V4
p40
V4/52
p41
tp42
a(V4
p43
V4/52
p44
tp45
assV2
p46
g2
(g3
tp47
Rp48
s.