(dp0
V1
p1
(dp2
Va8ho
p3
(dp4
S'part1_correct_attempt'
p5
(lp6
S'0:02:48'
p7
aV10
p8
asS'first_attempt'
p9
V2015-10-07 03:51:13
p10
sS'part1_incorrect_attempt'
p11
(lp12
(S'0:00:00'
p13
V2^5
p14
tp15
a(S'0:00:17'
p16
V5*4
p17
tp18
a(S'0:01:30'
p19
V52*51*50*49*48*47*46
p20
tp21
a(S'0:01:39'
p22
V52*51*50*49*48*47
p23
tp24
assVdlgoldbe
p25
(dp26
S'part1_correct_attempt'
p27
(lp28
S'0:00:31'
p29
aV(5*4)/2
p30
asg9
V2015-10-08 04:41:12
p31
sS'part1_incorrect_attempt'
p32
(lp33
(S'0:00:00'
p34
V5*4
p35
tp36
assVstarinia
p37
(dp38
S'part1_correct_attempt'
p39
(lp40
S'0:00:36'
p41
aV5!/(2!(5-2)!)
p42
asg9
V2015-10-06 23:34:57
p43
sS'part1_incorrect_attempt'
p44
(lp45
(S'0:00:00'
p46
V5*4
p47
tp48
assVjfalcone
p49
(dp50
S'part1_correct_attempt'
p51
(lp52
S'0:03:26'
p53
aV(5 * 4)/2
p54
asg9
V2015-10-07 03:10:11
p55
sS'part1_incorrect_attempt'
p56
(lp57
(S'0:00:00'
p58
V5 * 4
p59
tp60
assVccn001
p61
(dp62
S'part1_correct_attempt'
p63
(lp64
S'1:10:48'
p65
aV(5!)/((5-2)!2!)
p66
asg9
V2015-10-06 05:43:27
p67
sS'part1_incorrect_attempt'
p68
(lp69
(S'0:00:00'
p70
V5*4
p71
tp72
assVh4tu
p73
(dp74
S'part1_correct_attempt'
p75
(lp76
S'0:01:55'
p77
aV5*4/2
p78
asg9
V2015-10-08 18:45:14
p79
sS'part1_incorrect_attempt'
p80
(lp81
(S'0:00:00'
p82
V5*5
p83
tp84
a(S'0:00:00'
p85
V5*4
p86
tp87
assVkebao
p88
(dp89
S'part1_correct_attempt'
p90
(lp91
S'0:01:35'
p92
aV10
p93
asg9
V2015-10-03 17:42:59
p94
sS'part1_incorrect_attempt'
p95
(lp96
(S'0:00:00'
p97
V5 * 5
p98
tp99
assVnisharma
p100
(dp101
S'part1_correct_attempt'
p102
(lp103
S'2:52:10'
p104
aV(5!)/(2!*3!)
p105
asg9
V2015-10-04 23:37:25
p106
sS'part1_incorrect_attempt'
p107
(lp108
(S'0:00:00'
p109
V5*4
p110
tp111
assVglcohen
p112
(dp113
S'part1_correct_attempt'
p114
(lp115
S'0:19:08'
p116
aV(5!)/((3!)(2!))
p117
asg9
V2015-10-04 22:27:31
p118
sS'part1_incorrect_attempt'
p119
(lp120
(S'0:00:00'
p121
V5*4
p122
tp123
assVachava
p124
(dp125
S'part1_correct_attempt'
p126
(lp127
S'0:25:14'
p128
aV5!/((2!)*(3!))
p129
asg9
V2015-10-02 04:30:27
p130
sS'part1_incorrect_attempt'
p131
(lp132
(S'0:00:00'
p133
V5!
p134
tp135
assVewbrenna
p136
(dp137
S'part1_correct_attempt'
p138
(lp139
S'0:03:50'
p140
aV10
p141
asg9
V2015-10-04 04:04:02
p142
sS'part1_incorrect_attempt'
p143
(lp144
(S'0:00:00'
p145
V5*4
p146
tp147
a(S'0:00:16'
p148
V5*5
p149
tp150
assVmsaguiar
p151
(dp152
S'part1_correct_attempt'
p153
(lp154
S'0:04:06'
p155
aV5!/((2!)(3!))
p156
asg9
V2015-10-06 04:04:44
p157
sS'part1_incorrect_attempt'
p158
(lp159
(S'0:00:00'
p160
V5*4
p161
tp162
assVany027
p163
(dp164
S'part1_correct_attempt'
p165
(lp166
S'0:13:46'
p167
aV10
p168
asg9
V2015-10-03 10:29:46
p169
sS'part1_incorrect_attempt'
p170
(lp171
(S'0:00:00'
p172
V5 * 4
p173
tp174
a(S'0:00:14'
p175
V5!
p176
tp177
a(S'0:00:18'
p178
V4!
p179
tp180
a(S'0:02:53'
p181
V5 * 4 
p182
tp183
a(S'0:04:42'
p184
V4*3
p185
tp186
a(S'0:05:23'
p187
V5 * 4!
p188
tp189
assVanislam
p190
(dp191
S'part1_correct_attempt'
p192
(lp193
S'0:01:06'
p194
aV4 + 3 + 2 + 1
p195
asg9
V2015-10-08 23:40:51
p196
sS'part1_incorrect_attempt'
p197
(lp198
(S'0:00:00'
p199
V5!
p200
tp201
a(S'0:00:46'
p202
V5 + 4 + 3 + 2 +1
p203
tp204
assVsachadal
p205
(dp206
S'part1_correct_attempt'
p207
(lp208
S'0:01:18'
p209
aVC(5,2)
p210
asg9
V2015-10-05 18:44:10
p211
sS'part1_incorrect_attempt'
p212
(lp213
(S'0:00:00'
p214
V5*4
p215
tp216
assVkthui
p217
(dp218
S'part1_correct_attempt'
p219
(lp220
S'0:06:58'
p221
aV5!/((5-2)!2!)
p222
asg9
V2015-10-04 06:12:35
p223
sS'part1_incorrect_attempt'
p224
(lp225
(S'0:00:00'
p226
V5*5
p227
tp228
assVe9brown
p229
(dp230
S'part1_correct_attempt'
p231
(lp232
S'0:00:13'
p233
aV10
p234
asg9
V2015-10-08 01:57:39
p235
sS'part1_incorrect_attempt'
p236
(lp237
(S'0:00:00'
p238
V4!
p239
tp240
assVmbl003
p241
(dp242
S'part1_correct_attempt'
p243
(lp244
S'0:00:18'
p245
aV10
p246
asg9
V2015-10-02 20:46:16
p247
sS'part1_incorrect_attempt'
p248
(lp249
(S'0:00:00'
p250
V5*4
p251
tp252
assVn2patil
p253
(dp254
S'part1_correct_attempt'
p255
(lp256
S'0:00:59'
p257
aV10
p258
asg9
V2015-10-06 15:39:56
p259
sS'part1_incorrect_attempt'
p260
(lp261
(S'0:00:00'
p262
V5*4
p263
tp264
assVs2chaudh
p265
(dp266
S'part1_correct_attempt'
p267
(lp268
S'1 day, 13:52:16'
p269
aV10
p270
asg9
V2015-10-05 16:59:15
p271
sS'part1_incorrect_attempt'
p272
(lp273
(S'0:00:00'
p274
V5*4
p275
tp276
a(S'0:00:36'
p277
V5*5
p278
tp279
assVjmiclat
p280
(dp281
S'part1_correct_attempt'
p282
(lp283
S'0:00:28'
p284
aV5!/ (2!*3!)
p285
asg9
V2015-10-07 23:32:07
p286
sS'part1_incorrect_attempt'
p287
(lp288
(S'0:00:00'
p289
V5*4
p290
tp291
assVgsrandha
p292
(dp293
S'part1_correct_attempt'
p294
(lp295
S'0:01:02'
p296
aV10
p297
asg9
V2015-10-02 01:18:00
p298
sS'part1_incorrect_attempt'
p299
(lp300
(S'0:00:00'
p301
V51*50*49*48*47*46
p302
tp303
a(S'0:00:13'
p304
V50*49*48*47*46*45
p305
tp306
assVttimmons
p307
(dp308
S'part1_correct_attempt'
p309
(lp310
S'0:01:20'
p311
aVC(5,2)
p312
asg9
V2015-10-02 19:33:18
p313
sS'part1_incorrect_attempt'
p314
(lp315
(S'0:00:00'
p316
V5!
p317
tp318
assVjhc010
p319
(dp320
S'part1_correct_attempt'
p321
(lp322
S'0:00:46'
p323
aV10
p324
asg9
V2015-10-08 14:21:42
p325
sS'part1_incorrect_attempt'
p326
(lp327
(S'0:00:00'
p328
V5!
p329
tp330
a(S'0:00:04'
p331
V4!
p332
tp333
assVavasavad
p334
(dp335
S'part1_correct_attempt'
p336
(lp337
S'4 days, 1:22:13'
p338
aV5!/(2!*3!)
p339
asg9
V2015-10-02 04:33:06
p340
sS'part1_incorrect_attempt'
p341
(lp342
(S'0:00:00'
p343
V5 * 4
p344
tp345
a(S'0:00:00'
p346
V2 * 5 * 4
p347
tp348
assVc1sorian
p349
(dp350
S'part1_correct_attempt'
p351
(lp352
S'0:02:52'
p353
aV(5!)/(2!3!)
p354
asg9
V2015-10-08 05:34:34
p355
sS'part1_incorrect_attempt'
p356
(lp357
(S'0:00:00'
p358
V5*5
p359
tp360
a(S'0:00:14'
p361
V5*4
p362
tp363
assVbtn023
p364
(dp365
S'part1_correct_attempt'
p366
(lp367
S'0:00:29'
p368
aVC(5,2)
p369
asg9
V2015-10-02 01:42:27
p370
sS'part1_incorrect_attempt'
p371
(lp372
(S'0:00:00'
p373
V5*4
p374
tp375
assVs6deng
p376
(dp377
S'part1_correct_attempt'
p378
(lp379
S'14:39:34'
p380
aV5!/(3!2!)
p381
asg9
V2015-10-06 06:01:40
p382
sS'part1_incorrect_attempt'
p383
(lp384
(S'0:00:00'
p385
V5*4
p386
tp387
a(S'0:05:34'
p388
VC(5,4)
p389
tp390
a(S'0:05:39'
p391
VP(5,4)
p392
tp393
assVm4salaza
p394
(dp395
S'part1_correct_attempt'
p396
(lp397
S'0:05:38'
p398
aV5*4/2
p399
asg9
V2015-10-07 03:08:31
p400
sS'part1_incorrect_attempt'
p401
(lp402
(S'0:00:00'
p403
V48*47*46*45*44*43
p404
tp405
a(S'0:01:25'
p406
V5*4*2-5
p407
tp408
assVjap009
p409
(dp410
S'part1_correct_attempt'
p411
(lp412
S'3 days, 20:10:47'
p413
aV10
p414
asg9
V2015-10-05 02:22:20
p415
sS'part1_incorrect_attempt'
p416
(lp417
(S'0:00:00'
p418
V5*4
p419
tp420
assVakhmelni
p421
(dp422
S'part1_correct_attempt'
p423
(lp424
S'0:08:01'
p425
aV10
p426
asg9
V2015-10-08 21:26:56
p427
sS'part1_incorrect_attempt'
p428
(lp429
(S'0:00:00'
p430
V5 * 5
p431
tp432
a(S'0:00:08'
p433
V5 * 4
p434
tp435
a(S'0:07:38'
p436
V(54 * 53 * 52 * 51 * 50 * 49) / 5!
p437
tp438
assVkalang
p439
(dp440
S'part1_correct_attempt'
p441
(lp442
S'0:03:41'
p443
aV5!/(2!*3!)
p444
asg9
V2015-10-05 22:28:38
p445
sS'part1_incorrect_attempt'
p446
(lp447
(S'0:00:00'
p448
V5*4
p449
tp450
a(S'0:02:39'
p451
V5!
p452
tp453
assVkvass
p454
(dp455
S'part1_correct_attempt'
p456
(lp457
S'0:02:42'
p458
aV10
p459
asg9
V2015-10-04 20:57:12
p460
sS'part1_incorrect_attempt'
p461
(lp462
(S'0:00:00'
p463
V5*5
p464
tp465
assVrraiyyan
p466
(dp467
S'part1_correct_attempt'
p468
(lp469
S'0:01:14'
p470
aV5!/(2!*3!)
p471
asg9
V2015-10-06 06:32:42
p472
sS'part1_incorrect_attempt'
p473
(lp474
(S'0:00:00'
p475
V4*5
p476
tp477
assVyhhan
p478
(dp479
S'part1_correct_attempt'
p480
(lp481
S'0:00:56'
p482
aVC(5,2)
p483
asg9
V2015-10-08 18:46:21
p484
sS'part1_incorrect_attempt'
p485
(lp486
(S'0:00:00'
p487
V5*4
p488
tp489
assVt1tran
p490
(dp491
S'part1_correct_attempt'
p492
(lp493
S'0:02:44'
p494
aV5!/[(5-2)!2!]
p495
asg9
V2015-10-03 05:38:53
p496
sS'part1_incorrect_attempt'
p497
(lp498
(S'0:00:00'
p499
V5*4
p500
tp501
assVdsmonaha
p502
(dp503
S'part1_correct_attempt'
p504
(lp505
S'0:00:04'
p506
aVC(5,2)
p507
asg9
V2015-10-05 18:20:29
p508
sS'part1_incorrect_attempt'
p509
(lp510
(S'0:00:00'
p511
VC(5,1)
p512
tp513
assVtcn013
p514
(dp515
S'part1_correct_attempt'
p516
(lp517
S'0:09:45'
p518
aV5!/(2!3!)
p519
asg9
V2015-10-06 00:39:12
p520
sS'part1_incorrect_attempt'
p521
(lp522
(S'0:00:00'
p523
V5!/4!
p524
tp525
a(S'0:03:25'
p526
V5!
p527
tp528
assVdtea
p529
(dp530
S'part1_correct_attempt'
p531
(lp532
S'0:05:54'
p533
aV5!/(2!(5-2)!)
p534
asg9
V2015-10-08 18:47:47
p535
sS'part1_incorrect_attempt'
p536
(lp537
(S'0:00:00'
p538
V5*5
p539
tp540
a(S'0:00:07'
p541
V5*4
p542
tp543
a(S'0:02:00'
p544
V5!
p545
tp546
a(S'0:02:06'
p547
V5*4
p548
tp549
a(S'0:02:35'
p550
V5*5
p551
tp552
a(S'0:02:39'
p553
V5*3
p554
tp555
a(S'0:02:44'
p556
V5*4
p557
tp558
assVkmc012
p559
(dp560
S'part1_correct_attempt'
p561
(lp562
S'0:01:13'
p563
aV20/2
p564
asg9
V2015-10-05 07:34:02
p565
sS'part1_incorrect_attempt'
p566
(lp567
(S'0:00:00'
p568
V(52!)/(46!)
p569
tp570
a(S'0:00:18'
p571
V(52!)/((46!)(6!))
p572
tp573
assVhah008
p574
(dp575
S'part1_correct_attempt'
p576
(lp577
S'7:02:05'
p578
aVC(5, 2)
p579
asg9
V2015-10-07 23:22:50
p580
sS'part1_incorrect_attempt'
p581
(lp582
(S'0:00:00'
p583
V5!
p584
tp585
a(S'0:00:00'
p586
V53*52*51*50*49*48
p587
tp588
a(S'0:00:00'
p589
V53*52*51*50*49*48
p590
tp591
a(S'0:00:21'
p592
V53^6
p593
tp594
assVsippolit
p595
(dp596
S'part1_correct_attempt'
p597
(lp598
S'0:48:35'
p599
aV10
p600
asg9
V2015-10-03 19:40:52
p601
sS'part1_incorrect_attempt'
p602
(lp603
(S'0:00:00'
p604
V5!
p605
tp606
assVlahawkin
p607
(dp608
S'part1_correct_attempt'
p609
(lp610
S'0:03:17'
p611
aV(5!)/(2!*3!)
p612
asg9
V2015-10-03 17:42:40
p613
sS'part1_incorrect_attempt'
p614
(lp615
(S'0:00:00'
p616
V5*4
p617
tp618
a(S'0:00:00'
p619
V54*53*52*51*50*49
p620
tp621
assVdando
p622
(dp623
S'part1_correct_attempt'
p624
(lp625
S'0:00:46'
p626
aV10
p627
asg9
V2015-10-04 19:51:58
p628
sS'part1_incorrect_attempt'
p629
(lp630
(S'0:00:00'
p631
V5 * 4
p632
tp633
assVeaherman
p634
(dp635
S'part1_correct_attempt'
p636
(lp637
S'0:08:52'
p638
aV10
p639
asg9
V2015-10-03 20:37:33
p640
sS'part1_incorrect_attempt'
p641
(lp642
(S'0:00:00'
p643
V5!
p644
tp645
assVsayao
p646
(dp647
S'part1_correct_attempt'
p648
(lp649
S'0:00:08'
p650
aV5!/2!/3!
p651
asg9
V2015-10-03 00:45:32
p652
sS'part1_incorrect_attempt'
p653
(lp654
(S'0:00:00'
p655
V5!/2!*3!
p656
tp657
assVctroncos
p658
(dp659
S'part1_correct_attempt'
p660
(lp661
S'0:02:45'
p662
aV(5!)/(2!(5-2)!)
p663
asg9
V2015-10-07 21:30:24
p664
sS'part1_incorrect_attempt'
p665
(lp666
(S'0:00:00'
p667
V5*4
p668
tp669
assVacs008
p670
(dp671
S'part1_correct_attempt'
p672
(lp673
S'5 days, 4:11:37'
p674
aV10
p675
asg9
V2015-10-03 00:01:33
p676
sS'part1_incorrect_attempt'
p677
(lp678
(S'0:00:00'
p679
V5*4
p680
tp681
a(S'0:00:25'
p682
V5*4
p683
tp684
a(S'0:01:52'
p685
V5*5
p686
tp687
a(S'0:00:00'
p688
V5*4
p689
tp690
assVmuy002
p691
(dp692
S'part1_correct_attempt'
p693
(lp694
S'0:00:26'
p695
aV5!/(2!*3!)
p696
asg9
V2015-10-07 21:31:35
p697
sS'part1_incorrect_attempt'
p698
(lp699
(S'0:00:00'
p700
V5!
p701
tp702
assVwcwhite
p703
(dp704
S'part1_correct_attempt'
p705
(lp706
S'0:17:31'
p707
aV5!/(2!(5-2)!)
p708
asg9
V2015-10-06 18:44:47
p709
sS'part1_incorrect_attempt'
p710
(lp711
(S'0:00:00'
p712
V5!
p713
tp714
a(S'0:02:50'
p715
V5*4
p716
tp717
a(S'0:03:06'
p718
V4*3
p719
tp720
a(S'0:05:11'
p721
V5*4
p722
tp723
a(S'0:09:02'
p724
V10*9
p725
tp726
assVdaw023
p727
(dp728
S'part1_correct_attempt'
p729
(lp730
S'0:17:36'
p731
aV5!/(3!*2)
p732
asg9
V2015-10-03 07:47:40
p733
sS'part1_incorrect_attempt'
p734
(lp735
(S'0:00:00'
p736
V5*4
p737
tp738
assVcstringh
p739
(dp740
S'part1_correct_attempt'
p741
(lp742
S'0:03:53'
p743
aV5!/(2!(5-2)!)
p744
asg9
V2015-10-03 23:52:03
p745
sS'part1_incorrect_attempt'
p746
(lp747
(S'0:00:00'
p748
V5*4
p749
tp750
a(S'0:01:02'
p751
V5*5
p752
tp753
a(S'0:01:11'
p754
V5!
p755
tp756
assVcsl030
p757
(dp758
S'part1_correct_attempt'
p759
(lp760
S'0:00:24'
p761
aVC(5, 2)
p762
asg9
V2015-10-04 21:30:56
p763
sS'part1_incorrect_attempt'
p764
(lp765
(S'0:00:00'
p766
V5 * 4
p767
tp768
assVrbdoming
p769
(dp770
S'part1_correct_attempt'
p771
(lp772
S'0:05:40'
p773
aVC(5,2)
p774
asg9
V2015-10-02 20:41:20
p775
sS'part1_incorrect_attempt'
p776
(lp777
(S'0:00:00'
p778
V5*4
p779
tp780
a(S'0:00:00'
p781
VC(5,1)
p782
tp783
assVdruble
p784
(dp785
S'part1_correct_attempt'
p786
(lp787
S'0:09:58'
p788
aVC(5,2)
p789
asg9
V2015-10-08 20:23:41
p790
sS'part1_incorrect_attempt'
p791
(lp792
(S'0:00:00'
p793
V5*4
p794
tp795
a(S'0:02:59'
p796
V2*5*4
p797
tp798
assVkquong
p799
(dp800
S'part1_correct_attempt'
p801
(lp802
S'0:11:27'
p803
aV(5!/3!)/2!
p804
asg9
V2015-10-03 21:02:04
p805
sS'part1_incorrect_attempt'
p806
(lp807
(S'0:00:00'
p808
V5*4
p809
tp810
a(S'0:02:45'
p811
V5*5
p812
tp813
a(S'0:09:03'
p814
V5*5
p815
tp816
assVvasharma
p817
(dp818
S'part1_correct_attempt'
p819
(lp820
S'0:00:28'
p821
aV10
p822
asg9
V2015-10-05 05:19:12
p823
sS'part1_incorrect_attempt'
p824
(lp825
(S'0:00:00'
p826
V5!
p827
tp828
a(S'0:00:13'
p829
V(25)!
p830
tp831
assVbpandayk
p832
(dp833
S'part1_correct_attempt'
p834
(lp835
S'0:27:13'
p836
aV10
p837
asg9
V2015-10-08 15:16:07
p838
sS'part1_incorrect_attempt'
p839
(lp840
(S'0:00:00'
p841
V5!
p842
tp843
assVxweng
p844
(dp845
S'part1_correct_attempt'
p846
(lp847
S'0:34:28'
p848
aV10
p849
asg9
V2015-10-07 06:40:51
p850
sS'part1_incorrect_attempt'
p851
(lp852
(S'0:00:00'
p853
V50+49+48+47+46+45
p854
tp855
a(S'0:10:35'
p856
V60^6
p857
tp858
a(S'0:12:27'
p859
V50*49*48*47*46*45
p860
tp861
assVlcardoso
p862
(dp863
S'part1_correct_attempt'
p864
(lp865
S'0:16:17'
p866
aVC(5,2)
p867
asg9
V2015-10-08 05:20:43
p868
sS'part1_incorrect_attempt'
p869
(lp870
(S'0:00:00'
p871
V5*5
p872
tp873
a(S'0:04:34'
p874
V5*5-5
p875
tp876
assVwhcombs
p877
(dp878
S'part1_correct_attempt'
p879
(lp880
S'0:11:55'
p881
aV5!/(2!(5-2)!)
p882
asg9
V2015-10-07 18:27:39
p883
sS'part1_incorrect_attempt'
p884
(lp885
(S'0:00:00'
p886
V5*5
p887
tp888
a(S'0:05:26'
p889
V5!/(5-1)!
p890
tp891
a(S'0:08:16'
p892
V5*4
p893
tp894
assVzig006
p895
(dp896
S'part1_correct_attempt'
p897
(lp898
S'0:08:06'
p899
aV5!/(2!3!)
p900
asg9
V2015-10-06 00:54:18
p901
sS'part1_incorrect_attempt'
p902
(lp903
(S'0:00:00'
p904
V5+4+3+2+1
p905
tp906
a(S'0:06:42'
p907
V50!/(6!44!)
p908
tp909
assVcagatep
p910
(dp911
S'part1_correct_attempt'
p912
(lp913
S'0:02:50'
p914
aV5!/(2!3!)
p915
asg9
V2015-10-08 00:36:46
p916
sS'part1_incorrect_attempt'
p917
(lp918
(S'0:00:00'
p919
V25 - 5
p920
tp921
assVggaddi
p922
(dp923
S'part1_correct_attempt'
p924
(lp925
S'0:06:42'
p926
aV5!/(2!*3!)
p927
asg9
V2015-10-03 00:49:48
p928
sS'part1_incorrect_attempt'
p929
(lp930
(S'0:00:00'
p931
V5*4
p932
tp933
assVkgrozav
p934
(dp935
S'part1_correct_attempt'
p936
(lp937
S'0:01:39'
p938
aV(5!)/(2! * 3!)
p939
asg9
V2015-10-02 20:58:45
p940
sS'part1_incorrect_attempt'
p941
(lp942
(S'0:00:00'
p943
V5*4
p944
tp945
assVklala
p946
(dp947
S'part1_correct_attempt'
p948
(lp949
S'0:00:05'
p950
aV10
p951
asg9
V2015-10-05 20:12:47
p952
sS'part1_incorrect_attempt'
p953
(lp954
(S'0:00:00'
p955
V5*4
p956
tp957
assVcprafull
p958
(dp959
S'part1_correct_attempt'
p960
(lp961
S'0:00:16'
p962
aV5*4/2
p963
asg9
V2015-10-06 19:07:54
p964
sS'part1_incorrect_attempt'
p965
(lp966
(S'0:00:00'
p967
V5*4
p968
tp969
asssV2
p970
(dp971
Vdlgoldbe
p972
(dp973
S'part2_correct_attempt'
p974
(lp975
S'0:04:02'
p976
aV(48*47*46*45*44*43)/(6*5*4*3*2*1)
p977
asS'part1_correct_attempt'
p978
(lp979
S'0:00:00'
p980
ag30
asg9
V2015-10-08 04:41:43
p981
sS'part2_incorrect_attempt'
p982
(lp983
(S'0:00:58'
p984
V(48*47*46*45*44*43*42)/6
p985
tp986
assVlpettit
p987
(dp988
S'part2_correct_attempt'
p989
(lp990
S'0:00:25'
p991
aV55!/(6!*49!)
p992
asS'part1_correct_attempt'
p993
(lp994
S'0:00:00'
p995
aV5!/(2!(5-2)!)
p996
asg9
V2015-10-05 00:35:28
p997
sS'part2_incorrect_attempt'
p998
(lp999
(S'0:00:11'
p1000
V55!/6!49!
p1001
tp1002
assVjag028
p1003
(dp1004
S'part2_correct_attempt'
p1005
(lp1006
S'0:03:18'
p1007
aV(53!)/(6!(53-6)!)
p1008
asS'part1_correct_attempt'
p1009
(lp1010
S'0:00:00'
p1011
aV10
p1012
asg9
V2015-10-05 05:43:50
p1013
sS'part2_incorrect_attempt'
p1014
(lp1015
(S'0:01:09'
p1016
V53!
p1017
tp1018
a(S'0:01:17'
p1019
V52!
p1020
tp1021
assVv4zhang
p1022
(dp1023
S'part2_correct_attempt'
p1024
(lp1025
S'0:02:19'
p1026
aV(54!)/[6! * 48!]
p1027
asS'part1_correct_attempt'
p1028
(lp1029
S'0:00:00'
p1030
aV10
p1031
asg9
V2015-10-08 07:49:12
p1032
sS'part2_incorrect_attempt'
p1033
(lp1034
(S'0:00:29'
p1035
V54*53*52*51*50*49
p1036
tp1037
a(S'0:01:03'
p1038
V55*54*53*52*51*50
p1039
tp1040
assVh4tu
p1041
(dp1042
S'part2_correct_attempt'
p1043
(lp1044
S'0:03:41'
p1045
aV(50*49*48*47*46*45)/(6!)
p1046
asS'part1_correct_attempt'
p1047
(lp1048
S'0:00:00'
p1049
ag78
asg9
V2015-10-08 18:47:09
p1050
sS'part2_incorrect_attempt'
p1051
(lp1052
(S'0:03:25'
p1053
V(50*49*48*47*46*45)
p1054
tp1055
assVvsamant
p1056
(dp1057
S'part2_correct_attempt'
p1058
(lp1059
S'0:01:31'
p1060
aV54!/((6!)(48!))
p1061
asS'part1_correct_attempt'
p1062
(lp1063
S'0:00:00'
p1064
aV5*4*3*2/(2*3*2)
p1065
asg9
V2015-10-02 04:21:47
p1066
sS'part2_incorrect_attempt'
p1067
(lp1068
(S'0:00:55'
p1069
V54*53*52*51*50*49
p1070
tp1071
assVkvass
p1072
(dp1073
S'part2_correct_attempt'
p1074
(lp1075
S'0:05:16'
p1076
aV15890700
p1077
asS'part1_correct_attempt'
p1078
(lp1079
S'0:00:00'
p1080
ag459
asg9
V2015-10-04 20:59:54
p1081
sS'part2_incorrect_attempt'
p1082
(lp1083
(S'0:02:47'
p1084
V50*6
p1085
tp1086
assVhkhodada
p1087
(dp1088
S'part2_correct_attempt'
p1089
(lp1090
S'0:12:46'
p1091
aV20358520
p1092
asS'part1_correct_attempt'
p1093
(lp1094
S'0:00:00'
p1095
aV10
p1096
asg9
V2015-10-02 18:29:37
p1097
sS'part2_incorrect_attempt'
p1098
(lp1099
(S'0:03:28'
p1100
V52!
p1101
tp1102
assVm4salaza
p1103
(dp1104
S'part2_correct_attempt'
p1105
(lp1106
S'0:04:40'
p1107
aV48!/(42!*6!)
p1108
asS'part1_correct_attempt'
p1109
(lp1110
S'0:00:00'
p1111
ag399
asg9
V2015-10-07 03:14:09
p1112
sS'part2_incorrect_attempt'
p1113
(lp1114
(S'0:00:00'
p1115
V48*47/6
p1116
tp1117
assVacvuong
p1118
(dp1119
S'part2_correct_attempt'
p1120
(lp1121
S'0:00:32'
p1122
aVC(53,6)
p1123
asS'part1_correct_attempt'
p1124
(lp1125
S'0:00:00'
p1126
aV5!/(3!*2)
p1127
asg9
V2015-10-04 00:07:17
p1128
sS'part2_incorrect_attempt'
p1129
(lp1130
(S'0:00:00'
p1131
V53*52*51*50*49*48
p1132
tp1133
assVany027
p1134
(dp1135
S'part2_correct_attempt'
p1136
(lp1137
S'0:01:54'
p1138
aV50! / (6 ! * 44!)
p1139
asS'part1_correct_attempt'
p1140
(lp1141
S'0:00:00'
p1142
ag168
asg9
V2015-10-03 10:43:32
p1143
sS'part2_incorrect_attempt'
p1144
(lp1145
(S'0:01:01'
p1146
V 50063860
p1147
tp1148
a(S'0:01:35'
p1149
V60! / (6 ! * 54!)
p1150
tp1151
assVawollner
p1152
(dp1153
S'part2_correct_attempt'
p1154
(lp1155
S'0:11:19'
p1156
aV53!/(47!6!)
p1157
asS'part1_correct_attempt'
p1158
(lp1159
S'0:00:00'
p1160
aV10
p1161
asg9
V2015-10-02 14:36:59
p1162
sS'part2_incorrect_attempt'
p1163
(lp1164
(S'0:00:00'
p1165
V6*53
p1166
tp1167
assVe9brown
p1168
(dp1169
S'part2_correct_attempt'
p1170
(lp1171
S'0:06:27'
p1172
aVC(54,6)
p1173
asS'part1_correct_attempt'
p1174
(lp1175
S'0:00:00'
p1176
ag234
asg9
V2015-10-08 01:57:52
p1177
sS'part2_incorrect_attempt'
p1178
(lp1179
(S'0:00:00'
p1180
V(54!) - (48!)
p1181
tp1182
a(S'0:01:09'
p1183
V54 +53 + 52 +51+50+49
p1184
tp1185
a(S'0:01:24'
p1186
V53 + 52 +51+50+49
p1187
tp1188
a(S'0:02:37'
p1189
V54*53*52*51*50*49
p1190
tp1191
assVjcj006
p1192
(dp1193
S'part2_correct_attempt'
p1194
(lp1195
S'0:02:46'
p1196
aV25827165
p1197
asS'part1_correct_attempt'
p1198
(lp1199
S'0:00:00'
p1200
aV4+3+2+1
p1201
asg9
V2015-10-08 00:11:47
p1202
sS'part2_incorrect_attempt'
p1203
(lp1204
(S'0:00:00'
p1205
V54+53+52+51+50+49
p1206
tp1207
assVb1green
p1208
(dp1209
S'part2_correct_attempt'
p1210
(lp1211
S'0:00:08'
p1212
aVC(49,6)
p1213
asS'part1_correct_attempt'
p1214
(lp1215
S'0:00:00'
p1216
aVC(5,2)
p1217
asg9
V2015-10-08 05:32:08
p1218
sS'part2_incorrect_attempt'
p1219
(lp1220
(S'0:00:00'
p1221
VC(49,1)
p1222
tp1223
assVmbl003
p1224
(dp1225
S'part2_correct_attempt'
p1226
(lp1227
S'0:01:23'
p1228
aV28989675
p1229
asS'part1_correct_attempt'
p1230
(lp1231
S'0:00:00'
p1232
ag246
asg9
V2015-10-02 20:46:34
p1233
sS'part2_incorrect_attempt'
p1234
(lp1235
(S'0:00:42'
p1236
V55*54*53*52*51*50
p1237
tp1238
assVagoldsht
p1239
(dp1240
S'part2_correct_attempt'
p1241
(lp1242
S'0:19:37'
p1243
aV(48*47*46*45*44*43)/6!
p1244
asS'part1_correct_attempt'
p1245
(lp1246
S'0:00:00'
p1247
aV10
p1248
asg9
V2015-10-06 22:45:33
p1249
sS'part2_incorrect_attempt'
p1250
(lp1251
(S'0:00:27'
p1252
V48*6
p1253
tp1254
a(S'0:05:11'
p1255
V48*47*46*45*44*43
p1256
tp1257
assVn2patil
p1258
(dp1259
S'part2_correct_attempt'
p1260
(lp1261
S'0:01:56'
p1262
aV25827165
p1263
asS'part1_correct_attempt'
p1264
(lp1265
S'0:00:00'
p1266
ag258
asg9
V2015-10-06 15:40:55
p1267
sS'part2_incorrect_attempt'
p1268
(lp1269
(S'0:00:59'
p1270
V54*53*52*51*50*49
p1271
tp1272
assVb3hwang
p1273
(dp1274
S'part2_correct_attempt'
p1275
(lp1276
S'0:02:07'
p1277
aV20358520
p1278
asS'part1_correct_attempt'
p1279
(lp1280
S'0:00:00'
p1281
aV10
p1282
asg9
V2015-10-08 23:23:40
p1283
sS'part2_incorrect_attempt'
p1284
(lp1285
(S'0:00:37'
p1286
V6*52
p1287
tp1288
assVhaw081
p1289
(dp1290
S'part2_correct_attempt'
p1291
(lp1292
S'0:00:22'
p1293
aV20358520
p1294
asS'part1_correct_attempt'
p1295
(lp1296
S'0:00:00'
p1297
aV10
p1298
asg9
V2015-10-04 22:49:39
p1299
sS'part2_incorrect_attempt'
p1300
(lp1301
(S'0:00:00'
p1302
V52*51*50*49*48*47
p1303
tp1304
assVvqt004
p1305
(dp1306
S'part2_correct_attempt'
p1307
(lp1308
S'0:03:09'
p1309
aV 48*47*46*45*44*43/6!
p1310
asS'part1_correct_attempt'
p1311
(lp1312
S'0:00:00'
p1313
aV5*4/2
p1314
asg9
V2015-10-04 17:45:21
p1315
sS'part2_incorrect_attempt'
p1316
(lp1317
(S'0:00:00'
p1318
V48*47*46*45*44*43
p1319
tp1320
assVdcgriffi
p1321
(dp1322
S'part2_correct_attempt'
p1323
(lp1324
S'0:02:21'
p1325
aV(49!)/((6!)*(49-6)!)
p1326
asS'part1_correct_attempt'
p1327
(lp1328
S'0:00:00'
p1329
aV(5!)/((2!)*(3!))
p1330
asg9
V2015-10-08 04:50:54
p1331
sS'part2_incorrect_attempt'
p1332
(lp1333
(S'0:00:00'
p1334
V(49!)/(49!-6!)
p1335
tp1336
a(S'0:00:20'
p1337
V(49!)/((49-6)!)
p1338
tp1339
assVdkostins
p1340
(dp1341
S'part2_correct_attempt'
p1342
(lp1343
S'0:06:37'
p1344
aV52!/((52-6)!(6!))
p1345
asS'part1_correct_attempt'
p1346
(lp1347
S'0:00:00'
p1348
aV10
p1349
asg9
V2015-10-05 20:53:34
p1350
sS'part2_incorrect_attempt'
p1351
(lp1352
(S'0:01:50'
p1353
V52+51+50+49+48+47
p1354
tp1355
a(S'0:02:23'
p1356
V52*51*50*49*48*47
p1357
tp1358
a(S'0:05:58'
p1359
V52!/((52-6)!-6!)
p1360
tp1361
assVasrana
p1362
(dp1363
S'part2_correct_attempt'
p1364
(lp1365
S'10:36:19'
p1366
aV15890700
p1367
asS'part1_correct_attempt'
p1368
(lp1369
S'0:00:00'
p1370
aV10
p1371
asg9
V2015-10-03 03:45:18
p1372
sS'part2_incorrect_attempt'
p1373
(lp1374
(S'10:35:19'
p1375
V(50 6)
p1376
tp1377
assVm4bui
p1378
(dp1379
S'part1_correct_attempt'
p1380
(lp1381
S'0:00:00'
p1382
aV10
p1383
asg9
V2015-10-08 21:19:20
p1384
sS'part2_incorrect_attempt'
p1385
(lp1386
(S'0:00:41'
p1387
V55*54*53*52*51*50
p1388
tp1389
a(S'0:00:52'
p1390
V55*6
p1391
tp1392
assVctgraves
p1393
(dp1394
S'part2_correct_attempt'
p1395
(lp1396
S'0:02:04'
p1397
aV49!/(6!(49-6)!)
p1398
asS'part1_correct_attempt'
p1399
(lp1400
S'0:00:00'
p1401
aV10
p1402
asg9
V2015-10-08 08:37:29
p1403
sS'part2_incorrect_attempt'
p1404
(lp1405
(S'0:01:32'
p1406
V50!/(6!(50-6)!)
p1407
tp1408
assVs6deng
p1409
(dp1410
S'part2_correct_attempt'
p1411
(lp1412
S'0:05:06'
p1413
aV49!/(43!6!)
p1414
asS'part1_correct_attempt'
p1415
(lp1416
S'0:00:00'
p1417
ag381
asg9
V2015-10-06 20:41:14
p1418
sS'part2_incorrect_attempt'
p1419
(lp1420
(S'0:00:53'
p1421
V5!/3!
p1422
tp1423
a(S'0:00:57'
p1424
V5!/2!
p1425
tp1426
a(S'0:02:08'
p1427
V50!/(44!6!)
p1428
tp1429
assVdis003
p1430
(dp1431
S'part2_correct_attempt'
p1432
(lp1433
S'0:06:01'
p1434
aVC(52,6)
p1435
asS'part1_correct_attempt'
p1436
(lp1437
S'0:00:00'
p1438
aVC(5,2)
p1439
asg9
V2015-10-08 07:01:30
p1440
sS'part2_incorrect_attempt'
p1441
(lp1442
(S'0:03:20'
p1443
V52*51*50*49*48*47
p1444
tp1445
assVq3wen
p1446
(dp1447
S'part2_correct_attempt'
p1448
(lp1449
S'0:02:06'
p1450
aV22957480
p1451
asS'part1_correct_attempt'
p1452
(lp1453
S'0:00:00'
p1454
aV10
p1455
asg9
V2015-10-07 07:15:29
p1456
sS'part2_incorrect_attempt'
p1457
(lp1458
(S'0:00:00'
p1459
V53^6
p1460
tp1461
assVagarango
p1462
(dp1463
S'part2_correct_attempt'
p1464
(lp1465
S'1:56:55'
p1466
aV18009460
p1467
asS'part1_correct_attempt'
p1468
(lp1469
S'0:00:00'
p1470
aV10
p1471
asg9
V2015-10-08 06:23:39
p1472
sS'part2_incorrect_attempt'
p1473
(lp1474
(S'0:03:18'
p1475
V2.3352527*10^17
p1476
tp1477
assVkew017
p1478
(dp1479
S'part2_correct_attempt'
p1480
(lp1481
S'0:00:07'
p1482
aV49!/(43!*6!)
p1483
asS'part1_correct_attempt'
p1484
(lp1485
S'0:00:00'
p1486
aV10
p1487
asg9
V2015-10-04 19:33:32
p1488
sS'part2_incorrect_attempt'
p1489
(lp1490
(S'0:00:00'
p1491
V49!/(43!*6)
p1492
tp1493
assVthwan
p1494
(dp1495
S'part2_correct_attempt'
p1496
(lp1497
S'0:00:47'
p1498
aVC(54,6)
p1499
asS'part1_correct_attempt'
p1500
(lp1501
S'0:00:00'
p1502
aVC(5,2)
p1503
asg9
V2015-10-04 00:02:50
p1504
sS'part2_incorrect_attempt'
p1505
(lp1506
(S'0:00:40'
p1507
VP(54,6)
p1508
tp1509
assVtcuddy
p1510
(dp1511
S'part2_correct_attempt'
p1512
(lp1513
S'0:03:43'
p1514
aV(51!/(6!*45!))
p1515
asS'part1_correct_attempt'
p1516
(lp1517
S'0:00:00'
p1518
aV10
p1519
asg9
V2015-10-02 19:45:44
p1520
sS'part2_incorrect_attempt'
p1521
(lp1522
(S'0:00:57'
p1523
V51*50*49*48*47*46
p1524
tp1525
a(S'0:03:06'
p1526
V(50!/(6!*44!))
p1527
tp1528
assVajabasa
p1529
(dp1530
S'part2_correct_attempt'
p1531
(lp1532
S'1:15:31'
p1533
aV52!/(6!*46!)
p1534
asS'part1_correct_attempt'
p1535
(lp1536
S'0:00:00'
p1537
aV5!/(3!2!)
p1538
asg9
V2015-10-05 19:43:39
p1539
sS'part2_incorrect_attempt'
p1540
(lp1541
(S'1:14:05'
p1542
V52*51*50*49*48*47
p1543
tp1544
assVjel075
p1545
(dp1546
S'part2_correct_attempt'
p1547
(lp1548
S'14:22:24'
p1549
aV(54!)/(48!*6!)
p1550
asS'part1_correct_attempt'
p1551
(lp1552
S'0:00:00'
p1553
aV(5!)/(3!*2!)
p1554
asg9
V2015-10-06 16:34:02
p1555
sS'part2_incorrect_attempt'
p1556
(lp1557
(S'0:03:49'
p1558
V54!/(54-6)!
p1559
tp1560
a(S'14:20:52'
p1561
V6*54*53*52*51*50*49
p1562
tp1563
a(S'14:20:58'
p1564
V6!*54*53*52*51*50*49
p1565
tp1566
assVsayao
p1567
(dp1568
S'part2_correct_attempt'
p1569
(lp1570
S'0:00:48'
p1571
aV48!/(42!)/(6!)
p1572
asS'part1_correct_attempt'
p1573
(lp1574
S'0:00:00'
p1575
ag651
asg9
V2015-10-03 00:45:40
p1576
sS'part2_incorrect_attempt'
p1577
(lp1578
(S'0:00:30'
p1579
V48!/(42!)
p1580
tp1581
assVnhn018
p1582
(dp1583
S'part2_correct_attempt'
p1584
(lp1585
S'0:27:09'
p1586
aV50!/(44!(6!))
p1587
asS'part1_correct_attempt'
p1588
(lp1589
S'0:00:00'
p1590
aV10
p1591
asg9
V2015-10-07 02:52:16
p1592
sS'part2_incorrect_attempt'
p1593
(lp1594
(S'0:23:18'
p1595
V(50*49)/2
p1596
tp1597
a(S'0:25:46'
p1598
V(50*49)/2
p1599
tp1600
assVasp025
p1601
(dp1602
S'part2_correct_attempt'
p1603
(lp1604
S'0:08:07'
p1605
aV51!/((51-6)!6!)
p1606
asS'part1_correct_attempt'
p1607
(lp1608
S'0:00:00'
p1609
aV5!/(3!2!)
p1610
asg9
V2015-10-08 06:10:06
p1611
sS'part2_incorrect_attempt'
p1612
(lp1613
(S'0:01:50'
p1614
V51!/((51-6)!)
p1615
tp1616
assVjjchung
p1617
(dp1618
S'part2_correct_attempt'
p1619
(lp1620
S'3:08:46'
p1621
aV51!/(6! * 45!)
p1622
asS'part1_correct_attempt'
p1623
(lp1624
S'0:00:00'
p1625
aV10
p1626
asg9
V2015-10-08 03:37:24
p1627
sS'part2_incorrect_attempt'
p1628
(lp1629
(S'0:00:47'
p1630
V51*50*49*48
p1631
tp1632
a(S'0:01:27'
p1633
V51*50*49*48*47*46
p1634
tp1635
a(S'0:25:53'
p1636
V(51*50*49*48*47*46)/2-1
p1637
tp1638
a(S'0:26:02'
p1639
V(51*50*49*48*47*46)/2+1
p1640
tp1641
assVdaw023
p1642
(dp1643
S'part2_correct_attempt'
p1644
(lp1645
S'0:00:44'
p1646
aV48!/(42!*6!)
p1647
asS'part1_correct_attempt'
p1648
(lp1649
S'0:00:00'
p1650
ag732
asg9
V2015-10-03 08:05:16
p1651
sS'part2_incorrect_attempt'
p1652
(lp1653
(S'0:00:00'
p1654
V49!/(43!*6!)
p1655
tp1656
assVedcole
p1657
(dp1658
S'part2_correct_attempt'
p1659
(lp1660
S'0:05:37'
p1661
aV53! /(6! * ((53-6)!))
p1662
asS'part1_correct_attempt'
p1663
(lp1664
S'0:00:00'
p1665
aV(5*4)/2
p1666
asg9
V2015-10-04 21:47:07
p1667
sS'part2_incorrect_attempt'
p1668
(lp1669
(S'0:02:32'
p1670
V53! /(53-6)!
p1671
tp1672
assVvasharma
p1673
(dp1674
S'part2_correct_attempt'
p1675
(lp1676
S'0:02:06'
p1677
aV54!/(6!(54-6)!)
p1678
asS'part1_correct_attempt'
p1679
(lp1680
S'0:00:00'
p1681
ag822
asg9
V2015-10-05 05:19:40
p1682
sS'part2_incorrect_attempt'
p1683
(lp1684
(S'0:00:48'
p1685
V54*53*52
p1686
tp1687
a(S'0:01:47'
p1688
V54!(54-6)!
p1689
tp1690
assVxweng
p1691
(dp1692
S'part2_correct_attempt'
p1693
(lp1694
S'0:10:54'
p1695
aV50!/(6!44!)
p1696
asS'part1_correct_attempt'
p1697
(lp1698
S'0:00:00'
p1699
ag849
asg9
V2015-10-07 07:15:19
p1700
sS'part2_incorrect_attempt'
p1701
(lp1702
(S'0:00:19'
p1703
V50!-44!
p1704
tp1705
a(S'0:00:24'
p1706
V50!-45!
p1707
tp1708
a(S'0:00:49'
p1709
V49!-43!
p1710
tp1711
a(S'0:03:29'
p1712
V44+43+42+41+40+39+38
p1713
tp1714
a(S'0:03:35'
p1715
V44+43+42+41+40+39
p1716
tp1717
assVyypan
p1718
(dp1719
S'part2_correct_attempt'
p1720
(lp1721
S'0:01:58'
p1722
aV50!/(44!*6!)
p1723
asS'part1_correct_attempt'
p1724
(lp1725
S'0:00:00'
p1726
aV5*4/2
p1727
asg9
V2015-10-02 04:44:21
p1728
sS'part2_incorrect_attempt'
p1729
(lp1730
(S'0:01:24'
p1731
V50!/(45!)
p1732
tp1733
assVajvanega
p1734
(dp1735
S'part2_correct_attempt'
p1736
(lp1737
S'0:10:05'
p1738
aV(48!)/((6!)*(42!))
p1739
asS'part1_correct_attempt'
p1740
(lp1741
S'0:00:00'
p1742
aV10
p1743
asg9
V2015-10-02 18:08:03
p1744
sS'part2_incorrect_attempt'
p1745
(lp1746
(S'0:01:49'
p1747
V6*48
p1748
tp1749
assVjfalcone
p1750
(dp1751
S'part2_correct_attempt'
p1752
(lp1753
S'0:06:15'
p1754
aV(51!)/((51-6)!(6!))
p1755
asS'part1_correct_attempt'
p1756
(lp1757
S'0:00:00'
p1758
ag54
asg9
V2015-10-07 03:13:37
p1759
sS'part2_incorrect_attempt'
p1760
(lp1761
(S'0:05:11'
p1762
V(51!)/(51-6)!
p1763
tp1764
assVsmall
p1765
(dp1766
S'part2_correct_attempt'
p1767
(lp1768
S'3 days, 3:55:59'
p1769
aV55*3*53*5*13*51
p1770
asS'part1_correct_attempt'
p1771
(lp1772
S'0:00:00'
p1773
aV10
p1774
asg9
V2015-10-05 19:54:21
p1775
sS'part2_incorrect_attempt'
p1776
(lp1777
(S'3 days, 3:55:42'
p1778
V55*3*53*13*51
p1779
tp1780
assVytc012
p1781
(dp1782
S'part2_correct_attempt'
p1783
(lp1784
S'0:01:52'
p1785
aV49!/(6!*43!)
p1786
asS'part1_correct_attempt'
p1787
(lp1788
S'0:00:00'
p1789
aV10
p1790
asg9
V2015-10-06 08:35:24
p1791
sS'part2_incorrect_attempt'
p1792
(lp1793
(S'0:00:51'
p1794
V49!/43!
p1795
tp1796
assVmtrafeca
p1797
(dp1798
S'part2_correct_attempt'
p1799
(lp1800
S'1:12:26'
p1801
aV(55!)/(49!*6!)
p1802
asS'part1_correct_attempt'
p1803
(lp1804
S'0:00:00'
p1805
aV10
p1806
asg9
V2015-10-02 04:31:20
p1807
sS'part2_incorrect_attempt'
p1808
(lp1809
(S'0:01:23'
p1810
V55*54*53*52*51*50
p1811
tp1812
a(S'1:02:54'
p1813
V(54*53*52*51*50*49)/(6)
p1814
tp1815
assVcprafull
p1816
(dp1817
S'part2_correct_attempt'
p1818
(lp1819
S'5:49:35'
p1820
aV52!/(6!(46!))
p1821
asS'part1_correct_attempt'
p1822
(lp1823
S'0:00:00'
p1824
ag963
asg9
V2015-10-06 19:08:10
p1825
sS'part2_incorrect_attempt'
p1826
(lp1827
(S'0:01:03'
p1828
V52*48*44*40*36*32
p1829
tp1830
a(S'0:01:10'
p1831
V52*48*44*40*36*32/2
p1832
tp1833
a(S'0:12:53'
p1834
V52*51*50*49*48*47
p1835
tp1836
asss.