(dp0
V1
p1
ccollections
defaultdict
p2
(c__builtin__
list
p3
tp4
Rp5
S'Digits'
p6
(lp7
(V6*6
p8
V72
p9
tp10
a(V6*6
p11
V72
p12
tp13
a(V6*6
p14
V72
p15
tp16
a(V6*6
p17
V12
p18
tp19
a(g17
V24
p20
tp21
a(V6*6
p22
V72
p23
tp24
a(V6*6
p25
V72
p26
tp27
a(g22
V144
p28
tp29
a(V6*6
p30
V72
p31
tp32
a(g30
V66
p33
tp34
a(V6*6
p35
V35
p36
tp37
a(V6*6
p38
V72
p39
tp40
a(V6*6
p41
V72
p42
tp43
a(V6*6
p44
V72
p45
tp46
a(V6*6
p47
V60
p48
tp49
a(V6*6
p50
V72
p51
tp52
a(V6*6
p53
V12
p54
tp55
a(V6*6
p56
V518400
p57
tp58
a(g56
V1440
p59
tp60
a(g56
V30
p61
tp62
a(g56
V15
p63
tp64
a(V6*6
p65
V72
p66
tp67
a(V6*6
p68
V30
p69
tp70
a(V6*6
p71
V72
p72
tp73
a(V6*6
p74
V72
p75
tp76
a(V6*6
p77
V12
p78
tp79
a(V6*6
p80
V68
p81
tp82
a(g80
V12
p83
tp84
a(V6*6
p85
V72
p86
tp87
a(g85
V18
p88
tp89
a(V6*6
p90
V24
p91
tp92
a(V6*6
p93
V72
p94
tp95
a(g93
V66
p96
tp97
a(g93
V72
p98
tp99
a(V6*6
p100
V64
p101
tp102
a(g100
V58
p103
tp104
a(g100
V52
p105
tp106
a(g100
V60
p107
tp108
a(V6*6
p109
V72
p110
tp111
a(V6*6
p112
V12
p113
tp114
a(V6*6
p115
V720
p116
tp117
a(g115
V144
p118
tp119
a(V6*6
p120
V12
p121
tp122
a(g120
V24
p123
tp124
a(V6*6
p125
V72
p126
tp127
a(g125
V66
p128
tp129
a(V6*6
p130
V1440
p131
tp132
a(V6*6
p133
V72
p134
tp135
a(V6*6
p136
V12
p137
tp138
a(V6*6
p139
V72
p140
tp141
a(V6*6
p142
V24
p143
tp144
a(V6*6
p145
V72
p146
tp147
a(g145
V64
p148
tp149
a(g145
V30
p150
tp151
a(g145
V15
p152
tp153
a(V6*6
p154
V72
p155
tp156
asS"['R.1']"
p157
(lp158
(g17
V6*6*6
p159
(lp160
(S'R.1'
p161
F6.0
V6
p162
g162
tp163
atp164
a(V6*6
p165
V6! * 6! - 6
p166
(lp167
(S'R.1'
p168
F6.0
g162
g162
tp169
atp170
a(V6*6
p171
V2*6*6
p172
(lp173
(S'R.1'
p174
F6.0
g162
g162
tp175
atp176
assV3
p177
g2
(g3
tp178
Rp179
g6
(lp180
(V6*6-5*5
p181
V30
p182
tp183
a(g181
V12
p184
tp185
a(g181
V10
p186
tp187
a(V6*6-5*5
p188
V12
p189
tp190
a(g188
V2
p191
tp192
a(g188
V6
p193
tp194
a(g188
V7
p195
tp196
a(g188
V13
p197
tp198
a(V6*6-5*5
p199
V12
p200
tp201
a(V6*6-5*5
p202
V30
p203
tp204
a(g202
V36
p205
tp206
a(g202
V60
p207
tp208
a(g202
V36
p209
tp210
a(g202
V23
p211
tp212
a(g202
V22
p213
tp214
a(g202
V21
p215
tp216
a(g202
V20
p217
tp218
a(g202
V25
p219
tp220
a(g202
V15
p221
tp222
a(g202
V30
p223
tp224
a(g202
V31
p225
tp226
a(g202
V32
p227
tp228
a(g202
V72
p229
tp230
a(g202
V36
p231
tp232
a(g202
V0
p233
tp234
a(g202
V6
p235
tp236
a(g202
V5
p237
tp238
a(g202
V1
p239
tp240
a(g202
V5
p241
tp242
a(g202
V6
p243
tp244
a(g202
V12
p245
tp246
a(g202
V10
p247
tp248
a(V6*6-5*5
p249
V12
p250
tp251
a(V6*6-5*5
p252
V12
p253
tp254
a(V6*6-5*5
p255
V12
p256
tp257
a(g255
V6
p258
tp259
a(V6*6-5*5
p260
V30
p261
tp262
a(g260
V6
p263
tp264
a(g260
V12
p265
tp266
a(V6*6-5*5
p267
V12
p268
tp269
a(V6*6-5*5
p270
V60
p271
tp272
a(g270
V30
p273
tp274
a(g270
V66
p275
tp276
a(g270
V25
p277
tp278
a(g270
V50
p279
tp280
a(g270
V30
p281
tp282
a(g270
V60
p283
tp284
a(V6*6-5*5
p285
V6
p286
tp287
a(g285
V10
p288
tp289
a(V6*6-5*5
p290
V12
p291
tp292
a(V6*6-5*5
p293
V12
p294
tp295
a(V6*6-5*5
p296
V12
p297
tp298
a(V6*6-5*5
p299
V6
p300
tp301
a(g299
V5
p302
tp303
a(V6*6-5*5
p304
V6
p305
tp306
a(g304
V12
p307
tp308
a(V6*6-5*5
p309
V30
p310
tp311
a(g309
V12
p312
tp313
a(g309
V10
p314
tp315
a(V6*6-5*5
p316
V7
p317
tp318
a(V6*6-5*5
p319
V3
p320
tp321
a(V6*6-5*5
p322
V30
p323
tp324
a(g322
V12
p325
tp326
a(V6*6-5*5
p327
V6
p328
tp329
a(g327
V3
p330
tp331
a(g327
V6
p332
tp333
a(g327
V30
p334
tp335
a(g327
V12
p336
tp337
a(V6*6-5*5
p338
V12
p339
tp340
a(V6*6-5*5
p341
V12
p342
tp343
a(g341
V6
p344
tp345
a(V6*6-5*5
p346
V6
p347
tp348
a(V6*6-5*5
p349
V12
p350
tp351
a(V6*6-5*5
p352
V13
p353
tp354
a(g352
V9
p355
tp356
a(V6*6-5*5
p357
V12
p358
tp359
a(g357
V13
p360
tp361
a(V6*6-5*5
p362
V6
p363
tp364
a(V6*6-5*5
p365
V30
p366
tp367
a(g365
V6
p368
tp369
a(V6*6-5*5
p370
V12
p371
tp372
a(V6*6-5*5
p373
V10
p374
tp375
a(g373
V12
p376
tp377
a(V6*6-5*5
p378
V12
p379
tp380
a(V6*6-5*5
p381
V12
p382
tp383
a(V6*6-5*5
p384
V13
p385
tp386
a(V6*6-5*5
p387
V10
p388
tp389
a(V6*6-5*5
p390
V12
p391
tp392
a(g390
V10
p393
tp394
a(V6*6-5*5
p395
V12
p396
tp397
a(V6*6-5*5
p398
V12
p399
tp400
a(V6*6-5*5
p401
V30
p402
tp403
a(g401
V1
p404
tp405
a(V6*6-5*5
p406
V5
p407
tp408
a(g406
V6
p409
tp410
a(V6*6-5*5
p411
V3
p412
tp413
a(g411
V30
p414
tp415
a(g411
V6
p416
tp417
a(V6*6-5*5
p418
V12
p419
tp420
a(V6*6-5*5
p421
V12
p422
tp423
a(V6*6-5*5
p424
V13
p425
tp426
a(g401
V6
p427
tp428
a(g401
V12
p429
tp430
a(g401
V10
p431
tp432
a(g401
V5
p433
tp434
a(g401
V35
p435
tp436
a(V6*6-5*5
p437
V35
p438
tp439
a(g437
V9
p440
tp441
a(V6*6-5*5
p442
V3
p443
tp444
a(g442
V12
p445
tp446
a(V6*6-5*5
p447
V12
p448
tp449
a(V6*6-5*5
p450
V12
p451
tp452
a(g450
V13
p453
tp454
a(V6*6-5*5
p455
V6
p456
tp457
a(g455
V12
p458
tp459
a(g455
V10
p460
tp461
a(g455
V6
p462
tp463
a(V6*6-5*5
p464
V12
p465
tp466
a(V6*6-5*5
p467
V96
p468
tp469
a(V6*6-5*5
p470
V6
p471
tp472
a(g470
V12
p473
tp474
a(V6*6-5*5
p475
V12
p476
tp477
a(g475
V10
p478
tp479
a(V6*6-5*5
p480
V12
p481
tp482
a(V6*6-5*5
p483
V6
p484
tp485
a(V6*6-5*5
p486
V12
p487
tp488
a(g486
V14
p489
tp490
a(V6*6-5*5
p491
V6
p492
tp493
a(g491
V12
p494
tp495
a(g491
V10
p496
tp497
a(V6*6-5*5
p498
V22
p499
tp500
a(g498
V25
p501
tp502
a(g498
V24
p503
tp504
a(V6*6-5*5
p505
V3
p506
tp507
a(V6*6-5*5
p508
V12
p509
tp510
a(V6*6-5*5
p511
V10
p512
tp513
a(g511
V13
p514
tp515
a(V6*6-5*5
p516
V6
p517
tp518
a(V6*6-5*5
p519
V12
p520
tp521
a(g519
V10
p522
tp523
a(g519
V12
p524
tp525
a(g519
V6
p526
tp527
a(V6*6-5*5
p528
V26
p529
tp530
a(g528
V36
p531
tp532
a(g528
V10
p533
tp534
a(V6*6-5*5
p535
V12
p536
tp537
a(g535
V6
p538
tp539
a(g535
V12
p540
tp541
a(g535
V13
p542
tp543
a(V6*6-5*5
p544
V12
p545
tp546
a(g544
V13
p547
tp548
a(g544
V14
p549
tp550
a(V6*6-5*5
p551
V3
p552
tp553
a(g551
V13
p554
tp555
a(V6*6-5*5
p556
V30
p557
tp558
a(V6*6-5*5
p559
V30
p560
tp561
a(g559
V6
p562
tp563
a(V6*6-5*5
p564
V6
p565
tp566
a(g564
V12
p567
tp568
a(g564
V10
p569
tp570
a(g564
V5
p571
tp572
a(V6*6-5*5
p573
V6
p574
tp575
a(g573
V5
p576
tp577
a(V6*6-5*5
p578
V12
p579
tp580
a(g578
V6
p581
tp582
a(g578
V12
p583
tp584
a(g578
V36
p585
tp586
a(g578
V6
p587
tp588
a(V6*6-5*5
p589
V6
p590
tp591
a(V6*6-5*5
p592
V6
p593
tp594
a(g592
V12
p595
tp596
a(V6*6-5*5
p597
V30
p598
tp599
a(g597
V12
p600
tp601
a(g597
V6
p602
tp603
a(g597
V13
p604
tp605
a(V6*6-5*5
p606
V25
p607
tp608
a(g606
V9
p609
tp610
a(V6*6-5*5
p611
V10
p612
tp613
a(g611
V30
p614
tp615
a(g611
V60
p616
tp617
a(g611
V35
p618
tp619
a(g611
V10
p620
tp621
a(g611
V260
p622
tp623
a(V6*6-5*5
p624
V12
p625
tp626
a(V6*6-5*5
p627
V86400
p628
tp629
a(V6*6-5*5
p630
V30
p631
tp632
a(g630
V31
p633
tp634
a(g630
V36
p635
tp636
a(g630
V12
p637
tp638
a(V6*6-5*5
p639
V12
p640
tp641
a(g639
V6
p642
tp643
a(V6*6-5*5
p644
V12
p645
tp646
a(V6*6-5*5
p647
V30
p648
tp649
a(g647
V5
p650
tp651
a(g647
V10
p652
tp653
a(g647
V12
p654
tp655
a(V6*6-5*5
p656
V6
p657
tp658
a(g656
V12
p659
tp660
a(V6*6-5*5
p661
V12
p662
tp663
a(V6*6-5*5
p664
V12
p665
tp666
a(V6*6-5*5
p667
V12
p668
tp669
a(V6*6-5*5
p670
V30
p671
tp672
a(g670
V5
p673
tp674
a(g670
V36
p675
tp676
a(g670
V12
p677
tp678
a(V6*6-5*5
p679
V4
p680
tp681
a(g679
V3
p682
tp683
a(g679
V2
p684
tp685
a(V6*6-5*5
p686
V3
p687
tp688
a(g686
V2
p689
tp690
a(g686
V4
p691
tp692
a(g686
V1
p693
tp694
a(g686
V5
p695
tp696
a(g686
V6
p697
tp698
a(g686
V7
p699
tp700
a(g686
V8
p701
tp702
a(g686
V9
p703
tp704
a(V6*6-5*5
p705
V7
p706
tp707
a(g705
V12
p708
tp709
a(V6*6-5*5
p710
V13
p711
tp712
a(V6*6-5*5
p713
V12
p714
tp715
a(g713
V6
p716
tp717
a(g710
V3
p718
tp719
a(g710
V13
p720
tp721
a(V6*6-5*5
p722
V12
p723
tp724
a(g722
V13
p725
tp726
a(g722
V14
p727
tp728
a(V6*6-5*5
p729
V6
p730
tp731
a(g729
V12
p732
tp733
a(g729
V10
p734
tp735
a(V6*6-5*5
p736
V12
p737
tp738
a(V6*6-5*5
p739
V6
p740
tp741
a(g739
V10
p742
tp743
a(g739
V5
p744
tp745
a(V6*6-5*5
p746
V12
p747
tp748
a(g739
V12
p749
tp750
a(g746
V10
p751
tp752
a(g739
V13
p753
tp754
a(g746
V25
p755
tp756
a(g746
V13
p757
tp758
a(V6*6-5*5
p759
V6
p760
tp761
a(g759
V12
p762
tp763
a(V6*6-5*5
p764
V12
p765
tp766
a(V6*6-5*5
p767
V6
p768
tp769
a(g767
V7
p770
tp771
a(g767
V12
p772
tp773
a(g767
V24
p774
tp775
a(g767
V36
p776
tp777
a(g767
V6
p778
tp779
a(g767
V5
p780
tp781
a(g767
V1
p782
tp783
a(g767
V2
p784
tp785
a(g767
V3
p786
tp787
a(g767
V4
p788
tp789
a(g767
V5
p790
tp791
a(g767
V6
p792
tp793
a(g767
V7
p794
tp795
a(g767
V8
p796
tp797
a(g767
V720
p798
tp799
a(g767
V9
p800
tp801
a(g767
V10
p802
tp803
a(V6*6-5*5
p804
V26
p805
tp806
a(g804
V12
p807
tp808
a(V6*6-5*5
p809
V6
p810
tp811
a(V6*6-5*5
p812
V12
p813
tp814
a(V6*6-5*5
p815
V2
p816
tp817
a(g815
V1
p818
tp819
a(g815
V6
p820
tp821
a(g815
V12
p822
tp823
a(V6*6-5*5
p824
V3
p825
tp826
a(V6*6-5*5
p827
V30
p828
tp829
a(g827
V6
p830
tp831
a(g827
V12
p832
tp833
a(g827
V13
p834
tp835
a(g827
V14
p836
tp837
a(V6*6-5*5
p838
V10
p839
tp840
a(V6*6-5*5
p841
V12
p842
tp843
a(g841
V36
p844
tp845
a(g841
V6
p846
tp847
a(g841
V10
p848
tp849
a(g841
V25
p850
tp851
a(g841
V36
p852
tp853
a(g841
V5
p854
tp855
a(g841
V6
p856
tp857
a(g841
V12
p858
tp859
a(g841
V12
p860
tp861
a(g841
V10
p862
tp863
a(V6*6-5*5
p864
V12
p865
tp866
a(g864
V13
p867
tp868
a(V6*6-5*5
p869
V12
p870
tp871
a(V6*6-5*5
p872
V30
p873
tp874
a(g872
V36
p875
tp876
a(V6*6-5*5
p877
V12
p878
tp879
a(V6*6-5*5
p880
V12
p881
tp882
a(V6*6-5*5
p883
V3
p884
tp885
a(g883
V13
p886
tp887
a(g883
V12
p888
tp889
a(g883
V10
p890
tp891
a(V6*6-5*5
p892
V12
p893
tp894
a(V6*6-5*5
p895
V12
p896
tp897
a(V6*6-5*5
p898
V12
p899
tp900
a(g898
V36
p901
tp902
a(g898
V10
p903
tp904
a(g880
V20
p905
tp906
a(V6*6-5*5
p907
V12
p908
tp909
a(V6*6-5*5
p910
V12
p911
tp912
a(V6*6-5*5
p913
V12
p914
tp915
a(g913
V6
p916
tp917
a(g913
V12
p918
tp919
a(g913
V10
p920
tp921
a(g913
V12
p922
tp923
a(V6*6-5*5
p924
V30
p925
tp926
a(g924
V36
p927
tp928
a(g924
V6
p929
tp930
a(g924
V12
p931
tp932
a(V6*6-5*5
p933
V24
p934
tp935
a(V6*6-5*5
p936
V12
p937
tp938
a(g936
V10
p939
tp940
a(g936
V6
p941
tp942
a(g936
V10
p943
tp944
a(V6*6-5*5
p945
V12
p946
tp947
a(V6*6-5*5
p948
V12
p949
tp950
a(g948
V6
p951
tp952
a(g948
V7
p953
tp954
a(g948
V5
p955
tp956
a(g948
V1
p957
tp958
a(g948
V2
p959
tp960
a(g948
V24
p961
tp962
a(V6*6-5*5
p963
V30
p964
tp965
a(g963
V26
p966
tp967
a(g963
V31
p968
tp969
a(V6*6-5*5
p970
V10
p971
tp972
a(g970
V12
p973
tp974
a(g970
V25
p975
tp976
a(g535
V6
p977
tp978
a(g970
V12
p979
tp980
a(V6*6-5*5
p981
V12
p982
tp983
a(g401
V5
p984
tp985
a(g401
V10
p986
tp987
a(g401
V20
p988
tp989
a(g401
V24
p990
tp991
a(g401
V12
p992
tp993
a(g401
V35
p994
tp995
a(g401
V12
p996
tp997
a(V6*6-5*5
p998
V6
p999
tp1000
a(g998
V12
p1001
tp1002
a(V6*6-5*5
p1003
V6
p1004
tp1005
a(g1003
V5
p1006
tp1007
a(g1003
V10
p1008
tp1009
a(V6*6-5*5
p1010
V12
p1011
tp1012
a(V6*6-5*5
p1013
V12
p1014
tp1015
a(g1013
V6
p1016
tp1017
a(V6*6-5*5
p1018
V12
p1019
tp1020
a(V6*6-5*5
p1021
V12
p1022
tp1023
a(V6*6-5*5
p1024
V2
p1025
tp1026
a(g1024
V4
p1027
tp1028
a(g1021
V13
p1029
tp1030
a(V6*6-5*5
p1031
V6
p1032
tp1033
a(V6*6-5*5
p1034
V12
p1035
tp1036
a(g1034
V10
p1037
tp1038
a(V6*6-5*5
p1039
V12
p1040
tp1041
a(V6*6-5*5
p1042
V6
p1043
tp1044
a(g1042
V30
p1045
tp1046
a(V6*6-5*5
p1047
V12
p1048
tp1049
a(g1042
V5
p1050
tp1051
a(g1042
V6
p1052
tp1053
a(g739
V5
p1054
tp1055
a(g739
V14
p1056
tp1057
a(g1042
V10
p1058
tp1059
a(g1042
V12
p1060
tp1061
a(g1042
V30
p1062
tp1063
a(g1042
V12
p1064
tp1065
a(g739
V36
p1066
tp1067
a(g1042
V15
p1068
tp1069
a(V6*6-5*5
p1070
V3
p1071
tp1072
a(g1070
V2
p1073
tp1074
a(g1070
V1
p1075
tp1076
a(g1070
V3
p1077
tp1078
a(g1070
V36
p1079
tp1080
a(g1070
V4
p1081
tp1082
a(V6*6-5*5
p1083
V12
p1084
tp1085
a(g1083
V13
p1086
tp1087
a(V6*6-5*5
p1088
V12
p1089
tp1090
a(V6*6-5*5
p1091
V36
p1092
tp1093
a(g1091
V12
p1094
tp1095
a(V6*6-5*5
p1096
V30
p1097
tp1098
a(g1096
V12
p1099
tp1100
a(V6*6-5*5
p1101
V12
p1102
tp1103
a(V6*6-5*5
p1104
V6
p1105
tp1106
a(V6*6-5*5
p1107
V12
p1108
tp1109
a(V6*6-5*5
p1110
V12
p1111
tp1112
a(g597
V48
p1113
tp1114
a(g597
V42
p1115
tp1116
a(V6*6-5*5
p1117
V12
p1118
tp1119
a(V6*6-5*5
p1120
V12
p1121
tp1122
a(V6*6-5*5
p1123
V12
p1124
tp1125
a(V6*6-5*5
p1126
V2
p1127
tp1128
a(g1126
V3
p1129
tp1130
a(g1126
V1
p1131
tp1132
a(g1126
V13
p1133
tp1134
a(g1126
V14
p1135
tp1136
a(g1126
V12
p1137
tp1138
a(V6*6-5*5
p1139
V12
p1140
tp1141
a(V6*6-5*5
p1142
V30
p1143
tp1144
a(V6*6-5*5
p1145
V3
p1146
tp1147
a(V6*6-5*5
p1148
V12
p1149
tp1150
a(g1148
V9
p1151
tp1152
a(g1148
V13
p1153
tp1154
a(V6*6-5*5
p1155
V12
p1156
tp1157
a(V6*6-5*5
p1158
V13
p1159
tp1160
a(V6*6-5*5
p1161
V10
p1162
tp1163
a(g1161
V12
p1164
tp1165
a(g1161
V6
p1166
tp1167
a(V6*6-5*5
p1168
V30
p1169
tp1170
a(g1168
V6
p1171
tp1172
a(g1168
V12
p1173
tp1174
a(V6*6-5*5
p1175
V12
p1176
tp1177
a(g1175
V6
p1178
tp1179
a(g1175
V10
p1180
tp1181
a(V6*6-5*5
p1182
V34
p1183
tp1184
a(V6*6-5*5
p1185
V6
p1186
tp1187
a(V6*6-5*5
p1188
V96
p1189
tp1190
a(g1185
V30
p1191
tp1192
a(g1185
V26
p1193
tp1194
a(g1185
V12
p1195
tp1196
a(V6*6-5*5
p1197
V12
p1198
tp1199
a(V6*6-5*5
p1200
V12
p1201
tp1202
a(V6*6-5*5
p1203
V6
p1204
tp1205
a(V6*6-5*5
p1206
V12
p1207
tp1208
a(g1206
V6
p1209
tp1210
a(V6*6-5*5
p1211
V12
p1212
tp1213
a(g1211
V6
p1214
tp1215
a(g1211
V12
p1216
tp1217
a(V6*6-5*5
p1218
V12
p1219
tp1220
a(g1218
V10
p1221
tp1222
a(V6*6-5*5
p1223
V12
p1224
tp1225
asS"['R.0']"
p1226
(lp1227
(g202
V36/6
p1228
(lp1229
(S'R.0'
p1230
F36.0
V6*6
p1231
V36
p1232
tp1233
atp1234
a(g406
V6*6*2
p1235
(lp1236
(S'R.0'
p1237
F36.0
V6*6
p1238
V6*6
p1239
tp1240
atp1241
asS'Wrong_Sign'
p1242
(lp1243
(g299
V1-5^2
p1244
tp1245
asS"['R.0.1']"
p1246
(lp1247
(g252
V5*6*2
p1248
(lp1249
(S'R.0.1'
p1250
F6.0
g162
g162
tp1251
atp1252
a(g406
V5*6*2
p1253
(lp1254
(S'R.0.1'
p1255
F6.0
g162
g162
tp1256
atp1257
a(V6*6-5*5
p1258
V5*6+6*5
p1259
(lp1260
(S'R.0.1'
p1261
F6.0
g162
g162
tp1262
atp1263
a(V6*6-5*5
p1264
V2*6*1
p1265
(lp1266
(S'R.0.1'
p1267
F6.0
g162
g162
tp1268
atp1269
a(g1264
V2*6*1
p1270
(lp1271
(S'R.0.1'
p1272
F6.0
g162
g162
tp1273
atp1274
asS'Fraction'
p1275
(lp1276
(V6*6-5*5
p1277
V3/36
p1278
tp1279
a(g1277
V4/36
p1280
tp1281
a(g1277
V13/36
p1282
tp1283
a(g1277
V12/36
p1284
tp1285
a(g1277
V11/36
p1286
tp1287
a(V6*6-5*5
p1288
V1/6 + 1/6
p1289
tp1290
a(V6*6-5*5
p1291
V1- (5/6)**2
p1292
tp1293
a(g1291
V1- (5**2/6**2)
p1294
tp1295
a(g1291
V11/36
p1296
tp1297
a(g1291
V1 - (25/36)
p1298
tp1299
a(g528
V1/18
p1300
tp1301
a(g556
V11/36
p1302
tp1303
a(g606
V1/3
p1304
tp1305
a(g639
V1/3
p1306
tp1307
a(V6*6-5*5
p1308
V(5/6)*(1/6) *2 + (1/6)^2
p1309
tp1310
a(g841
V1/5
p1311
tp1312
a(g841
V1/36
p1313
tp1314
a(g924
V36/30
p1315
tp1316
a(g981
V2/36
p1317
tp1318
a(g981
V4/36
p1319
tp1320
a(g981
V12/36
p1321
tp1322
a(V6*6-5*5
p1323
V1-(25/36)
p1324
tp1325
a(g1070
V3/36
p1326
tp1327
a(g1070
V2/36
p1328
tp1329
a(g1070
V1/36
p1330
tp1331
a(g1070
V2/6
p1332
tp1333
a(g1070
V11/36
p1334
tp1335
a(g1126
V2/36
p1336
tp1337
a(g1126
V3/36
p1338
tp1339
a(g1142
V1/36
p1340
tp1341
a(g1148
V2/36
p1342
tp1343
assV2
p1344
g2
(g3
tp1345
Rp1346
g6
(lp1347
(V5*5
p1348
V68
p1349
tp1350
a(g1348
V34
p1351
tp1352
a(g1348
V30
p1353
tp1354
a(V5*5
p1355
V34
p1356
tp1357
a(g1355
V30
p1358
tp1359
a(g1355
V24
p1360
tp1361
a(g1355
V20
p1362
tp1363
a(g1355
V14
p1364
tp1365
a(V5*5
p1366
V60
p1367
tp1368
a(V5*5
p1369
V50
p1370
tp1371
a(V5*5
p1372
V12
p1373
tp1374
a(g1372
V11
p1375
tp1376
a(V5*5
p1377
V72
p1378
tp1379
a(V5*5
p1380
V30
p1381
tp1382
a(g1380
V24
p1383
tp1384
a(V5*5
p1385
V33
p1386
tp1387
a(V5*5
p1388
V33
p1389
tp1390
a(g1388
V30
p1391
tp1392
a(g1388
V6
p1393
tp1394
a(V5*5
p1395
V50
p1396
tp1397
a(g1377
V30
p1398
tp1399
a(V5*5
p1400
V69
p1401
tp1402
a(g1400
V63
p1403
tp1404
a(g1400
V33
p1405
tp1406
a(g1400
V30
p1407
tp1408
a(V5*5
p1409
V34
p1410
tp1411
a(g1409
V35
p1412
tp1413
a(g1409
V30
p1414
tp1415
a(V5*5
p1416
V1
p1417
tp1418
a(V5*5
p1419
V33
p1420
tp1421
a(V5*5
p1422
V24
p1423
tp1424
a(V5*5
p1425
V30
p1426
tp1427
a(g1425
V24
p1428
tp1429
a(V5*5
p1430
V19
p1431
tp1432
a(V5*5
p1433
V50
p1434
tp1435
a(V5*5
p1436
V24
p1437
tp1438
a(V5*5
p1439
V30
p1440
tp1441
a(V5*5
p1442
V50
p1443
tp1444
a(g1442
V11
p1445
tp1446
a(g1442
V12
p1447
tp1448
a(V5*5
p1449
V29
p1450
tp1451
a(g1449
V28
p1452
tp1453
a(g1449
V30
p1454
tp1455
a(g1449
V24
p1456
tp1457
a(g1449
V23
p1458
tp1459
a(V5*5
p1460
V50
p1461
tp1462
a(V5*5
p1463
V34
p1464
tp1465
a(g1463
V24
p1466
tp1467
a(V5*5
p1468
V33
p1469
tp1470
a(V5*5
p1471
V30
p1472
tp1473
a(V5*5
p1474
V50
p1475
tp1476
a(V5*5
p1477
V34
p1478
tp1479
a(g1477
V33
p1480
tp1481
a(g1477
V30
p1482
tp1483
a(g1477
V31
p1484
tp1485
a(g1477
V32
p1486
tp1487
a(g1477
V33
p1488
tp1489
a(g1477
V34
p1490
tp1491
a(g1477
V35
p1492
tp1493
a(g1477
V24
p1494
tp1495
a(g1477
V20
p1496
tp1497
a(g1477
V21
p1498
tp1499
a(g1477
V22
p1500
tp1501
a(g1477
V23
p1502
tp1503
a(g1477
V26
p1504
tp1505
a(g1477
V27
p1506
tp1507
a(g1477
V28
p1508
tp1509
a(g1477
V29
p1510
tp1511
a(g1477
V23
p1512
tp1513
a(V5*5
p1514
V14400
p1515
tp1516
a(V5*5
p1517
V30
p1518
tp1519
a(g1517
V24
p1520
tp1521
a(V5*5
p1522
V34
p1523
tp1524
a(g1522
V24
p1525
tp1526
a(g1522
V26
p1527
tp1528
a(V5*5
p1529
V50
p1530
tp1531
a(V5*5
p1532
V26
p1533
tp1534
a(g1532
V33
p1535
tp1536
a(g1532
V34
p1537
tp1538
a(V5*5
p1539
V24
p1540
tp1541
a(V5*5
p1542
V69
p1543
tp1544
a(V5*5
p1545
V60
p1546
tp1547
a(g1545
V24
p1548
tp1549
a(V5*5
p1550
V24
p1551
tp1552
a(V5*5
p1553
V34
p1554
tp1555
a(V5*5
p1556
V24
p1557
tp1558
a(V5*5
p1559
V24
p1560
tp1561
a(V5*5
p1562
V33
p1563
tp1564
a(V5*5
p1565
V33
p1566
tp1567
a(V5*5
p1568
V34
p1569
tp1570
a(V5*5
p1571
V33
p1572
tp1573
a(V5*5
p1574
V34
p1575
tp1576
a(V5*5
p1577
V24
p1578
tp1579
a(V5*5
p1580
V24
p1581
tp1582
a(V5*5
p1583
V70
p1584
tp1585
a(g1583
V64
p1586
tp1587
a(V5*5
p1588
V55
p1589
tp1590
a(V5*5
p1591
V24
p1592
tp1593
a(V5*5
p1594
V120
p1595
tp1596
a(g1594
V100
p1597
tp1598
a(g1588
V24
p1599
tp1600
a(V5*5
p1601
V33
p1602
tp1603
a(V5*5
p1604
V24
p1605
tp1606
a(V5*5
p1607
V6
p1608
tp1609
a(g1607
V12
p1610
tp1611
a(g1607
V11
p1612
tp1613
a(g1607
V30
p1614
tp1615
a(g1607
V18
p1616
tp1617
a(g1607
V24
p1618
tp1619
a(V5*5
p1620
V50
p1621
tp1622
a(g1620
V45
p1623
tp1624
a(V5*5
p1625
V24
p1626
tp1627
a(V5*5
p1628
V24
p1629
tp1630
a(V5*5
p1631
V34
p1632
tp1633
a(V5*5
p1634
V240
p1635
tp1636
a(V5*5
p1637
V24
p1638
tp1639
a(V5*5
p1640
V50
p1641
tp1642
a(V5*5
p1643
V24
p1644
tp1645
a(V5*5
p1646
V24
p1647
tp1648
a(V5*5
p1649
V34
p1650
tp1651
a(g1649
V32
p1652
tp1653
a(V5*5
p1654
V24
p1655
tp1656
a(V5*5
p1657
V33
p1658
tp1659
a(g1657
V34
p1660
tp1661
a(V5*5
p1662
V60
p1663
tp1664
a(g1662
V30
p1665
tp1666
a(V5*5
p1667
V24
p1668
tp1669
a(V5*5
p1670
V24
p1671
tp1672
a(V5*5
p1673
V50
p1674
tp1675
a(V5*5
p1676
V30
p1677
tp1678
a(g1676
V24
p1679
tp1680
a(V5*5
p1681
V50
p1682
tp1683
asS"['R.1']"
p1684
(lp1685
(V5*5
p1686
V2*5*5
p1687
(lp1688
(S'R.1'
p1689
F5.0
V5
p1690
g1690
tp1691
atp1692
asg1275
(lp1693
(V5*5
p1694
V25/36
p1695
tp1696
a(V5*5
p1697
V33/36
p1698
tp1699
a(g1697
V32/36
p1700
tp1701
a(g1697
V23/36
p1702
tp1703
a(g1697
V24/36
p1704
tp1705
a(g1697
V25/36
p1706
tp1707
a(g1697
V(5*5)/(6*6)
p1708
tp1709
a(g1425
V1/6
p1710
tp1711
a(V5*5
p1712
V25/36
p1713
tp1714
a(V5*5
p1715
V36/25
p1716
tp1717
a(V5*5
p1718
V25/36
p1719
tp1720
a(V5*5
p1721
V25/(6*6)
p1722
tp1723
a(g1649
V34/36
p1724
tp1725
a(V5*5
p1726
V34/36
p1727
tp1728
ass.