(dp0
V1
p1
ccollections
defaultdict
p2
(c__builtin__
list
p3
tp4
Rp5
S'Digits'
p6
(lp7
(V6
p8
V9
p9
tp10
a(V6
p11
V27
p12
tp13
a(g11
V3
p14
tp15
a(V6
p16
V3
p17
tp18
a(V6
p19
V9
p20
tp21
a(V6
p22
V3
p23
tp24
a(g22
V9
p25
tp26
a(g22
V4
p27
tp28
a(g22
V5
p29
tp30
a(V6
p31
V9
p32
tp33
a(V6
p34
V3
p35
tp36
a(V6
p37
V9
p38
tp39
a(V6
p40
V9
p41
tp42
a(V6
p43
V3
p44
tp45
a(V6
p46
V27
p47
tp48
a(V6
p49
V27
p50
tp51
a(V6
p52
V9
p53
tp54
a(g52
V8
p55
tp56
a(V6
p57
V9
p58
tp59
a(V6
p60
V3
p61
tp62
a(V6
p63
V9
p64
tp65
a(g63
V27
p66
tp67
a(V6
p68
V8
p69
tp70
a(V6
p71
V9
p72
tp73
a(V6
p74
V9
p75
tp76
a(V6
p77
V5
p78
tp79
a(V6
p80
V540320
p81
tp82
a(g80
V5
p83
tp84
a(V6
p85
V12
p86
tp87
a(V6
p88
V9
p89
tp90
a(g88
V9
p91
tp92
a(g88
V5
p93
tp94
a(V6
p95
V4
p96
tp97
a(g95
V5
p98
tp99
assV2
p100
g2
(g3
tp101
Rp102
g6
(lp103
(V362880
p104
V81
p105
tp106
a(V720
p107
V240
p108
tp109
a(V5040
p110
V26880
p111
tp112
a(V40320
p113
V64
p114
tp115
a(V40320
p116
V56
p117
tp118
a(g116
V5040
p119
tp120
a(V120
p121
V3125
p122
tp123
a(V720
p124
V25
p125
tp126
a(g124
V20
p127
tp128
a(g124
V21
p129
tp130
a(g124
V22
p131
tp132
a(g124
V23
p133
tp134
a(g124
V30
p135
tp136
a(g124
V29
p137
tp138
a(g124
V20
p139
tp140
a(g124
V21
p141
tp142
a(g124
V22
p143
tp144
a(g124
V23
p145
tp146
a(g124
V24
p147
tp148
a(g124
V25
p149
tp150
a(V5040
p151
V49
p152
tp153
a(g151
V42
p154
tp155
a(V720
p156
V10368
p157
tp158
a(g156
V1944
p159
tp160
a(V5040
p161
V42
p162
tp163
a(V40320
p164
V40,320
p165
tp166
a(V720
p167
V36
p168
tp169
a(V24
p170
V10
p171
tp172
a(V24
p173
V4
p174
tp175
a(g173
V12
p176
tp177
a(g173
V16
p178
tp179
a(g173
V15
p180
tp181
a(g173
V16
p182
tp183
a(g173
V12
p184
tp185
a(V720
p186
V24883200
p187
tp188
a(V5040
p189
V823543
p190
tp191
a(V120
p192
V720
p193
tp194
ass.