(dp0
V1
p1
(dp2
Vsayao
p3
(dp4
S'part1_correct_attempt'
p5
(lp6
S'0:00:27'
p7
aV3*2
p8
asS'first_attempt'
p9
V2015-10-03 00:42:58
p10
sS'part1_incorrect_attempt'
p11
(lp12
(S'0:00:00'
p13
V3^3
p14
tp15
assVdlgoldbe
p16
(dp17
S'part1_correct_attempt'
p18
(lp19
S'0:00:34'
p20
aV(3*2)
p21
asg9
V2015-10-08 00:55:33
p22
sS'part1_incorrect_attempt'
p23
(lp24
(S'0:00:00'
p25
VP(3,3)
p26
tp27
assVdmn009
p28
(dp29
S'part1_correct_attempt'
p30
(lp31
S'0:04:30'
p32
aV6
p33
asg9
V2015-10-08 08:55:16
p34
sS'part1_incorrect_attempt'
p35
(lp36
(S'0:00:00'
p37
V3^2
p38
tp39
a(S'0:01:36'
p40
V2^3
p41
tp42
a(S'0:01:49'
p43
V2^2
p44
tp45
assVjfalcone
p46
(dp47
S'part1_correct_attempt'
p48
(lp49
S'0:00:51'
p50
aV3!
p51
asg9
V2015-10-07 03:02:51
p52
sS'part1_incorrect_attempt'
p53
(lp54
(S'0:00:00'
p55
V3*3*3
p56
tp57
assValhung
p58
(dp59
S'part1_correct_attempt'
p60
(lp61
S'0:00:11'
p62
aV3!
p63
asg9
V2015-10-08 06:53:58
p64
sS'part1_incorrect_attempt'
p65
(lp66
(S'0:00:00'
p67
V(3!)/2!
p68
tp69
assVtpmach
p70
(dp71
S'part1_correct_attempt'
p72
(lp73
S'0:00:12'
p74
aV3!
p75
asg9
V2015-10-03 21:01:28
p76
sS'part1_incorrect_attempt'
p77
(lp78
(S'0:00:00'
p79
V3^3
p80
tp81
assVsyc078
p82
(dp83
S'part1_correct_attempt'
p84
(lp85
S'0:02:04'
p86
aV6
p87
asg9
V2015-10-08 19:06:10
p88
sS'part1_incorrect_attempt'
p89
(lp90
(S'0:00:00'
p91
VP(3, 3)
p92
tp93
assVpcdo
p94
(dp95
S'part1_correct_attempt'
p96
(lp97
S'0:00:46'
p98
aV3!
p99
asg9
V2015-10-06 19:38:54
p100
sS'part1_incorrect_attempt'
p101
(lp102
(S'0:00:00'
p103
V3!2!
p104
tp105
assVsmohiman
p106
(dp107
S'part1_correct_attempt'
p108
(lp109
S'18:22:02'
p110
aV3*2*1
p111
asg9
V2015-10-02 02:02:41
p112
sS'part1_incorrect_attempt'
p113
(lp114
(S'0:00:00'
p115
V3!/2!
p116
tp117
a(S'0:01:49'
p118
V3*2*1/2*1
p119
tp120
a(S'0:02:13'
p121
V(3*2*1)/(2*1)
p122
tp123
asssV2
p124
(dp125
Vsyc078
p126
(dp127
S'part2_correct_attempt'
p128
(lp129
S'0:00:00'
p130
aV40320
p131
asg9
V2015-10-08 19:08:14
p132
sS'part2_incorrect_attempt'
p133
(lp134
(S'-1 day, 23:58:17'
p135
VP(8, 8)
p136
tp137
assVkvass
p138
(dp139
S'part2_correct_attempt'
p140
(lp141
S'0:00:00'
p142
aV6!
p143
asg9
V2015-10-04 20:19:16
p144
sS'part2_incorrect_attempt'
p145
(lp146
(S'-1 day, 23:57:58'
p147
V6**6
p148
tp149
assVjfalcone
p150
(dp151
S'part2_correct_attempt'
p152
(lp153
S'0:00:00'
p154
aV8!
p155
asg9
V2015-10-07 03:03:42
p156
sS'part2_incorrect_attempt'
p157
(lp158
(S'-1 day, 23:59:09'
p159
V8^8
p160
tp161
asss.