(dp0
V1
p1
(dp2
sV3
p3
(dp4
Vdgunawan
p5
(dp6
S'part3_correct_attempt'
p7
(lp8
S'0:00:24'
p9
aV(1/10) * 8
p10
asS'part2_correct_attempt'
p11
(lp12
S'0:00:18'
p13
aV8
p14
asS'part1_correct_attempt'
p15
(lp16
S'0:00:00'
p17
aV10
p18
asS'first_attempt'
p19
V2015-10-08 23:22:46
p20
sS'part3_incorrect_attempt'
p21
(lp22
(S'0:00:18'
p23
V(1*10) * 8
p24
tp25
assVmnrahman
p26
(dp27
S'part3_correct_attempt'
p28
(lp29
S'0:10:20'
p30
aV4/9
p31
asS'part2_correct_attempt'
p32
(lp33
S'0:00:57'
p34
aV8
p35
asS'part1_correct_attempt'
p36
(lp37
S'0:00:00'
p38
aV18
p39
asg19
V2015-10-08 03:37:42
p40
sS'part3_incorrect_attempt'
p41
(lp42
(S'0:01:06'
p43
V18/8
p44
tp45
a(S'0:01:19'
p46
V1/2
p47
tp48
a(S'0:06:43'
p49
V9/4
p50
tp51
assVjew037
p52
(dp53
S'part3_correct_attempt'
p54
(lp55
S'0:00:51'
p56
aV16/17
p57
asS'part2_correct_attempt'
p58
(lp59
S'0:00:17'
p60
aV16
p61
asS'part1_correct_attempt'
p62
(lp63
S'0:00:00'
p64
aV17
p65
asg19
V2015-10-06 02:15:19
p66
sS'part3_incorrect_attempt'
p67
(lp68
(S'0:00:32'
p69
V0.0625
p70
tp71
a(S'0:00:45'
p72
V.94
p73
tp74
assVvasharma
p75
(dp76
S'part3_correct_attempt'
p77
(lp78
S'0:00:13'
p79
aV8/15
p80
asS'part2_correct_attempt'
p81
(lp82
S'0:00:00'
p83
aV8
p84
asS'part1_correct_attempt'
p85
(lp86
S'0:00:00'
p87
aV15
p88
asg19
V2015-10-05 06:03:13
p89
sS'part3_incorrect_attempt'
p90
(lp91
(S'0:00:00'
p92
V1/8
p93
tp94
assVjnatale
p95
(dp96
S'part3_correct_attempt'
p97
(lp98
S'0:00:18'
p99
aV17/18
p100
asS'part2_correct_attempt'
p101
(lp102
S'0:00:00'
p103
aV17
p104
asS'part1_correct_attempt'
p105
(lp106
S'0:00:00'
p107
aV18
p108
asg19
V2015-10-08 00:11:26
p109
sS'part3_incorrect_attempt'
p110
(lp111
(S'0:00:00'
p112
V1/(17/18)
p113
tp114
a(S'0:00:10'
p115
V1/17
p116
tp117
assVasp025
p118
(dp119
S'part3_correct_attempt'
p120
(lp121
S'0:02:57'
p122
aV8/15
p123
asS'part2_correct_attempt'
p124
(lp125
S'0:00:31'
p126
aV8
p127
asS'part1_correct_attempt'
p128
(lp129
S'0:00:00'
p130
aV15
p131
asg19
V2015-10-08 06:12:50
p132
sS'part3_incorrect_attempt'
p133
(lp134
(S'0:01:50'
p135
V15/8
p136
tp137
a(S'0:01:57'
p138
V1/8
p139
tp140
assVagarango
p141
(dp142
S'part3_correct_attempt'
p143
(lp144
S'0:00:54'
p145
aV11/13
p146
asS'part2_correct_attempt'
p147
(lp148
S'0:00:26'
p149
aV11
p150
asS'part1_correct_attempt'
p151
(lp152
S'0:00:00'
p153
aV13
p154
asg19
V2015-10-08 19:54:10
p155
sS'part3_incorrect_attempt'
p156
(lp157
(S'0:00:26'
p158
V1/11
p159
tp160
assVj2phung
p161
(dp162
S'part3_correct_attempt'
p163
(lp164
S'0:00:23'
p165
aV18/20
p166
asS'part2_correct_attempt'
p167
(lp168
S'0:00:00'
p169
aV18
p170
asS'part1_correct_attempt'
p171
(lp172
S'0:00:00'
p173
aV20
p174
asg19
V2015-10-06 18:36:02
p175
sS'part3_incorrect_attempt'
p176
(lp177
(S'0:00:00'
p178
V1/18
p179
tp180
asssV2
p181
(dp182
Vanvan
p183
(dp184
S'part2_correct_attempt'
p185
(lp186
S'-1 day, 23:59:55'
p187
aV7
p188
asg19
V2015-10-03 07:42:57
p189
sS'part2_incorrect_attempt'
p190
(lp191
(S'-1 day, 23:59:35'
p192
V10/10
p193
tp194
assVmroknich
p195
(dp196
S'part2_correct_attempt'
p197
(lp198
S'0:09:11'
p199
aV10
p200
asg19
V2015-10-06 05:38:59
p201
sS'part2_incorrect_attempt'
p202
(lp203
(S'0:01:00'
p204
V10+9+8+7+6+5+4+3+2+1
p205
tp206
asss.