(dp0
V1
p1
(dp2
Vphodgson
p3
(dp4
S'part1_correct_attempt'
p5
(lp6
S'0:09:28'
p7
aVC(32,5) - C(20,5)
p8
asS'first_attempt'
p9
V2015-10-21 05:23:16
p10
sS'part1_incorrect_attempt'
p11
(lp12
(S'0:00:00'
p13
V(3*4)*C(8*4 -1, 4)
p14
tp15
a(S'0:00:00'
p16
V(3*4)*C(32 - 1, 4)
p17
tp18
a(S'0:00:00'
p19
VC(32,5)
p20
tp21
assVapokhare
p22
(dp23
S'part1_correct_attempt'
p24
(lp25
S'0:04:18'
p26
aVC(32,5)-C(20,5)
p27
asg9
V2015-10-21 17:57:54
p28
sS'part1_incorrect_attempt'
p29
(lp30
(S'0:00:00'
p31
VC(12,1)+C(12,2)+C(12,3)
p32
tp33
a(S'0:00:41'
p34
VC(52,5)-C(40,5)
p35
tp36
assVv4zhang
p37
(dp38
S'part1_correct_attempt'
p39
(lp40
S'0:21:39'
p41
aVC(32, 5)-C(20, 5)
p42
asg9
V2015-10-22 09:13:28
p43
sS'part1_incorrect_attempt'
p44
(lp45
(S'0:00:00'
p46
VC(32, 5)
p47
tp48
assVkbielawi
p49
(dp50
S'part1_correct_attempt'
p51
(lp52
S'0:00:16'
p53
aVC(32,5)-C(20,5)
p54
asg9
V2015-10-22 14:38:11
p55
sS'part1_incorrect_attempt'
p56
(lp57
(S'0:00:00'
p58
VC(52,5)-C(40,5)
p59
tp60
assVsrl006
p61
(dp62
S'part1_correct_attempt'
p63
(lp64
S'0:03:21'
p65
aV185872
p66
asg9
V2015-10-22 05:40:25
p67
sS'part1_incorrect_attempt'
p68
(lp69
(S'0:00:00'
p70
VC(52,5) - C(40,5)
p71
tp72
assVjguanzho
p73
(dp74
S'part1_correct_attempt'
p75
(lp76
S'4 days, 8:23:17'
p77
aV(32)!/(5!*27!) - 20!/(5!*15!)
p78
asg9
V2015-10-16 20:22:11
p79
sS'part1_incorrect_attempt'
p80
(lp81
(S'0:00:00'
p82
V12!/(5!*7!)
p83
tp84
a(S'0:00:00'
p85
V13!/(10!*3!)
p86
tp87
a(S'0:00:00'
p88
V3*4
p89
tp90
a(S'0:00:23'
p91
V3*13**4
p92
tp93
a(S'0:09:38'
p94
V52!/(12!*40!)
p95
tp96
a(S'0:15:50'
p97
V8**5
p98
tp99
a(S'0:00:00'
p100
V12*51*50*49*48
p101
tp102
a(S'0:02:34'
p103
V52! * (1/(12!*40!))
p104
tp105
a(S'0:06:44'
p106
V52!/(5!*47!) - 40!/(5!*35!)
p107
tp108
a(S'0:10:27'
p109
V52!/(5!*47!) - 40!/(5!*35!) - (52-7*4)!/(5!*19!)
p110
tp111
a(S'0:00:00'
p112
V52!/(5!*47!) - 40!/(5!*35!) - (32)!/(5!*27!)
p113
tp114
assValakamsa
p115
(dp116
g9
V2015-10-17 23:15:29
p117
sS'part1_incorrect_attempt'
p118
(lp119
(S'0:00:00'
p120
VC(12,1)*C(27,4)
p121
tp122
a(S'0:08:29'
p123
VC(12,1)*C(32,4)
p124
tp125
a(S'0:00:00'
p126
VC(16,1)*C(31,4)
p127
tp128
a(S'0:00:00'
p129
V12*C(20,4)+C(12,2)C(20,3)+C(12,3)C(20,2)+C(12,4)C(20,1)
p130
tp131
assVjhc010
p132
(dp133
S'part1_correct_attempt'
p134
(lp135
S'0:22:10'
p136
aVC(32,5) - C(20,5)
p137
asg9
V2015-10-22 08:01:42
p138
sS'part1_incorrect_attempt'
p139
(lp140
(S'0:00:00'
p141
VC(40,5)
p142
tp143
a(S'0:00:47'
p144
VC(52,5) - C(40,5)
p145
tp146
a(S'0:09:33'
p147
V(C(32,5)+ (C(52,5) - C(40,5))) / 2
p148
tp149
assVjjm019
p150
(dp151
S'part1_correct_attempt'
p152
(lp153
S'3:51:13'
p154
aVC(20,5) * C(12,1)
p155
asg9
V2015-10-22 06:09:37
p156
sS'part1_incorrect_attempt'
p157
(lp158
(S'0:00:00'
p159
VC(5,3)+C(5,2)+5
p160
tp161
a(S'0:13:07'
p162
VC(52,5) 
p163
tp164
a(S'0:19:08'
p165
VC(52,5) - C(32,5) 
p166
tp167
a(S'0:00:00'
p168
V(C(52,5) - C(40,5))* (C(52,5)-C(46,5))
p169
tp170
a(S'0:00:00'
p171
V(C(52,5) - C(40,5))* (C(52,5)-C(46,5)-C(40,5))
p172
tp173
a(S'0:04:34'
p174
VC(20,5)*(C(52,5) - C(40,5))
p175
tp176
a(S'0:06:17'
p177
VC(20,5)
p178
tp179
assVmhale
p180
(dp181
S'part1_correct_attempt'
p182
(lp183
S'0:09:24'
p184
aV201376 - 15504
p185
asg9
V2015-10-21 06:41:50
p186
sS'part1_incorrect_attempt'
p187
(lp188
(S'0:00:00'
p189
V98280 * 658008
p190
tp191
a(S'0:02:56'
p192
VC(52, 5) - 98280
p193
tp194
a(S'0:04:25'
p195
VC(52, 5) - C(40, 5)
p196
tp197
a(S'0:06:36'
p198
V98280 - 792
p199
tp200
a(S'0:06:53'
p201
V98280 - 1287
p202
tp203
assVctgraves
p204
(dp205
S'part1_correct_attempt'
p206
(lp207
S'21:00:20'
p208
aVC(32,5)-C(20,5)
p209
asg9
V2015-10-21 02:06:59
p210
sS'part1_incorrect_attempt'
p211
(lp212
(S'0:00:00'
p213
V3*8^4
p214
tp215
a(S'0:00:00'
p216
V4*3 + 8^4
p217
tp218
a(S'0:00:09'
p219
V4*3 + 4*8^4
p220
tp221
a(S'0:01:09'
p222
V4*3*51!/(4!*47!)
p223
tp224
a(S'0:04:01'
p225
V12*51!/4!
p226
tp227
a(S'0:09:46'
p228
V12 + 51!/4!
p229
tp230
a(S'0:09:59'
p231
V12 + 51!/(4!*47!)
p232
tp233
a(S'0:00:00'
p234
V52!/(5!*47!) - 40!/(5!*35!)
p235
tp236
a(S'0:00:00'
p237
V12*5
p238
tp239
a(S'0:00:00'
p240
V32!
p241
tp242
a(S'0:00:24'
p243
VC(32,5)
p244
tp245
a(S'0:08:45'
p246
V12*C(4*4+11, 4)
p247
tp248
a(S'0:09:01'
p249
VC(5,1)*12*C(4*4+11, 4)
p250
tp251
a(S'0:10:53'
p252
VC(5,1)*12*C(5*4+11, 4)
p253
tp254
a(S'0:12:48'
p255
V12* C(31,4)*5
p256
tp257
a(S'0:12:57'
p258
VC(31,4)
p259
tp260
a(S'0:13:04'
p261
VC(31,4) * 60
p262
tp263
a(S'0:14:26'
p264
V31!/(4!*26!) * 60
p265
tp266
assVdkurli
p267
(dp268
S'part1_correct_attempt'
p269
(lp270
S'0:08:00'
p271
aVC(32,5)-C(20,5)
p272
asg9
V2015-10-21 03:52:41
p273
sS'part1_incorrect_attempt'
p274
(lp275
(S'0:00:00'
p276
V32*31*30*29*28
p277
tp278
a(S'0:00:00'
p279
VC(52,5)-C(40,5)
p280
tp281
a(S'0:00:00'
p282
VC(52,5)-C(32,5)
p283
tp284
a(S'0:01:00'
p285
VC(32,5)
p286
tp287
a(S'0:03:00'
p288
VC(32,4)
p289
tp290
a(S'0:03:09'
p291
VC(31,4)
p292
tp293
assVj5phung
p294
(dp295
S'part1_correct_attempt'
p296
(lp297
S'0:20:35'
p298
aVC(12,1)C(20,4)+C(12,2)C(20,3)+C(12,3)C(20,2)+C(12,4)C(20,1)+C(12,5)
p299
asg9
V2015-10-16 17:35:42
p300
sS'part1_incorrect_attempt'
p301
(lp302
(S'0:00:00'
p303
VC(32,5)
p304
tp305
a(S'0:02:33'
p306
VC(32,5)
p307
tp308
assVanl114
p309
(dp310
S'part1_correct_attempt'
p311
(lp312
S'0:09:22'
p313
aV185872
p314
asg9
V2015-10-22 15:33:59
p315
sS'part1_incorrect_attempt'
p316
(lp317
(S'0:00:00'
p318
V12*163185
p319
tp320
assVc4du
p321
(dp322
S'part1_correct_attempt'
p323
(lp324
S'0:14:58'
p325
aVC(32,5)-C(20,5)
p326
asg9
V2015-10-22 08:23:08
p327
sS'part1_incorrect_attempt'
p328
(lp329
(S'0:00:00'
p330
V3*7*6*5*4
p331
tp332
a(S'0:03:19'
p333
V3*7*6*5*4*4
p334
tp335
assVhaw081
p336
(dp337
S'part1_correct_attempt'
p338
(lp339
S'18:19:18'
p340
aVC(32,5)-(C(20,5))
p341
asg9
V2015-10-21 07:10:36
p342
sS'part1_incorrect_attempt'
p343
(lp344
(S'0:00:00'
p345
V(C(52,5)-C(52-5,5))*(C(52,5)-C(52-40,5))
p346
tp347
assVvqt004
p348
(dp349
S'part1_correct_attempt'
p350
(lp351
S'0:02:30'
p352
aVC(32,5)-C(20,5)
p353
asg9
V2015-10-22 13:09:58
p354
sS'part1_incorrect_attempt'
p355
(lp356
(S'0:00:00'
p357
V32-25
p358
tp359
assVrlhagen
p360
(dp361
S'part1_correct_attempt'
p362
(lp363
S'0:14:10'
p364
aV(32!/(5!(32-5)!)) - (20!/(5!(20-5)!))
p365
asg9
V2015-10-18 18:28:24
p366
sS'part1_incorrect_attempt'
p367
(lp368
(S'0:00:00'
p369
V(52!/(5!(52-5)!)) - (32!/(5!(32-5)!))
p370
tp371
a(S'0:06:06'
p372
V(52!/(5!(52-5)!)) - (40!/(5!(40-5)!)) - (32!/(5!(32-5)!))
p373
tp374
assVavasavad
p375
(dp376
S'part1_correct_attempt'
p377
(lp378
S'22:26:26'
p379
aVC(32,5)-C(20,5)
p380
asg9
V2015-10-21 20:25:42
p381
sS'part1_incorrect_attempt'
p382
(lp383
(S'0:00:00'
p384
V4! * 4
p385
tp386
a(S'0:00:07'
p387
V4!
p388
tp389
a(S'0:02:51'
p390
V3! * 4
p391
tp392
a(S'0:03:03'
p393
V3!
p394
tp395
a(S'0:00:00'
p396
V[52!/(5!*47!)] - [30!/(5!*25!)]
p397
tp398
a(S'0:02:07'
p399
V[52!/(5!*47!)] - [40!/(5!*35!)]
p400
tp401
assVdgunawan
p402
(dp403
S'part1_correct_attempt'
p404
(lp405
S'22:57:12'
p406
aVC(32, 5)-C(20,5)
p407
asg9
V2015-10-21 05:45:45
p408
sS'part1_incorrect_attempt'
p409
(lp410
(S'0:00:00'
p411
VC(8, 5)
p412
tp413
a(S'0:00:22'
p414
VC(8, 5)C(52, 8)
p415
tp416
a(S'0:00:00'
p417
VC(8*4, 5)
p418
tp419
a(S'0:03:49'
p420
VC(32, 5)
p421
tp422
assVssamudra
p423
(dp424
S'part1_correct_attempt'
p425
(lp426
S'0:06:21'
p427
aVC(32,5) - C(20,5)
p428
asg9
V2015-10-23 00:36:37
p429
sS'part1_incorrect_attempt'
p430
(lp431
(S'0:00:00'
p432
V51*50*49*2 + 50*49*8 + 49 * 24 + 48
p433
tp434
a(S'0:01:59'
p435
V19 * 3 * 17 * 16
p436
tp437
a(S'0:04:37'
p438
VC(32,5)
p439
tp440
assVtcn013
p441
(dp442
S'part1_correct_attempt'
p443
(lp444
S'0:18:23'
p445
aVC(32,5) - C(20,5)
p446
asg9
V2015-10-22 21:06:40
p447
sS'part1_incorrect_attempt'
p448
(lp449
(S'0:00:00'
p450
V12*C(31,4)
p451
tp452
a(S'0:00:00'
p453
V36*4 - 40
p454
tp455
a(S'0:00:22'
p456
VC(36*4,5) - C(40,5)
p457
tp458
a(S'0:00:00'
p459
VC(36*4,5) - C(16,5)
p460
tp461
a(S'0:00:21'
p462
VC(36,5) - C(16,5)
p463
tp464
assVtstevens
p465
(dp466
g9
V2015-10-22 01:18:55
p467
sS'part1_incorrect_attempt'
p468
(lp469
(S'0:00:00'
p470
VC(20,5)
p471
tp472
a(S'0:03:24'
p473
VC(12,5)*C(40,0)+C(12,4)*C(40,1)+C(12,3)*C(40,2)+C(12,2)*C(40,3)+C(12,1)*C(40,4)
p474
tp475
a(S'0:04:49'
p476
VC(32,5)*C(12,5)*C(40,0)+C(12,4)*C(40,1)+C(12,3)*C(40,2)+C(12,2)*C(40,3)+C(12,1)*C(40,4)
p477
tp478
a(S'0:13:45'
p479
V((C(20,5)*C(32,0)+C(20,4)*C(32,1)+C(20,3)*C(32,2)+C(20,2)*C(32,3)+C(20,1)*C(32,4)))*C(12,5)*C(40,0)+C(12,4)*C(40,1)+C(12,3)*C(40,2)+C(12,2)*C(40,3)+C(12,1)*C(40,4)
p480
tp481
a(S'0:15:13'
p482
VC(24,5)
p483
tp484
a(S'0:15:25'
p485
VC(24,5)*C(12,5)*C(40,0)+C(12,4)*C(40,1)+C(12,3)*C(40,2)+C(12,2)*C(40,3)+C(12,1)*C(40,4)
p486
tp487
assVpthsu
p488
(dp489
S'part1_correct_attempt'
p490
(lp491
S'0:10:59'
p492
aVC(32,5)-C(20,5)
p493
asg9
V2015-10-16 23:58:09
p494
sS'part1_incorrect_attempt'
p495
(lp496
(S'0:00:00'
p497
V12*51*50*49*48
p498
tp499
assVtcuddy
p500
(dp501
S'part1_correct_attempt'
p502
(lp503
S'0:32:10'
p504
aV32!/(5!27!)- (32-12)!/(5!(32-12-5)!)
p505
asg9
V2015-10-17 20:33:54
p506
sS'part1_incorrect_attempt'
p507
(lp508
(S'0:00:00'
p509
V4^4
p510
tp511
a(S'0:08:50'
p512
V(52!/(5!47!))-(40!/(5!35!))
p513
tp514
assVdjk006
p515
(dp516
S'part1_correct_attempt'
p517
(lp518
S'0:10:23'
p519
aV(32!/(27!5!)) - (20!/(5!15!))
p520
asg9
V2015-10-21 00:51:05
p521
sS'part1_incorrect_attempt'
p522
(lp523
(S'0:00:00'
p524
V(52!/(5!47!))-(40!/(5!35!))
p525
tp526
assVdando
p527
(dp528
S'part1_correct_attempt'
p529
(lp530
S'0:17:18'
p531
aVC(52,5) - C(20,5) - (C(52,5) - C(32,5))
p532
asg9
V2015-10-21 19:32:04
p533
sS'part1_incorrect_attempt'
p534
(lp535
(S'0:00:00'
p536
VC(52,5) - C(30,5)
p537
tp538
a(S'0:02:27'
p539
VC(52,5) - C(40,5)
p540
tp541
a(S'0:00:00'
p542
VC(52,5) - C(20,5) - (C(52,5) - C(40,5))
p543
tp544
assVdsriniva
p545
(dp546
S'part1_correct_attempt'
p547
(lp548
S'11:30:57'
p549
aVC(32,5)-C(20,5)
p550
asg9
V2015-10-22 06:53:55
p551
sS'part1_incorrect_attempt'
p552
(lp553
(S'0:00:00'
p554
VC(32, 5)
p555
tp556
a(S'0:00:09'
p557
VC(10, 9)
p558
tp559
a(S'0:00:00'
p560
VC(32,5)
p561
tp562
a(S'0:00:00'
p563
VC(32, 5)+C(52,5)-C(36,5)-(C(32,5)-C(28,5))
p564
tp565
assVchc286
p566
(dp567
S'part1_correct_attempt'
p568
(lp569
S'0:05:09'
p570
aVC(32,5)-C(20,5)
p571
asg9
V2015-10-21 09:27:38
p572
sS'part1_incorrect_attempt'
p573
(lp574
(S'0:00:00'
p575
V4*4*4
p576
tp577
assVsayao
p578
(dp579
S'part1_correct_attempt'
p580
(lp581
S'2:19:14'
p582
aVC(32,5)-C(20,5)
p583
asg9
V2015-10-21 16:37:21
p584
sS'part1_incorrect_attempt'
p585
(lp586
(S'0:00:00'
p587
VC(12,1)+C(51,4)
p588
tp589
a(S'0:01:51'
p590
VC(12,1)+C(52-21,4)
p591
tp592
a(S'0:04:05'
p593
VC(12,1)+C(31,4)
p594
tp595
assVanvan
p596
(dp597
S'part1_correct_attempt'
p598
(lp599
S'2:22:54'
p600
aV32!/(5!27!) - (20!/(5!15!))
p601
asg9
V2015-10-21 20:20:08
p602
sS'part1_incorrect_attempt'
p603
(lp604
(S'0:00:00'
p605
V( 4(13!/(8!5!)) ) ^ 5
p606
tp607
a(S'0:01:49'
p608
V52!/(5!47!) - (40!/(5!35!))
p609
tp610
assVachava
p611
(dp612
S'part1_correct_attempt'
p613
(lp614
S'18:12:57'
p615
aVC(32,5) - C(20,5)
p616
asg9
V2015-10-19 00:16:22
p617
sS'part1_incorrect_attempt'
p618
(lp619
(S'0:00:00'
p620
VC(6,4) + C(3,1)
p621
tp622
a(S'0:00:00'
p623
VC(7, 5)
p624
tp625
a(S'0:00:18'
p626
VC(4,4) + C(3,1)
p627
tp628
a(S'0:00:00'
p629
VC(52,5) - C(40,5)
p630
tp631
a(S'0:01:56'
p632
VC(52,3)
p633
tp634
a(S'0:03:26'
p635
VC(52,5) - C(40,5)
p636
tp637
a(S'0:06:01'
p638
VC(52,5) - C(40,5) - C(40,4) 
p639
tp640
a(S'0:41:06'
p641
VC(52,5) - C(40,5) - 625
p642
tp643
a(S'0:42:46'
p644
VC(32,5) - C(20,5) - 625
p645
tp646
assVflhernan
p647
(dp648
S'part1_correct_attempt'
p649
(lp650
S'0:00:47'
p651
aVC(32,5)-C(20,5)
p652
asg9
V2015-10-22 04:13:25
p653
sS'part1_incorrect_attempt'
p654
(lp655
(S'0:00:00'
p656
VC(20,5)
p657
tp658
assVarc013
p659
(dp660
S'part1_correct_attempt'
p661
(lp662
S'0:19:31'
p663
aVC(32, 5)-C(20, 5)
p664
asg9
V2015-10-21 09:39:44
p665
sS'part1_incorrect_attempt'
p666
(lp667
(S'0:00:00'
p668
V12*C(40,4)
p669
tp670
a(S'0:00:26'
p671
V12*C(51,4)
p672
tp673
a(S'0:03:30'
p674
VC(12,1)*C(51,4)
p675
tp676
a(S'0:05:58'
p677
VC(32, 5)
p678
tp679
a(S'0:00:00'
p680
V3*C(51, 4)
p681
tp682
a(S'0:01:21'
p683
VC(52, 5) -C(30, 5)
p684
tp685
a(S'0:01:41'
p686
VC(52, 5) -C(40, 5)
p687
tp688
assVmitopete
p689
(dp690
S'part1_correct_attempt'
p691
(lp692
S'2:21:37'
p693
aV((C(52,5) - C(20,5))) - (C(52,5) - C(32, 5))
p694
asg9
V2015-10-20 22:56:53
p695
sS'part1_incorrect_attempt'
p696
(lp697
(S'0:00:00'
p698
V(52!/(5!47!))-(36!/(5!31!))
p699
tp700
a(S'0:00:00'
p701
V(52!/(5!47!)) - (36!/(5!31!))
p702
tp703
a(S'0:00:00'
p704
V(52!/(5!47!))-(44!/(5!39!))
p705
tp706
a(S'0:01:41'
p707
VC(52, 5) - C(44, 5)
p708
tp709
a(S'0:01:51'
p710
VC(52, 5)
p711
tp712
a(S'0:02:08'
p713
VC(52, 5) - C(40, 5)
p714
tp715
assVstarinia
p716
(dp717
S'part1_correct_attempt'
p718
(lp719
S'0:08:52'
p720
aVC(32,5)-C(20,5)
p721
asg9
V2015-10-20 02:17:48
p722
sS'part1_incorrect_attempt'
p723
(lp724
(S'0:00:00'
p725
VC(52,12)
p726
tp727
assVyos017
p728
(dp729
S'part1_correct_attempt'
p730
(lp731
S'0:16:25'
p732
aVC(32,5)-C(20,5)
p733
asg9
V2015-10-21 07:47:00
p734
sS'part1_incorrect_attempt'
p735
(lp736
(S'0:00:00'
p737
V52-12
p738
tp739
a(S'0:03:38'
p740
VC(52,5)-C(49,5)
p741
tp742
a(S'0:11:59'
p743
VC(52,5)-C(40,5)
p744
tp745
assVm8woo
p746
(dp747
S'part1_correct_attempt'
p748
(lp749
S'0:24:01'
p750
aVC(32,5) - C(20,5)
p751
asg9
V2015-10-22 21:10:49
p752
sS'part1_incorrect_attempt'
p753
(lp754
(S'0:00:00'
p755
V12*C(27,4)
p756
tp757
a(S'0:00:00'
p758
VC(52,5) - C(7,5)
p759
tp760
a(S'0:00:13'
p761
VC(52,5) - C(6,5)
p762
tp763
assVggaddi
p764
(dp765
S'part1_correct_attempt'
p766
(lp767
S'0:21:56'
p768
aVC(20,4)*C(12,1)+C(20,3)*C(12,2)+C(20,2)*C(12,3)+C(20,1)*C(12,4)+C(20,0)*C(12,5)
p769
asg9
V2015-10-17 03:55:15
p770
sS'part1_incorrect_attempt'
p771
(lp772
(S'0:00:00'
p773
VC(52-12,5)
p774
tp775
a(S'0:03:35'
p776
VC(40, 5)
p777
tp778
a(S'0:03:41'
p779
VP(40, 5)
p780
tp781
a(S'0:09:41'
p782
VC(12,1) + C(40,4)
p783
tp784
a(S'0:09:54'
p785
VC(12,1) * C(40,4)
p786
tp787
a(S'0:11:39'
p788
VC(12,1) * C(40,4) + C(12,2) * C(40,3) C(12,3) * C(40,2) +C(12,4) * C(40,1)+C(12,5) * C(40,0)
p789
tp790
a(S'0:12:01'
p791
VC(12,1) * C(40,4) + C(12,2) * C(40,3) + C(12,3) * C(40,2) +C(12,4) * C(40,1)+C(12,5) * C(40,0)
p792
tp793
assVb3hwang
p794
(dp795
S'part1_correct_attempt'
p796
(lp797
S'2:22:50'
p798
aVC(32,5) - C(20,5)
p799
asg9
V2015-10-21 01:48:31
p800
sS'part1_incorrect_attempt'
p801
(lp802
(S'0:00:00'
p803
V3*4
p804
tp805
a(S'0:00:47'
p806
V4*5*10*9*8
p807
tp808
a(S'0:02:22'
p809
V3*5*10*9*8
p810
tp811
a(S'0:02:58'
p812
V4*3*5*10*10*10
p813
tp814
a(S'0:03:05'
p815
V4*3*5*10*10*10*4*4*4
p816
tp817
a(S'0:03:15'
p818
V4*4*3*5*10*10*10*4*4*4
p819
tp820
a(S'0:05:07'
p821
V12*15*14*13*12
p822
tp823
a(S'0:05:40'
p824
V12*11*10*9*8
p825
tp826
a(S'0:10:46'
p827
VC(40,5)
p828
tp829
a(S'0:12:40'
p830
VC(12,1)
p831
tp832
a(S'0:13:10'
p833
VC(12,1)*C(52,4)
p834
tp835
a(S'0:15:24'
p836
VC(52,5) - C(40,5)
p837
tp838
a(S'0:00:00'
p839
VC(52,5) - C(32,5)
p840
tp841
a(S'0:00:00'
p842
VC(12,1) * C(44,4)
p843
tp844
assVjag028
p845
(dp846
S'part1_correct_attempt'
p847
(lp848
S'0:03:33'
p849
aVC(32,5)-C(20,5)
p850
asg9
V2015-10-22 17:03:56
p851
sS'part1_incorrect_attempt'
p852
(lp853
(S'0:00:00'
p854
V32 *20
p855
tp856
a(S'0:00:49'
p857
V32*20
p858
tp859
assVccn001
p860
(dp861
S'part1_correct_attempt'
p862
(lp863
S'5:06:39'
p864
aVC(32,5) - C(20,5)
p865
asg9
V2015-10-20 21:44:01
p866
sS'part1_incorrect_attempt'
p867
(lp868
(S'0:00:00'
p869
V(32!/(4!28!)) * ((12!/(1!11!)))
p870
tp871
assVlrlai
p872
(dp873
S'part1_correct_attempt'
p874
(lp875
S'0:15:12'
p876
aVC(32,5)-C(20,5)
p877
asg9
V2015-10-21 19:16:28
p878
sS'part1_incorrect_attempt'
p879
(lp880
(S'0:00:00'
p881
VC(12,1) * C(51,4)
p882
tp883
a(S'0:01:41'
p884
VC(52,5) - C(40,5)
p885
tp886
a(S'0:00:00'
p887
V5*C(32,4)
p888
tp889
assVlguintu
p890
(dp891
S'part1_correct_attempt'
p892
(lp893
S'0:09:12'
p894
aVC(32,5)-C(20,5)
p895
asg9
V2015-10-16 04:18:53
p896
sS'part1_incorrect_attempt'
p897
(lp898
(S'0:00:00'
p899
V12*31
p900
tp901
a(S'0:01:27'
p902
VC(12,1)*C(31,4)
p903
tp904
a(S'0:03:53'
p905
VC(12,1)*C(32,4)
p906
tp907
a(S'0:04:20'
p908
V12*C(31,4)
p909
tp910
assVc1sorian
p911
(dp912
S'part1_correct_attempt'
p913
(lp914
S'0:21:08'
p915
aVC(32,5)-C(20,5)
p916
asg9
V2015-10-21 21:12:32
p917
sS'part1_incorrect_attempt'
p918
(lp919
(S'0:00:00'
p920
V(51!/(47!4!))
p921
tp922
a(S'0:00:00'
p923
V(52!/(47!5!))-(43!/(38!5!))
p924
tp925
a(S'0:00:20'
p926
V(52!/(47!5!))-(39!/(34!5!))
p927
tp928
a(S'0:00:00'
p929
V(52!/(47!5!))-(51!/(47!4!))
p930
tp931
a(S'0:00:11'
p932
VC(52,5)
p933
tp934
a(S'0:00:27'
p935
VC(52,5)-C(51,4)
p936
tp937
a(S'0:02:45'
p938
VC(52,5)-C(43,1)
p939
tp940
a(S'0:02:50'
p941
VC(52,5)-C(43,5)
p942
tp943
a(S'0:03:02'
p944
VC(52,5)-C(40,5)
p945
tp946
a(S'0:04:11'
p947
VC(52,5)-C(28,5)
p948
tp949
a(S'0:04:30'
p950
VC(52,5)-C(32,5)
p951
tp952
a(S'0:04:48'
p953
VC(52,5)-C(32,5)+C(12,1)
p954
tp955
a(S'0:11:19'
p956
V(C(52,5)-C(32,5))*(C(52,5)-C(40,5))
p957
tp958
a(S'0:11:28'
p959
V(C(52,5)-C(24,5))*(C(52,5)-C(40,5))
p960
tp961
assVabjara
p962
(dp963
S'part1_correct_attempt'
p964
(lp965
S'0:02:07'
p966
aVC(32, 5) - C(20, 5)
p967
asg9
V2015-10-21 09:49:29
p968
sS'part1_incorrect_attempt'
p969
(lp970
(S'0:00:00'
p971
VC(20, 5)
p972
tp973
a(S'0:00:00'
p974
VC(32, 5)
p975
tp976
assVskarimik
p977
(dp978
S'part1_correct_attempt'
p979
(lp980
S'0:48:59'
p981
aV((32!/(27!5!))-(20!/(5!15!)))
p982
asg9
V2015-10-17 20:56:14
p983
sS'part1_incorrect_attempt'
p984
(lp985
(S'0:00:00'
p986
V(28!/(23!5!))-(12!/(5!7!))
p987
tp988
a(S'0:01:54'
p989
V(28!/(23!5!))-(16!/(5!11!))
p990
tp991
assVsachadal
p992
(dp993
S'part1_correct_attempt'
p994
(lp995
S'0:34:08'
p996
aV(C(32,5) - C(20,5))-(C(32,5)-(C(52,5) - C(40,5)))-((C(52,5) - C(40,5))-C(32,5))
p997
asg9
V2015-10-22 18:11:48
p998
sS'part1_incorrect_attempt'
p999
(lp1000
(S'0:00:00'
p1001
VC(52,12)
p1002
tp1003
a(S'0:01:16'
p1004
VC(12,1)C(51,4)
p1005
tp1006
a(S'0:00:00'
p1007
VC(32,5)
p1008
tp1009
a(S'0:10:07'
p1010
VC(32,5)
p1011
tp1012
assVkrau
p1013
(dp1014
S'part1_correct_attempt'
p1015
(lp1016
S'7:20:41'
p1017
aVC(32,5) - C(20,5)
p1018
asg9
V2015-10-20 20:40:05
p1019
sS'part1_incorrect_attempt'
p1020
(lp1021
(S'0:00:00'
p1022
V20*19*18*17*12*5
p1023
tp1024
a(S'0:00:00'
p1025
V20*19*18*17*12*5
p1026
tp1027
a(S'0:00:00'
p1028
V32!/27!/5!
p1029
tp1030
a(S'0:00:00'
p1031
VC(52,5)-C(40,5)
p1032
tp1033
a(S'0:00:19'
p1034
VC(32,5)
p1035
tp1036
assVkthui
p1037
(dp1038
S'part1_correct_attempt'
p1039
(lp1040
S'0:40:01'
p1041
aV32!/((32-5)!5!)-20!/((20-5)!5!)
p1042
asg9
V2015-10-18 07:32:15
p1043
sS'part1_incorrect_attempt'
p1044
(lp1045
(S'0:00:00'
p1046
V(52+51+50+49+48)-(40+39+38+37+36)
p1047
tp1048
a(S'0:01:14'
p1049
V(52*5)-(40+39+38+37+36)
p1050
tp1051
a(S'0:05:42'
p1052
V(52*51*50*49*48)-(40*39*38*37*36)
p1053
tp1054
a(S'0:06:02'
p1055
V(52*51*50*49*48*5!)-(40*39*38*37*36*5!)
p1056
tp1057
a(S'0:06:27'
p1058
V(52^5)-(40*39*38*37*36)
p1059
tp1060
a(S'0:15:08'
p1061
V52!/((52-5)!5!)-40!/((40-5)!5!)
p1062
tp1063
a(S'0:19:25'
p1064
V52!/((52-5)!5!)-40!/((40-5)!5!)-24!/((24-5)!5!)
p1065
tp1066
a(S'0:31:06'
p1067
V52!/((52-5)!5!)-40!/((40-5)!5!)
p1068
tp1069
a(S'0:33:45'
p1070
V52!/((52-5)!5!)-40!/((40-5)!5!)-30!/((30-5)!5!)
p1071
tp1072
a(S'0:39:42'
p1073
V32!/((32-5)!5!)-(32!/((32-5)!5!)-20!/((20-5)!5!))
p1074
tp1075
assValhung
p1076
(dp1077
S'part1_correct_attempt'
p1078
(lp1079
S'0:02:48'
p1080
aVC(32,5)-C(20,5)
p1081
asg9
V2015-10-22 18:02:08
p1082
sS'part1_incorrect_attempt'
p1083
(lp1084
(S'0:00:00'
p1085
VC(32,5)
p1086
tp1087
assVbeyounge
p1088
(dp1089
S'part1_correct_attempt'
p1090
(lp1091
S'0:27:53'
p1092
aVC(32,5) - C(20,5)
p1093
asg9
V2015-10-17 05:23:58
p1094
sS'part1_incorrect_attempt'
p1095
(lp1096
(S'0:00:00'
p1097
V[C(52,5)] - [C(40,5)]
p1098
tp1099
a(S'0:03:31'
p1100
V[C(28,4)] * [C(12,1)]
p1101
tp1102
a(S'0:04:28'
p1103
V[C(16,4)] * [C(12,1)]
p1104
tp1105
a(S'0:05:53'
p1106
V[C(28,5)]
p1107
tp1108
a(S'0:07:07'
p1109
V(7^4) + C(12,1)
p1110
tp1111
a(S'0:07:18'
p1112
V(7^4) * C(12,1)
p1113
tp1114
a(S'0:09:59'
p1115
V[C(28,4)] * [C(12,1)]
p1116
tp1117
a(S'0:11:55'
p1118
V7^5 - 12
p1119
tp1120
a(S'0:16:01'
p1121
VC(20,4) * C(12,1)
p1122
tp1123
assVjic212
p1124
(dp1125
S'part1_correct_attempt'
p1126
(lp1127
S'0:07:05'
p1128
aVC(32,5)-C(20,5)
p1129
asg9
V2015-10-22 22:32:17
p1130
sS'part1_incorrect_attempt'
p1131
(lp1132
(S'0:00:00'
p1133
V(52-12)* (51-12)*(50-12)*(49-12)*(48-12)
p1134
tp1135
a(S'0:00:00'
p1136
V40*39*38*37*36
p1137
tp1138
a(S'0:00:49'
p1139
VC(40,5)
p1140
tp1141
a(S'0:01:13'
p1142
VC(52,5)-C(40,5)
p1143
tp1144
assVtpmach
p1145
(dp1146
S'part1_correct_attempt'
p1147
(lp1148
S'1:31:04'
p1149
aVC(32,5)-C(20,5)
p1150
asg9
V2015-10-21 21:11:34
p1151
sS'part1_incorrect_attempt'
p1152
(lp1153
(S'0:00:00'
p1154
VC(51,4)+C(12,1)
p1155
tp1156
a(S'0:00:18'
p1157
VC(51-12,4)+C(12,1)
p1158
tp1159
a(S'0:00:26'
p1160
VC(40,4)+C(12,1)
p1161
tp1162
a(S'0:00:00'
p1163
VC(52,5)-C(40,5)
p1164
tp1165
a(S'0:00:47'
p1166
VC(24,5)
p1167
tp1168
a(S'0:01:08'
p1169
VC(52,5)-C(24,5)
p1170
tp1171
a(S'0:00:00'
p1172
V[C(52,5)-C(24,5)]*[C(52,5)-C(40,5)]
p1173
tp1174
a(S'0:00:00'
p1175
VC(32,12)
p1176
tp1177
a(S'0:01:25'
p1178
VC(12,5)
p1179
tp1180
assVc2qiu
p1181
(dp1182
S'part1_correct_attempt'
p1183
(lp1184
S'0:06:50'
p1185
aVC(32,5)-C(20,5)
p1186
asg9
V2015-10-22 15:56:35
p1187
sS'part1_incorrect_attempt'
p1188
(lp1189
(S'0:00:00'
p1190
V(C(3,1)*C(5,4)+C(3,2)*C(5,3)+C(3,3)*C(5,2))
p1191
tp1192
a(S'0:03:38'
p1193
V(C(3,1)*C(7,4)+C(3,2)*C(6,3)+C(3,3)*C(5,2))
p1194
tp1195
assVhak014
p1196
(dp1197
S'part1_correct_attempt'
p1198
(lp1199
S'1:15:03'
p1200
aVC(32, 5) - C(20, 5)
p1201
asg9
V2015-10-20 01:06:06
p1202
sS'part1_incorrect_attempt'
p1203
(lp1204
(S'0:00:00'
p1205
V12*27*26*25*24
p1206
tp1207
a(S'0:02:09'
p1208
V12*31*30*29*28
p1209
tp1210
assVrraiyyan
p1211
(dp1212
S'part1_correct_attempt'
p1213
(lp1214
S'0:08:54'
p1215
aVC(12,1)*C(20,4)+C(12,2)*C(20,3)+C(12,3)*C(20,2)+C(12,4)*C(20,1)+C(12,5)
p1216
asg9
V2015-10-22 06:35:34
p1217
sS'part1_incorrect_attempt'
p1218
(lp1219
(S'0:00:00'
p1220
V3+C(3,2)*C(4,3)+C(3,3)*C(4,2)
p1221
tp1222
a(S'0:00:35'
p1223
V3+C(3,2)*C(4,3)+C(3,3)*C(4,2)
p1224
tp1225
assVdsmonaha
p1226
(dp1227
S'part1_correct_attempt'
p1228
(lp1229
S'0:05:33'
p1230
aVC(32,5)-C(20,5)
p1231
asg9
V2015-10-20 16:42:24
p1232
sS'part1_incorrect_attempt'
p1233
(lp1234
(S'0:00:00'
p1235
VC(32,5)
p1236
tp1237
assVthwan
p1238
(dp1239
S'part1_correct_attempt'
p1240
(lp1241
S'0:38:05'
p1242
aVC(8*4,5)-C(5*4,5)
p1243
asg9
V2015-10-19 00:00:44
p1244
sS'part1_incorrect_attempt'
p1245
(lp1246
(S'0:00:00'
p1247
VC(7*4,4)
p1248
tp1249
a(S'0:00:26'
p1250
VC(7*4-1,4)
p1251
tp1252
a(S'0:01:18'
p1253
VC(7*4-1,4)+4
p1254
tp1255
a(S'0:02:52'
p1256
VC(3*4,1)*C(7*4-1,4)
p1257
tp1258
a(S'0:05:07'
p1259
VC(3*4,1)*C(8*4-1,4)
p1260
tp1261
a(S'0:00:00'
p1262
V5*C(3*4,1)*C(8*4-1,4)
p1263
tp1264
a(S'0:00:49'
p1265
VC(3*4,1)+C(8*4-1,4)
p1266
tp1267
a(S'0:00:00'
p1268
V(C(3*4,1)+C(8*4-1,4))*5
p1269
tp1270
a(S'0:05:31'
p1271
VC(3*4,1)*C(8*4-1,4)
p1272
tp1273
a(S'0:11:14'
p1274
VC(3*4,1)*C(8*4-1,4)+C(3*4,2)*C(8*4-2,3)+C(3*4,3)*C(8*4-3,2)+C(3*4,4)*C(8*4-4,1)+C(3*4,5)*C(8*4-5,0)
p1275
tp1276
assVlcardoso
p1277
(dp1278
S'part1_correct_attempt'
p1279
(lp1280
S'0:10:12'
p1281
aVC(32,5)-C(20,5)
p1282
asg9
V2015-10-22 21:16:43
p1283
sS'part1_incorrect_attempt'
p1284
(lp1285
(S'0:00:00'
p1286
V(32)*(31)*(30)*(29)*(28)
p1287
tp1288
assVjel075
p1289
(dp1290
S'part1_correct_attempt'
p1291
(lp1292
S'0:06:09'
p1293
aV(C(52,5)-C(20,5))-(C(52,5)-C(32,5))
p1294
asg9
V2015-10-21 08:05:32
p1295
sS'part1_incorrect_attempt'
p1296
(lp1297
(S'0:00:00'
p1298
V(12/52)(52!/47!*5!)
p1299
tp1300
a(S'0:00:08'
p1301
V(12/52)(52!/(47!*5!))
p1302
tp1303
a(S'0:01:47'
p1304
V(52!/(47!*5!))-(40!/(35!*5!))
p1305
tp1306
a(S'0:05:57'
p1307
V(C(52,5)-C(20,5))-(C(52,5)-C(20,5))
p1308
tp1309
assVedescobe
p1310
(dp1311
S'part1_correct_attempt'
p1312
(lp1313
S'0:11:07'
p1314
aVC(32,5)-C(20,5)
p1315
asg9
V2015-10-18 11:08:39
p1316
sS'part1_incorrect_attempt'
p1317
(lp1318
(S'0:00:00'
p1319
VC(5,1)+C(5,2)+C(5,3)+C(5,4)+C(5,5)
p1320
tp1321
a(S'0:09:44'
p1322
VC(52,5)-C(40,5)
p1323
tp1324
assVetemlock
p1325
(dp1326
S'part1_correct_attempt'
p1327
(lp1328
S'0:10:47'
p1329
aVC(32,5)-C(20,5)
p1330
asg9
V2015-10-21 09:47:39
p1331
sS'part1_incorrect_attempt'
p1332
(lp1333
(S'0:00:00'
p1334
VC(13,3)*C(49,4)
p1335
tp1336
a(S'0:00:56'
p1337
VC(12,1)*C(49,4)
p1338
tp1339
a(S'0:01:03'
p1340
VC(12,1)*C(51,4)
p1341
tp1342
a(S'0:00:00'
p1343
VC(16,1)*C(51,4)
p1344
tp1345
a(S'0:00:00'
p1346
VC(52,5)-C(40,5)
p1347
tp1348
assVakg009
p1349
(dp1350
S'part1_correct_attempt'
p1351
(lp1352
S'1:42:18'
p1353
aVC(32,5)-C(20,5)
p1354
asg9
V2015-10-22 22:31:36
p1355
sS'part1_incorrect_attempt'
p1356
(lp1357
(S'0:00:00'
p1358
VC(52,5)-C(47,5)
p1359
tp1360
a(S'0:00:00'
p1361
VC(52,5)-C(49,5)
p1362
tp1363
a(S'0:00:00'
p1364
VC(52,5)-C(48,5)
p1365
tp1366
a(S'0:00:00'
p1367
VC(52,5)-C(40,5)
p1368
tp1369
a(S'0:06:48'
p1370
VC(12,3)*C(20,2)+C(12,2)*C(20,3)+C(12,1)*C(20,4)
p1371
tp1372
assVmuy002
p1373
(dp1374
S'part1_correct_attempt'
p1375
(lp1376
S'0:35:38'
p1377
aVC(32,5)-C(20,5)
p1378
asg9
V2015-10-22 20:44:43
p1379
sS'part1_incorrect_attempt'
p1380
(lp1381
(S'0:00:00'
p1382
VC(12,1)
p1383
tp1384
a(S'0:00:00'
p1385
VC(12,5)
p1386
tp1387
a(S'0:00:00'
p1388
VC(12,5)
p1389
tp1390
a(S'0:00:00'
p1391
VC(52,5)-C(32,5)
p1392
tp1393
assVjtfrankl
p1394
(dp1395
S'part1_correct_attempt'
p1396
(lp1397
S'0:46:51'
p1398
aV(C(32,5))-C(20,5)
p1399
asg9
V2015-10-20 23:26:02
p1400
sS'part1_incorrect_attempt'
p1401
(lp1402
(S'0:00:00'
p1403
VC(51,4)
p1404
tp1405
a(S'0:00:00'
p1406
V12C(51,4)
p1407
tp1408
a(S'0:00:00'
p1409
VC(52,5)-C(40,5)
p1410
tp1411
a(S'0:00:00'
p1412
V(C(52,5)-C(20,5))+(C(52,5)-C(40,5))
p1413
tp1414
assVcstringh
p1415
(dp1416
S'part1_correct_attempt'
p1417
(lp1418
S'0:16:00'
p1419
aVC(32,5) - C(20,5)
p1420
asg9
V2015-10-21 23:19:08
p1421
sS'part1_incorrect_attempt'
p1422
(lp1423
(S'0:00:00'
p1424
VC(28,5)
p1425
tp1426
a(S'0:00:00'
p1427
VC(52,5) - C(16,5)
p1428
tp1429
a(S'0:00:19'
p1430
VC(52,5) - C(32,5)
p1431
tp1432
a(S'0:00:00'
p1433
VC(52,5) - C(16,5)
p1434
tp1435
a(S'0:00:00'
p1436
VC(52,5) - C(24,5)
p1437
tp1438
a(S'0:00:56'
p1439
VC(52,5) - (C(52,5) - C(40,5))
p1440
tp1441
assVv4sharma
p1442
(dp1443
S'part1_correct_attempt'
p1444
(lp1445
S'20:13:48'
p1446
aVC(32, 5) - C(20, 5)
p1447
asg9
V2015-10-21 05:15:23
p1448
sS'part1_incorrect_attempt'
p1449
(lp1450
(S'0:00:00'
p1451
VC(40, 5)
p1452
tp1453
a(S'0:03:49'
p1454
V40!
p1455
tp1456
a(S'0:04:24'
p1457
V40!/(5!)
p1458
tp1459
a(S'0:04:36'
p1460
V40!/(5! * 35!)
p1461
tp1462
a(S'0:00:00'
p1463
VC(8, 5)
p1464
tp1465
a(S'0:01:08'
p1466
VC(32,5)
p1467
tp1468
assVdcastlem
p1469
(dp1470
S'part1_correct_attempt'
p1471
(lp1472
S'1:43:04'
p1473
aVC(32,5)-C(20,5)
p1474
asg9
V2015-10-21 18:03:04
p1475
sS'part1_incorrect_attempt'
p1476
(lp1477
(S'0:00:00'
p1478
VC(47,2)
p1479
tp1480
a(S'0:00:00'
p1481
VC(32,5)
p1482
tp1483
a(S'0:00:09'
p1484
VC(20,5)
p1485
tp1486
a(S'0:00:23'
p1487
VC(52,5)
p1488
tp1489
assVhsc052
p1490
(dp1491
S'part1_correct_attempt'
p1492
(lp1493
S'0:05:33'
p1494
aVC(32,5)-C(20,5)
p1495
asg9
V2015-10-22 05:42:45
p1496
sS'part1_incorrect_attempt'
p1497
(lp1498
(S'0:00:00'
p1499
VC(20,5)
p1500
tp1501
assVdac064
p1502
(dp1503
S'part1_correct_attempt'
p1504
(lp1505
S'0:08:28'
p1506
aVC(32,5) - C(20,5)
p1507
asg9
V2015-10-22 20:28:20
p1508
sS'part1_incorrect_attempt'
p1509
(lp1510
(S'0:00:00'
p1511
VC(12,1) * C(31,4)
p1512
tp1513
assVv3doan
p1514
(dp1515
S'part1_correct_attempt'
p1516
(lp1517
S'5:01:26'
p1518
aVC(32,5) - C(20,5)
p1519
asg9
V2015-10-22 15:45:55
p1520
sS'part1_incorrect_attempt'
p1521
(lp1522
(S'0:00:00'
p1523
VC(51,51-24)
p1524
tp1525
a(S'0:05:52'
p1526
V12 * C(51,51-24)
p1527
tp1528
a(S'0:00:00'
p1529
V12 * C(27, 4)
p1530
tp1531
a(S'0:00:00'
p1532
VC(28,5) - C(12,5)
p1533
tp1534
a(S'0:00:15'
p1535
VC(28,5) - C(16,5)
p1536
tp1537
assVyil035
p1538
(dp1539
S'part1_correct_attempt'
p1540
(lp1541
S'1 day, 19:29:05'
p1542
aV201376-15504
p1543
asg9
V2015-10-19 04:27:32
p1544
sS'part1_incorrect_attempt'
p1545
(lp1546
(S'0:00:00'
p1547
V18*4
p1548
tp1549
assVsghouse
p1550
(dp1551
S'part1_correct_attempt'
p1552
(lp1553
S'21:11:58'
p1554
aVC(32,5)- C(20,5)
p1555
asg9
V2015-10-21 03:18:22
p1556
sS'part1_incorrect_attempt'
p1557
(lp1558
(S'0:00:00'
p1559
V12!/(5!*7!)
p1560
tp1561
a(S'0:01:53'
p1562
VC(52,5) - C(36,5)
p1563
tp1564
a(S'0:02:18'
p1565
VC(52,5) - C(40,5)
p1566
tp1567
a(S'0:00:00'
p1568
VC(52,5) - C(52, 20) - (C(52,5) - C(40,5)-C(52,20))
p1569
tp1570
assVjyc018
p1571
(dp1572
S'part1_correct_attempt'
p1573
(lp1574
S'1:17:01'
p1575
aVC(52-4*5,5) - C(32 - 12,5)
p1576
asg9
V2015-10-22 21:57:33
p1577
sS'part1_incorrect_attempt'
p1578
(lp1579
(S'0:00:00'
p1580
VC(12,5)
p1581
tp1582
a(S'0:00:52'
p1583
V12* C(52-4*5,4)
p1584
tp1585
a(S'0:01:04'
p1586
V12* C(51-4*5,4)
p1587
tp1588
a(S'0:00:00'
p1589
VC(51-4*5,4)
p1590
tp1591
a(S'0:15:29'
p1592
VC(51-4*5,4)
p1593
tp1594
assVlywong
p1595
(dp1596
S'part1_correct_attempt'
p1597
(lp1598
S'0:03:18'
p1599
aVC(32,5)-C(20,5)
p1600
asg9
V2015-10-21 07:40:16
p1601
sS'part1_incorrect_attempt'
p1602
(lp1603
(S'0:00:00'
p1604
VC(52,5)-C(40,5)
p1605
tp1606
a(S'0:02:19'
p1607
VC(28,5)-C(16,5)
p1608
tp1609
assVjix029
p1610
(dp1611
S'part1_correct_attempt'
p1612
(lp1613
S'0:04:20'
p1614
aV201376-15504
p1615
asg9
V2015-10-20 20:10:01
p1616
sS'part1_incorrect_attempt'
p1617
(lp1618
(S'0:00:00'
p1619
V31465*12
p1620
tp1621
assVkebao
p1622
(dp1623
S'part1_correct_attempt'
p1624
(lp1625
S'16:51:10'
p1626
aVC(32, 5) - C(20,5)
p1627
asg9
V2015-10-22 03:33:06
p1628
sS'part1_incorrect_attempt'
p1629
(lp1630
(S'0:00:00'
p1631
VC(32, 5)
p1632
tp1633
a(S'0:00:00'
p1634
VC(32, 5)
p1635
tp1636
assVhkhodada
p1637
(dp1638
S'part1_correct_attempt'
p1639
(lp1640
S'23:12:47'
p1641
aVC(32,5)-C(20,5)
p1642
asg9
V2015-10-21 00:04:10
p1643
sS'part1_incorrect_attempt'
p1644
(lp1645
(S'0:00:00'
p1646
VC(52,12)
p1647
tp1648
a(S'0:00:00'
p1649
V4*C(13,8)
p1650
tp1651
assVglcohen
p1652
(dp1653
S'part1_correct_attempt'
p1654
(lp1655
S'0:09:53'
p1656
aVC(32,5)-C(20,5)
p1657
asg9
V2015-10-17 23:59:33
p1658
sS'part1_incorrect_attempt'
p1659
(lp1660
(S'0:00:00'
p1661
VC(36,4) * C(16,1)
p1662
tp1663
a(S'0:02:04'
p1664
V(C(40,4) * C(12,1))
p1665
tp1666
a(S'0:02:17'
p1667
VC(52,5)
p1668
tp1669
a(S'0:02:41'
p1670
VC(52,5)-C(16,1)
p1671
tp1672
a(S'0:04:37'
p1673
VC(40,4) * C(12,1)
p1674
tp1675
a(S'0:05:13'
p1676
VC(32,5)
p1677
tp1678
a(S'0:06:08'
p1679
V32*31*30*29*28
p1680
tp1681
a(S'0:06:39'
p1682
VC(12,1)*C(51,4)
p1683
tp1684
a(S'0:07:29'
p1685
VC(52,5)-C(40,5)
p1686
tp1687
a(S'0:07:53'
p1688
VC(52,5)-C(24,5)
p1689
tp1690
assVacvuong
p1691
(dp1692
S'part1_correct_attempt'
p1693
(lp1694
S'0:09:54'
p1695
aVC(32,5) - C(20,5)
p1696
asg9
V2015-10-18 00:45:32
p1697
sS'part1_incorrect_attempt'
p1698
(lp1699
(S'0:00:00'
p1700
VC(52,5) - C(40,5)
p1701
tp1702
assVthk002
p1703
(dp1704
S'part1_correct_attempt'
p1705
(lp1706
S'0:53:21'
p1707
aV185872
p1708
asg9
V2015-10-20 22:58:32
p1709
sS'part1_incorrect_attempt'
p1710
(lp1711
(S'0:00:00'
p1712
VC(24,5)
p1713
tp1714
a(S'0:06:27'
p1715
VC(52-24,5)
p1716
tp1717
a(S'0:07:10'
p1718
VC(20,5)
p1719
tp1720
a(S'0:00:00'
p1721
VC(24,5)
p1722
tp1723
a(S'0:00:00'
p1724
VC(52,24)
p1725
tp1726
a(S'0:00:41'
p1727
VC(52,24) - 1940952
p1728
tp1729
assVawollner
p1730
(dp1731
S'part1_correct_attempt'
p1732
(lp1733
S'18:56:44'
p1734
aVC(32,5)-C(20,5)
p1735
asg9
V2015-10-20 22:48:01
p1736
sS'part1_incorrect_attempt'
p1737
(lp1738
(S'0:00:00'
p1739
VC(31,4)
p1740
tp1741
a(S'0:00:42'
p1742
VC(12,1)*C(31,4)
p1743
tp1744
a(S'0:01:06'
p1745
VP(12,1)*P(31,4)
p1746
tp1747
a(S'0:02:18'
p1748
VC(12,1)*C(31,4)
p1749
tp1750
assVdcrume
p1751
(dp1752
S'part1_correct_attempt'
p1753
(lp1754
S'0:01:00'
p1755
aVC(32,5) - C(20,5)
p1756
asg9
V2015-10-21 19:50:41
p1757
sS'part1_incorrect_attempt'
p1758
(lp1759
(S'0:00:00'
p1760
V32 - 20
p1761
tp1762
assVpvl001
p1763
(dp1764
S'part1_correct_attempt'
p1765
(lp1766
S'20:03:31'
p1767
aVC(32, 5) - C(20,5)
p1768
asg9
V2015-10-19 03:07:17
p1769
sS'part1_incorrect_attempt'
p1770
(lp1771
(S'0:00:00'
p1772
V52^5 - (40 * 39 * 38 * 37 * 36)
p1773
tp1774
a(S'0:00:18'
p1775
V(52 * 51 * 50 * 49 * 48) - (40 * 39 * 38 * 37 * 36)
p1776
tp1777
a(S'0:00:00'
p1778
VC(52,5) - C(49,5)
p1779
tp1780
a(S'0:00:21'
p1781
VC(52,5) - C(40,5)
p1782
tp1783
a(S'0:02:52'
p1784
VC(32, 5)
p1785
tp1786
assVdlt009
p1787
(dp1788
S'part1_correct_attempt'
p1789
(lp1790
S'0:11:37'
p1791
aVC(32,5)-C(20,5)
p1792
asg9
V2015-10-22 06:36:11
p1793
sS'part1_incorrect_attempt'
p1794
(lp1795
(S'0:00:00'
p1796
V15*51*50*49*48
p1797
tp1798
a(S'0:08:57'
p1799
VC(32,4)
p1800
tp1801
a(S'0:09:10'
p1802
VC(32,5)
p1803
tp1804
assVmbl003
p1805
(dp1806
S'part1_correct_attempt'
p1807
(lp1808
S'2 days, 23:17:02'
p1809
aVC(52-(4*5),5)-C(52-(4*8),5)
p1810
asg9
V2015-10-18 20:40:30
p1811
sS'part1_incorrect_attempt'
p1812
(lp1813
(S'0:00:00'
p1814
VC(52, 12)
p1815
tp1816
a(S'0:00:11'
p1817
VC(12, 1)
p1818
tp1819
a(S'0:01:08'
p1820
V-C(52,5)-C(48,5)
p1821
tp1822
a(S'0:01:28'
p1823
VC(52,5)-C(48,5)
p1824
tp1825
a(S'0:00:00'
p1826
VC(52,5)-C(52-12,5)
p1827
tp1828
a(S'0:00:33'
p1829
VC(52-4-4-4-4,5)
p1830
tp1831
a(S'0:00:55'
p1832
VC(52-4-4-4-4-4,5)
p1833
tp1834
a(S'0:01:48'
p1835
VC(52-4-4-4-4-4-4-4,5)
p1836
tp1837
a(S'0:00:00'
p1838
VC(52-(4*6),5)-C(52-(4*9),5)
p1839
tp1840
assVn2patil
p1841
(dp1842
S'part1_correct_attempt'
p1843
(lp1844
S'0:02:02'
p1845
aV201376-15504
p1846
asg9
V2015-10-21 06:28:11
p1847
sS'part1_incorrect_attempt'
p1848
(lp1849
(S'0:00:00'
p1850
V2598960-658008
p1851
tp1852
assVbakang
p1853
(dp1854
S'part1_correct_attempt'
p1855
(lp1856
S'0:23:45'
p1857
aVC(32,5)-C(20,5)
p1858
asg9
V2015-10-22 06:32:01
p1859
sS'part1_incorrect_attempt'
p1860
(lp1861
(S'0:00:00'
p1862
VC(52,5)-C(40,5)
p1863
tp1864
assVksmurlo
p1865
(dp1866
S'part1_correct_attempt'
p1867
(lp1868
S'1 day, 10:02:13'
p1869
aVC(32,5)-C(20,5)
p1870
asg9
V2015-10-20 23:45:52
p1871
sS'part1_incorrect_attempt'
p1872
(lp1873
(S'0:00:00'
p1874
V(12*51*50*49*48)/5!
p1875
tp1876
a(S'0:00:25'
p1877
V(12*51*50*49*48)*5!
p1878
tp1879
a(S'0:00:33'
p1880
V(12*51*50*49*48)*5
p1881
tp1882
a(S'0:00:00'
p1883
VC(32,5)
p1884
tp1885
a(S'0:00:00'
p1886
VC(20,5)
p1887
tp1888
a(S'0:00:48'
p1889
VC(20,5)-C(8,5)
p1890
tp1891
assVttimmons
p1892
(dp1893
S'part1_correct_attempt'
p1894
(lp1895
S'0:09:10'
p1896
aVC(8*4,5) - C(5*4,5)
p1897
asg9
V2015-10-21 04:43:20
p1898
sS'part1_incorrect_attempt'
p1899
(lp1900
(S'0:00:00'
p1901
VC(52,5) - C(52-8,5)
p1902
tp1903
a(S'0:00:00'
p1904
VC(52-8,5) - C(52-(3*4),5)
p1905
tp1906
assVjeqin
p1907
(dp1908
S'part1_correct_attempt'
p1909
(lp1910
S'0:02:29'
p1911
aV(32!/(5!27!)) - (20!/(5!15!))
p1912
asg9
V2015-10-22 08:57:52
p1913
sS'part1_incorrect_attempt'
p1914
(lp1915
(S'0:00:00'
p1916
V(52!/(5!47!)) - (40!/(5!35!))
p1917
tp1918
assVjnatale
p1919
(dp1920
S'part1_correct_attempt'
p1921
(lp1922
S'3:38:20'
p1923
aVC(32,5) - C(20,5)
p1924
asg9
V2015-10-20 23:05:45
p1925
sS'part1_incorrect_attempt'
p1926
(lp1927
(S'0:00:00'
p1928
VC(24,5)
p1929
tp1930
assVjblynch
p1931
(dp1932
S'part1_correct_attempt'
p1933
(lp1934
S'1:31:00'
p1935
aVC(32,5)-C(20,5)
p1936
asg9
V2015-10-21 05:27:27
p1937
sS'part1_incorrect_attempt'
p1938
(lp1939
(S'0:00:00'
p1940
VC(52,5) - C(40,5)
p1941
tp1942
a(S'0:00:00'
p1943
VC(52,5) - C(40,5)
p1944
tp1945
a(S'0:00:48'
p1946
VC(52,5) - C(40,5)
p1947
tp1948
assVganajera
p1949
(dp1950
S'part1_correct_attempt'
p1951
(lp1952
S'17:46:00'
p1953
aVC(32,5)-C(20,5)
p1954
asg9
V2015-10-17 02:44:08
p1955
sS'part1_incorrect_attempt'
p1956
(lp1957
(S'0:00:00'
p1958
V12*C(31,4)
p1959
tp1960
a(S'0:00:00'
p1961
V(12*C(32,4))-(C(11,1))
p1962
tp1963
a(S'0:00:06'
p1964
V(12*C(32,4))
p1965
tp1966
assVnnh002
p1967
(dp1968
S'part1_correct_attempt'
p1969
(lp1970
S'0:03:34'
p1971
aVC(32,5)-C(20,5)
p1972
asg9
V2015-10-22 03:06:34
p1973
sS'part1_incorrect_attempt'
p1974
(lp1975
(S'0:00:00'
p1976
VC(32,5)
p1977
tp1978
assVtol003
p1979
(dp1980
S'part1_correct_attempt'
p1981
(lp1982
S'0:44:24'
p1983
aVC(32,5)-C(20,5)
p1984
asg9
V2015-10-20 23:20:59
p1985
sS'part1_incorrect_attempt'
p1986
(lp1987
(S'0:00:00'
p1988
VC(47,5)*C(47,5)*4
p1989
tp1990
a(S'0:00:00'
p1991
VC(52,5)-C(40,5)
p1992
tp1993
a(S'0:00:00'
p1994
VC(52,5)-C(30,5)
p1995
tp1996
a(S'0:00:50'
p1997
VC(52,5)-C(24,5)
p1998
tp1999
a(S'0:00:56'
p2000
VC(52,5)-C(28,5)
p2001
tp2002
assVaakumar
p2003
(dp2004
S'part1_correct_attempt'
p2005
(lp2006
S'0:45:01'
p2007
aVC(32,5)-C(20,5)
p2008
asg9
V2015-10-19 05:11:36
p2009
sS'part1_incorrect_attempt'
p2010
(lp2011
(S'0:00:00'
p2012
VC(24,5)[C(52,5)-C(40,5)]
p2013
tp2014
a(S'0:00:53'
p2015
VC(24,5)*[C(52,5)-C(40,5)]
p2016
tp2017
a(S'0:01:33'
p2018
VC(28,5)*[C(52,5)-C(40,5)]
p2019
tp2020
a(S'0:03:48'
p2021
VC(28,5)-C(16,5)
p2022
tp2023
assVhachrist
p2024
(dp2025
S'part1_correct_attempt'
p2026
(lp2027
S'2:15:38'
p2028
aVC(32,5) - C(20,5)
p2029
asg9
V2015-10-21 20:04:14
p2030
sS'part1_incorrect_attempt'
p2031
(lp2032
(S'0:00:00'
p2033
V3!/(2!)
p2034
tp2035
assVkew017
p2036
(dp2037
S'part1_correct_attempt'
p2038
(lp2039
S'0:36:11'
p2040
aVC(32,5)-C(20,5)
p2041
asg9
V2015-10-22 19:14:17
p2042
sS'part1_incorrect_attempt'
p2043
(lp2044
(S'0:00:00'
p2045
V12+12*11/2+12!/3!/9!+12!/4!/8!+12!/5!/7!
p2046
tp2047
a(S'0:00:43'
p2048
V12+12*11/2+12!/(3!*9!)+12!/(4!*8!)+12!/(5!*7!)
p2049
tp2050
a(S'0:02:36'
p2051
V52!/(5!*47!)-40!/(5!*35!)
p2052
tp2053
a(S'0:06:19'
p2054
V(20!/(5!*15!))*(52!/(5!*47!)-40!/(5!*35!))
p2055
tp2056
a(S'0:07:30'
p2057
V(52!/(5!*47!)-20!/(5!*15!))*(52!/(5!*47!)-40!/(5!*35!))
p2058
tp2059
a(S'0:10:16'
p2060
V52!/(5!*47!)-40!/(5!*35!)
p2061
tp2062
a(S'0:11:57'
p2063
V52!/(5!*47!)-40!/(4!*36!)-20!/(4!*16!)
p2064
tp2065
assVdtea
p2066
(dp2067
S'part1_correct_attempt'
p2068
(lp2069
S'0:20:04'
p2070
aVC(32,5)-C(20,5)
p2071
asg9
V2015-10-22 22:18:32
p2072
sS'part1_incorrect_attempt'
p2073
(lp2074
(S'0:00:00'
p2075
VC(32,5)
p2076
tp2077
assVeaherman
p2078
(dp2079
S'part1_correct_attempt'
p2080
(lp2081
S'0:26:21'
p2082
aVC(32,5)-C(20,5)
p2083
asg9
V2015-10-22 06:45:21
p2084
sS'part1_incorrect_attempt'
p2085
(lp2086
(S'0:00:00'
p2087
V12*C(51,4)
p2088
tp2089
a(S'0:00:28'
p2090
V12*51*50*49*48
p2091
tp2092
a(S'0:01:40'
p2093
V12(C(51,4))
p2094
tp2095
a(S'0:04:44'
p2096
VC(52,5)-C(52-12,5)
p2097
tp2098
a(S'0:00:00'
p2099
VC(20,5)
p2100
tp2101
assVasetters
p2102
(dp2103
S'part1_correct_attempt'
p2104
(lp2105
S'0:30:51'
p2106
aVC(8*4,5)-C(5*4,5)
p2107
asg9
V2015-10-20 06:33:00
p2108
sS'part1_incorrect_attempt'
p2109
(lp2110
(S'0:00:00'
p2111
V12*C(52,4)
p2112
tp2113
a(S'0:00:39'
p2114
V12*4*4*C(52,4)
p2115
tp2116
a(S'0:26:15'
p2117
VC(28,5)
p2118
tp2119
a(S'0:27:56'
p2120
VC(28+7,5)
p2121
tp2122
a(S'0:28:12'
p2123
VC(28+4,5)
p2124
tp2125
a(S'0:28:34'
p2126
VC(8*4,5)
p2127
tp2128
assVtdurrer
p2129
(dp2130
S'part1_correct_attempt'
p2131
(lp2132
S'0:02:38'
p2133
aVC(32,5)-C(20,5)
p2134
asg9
V2015-10-22 23:19:21
p2135
sS'part1_incorrect_attempt'
p2136
(lp2137
(S'0:00:00'
p2138
VC(52,5)-C(44,5)
p2139
tp2140
a(S'0:00:14'
p2141
VC(52,5)
p2142
tp2143
a(S'0:01:47'
p2144
VC(20,5)
p2145
tp2146
assVcsl030
p2147
(dp2148
S'part1_correct_attempt'
p2149
(lp2150
S'0:10:26'
p2151
aVC(32,5) - C(20,5)
p2152
asg9
V2015-10-22 03:41:16
p2153
sS'part1_incorrect_attempt'
p2154
(lp2155
(S'0:00:00'
p2156
VC(32,5)
p2157
tp2158
assVyhhan
p2159
(dp2160
S'part1_correct_attempt'
p2161
(lp2162
S'0:01:25'
p2163
aVC(32,5)-C(20,5)
p2164
asg9
V2015-10-22 06:00:29
p2165
sS'part1_incorrect_attempt'
p2166
(lp2167
(S'0:00:00'
p2168
V32-20
p2169
tp2170
a(S'0:00:45'
p2171
V28-16
p2172
tp2173
assVvolim
p2174
(dp2175
S'part1_correct_attempt'
p2176
(lp2177
S'0:07:02'
p2178
aVC(32,5) - C(20,5)
p2179
asg9
V2015-10-21 02:40:01
p2180
sS'part1_incorrect_attempt'
p2181
(lp2182
(S'0:00:00'
p2183
V7^4
p2184
tp2185
a(S'0:00:12'
p2186
V7*4
p2187
tp2188
a(S'0:00:41'
p2189
VC(7*4, 5)
p2190
tp2191
a(S'0:00:46'
p2192
VC(7^4, 5)
p2193
tp2194
a(S'0:02:12'
p2195
VC(8*4, 5)
p2196
tp2197
a(S'0:02:17'
p2198
VC(8^4, 5)
p2199
tp2200
a(S'0:02:56'
p2201
VC(8*4, 5)
p2202
tp2203
a(S'0:04:53'
p2204
VC(52,5) - C(40,5)
p2205
tp2206
a(S'0:05:45'
p2207
VC(32,5)
p2208
tp2209
assVatorr
p2210
(dp2211
S'part1_correct_attempt'
p2212
(lp2213
S'20:31:16'
p2214
aVC(32,5) - C(20,5) 
p2215
asg9
V2015-10-21 22:08:05
p2216
sS'part1_incorrect_attempt'
p2217
(lp2218
(S'0:00:00'
p2219
VC(52,5) - (21 * 5!)
p2220
tp2221
a(S'0:02:57'
p2222
VC(52,5) - C(40,5)
p2223
tp2224
a(S'0:03:24'
p2225
V(C(52,5) - C(40,5))*(C(52,5) - C(52 - 20, 5))
p2226
tp2227
a(S'0:00:00'
p2228
V(C(52,5) - C(52 - 20, 5)) - (C(52,5) - C(40,5))
p2229
tp2230
a(S'0:02:54'
p2231
V(C(52,5) - C(40,5)) * (C(52,5) - C(52 - 20, 5))
p2232
tp2233
a(S'0:00:00'
p2234
VC(52,5) - C(40,5)
p2235
tp2236
a(S'0:00:23'
p2237
VC(52,5) - (C(40,5) + C(20,5))
p2238
tp2239
a(S'0:00:00'
p2240
V6 * 5!
p2241
tp2242
a(S'0:00:00'
p2243
VC(40,5) - C(32,5) 
p2244
tp2245
assVcagatep
p2246
(dp2247
S'part1_correct_attempt'
p2248
(lp2249
S'0:08:12'
p2250
aVC(32, 5) - C(20, 5)
p2251
asg9
V2015-10-22 20:53:35
p2252
sS'part1_incorrect_attempt'
p2253
(lp2254
(S'0:00:00'
p2255
V40!39!38!37!36!
p2256
tp2257
a(S'0:01:47'
p2258
V52!/47! - 40!/45!
p2259
tp2260
a(S'0:03:15'
p2261
VC(52, 5) - C(40, 5)
p2262
tp2263
assVytc012
p2264
(dp2265
S'part1_correct_attempt'
p2266
(lp2267
S'0:02:08'
p2268
aVC(32, 5) - C(20,5)
p2269
asg9
V2015-10-21 22:22:16
p2270
sS'part1_incorrect_attempt'
p2271
(lp2272
(S'0:00:00'
p2273
VC(45, 5) - C(33,5)
p2274
tp2275
a(S'0:00:00'
p2276
VC(44, 5) - C(32,5)
p2277
tp2278
a(S'0:00:35'
p2279
VC(20, 5) - C(8,5)
p2280
tp2281
a(S'0:00:45'
p2282
VC(21, 5) - C(9,5)
p2283
tp2284
assVtjke
p2285
(dp2286
S'part1_correct_attempt'
p2287
(lp2288
S'0:31:57'
p2289
aVC(12,1)*C(8*4-12,4)+C(12,2)*C(8*4-12,3)+C(12,3)*C(8*4-12,2)+C(12,4)*C(8*4-12,1)+C(12,5)
p2290
asg9
V2015-10-18 04:40:34
p2291
sS'part1_incorrect_attempt'
p2292
(lp2293
(S'0:00:00'
p2294
VC(3*4,1)*C(8*4-1,4)
p2295
tp2296
a(S'0:12:44'
p2297
V12*C(8*4-1,4)
p2298
tp2299
assVklala
p2300
(dp2301
S'part1_correct_attempt'
p2302
(lp2303
S'7:39:09'
p2304
aVC(32,5) - C(20,5)
p2305
asg9
V2015-10-20 19:45:45
p2306
sS'part1_incorrect_attempt'
p2307
(lp2308
(S'0:00:00'
p2309
VC(28,5) * (C(16,1) * C(51, 4))
p2310
tp2311
a(S'0:00:10'
p2312
VC(28,5) * (C(16,1) * C(52, 4))
p2313
tp2314
a(S'0:00:34'
p2315
VC(28,5) * (C(12,1) * C(51, 4))
p2316
tp2317
a(S'0:02:17'
p2318
VC(28,5) * (C(52,5) - C(40, 5))
p2319
tp2320
a(S'0:14:19'
p2321
VC(12,1)*C(31,4)
p2322
tp2323
a(S'0:14:30'
p2324
VC(12,1)*C(32,4)
p2325
tp2326
assVasp025
p2327
(dp2328
S'part1_correct_attempt'
p2329
(lp2330
S'0:02:43'
p2331
aV[32!/(5!27!)]-[20!/(5!15!)]
p2332
asg9
V2015-10-21 18:01:45
p2333
sS'part1_incorrect_attempt'
p2334
(lp2335
(S'0:00:00'
p2336
V32-12
p2337
tp2338
assVdlgoldbe
p2339
(dp2340
S'part1_correct_attempt'
p2341
(lp2342
S'0:10:04'
p2343
aV(32!/(5!*27!))-(C(20,5))
p2344
asg9
V2015-10-22 16:03:27
p2345
sS'part1_incorrect_attempt'
p2346
(lp2347
(S'0:00:00'
p2348
V20!/(5!*15!)
p2349
tp2350
a(S'0:00:17'
p2351
V20*5
p2352
tp2353
a(S'0:01:32'
p2354
V20+(52!/4!*48!)
p2355
tp2356
a(S'0:01:47'
p2357
V(52!/4!*48!)
p2358
tp2359
a(S'0:04:32'
p2360
V(52!/(5!*47!)) - (32!/(5!*27!))
p2361
tp2362
a(S'0:06:44'
p2363
V(52!/(5!*47!)) - (40!/(5!*35!))
p2364
tp2365
assVr2fisher
p2366
(dp2367
S'part1_correct_attempt'
p2368
(lp2369
S'0:05:16'
p2370
aVC(32,5) - C(20,5)
p2371
asg9
V2015-10-22 23:23:56
p2372
sS'part1_incorrect_attempt'
p2373
(lp2374
(S'0:00:00'
p2375
VC(12,1)*C(32,4)
p2376
tp2377
a(S'0:01:06'
p2378
V12*C(31,4)
p2379
tp2380
a(S'0:02:34'
p2381
V12*C(19,4)
p2382
tp2383
assVt2shin
p2384
(dp2385
S'part1_correct_attempt'
p2386
(lp2387
S'0:02:13'
p2388
aV(32!/(5!27!))-(20!/(5!15!))
p2389
asg9
V2015-10-22 20:38:01
p2390
sS'part1_incorrect_attempt'
p2391
(lp2392
(S'0:00:00'
p2393
V32-20
p2394
tp2395
assVvsamant
p2396
(dp2397
S'part1_correct_attempt'
p2398
(lp2399
S'0:08:03'
p2400
aVC(32,5)-C(20,5)
p2401
asg9
V2015-10-16 18:22:02
p2402
sS'part1_incorrect_attempt'
p2403
(lp2404
(S'0:00:00'
p2405
VC(52,5)-C(40,5)
p2406
tp2407
assVppanourg
p2408
(dp2409
S'part1_correct_attempt'
p2410
(lp2411
S'0:11:46'
p2412
aVC(32,5) - C(20,5)
p2413
asg9
V2015-10-22 10:39:25
p2414
sS'part1_incorrect_attempt'
p2415
(lp2416
(S'0:00:00'
p2417
VC(32,5)*C(12,1)*C(51,4)
p2418
tp2419
a(S'0:00:44'
p2420
VC(32,5)*C(12,1)*C(51,4)
p2421
tp2422
a(S'0:04:51'
p2423
VC(31,5)*C(12,1)
p2424
tp2425
a(S'0:05:02'
p2426
VC(31,4)*C(12,1)
p2427
tp2428
assVewbrenna
p2429
(dp2430
S'part1_correct_attempt'
p2431
(lp2432
S'0:17:00'
p2433
aVC(32,5)-C(20,5)
p2434
asg9
V2015-10-21 23:59:27
p2435
sS'part1_incorrect_attempt'
p2436
(lp2437
(S'0:00:00'
p2438
VC(50,4)
p2439
tp2440
a(S'0:05:50'
p2441
V((C(12,1)*C(40,4))+(C(12,2)*C(40,3))+(C(12,3)*C(40,2))+(C(12,4)*C(40,1))+(C(12,5)*C(40,0)))
p2442
tp2443
assVspw006
p2444
(dp2445
S'part1_correct_attempt'
p2446
(lp2447
S'0:09:14'
p2448
aVC(32,5)-C(20,5)
p2449
asg9
V2015-10-20 20:49:22
p2450
sS'part1_incorrect_attempt'
p2451
(lp2452
(S'0:00:00'
p2453
VC(32,5)
p2454
tp2455
a(S'0:00:16'
p2456
VP(32,5)
p2457
tp2458
a(S'0:00:24'
p2459
V32*31*30*29*28
p2460
tp2461
a(S'0:07:36'
p2462
VC(52,5)-C(40,5)
p2463
tp2464
a(S'0:08:47'
p2465
VC(32,5)
p2466
tp2467
assVany027
p2468
(dp2469
S'part1_correct_attempt'
p2470
(lp2471
S'0:18:04'
p2472
aVC(32, 5) - C(20,5) 
p2473
asg9
V2015-10-19 19:59:23
p2474
sS'part1_incorrect_attempt'
p2475
(lp2476
(S'0:00:00'
p2477
VC( 52-12, 1)
p2478
tp2479
a(S'0:00:18'
p2480
VC( 40,5)
p2481
tp2482
a(S'0:00:29'
p2483
VC( 52,12)
p2484
tp2485
a(S'0:02:00'
p2486
VC( 52,12)
p2487
tp2488
a(S'0:05:17'
p2489
VC(52,5) - C(40,5)
p2490
tp2491
assVrwthomps
p2492
(dp2493
S'part1_correct_attempt'
p2494
(lp2495
S'0:17:31'
p2496
aVC(32, 5) - C(20, 5)
p2497
asg9
V2015-10-20 22:36:33
p2498
sS'part1_incorrect_attempt'
p2499
(lp2500
(S'0:00:00'
p2501
V12 * 51 * 50 * 49 * 48
p2502
tp2503
a(S'0:01:12'
p2504
V51 * 50 * 49 * 48
p2505
tp2506
a(S'0:04:01'
p2507
VC(32, 5)
p2508
tp2509
a(S'0:07:51'
p2510
VC(31, 4)
p2511
tp2512
a(S'0:07:57'
p2513
VC(32, 4)
p2514
tp2515
a(S'0:08:04'
p2516
VC(32, 5)
p2517
tp2518
a(S'0:09:16'
p2519
V12 * 31 * 30 * 29 * 28
p2520
tp2521
assVs1powers
p2522
(dp2523
S'part1_correct_attempt'
p2524
(lp2525
S'1:00:00'
p2526
aV32!/(5!27!)- 20!/(5!15!)
p2527
asg9
V2015-10-21 18:56:40
p2528
sS'part1_incorrect_attempt'
p2529
(lp2530
(S'0:00:00'
p2531
V12* 51!/(47!4!)
p2532
tp2533
a(S'0:00:15'
p2534
V12* 51*50*49*48
p2535
tp2536
a(S'0:01:42'
p2537
V52!/(47!5!) - 40!/(35!5!)
p2538
tp2539
assVvsosnovs
p2540
(dp2541
S'part1_correct_attempt'
p2542
(lp2543
S'0:12:37'
p2544
aVC(52-20,5)- C(52-32,5)
p2545
asg9
V2015-10-22 05:11:04
p2546
sS'part1_incorrect_attempt'
p2547
(lp2548
(S'0:00:00'
p2549
VC(52,5)- C(32,5)
p2550
tp2551
a(S'0:07:59'
p2552
VC(12,1)
p2553
tp2554
a(S'0:08:48'
p2555
VC(52,5) - C(52-12,5)
p2556
tp2557
assVk5law
p2558
(dp2559
S'part1_correct_attempt'
p2560
(lp2561
S'0:01:49'
p2562
aV[32!/((32-5)!5!)]-[20!/((20-5)!5!)]
p2563
asg9
V2015-10-19 06:31:20
p2564
sS'part1_incorrect_attempt'
p2565
(lp2566
(S'0:00:00'
p2567
V[52!/((52-5)!5!)]-[40!/((40-5)!5!)]
p2568
tp2569
assVp4kumar
p2570
(dp2571
S'part1_correct_attempt'
p2572
(lp2573
S'0:09:37'
p2574
aVC(32, 5) - C(20, 5) 
p2575
asg9
V2015-10-22 17:35:42
p2576
sS'part1_incorrect_attempt'
p2577
(lp2578
(S'0:00:00'
p2579
VC(52 - (5 * 4), 5)
p2580
tp2581
assVamquinte
p2582
(dp2583
g9
V2015-10-21 23:20:45
p2584
sS'part1_incorrect_attempt'
p2585
(lp2586
(S'0:00:00'
p2587
VC(52,12)
p2588
tp2589
a(S'0:00:21'
p2590
VC(12,1)
p2591
tp2592
assVgsrandha
p2593
(dp2594
S'part1_correct_attempt'
p2595
(lp2596
S'2 days, 21:51:05'
p2597
aV(C(32,5)) - (C(20,5))
p2598
asg9
V2015-10-16 01:53:53
p2599
sS'part1_incorrect_attempt'
p2600
(lp2601
(S'0:00:00'
p2602
VC(40,5)
p2603
tp2604
a(S'0:00:16'
p2605
VC(12,5)
p2606
tp2607
a(S'0:00:00'
p2608
VC(12,5)
p2609
tp2610
a(S'0:02:00'
p2611
VC(52,5) - C(40,5)
p2612
tp2613
assVbmilton
p2614
(dp2615
S'part1_correct_attempt'
p2616
(lp2617
S'0:07:00'
p2618
aVC(32, 5) - C(20, 5)
p2619
asg9
V2015-10-21 03:05:58
p2620
sS'part1_incorrect_attempt'
p2621
(lp2622
(S'0:00:00'
p2623
VC(24,4) * 12
p2624
tp2625
a(S'0:00:05'
p2626
V24 * 12
p2627
tp2628
a(S'0:01:58'
p2629
VC(3,1) * C(4,1) * C(31, 4)
p2630
tp2631
a(S'0:02:28'
p2632
VC(4,1) * C(4,1) * C(31, 4)
p2633
tp2634
a(S'0:03:21'
p2635
VC(3,1) * C(4,1) * C(31, 4)
p2636
tp2637
assVdcgriffi
p2638
(dp2639
S'part1_correct_attempt'
p2640
(lp2641
S'1:16:35'
p2642
aVC(32,5) - C(20,5)
p2643
asg9
V2015-10-21 02:20:19
p2644
sS'part1_incorrect_attempt'
p2645
(lp2646
(S'0:00:00'
p2647
V32*31*30*29*28
p2648
tp2649
a(S'0:00:50'
p2650
V32*31*30*29*28/(5*4*3*2)
p2651
tp2652
a(S'0:00:00'
p2653
V32!
p2654
tp2655
a(S'0:11:26'
p2656
V(52!/(5!47!))-(32!/(5!*27!))
p2657
tp2658
assVrsmurlo
p2659
(dp2660
S'part1_correct_attempt'
p2661
(lp2662
S'1 day, 3:27:17'
p2663
aVC(32,5)-C(20,5)
p2664
asg9
V2015-10-20 20:59:03
p2665
sS'part1_incorrect_attempt'
p2666
(lp2667
(S'0:00:00'
p2668
V(12*51*50*49*48)/5!
p2669
tp2670
a(S'0:00:18'
p2671
V(12*51*50*49*48)
p2672
tp2673
a(S'0:01:06'
p2674
V(12*31*30*29*28)
p2675
tp2676
a(S'0:01:12'
p2677
V(12*31*30*29*28)/5!
p2678
tp2679
a(S'0:06:17'
p2680
V(12*31*30*29*28)*5!
p2681
tp2682
a(S'0:22:52'
p2683
VC(12,1)*C(31,4)
p2684
tp2685
a(S'0:24:27'
p2686
VC(12,1)*C(31,4)*5
p2687
tp2688
a(S'0:24:32'
p2689
VC(12,1)*C(31,4)*5!
p2690
tp2691
a(S'0:24:39'
p2692
VC(12,1)*C(31,4)/5
p2693
tp2694
assVdkostins
p2695
(dp2696
S'part1_correct_attempt'
p2697
(lp2698
S'1:24:09'
p2699
aVC(32,5)-C(20,5)
p2700
asg9
V2015-10-21 19:29:26
p2701
sS'part1_incorrect_attempt'
p2702
(lp2703
(S'0:00:00'
p2704
V32-20
p2705
tp2706
a(S'0:00:00'
p2707
V32-12
p2708
tp2709
a(S'0:00:44'
p2710
V32-(11)
p2711
tp2712
a(S'0:00:00'
p2713
V32-1
p2714
tp2715
a(S'0:00:03'
p2716
V32-2
p2717
tp2718
a(S'0:00:07'
p2719
V32-3
p2720
tp2721
a(S'0:00:10'
p2722
V32-4
p2723
tp2724
a(S'0:00:13'
p2725
V32-5
p2726
tp2727
a(S'0:00:16'
p2728
V32-6
p2729
tp2730
a(S'0:00:19'
p2731
V32-7
p2732
tp2733
assVpnquach
p2734
(dp2735
S'part1_correct_attempt'
p2736
(lp2737
S'0:01:21'
p2738
aV(C(32,5) - (C(20,5)))
p2739
asg9
V2015-10-22 08:43:40
p2740
sS'part1_incorrect_attempt'
p2741
(lp2742
(S'0:00:00'
p2743
VC(12, 5)
p2744
tp2745
assVtwsalim
p2746
(dp2747
S'part1_correct_attempt'
p2748
(lp2749
S'0:12:04'
p2750
aV185872
p2751
asg9
V2015-10-20 06:23:52
p2752
sS'part1_incorrect_attempt'
p2753
(lp2754
(S'0:00:00'
p2755
VC(31,4)*12
p2756
tp2757
a(S'0:01:25'
p2758
VC(32,4)
p2759
tp2760
assVs6deng
p2761
(dp2762
g9
V2015-10-21 23:17:11
p2763
sS'part1_incorrect_attempt'
p2764
(lp2765
(S'0:00:00'
p2766
VC(52,5)-C(40,5)
p2767
tp2768
a(S'0:00:00'
p2769
VC(40,5)
p2770
tp2771
assVachinn
p2772
(dp2773
S'part1_correct_attempt'
p2774
(lp2775
S'1:34:43'
p2776
aVC(32,5)-C(20,5)
p2777
asg9
V2015-10-20 00:06:20
p2778
sS'part1_incorrect_attempt'
p2779
(lp2780
(S'0:00:00'
p2781
V40*39*38*37*36
p2782
tp2783
a(S'0:17:03'
p2784
VC(52,5)-C(40,5)
p2785
tp2786
a(S'0:53:43'
p2787
VC(52,5)-C(32,5)
p2788
tp2789
assVkalang
p2790
(dp2791
S'part1_correct_attempt'
p2792
(lp2793
S'4:09:17'
p2794
aVC(32,5)-C(20,5)
p2795
asg9
V2015-10-22 16:34:39
p2796
sS'part1_incorrect_attempt'
p2797
(lp2798
(S'0:00:00'
p2799
VC(52,12)
p2800
tp2801
assVmsaguiar
p2802
(dp2803
S'part1_correct_attempt'
p2804
(lp2805
S'0:46:22'
p2806
aVC(32,5)-C(20,5)
p2807
asg9
V2015-10-21 01:09:27
p2808
sS'part1_incorrect_attempt'
p2809
(lp2810
(S'0:00:00'
p2811
V(4*3)(51)(50)(49)(48)
p2812
tp2813
a(S'0:01:10'
p2814
V28*27*25*24*23
p2815
tp2816
a(S'0:01:33'
p2817
V28*27*26*25*24
p2818
tp2819
a(S'0:02:25'
p2820
V32*31*30*29*28
p2821
tp2822
a(S'0:03:42'
p2823
V(12)(51)(50)(49)(48)
p2824
tp2825
a(S'0:13:52'
p2826
VC(52,5) - C(40,5)
p2827
tp2828
a(S'0:28:57'
p2829
V(C(52,5) - C(40,5))-(16*15*14*13*12)
p2830
tp2831
a(S'0:30:00'
p2832
V(C(52,5) - C(40,5))-(C(5,4))
p2833
tp2834
a(S'0:00:00'
p2835
V(C(8,5))-(C(6,5))
p2836
tp2837
a(S'0:00:34'
p2838
VC(8,5)-C(6,5)
p2839
tp2840
assVjdeon
p2841
(dp2842
S'part1_correct_attempt'
p2843
(lp2844
S'1:41:55'
p2845
aVC(32,5) - C(20,5)
p2846
asg9
V2015-10-22 02:43:18
p2847
sS'part1_incorrect_attempt'
p2848
(lp2849
(S'0:00:00'
p2850
V3*4*(C(51,4))
p2851
tp2852
a(S'0:00:00'
p2853
V3*4*(C(51,4)) * 5
p2854
tp2855
a(S'0:00:04'
p2856
V3*4*(C(51,4)) * 5
p2857
tp2858
a(S'0:03:06'
p2859
VC(52,5) - C(40,5)
p2860
tp2861
a(S'0:09:25'
p2862
VC(20,5)
p2863
tp2864
a(S'0:00:00'
p2865
V12*C(31,4)
p2866
tp2867
a(S'0:00:13'
p2868
V12*C(31,4)*5
p2869
tp2870
a(S'0:00:00'
p2871
VC(31,4)
p2872
tp2873
a(S'0:01:07'
p2874
V-(C(52,5) - C(40,5)) - (C(52,5) - C(20,5))
p2875
tp2876
a(S'0:01:23'
p2877
V-(C(52,5) - C(40,5)) + (C(52,5) - C(20,5))
p2878
tp2879
a(S'0:01:39'
p2880
V642504/2
p2881
tp2882
a(S'0:03:45'
p2883
VC(40,5) - C(32,5)
p2884
tp2885
assVsippolit
p2886
(dp2887
S'part1_correct_attempt'
p2888
(lp2889
S'8:32:57'
p2890
aVC(32,5)-C(20,5)
p2891
asg9
V2015-10-20 07:43:15
p2892
sS'part1_incorrect_attempt'
p2893
(lp2894
(S'0:00:00'
p2895
VC(16,5)
p2896
tp2897
a(S'0:00:07'
p2898
VC(12,5)
p2899
tp2900
a(S'8:31:43'
p2901
V(C(52,4)-C(20,4))+(C(52,1)-C(40,1))
p2902
tp2903
a(S'8:32:00'
p2904
V(C(52,4)-C(20,4))+(C(48,1)-C(36,1))
p2905
tp2906
assVmcatozzi
p2907
(dp2908
S'part1_correct_attempt'
p2909
(lp2910
S'0:34:14'
p2911
aVC(32,5) - C(20,5) 
p2912
asg9
V2015-10-20 23:25:42
p2913
sS'part1_incorrect_attempt'
p2914
(lp2915
(S'0:00:00'
p2916
V32*4
p2917
tp2918
a(S'0:00:00'
p2919
VC(36,5)
p2920
tp2921
a(S'0:00:00'
p2922
VC(32,4)
p2923
tp2924
a(S'0:00:00'
p2925
VC(52,5) - C(36,5)
p2926
tp2927
a(S'0:00:00'
p2928
VC(52,5) - C(40,5)
p2929
tp2930
a(S'0:00:00'
p2931
VC(32,4)
p2932
tp2933
assVairanmeh
p2934
(dp2935
S'part1_correct_attempt'
p2936
(lp2937
S'0:02:46'
p2938
aVC(32,5)-C(20,5)
p2939
asg9
V2015-10-22 19:36:34
p2940
sS'part1_incorrect_attempt'
p2941
(lp2942
(S'0:00:00'
p2943
V12*(7!/(3!4!))
p2944
tp2945
assVjnn015
p2946
(dp2947
S'part1_correct_attempt'
p2948
(lp2949
S'11:55:21'
p2950
aVC(32, 5) - C(20, 5)
p2951
asg9
V2015-10-22 10:44:56
p2952
sS'part1_incorrect_attempt'
p2953
(lp2954
(S'0:00:00'
p2955
V52!/5!/47! - 40!/35!/5!
p2956
tp2957
a(S'0:00:00'
p2958
V12*31!/4!/27!
p2959
tp2960
a(S'0:00:10'
p2961
V11*31!/4!/27!
p2962
tp2963
a(S'0:00:00'
p2964
V12*31*30*29*28
p2965
tp2966
a(S'0:00:00'
p2967
V3*4*20*19*18*17 + 12*11*20*19*18+12*11*10*20*19+12*11*10*9*20+12*11*10*9*8
p2968
tp2969
a(S'0:00:00'
p2970
V31!/27!/4!
p2971
tp2972
a(S'0:00:00'
p2973
V12*31!/27!/4!
p2974
tp2975
assVacs008
p2976
(dp2977
g9
V2015-10-22 04:44:30
p2978
sS'part1_incorrect_attempt'
p2979
(lp2980
(S'0:00:00'
p2981
V(1-2109/8330)*2598960
p2982
tp2983
a(S'0:00:00'
p2984
V(1-2109/8330)*2598960
p2985
tp2986
assVdpereira
p2987
(dp2988
S'part1_correct_attempt'
p2989
(lp2990
S'0:40:58'
p2991
aVC(32,5) - C(32-12,5)
p2992
asg9
V2015-10-19 06:16:58
p2993
sS'part1_incorrect_attempt'
p2994
(lp2995
(S'0:00:00'
p2996
V4*4*4
p2997
tp2998
a(S'0:01:33'
p2999
VC(12,1)
p3000
tp3001
a(S'0:02:07'
p3002
V12*51*50*49*48
p3003
tp3004
a(S'0:07:44'
p3005
VC(52,5) - C(52-12,5)
p3006
tp3007
assVhmshah
p3008
(dp3009
S'part1_correct_attempt'
p3010
(lp3011
S'0:00:39'
p3012
aVC(32,5) - C(20,5)
p3013
asg9
V2015-10-22 08:30:18
p3014
sS'part1_incorrect_attempt'
p3015
(lp3016
(S'0:00:00'
p3017
VC(32,5)
p3018
tp3019
assVhaliew
p3020
(dp3021
S'part1_correct_attempt'
p3022
(lp3023
S'1 day, 2:07:43'
p3024
aVC(32,5)-C(20,5)
p3025
asg9
V2015-10-20 22:09:59
p3026
sS'part1_incorrect_attempt'
p3027
(lp3028
(S'0:00:00'
p3029
V32+12
p3030
tp3031
a(S'0:00:00'
p3032
V20+12
p3033
tp3034
a(S'0:00:00'
p3035
VC(20,4)
p3036
tp3037
a(S'0:00:00'
p3038
VC(20,4)*C(12,1)
p3039
tp3040
a(S'0:00:00'
p3041
VC(20,5)*C(12,5)
p3042
tp3043
assVlahawkin
p3044
(dp3045
g9
V2015-10-20 23:17:31
p3046
sS'part1_incorrect_attempt'
p3047
(lp3048
(S'0:00:00'
p3049
V16*6+3*16
p3050
tp3051
a(S'0:00:51'
p3052
V8*16+3*16
p3053
tp3054
a(S'0:00:00'
p3055
V3*16
p3056
tp3057
a(S'0:00:00'
p3058
V(12)(40)(40)
p3059
tp3060
a(S'0:00:00'
p3061
V(3)(40)(40)*4
p3062
tp3063
a(S'0:00:00'
p3064
V12*40*39
p3065
tp3066
a(S'0:04:24'
p3067
V52*51*50-40*39*38
p3068
tp3069
a(S'0:04:33'
p3070
V52*51*50-40*39*38
p3071
tp3072
a(S'0:00:00'
p3073
V(52*51*50)/6-(40*39*38)/6
p3074
tp3075
a(S'0:03:04'
p3076
V(52!)/(5!47!)-(40!)/(5!35!)
p3077
tp3078
a(S'0:05:23'
p3079
V(24!)/(5!19!)+((52!)/(5!47!)-(40!)/(5!35!))
p3080
tp3081
a(S'0:07:31'
p3082
V(20!)/(5!15!)+((52!)/(5!47!)-(40!)/(5!35!))
p3083
tp3084
a(S'0:00:00'
p3085
V(52!)/(5!47!)-(20!)/(5!15!)+((52!)/(5!47!)-(40!)/(5!35!))
p3086
tp3087
a(S'0:00:00'
p3088
V((52!)/(5!47!)-(20!)/(5!15!))*((52!)/(5!47!)-(40!)/(5!35!))
p3089
tp3090
assVedcole
p3091
(dp3092
S'part1_correct_attempt'
p3093
(lp3094
S'0:02:14'
p3095
aVC(32, 5) - C(20, 5)
p3096
asg9
V2015-10-21 17:43:10
p3097
sS'part1_incorrect_attempt'
p3098
(lp3099
(S'0:00:00'
p3100
V(52!/(5!47!))-(40!/(5!*35!))
p3101
tp3102
a(S'0:00:52'
p3103
V40!/(35!*5!)
p3104
tp3105
assVaordookh
p3106
(dp3107
S'part1_correct_attempt'
p3108
(lp3109
S'14:10:14'
p3110
aVC(32,5)-(C(20,5))
p3111
asg9
V2015-10-22 04:11:58
p3112
sS'part1_incorrect_attempt'
p3113
(lp3114
(S'0:00:00'
p3115
VC(52-24,5)*(C(12,1))
p3116
tp3117
a(S'0:00:00'
p3118
VC(52-24,4)*(C(12,1))
p3119
tp3120
a(S'0:11:23'
p3121
V4*C(7,4)*(C(12,1))
p3122
tp3123
a(S'0:11:55'
p3124
V4*C(7,4)*(C(3,1))
p3125
tp3126
a(S'0:12:19'
p3127
V4*4*C(7,4)*(C(3,1))
p3128
tp3129
a(S'0:12:40'
p3130
V4*4*C(7,5)*(C(3,1))
p3131
tp3132
a(S'0:00:00'
p3133
V4*4*C(8,4)*(C(3,1))
p3134
tp3135
a(S'0:00:00'
p3136
V12(C(32,5)-(C(19,4)))
p3137
tp3138
a(S'0:00:00'
p3139
V12*C(32,5)-(C(19,4))
p3140
tp3141
assVkquong
p3142
(dp3143
S'part1_correct_attempt'
p3144
(lp3145
S'0:12:53'
p3146
aV32!/(5!(32-5)!) - 20!/(5!(20-5)!)
p3147
asg9
V2015-10-18 04:14:44
p3148
sS'part1_incorrect_attempt'
p3149
(lp3150
(S'0:00:00'
p3151
V12 * 32
p3152
tp3153
a(S'0:00:56'
p3154
V4*4*8*3
p3155
tp3156
a(S'0:03:46'
p3157
V32 * 31 * 30 * 29 * 3
p3158
tp3159
a(S'0:04:11'
p3160
V12 * 31 * 30 * 29 * 28
p3161
tp3162
a(S'0:05:38'
p3163
V32!/(4!(32-4)!) * 3
p3164
tp3165
a(S'0:08:11'
p3166
V12 * 31 * 30* 29 * 28 / 5!
p3167
tp3168
assVvasharma
p3169
(dp3170
S'part1_correct_attempt'
p3171
(lp3172
S'0:05:38'
p3173
aVC(32,5)-C(20,5)
p3174
asg9
V2015-10-21 23:17:48
p3175
sS'part1_incorrect_attempt'
p3176
(lp3177
(S'0:00:00'
p3178
VC(12,1)C(51,4)
p3179
tp3180
a(S'0:00:00'
p3181
VC(52,5)- C(40,5)
p3182
tp3183
a(S'0:00:00'
p3184
VC(52,5)-C(40,5)
p3185
tp3186
assVsyip
p3187
(dp3188
S'part1_correct_attempt'
p3189
(lp3190
S'0:00:32'
p3191
aVC(32, 5) - C(20,5)
p3192
asg9
V2015-10-18 21:46:12
p3193
sS'part1_incorrect_attempt'
p3194
(lp3195
(S'0:00:00'
p3196
VC(28, 5) - C(16,5)
p3197
tp3198
assVajvanega
p3199
(dp3200
S'part1_correct_attempt'
p3201
(lp3202
S'0:45:31'
p3203
aVC(32,5)-C(20,5)
p3204
asg9
V2015-10-21 23:44:16
p3205
sS'part1_incorrect_attempt'
p3206
(lp3207
(S'0:00:00'
p3208
VC(8,5)
p3209
tp3210
a(S'0:00:46'
p3211
VC(8,5)-1
p3212
tp3213
a(S'0:01:38'
p3214
VC(8,5)*4
p3215
tp3216
a(S'0:02:03'
p3217
V(C(8,5)*4)C(8,1)
p3218
tp3219
a(S'0:00:00'
p3220
V(4^4)-1
p3221
tp3222
a(S'0:00:00'
p3223
V(C(52,5)-C(40,5))+(C(52,2)-C(47,5))
p3224
tp3225
a(S'0:00:43'
p3226
V(C(52,5)-C(40,5))-(C(52,2)-C(47,5))
p3227
tp3228
a(S'0:01:15'
p3229
V(C(52,5)-C(40,5))+(C(52,2)-C(47,5))
p3230
tp3231
assVzhw110
p3232
(dp3233
S'part1_correct_attempt'
p3234
(lp3235
S'0:25:03'
p3236
aVC(32,5)-C(20,5)
p3237
asg9
V2015-10-21 22:12:21
p3238
sS'part1_incorrect_attempt'
p3239
(lp3240
(S'0:00:00'
p3241
VC(32,3)
p3242
tp3243
a(S'0:00:00'
p3244
VC(32,5)
p3245
tp3246
assVmtrafeca
p3247
(dp3248
S'part1_correct_attempt'
p3249
(lp3250
S'1:09:27'
p3251
aV|C(32,5)-(C(20,5))|
p3252
asg9
V2015-10-21 05:54:35
p3253
sS'part1_incorrect_attempt'
p3254
(lp3255
(S'0:00:00'
p3256
V32*12
p3257
tp3258
a(S'0:00:12'
p3259
V12+32
p3260
tp3261
a(S'0:11:00'
p3262
V((52!/(47!*5!))-(40!/(5!*35!)))*32
p3263
tp3264
a(S'0:11:11'
p3265
V((52!/(47!*5!))-(40!/(5!*35!)))*(32/52)
p3266
tp3267
a(S'0:12:51'
p3268
V((52!/(47!*5!))-(40!/(5!*35!)))*(32)
p3269
tp3270
a(S'0:18:10'
p3271
VC(32,5)
p3272
tp3273
assVmjethani
p3274
(dp3275
S'part1_correct_attempt'
p3276
(lp3277
S'0:19:35'
p3278
aVC(32,5) - C(20,5)
p3279
asg9
V2015-10-22 00:10:23
p3280
sS'part1_incorrect_attempt'
p3281
(lp3282
(S'0:00:00'
p3283
VC(52,5) - C(40,5)
p3284
tp3285
assVkosung
p3286
(dp3287
S'part1_correct_attempt'
p3288
(lp3289
S'1:28:55'
p3290
aVC(32,5) - C(20,5)
p3291
asg9
V2015-10-22 21:24:42
p3292
sS'part1_incorrect_attempt'
p3293
(lp3294
(S'0:00:00'
p3295
V52^5 - 40^5
p3296
tp3297
a(S'0:00:32'
p3298
VC(52,5) - C(40,5)
p3299
tp3300
a(S'0:00:00'
p3301
VC(24,5) - C(12,5)
p3302
tp3303
a(S'0:02:12'
p3304
VC(28,5) - C(16,5)
p3305
tp3306
assVj2phung
p3307
(dp3308
S'part1_correct_attempt'
p3309
(lp3310
S'0:19:05'
p3311
aV(32!/(27!5!))-(20!/(5!15!))
p3312
asg9
V2015-10-22 03:53:30
p3313
sS'part1_incorrect_attempt'
p3314
(lp3315
(S'0:00:00'
p3316
V4*8
p3317
tp3318
a(S'0:02:58'
p3319
V32*31*30*29*28
p3320
tp3321
a(S'0:05:57'
p3322
V52-(5*4)
p3323
tp3324
asssV3
p3325
(dp3326
Vt2shin
p3327
(dp3328
S'part3_correct_attempt'
p3329
(lp3330
S'0:15:54'
p3331
aV(185872/2.59896E+06)/(1.94095E+06/2.59896E+06)
p3332
asS'part2_correct_attempt'
p3333
(lp3334
S'0:12:26'
p3335
aV(52!/(5!47!))-(40!/(5!35!))
p3336
asS'part1_correct_attempt'
p3337
(lp3338
S'0:00:00'
p3339
ag2389
asg9
V2015-10-22 20:40:14
p3340
sS'part3_incorrect_attempt'
p3341
(lp3342
(S'0:15:24'
p3343
V52!/(5!47!)
p3344
tp3345
assVvsamant
p3346
(dp3347
S'part3_correct_attempt'
p3348
(lp3349
S'0:00:09'
p3350
aV(C(32,5)-C(20,5))/(C(52,5)-C(40,5))
p3351
asS'part3_incorrect_attempt'
p3352
(lp3353
(S'0:00:00'
p3354
VC(32,5)-C(20,5)/(C(52,5)-C(40,5))
p3355
tp3356
asS'part1_correct_attempt'
p3357
(lp3358
S'0:00:00'
p3359
ag2401
asg9
V2015-10-16 18:30:05
p3360
ssVaportuga
p3361
(dp3362
S'part3_correct_attempt'
p3363
(lp3364
S'0:02:24'
p3365
aV(201376-15504)/(2598960-658008)
p3366
asS'part2_correct_attempt'
p3367
(lp3368
S'0:00:53'
p3369
aV2598960-658008
p3370
asS'part1_correct_attempt'
p3371
(lp3372
S'0:00:00'
p3373
aV201376-15504
p3374
asg9
V2015-10-21 07:47:51
p3375
sS'part3_incorrect_attempt'
p3376
(lp3377
(S'0:01:28'
p3378
V(2598960-658008)/(201376-15504)
p3379
tp3380
assVfichoi
p3381
(dp3382
S'part3_correct_attempt'
p3383
(lp3384
S'0:02:24'
p3385
aV0.0958
p3386
asS'part2_correct_attempt'
p3387
(lp3388
S'-1 day, 23:44:29'
p3389
aV1940952
p3390
asS'part1_correct_attempt'
p3391
(lp3392
S'0:00:00'
p3393
aV185872
p3394
asg9
V2015-10-22 04:03:16
p3395
sS'part3_incorrect_attempt'
p3396
(lp3397
(S'0:02:18'
p3398
V0.0959
p3399
tp3400
assVabjara
p3401
(dp3402
S'part3_correct_attempt'
p3403
(lp3404
S'0:03:46'
p3405
aV[C(32, 5) - C(20, 5)]/(C(52, 5) - C(40, 5))
p3406
asS'part2_correct_attempt'
p3407
(lp3408
S'-1 day, 23:54:09'
p3409
aVC(52, 5) - C(40, 5)
p3410
asS'part1_correct_attempt'
p3411
(lp3412
S'0:00:00'
p3413
ag967
asg9
V2015-10-21 09:51:36
p3414
sS'part3_incorrect_attempt'
p3415
(lp3416
(S'0:01:14'
p3417
V[C(32, 5)*[C(52, 5) - C(40, 5)]]/C(32, 5)
p3418
tp3419
assVany027
p3420
(dp3421
S'part3_correct_attempt'
p3422
(lp3423
S'0:01:56'
p3424
aV(C(32, 5) - C(20,5)) / (C(52,5) - C(40,5))
p3425
asS'part3_incorrect_attempt'
p3426
(lp3427
(S'0:01:45'
p3428
VC(32, 5) - C(20,5) / (C(52,5) - C(40,5))
p3429
tp3430
asS'part1_correct_attempt'
p3431
(lp3432
S'0:00:00'
p3433
ag2473
asg9
V2015-10-19 20:17:27
p3434
ssVthk002
p3435
(dp3436
S'part3_correct_attempt'
p3437
(lp3438
S'0:01:11'
p3439
aV185872/1940952
p3440
asS'part2_correct_attempt'
p3441
(lp3442
S'-1 day, 23:22:02'
p3443
aV1940952
p3444
asS'part1_correct_attempt'
p3445
(lp3446
S'0:00:00'
p3447
ag1708
asg9
V2015-10-20 23:51:53
p3448
sS'part3_incorrect_attempt'
p3449
(lp3450
(S'0:00:42'
p3451
V 1 - C(20,5)/C(32,5)
p3452
tp3453
assVkthui
p3454
(dp3455
S'part3_correct_attempt'
p3456
(lp3457
S'0:08:09'
p3458
aV(32!/((32-5)!5!)-20!/((20-5)!5!))/(52!/((52-5)!5!)-40!/((40-5)!5!))
p3459
asS'part3_incorrect_attempt'
p3460
(lp3461
(S'0:03:08'
p3462
V((52!/((52-5)!5!)-40!/((40-5)!5!))/(52!/((52-5)!5!)))*((32!/((32-5)!5!))/(52!/((52-5)!5!)))
p3463
tp3464
a(S'0:05:34'
p3465
V(20!/((20-5)!5!))/(32!/((32-5)!5!))
p3466
tp3467
a(S'0:07:32'
p3468
V(20!/((20-5)!5!))/(32!/((32-5)!5!))
p3469
tp3470
asS'part1_correct_attempt'
p3471
(lp3472
S'0:00:00'
p3473
ag1042
asg9
V2015-10-18 08:12:16
p3474
ssVmbl003
p3475
(dp3476
S'part3_correct_attempt'
p3477
(lp3478
S'0:00:28'
p3479
aV(C(52-(4*5),5)-C(52-(4*8),5))/(C(52,5)-C(52-12,5))
p3480
asS'part3_incorrect_attempt'
p3481
(lp3482
(S'0:00:13'
p3483
VC(52-(4*5),5)-C(52-(4*8),5)/(C(52,5)-C(52-12,5))
p3484
tp3485
asS'part1_correct_attempt'
p3486
(lp3487
S'0:00:00'
p3488
ag1810
asg9
V2015-10-21 19:57:32
p3489
ssVnhn018
p3490
(dp3491
S'part3_correct_attempt'
p3492
(lp3493
S'0:00:55'
p3494
aV(C(32,5)-C(20,5))/(C(52,5)-C(40,5))
p3495
asS'part2_correct_attempt'
p3496
(lp3497
S'0:00:00'
p3498
aVC(52,5)-C(40,5)
p3499
asS'part1_correct_attempt'
p3500
(lp3501
S'0:00:00'
p3502
aV(C(32,5))-C(20,5)
p3503
asg9
V2015-10-22 20:05:41
p3504
sS'part3_incorrect_attempt'
p3505
(lp3506
(S'0:00:33'
p3507
VC(32,5)-C(20,5)/(C(52,5)-C(40,5))
p3508
tp3509
assVbmilton
p3510
(dp3511
S'part3_correct_attempt'
p3512
(lp3513
S'0:00:40'
p3514
aV(C(32, 5) - C(20, 5)) / (C(52, 5) - C(40,5))
p3515
asS'part2_correct_attempt'
p3516
(lp3517
S'-1 day, 23:59:07'
p3518
aVC(52, 5) - C(40,5)
p3519
asS'part1_correct_attempt'
p3520
(lp3521
S'0:00:00'
p3522
ag2619
asg9
V2015-10-21 03:12:58
p3523
sS'part3_incorrect_attempt'
p3524
(lp3525
(S'0:00:28'
p3526
VC(32, 5) - C(20, 5) / (C(52, 5) - C(40,5))
p3527
tp3528
assVrsmurlo
p3529
(dp3530
S'part3_correct_attempt'
p3531
(lp3532
S'0:02:37'
p3533
aV(C(32,5)-C(20,5))/(C(52,5)-C(40,5))
p3534
asS'part2_correct_attempt'
p3535
(lp3536
S'-2 days, 20:53:47'
p3537
aVC(52,5)-C(40,5)
p3538
asS'part1_correct_attempt'
p3539
(lp3540
S'0:00:00'
p3541
ag2664
asg9
V2015-10-22 00:26:20
p3542
sS'part3_incorrect_attempt'
p3543
(lp3544
(S'0:00:43'
p3545
VC(32,5)-C(20,5)/185872
p3546
tp3547
assVanl114
p3548
(dp3549
S'part3_correct_attempt'
p3550
(lp3551
S'0:05:54'
p3552
aV185872/1940952
p3553
asS'part2_correct_attempt'
p3554
(lp3555
S'0:00:00'
p3556
aV1940952
p3557
asS'part1_correct_attempt'
p3558
(lp3559
S'0:00:00'
p3560
ag314
asg9
V2015-10-22 15:43:21
p3561
sS'part3_incorrect_attempt'
p3562
(lp3563
(S'0:04:53'
p3564
V(185872*1940952)/201376
p3565
tp3566
assVkew060
p3567
(dp3568
S'part3_correct_attempt'
p3569
(lp3570
S'0:01:04'
p3571
aV(C(32,5)-C(20,5))/(C(52,5)-C(40,5))
p3572
asS'part2_correct_attempt'
p3573
(lp3574
S'0:00:49'
p3575
aVC(52,5)-C(40,5)
p3576
asS'part1_correct_attempt'
p3577
(lp3578
S'0:00:00'
p3579
aVC(32,5)-C(20,5)
p3580
asg9
V2015-10-22 22:38:15
p3581
sS'part3_incorrect_attempt'
p3582
(lp3583
(S'0:00:49'
p3584
VC(32,5)-C(20,5)/(C(52,5)-C(40,5))
p3585
tp3586
assVtol003
p3587
(dp3588
S'part3_correct_attempt'
p3589
(lp3590
S'0:08:51'
p3591
aV((C(32,5)-C(20,5))/C(52,5))/((C(52,5)-C(40,5))/C(52,5))
p3592
asS'part3_incorrect_attempt'
p3593
(lp3594
(S'0:03:39'
p3595
V[[C(32,5)-C(20,5)]/C(52,5)]/[C(52,5)-C(40,5)]/C(52,5)
p3596
tp3597
a(S'0:04:39'
p3598
V[[C(32,5)-C(20,5)]/C(32,5)]/[C(52,5)-C(40,5)]/[C(32,5)]
p3599
tp3600
a(S'0:05:03'
p3601
V[[C(32,5)-C(20,5)]/C(32,5)]/[C(52,5)-C(40,5)]/[C(52,5)]
p3602
tp3603
a(S'0:05:54'
p3604
V[[C(32,5)-C(20,5)]/C(52,5)]/[C(52,5)-C(40,5)]/[C(52,5)]
p3605
tp3606
asS'part1_correct_attempt'
p3607
(lp3608
S'0:00:00'
p3609
ag1984
asg9
V2015-10-21 00:05:23
p3610
ssVdgunawan
p3611
(dp3612
S'part3_correct_attempt'
p3613
(lp3614
S'0:02:05'
p3615
aV(C(32, 5)-C(20,5))/(C(52,5)-C(40,5)/C(52,5)-C(40,5))
p3616
asS'part2_correct_attempt'
p3617
(lp3618
S'0:00:51'
p3619
aVC(52,5)-C(40,5)/C(52,5)-C(40,5)
p3620
asS'part1_correct_attempt'
p3621
(lp3622
S'0:00:00'
p3623
ag407
asg9
V2015-10-22 04:42:57
p3624
sS'part3_incorrect_attempt'
p3625
(lp3626
(S'0:00:51'
p3627
VC(32, 5)-C(20,5)
p3628
tp3629
a(S'0:01:23'
p3630
VC(32, 5)-C(20,5)/(C(52,5)-C(40,5)/C(52,5)-C(40,5))
p3631
tp3632
assVrraiyyan
p3633
(dp3634
S'part3_correct_attempt'
p3635
(lp3636
S'0:05:54'
p3637
aV(C(12,1)*C(20,4)+C(12,2)*C(20,3)+C(12,3)*C(20,2)+C(12,4)*C(20,1)+C(12,5))/(C(12,1)*C(40,4)+C(12,2)*C(40,3)+C(12,3)*C(40,2)+C(12,4)*C(40,1)+C(12,5))
p3638
asS'part2_correct_attempt'
p3639
(lp3640
S'-1 day, 23:58:08'
p3641
aVC(12,1)*C(40,4)+C(12,2)*C(40,3)+C(12,3)*C(40,2)+C(12,4)*C(40,1)+C(12,5)
p3642
asS'part1_correct_attempt'
p3643
(lp3644
S'0:00:00'
p3645
ag1216
asg9
V2015-10-22 06:44:28
p3646
sS'part3_incorrect_attempt'
p3647
(lp3648
(S'0:01:13'
p3649
V(C(12,1)*C(40,4)+C(12,2)*C(40,3)+C(12,3)*C(40,2)+C(12,4)*C(40,1)+(C(12,5))*(C(12,1)*C(20,4)+C(12,2)*C(20,3)+C(12,3)*C(20,2)+C(12,4)*C(20,1)+C(12,5)))/4^8
p3650
tp3651
a(S'0:03:30'
p3652
V(C(12,1)*C(40,4)+C(12,2)*C(40,3)+C(12,3)*C(40,2)+C(12,4)*C(40,1)+(C(12,5))/(C(12,1)*C(20,4)+C(12,2)*C(20,3)+C(12,3)*C(20,2)+C(12,4)*C(20,1)+C(12,5)))
p3653
tp3654
a(S'0:05:26'
p3655
V(C(12,1)*C(40,4)+C(12,2)*C(40,3)+C(12,3)*C(40,2)+C(12,4)*C(40,1)+C(12,5))/(C(12,1)*C(20,4)+C(12,2)*C(20,3)+C(12,3)*C(20,2)+C(12,4)*C(20,1)+C(12,5))
p3656
tp3657
assVssamudra
p3658
(dp3659
S'part3_correct_attempt'
p3660
(lp3661
S'0:03:42'
p3662
aV(C(32,5) - C(20,5))/(C(52,5) - C(40,5))
p3663
asS'part2_correct_attempt'
p3664
(lp3665
S'0:02:37'
p3666
aVC(52,5) - C(40,5)
p3667
asS'part1_correct_attempt'
p3668
(lp3669
S'0:00:00'
p3670
ag428
asg9
V2015-10-23 00:42:58
p3671
sS'part3_incorrect_attempt'
p3672
(lp3673
(S'0:03:23'
p3674
VC(32,5) - C(20,5)/(C(52,5) - C(40,5))
p3675
tp3676
assVkew017
p3677
(dp3678
S'part3_correct_attempt'
p3679
(lp3680
S'0:03:35'
p3681
aV(C(32,5)-C(20,5))/(52!/(5!*47!)-40!/(5!*35!))
p3682
asS'part3_incorrect_attempt'
p3683
(lp3684
(S'0:01:31'
p3685
VC(32,5)-C(20,5)/(52!/(5!*47!)-40!/(5!*35!))
p3686
tp3687
asS'part1_correct_attempt'
p3688
(lp3689
S'0:00:00'
p3690
ag2041
asg9
V2015-10-22 19:50:28
p3691
ssVt1tran
p3692
(dp3693
S'part3_correct_attempt'
p3694
(lp3695
S'0:00:12'
p3696
aV(C(32,5)-C(20,5))/(C(52,5)-C(40,5))
p3697
asS'part2_correct_attempt'
p3698
(lp3699
S'0:00:00'
p3700
aVC(52,5)-C(40,5)
p3701
asS'part1_correct_attempt'
p3702
(lp3703
S'0:00:00'
p3704
aVC(32,5)-C(20,5)
p3705
asg9
V2015-10-18 03:09:50
p3706
sS'part3_incorrect_attempt'
p3707
(lp3708
(S'0:00:00'
p3709
VC(32,5)-C(20,5)/(C(52,5)-C(40,5))
p3710
tp3711
assVz3meng
p3712
(dp3713
S'part3_correct_attempt'
p3714
(lp3715
S'0:00:59'
p3716
aV185872/1940952
p3717
asS'part2_correct_attempt'
p3718
(lp3719
S'0:00:00'
p3720
aV1940952
p3721
asS'part1_correct_attempt'
p3722
(lp3723
S'0:00:00'
p3724
aV185872
p3725
asg9
V2015-10-22 17:59:56
p3726
sS'part3_incorrect_attempt'
p3727
(lp3728
(S'0:00:36'
p3729
V0.0803
p3730
tp3731
assVhah008
p3732
(dp3733
S'part3_correct_attempt'
p3734
(lp3735
S'0:01:55'
p3736
aV(C(32,5) - C(20,5)) / (C(52,5) - C(40,5))
p3737
asS'part2_correct_attempt'
p3738
(lp3739
S'0:01:11'
p3740
aVC(52,5) - C(40,5)
p3741
asS'part1_correct_attempt'
p3742
(lp3743
S'0:00:00'
p3744
aVC(32,5) - C(20,5)
p3745
asg9
V2015-10-21 07:49:46
p3746
sS'part3_incorrect_attempt'
p3747
(lp3748
(S'0:01:22'
p3749
VC(52,5) - C(40,5)
p3750
tp3751
assVajabasa
p3752
(dp3753
S'part3_correct_attempt'
p3754
(lp3755
S'0:00:36'
p3756
aV(C(32,5) - C(20, 5))/(C(52, 5) - C(40, 5))
p3757
asS'part2_correct_attempt'
p3758
(lp3759
S'-1 day, 23:58:09'
p3760
aVC(52, 5) - C(40, 5)
p3761
asS'part1_correct_attempt'
p3762
(lp3763
S'0:00:00'
p3764
aVC(32,5) - C(20, 5)
p3765
asg9
V2015-10-22 06:01:38
p3766
sS'part3_incorrect_attempt'
p3767
(lp3768
(S'0:00:23'
p3769
VC(32,5) - C(20, 5)/(C(52, 5) - C(40, 5))
p3770
tp3771
assVeaherman
p3772
(dp3773
S'part3_correct_attempt'
p3774
(lp3775
S'0:03:25'
p3776
aV[C(32,5)-C(20,5)]/[[C(52,5)-C(52-12,5)]]
p3777
asS'part3_incorrect_attempt'
p3778
(lp3779
(S'0:03:09'
p3780
VC(32,5)-C(20,5)/[[C(52,5)-C(52-12,5)]]
p3781
tp3782
asS'part1_correct_attempt'
p3783
(lp3784
S'0:00:00'
p3785
ag2083
asg9
V2015-10-22 07:11:42
p3786
ssVsrl006
p3787
(dp3788
S'part3_correct_attempt'
p3789
(lp3790
S'0:06:44'
p3791
aV0.095763414
p3792
asS'part3_incorrect_attempt'
p3793
(lp3794
(S'0:02:40'
p3795
V0.00958
p3796
tp3797
a(S'0:03:34'
p3798
V201376/1.94095E+06
p3799
tp3800
asS'part1_correct_attempt'
p3801
(lp3802
S'0:00:00'
p3803
ag66
asg9
V2015-10-22 05:43:46
p3804
ssVetemlock
p3805
(dp3806
S'part3_correct_attempt'
p3807
(lp3808
S'0:05:08'
p3809
aV[[C(32,5)-C(20,5)]/C(52,5)]/[[C(52,5)-C(40,5)]/C(52,5)]
p3810
asS'part3_incorrect_attempt'
p3811
(lp3812
(S'0:04:37'
p3813
V[[C(32,5)-C(20,5)]/C(52,5)]/[C(52,5)-C(40,5)/C(52,5)]
p3814
tp3815
asS'part1_correct_attempt'
p3816
(lp3817
S'0:00:00'
p3818
ag1330
asg9
V2015-10-21 09:58:26
p3819
ssVjnn015
p3820
(dp3821
S'part3_correct_attempt'
p3822
(lp3823
S'0:06:40'
p3824
aV(C(32, 5) - C(20, 5))/(52!/5!/47! - 40!/35!/5!)
p3825
asS'part2_correct_attempt'
p3826
(lp3827
S'0:05:58'
p3828
aV52!/5!/47! - 40!/35!/5!
p3829
asS'part1_correct_attempt'
p3830
(lp3831
S'0:00:00'
p3832
ag2951
asg9
V2015-10-22 22:40:17
p3833
sS'part3_incorrect_attempt'
p3834
(lp3835
(S'0:06:21'
p3836
VC(32, 5) - C(20, 5)/(52!/5!/47! - 40!/35!/5!)
p3837
tp3838
assVacs008
p3839
(dp3840
S'part3_incorrect_attempt'
p3841
(lp3842
(S'0:00:00'
p3843
V((32*31*30*29*28)/(52*51*50*49*48))*(1-2109/8330)
p3844
tp3845
asg9
V2015-10-22 05:12:03
p3846
ssVachava
p3847
(dp3848
S'part3_correct_attempt'
p3849
(lp3850
S'0:01:19'
p3851
aV(C(32,5) - C(20,5) )/ (C(52,5) - C(40,5))
p3852
asS'part3_incorrect_attempt'
p3853
(lp3854
(S'0:01:08'
p3855
VC(32,5) - C(20,5) / (C(52,5) - C(40,5))
p3856
tp3857
asS'part1_correct_attempt'
p3858
(lp3859
S'0:00:00'
p3860
ag616
asg9
V2015-10-19 18:29:19
p3861
ssVarc013
p3862
(dp3863
S'part3_correct_attempt'
p3864
(lp3865
S'0:03:41'
p3866
aV(C(32, 5)-C(20, 5))/(C(52, 5) -C(40, 5))
p3867
asS'part3_incorrect_attempt'
p3868
(lp3869
(S'0:03:22'
p3870
VC(32, 5)-C(20, 5)/(C(32, 5)-C(20, 5))
p3871
tp3872
asS'part1_correct_attempt'
p3873
(lp3874
S'0:00:00'
p3875
ag664
asg9
V2015-10-21 09:59:15
p3876
ssVralhadda
p3877
(dp3878
S'part3_incorrect_attempt'
p3879
(lp3880
(S'0:00:00'
p3881
V0.3
p3882
tp3883
asg9
V2015-10-22 04:21:18
p3884
ssVdcastlem
p3885
(dp3886
S'part3_correct_attempt'
p3887
(lp3888
S'0:35:51'
p3889
aV185872/(C(52,5)-C(40,5))
p3890
asS'part2_correct_attempt'
p3891
(lp3892
S'0:20:40'
p3893
aVC(52,5)-C(40,5)
p3894
asS'part1_correct_attempt'
p3895
(lp3896
S'0:00:00'
p3897
ag1474
asg9
V2015-10-21 19:46:08
p3898
sS'part3_incorrect_attempt'
p3899
(lp3900
(S'0:21:10'
p3901
V(C(52,5)-C(40,5))/(C(32,5)-C(20,5))
p3902
tp3903
a(S'0:22:04'
p3904
V(C(52,5)-C(40,5))*(C(32,5)-C(20,5))
p3905
tp3906
a(S'0:29:50'
p3907
VC(52,5)-C(40,5)-C(32,5)-C(20,5)
p3908
tp3909
a(S'0:30:13'
p3910
V(C(52,5)-C(40,5))-(C(32,5)-C(20,5))
p3911
tp3912
a(S'0:32:26'
p3913
V(C(52,5)-C(40,5))/C(52,5)
p3914
tp3915
a(S'0:34:05'
p3916
VC(52,5)-C(40,5)+C(32,5)-C(20,5)
p3917
tp3918
a(S'0:35:09'
p3919
VC(52,5)-C(40,5)/(185872)
p3920
tp3921
a(S'0:35:20'
p3922
V(C(52,5)-C(40,5))/(185872)
p3923
tp3924
a(S'0:35:37'
p3925
V(C(52,5)-C(40,5))*185872
p3926
tp3927
assVajvanega
p3928
(dp3929
S'part3_correct_attempt'
p3930
(lp3931
S'0:06:52'
p3932
aV(C(32,5)-C(20,5))/(C(52,5)-C(40,5))
p3933
asS'part2_correct_attempt'
p3934
(lp3935
S'-1 day, 23:39:46'
p3936
aVC(52,5)-C(40,5)
p3937
asS'part1_correct_attempt'
p3938
(lp3939
S'0:00:00'
p3940
ag3204
asg9
V2015-10-22 00:29:47
p3941
sS'part3_incorrect_attempt'
p3942
(lp3943
(S'0:05:16'
p3944
V(C(52,5)-C(40,5))/(C(52,5)-C(40,5))
p3945
tp3946
assVytc012
p3947
(dp3948
S'part3_correct_attempt'
p3949
(lp3950
S'0:00:42'
p3951
aV(C(32, 5) - C(20,5))/(C(52,5) - C(40, 5))
p3952
asS'part2_correct_attempt'
p3953
(lp3954
S'-1 day, 23:56:40'
p3955
aVC(52,5) - C(40, 5)
p3956
asS'part1_correct_attempt'
p3957
(lp3958
S'0:00:00'
p3959
ag2269
asg9
V2015-10-21 22:24:24
p3960
sS'part3_incorrect_attempt'
p3961
(lp3962
(S'0:00:30'
p3963
VC(32, 5) - C(20,5)/(C(52,5) - C(40, 5))
p3964
tp3965
assVggaddi
p3966
(dp3967
S'part3_correct_attempt'
p3968
(lp3969
S'0:01:26'
p3970
aV[C(20,4)*C(12,1)+C(20,3)*C(12,2)+C(20,2)*C(12,3)+C(20,1)*C(12,4)+C(20,0)*C(12,5)]/[C(12,1) * C(40,4) + C(12,2) * C(40,3) + C(12,3) * C(40,2) +C(12,4) * C(40,1)+C(12,5) * C(40,0)]
p3971
asS'part3_incorrect_attempt'
p3972
(lp3973
(S'0:01:02'
p3974
V[C(20,4)*C(12,1)+C(20,3)*C(12,2)+C(20,2)*C(12,3)+C(20,1)*C(12,4)+C(20,0)*C(12,5)*C(12,1) / C(40,4) + C(12,2) * C(40,3) + C(12,3) * C(40,2) +C(12,4) * C(40,1)+C(12,5) * C(40,0)]
p3975
tp3976
asS'part1_correct_attempt'
p3977
(lp3978
S'0:00:00'
p3979
ag769
asg9
V2015-10-17 04:17:11
p3980
sssV2
p3981
(dp3982
Vctroncos
p3983
(dp3984
S'part2_correct_attempt'
p3985
(lp3986
S'0:17:05'
p3987
aVC(52,5)-C(40,5)
p3988
asg9
V2015-10-22 17:02:26
p3989
sS'part2_incorrect_attempt'
p3990
(lp3991
(S'0:16:53'
p3992
VC(52,5)
p3993
tp3994
assVc2qiu
p3995
(dp3996
S'part2_correct_attempt'
p3997
(lp3998
S'0:00:00'
p3999
aVC(52,5)-C(40,5)
p4000
asg9
V2015-10-22 16:03:25
p4001
sS'part2_incorrect_attempt'
p4002
(lp4003
(S'-1 day, 23:53:10'
p4004
V(C(3,1)*C(10,4)+C(3,2)*C(10,3)+C(3,3)*C(10,2))
p4005
tp4006
assVv4zhang
p4007
(dp4008
S'part2_correct_attempt'
p4009
(lp4010
S'0:00:00'
p4011
aVC(52, 5)-C(40, 5)
p4012
asg9
V2015-10-22 09:35:07
p4013
sS'part2_incorrect_attempt'
p4014
(lp4015
(S'-1 day, 23:38:21'
p4016
VC(12, 1)+C(12, 2)+C(12, 3)+C(12, 4)+C(12, 5) + C(12, 6)+C(12, 7)+C(12, 8)+C(12, 9)+C(12, 10)+C(12, 11) + C(12, 12)
p4017
tp4018
a(S'-1 day, 23:39:57'
p4019
VC(12, 1)+C(12, 2)+C(12, 3)
p4020
tp4021
assVt2shin
p4022
(dp4023
S'part2_correct_attempt'
p4024
(lp4025
S'0:12:26'
p4026
ag3336
asg9
g3340
sS'part2_incorrect_attempt'
p4027
(lp4028
(S'0:00:11'
p4029
V(20!/(5!15!))
p4030
tp4031
a(S'0:07:21'
p4032
V(12!/(1!11!))+(12!/(2!10!))+(12!/(3!9!))+(12!/(4!8!))+(12!/(5!7!))
p4033
tp4034
assVkebao
p4035
(dp4036
S'part2_correct_attempt'
p4037
(lp4038
S'0:00:00'
p4039
aVC(52,5)-C(40,5)
p4040
asg9
V2015-10-22 20:24:16
p4041
sS'part2_incorrect_attempt'
p4042
(lp4043
(S'-1 day, 7:08:50'
p4044
VC(20, 5)
p4045
tp4046
a(S'-1 day, 22:16:15'
p4047
VC(20,5)
p4048
tp4049
assVlguintu
p4050
(dp4051
S'part2_correct_attempt'
p4052
(lp4053
S'-1 day, 23:58:32'
p4054
aVC(52,5)-C(40,5)
p4055
asg9
V2015-10-16 04:28:05
p4056
sS'part2_incorrect_attempt'
p4057
(lp4058
(S'-1 day, 23:54:41'
p4059
VC(52,5)
p4060
tp4061
assVjguanzho
p4062
(dp4063
g9
V2015-10-21 04:45:28
p4064
sS'part2_incorrect_attempt'
p4065
(lp4066
(S'-3 days, 18:01:50'
p4067
V12 * 51*50*49*48
p4068
tp4069
a(S'-3 days, 18:02:47'
p4070
V4*12 * 51*50*49*48
p4071
tp4072
assValakamsa
p4073
(dp4074
S'part2_correct_attempt'
p4075
(lp4076
S'1:31:22'
p4077
aV12*C(40,4)+C(12,2)C(40,3)+C(12,3)C(40,2)+C(12,4)C(40,1)
p4078
asg9
V2015-10-17 23:15:29
p4079
sS'part2_incorrect_attempt'
p4080
(lp4081
(S'0:00:00'
p4082
VC(12,1)*C(51,4)
p4083
tp4084
a(S'0:00:00'
p4085
VC(16,1)*C(51,4)
p4086
tp4087
a(S'0:00:00'
p4088
V12*C(51,4)
p4089
tp4090
a(S'0:00:00'
p4091
V16*C(51,4)
p4092
tp4093
assVdgunawan
p4094
(dp4095
S'part2_correct_attempt'
p4096
(lp4097
S'0:00:51'
p4098
ag3620
asg9
g3624
sS'part2_incorrect_attempt'
p4099
(lp4100
(S'-1 day, 1:49:20'
p4101
VC(12, 1) * C(11,1) * C(10, 1) * C(9, 1) * C(8, 1)
p4102
tp4103
a(S'-1 day, 1:50:05'
p4104
V5*C(12, 1)
p4105
tp4106
a(S'-1 day, 1:50:11'
p4107
V4*C(12, 1)
p4108
tp4109
a(S'-1 day, 23:58:30'
p4110
VC(20,5)
p4111
tp4112
assVasp025
p4113
(dp4114
S'part2_correct_attempt'
p4115
(lp4116
S'0:04:36'
p4117
aV[52!/(5!47!)]-[40!/(5!35!)]
p4118
asg9
V2015-10-21 18:04:28
p4119
sS'part2_incorrect_attempt'
p4120
(lp4121
(S'0:02:09'
p4122
V20!/(5!15!)
p4123
tp4124
a(S'0:02:38'
p4125
V12!/5!7!
p4126
tp4127
a(S'0:02:47'
p4128
V12!/(5!7!)
p4129
tp4130
assVkrau
p4131
(dp4132
g9
V2015-10-21 04:00:46
p4133
sS'part2_incorrect_attempt'
p4134
(lp4135
(S'-1 day, 23:52:33'
p4136
V52*51*50*49*48-40*39*38*37*36
p4137
tp4138
assVawollner
p4139
(dp4140
S'part2_correct_attempt'
p4141
(lp4142
S'-1 day, 23:57:53'
p4143
aVC(52,5)-C(40,5)
p4144
asg9
V2015-10-21 17:44:45
p4145
sS'part2_incorrect_attempt'
p4146
(lp4147
(S'-1 day, 5:05:34'
p4148
VC(12,1)*C(51,4)
p4149
tp4150
a(S'-1 day, 5:08:26'
p4151
VC(12,1)
p4152
tp4153
a(S'-1 day, 5:08:47'
p4154
VC(12,1)*5*C(51,4)
p4155
tp4156
a(S'-1 day, 5:09:02'
p4157
V12*5*C(51,4)
p4158
tp4159
assVdcrume
p4160
(dp4161
S'part2_correct_attempt'
p4162
(lp4163
S'0:09:28'
p4164
aVC(52,5) - C(40, 5)
p4165
asg9
V2015-10-21 19:51:41
p4166
sS'part2_incorrect_attempt'
p4167
(lp4168
(S'0:04:40'
p4169
V52-12
p4170
tp4171
assVanl114
p4172
(dp4173
S'part2_correct_attempt'
p4174
(lp4175
S'0:00:00'
p4176
ag3557
asg9
g3561
sS'part2_incorrect_attempt'
p4177
(lp4178
(S'-1 day, 23:50:38'
p4179
V12*249900
p4180
tp4181
assVdkurli
p4182
(dp4183
g9
V2015-10-21 04:00:41
p4184
sS'part2_incorrect_attempt'
p4185
(lp4186
(S'-1 day, 23:52:00'
p4187
V52*51*50*49*48-40*39*38*37*36
p4188
tp4189
a(S'-1 day, 23:52:57'
p4190
V52*51*10*49*48-10*39*38*37*36
p4191
tp4192
assVj5phung
p4193
(dp4194
S'part2_correct_attempt'
p4195
(lp4196
S'-1 day, 23:53:46'
p4197
aVC(52,5)-C(40,5)
p4198
asg9
V2015-10-16 17:56:17
p4199
sS'part2_incorrect_attempt'
p4200
(lp4201
(S'-1 day, 23:39:25'
p4202
VC(12,1)
p4203
tp4204
a(S'-1 day, 23:40:24'
p4205
V1-C(12,0)
p4206
tp4207
a(S'-1 day, 23:53:21'
p4208
VC(40,4)
p4209
tp4210
assVdkostins
p4211
(dp4212
S'part2_correct_attempt'
p4213
(lp4214
S'3:39:20'
p4215
aVC(52,5)-C(40,5)
p4216
asg9
V2015-10-21 20:53:35
p4217
sS'part2_incorrect_attempt'
p4218
(lp4219
(S'0:00:07'
p4220
VC(20,5)
p4221
tp4222
a(S'0:00:40'
p4223
V12C(19,4)
p4224
tp4225
a(S'0:00:47'
p4226
V12C(20,4)
p4227
tp4228
a(S'0:01:34'
p4229
V12C(51,4)
p4230
tp4231
a(S'0:01:41'
p4232
V12C(52,4)
p4233
tp4234
a(S'0:02:17'
p4235
V12*51^4
p4236
tp4237
a(S'0:06:22'
p4238
V12C(51,4)
p4239
tp4240
a(S'0:06:28'
p4241
V12C(50,4)
p4242
tp4243
a(S'0:06:35'
p4244
V12C(49,4)
p4245
tp4246
a(S'0:06:42'
p4247
V12C(48,4)
p4248
tp4249
a(S'0:08:48'
p4250
V12C(47,4)
p4251
tp4252
a(S'0:08:53'
p4253
V12C(46,4)
p4254
tp4255
a(S'0:08:59'
p4256
V12C(45,4)
p4257
tp4258
a(S'0:09:03'
p4259
V12C(44,4)
p4260
tp4261
a(S'0:09:07'
p4262
V12C(43,4)
p4263
tp4264
a(S'0:09:12'
p4265
V12C(42,4)
p4266
tp4267
a(S'0:09:17'
p4268
V12C(41,4)
p4269
tp4270
a(S'0:09:30'
p4271
V12C(39,4)
p4272
tp4273
a(S'0:09:35'
p4274
V12C(38,4)
p4275
tp4276
a(S'0:09:40'
p4277
V12C(37,4)
p4278
tp4279
a(S'0:09:45'
p4280
V12C(36,4)
p4281
tp4282
a(S'0:09:50'
p4283
V12C(35,4)
p4284
tp4285
a(S'0:09:58'
p4286
V12C(34,4)
p4287
tp4288
a(S'0:10:35'
p4289
V12C(33,4)
p4290
tp4291
a(S'0:10:40'
p4292
V12C(32,4)
p4293
tp4294
a(S'0:10:46'
p4295
V12C(31,4)
p4296
tp4297
a(S'0:10:53'
p4298
V12C(30,4)
p4299
tp4300
a(S'0:10:59'
p4301
V12C(29,4)
p4302
tp4303
a(S'0:11:04'
p4304
V12C(28,4)
p4305
tp4306
a(S'0:11:10'
p4307
V12C(27,4)
p4308
tp4309
a(S'0:11:15'
p4310
V12C(26,4)
p4311
tp4312
a(S'0:11:24'
p4313
V12C(25,4)
p4314
tp4315
a(S'0:11:28'
p4316
V12C(24,4)
p4317
tp4318
a(S'0:11:33'
p4319
V12C(23,4)
p4320
tp4321
a(S'0:11:41'
p4322
V12C(22,4)
p4323
tp4324
a(S'0:11:46'
p4325
V12C(21,4)
p4326
tp4327
a(S'0:11:52'
p4328
V12C(20,4)
p4329
tp4330
a(S'0:12:04'
p4331
V12*C(19,4)
p4332
tp4333
a(S'0:12:11'
p4334
V12*C(18,4)
p4335
tp4336
a(S'0:12:19'
p4337
V12*C(17,4)
p4338
tp4339
a(S'0:12:24'
p4340
V12*C(16,4)
p4341
tp4342
a(S'0:12:29'
p4343
V12*C(15,4)
p4344
tp4345
a(S'0:12:34'
p4346
V12*C(14,4)
p4347
tp4348
a(S'0:12:42'
p4349
V12*C(13,4)
p4350
tp4351
a(S'0:12:47'
p4352
V12*C(12,4)
p4353
tp4354
a(S'0:12:52'
p4355
V12*C(11,4)
p4356
tp4357
a(S'0:12:56'
p4358
V12*C(10,4)
p4359
tp4360
a(S'0:13:01'
p4361
V12*C(9,4)
p4362
tp4363
assVs2chaudh
p4364
(dp4365
S'part2_correct_attempt'
p4366
(lp4367
S'0:01:20'
p4368
aVC(52,5)-C(40,5)
p4369
asg9
V2015-10-20 20:00:20
p4370
sS'part2_incorrect_attempt'
p4371
(lp4372
(S'0:00:15'
p4373
VC(38,5)-C(16,5)
p4374
tp4375
assVgsrandha
p4376
(dp4377
S'part2_correct_attempt'
p4378
(lp4379
S'-1 day, 23:59:28'
p4380
aV1940952
p4381
asg9
V2015-10-18 23:44:58
p4382
sS'part2_incorrect_attempt'
p4383
(lp4384
(S'-1 day, 23:58:08'
p4385
VC(32,5) - C(20,5)
p4386
tp4387
assVttimmons
p4388
(dp4389
S'part2_correct_attempt'
p4390
(lp4391
S'-1 day, 23:47:09'
p4392
aVC(52,5) - C(52-(3*4),5)
p4393
asg9
V2015-10-21 04:52:30
p4394
sS'part2_incorrect_attempt'
p4395
(lp4396
(S'-1 day, 12:59:24'
p4397
V[C((13-4)*4, 4)*C(4*4,1)]
p4398
tp4399
a(S'-1 day, 13:00:22'
p4400
V[C((13-4)*4, 4)*(4*4)]
p4401
tp4402
a(S'-1 day, 13:01:43'
p4403
V[C(13*4-1, 4)*(4*4)]
p4404
tp4405
a(S'-1 day, 13:02:59'
p4406
V[C(13*4-1, 4)*(3*4)]
p4407
tp4408
a(S'-1 day, 13:07:47'
p4409
V4*4*(52-1)
p4410
tp4411
a(S'-1 day, 13:08:06'
p4412
V4*4*C(52-1,4)
p4413
tp4414
a(S'-1 day, 13:08:24'
p4415
VC(4*4,1)*C(52-1,4)
p4416
tp4417
a(S'-1 day, 13:09:47'
p4418
VC(3*4,1)*C(52-1,4)
p4419
tp4420
a(S'-1 day, 13:10:08'
p4421
VC(4*4,1)*C(52-1,4)
p4422
tp4423
assVbmilton
p4424
(dp4425
S'part2_correct_attempt'
p4426
(lp4427
S'-1 day, 23:59:07'
p4428
ag3519
asg9
g3523
sS'part2_incorrect_attempt'
p4429
(lp4430
(S'-1 day, 23:56:21'
p4431
VC(3,1) * C(4,1) * C(51,4)
p4432
tp4433
a(S'-1 day, 23:56:39'
p4434
VC(51,4)
p4435
tp4436
a(S'-1 day, 23:57:39'
p4437
VC(3,1) * C(4,1) * C(51, 4)
p4438
tp4439
assVdcgriffi
p4440
(dp4441
S'part2_correct_attempt'
p4442
(lp4443
S'-1 day, 22:53:51'
p4444
aV(52!/(5!47!))-(40!/(5!35!))
p4445
asg9
V2015-10-21 03:36:54
p4446
sS'part2_incorrect_attempt'
p4447
(lp4448
(S'-1 day, 22:43:25'
p4449
V12*51*50*49*48
p4450
tp4451
assVrsmurlo
p4452
(dp4453
S'part2_correct_attempt'
p4454
(lp4455
S'-2 days, 20:53:47'
p4456
ag3538
asg9
g3542
sS'part2_incorrect_attempt'
p4457
(lp4458
(S'-2 days, 20:33:49'
p4459
V(12*51*50*49*48)/5!
p4460
tp4461
a(S'-2 days, 20:43:24'
p4462
V(12*51*50*49*48)*5
p4463
tp4464
a(S'-2 days, 20:43:33'
p4465
V(12*51*50*49*48)/5
p4466
tp4467
a(S'-2 days, 20:48:26'
p4468
V(12*C(51,4))
p4469
tp4470
a(S'-2 days, 20:49:40'
p4471
V(C(12,1)*C(51,4))
p4472
tp4473
a(S'-2 days, 20:49:56'
p4474
V(C(12,1)*C(51,4))/5!
p4475
tp4476
a(S'-2 days, 20:50:03'
p4477
V(C(12,1)*C(51,4))/5
p4478
tp4479
a(S'-2 days, 20:50:10'
p4480
V(C(12,1)*C(51,4))*5
p4481
tp4482
a(S'-2 days, 20:50:17'
p4483
V(C(12,1)*C(51,4))*5!
p4484
tp4485
a(S'-2 days, 20:52:00'
p4486
V1-(5!/(45!5!))
p4487
tp4488
assVhak014
p4489
(dp4490
S'part2_correct_attempt'
p4491
(lp4492
S'-1 day, 22:48:11'
p4493
aVC(52, 5) - C(40, 5)
p4494
asg9
V2015-10-20 02:21:09
p4495
sS'part2_incorrect_attempt'
p4496
(lp4497
(S'-1 day, 22:27:13'
p4498
VC(40, 5)
p4499
tp4500
a(S'-1 day, 22:28:00'
p4501
V40*39*38*37*36
p4502
tp4503
a(S'-1 day, 22:28:45'
p4504
V40*39*38*37
p4505
tp4506
a(S'-1 day, 22:29:16'
p4507
V52*40*39*38*36
p4508
tp4509
a(S'-1 day, 22:29:54'
p4510
V12*51*50*49*48
p4511
tp4512
assVrlhagen
p4513
(dp4514
S'part2_correct_attempt'
p4515
(lp4516
S'-1 day, 23:27:19'
p4517
aV (52!/(5!(52-5)!)) - (40!/(5!(40-5)!))
p4518
asg9
V2015-10-18 18:42:34
p4519
sS'part2_incorrect_attempt'
p4520
(lp4521
(S'-1 day, 23:10:02'
p4522
V1-(40!/(40!(40-5)!))
p4523
tp4524
a(S'-1 day, 23:12:36'
p4525
V40!/(5!(40-5)!)
p4526
tp4527
a(S'-1 day, 23:21:48'
p4528
V(52!/(5!(50-5)!))-7896090
p4529
tp4530
a(S'-1 day, 23:22:04'
p4531
V(52!/(5!(50-5)!))-78960960
p4532
tp4533
a(S'-1 day, 23:22:34'
p4534
V311875200-78960960
p4535
tp4536
a(S'-1 day, 23:26:46'
p4537
V(52!/5!(52-5)!) - (40!/5!(40-5)!)
p4538
tp4539
assVganajera
p4540
(dp4541
S'part2_correct_attempt'
p4542
(lp4543
S'0:02:36'
p4544
aVC(52,5)-C(40,5)
p4545
asg9
V2015-10-17 20:30:08
p4546
sS'part2_incorrect_attempt'
p4547
(lp4548
(S'-1 day, 6:14:25'
p4549
VC(12,1)*C(51,4)
p4550
tp4551
a(S'-1 day, 6:18:10'
p4552
VC(16,1)*C(51,4)
p4553
tp4554
assVnnh002
p4555
(dp4556
S'part2_correct_attempt'
p4557
(lp4558
S'0:04:31'
p4559
aVC(52,5)-C(40,5)
p4560
asg9
V2015-10-22 03:10:08
p4561
sS'part2_incorrect_attempt'
p4562
(lp4563
(S'0:03:44'
p4564
VC(40,5)
p4565
tp4566
assVbtn023
p4567
(dp4568
S'part2_correct_attempt'
p4569
(lp4570
S'-1 day, 23:49:19'
p4571
aVC(52,5) - C(40,5)
p4572
asg9
V2015-10-21 18:04:32
p4573
sS'part2_incorrect_attempt'
p4574
(lp4575
(S'-1 day, 23:31:03'
p4576
V(C(36,5))
p4577
tp4578
a(S'-1 day, 23:31:58'
p4579
V36*35*34*33*32
p4580
tp4581
assVppanourg
p4582
(dp4583
S'part2_correct_attempt'
p4584
(lp4585
S'0:03:44'
p4586
aVC(52,5) -C(40,5)
p4587
asg9
V2015-10-22 10:51:11
p4588
sS'part2_incorrect_attempt'
p4589
(lp4590
(S'0:02:30'
p4591
VC(12,1)*C(51,4)
p4592
tp4593
assVmsaguiar
p4594
(dp4595
g9
V2015-10-21 01:55:49
p4596
sS'part2_incorrect_attempt'
p4597
(lp4598
(S'-1 day, 23:13:06'
p4599
V(3)(51)(50)(49)(48)
p4600
tp4601
assVrraiyyan
p4602
(dp4603
S'part2_correct_attempt'
p4604
(lp4605
S'-1 day, 23:58:08'
p4606
ag3642
asg9
g3646
sS'part2_incorrect_attempt'
p4607
(lp4608
(S'-1 day, 23:54:23'
p4609
VC(3,1)*C(52,4)+C(3,2)*C(52,3)+C(3,3)*C(52,2)
p4610
tp4611
assVssamudra
p4612
(dp4613
S'part2_correct_attempt'
p4614
(lp4615
S'0:02:37'
p4616
ag3667
asg9
g3671
sS'part2_incorrect_attempt'
p4617
(lp4618
(S'0:00:37'
p4619
VC(30,5)
p4620
tp4621
assValhung
p4622
(dp4623
S'part2_correct_attempt'
p4624
(lp4625
S'0:03:07'
p4626
aVC(52,5)-C(40,5)
p4627
asg9
V2015-10-22 18:04:56
p4628
sS'part2_incorrect_attempt'
p4629
(lp4630
(S'0:01:30'
p4631
VC(12,5)
p4632
tp4633
a(S'0:02:49'
p4634
VC(40,5)
p4635
tp4636
assVt1tran
p4637
(dp4638
S'part2_correct_attempt'
p4639
(lp4640
S'0:00:00'
p4641
ag3701
asg9
g3706
sS'part2_incorrect_attempt'
p4642
(lp4643
(S'-1 day, 23:33:13'
p4644
V1-(1-(C(5,5)C(4,1)^5))
p4645
tp4646
assVtcn013
p4647
(dp4648
S'part2_correct_attempt'
p4649
(lp4650
S'0:04:42'
p4651
aVC(52,5) - C(40,5)
p4652
asg9
V2015-10-22 21:25:03
p4653
sS'part2_incorrect_attempt'
p4654
(lp4655
(S'-1 day, 23:44:23'
p4656
V12*C(51,4)
p4657
tp4658
a(S'0:02:26'
p4659
V16*C(51,4)
p4660
tp4661
a(S'0:03:31'
p4662
V12*C(51,4)
p4663
tp4664
assVdtea
p4665
(dp4666
S'part2_correct_attempt'
p4667
(lp4668
S'0:00:21'
p4669
aVC(52,5)-C(40,5)
p4670
asg9
V2015-10-22 22:38:36
p4671
sS'part2_incorrect_attempt'
p4672
(lp4673
(S'-1 day, 23:40:26'
p4674
VC(12,5)
p4675
tp4676
a(S'-1 day, 23:40:44'
p4677
VC(40,5)
p4678
tp4679
a(S'-1 day, 23:40:56'
p4680
VC(12,5)
p4681
tp4682
assVsmall
p4683
(dp4684
S'part2_correct_attempt'
p4685
(lp4686
S'0:08:13'
p4687
aVC(52, 5) - C(40,5)
p4688
asg9
V2015-10-22 22:39:12
p4689
sS'part2_incorrect_attempt'
p4690
(lp4691
(S'0:02:08'
p4692
VC(12, 1) * C(51, 4)
p4693
tp4694
assVsippolit
p4695
(dp4696
S'part2_correct_attempt'
p4697
(lp4698
S'-1 day, 23:57:13'
p4699
aVC(52,5)-C(40,5)
p4700
asg9
V2015-10-20 16:16:12
p4701
sS'part2_incorrect_attempt'
p4702
(lp4703
(S'-1 day, 15:18:29'
p4704
VC(52,5)
p4705
tp4706
assVlcardoso
p4707
(dp4708
S'part2_correct_attempt'
p4709
(lp4710
S'0:00:00'
p4711
aVC(52,5)-C(40,5)
p4712
asg9
V2015-10-22 21:26:55
p4713
sS'part2_incorrect_attempt'
p4714
(lp4715
(S'-1 day, 23:49:48'
p4716
V(16)*(51)*(50)*(49)*(48)
p4717
tp4718
assVp4kumar
p4719
(dp4720
S'part2_correct_attempt'
p4721
(lp4722
S'-1 day, 23:55:32'
p4723
aVC(52, 5) - C(52 - 3*4, 5)
p4724
asg9
V2015-10-22 17:45:19
p4725
sS'part2_incorrect_attempt'
p4726
(lp4727
(S'-1 day, 23:50:23'
p4728
VC(3 * 4, 1)
p4729
tp4730
a(S'-1 day, 23:51:11'
p4731
VC(52, 3*4)
p4732
tp4733
a(S'-1 day, 23:52:17'
p4734
VC(52, 4*4)
p4735
tp4736
a(S'-1 day, 23:52:34'
p4737
VC(4*4, 1)
p4738
tp4739
a(S'-1 day, 23:52:41'
p4740
VC(3*4, 1)
p4741
tp4742
a(S'-1 day, 23:52:54'
p4743
VC(3*4, 5)
p4744
tp4745
a(S'-1 day, 23:53:43'
p4746
VC(52, 1)
p4747
tp4748
a(S'-1 day, 23:53:57'
p4749
VC(3*4, 1)*5
p4750
tp4751
a(S'-1 day, 23:54:36'
p4752
VC(52, 5)*C(3*4, 1)*5
p4753
tp4754
assVabasu
p4755
(dp4756
S'part2_correct_attempt'
p4757
(lp4758
S'0:00:33'
p4759
aVC(52,5)-C(40,5)
p4760
asg9
V2015-10-19 05:58:58
p4761
sS'part2_incorrect_attempt'
p4762
(lp4763
(S'0:00:00'
p4764
VC(20,5)
p4765
tp4766
assVsayao
p4767
(dp4768
S'part2_correct_attempt'
p4769
(lp4770
S'0:00:33'
p4771
aVC(52,5)-C(40,5)
p4772
asg9
V2015-10-21 18:56:35
p4773
sS'part2_incorrect_attempt'
p4774
(lp4775
(S'-1 day, 21:41:37'
p4776
VC(12,1)+C(51,4)
p4777
tp4778
a(S'-1 day, 22:34:05'
p4779
VC(12,1)*C(52,4)
p4780
tp4781
a(S'-1 day, 22:34:10'
p4782
VC(12,1)*C(51,4)
p4783
tp4784
a(S'-1 day, 22:34:18'
p4785
VC(12,1)+C(51,4)
p4786
tp4787
assVjnn015
p4788
(dp4789
S'part2_correct_attempt'
p4790
(lp4791
S'0:05:58'
p4792
ag3829
asg9
g3833
sS'part2_incorrect_attempt'
p4793
(lp4794
(S'0:02:58'
p4795
V12*C(12,1)*C(51,4)
p4796
tp4797
a(S'0:03:14'
p4798
VC(12,1)*C(51,4)
p4799
tp4800
a(S'0:04:47'
p4801
V2*C(12,1)*C(51,4)
p4802
tp4803
assVcsl030
p4804
(dp4805
S'part2_correct_attempt'
p4806
(lp4807
S'-1 day, 23:50:39'
p4808
aVC(52, 5) - C(40,5)
p4809
asg9
V2015-10-22 03:51:42
p4810
sS'part2_incorrect_attempt'
p4811
(lp4812
(S'-1 day, 23:26:01'
p4813
VC(13,3) * 4
p4814
tp4815
a(S'-1 day, 23:46:16'
p4816
VC(C(13,3) * 4,5)
p4817
tp4818
assVhmshah
p4819
(dp4820
S'part2_correct_attempt'
p4821
(lp4822
S'0:01:29'
p4823
aVC(52,5) - C(40,5)
p4824
asg9
V2015-10-22 08:30:57
p4825
sS'part2_incorrect_attempt'
p4826
(lp4827
(S'0:00:49'
p4828
VC(20,5)
p4829
tp4830
assVhaliew
p4831
(dp4832
S'part2_correct_attempt'
p4833
(lp4834
S'0:00:00'
p4835
aVC(52,5)-C(40,5)
p4836
asg9
V2015-10-22 00:17:42
p4837
sS'part2_incorrect_attempt'
p4838
(lp4839
(S'-2 days, 22:00:56'
p4840
VC(52,12)
p4841
tp4842
a(S'-1 day, 23:07:26'
p4843
VC(52,12)
p4844
tp4845
a(S'-1 day, 23:07:51'
p4846
VC(12,1)
p4847
tp4848
assVvasharma
p4849
(dp4850
S'part2_correct_attempt'
p4851
(lp4852
S'0:00:00'
p4853
aVC(52,5)-C(40,5)
p4854
asg9
V2015-10-21 23:23:26
p4855
sS'part2_incorrect_attempt'
p4856
(lp4857
(S'-1 day, 23:59:51'
p4858
VC(32,5)-C(20,5)
p4859
tp4860
assVarc013
p4861
(dp4862
g9
g3876
sS'part2_incorrect_attempt'
p4863
(lp4864
(S'-1 day, 23:50:07'
p4865
VC(12,1)+C(51,4)
p4866
tp4867
assVaordookh
p4868
(dp4869
S'part2_correct_attempt'
p4870
(lp4871
S'-1 day, 10:34:21'
p4872
aVC(52,5) - C(40,5)
p4873
asg9
V2015-10-22 18:22:12
p4874
sS'part2_incorrect_attempt'
p4875
(lp4876
(S'-1 day, 10:20:52'
p4877
V12C(7,4)
p4878
tp4879
assVstarinia
p4880
(dp4881
S'part2_correct_attempt'
p4882
(lp4883
S'0:00:00'
p4884
aVC(52,5)-C(40,5)
p4885
asg9
V2015-10-20 02:26:40
p4886
sS'part2_incorrect_attempt'
p4887
(lp4888
(S'-1 day, 23:51:08'
p4889
VC(52,12)
p4890
tp4891
assVdcastlem
p4892
(dp4893
S'part2_correct_attempt'
p4894
(lp4895
S'0:20:40'
p4896
ag3894
asg9
g3898
sS'part2_incorrect_attempt'
p4897
(lp4898
(S'0:01:01'
p4899
VC(52, 12)
p4900
tp4901
a(S'0:06:20'
p4902
VC(32,5)-C(12,1)
p4903
tp4904
a(S'0:06:40'
p4905
V185872-C(12,1)
p4906
tp4907
a(S'0:18:19'
p4908
VC(12,1)
p4909
tp4910
assVtak068
p4911
(dp4912
S'part2_correct_attempt'
p4913
(lp4914
S'0:00:15'
p4915
aVC(52,5)-C(40,5)
p4916
asg9
V2015-10-20 10:13:36
p4917
sS'part2_incorrect_attempt'
p4918
(lp4919
(S'-1 day, 23:51:17'
p4920
VC(36,5)
p4921
tp4922
a(S'-1 day, 23:52:32'
p4923
VC(52,12)
p4924
tp4925
a(S'-1 day, 23:52:51'
p4926
VC(9,5)
p4927
tp4928
assVc4du
p4929
(dp4930
S'part2_correct_attempt'
p4931
(lp4932
S'-1 day, 23:59:06'
p4933
aVC(52,5)-C(40,5)
p4934
asg9
V2015-10-22 08:38:06
p4935
sS'part2_incorrect_attempt'
p4936
(lp4937
(S'-1 day, 23:45:02'
p4938
V3*12*11*10*9
p4939
tp4940
assVhabuamar
p4941
(dp4942
S'part2_correct_attempt'
p4943
(lp4944
S'0:00:42'
p4945
aVC(52,5)-C(40,5)
p4946
asg9
V2015-10-16 19:52:17
p4947
sS'part2_incorrect_attempt'
p4948
(lp4949
(S'0:00:00'
p4950
VC(40,5)
p4951
tp4952
assVzhw110
p4953
(dp4954
S'part2_correct_attempt'
p4955
(lp4956
S'-1 day, 23:57:06'
p4957
aVC(52,5)-C(40,5)
p4958
asg9
V2015-10-21 22:37:24
p4959
sS'part2_incorrect_attempt'
p4960
(lp4961
(S'-1 day, 23:40:11'
p4962
VC(31,4)
p4963
tp4964
a(S'-1 day, 23:47:53'
p4965
V12*C(51, 4)
p4966
tp4967
assVyil035
p4968
(dp4969
S'part2_correct_attempt'
p4970
(lp4971
S'0:00:00'
p4972
aV1940952
p4973
asg9
V2015-10-20 23:56:37
p4974
sS'part2_incorrect_attempt'
p4975
(lp4976
(S'-2 days, 4:30:55'
p4977
V3*4
p4978
tp4979
assVm8woo
p4980
(dp4981
S'part2_correct_attempt'
p4982
(lp4983
S'-1 day, 23:56:44'
p4984
aVC(52,5) - C(40,5)
p4985
asg9
V2015-10-22 21:34:50
p4986
sS'part2_incorrect_attempt'
p4987
(lp4988
(S'-1 day, 23:36:30'
p4989
V12*C(51,4)
p4990
tp4991
assVtjke
p4992
(dp4993
S'part2_correct_attempt'
p4994
(lp4995
S'-1 day, 23:58:17'
p4996
aVC(12,1)*C(52-12,4)+C(12,2)*C(52-12,3)+C(12,3)*C(52-12,2)+C(12,4)*C(52-12,1)+C(12,5)
p4997
asg9
V2015-10-18 05:12:31
p4998
sS'part2_incorrect_attempt'
p4999
(lp5000
(S'-1 day, 23:28:03'
p5001
VC(3*4,1)*C(52-1, 4)
p5002
tp5003
a(S'-1 day, 23:40:47'
p5004
V12*C(52-1, 4)
p5005
tp5006
assVksmurlo
p5007
(dp5008
S'part2_correct_attempt'
p5009
(lp5010
S'-1 day, 23:54:08'
p5011
aVC(52,5)-C(40,5)
p5012
asg9
V2015-10-22 09:48:05
p5013
sS'part2_incorrect_attempt'
p5014
(lp5015
(S'-2 days, 14:01:12'
p5016
VC(12,1)*C(51,4)
p5017
tp5018
assVj2phung
p5019
(dp5020
S'part2_correct_attempt'
p5021
(lp5022
S'0:05:05'
p5023
aV(52!/(47!5!))-(40!/(5!35!))
p5024
asg9
V2015-10-22 04:12:35
p5025
sS'part2_incorrect_attempt'
p5026
(lp5027
(S'0:01:21'
p5028
V20!/(5!15!)
p5029
tp5030
asss.