(dp0
V1
p1
ccollections
defaultdict
p2
(c__builtin__
list
p3
tp4
Rp5
S'Digits'
p6
(lp7
(V(13-1)*(13-2)
p8
V3
p9
tp10
a(V(13-1)*(13-2)
p11
V46
p12
tp13
a(V(15-1)*(15-2)
p14
V28
p15
tp16
a(V(15-1)*(15-2)
p17
V15
p18
tp19
a(g17
V7
p20
tp21
a(g17
V65
p22
tp23
a(g17
V15
p24
tp25
a(V(14-1)*(14-2)
p26
V12
p27
tp28
a(V(15-1)*(15-2)
p29
V55
p30
tp31
a(V(15-1)*(15-2)
p32
V3
p33
tp34
a(V(13-1)*(13-2)
p35
V45
p36
tp37
a(V(14-1)*(14-2)
p38
V4
p39
tp40
a(g38
V3
p41
tp42
a(g38
V5
p43
tp44
a(g38
V6
p45
tp46
a(g38
V1
p47
tp48
a(g38
V2
p49
tp50
a(g38
V8
p51
tp52
a(g38
V9
p53
tp54
a(g38
V10
p55
tp56
a(g38
V11
p57
tp58
a(g38
V12
p59
tp60
a(g38
V14
p61
tp62
a(g38
V13
p63
tp64
a(g38
V15
p65
tp66
a(g38
V3
p67
tp68
a(V(16-1)*(16-2)
p69
V49
p70
tp71
a(V(16-1)*(16-2)
p72
V44
p73
tp74
a(g72
V90
p75
tp76
a(V(14-1)*(14-2)
p77
V1
p78
tp79
a(g77
V1380
p80
tp81
a(g77
V345
p82
tp83
a(g77
V385
p84
tp85
a(g77
V45
p86
tp87
a(g77
V55
p88
tp89
a(g77
V45
p90
tp91
a(g77
V40
p92
tp93
a(g77
V45
p94
tp95
a(V(14-1)*(14-2)
p96
V3
p97
tp98
a(g96
V105
p99
tp100
a(g96
V110
p101
tp102
a(V(16-1)*(16-2)
p103
V1
p104
tp105
a(V(16-1)*(16-2)
p106
V1
p107
tp108
a(V(13-1)*(13-2)
p109
V1
p110
tp111
a(V(14-1)*(14-2)
p112
V12
p113
tp114
a(V(15-1)*(15-2)
p115
V3
p116
tp117
a(g115
V30
p118
tp119
a(g115
V36
p120
tp121
a(g115
V21
p122
tp123
a(V(14-1)*(14-2)
p124
V60
p125
tp126
a(g124
V72
p127
tp128
a(g124
V55
p129
tp130
a(g124
V132
p131
tp132
a(g124
V121
p133
tp134
a(g124
V56
p135
tp136
a(g124
V66
p137
tp138
a(g124
V45
p139
tp140
a(g124
V78
p141
tp142
a(g124
V65
p143
tp144
a(g124
V67
p145
tp146
a(g124
V66
p147
tp148
a(g124
V78
p149
tp150
a(g124
V132
p151
tp152
a(V(13-1)*(13-2)
p153
V36
p154
tp155
a(V(14-1)*(14-2)
p156
V8
p157
tp158
a(V(14-1)*(14-2)
p159
V1
p160
tp161
a(g159
V78
p162
tp163
a(g159
V91
p164
tp165
a(g159
V182
p166
tp167
a(g112
V72
p168
tp169
a(V(15-1)*(15-2)
p170
V3
p171
tp172
a(g170
V1
p173
tp174
a(V(16-1)*(16-2)
p175
V21
p176
tp177
a(V(13-1)*(13-2)
p178
V10
p179
tp180
a(V(15-1)*(15-2)
p181
V17
p182
tp183
a(g181
V24
p184
tp185
a(V(13-1)*(13-2)
p186
V90
p187
tp188
a(g181
V7
p189
tp190
a(g181
V8
p191
tp192
a(g181
V3
p193
tp194
a(V(13-1)*(13-2)
p195
V6
p196
tp197
a(V(15-1)*(15-2)
p198
V1
p199
tp200
a(g198
V6
p201
tp202
a(V(13-1)*(13-2)
p203
V7
p204
tp205
a(V(13-1)*(13-2)
p206
V16
p207
tp208
a(g206
V45
p209
tp210
a(V(15-1)*(15-2)
p211
V3
p212
tp213
a(g211
V1
p214
tp215
a(V(14-1)*(14-2)
p216
V360
p217
tp218
a(g216
V15
p219
tp220
a(V(13-1)*(13-2)
p221
V2
p222
tp223
a(g221
V3
p224
tp225
a(V(13-1)*(13-2)
p226
V9
p227
tp228
a(g226
V90
p229
tp230
a(g226
V45
p231
tp232
a(g226
V80
p233
tp234
a(g226
V720
p235
tp236
a(g226
V120
p237
tp238
a(V(15-1)*(15-2)
p239
V2
p240
tp241
a(g239
V8
p242
tp243
a(g239
V1
p244
tp245
a(g226
V1
p246
tp247
a(g170
V3
p248
tp249
a(V(13-1)*(13-2)
p250
V2
p251
tp252
a(g250
V3
p253
tp254
a(g250
V1
p255
tp256
a(g250
V4
p257
tp258
a(g250
V6
p259
tp260
a(g250
V11
p261
tp262
a(V(15-1)*(15-2)
p263
V72
p264
tp265
a(g263
V91
p266
tp267
a(g263
V455
p268
tp269
a(V(13-1)*(13-2)
p270
V1
p271
tp272
a(g270
V3
p273
tp274
a(g263
V2730
p275
tp276
a(V(16-1)*(16-2)
p277
V9
p278
tp279
a(V(15-1)*(15-2)
p280
V2
p281
tp282
a(V(15-1)*(15-2)
p283
V6
p284
tp285
a(V(14-1)*(14-2)
p286
V13
p287
tp288
a(g286
V26
p289
tp290
a(g286
V52
p291
tp292
a(g286
V25
p293
tp294
a(V(16-1)*(16-2)
p295
V3
p296
tp297
a(V(13-1)*(13-2)
p298
V1
p299
tp300
a(V(15-1)*(15-2)
p301
V91
p302
tp303
a(V(15-1)*(15-2)
p304
V4
p305
tp306
a(V(14-1)*(14-2)
p307
V3
p308
tp309
a(V(16-1)*(16-2)
p310
V1
p311
tp312
a(g310
V3
p313
tp314
a(g307
V28
p315
tp316
a(g307
V1
p317
tp318
a(V(13-1)*(13-2)
p319
V1
p320
tp321
a(g319
V2
p322
tp323
a(V(14-1)*(14-2)
p324
V16
p325
tp326
a(g324
V1
p327
tp328
a(V(15-1)*(15-2)
p329
V13
p330
tp331
a(V(13-1)*(13-2)
p332
V1
p333
tp334
a(g332
V2
p335
tp336
a(g332
V3
p337
tp338
a(g332
V6
p339
tp340
a(V(15-1)*(15-2)
p341
V9
p342
tp343
a(V(13-1)*(13-2)
p344
V3
p345
tp346
a(g344
V11
p347
tp348
a(V(15-1)*(15-2)
p349
V3
p350
tp351
a(V(15-1)*(15-2)
p352
V1
p353
tp354
a(V(13-1)*(13-2)
p355
V4
p356
tp357
a(V(14-1)*(14-2)
p358
V8
p359
tp360
a(V(13-1)*(13-2)
p361
V15
p362
tp363
a(g361
V14
p364
tp365
a(g361
V20
p366
tp367
a(V(16-1)*(16-2)
p368
V91
p369
tp370
a(g368
V78
p371
tp372
a(V(13-1)*(13-2)
p373
V6
p374
tp375
a(g373
V12
p376
tp377
a(V(13-1)*(13-2)
p378
V210
p379
tp380
a(V(14-1)*(14-2)
p381
V27
p382
tp383
a(g381
V182
p384
tp385
a(g381
V25
p386
tp387
a(V(14-1)*(14-2)
p388
V28
p389
tp390
a(g388
V25
p391
tp392
a(V(14-1)*(14-2)
p393
V1
p394
tp395
a(g393
V21
p396
tp397
a(g393
V14
p398
tp399
a(V(14-1)*(14-2)
p400
V182
p401
tp402
a(g400
V260
p403
tp404
a(g400
V54
p405
tp406
a(g400
V42
p407
tp408
a(g400
V44
p409
tp410
a(g400
V140
p411
tp412
a(g400
V5
p413
tp414
a(g400
V3
p415
tp416
a(g400
V4
p417
tp418
a(g400
V2
p419
tp420
a(g400
V1
p421
tp422
a(g400
V9
p423
tp424
a(g400
V8
p425
tp426
a(g400
V7
p427
tp428
a(g400
V10
p429
tp430
a(g400
V11
p431
tp432
a(g400
V12
p433
tp434
a(V(14-1)*(14-2)
p435
V13
p436
tp437
asS"['R.1']"
p438
(lp439
(g96
V14*13*12
p440
(lp441
(S'R.1'
p442
F12.0
V14-2
p443
V12
p444
tp445
aVk5law
p446
(lp447
(V$n
p448
V14
p449
tp450
a(V$x
p451
V2
p452
tp453
a(V$y
p454
V8
p455
tp456
aV2015-10-19 20:04:02
p457
tp458
a(g115
V15*14*13
p459
(lp460
(S'R.1'
p461
F13.0
V15-2
p462
V13
p463
tp464
aVhak014
p465
(lp466
(V$n
p467
V15
p468
tp469
a(V$x
p470
V8
p471
tp472
a(V$y
p473
V10
p474
tp475
aV2015-10-20 07:53:43
p476
tp477
a(g181
VC(14,2)+13
p478
(lp479
(S'R.1'
p480
F13.0
V15-2
p481
V13
p482
tp483
aVmtrafeca
p484
(lp485
(V$n
p486
V15
p487
tp488
a(V$x
p489
V7
p490
tp491
a(V$y
p492
V12
p493
tp494
aV2015-10-21 08:24:14
p495
tp496
a(g221
V13*12*11
p497
(lp498
(S'R.1'
p499
F11.0
V13-2
p500
V11
p501
tp502
aVc1sorian
p503
(lp504
(V$n
p505
V13
p506
tp507
a(V$x
p508
V7
p509
tp510
a(V$y
p511
V11
p512
tp513
aV2015-10-21 22:12:28
p514
tp515
a(g270
V1+C(12,1)+C(11,1)
p516
(lp517
(S'R.1'
p518
F11.0
V13-2
p519
VC(11,1)
p520
tp521
aVhaliew
p522
(lp523
(V$n
p524
V13
p525
tp526
a(V$x
p527
V4
p528
tp529
a(V$y
p530
V7
p531
tp532
aV2015-10-22 01:18:59
p533
tp534
a(g344
V13*12*11
p535
(lp536
(S'R.1'
p537
F11.0
V13-2
p538
V11
p539
tp540
aVagarango
p541
(lp542
(V$n
p543
V13
p544
tp545
a(V$x
p546
V5
p547
tp548
a(V$y
p549
V13
p550
tp551
aV2015-10-22 19:39:29
p552
tp553
a(g400
V14 * 12
p554
(lp555
(S'R.1'
p556
F12.0
V14-2
p557
V12
p558
tp559
aVsrl006
p560
(lp561
(V$n
p562
V14
p563
tp564
a(V$x
p565
V4
p566
tp567
a(V$y
p568
V6
p569
tp570
aV2015-10-23 00:39:35
p571
tp572
a(g400
V14 * 12
p573
(lp574
(S'R.1'
p575
F12.0
V14-2
p576
V12
p577
tp578
aVsrl006
p579
g561
V2015-10-23 00:40:21
p580
tp581
a(g400
V14 * 12
p582
(lp583
(S'R.1'
p584
F12.0
V14-2
p585
V12
p586
tp587
aVsrl006
p588
g561
V2015-10-23 00:42:06
p589
tp590
asS"['R.1.0', 'R.1.1']"
p591
(lp592
(V(13-1)*(13-2)
p593
V1* C(13,2)
p594
(lp595
(S'R.1.0'
p596
F13.0
V13
p597
V13
p598
tp599
a(S'R.1.1'
p600
F2.0
V2
p601
g601
tp602
aVb3hwang
p603
(lp604
(V$n
p605
V13
p606
tp607
a(V$x
p608
V3
p609
tp610
a(V$y
p611
V5
p612
tp613
aV2015-10-21 03:43:25
p614
tp615
asS"['R.1.1']"
p616
(lp617
(V(15-1)*(15-2)
p618
V12(13)/2
p619
(lp620
(S'R.1.1'
p621
F2.0
g601
g601
tp622
aVasetters
p623
(lp624
(V$n
p625
V15
p626
tp627
a(V$x
p628
V2
p629
tp630
a(V$y
p631
V5
p632
tp633
aV2015-10-20 07:25:28
p634
tp635
a(g618
V11(12)/2
p636
(lp637
(S'R.1.1'
p638
F2.0
g601
g601
tp639
aVasetters
p640
g624
V2015-10-20 07:26:15
p641
tp642
a(g593
V3* C(52,2)
p643
(lp644
(S'R.1.1'
p645
F2.0
g601
g601
tp646
aVb3hwang
p647
g604
V2015-10-21 03:41:55
p648
tp649
a(g593
V4* C(52,2)
p650
(lp651
(S'R.1.1'
p652
F2.0
g601
g601
tp653
aVb3hwang
p654
g604
V2015-10-21 03:42:05
p655
tp656
a(V(13-1)*(13-2)
p657
V10!/(8!2!)
p658
(lp659
(S'R.1.1'
p660
F2.0
g601
V2!
p661
tp662
aVrsmurlo
p663
(lp664
(V$n
p665
V13
p666
tp667
a(V$x
p668
V3
p669
tp670
a(V$y
p671
V13
p672
tp673
aV2015-10-21 23:29:35
p674
tp675
a(V(15-1)*(15-2)
p676
V3*C(14,2)
p677
(lp678
(S'R.1.1'
p679
F2.0
g601
g601
tp680
aVbakang
p681
(lp682
(V$n
p683
V15
p684
tp685
a(V$x
p686
V9
p687
tp688
a(V$y
p689
V11
p690
tp691
aV2015-10-22 07:43:22
p692
tp693
a(V(15-1)*(15-2)
p694
VC(15,3) - C(14,2)
p695
(lp696
(S'R.1.1'
p697
F2.0
g601
g601
tp698
aVdando
p699
(lp700
(V$n
p701
V15
p702
tp703
a(V$x
p704
V5
p705
tp706
a(V$y
p707
V12
p708
tp709
aV2015-10-23 00:31:25
p710
tp711
asS"['R.0.1', 'R.1.1']"
p712
(lp713
(g38
V(16-1)*(16-2)
p714
(lp715
(S'R.0.1'
p716
F1.0
V1
p717
g717
tp718
a(S'R.1.1'
p719
F2.0
g601
g601
tp720
aVaggouw
p721
(lp722
(V$n
p723
V14
p724
tp725
a(V$x
p726
V9
p727
tp728
a(V$y
p729
V11
p730
tp731
aV2015-10-21 08:54:27
p732
tp733
a(V(15-1)*(15-2)
p734
VC(15, 1)*C(14, 2)
p735
(lp736
(S'R.0.1'
p737
F1.0
g717
g717
tp738
a(S'R.1.1'
p739
F2.0
g601
g601
tp740
aVv4zhang
p741
(lp742
(V$n
p743
V15
p744
tp745
a(V$x
p746
V6
p747
tp748
a(V$y
p749
V12
p750
tp751
aV2015-10-22 10:20:00
p752
tp753
a(V(13-1)*(13-2)
p754
V(15-1)*(15-2)
p755
(lp756
(S'R.0.1'
p757
F1.0
g717
g717
tp758
a(S'R.1.1'
p759
F2.0
g601
g601
tp760
aVdis003
p761
(lp762
(V$n
p763
V13
p764
tp765
a(V$x
p766
V5
p767
tp768
a(V$y
p769
V13
p770
tp771
aV2015-10-22 17:40:36
p772
tp773
a(V(15-1)*(15-2)
p774
V(13-1)(13-2)
p775
(lp776
(S'R.0.1'
p777
F1.0
g717
g717
tp778
a(S'R.1.1'
p779
F2.0
g601
g601
tp780
aVbpandayk
p781
(lp782
(V$n
p783
V15
p784
tp785
a(V$x
p786
V3
p787
tp788
a(V$y
p789
V9
p790
tp791
aV2015-10-22 18:50:40
p792
tp793
a(g355
V(13-5-1)*(13-5-2)
p794
(lp795
(S'R.0.1'
p796
F1.0
g717
g717
tp797
a(S'R.1.1'
p798
F2.0
g601
g601
tp799
aVkalang
p800
(lp801
(V$n
p802
V13
p803
tp804
a(V$x
p805
V5
p806
tp807
a(V$y
p808
V9
p809
tp810
aV2015-10-22 21:04:33
p811
tp812
a(g435
VC(4, 1) + C(51, 2)
p813
(lp814
(S'R.0.1'
p815
F1.0
g717
g717
tp816
a(S'R.1.1'
p817
F2.0
g601
g601
tp818
aVdgunawan
p819
(lp820
(V$n
p821
V14
p822
tp823
a(V$x
p824
V7
p825
tp826
a(V$y
p827
V11
p828
tp829
aV2015-10-23 00:43:38
p830
tp831
a(g435
VC(4, 1) * C(51, 2)
p832
(lp833
(S'R.0.1'
p834
F1.0
g717
g717
tp835
a(S'R.1.1'
p836
F2.0
g601
g601
tp837
aVdgunawan
p838
g820
V2015-10-23 00:43:43
p839
tp840
a(g435
VC(4, 1) * C(55, 2)
p841
(lp842
(S'R.0.1'
p843
F1.0
g717
g717
tp844
a(S'R.1.1'
p845
F2.0
g601
g601
tp846
aVdgunawan
p847
g820
V2015-10-23 00:44:26
p848
tp849
asS"['R.0']"
p850
(lp851
(g14
VC(14,2)
p852
(lp853
(S'R.0'
p854
F14.0
V15-1
p855
V14
p856
tp857
aVlguintu
p858
(lp859
(V$n
p860
V15
p861
tp862
a(V$x
p863
V7
p864
tp865
a(V$y
p866
V13
p867
tp868
aV2015-10-16 07:16:04
p869
tp870
a(g17
V(5+4+3+2+1)
p871
(lp872
(S'R.0'
p873
F14.0
V15-1
p874
V5+4+3+2
p875
tp876
aVj5phung
p877
(lp878
(V$n
p879
V15
p880
tp881
a(V$x
p882
V9
p883
tp884
a(V$y
p885
V12
p886
tp887
aV2015-10-17 00:59:28
p888
tp889
a(g32
VC(14,2)
p890
(lp891
(S'R.0'
p892
F14.0
V15-1
p893
V14
p894
tp895
aVglcohen
p896
(lp897
(V$n
p898
V15
p899
tp900
a(V$x
p901
V2
p902
tp903
a(V$y
p904
V13
p905
tp906
aV2015-10-18 01:16:32
p907
tp908
a(g35
VC(12,2)
p909
(lp910
(S'R.0'
p911
F12.0
V13-1
p912
V12
p913
tp914
aVrbdoming
p915
(lp916
(V$n
p917
V13
p918
tp919
a(V$x
p920
V3
p921
tp922
a(V$y
p923
V12
p924
tp925
aV2015-10-18 01:52:06
p926
tp927
a(V(15-1)*(15-2)
p928
VC(14,2)
p929
(lp930
(S'R.0'
p931
F14.0
V15-1
p932
V14
p933
tp934
aVt1tran
p935
(lp936
(V$n
p937
V15
p938
tp939
a(V$x
p940
V4
p941
tp942
a(V$y
p943
V9
p944
tp945
aV2015-10-18 04:21:25
p946
tp947
a(g72
VC(15,2)
p948
(lp949
(S'R.0'
p950
F15.0
V16-1
p951
V15
p952
tp953
aVedescobe
p954
(lp955
(V$n
p956
V16
p957
tp958
a(V$x
p959
V6
p960
tp961
a(V$y
p962
V11
p963
tp964
aV2015-10-18 11:55:48
p965
tp966
a(V(13-1)*(13-2)
p967
VC(12,2)
p968
(lp969
(S'R.0'
p970
F12.0
V13-1
p971
V12
p972
tp973
aVsmohiman
p974
(lp975
(V$n
p976
V13
p977
tp978
a(V$x
p979
V3
p980
tp981
a(V$y
p982
V11
p983
tp984
aV2015-10-19 02:46:11
p985
tp986
a(V(14-1)*(14-2)
p987
VC(13,2)
p988
(lp989
(S'R.0'
p990
F13.0
V14-1
p991
V13
p992
tp993
aVggaddi
p994
(lp995
(V$n
p996
V14
p997
tp998
a(V$x
p999
V2
p1000
tp1001
a(V$y
p1002
V10
p1003
tp1004
aV2015-10-20 00:49:13
p1005
tp1006
a(V(14-1)*(14-2)
p1007
VC(13, 2)
p1008
(lp1009
(S'R.0'
p1010
F13.0
V14-1
p1011
V13
p1012
tp1013
aVtwsalim
p1014
(lp1015
(V$n
p1016
V14
p1017
tp1018
a(V$x
p1019
V5
p1020
tp1021
a(V$y
p1022
V11
p1023
tp1024
aV2015-10-20 18:33:19
p1025
tp1026
a(V(16-1)*(16-2)
p1027
VC(15,2)
p1028
(lp1029
(S'R.0'
p1030
F15.0
V16-1
p1031
V15
p1032
tp1033
aVdkurli
p1034
(lp1035
(V$n
p1036
V16
p1037
tp1038
a(V$x
p1039
V9
p1040
tp1041
a(V$y
p1042
V13
p1043
tp1044
aV2015-10-21 04:18:37
p1045
tp1046
a(g1027
VC(15,2)
p1047
(lp1048
(S'R.0'
p1049
F15.0
V16-1
p1050
V15
p1051
tp1052
aVdkurli
p1053
g1035
V2015-10-21 04:21:44
p1054
tp1055
a(g35
VC(12,2)
p1056
(lp1057
(S'R.0'
p1058
F12.0
V13-1
p1059
V12
p1060
tp1061
aVrbdoming
p1062
g916
V2015-10-21 04:59:08
p1063
tp1064
a(V(15-1)*(15-2)
p1065
VC(14,2)
p1066
(lp1067
(S'R.0'
p1068
F14.0
V15-1
p1069
V14
p1070
tp1071
aVlywong
p1072
(lp1073
(V$n
p1074
V15
p1075
tp1076
a(V$x
p1077
V4
p1078
tp1079
a(V$y
p1080
V9
p1081
tp1082
aV2015-10-21 07:57:23
p1083
tp1084
a(g181
VC(14,3)
p1085
(lp1086
(S'R.0'
p1087
F14.0
V15-1
p1088
V14
p1089
tp1090
aVmtrafeca
p1091
g485
V2015-10-21 08:23:08
p1092
tp1093
a(g181
VC(14,2)
p1094
(lp1095
(S'R.0'
p1096
F14.0
V15-1
p1097
V14
p1098
tp1099
aVmtrafeca
p1100
g485
V2015-10-21 08:23:23
p1101
tp1102
a(V(14-1)*(14-2)
p1103
VC(13, 2)
p1104
(lp1105
(S'R.0'
p1106
F13.0
V14-1
p1107
V13
p1108
tp1109
aVarc013
p1110
(lp1111
(V$n
p1112
V14
p1113
tp1114
a(V$x
p1115
V4
p1116
tp1117
a(V$y
p1118
V7
p1119
tp1120
aV2015-10-21 10:31:54
p1121
tp1122
a(V(14-1)*(14-2)
p1123
VC(13,2)
p1124
(lp1125
(S'R.0'
p1126
F13.0
V14-1
p1127
V13
p1128
tp1129
aVetemlock
p1130
(lp1131
(V$n
p1132
V14
p1133
tp1134
a(V$x
p1135
V3
p1136
tp1137
a(V$y
p1138
V11
p1139
tp1140
aV2015-10-21 10:31:57
p1141
tp1142
a(g198
V5+4+3+2+1
p1143
(lp1144
(S'R.0'
p1145
F14.0
V15-1
p1146
V5+4+3+2
p1147
tp1148
aVachava
p1149
(lp1150
(V$n
p1151
V15
p1152
tp1153
a(V$x
p1154
V9
p1155
tp1156
a(V$y
p1157
V11
p1158
tp1159
aV2015-10-21 17:29:13
p1160
tp1161
a(V(13-1)*(13-2)
p1162
VC(12, 2)
p1163
(lp1164
(S'R.0'
p1165
F12.0
V13-1
p1166
V12
p1167
tp1168
aVedcole
p1169
(lp1170
(V$n
p1171
V13
p1172
tp1173
a(V$x
p1174
V2
p1175
tp1176
a(V$y
p1177
V12
p1178
tp1179
aV2015-10-21 18:13:47
p1180
tp1181
a(V(13-1)*(13-2)
p1182
VC(12,2)
p1183
(lp1184
(S'R.0'
p1185
F12.0
V13-1
p1186
V12
p1187
tp1188
aVdsmonaha
p1189
(lp1190
(V$n
p1191
V13
p1192
tp1193
a(V$x
p1194
V6
p1195
tp1196
a(V$y
p1197
V12
p1198
tp1199
aV2015-10-21 19:54:34
p1200
tp1201
a(g221
VC(12,2)
p1202
(lp1203
(S'R.0'
p1204
F12.0
V13-1
p1205
V12
p1206
tp1207
aVc1sorian
p1208
g504
V2015-10-21 21:56:42
p1209
tp1210
a(g221
V12!
p1211
(lp1212
(S'R.0'
p1213
F12.0
V13-1
p1214
V12
p1215
tp1216
aVc1sorian
p1217
g504
V2015-10-21 22:08:04
p1218
tp1219
a(g221
VC(12,2)
p1220
(lp1221
(S'R.0'
p1222
F12.0
V13-1
p1223
V12
p1224
tp1225
aVc1sorian
p1226
g504
V2015-10-21 22:08:32
p1227
tp1228
a(V(16-1)*(16-2)
p1229
VC(15,2)
p1230
(lp1231
(S'R.0'
p1232
F15.0
V16-1
p1233
V15
p1234
tp1235
aVabjara
p1236
(lp1237
(V$n
p1238
V16
p1239
tp1240
a(V$x
p1241
V9
p1242
tp1243
a(V$y
p1244
V11
p1245
tp1246
aV2015-10-21 22:29:47
p1247
tp1248
a(V(15-1)*(15-2)
p1249
VC(14,2)
p1250
(lp1251
(S'R.0'
p1252
F14.0
V15-1
p1253
V14
p1254
tp1255
aVctgraves
p1256
(lp1257
(V$n
p1258
V15
p1259
tp1260
a(V$x
p1261
V8
p1262
tp1263
a(V$y
p1264
V12
p1265
tp1266
aV2015-10-21 23:31:06
p1267
tp1268
a(g657
VC(12,2)
p1269
(lp1270
(S'R.0'
p1271
F12.0
V13-1
p1272
V12
p1273
tp1274
aVrsmurlo
p1275
g664
V2015-10-21 23:35:25
p1276
tp1277
a(V(16-1)*(16-2)
p1278
VC(15,2)
p1279
(lp1280
(S'R.0'
p1281
F15.0
V16-1
p1282
V15
p1283
tp1284
aVjel075
p1285
(lp1286
(V$n
p1287
V16
p1288
tp1289
a(V$x
p1290
V7
p1291
tp1292
a(V$y
p1293
V13
p1294
tp1295
aV2015-10-21 23:42:34
p1296
tp1297
a(g250
V12!
p1298
(lp1299
(S'R.0'
p1300
F12.0
V13-1
p1301
V12
p1302
tp1303
aVcstringh
p1304
(lp1305
(V$n
p1306
V13
p1307
tp1308
a(V$x
p1309
V8
p1310
tp1311
a(V$y
p1312
V13
p1313
tp1314
aV2015-10-22 00:37:07
p1315
tp1316
a(V(15-1)*(15-2)
p1317
V5+4+3+2+1
p1318
(lp1319
(S'R.0'
p1320
F14.0
V15-1
p1321
V5+4+3+2
p1322
tp1323
aVmsaguiar
p1324
(lp1325
(V$n
p1326
V15
p1327
tp1328
a(V$x
p1329
V9
p1330
tp1331
a(V$y
p1332
V13
p1333
tp1334
aV2015-10-22 03:39:25
p1335
tp1336
a(g1317
VC(14,2)
p1337
(lp1338
(S'R.0'
p1339
F14.0
V15-1
p1340
V14
p1341
tp1342
aVmsaguiar
p1343
g1325
V2015-10-22 03:42:34
p1344
tp1345
a(V(13-1)*(13-2)
p1346
VC(13-1,2)
p1347
(lp1348
(S'R.0'
p1349
F12.0
V13-1
p1350
V13-1
p1351
tp1352
aVhaw081
p1353
(lp1354
(V$n
p1355
V13
p1356
tp1357
a(V$x
p1358
V9
p1359
tp1360
a(V$y
p1361
V13
p1362
tp1363
aV2015-10-22 06:05:40
p1364
tp1365
a(g286
VC(13,2)
p1366
(lp1367
(S'R.0'
p1368
F13.0
V14-1
p1369
V13
p1370
tp1371
aVhachrist
p1372
(lp1373
(V$n
p1374
V14
p1375
tp1376
a(V$x
p1377
V3
p1378
tp1379
a(V$y
p1380
V12
p1381
tp1382
aV2015-10-22 06:14:03
p1383
tp1384
a(V(14-1)*(14-2)
p1385
VC(13,2)
p1386
(lp1387
(S'R.0'
p1388
F13.0
V14-1
p1389
V13
p1390
tp1391
aVaordookh
p1392
(lp1393
(V$n
p1394
V14
p1395
tp1396
a(V$x
p1397
V8
p1398
tp1399
a(V$y
p1400
V11
p1401
tp1402
aV2015-10-22 06:19:51
p1403
tp1404
a(V(14-1)*(14-2)
p1405
VC(13,2)
p1406
(lp1407
(S'R.0'
p1408
F13.0
V14-1
p1409
V13
p1410
tp1411
aVhsc052
p1412
(lp1413
(V$n
p1414
V14
p1415
tp1416
a(V$x
p1417
V3
p1418
tp1419
a(V$y
p1420
V9
p1421
tp1422
aV2015-10-22 06:24:56
p1423
tp1424
a(g286
V13!
p1425
(lp1426
(S'R.0'
p1427
F13.0
V14-1
p1428
V13
p1429
tp1430
aVhachrist
p1431
g1373
V2015-10-22 06:27:30
p1432
tp1433
a(V(13-1)*(13-2)
p1434
V12*13
p1435
(lp1436
(S'R.0'
p1437
F12.0
V13-1
p1438
V12
p1439
tp1440
aVksrijong
p1441
(lp1442
(V$n
p1443
V13
p1444
tp1445
a(V$x
p1446
V4
p1447
tp1448
a(V$y
p1449
V13
p1450
tp1451
aV2015-10-22 06:54:06
p1452
tp1453
a(V(16-1)*(16-2)
p1454
VC(15,2)
p1455
(lp1456
(S'R.0'
p1457
F15.0
V16-1
p1458
V15
p1459
tp1460
aVdsriniva
p1461
(lp1462
(V$n
p1463
V16
p1464
tp1465
a(V$x
p1466
V9
p1467
tp1468
a(V$y
p1469
V13
p1470
tp1471
aV2015-10-22 06:59:56
p1472
tp1473
a(g676
VC(14,2)
p1474
(lp1475
(S'R.0'
p1476
F14.0
V15-1
p1477
V14
p1478
tp1479
aVbakang
p1480
g682
V2015-10-22 07:42:36
p1481
tp1482
a(g676
VC(14,2)
p1483
(lp1484
(S'R.0'
p1485
F14.0
V15-1
p1486
V14
p1487
tp1488
aVbakang
p1489
g682
V2015-10-22 07:46:37
p1490
tp1491
a(V(13-1)*(13-2)
p1492
VC(12,2)
p1493
(lp1494
(S'R.0'
p1495
F12.0
V13-1
p1496
V12
p1497
tp1498
aVc4du
p1499
(lp1500
(V$n
p1501
V13
p1502
tp1503
a(V$x
p1504
V5
p1505
tp1506
a(V$y
p1507
V11
p1508
tp1509
aV2015-10-22 09:16:25
p1510
tp1511
a(g734
VC(14, 2)
p1512
(lp1513
(S'R.0'
p1514
F14.0
V15-1
p1515
V14
p1516
tp1517
aVv4zhang
p1518
g742
V2015-10-22 10:19:35
p1519
tp1520
a(V(15-1)*(15-2)
p1521
V14*12
p1522
(lp1523
(S'R.0'
p1524
F14.0
V15-1
p1525
V14
p1526
tp1527
aVjag028
p1528
(lp1529
(V$n
p1530
V15
p1531
tp1532
a(V$x
p1533
V9
p1534
tp1535
a(V$y
p1536
V12
p1537
tp1538
aV2015-10-22 17:13:13
p1539
tp1540
a(g324
VC(13,2)
p1541
(lp1542
(S'R.0'
p1543
F13.0
V14-1
p1544
V13
p1545
tp1546
aVh4tu
p1547
(lp1548
(V$n
p1549
V14
p1550
tp1551
a(V$x
p1552
V4
p1553
tp1554
a(V$y
p1555
V11
p1556
tp1557
aV2015-10-22 17:39:29
p1558
tp1559
a(g329
VC(14,2)
p1560
(lp1561
(S'R.0'
p1562
F14.0
V15-1
p1563
V14
p1564
tp1565
aVdlgoldbe
p1566
(lp1567
(V$n
p1568
V15
p1569
tp1570
a(V$x
p1571
V2
p1572
tp1573
a(V$y
p1574
V13
p1575
tp1576
aV2015-10-22 17:46:05
p1577
tp1578
a(V(15-1)*(15-2)
p1579
VC(14,2)
p1580
(lp1581
(S'R.0'
p1582
F14.0
V15-1
p1583
V14
p1584
tp1585
aVppanourg
p1586
(lp1587
(V$n
p1588
V15
p1589
tp1590
a(V$x
p1591
V7
p1592
tp1593
a(V$y
p1594
V11
p1595
tp1596
aV2015-10-22 20:45:01
p1597
tp1598
a(V(13-1)*(13-2)
p1599
VC(12,2)
p1600
(lp1601
(S'R.0'
p1602
F12.0
V13-1
p1603
V12
p1604
tp1605
aVv3doan
p1606
(lp1607
(V$n
p1608
V13
p1609
tp1610
a(V$x
p1611
V2
p1612
tp1613
a(V$y
p1614
V8
p1615
tp1616
aV2015-10-22 21:08:56
p1617
tp1618
a(V(14-1)*(14-2)
p1619
VC(13,2)
p1620
(lp1621
(S'R.0'
p1622
F13.0
V14-1
p1623
V13
p1624
tp1625
aVmuy002
p1626
(lp1627
(V$n
p1628
V14
p1629
tp1630
a(V$x
p1631
V5
p1632
tp1633
a(V$y
p1634
V8
p1635
tp1636
aV2015-10-22 21:27:28
p1637
tp1638
a(V(14-1)*(14-2)
p1639
VC(13, 2)
p1640
(lp1641
(S'R.0'
p1642
F13.0
V14-1
p1643
V13
p1644
tp1645
aVcagatep
p1646
(lp1647
(V$n
p1648
V14
p1649
tp1650
a(V$x
p1651
V3
p1652
tp1653
a(V$y
p1654
V6
p1655
tp1656
aV2015-10-22 21:37:52
p1657
tp1658
a(V(16-1)*(16-2)
p1659
VC(15,2)
p1660
(lp1661
(S'R.0'
p1662
F15.0
V16-1
p1663
V15
p1664
tp1665
aVyhhan
p1666
(lp1667
(V$n
p1668
V16
p1669
tp1670
a(V$x
p1671
V7
p1672
tp1673
a(V$y
p1674
V9
p1675
tp1676
aV2015-10-22 23:31:16
p1677
tp1678
a(V(16-1)*(16-2)
p1679
VC(15,2)
p1680
(lp1681
(S'R.0'
p1682
F15.0
V16-1
p1683
V15
p1684
tp1685
aVjyc018
p1686
(lp1687
(V$n
p1688
V16
p1689
tp1690
a(V$x
p1691
V3
p1692
tp1693
a(V$y
p1694
V13
p1695
tp1696
aV2015-10-22 23:36:37
p1697
tp1698
a(V(15-1)*(15-2)
p1699
V14*12
p1700
(lp1701
(S'R.0'
p1702
F14.0
V15-1
p1703
V14
p1704
tp1705
aVairanmeh
p1706
(lp1707
(V$n
p1708
V15
p1709
tp1710
a(V$x
p1711
V9
p1712
tp1713
a(V$y
p1714
V13
p1715
tp1716
aV2015-10-22 23:41:37
p1717
tp1718
a(g393
VC(13, 2)
p1719
(lp1720
(S'R.0'
p1721
F13.0
V14-1
p1722
V13
p1723
tp1724
aVjnn015
p1725
(lp1726
(V$n
p1727
V14
p1728
tp1729
a(V$x
p1730
V8
p1731
tp1732
a(V$y
p1733
V12
p1734
tp1735
aV2015-10-22 23:43:40
p1736
tp1737
a(V(14-1)*(14-2)
p1738
VC(13,2)
p1739
(lp1740
(S'R.0'
p1741
F13.0
V14-1
p1742
V13
p1743
tp1744
aVr2fisher
p1745
(lp1746
(V$n
p1747
V14
p1748
tp1749
a(V$x
p1750
V5
p1751
tp1752
a(V$y
p1753
V11
p1754
tp1755
aV2015-10-23 00:05:29
p1756
tp1757
a(g694
VC(14,2)
p1758
(lp1759
(S'R.0'
p1760
F14.0
V15-1
p1761
V14
p1762
tp1763
aVdando
p1764
g700
V2015-10-23 00:32:03
p1765
tp1766
a(g435
VC(13, 2)
p1767
(lp1768
(S'R.0'
p1769
F13.0
V14-1
p1770
V13
p1771
tp1772
aVdgunawan
p1773
g820
V2015-10-23 00:50:35
p1774
tp1775
a(g435
VC(13, 1) * 2
p1776
(lp1777
(S'R.0'
p1778
F13.0
V14-1
p1779
VC(13, 1)
p1780
tp1781
aVdgunawan
p1782
g820
V2015-10-23 00:51:42
p1783
tp1784
asS'Wrong_Sign'
p1785
(lp1786
(V(16-1)*(16-2)
p1787
V16-1 * 16-2
p1788
tp1789
a(g250
V(3/11) * ( 4/12) * (2/10) * (1/9) -1
p1790
tp1791
a(V(15-1)*(15-2)
p1792
V15-1 * 15-2
p1793
tp1794
asS'Fraction'
p1795
(lp1796
(V(14-1)*(14-2)
p1797
V(4/52)*(4/52)
p1798
tp1799
a(g1797
V(4/51)*(4/50)
p1800
tp1801
a(g1797
V(1/13)*(1/12)
p1802
tp1803
a(V(15-1)*(15-2)
p1804
V1 / 15
p1805
tp1806
a(g178
V(5!/13)
p1807
tp1808
a(g178
V1/13 * 4/13 + 1/13 * 3/13 + 1/13 * 2/13 + 1/13 * 1/13
p1809
tp1810
a(g1182
V(1/12)(1/11)
p1811
tp1812
a(g1182
V1/5(1/6)
p1813
tp1814
a(g1229
VC(15,2)/C(16,3)
p1815
tp1816
a(g1229
VC(15,2)/C(16,2)
p1817
tp1818
a(g250
V1/12
p1819
tp1820
a(g250
V1/11
p1821
tp1822
a(g250
V1/11 + 1/10
p1823
tp1824
a(g250
V1/11 * 1/10
p1825
tp1826
a(g250
V1/11 * (1/10)
p1827
tp1828
a(g250
V1/11 * (1/10) * (1/9)
p1829
tp1830
a(g250
V1/11 + (1/10) + (1/9)
p1831
tp1832
a(g250
V1/12 + (1/11) + (1/10)
p1833
tp1834
a(g250
V1/12 * (1/11) * (1/10)
p1835
tp1836
a(g250
V1/11
p1837
tp1838
a(g250
V1/10
p1839
tp1840
a(g250
V1/12
p1841
tp1842
a(g250
V1/9
p1843
tp1844
a(g250
V1/6
p1845
tp1846
a(g250
V1/5
p1847
tp1848
a(g250
V1/3
p1849
tp1850
a(g250
V1/7
p1851
tp1852
a(g250
V1/8
p1853
tp1854
a(g250
V1/9
p1855
tp1856
a(g250
V1/10
p1857
tp1858
a(g250
V1/5
p1859
tp1860
a(g250
V1/4
p1861
tp1862
a(g250
V1/12
p1863
tp1864
a(g250
V1/11
p1865
tp1866
a(g250
V(1/11) * ( 1/12)
p1867
tp1868
a(g250
V(3/11) * ( 4/12)
p1869
tp1870
a(g250
V(3/11) + ( 4/12)
p1871
tp1872
a(g250
V(3/11) * ( 4/12)
p1873
tp1874
a(g250
V(3/11) * ( 4/12) * (2/10) * (1/9)
p1875
tp1876
a(g250
V(3/11) * ( 4/12) * (2/10) * (1/9) + 1
p1877
tp1878
a(g250
V(3/11) * ( 4/12) * (2/10) * (2/9)
p1879
tp1880
a(g250
V(4/11) * ( 5/12) * (3/10) * (2/9)
p1881
tp1882
a(g250
V(4/11) * ( 5/12) * (3/10) * (2/9) * 1/8
p1883
tp1884
a(g250
V(4/11) * ( 5/12) * (3/10) * (2/9) * (1/8)
p1885
tp1886
a(g1317
VC(6,3)/(14*13*12)
p1887
tp1888
a(V(15-1)*(15-2)
p1889
V1/15
p1890
tp1891
a(g1434
V(1/12)(1/11)
p1892
tp1893
a(V(15-1)*(15-2)
p1894
V90/(15!/12!)
p1895
tp1896
a(g1894
V110/(15!/12!)
p1897
tp1898
a(V(16-1)*(16-2)
p1899
V15/14
p1900
tp1901
asS"['R.0.1']"
p1902
(lp1903
(g14
V(7+6+5+4+3+2+1)*2
p1904
(lp1905
(S'R.0.1'
p1906
F1.0
g717
g717
tp1907
aVlguintu
p1908
g859
V2015-10-16 07:10:15
p1909
tp1910
a(g178
V3! + 2! + 1 + 20
p1911
(lp1912
(S'R.0.1'
p1913
F1.0
g717
g717
tp1914
aVmhale
p1915
(lp1916
(V$n
p1917
V13
p1918
tp1919
a(V$x
p1920
V8
p1921
tp1922
a(V$y
p1923
V12
p1924
tp1925
aV2015-10-21 07:27:12
p1926
tp1927
a(V(13-1)*(13-2)
p1928
VC(8,1)C(7,1)
p1929
(lp1930
(S'R.0.1'
p1931
F1.0
g717
g717
tp1932
aVasp025
p1933
(lp1934
(V$n
p1935
V13
p1936
tp1937
a(V$x
p1938
V5
p1939
tp1940
a(V$y
p1941
V12
p1942
tp1943
aV2015-10-21 19:35:04
p1944
tp1945
a(g1182
VC(4,1)C(6,1)C(4,1)C(5,1)C(4,1)
p1946
(lp1947
(S'R.0.1'
p1948
F1.0
g717
g717
tp1949
aVdsmonaha
p1950
g1190
V2015-10-21 20:04:19
p1951
tp1952
a(g1182
VC(6,1)C(5,1)
p1953
(lp1954
(S'R.0.1'
p1955
F1.0
g717
g717
tp1956
aVdsmonaha
p1957
g1190
V2015-10-21 20:04:54
p1958
tp1959
a(g307
VC(7,1)*C(6,1)
p1960
(lp1961
(S'R.0.1'
p1962
F1.0
g717
g717
tp1963
aVsachadal
p1964
(lp1965
(V$n
p1966
V14
p1967
tp1968
a(V$x
p1969
V6
p1970
tp1971
a(V$y
p1972
V12
p1973
tp1974
aV2015-10-22 17:25:01
p1975
tp1976
a(g1639
VC(11, 1) + C(10, 1)
p1977
(lp1978
(S'R.0.1'
p1979
F1.0
g717
g717
tp1980
aVcagatep
p1981
g1647
V2015-10-22 21:36:05
p1982
tp1983
a(V(16-1)*(16-2)
p1984
VP(13-1,2)
p1985
(lp1986
(S'R.0.1'
p1987
F1.0
g717
g717
tp1988
aVdtea
p1989
(lp1990
(V$n
p1991
V16
p1992
tp1993
a(V$x
p1994
V7
p1995
tp1996
a(V$y
p1997
V13
p1998
tp1999
aV2015-10-22 22:41:48
p2000
tp2001
asS"['R.0', 'R.1']"
p2002
(lp2003
(g1639
VC(13, 1) + C(12, 1)
p2004
(lp2005
(S'R.0'
p2006
F13.0
V14-1
p2007
VC(13, 1)
p2008
tp2009
a(S'R.1'
p2010
F12.0
V14-2
p2011
VC(12, 1)
p2012
tp2013
aVcagatep
p2014
g1647
V2015-10-22 21:37:42
p2015
tp2016
a(g1639
VC(13, 1) + C(12, 1)
p2017
(lp2018
(S'R.0'
p2019
F13.0
V14-1
p2020
VC(13, 1)
p2021
tp2022
a(S'R.1'
p2023
F12.0
V14-2
p2024
VC(12, 1)
p2025
tp2026
aVcagatep
p2027
g1647
V2015-10-22 21:39:26
p2028
tp2029
assV3
p2030
g2
(g3
tp2031
Rp2032
g6
(lp2033
(V55
p2034
V46
p2035
tp2036
a(V66
p2037
V10
p2038
tp2039
a(V28
p2040
V10
p2041
tp2042
a(V45
p2043
V8
p2044
tp2045
a(V66
p2046
V15
p2047
tp2048
a(V45
p2049
V36
p2050
tp2051
a(V36
p2052
V72
p2053
tp2054
a(g2052
V2184
p2055
tp2056
a(g2052
V156
p2057
tp2058
a(V21
p2059
V45
p2060
tp2061
a(g2059
V15
p2062
tp2063
a(g2059
V6
p2064
tp2065
a(V10
p2066
V36
p2067
tp2068
a(g2066
V28
p2069
tp2070
a(g2066
V21
p2071
tp2072
a(g2066
V15
p2073
tp2074
a(g2066
V45
p2075
tp2076
a(g2066
V55
p2077
tp2078
a(g2066
V66
p2079
tp2080
a(V66
p2081
V45
p2082
tp2083
a(V21
p2084
V2
p2085
tp2086
a(V45
p2087
V36
p2088
tp2089
a(g2052
V144
p2090
tp2091
a(g2052
V72
p2092
tp2093
a(V21
p2094
V7
p2095
tp2096
a(V55
p2097
V11
p2098
tp2099
a(g2097
V10
p2100
tp2101
a(V21
p2102
V5
p2103
tp2104
a(g2097
V67
p2105
tp2106
a(g2102
V15
p2107
tp2108
a(V66
p2109
V45
p2110
tp2111
a(g2109
V44
p2112
tp2113
a(g2109
V43
p2114
tp2115
a(g2109
V42
p2116
tp2117
a(g2109
V41
p2118
tp2119
a(g2109
V40
p2120
tp2121
a(g2109
V39
p2122
tp2123
a(g2109
V38
p2124
tp2125
a(g2109
V37
p2126
tp2127
a(g2109
V36
p2128
tp2129
a(g2109
V35
p2130
tp2131
a(g2109
V34
p2132
tp2133
a(g2109
V33
p2134
tp2135
a(g2109
V32
p2136
tp2137
a(g2109
V31
p2138
tp2139
a(g2109
V30
p2140
tp2141
a(g2109
V29
p2142
tp2143
a(g2109
V28
p2144
tp2145
a(g2109
V27
p2146
tp2147
a(g2109
V26
p2148
tp2149
a(g2109
V25
p2150
tp2151
a(g2109
V24
p2152
tp2153
a(g2109
V23
p2154
tp2155
a(g2109
V22
p2156
tp2157
a(g2109
V21
p2158
tp2159
a(g2109
V20
p2160
tp2161
a(g2109
V19
p2162
tp2163
a(g2109
V18
p2164
tp2165
a(g2109
V17
p2166
tp2167
a(g2109
V16
p2168
tp2169
a(g2109
V15
p2170
tp2171
a(g2109
V14
p2172
tp2173
a(g2109
V13
p2174
tp2175
a(g2109
V12
p2176
tp2177
a(g2109
V11
p2178
tp2179
a(g2109
V10
p2180
tp2181
a(g2109
V9
p2182
tp2183
a(g2109
V8
p2184
tp2185
a(g2109
V7
p2186
tp2187
a(g2109
V6
p2188
tp2189
a(g2109
V5
p2190
tp2191
a(g2109
V4
p2192
tp2193
a(g2109
V3
p2194
tp2195
a(g2109
V2
p2196
tp2197
a(g2109
V1
p2198
tp2199
a(g2109
V46
p2200
tp2201
a(g2109
V47
p2202
tp2203
a(g2109
V48
p2204
tp2205
a(g2109
V49
p2206
tp2207
a(g2109
V50
p2208
tp2209
a(g2109
V51
p2210
tp2211
a(g2109
V52
p2212
tp2213
a(g2109
V53
p2214
tp2215
a(g2109
V54
p2216
tp2217
a(g2109
V55
p2218
tp2219
a(g2109
V56
p2220
tp2221
a(g2109
V57
p2222
tp2223
a(g2109
V58
p2224
tp2225
a(g2109
V59
p2226
tp2227
a(g2109
V60
p2228
tp2229
a(g2109
V61
p2230
tp2231
a(g2109
V62
p2232
tp2233
a(g2109
V63
p2234
tp2235
a(g2109
V64
p2236
tp2237
a(g2109
V65
p2238
tp2239
a(V36
p2240
V92
p2241
tp2242
a(V10
p2243
V9
p2244
tp2245
a(V10
p2246
V66
p2247
tp2248
a(V36
p2249
V44
p2250
tp2251
a(V28
p2252
V5
p2253
tp2254
a(g2252
V8
p2255
tp2256
a(g2252
V7
p2257
tp2258
a(V66
p2259
V10
p2260
tp2261
a(V55
p2262
V16
p2263
tp2264
a(g2262
V1
p2265
tp2266
a(g2262
V25
p2267
tp2268
a(g2262
V10
p2269
tp2270
a(V21
p2271
V5
p2272
tp2273
a(V10
p2274
V4
p2275
tp2276
a(V15
p2277
V36
p2278
tp2279
a(V36
p2280
V13
p2281
tp2282
a(g2280
V35
p2283
tp2284
a(g2280
V15
p2285
tp2286
a(g2280
V212
p2287
tp2288
a(V15
p2289
V120
p2290
tp2291
a(V6
p2292
V28
p2293
tp2294
a(g2292
V44
p2295
tp2296
a(g2292
V18
p2297
tp2298
a(g2292
V20
p2299
tp2300
a(g2292
V21
p2301
tp2302
a(g2292
V23
p2303
tp2304
a(g2292
V17
p2305
tp2306
a(g2292
V12
p2307
tp2308
a(g2292
V14
p2309
tp2310
a(g2292
V16
p2311
tp2312
a(V36
p2313
V9
p2314
tp2315
a(V55
p2316
V36
p2317
tp2318
a(V66
p2319
V55
p2320
tp2321
a(V45
p2322
V6
p2323
tp2324
a(V45
p2325
V66
p2326
tp2327
a(g2325
V55
p2328
tp2329
a(V21
p2330
V1
p2331
tp2332
a(g2330
V2
p2333
tp2334
a(V28
p2335
V22
p2336
tp2337
a(g2330
V3
p2338
tp2339
a(g2330
V6
p2340
tp2341
a(V66
p2342
V45
p2343
tp2344
a(V15
p2345
V36
p2346
tp2347
a(V66
p2348
V28
p2349
tp2350
a(V15
p2351
V64
p2352
tp2353
a(g2351
V80
p2354
tp2355
a(V78
p2356
V12
p2357
tp2358
a(V36
p2359
V135
p2360
tp2361
a(g2359
V143
p2362
tp2363
a(g2359
V10
p2364
tp2365
a(g2359
V252
p2366
tp2367
a(g2359
V8
p2368
tp2369
a(g2359
V9
p2370
tp2371
a(V28
p2372
V32
p2373
tp2374
a(g2372
V34
p2375
tp2376
a(g2372
V40
p2377
tp2378
a(g2372
V44
p2379
tp2380
a(g2372
V32
p2381
tp2382
a(g2372
V36
p2383
tp2384
a(g2372
V30
p2385
tp2386
a(g2351
V36
p2387
tp2388
a(g2372
V36
p2389
tp2390
a(g2372
V40
p2391
tp2392
a(g2372
V42
p2393
tp2394
a(g2372
V46
p2395
tp2396
a(g2372
V48
p2397
tp2398
a(g2372
V50
p2399
tp2400
a(g2372
V56
p2401
tp2402
a(V28
p2403
V8
p2404
tp2405
a(g2403
V7
p2406
tp2407
a(g2403
V15
p2408
tp2409
a(V28
p2410
V7
p2411
tp2412
a(g2403
V56
p2413
tp2414
a(g2403
V3
p2415
tp2416
a(g2403
V6
p2417
tp2418
a(g2403
V184
p2419
tp2420
a(g2403
V91
p2421
tp2422
a(g2403
V35
p2423
tp2424
a(V21
p2425
V6
p2426
tp2427
a(g2425
V5
p2428
tp2429
a(g2425
V4
p2430
tp2431
a(g2425
V3
p2432
tp2433
a(g2425
V7
p2434
tp2435
a(g2425
V8
p2436
tp2437
a(g2425
V9
p2438
tp2439
a(g2425
V10
p2440
tp2441
a(g2425
V11
p2442
tp2443
a(g2425
V12
p2444
tp2445
a(V36
p2446
V5
p2447
tp2448
a(g2446
V6
p2449
tp2450
a(g2446
V7
p2451
tp2452
a(g2446
V8
p2453
tp2454
a(g2446
V9
p2455
tp2456
a(g2446
V10
p2457
tp2458
a(g2446
V11
p2459
tp2460
a(g2446
V14
p2461
tp2462
a(g2446
V13
p2463
tp2464
a(g2446
V12
p2465
tp2466
a(g2446
V5
p2467
tp2468
a(g2446
V4
p2469
tp2470
a(g2446
V3
p2471
tp2472
a(g2446
V2
p2473
tp2474
a(g2446
V15
p2475
tp2476
a(g2446
V16
p2477
tp2478
a(g2446
V17
p2479
tp2480
a(g2425
V6
p2481
tp2482
a(g2446
V18
p2483
tp2484
a(g2446
V19
p2485
tp2486
a(g2446
V20
p2487
tp2488
a(g2446
V21
p2489
tp2490
a(V91
p2491
V78
p2492
tp2493
a(V45
p2494
V13
p2495
tp2496
a(g2494
V9
p2497
tp2498
a(g2494
V12
p2499
tp2500
a(V45
p2501
V2028
p2502
tp2503
a(g2501
V14
p2504
tp2505
a(g2501
V90
p2506
tp2507
a(g2501
V19
p2508
tp2509
a(V36
p2510
V32
p2511
tp2512
a(g2510
V49
p2513
tp2514
a(g2501
V1
p2515
tp2516
a(g2501
V2
p2517
tp2518
a(g2501
V3
p2519
tp2520
a(g2501
V4
p2521
tp2522
a(g2501
V5
p2523
tp2524
a(g2501
V6
p2525
tp2526
a(g2501
V152
p2527
tp2528
a(g2102
V20
p2529
tp2530
a(g2102
V19
p2531
tp2532
a(g2345
V39
p2533
tp2534
a(g2345
V30
p2535
tp2536
a(g2345
V55
p2537
tp2538
a(g2345
V20
p2539
tp2540
asS'redirect'
p2541
(lp2542
(V28
p2543
V7+6+5+4+3+2
p2544
tp2545
a(g2543
V6+5+4+3+2
p2546
tp2547
a(V15
p2548
V9+10+11+12+13+14
p2549
tp2550
a(V55
p2551
VP(11,2)
p2552
tp2553
a(g2551
V11*10
p2554
tp2555
a(V55
p2556
V10!
p2557
tp2558
a(g2556
V10!/4!
p2559
tp2560
a(g2556
V10!/3!
p2561
tp2562
a(g2556
V10+9+8+7+6+5+4
p2563
tp2564
a(V66
p2565
V5+6+7+8+9+10+11
p2566
tp2567
a(g2565
V5+6+7+8+9+10+11+12
p2568
tp2569
a(g2565
V5+6+7+8+9+10
p2570
tp2571
a(g2565
V5+6+7+8+9+10+11+12+13
p2572
tp2573
a(g2565
V1+2+3+4+5+6+7+8+9+10+11+12+13
p2574
tp2575
a(g2565
V4+5+6+7+8+9+10+11+12+13+14
p2576
tp2577
a(V15
p2578
V1+2+3+4+5+6+7+8+9+10
p2579
tp2580
a(g2578
V1+2+3+4+5+6+7+8+9
p2581
tp2582
a(V45
p2583
VC(12,2)
p2584
tp2585
a(g2583
VC(9,2)
p2586
tp2587
a(g2578
V1+2+3+4+5+6+7+8+9+1+2+3+4+5+6+7+8+9+10
p2588
tp2589
a(g2578
V1+2+3+4+5+6+7+8
p2590
tp2591
a(g2578
V1+2+3+4+5+6+7+8+9+10
p2592
tp2593
a(g2578
V2*(1+2+3+4+5+6+7+8+9+10)
p2594
tp2595
a(g2578
V1+2+3+4+5+6+7
p2596
tp2597
a(g2322
V1+2+3+4+5+6+7+8+9+10
p2598
tp2599
a(V45
p2600
V8-3-1
p2601
tp2602
a(V36
p2603
V4*7
p2604
tp2605
a(V28
p2606
V(15-6)*(15-6-1)/2
p2607
tp2608
a(g2356
V3+4+5+6+7+8+9+10+11+12
p2609
tp2610
a(g2356
V3+4+5+6+7+8+9+10+11+12+13+14+15
p2611
tp2612
a(V21
p2613
V1+2+3+4+5+6+7
p2614
tp2615
a(V66
p2616
V10(11)/2
p2617
tp2618
a(g2446
V5+4+3+2+1
p2619
tp2620
a(g2446
V1+2+3+4+5+6
p2621
tp2622
a(g2446
V1+2+3+4+5+6+7
p2623
tp2624
a(V45
p2625
V((15-9)(15-9-1))/2
p2626
tp2627
asg1795
(lp2628
(V36
p2629
V4.5 * 7
p2630
tp2631
a(g2277
V(62)/6
p2632
tp2633
a(g2277
V(65)/6
p2634
tp2635
a(V36
p2636
V1/3
p2637
tp2638
a(g2277
V(65)/15
p2639
tp2640
a(V6
p2641
V66/13
p2642
tp2643
a(V28
p2644
V(1+2+3+4+5+6)/6
p2645
tp2646
a(V15
p2647
V12 - 9 / 15
p2648
tp2649
a(g2647
V(12 - 9) / 15
p2650
tp2651
a(V28
p2652
V(12)(11)/5
p2653
tp2654
a(g2652
V(12)(11)/7
p2655
tp2656
a(g2652
V(12)(11)/8
p2657
tp2658
a(g2652
V(12)(11)/9
p2659
tp2660
a(V66
p2661
V(12*11)/7
p2662
tp2663
a(V21
p2664
V4/13
p2665
tp2666
a(g2625
V((14-9)(14-9))/2
p2667
tp2668
assV2
p2669
g2
(g3
tp2670
Rp2671
g6
(lp2672
(V10
p2673
V11
p2674
tp2675
a(g2673
V13
p2676
tp2677
a(g2673
V3
p2678
tp2679
a(g2673
V4
p2680
tp2681
a(g2673
V5
p2682
tp2683
a(g2673
V12
p2684
tp2685
a(g2673
V11
p2686
tp2687
a(V3
p2688
V12
p2689
tp2690
a(V3
p2691
V4
p2692
tp2693
a(V6
p2694
V5
p2695
tp2696
a(V8
p2697
V10
p2698
tp2699
a(V1
p2700
V13
p2701
tp2702
a(V2
p2703
V11
p2704
tp2705
a(V3
p2706
V8
p2707
tp2708
a(V2
p2709
V1
p2710
tp2711
a(g2709
V3
p2712
tp2713
a(V1
p2714
V11
p2715
tp2716
a(V5
p2717
V11
p2718
tp2719
a(g2717
V11
p2720
tp2721
a(V3
p2722
V1
p2723
tp2724
a(V4
p2725
V5
p2726
tp2727
a(V7
p2728
V8
p2729
tp2730
a(V1
p2731
V10
p2732
tp2733
a(V4
p2734
V2
p2735
tp2736
a(g2734
V1
p2737
tp2738
a(V9
p2739
V10
p2740
tp2741
a(V9
p2742
V8
p2743
tp2744
a(V4
p2745
V715
p2746
tp2747
a(g2745
V5
p2748
tp2749
a(V1
p2750
V9
p2751
tp2752
a(V6
p2753
V7
p2754
tp2755
a(g2753
V9
p2756
tp2757
a(V3
p2758
V1
p2759
tp2760
a(g2758
V2
p2761
tp2762
a(V6
p2763
V12
p2764
tp2765
a(V2
p2766
V9
p2767
tp2768
a(g2753
V8
p2769
tp2770
a(g2753
V1
p2771
tp2772
a(g2753
V8
p2773
tp2774
a(V6
p2775
V3
p2776
tp2777
a(V4
p2778
V1
p2779
tp2780
a(g2778
V3
p2781
tp2782
a(V2
p2783
V3
p2784
tp2785
a(g2783
V1716
p2786
tp2787
a(g2783
V3
p2788
tp2789
a(V8
p2790
V12
p2791
tp2792
a(V2
p2793
V13
p2794
tp2795
a(g2793
V14
p2796
tp2797
a(g2793
V12
p2798
tp2799
a(V7
p2800
V2
p2801
tp2802
a(g2800
V6
p2803
tp2804
a(g2800
V8
p2805
tp2806
a(V2
p2807
V3
p2808
tp2809
a(V6
p2810
V2
p2811
tp2812
a(g2810
V5
p2813
tp2814
a(g2810
V4
p2815
tp2816
a(g2810
V3
p2817
tp2818
a(g2810
V2
p2819
tp2820
a(g2810
V1
p2821
tp2822
a(g2810
V0
p2823
tp2824
a(V5
p2825
V12
p2826
tp2827
a(g2753
V1
p2828
tp2829
a(g2753
V3
p2830
tp2831
a(g2753
V7
p2832
tp2833
a(V4
p2834
V7
p2835
tp2836
a(g2834
V9
p2837
tp2838
a(g2834
V5
p2839
tp2840
a(V2
p2841
V4
p2842
tp2843
a(g2841
V5
p2844
tp2845
a(g2841
V6
p2846
tp2847
a(g2841
V7
p2848
tp2849
a(g2841
V3
p2850
tp2851
a(V5
p2852
V23
p2853
tp2854
a(V4
p2855
V10
p2856
tp2857
a(V10
p2858
V11
p2859
tp2860
a(V3
p2861
V2
p2862
tp2863
a(V5
p2864
V1
p2865
tp2866
a(g2864
V2
p2867
tp2868
a(g2864
V3
p2869
tp2870
a(g2864
V4
p2871
tp2872
a(V1
p2873
V6
p2874
tp2875
a(g2825
V63
p2876
tp2877
a(g2825
V165
p2878
tp2879
a(g2825
V135
p2880
tp2881
a(V8
p2882
V1
p2883
tp2884
a(V5
p2885
V4
p2886
tp2887
a(V1
p2888
V6
p2889
tp2890
a(V2
p2891
V8
p2892
tp2893
a(g2891
V4
p2894
tp2895
a(V3
p2896
V2
p2897
tp2898
a(g2896
V11
p2899
tp2900
a(V2
p2901
V3
p2902
tp2903
a(V1
p2904
V2
p2905
tp2906
a(V4
p2907
V34
p2908
tp2909
a(V7
p2910
V2
p2911
tp2912
a(g2910
V10
p2913
tp2914
a(g2910
V1
p2915
tp2916
a(g2910
V3
p2917
tp2918
a(g2910
V4
p2919
tp2920
a(g2910
V5
p2921
tp2922
a(g2910
V6
p2923
tp2924
a(V5
p2925
V3
p2926
tp2927
a(V2
p2928
V6
p2929
tp2930
a(g2928
V5
p2931
tp2932
a(g2925
V4
p2933
tp2934
a(V3
p2935
V78
p2936
tp2937
a(V4
p2938
V2
p2939
tp2940
a(V1
p2941
V3
p2942
tp2943
a(V4
p2944
V7
p2945
tp2946
a(g2944
V12
p2947
tp2948
a(g2944
V5
p2949
tp2950
a(g2944
V6
p2951
tp2952
a(g2944
V7
p2953
tp2954
a(g2944
V8
p2955
tp2956
a(g2944
V9
p2957
tp2958
a(g2944
V10
p2959
tp2960
a(g2944
V11
p2961
tp2962
a(V9
p2963
V3
p2964
tp2965
a(g2963
V10
p2966
tp2967
a(V1
p2968
V3
p2969
tp2970
a(g2968
V4
p2971
tp2972
a(V3
p2973
V10
p2974
tp2975
a(g2973
V12
p2976
tp2977
asg1785
(lp2978
(V10
p2979
V13-15-1
p2980
tp2981
a(V2
p2982
V(5-15-1)
p2983
tp2984
a(g2982
V(6-15-1)
p2985
tp2986
a(V6
p2987
V(10-14-1)
p2988
tp2989
asg1795
(lp2990
(g2731
V1/15
p2991
tp2992
a(V4
p2993
V4/11
p2994
tp2995
a(g2858
V11/C(13,1)
p2996
tp2997
a(g2944
V3/14
p2998
tp2999
a(g2944
V4/14
p3000
tp3001
a(g2944
V(1/14)^4
p3002
tp3003
a(g2944
V(4/14)(3/14)
p3004
tp3005
a(g2944
V7/14
p3006
tp3007
assV4
p3008
g2
(g3
tp3009
Rp3010
g6
(lp3011
(V(14-6)*(14-6-1)/2/[(14-1)*(14-2)]
p3012
V1
p3013
tp3014
a(V(14-2)*(14-2-1)/2/[(14-1)*(14-2)]
p3015
V66
p3016
tp3017
a(V(14-4)*(14-4-1)/2/[(14-1)*(14-2)]
p3018
V156
p3019
tp3020
asS"['R.0.0']"
p3021
(lp3022
(V(15-4)*(15-4-1)/2/[(15-1)*(15-2)]
p3023
VP(11,2)/14*13
p3024
(lp3025
(S'R.0.0'
p3026
F110.0
V(15-4)*(15-4-1)
p3027
VP(11,2)
p3028
tp3029
aVt1tran
p3030
g936
V2015-10-18 04:24:46
p3031
tp3032
asg2541
(lp3033
(V(14-5)*(14-5-1)/2/[(14-1)*(14-2)]
p3034
V3/26
p3035
tp3036
a(V(13-3)*(13-3-1)/2/[(13-1)*(13-2)]
p3037
V36/(12!/(2!10!))
p3038
tp3039
a(V(13-2)*(13-2-1)/2/[(13-1)*(13-2)]
p3040
V((5*4)/2)/12*11
p3041
tp3042
a(V(13-7)*(13-7-1)/2/[(13-1)*(13-2)]
p3043
V(15/1716)/(3/1716)
p3044
tp3045
a(g3034
V72/2184
p3046
tp3047
a(V(13-8)*(13-8-1)/2/[(13-1)*(13-2)]
p3048
V66/(14*13)
p3049
tp3050
a(V(16-4)*(16-4-1)/2/[(16-1)*(16-2)]
p3051
V0.047619
p3052
tp3053
a(V(15-2)*(15-2-1)/2/[(15-1)*(15-2)]
p3054
V39/78
p3055
tp3056
a(V(14-5)*(14-5-1)/2/[(14-1)*(14-2)]
p3057
V4*7/6/13
p3058
tp3059
a(V(13-5)*(13-5-1)/2/[(13-1)*(13-2)]
p3060
V((15-6)*(15-6-1)/2)/((15-1)*(15-2))
p3061
tp3062
a(V(14-8)*(14-8-1)/2/[(14-1)*(14-2)]
p3063
V(((13-9)(13-9-1))/2)/((13-1)*(13-2))
p3064
tp3065
a(g3063
V(((13-9)*(13-9-1))/2)/((13-1)*(13-2))
p3066
tp3067
a(V(15-7)*(15-7-1)/2/[(15-1)*(15-2)]
p3068
V(13-4)*(13-4-1)/2/[(13-1)*(13-2)]
p3069
tp3070
a(V(15-3)*(15-3-1)/2/[(15-1)*(15-2)]
p3071
V((66*14*13)/(C(15,3)))/((14*13)/C(14,2))
p3072
tp3073
a(V(16-9)*(16-9-1)/2/[(16-1)*(16-2)]
p3074
V6/132
p3075
tp3076
a(V(16-4)*(16-4-1)/2/[(16-1)*(16-2)]
p3077
V110/(24*13)
p3078
tp3079
a(V(16-7)*(16-7-1)/2/[(16-1)*(16-2)]
p3080
V6/132
p3081
tp3082
a(V(16-3)*(16-3-1)/2/[(16-1)*(16-2)]
p3083
V12+11+10+9+8+7+6+5+4+3+2+1
p3084
tp3085
asS"['R.1']"
p3086
(lp3087
(g3023
VP(11,2)/(14*13)
p3088
(lp3089
(S'R.1'
p3090
F182.0
V(15-1)*(15-2)
p3091
V14*13
p3092
tp3093
aVt1tran
p3094
g936
V2015-10-18 04:25:07
p3095
tp3096
a(V(15-7)*(15-7-1)/2/[(15-1)*(15-2)]
p3097
V10/182
p3098
(lp3099
(S'R.1'
p3100
F182.0
V(15-1)*(15-2)
p3101
V182
p3102
tp3103
aVr9jiang
p3104
(lp3105
(V$n
p3106
V15
p3107
tp3108
a(V$x
p3109
V7
p3110
tp3111
a(V$y
p3112
V12
p3113
tp3114
aV2015-10-18 23:53:47
p3115
tp3116
a(V(16-6)*(16-6-1)/2/[(16-1)*(16-2)]
p3117
V(((16-6)*(16-6-1)/2)+(8-6-1))/((16-1)*(16-2))
p3118
(lp3119
(S'R.1'
p3120
F210.0
V(16-1)*(16-2)
p3121
V(16-1)*(16-2)
p3122
tp3123
aVsippolit
p3124
(lp3125
(V$n
p3126
V16
p3127
tp3128
a(V$x
p3129
V6
p3130
tp3131
a(V$y
p3132
V8
p3133
tp3134
aV2015-10-20 16:46:57
p3135
tp3136
a(V(14-8)*(14-8-1)/2/[(14-1)*(14-2)]
p3137
V(1+2+3+4+5+6+7+8)/P(13,2)
p3138
(lp3139
(S'R.1'
p3140
F156.0
V(14-1)*(14-2)
p3141
VP(13,2)
p3142
tp3143
aVjjchung
p3144
(lp3145
(V$n
p3146
V14
p3147
tp3148
a(V$x
p3149
V8
p3150
tp3151
a(V$y
p3152
V11
p3153
tp3154
aV2015-10-21 06:01:32
p3155
tp3156
a(g3137
V(1+2+3+4+5+6+7+8+9)/P(13,2)
p3157
(lp3158
(S'R.1'
p3159
F156.0
V(14-1)*(14-2)
p3160
VP(13,2)
p3161
tp3162
aVjjchung
p3163
g3145
V2015-10-21 06:01:44
p3164
tp3165
a(g3137
V(1+2+3+4+5+6+7+8+9+10)/P(13,2)
p3166
(lp3167
(S'R.1'
p3168
F156.0
V(14-1)*(14-2)
p3169
VP(13,2)
p3170
tp3171
aVjjchung
p3172
g3145
V2015-10-21 06:01:52
p3173
tp3174
a(g3137
V(1+2+3+4+5+6+7+8+9+10+11)/P(13,2)
p3175
(lp3176
(S'R.1'
p3177
F156.0
V(14-1)*(14-2)
p3178
VP(13,2)
p3179
tp3180
aVjjchung
p3181
g3145
V2015-10-21 06:02:16
p3182
tp3183
a(g3137
V(1+2+3+4+5+6+7+8+9+10+11+12)/P(13,2)
p3184
(lp3185
(S'R.1'
p3186
F156.0
V(14-1)*(14-2)
p3187
VP(13,2)
p3188
tp3189
aVjjchung
p3190
g3145
V2015-10-21 06:02:23
p3191
tp3192
a(V(14-9)*(14-9-1)/2/[(14-1)*(14-2)]
p3193
V5/P(13,2)
p3194
(lp3195
(S'R.1'
p3196
F156.0
V(14-1)*(14-2)
p3197
VP(13,2)
p3198
tp3199
aVaggouw
p3200
g722
V2015-10-21 09:02:02
p3201
tp3202
a(g3034
V10/(13*12)
p3203
(lp3204
(S'R.1'
p3205
F156.0
V(14-1)*(14-2)
p3206
V13*12
p3207
tp3208
aVhkhodada
p3209
(lp3210
(V$n
p3211
V14
p3212
tp3213
a(V$x
p3214
V5
p3215
tp3216
a(V$y
p3217
V9
p3218
tp3219
aV2015-10-21 23:11:16
p3220
tp3221
a(V(14-3)*(14-3-1)/2/[(14-1)*(14-2)]
p3222
V(10(11)/12)/(13*12)
p3223
(lp3224
(S'R.1'
p3225
F156.0
V(14-1)*(14-2)
p3226
V13*12
p3227
tp3228
aVhachrist
p3229
g1373
V2015-10-22 06:34:30
p3230
tp3231
a(V(13-9)*(13-9-1)/2/[(13-1)*(13-2)]
p3232
V(13-5)*(13-5-1)/2/[(13-1)*(13-2)]
p3233
(lp3234
(S'R.1'
p3235
F132.0
V(13-1)*(13-2)
p3236
V(13-1)*(13-2)
p3237
tp3238
aVsthapa
p3239
(lp3240
(V$n
p3241
V13
p3242
tp3243
a(V$x
p3244
V9
p3245
tp3246
a(V$y
p3247
V11
p3248
tp3249
aV2015-10-22 06:54:49
p3250
tp3251
a(V(16-5)*(16-5-1)/2/[(16-1)*(16-2)]
p3252
V36/210
p3253
(lp3254
(S'R.1'
p3255
F210.0
V(16-1)*(16-2)
p3256
V210
p3257
tp3258
aVdwzhang
p3259
(lp3260
(V$n
p3261
V16
p3262
tp3263
a(V$x
p3264
V5
p3265
tp3266
a(V$y
p3267
V13
p3268
tp3269
aV2015-10-22 08:12:12
p3270
tp3271
a(g3063
V(((14-9)*(14-9-1))/2)/((14-1)*(14-2))
p3272
(lp3273
(S'R.1'
p3274
F156.0
V(14-1)*(14-2)
p3275
V(14-1)*(14-2)
p3276
tp3277
aVmnrahman
p3278
(lp3279
(V$n
p3280
V14
p3281
tp3282
a(V$x
p3283
V8
p3284
tp3285
a(V$y
p3286
V10
p3287
tp3288
aV2015-10-22 20:44:22
p3289
tp3290
a(g3068
V(15-4)*(15-4-1)/2/[(15-1)*(15-2)]
p3291
(lp3292
(S'R.1'
p3293
F182.0
V(15-1)*(15-2)
p3294
V(15-1)*(15-2)
p3295
tp3296
aVagian
p3297
(lp3298
(V$n
p3299
V15
p3300
tp3301
a(V$x
p3302
V7
p3303
tp3304
a(V$y
p3305
V13
p3306
tp3307
aV2015-10-22 20:45:00
p3308
tp3309
a(g3068
V(15-5)*(15-5-1)/2/[(15-1)*(15-2)]
p3310
(lp3311
(S'R.1'
p3312
F182.0
V(15-1)*(15-2)
p3313
V(15-1)*(15-2)
p3314
tp3315
aVagian
p3316
g3298
V2015-10-22 20:46:44
p3317
tp3318
a(g3068
V(15-5)*(15-5-1)/5/[(15-1)*(15-2)]
p3319
(lp3320
(S'R.1'
p3321
F182.0
V(15-1)*(15-2)
p3322
V(15-1)*(15-2)
p3323
tp3324
aVagian
p3325
g3298
V2015-10-22 20:46:53
p3326
tp3327
a(g3068
V(15-2)*(15-2-1)/2/[(15-1)*(15-2)]
p3328
(lp3329
(S'R.1'
p3330
F182.0
V(15-1)*(15-2)
p3331
V(15-1)*(15-2)
p3332
tp3333
aVagian
p3334
g3298
V2015-10-22 20:47:43
p3335
tp3336
a(g3068
V(15-3)*(15-3-1)/2/[(15-1)*(15-2)]
p3337
(lp3338
(S'R.1'
p3339
F182.0
V(15-1)*(15-2)
p3340
V(15-1)*(15-2)
p3341
tp3342
aVagian
p3343
g3298
V2015-10-22 20:47:52
p3344
tp3345
a(V(16-9)*(16-9-1)/2/[(16-1)*(16-2)]
p3346
V(1+2+3+4+5+6+7+8+9)/(15*14)
p3347
(lp3348
(S'R.1'
p3349
F210.0
V(16-1)*(16-2)
p3350
V15*14
p3351
tp3352
aVarvenega
p3353
(lp3354
(V$n
p3355
V16
p3356
tp3357
a(V$x
p3358
V9
p3359
tp3360
a(V$y
p3361
V12
p3362
tp3363
aV2015-10-22 22:04:34
p3364
tp3365
asS"['R.0', 'R.1']"
p3366
(lp3367
(V(15-8)*(15-8-1)/2/[(15-1)*(15-2)]
p3368
V21(14*13)
p3369
(lp3370
(S'R.0'
p3371
F21.0
V(15-8)*(15-8-1)/2
p3372
V21
p3373
tp3374
a(S'R.1'
p3375
F182.0
V(15-1)*(15-2)
p3376
V14*13
p3377
tp3378
aVhak014
p3379
g466
V2015-10-20 07:58:13
p3380
tp3381
asS"['R.0']"
p3382
(lp3383
(V(15-4)*(15-4-1)/2/[(15-1)*(15-2)]
p3384
V55/P(11,2)
p3385
(lp3386
(S'R.0'
p3387
F55.0
V(15-4)*(15-4-1)/2
p3388
V55
p3389
tp3390
aValakamsa
p3391
(lp3392
(V$n
p3393
V15
p3394
tp3395
a(V$x
p3396
V4
p3397
tp3398
a(V$y
p3399
V12
p3400
tp3401
aV2015-10-18 00:04:36
p3402
tp3403
a(V(15-6)*(15-6-1)/2/[(15-1)*(15-2)]
p3404
V(1+2+3+4+5+6+7+8) / (9*8)
p3405
(lp3406
(S'R.0'
p3407
F36.0
V(15-6)*(15-6-1)/2
p3408
V1+2+3+4+5+6+7+8
p3409
tp3410
aVsyip
p3411
(lp3412
(V$n
p3413
V15
p3414
tp3415
a(V$x
p3416
V6
p3417
tp3418
a(V$y
p3419
V12
p3420
tp3421
aV2015-10-18 22:27:02
p3422
tp3423
a(V(13-4)*(13-4-1)/2/[(13-1)*(13-2)]
p3424
V36/121
p3425
(lp3426
(S'R.0'
p3427
F36.0
V(13-4)*(13-4-1)/2
p3428
V36
p3429
tp3430
aVaakumar
p3431
(lp3432
(V$n
p3433
V13
p3434
tp3435
a(V$x
p3436
V4
p3437
tp3438
a(V$y
p3439
V8
p3440
tp3441
aV2015-10-20 00:01:15
p3442
tp3443
a(V(14-5)*(14-5-1)/2/[(14-1)*(14-2)]
p3444
V(1+2+3+4+5+6+7+8) / C(9,2)
p3445
(lp3446
(S'R.0'
p3447
F36.0
V(14-5)*(14-5-1)/2
p3448
V1+2+3+4+5+6+7+8
p3449
tp3450
aVtwsalim
p3451
g1015
V2015-10-20 18:32:32
p3452
tp3453
a(V(14-2)*(14-2-1)/2/[(14-1)*(14-2)]
p3454
V66/132
p3455
(lp3456
(S'R.0'
p3457
F66.0
V(14-2)*(14-2-1)/2
p3458
V66
p3459
tp3460
aVmasaro
p3461
(lp3462
(V$n
p3463
V14
p3464
tp3465
a(V$x
p3466
V2
p3467
tp3468
a(V$y
p3469
V11
p3470
tp3471
aV2015-10-20 21:01:49
p3472
tp3473
a(g3015
V66/78
p3474
(lp3475
(S'R.0'
p3476
F66.0
V(14-2)*(14-2-1)/2
p3477
V66
p3478
tp3479
aVmpanelo
p3480
(lp3481
(V$n
p3482
V14
p3483
tp3484
a(V$x
p3485
V2
p3486
tp3487
a(V$y
p3488
V9
p3489
tp3490
aV2015-10-21 02:05:07
p3491
tp3492
a(g3015
V66/91
p3493
(lp3494
(S'R.0'
p3495
F66.0
V(14-2)*(14-2-1)/2
p3496
V66
p3497
tp3498
aVmpanelo
p3499
g3481
V2015-10-21 02:05:50
p3500
tp3501
a(g3015
V66/182
p3502
(lp3503
(S'R.0'
p3504
F66.0
V(14-2)*(14-2-1)/2
p3505
V66
p3506
tp3507
aVmpanelo
p3508
g3481
V2015-10-21 02:06:27
p3509
tp3510
a(V(16-8)*(16-8-1)/2/[(16-1)*(16-2)]
p3511
V28/28
p3512
(lp3513
(S'R.0'
p3514
F28.0
V(16-8)*(16-8-1)/2
p3515
V28
p3516
tp3517
aVdcgriffi
p3518
(lp3519
(V$n
p3520
V16
p3521
tp3522
a(V$x
p3523
V8
p3524
tp3525
a(V$y
p3526
V11
p3527
tp3528
aV2015-10-21 04:28:20
p3529
tp3530
a(g3511
V28/(16*16)
p3531
(lp3532
(S'R.0'
p3533
F28.0
V(16-8)*(16-8-1)/2
p3534
V28
p3535
tp3536
aVdcgriffi
p3537
g3519
V2015-10-21 04:28:43
p3538
tp3539
a(V(13-3)*(13-3-1)/2/[(13-1)*(13-2)]
p3540
V45/121
p3541
(lp3542
(S'R.0'
p3543
F45.0
V(13-3)*(13-3-1)/2
p3544
V45
p3545
tp3546
aVrbdoming
p3547
g916
V2015-10-21 05:00:49
p3548
tp3549
a(V(15-6)*(15-6-1)/2/[(15-1)*(15-2)]
p3550
V36/5
p3551
(lp3552
(S'R.0'
p3553
F36.0
V(15-6)*(15-6-1)/2
p3554
V36
p3555
tp3556
aVmitopete
p3557
(lp3558
(V$n
p3559
V15
p3560
tp3561
a(V$x
p3562
V6
p3563
tp3564
a(V$y
p3565
V12
p3566
tp3567
aV2015-10-22 01:50:03
p3568
tp3569
a(V(16-3)*(16-3-1)/2/[(16-1)*(16-2)]
p3570
V78/260
p3571
(lp3572
(S'R.0'
p3573
F78.0
V(16-3)*(16-3-1)/2
p3574
V78
p3575
tp3576
aVtpmach
p3577
(lp3578
(V$n
p3579
V16
p3580
tp3581
a(V$x
p3582
V3
p3583
tp3584
a(V$y
p3585
V9
p3586
tp3587
aV2015-10-22 03:36:23
p3588
tp3589
a(V(13-3)*(13-3-1)/2/[(13-1)*(13-2)]
p3590
V45/131
p3591
(lp3592
(S'R.0'
p3593
F45.0
V(13-3)*(13-3-1)/2
p3594
V45
p3595
tp3596
aVlrlai
p3597
(lp3598
(V$n
p3599
V13
p3600
tp3601
a(V$x
p3602
V3
p3603
tp3604
a(V$y
p3605
V6
p3606
tp3607
aV2015-10-22 04:01:40
p3608
tp3609
a(V(16-7)*(16-7-1)/2/[(16-1)*(16-2)]
p3610
V36/2
p3611
(lp3612
(S'R.0'
p3613
F36.0
V(16-7)*(16-7-1)/2
p3614
V36
p3615
tp3616
aVj2phung
p3617
(lp3618
(V$n
p3619
V16
p3620
tp3621
a(V$x
p3622
V7
p3623
tp3624
a(V$y
p3625
V10
p3626
tp3627
aV2015-10-22 06:15:55
p3628
tp3629
a(V(14-3)*(14-3-1)/2/[(14-1)*(14-2)]
p3630
V55/C(11,2)
p3631
(lp3632
(S'R.0'
p3633
F55.0
V(14-3)*(14-3-1)/2
p3634
V55
p3635
tp3636
aVhsc052
p3637
g1413
V2015-10-22 06:23:05
p3638
tp3639
a(V(14-6)*(14-6-1)/2/[(14-1)*(14-2)]
p3640
V28/210
p3641
(lp3642
(S'R.0'
p3643
F28.0
V(14-6)*(14-6-1)/2
p3644
V28
p3645
tp3646
aVcfgutier
p3647
(lp3648
(V$n
p3649
V14
p3650
tp3651
a(V$x
p3652
V6
p3653
tp3654
a(V$y
p3655
V13
p3656
tp3657
aV2015-10-22 09:12:17
p3658
tp3659
a(V(15-4)*(15-4-1)/2/[(15-1)*(15-2)]
p3660
V55/110
p3661
(lp3662
(S'R.0'
p3663
F55.0
V(15-4)*(15-4-1)/2
p3664
V55
p3665
tp3666
aVj6quach
p3667
(lp3668
(V$n
p3669
V15
p3670
tp3671
a(V$x
p3672
V4
p3673
tp3674
a(V$y
p3675
V12
p3676
tp3677
aV2015-10-22 18:34:02
p3678
tp3679
a(V(15-3)*(15-3-1)/2/[(15-1)*(15-2)]
p3680
VC(12,2)/6
p3681
(lp3682
(S'R.0'
p3683
F66.0
V(15-3)*(15-3-1)/2
p3684
VC(12,2)
p3685
tp3686
aVkbielawi
p3687
(lp3688
(V$n
p3689
V15
p3690
tp3691
a(V$x
p3692
V3
p3693
tp3694
a(V$y
p3695
V10
p3696
tp3697
aV2015-10-22 18:35:08
p3698
tp3699
a(V(13-8)*(13-8-1)/2/[(13-1)*(13-2)]
p3700
V20/2/(14*13)
p3701
(lp3702
(S'R.0'
p3703
F10.0
V(13-8)*(13-8-1)/2
p3704
V20/2
p3705
tp3706
aVnhn018
p3707
(lp3708
(V$n
p3709
V13
p3710
tp3711
a(V$x
p3712
V8
p3713
tp3714
a(V$y
p3715
V11
p3716
tp3717
aV2015-10-22 20:35:09
p3718
tp3719
a(V(13-2)*(13-2-1)/2/[(13-1)*(13-2)]
p3720
V(11*10/2)/(11*10)
p3721
(lp3722
(S'R.0'
p3723
F55.0
V(13-2)*(13-2-1)/2
p3724
V11*10/2
p3725
tp3726
aVkebao
p3727
(lp3728
(V$n
p3729
V13
p3730
tp3731
a(V$x
p3732
V2
p3733
tp3734
a(V$y
p3735
V12
p3736
tp3737
aV2015-10-22 21:07:33
p3738
tp3739
a(g3720
V11*10/2/(11*10)
p3740
(lp3741
(S'R.0'
p3742
F55.0
V(13-2)*(13-2-1)/2
p3743
V11*10/2
p3744
tp3745
aVkebao
p3746
g3728
V2015-10-22 21:07:52
p3747
tp3748
a(g3074
V21/132
p3749
(lp3750
(S'R.0'
p3751
F21.0
V(16-9)*(16-9-1)/2
p3752
V21
p3753
tp3754
aVk3tan
p3755
(lp3756
(V$n
p3757
V16
p3758
tp3759
a(V$x
p3760
V9
p3761
tp3762
a(V$y
p3763
V11
p3764
tp3765
aV2015-10-22 23:05:06
p3766
tp3767
a(V(13-7)*(13-7-1)/2/[(13-1)*(13-2)]
p3768
V15/91
p3769
(lp3770
(S'R.0'
p3771
F15.0
V(13-7)*(13-7-1)/2
p3772
V15
p3773
tp3774
aVmrchin
p3775
(lp3776
(V$n
p3777
V13
p3778
tp3779
a(V$x
p3780
V7
p3781
tp3782
a(V$y
p3783
V11
p3784
tp3785
aV2015-10-23 00:26:05
p3786
tp3787
asS"['R.0', 'R.1.1']"
p3788
(lp3789
(V(13-5)*(13-5-1)/2/[(13-1)*(13-2)]
p3790
V28/[22(11)]
p3791
(lp3792
(S'R.0'
p3793
F28.0
V(13-5)*(13-5-1)/2
p3794
V28
p3795
tp3796
a(S'R.1.1'
p3797
F11.0
V13-2
p3798
V11
p3799
tp3800
aVeaherman
p3801
(lp3802
(V$n
p3803
V13
p3804
tp3805
a(V$x
p3806
V5
p3807
tp3808
a(V$y
p3809
V10
p3810
tp3811
aV2015-10-22 17:54:04
p3812
tp3813
asg1785
(lp3814
(V(13-5)*(13-5-1)/2/[(13-1)*(13-2)]
p3815
V1-(8*7/2)
p3816
tp3817
asS"['R.0.0.1']"
p3818
(lp3819
(V(14-9)*(14-9-1)/2/[(14-1)*(14-2)]
p3820
V(1+2+3+4)/13*12
p3821
(lp3822
(S'R.0.0.1'
p3823
F4.0
V14-9-1
p3824
V4
p3825
tp3826
aVvasharma
p3827
(lp3828
(V$n
p3829
V14
p3830
tp3831
a(V$x
p3832
V9
p3833
tp3834
a(V$y
p3835
V11
p3836
tp3837
aV2015-10-21 23:38:33
p3838
tp3839
a(V(13-9)*(13-9-1)/2/[(13-1)*(13-2)]
p3840
V[(13-9)*(13-9-1)/2]/[11-9-1]
p3841
(lp3842
(S'R.0.0.1'
p3843
F3.0
V13-9-1
p3844
V13-9-1
p3845
tp3846
aVaysee
p3847
(lp3848
(V$n
p3849
V13
p3850
tp3851
a(V$x
p3852
V9
p3853
tp3854
a(V$y
p3855
V11
p3856
tp3857
aV2015-10-22 03:51:32
p3858
tp3859
a(g3346
V(1+2+3+4+5+6+7)/(P(14,2))
p3860
(lp3861
(S'R.0.0.1'
p3862
F6.0
V16-9-1
p3863
V6
p3864
tp3865
aVarvenega
p3866
g3354
V2015-10-22 21:50:56
p3867
tp3868
asS"['R.0.0.1.0.1', 'R.1']"
p3869
(lp3870
(g3060
V((15-6)*(15-5-1)/2)/((13-1)*(13-2))
p3871
(lp3872
(S'R.0.0.1.0.1'
p3873
F5.0
V5
p3874
g3874
tp3875
a(S'R.1'
p3876
F132.0
V(13-1)*(13-2)
p3877
V(13-1)*(13-2)
p3878
tp3879
aVdis003
p3880
g762
V2015-10-22 17:42:27
p3881
tp3882
asS"['R.0.0.1', 'R.1']"
p3883
(lp3884
(g3137
V(1+2+3+4+5+6)/P(13,2)
p3885
(lp3886
(S'R.0.0.1'
p3887
F5.0
V14-8-1
p3888
g3874
tp3889
a(S'R.1'
p3890
F156.0
V(14-1)*(14-2)
p3891
VP(13,2)
p3892
tp3893
aVjjchung
p3894
g3145
V2015-10-21 06:02:31
p3895
tp3896
asS"['R.0.0.1.0.1']"
p3897
(lp3898
(g3117
V(((16-6)*(16-6-1)/2)+(8-6-1))/(16-1)*(16-2)
p3899
(lp3900
(S'R.0.0.1.0.1'
p3901
F6.0
g3864
g3864
tp3902
aVsippolit
p3903
g3125
V2015-10-20 16:46:47
p3904
tp3905
asS"['R.0', 'R.1.0']"
p3906
(lp3907
(g3444
V(1+2+3+4+5+6+7+8) / C(13,2)
p3908
(lp3909
(S'R.0'
p3910
F36.0
V(14-5)*(14-5-1)/2
p3911
V1+2+3+4+5+6+7+8
p3912
tp3913
a(S'R.1.0'
p3914
F13.0
V14-1
p3915
V13
p3916
tp3917
aVtwsalim
p3918
g1015
V2015-10-20 18:33:19
p3919
tp3920
a(V(14-4)*(14-4-1)/2/[(14-1)*(14-2)]
p3921
V45/C(13,2)
p3922
(lp3923
(S'R.0'
p3924
F45.0
V(14-4)*(14-4-1)/2
p3925
V45
p3926
tp3927
a(S'R.1.0'
p3928
F13.0
V14-1
p3929
V13
p3930
tp3931
aVabasu
p3932
(lp3933
(V$n
p3934
V14
p3935
tp3936
a(V$x
p3937
V4
p3938
tp3939
a(V$y
p3940
V11
p3941
tp3942
aV2015-10-21 00:14:38
p3943
tp3944
a(V(15-4)*(15-4-1)/2/[(15-1)*(15-2)]
p3945
V55/(14*14)
p3946
(lp3947
(S'R.0'
p3948
F55.0
V(15-4)*(15-4-1)/2
p3949
V55
p3950
tp3951
a(S'R.1.0'
p3952
F14.0
V15-1
p3953
V14
p3954
tp3955
aVlywong
p3956
g1073
V2015-10-21 23:38:43
p3957
tp3958
a(g3630
V55/C(13,2)
p3959
(lp3960
(S'R.0'
p3961
F55.0
V(14-3)*(14-3-1)/2
p3962
V55
p3963
tp3964
a(S'R.1.0'
p3965
F13.0
V14-1
p3966
V13
p3967
tp3968
aVhsc052
p3969
g1413
V2015-10-22 06:24:56
p3970
tp3971
a(V(13-4)*(13-4-1)/2/[(13-1)*(13-2)]
p3972
V36/C(12,2)
p3973
(lp3974
(S'R.0'
p3975
F36.0
V(13-4)*(13-4-1)/2
p3976
V36
p3977
tp3978
a(S'R.1.0'
p3979
F12.0
V13-1
p3980
V12
p3981
tp3982
aVjic212
p3983
(lp3984
(V$n
p3985
V13
p3986
tp3987
a(V$x
p3988
V4
p3989
tp3990
a(V$y
p3991
V6
p3992
tp3993
aV2015-10-22 23:38:14
p3994
tp3995
ass.