(dp0
V1
p1
(dp2
Vaggouw
p3
(dp4
S'part1_correct_attempt'
p5
(lp6
S'0:01:41'
p7
aVP(13,2)
p8
asS'first_attempt'
p9
V2015-10-21 08:53:56
p10
sS'part1_incorrect_attempt'
p11
(lp12
(S'0:00:00'
p13
VP(15,2)
p14
tp15
assVsrl006
p16
(dp17
S'part1_correct_attempt'
p18
(lp19
S'0:03:54'
p20
aV12 * 13
p21
asg9
V2015-10-23 00:39:40
p22
sS'part1_incorrect_attempt'
p23
(lp24
(S'0:00:00'
p25
V14 * 11
p26
tp27
a(S'0:00:05'
p28
V14 * 10
p29
tp30
a(S'0:00:10'
p31
V14 * 9
p32
tp33
a(S'0:00:15'
p34
V14 * 8
p35
tp36
a(S'0:00:19'
p37
V14 * 7
p38
tp39
a(S'0:00:23'
p40
V14 * 6
p41
tp42
a(S'0:00:29'
p43
V14 * 5
p44
tp45
a(S'0:00:33'
p46
V14 * 4
p47
tp48
a(S'0:00:46'
p49
V14 * 14
p50
tp51
a(S'0:00:50'
p52
V14 * 15
p53
tp54
a(S'0:00:54'
p55
V14 * 16
p56
tp57
a(S'0:00:59'
p58
V14 * 17
p59
tp60
a(S'0:01:04'
p61
V14 * 18
p62
tp63
a(S'0:01:12'
p64
V14 * 3
p65
tp66
a(S'0:01:17'
p67
V14 * 4
p68
tp69
a(S'0:01:22'
p70
V14 
p71
tp72
a(S'0:02:30'
p73
V14 * 13
p74
tp75
assVjguanzho
p76
(dp77
S'part1_correct_attempt'
p78
(lp79
S'0:44:26'
p80
aV12*11
p81
asg9
V2015-10-18 21:38:56
p82
sS'part1_incorrect_attempt'
p83
(lp84
(S'0:00:00'
p85
V8*7
p86
tp87
a(S'0:02:28'
p88
V8!*7!
p89
tp90
a(S'0:03:11'
p91
V7+6+5+4+3+2+1
p92
tp93
a(S'0:04:35'
p94
V8+7+6+5+4+3+2+1
p95
tp96
a(S'0:05:00'
p97
V8!/2!
p98
tp99
a(S'0:05:04'
p100
V8!
p101
tp102
a(S'0:06:38'
p103
V(12!/(2!*10!))
p104
tp105
a(S'0:07:24'
p106
V(13!/(2!*10!)) - 13
p107
tp108
assValakamsa
p109
(dp110
S'part1_correct_attempt'
p111
(lp112
S'0:00:21'
p113
aVP(14,2)
p114
asg9
V2015-10-18 00:04:36
p115
sS'part1_incorrect_attempt'
p116
(lp117
(S'0:00:00'
p118
VP(11,2)
p119
tp120
assVjhc010
p121
(dp122
S'part1_correct_attempt'
p123
(lp124
S'0:04:23'
p125
aV12*11
p126
asg9
V2015-10-22 08:34:43
p127
sS'part1_incorrect_attempt'
p128
(lp129
(S'0:00:00'
p130
V6*5
p131
tp132
a(S'0:01:06'
p133
VC(6,2)
p134
tp135
a(S'0:01:34'
p136
VP(6,2)
p137
tp138
a(S'0:03:41'
p139
V6*5
p140
tp141
assVjjm019
p142
(dp143
S'part1_correct_attempt'
p144
(lp145
S'0:11:04'
p146
aV12*11
p147
asg9
V2015-10-22 10:04:22
p148
sS'part1_incorrect_attempt'
p149
(lp150
(S'0:00:00'
p151
V10*9
p152
tp153
assVmhale
p154
(dp155
S'part1_correct_attempt'
p156
(lp157
S'0:06:39'
p158
aV12 * 11
p159
asg9
V2015-10-21 07:25:02
p160
sS'part1_incorrect_attempt'
p161
(lp162
(S'0:00:00'
p163
V4 + 3 + 2 + 1
p164
tp165
a(S'0:00:37'
p166
V4!
p167
tp168
a(S'0:00:48'
p169
V5!
p170
tp171
a(S'0:01:08'
p172
V5 * 4
p173
tp174
a(S'0:01:29'
p175
V4 * 3
p176
tp177
a(S'0:01:54'
p178
V3! + 2! + 1
p179
tp180
assVdkurli
p181
(dp182
S'part1_correct_attempt'
p183
(lp184
S'0:02:14'
p185
aVP(15,2)
p186
asg9
V2015-10-21 04:19:57
p187
sS'part1_incorrect_attempt'
p188
(lp189
(S'0:00:00'
p190
VC(8,2)
p191
tp192
a(S'0:00:39'
p193
VC(7,2)
p194
tp195
assVj5phung
p196
(dp197
S'part1_correct_attempt'
p198
(lp199
S'2 days, 4:13:42'
p200
aV14*13
p201
asg9
V2015-10-17 00:42:22
p202
sS'part1_incorrect_attempt'
p203
(lp204
(S'0:00:00'
p205
VC(8,2)
p206
tp207
a(S'0:00:36'
p208
VC(6,2)
p209
tp210
a(S'0:00:49'
p211
V6*5
p212
tp213
a(S'0:02:08'
p214
V6*5+6*4+6*3+6*2+6*1
p215
tp216
a(S'0:02:52'
p217
V6(5+4+3+2+1)
p218
tp219
a(S'0:03:11'
p220
V6(5!)
p221
tp222
a(S'0:03:17'
p223
V6!
p224
tp225
a(S'0:03:28'
p226
VP(6,2)
p227
tp228
a(S'0:11:07'
p229
V5(5+4+3+2+1)
p230
tp231
a(S'0:16:19'
p232
V5(6+5+4+3+2+1)
p233
tp234
a(S'0:16:26'
p235
V6(6+5+4+3+2+1)
p236
tp237
a(S'0:19:38'
p238
V15*5
p239
tp240
assVhaw081
p241
(dp242
S'part1_correct_attempt'
p243
(lp244
S'0:04:02'
p245
aVP(13-1,2)
p246
asg9
V2015-10-22 06:04:54
p247
sS'part1_incorrect_attempt'
p248
(lp249
(S'0:00:00'
p250
VC(13-1,2)-C(4,2)
p251
tp252
a(S'0:00:33'
p253
VC(13,2)-C(13-1,2)
p254
tp255
assVh4tu
p256
(dp257
S'part1_correct_attempt'
p258
(lp259
S'0:02:58'
p260
aV13*12
p261
asg9
V2015-10-22 17:37:10
p262
sS'part1_incorrect_attempt'
p263
(lp264
(S'0:00:00'
p265
V5*11
p266
tp267
a(S'0:00:00'
p268
V5*11-10
p269
tp270
assVrlhagen
p271
(dp272
S'part1_correct_attempt'
p273
(lp274
S'0:32:43'
p275
aV13*12
p276
asg9
V2015-10-18 20:07:12
p277
sS'part1_incorrect_attempt'
p278
(lp279
(S'0:00:00'
p280
V9!
p281
tp282
a(S'0:00:18'
p283
V9+8+7+6+5+4+3+2+1
p284
tp285
a(S'0:27:26'
p286
V10*10
p287
tp288
a(S'0:28:20'
p289
V10*9
p290
tp291
a(S'0:29:34'
p292
VC(10,2)
p293
tp294
a(S'0:31:38'
p295
VP(10,2)
p296
tp297
a(S'0:32:16'
p298
VP(14,2)
p299
tp300
a(S'0:32:33'
p301
V14^2
p302
tp303
assVavasavad
p304
(dp305
S'part1_correct_attempt'
p306
(lp307
S'0:01:26'
p308
aV14 * 13
p309
asg9
V2015-10-22 19:25:52
p310
sS'part1_incorrect_attempt'
p311
(lp312
(S'0:00:00'
p313
VC(9,2)
p314
tp315
a(S'0:01:04'
p316
VC(13,2)
p317
tp318
assVbtn023
p319
(dp320
S'part1_correct_attempt'
p321
(lp322
S'0:04:47'
p323
aV12*11
p324
asg9
V2015-10-21 18:06:21
p325
sS'part1_incorrect_attempt'
p326
(lp327
(S'0:00:00'
p328
V8*7
p329
tp330
assVdgunawan
p331
(dp332
S'part1_correct_attempt'
p333
(lp334
S'0:08:14'
p335
aV13* 12
p336
asg9
V2015-10-23 00:44:42
p337
sS'part1_incorrect_attempt'
p338
(lp339
(S'0:00:00'
p340
VC(55, 2)
p341
tp342
assVarvenega
p343
(dp344
S'part1_correct_attempt'
p345
(lp346
S'0:13:38'
p347
aV15*14
p348
asg9
V2015-10-22 21:50:56
p349
sS'part1_incorrect_attempt'
p350
(lp351
(S'0:00:00'
p352
VP(14,2)
p353
tp354
a(S'0:00:00'
p355
VP(16,3)
p356
tp357
assVtcuddy
p358
(dp359
S'part1_correct_attempt'
p360
(lp361
S'0:00:12'
p362
aV12*13
p363
asg9
V2015-10-17 22:31:32
p364
sS'part1_incorrect_attempt'
p365
(lp366
(S'0:00:00'
p367
V13*12*11
p368
tp369
assVl8ngo
p370
(dp371
S'part1_correct_attempt'
p372
(lp373
S'0:03:58'
p374
aV12*11
p375
asg9
V2015-10-22 02:02:07
p376
sS'part1_incorrect_attempt'
p377
(lp378
(S'0:00:00'
p379
V4*9*8
p380
tp381
a(S'0:00:11'
p382
V9*8
p383
tp384
assVdjk006
p385
(dp386
S'part1_correct_attempt'
p387
(lp388
S'0:02:20'
p389
aV12!/(10!)
p390
asg9
V2015-10-21 18:30:42
p391
sS'part1_incorrect_attempt'
p392
(lp393
(S'0:00:00'
p394
V12!/(2!10!)
p395
tp396
assVdsriniva
p397
(dp398
S'part1_correct_attempt'
p399
(lp400
S'0:00:29'
p401
aVP(15, 2)
p402
asg9
V2015-10-22 17:37:17
p403
sS'part1_incorrect_attempt'
p404
(lp405
(S'0:00:00'
p406
VP(7, 2)
p407
tp408
assVabasu
p409
(dp410
S'part1_correct_attempt'
p411
(lp412
S'0:01:51'
p413
aV13*12
p414
asg9
V2015-10-21 00:05:03
p415
sS'part1_incorrect_attempt'
p416
(lp417
(S'0:00:00'
p418
V6 * 5
p419
tp420
a(S'0:00:22'
p421
V10 * 9
p422
tp423
a(S'0:01:03'
p424
V9! 8!
p425
tp426
a(S'0:01:10'
p427
V9!
p428
tp429
a(S'0:01:23'
p430
VC(10,2)
p431
tp432
assVachava
p433
(dp434
S'part1_correct_attempt'
p435
(lp436
S'4:20:29'
p437
aV14*13
p438
asg9
V2015-10-21 17:23:27
p439
sS'part1_incorrect_attempt'
p440
(lp441
(S'0:00:00'
p442
V6!+1
p443
tp444
a(S'0:00:06'
p445
V6!
p446
tp447
a(S'0:03:09'
p448
V6!
p449
tp450
a(S'0:03:46'
p451
VC(6,2)
p452
tp453
assVarc013
p454
(dp455
S'part1_correct_attempt'
p456
(lp457
S'0:01:54'
p458
aV13*12
p459
asg9
V2015-10-21 10:31:08
p460
sS'part1_incorrect_attempt'
p461
(lp462
(S'0:00:00'
p463
VC(10, 2)
p464
tp465
a(S'0:00:21'
p466
V10*9
p467
tp468
assVmitopete
p469
(dp470
S'part1_correct_attempt'
p471
(lp472
S'1:59:03'
p473
aVP(14,2)
p474
asg9
V2015-10-21 23:41:59
p475
sS'part1_incorrect_attempt'
p476
(lp477
(S'0:00:00'
p478
VP(9,2)
p479
tp480
a(S'0:00:00'
p481
VP(15,2)
p482
tp483
assVyos017
p484
(dp485
S'part1_correct_attempt'
p486
(lp487
S'0:01:52'
p488
aV12*11
p489
asg9
V2015-10-21 09:33:38
p490
sS'part1_incorrect_attempt'
p491
(lp492
(S'0:00:00'
p493
V13^2
p494
tp495
assVb3hwang
p496
(dp497
S'part1_correct_attempt'
p498
(lp499
S'0:08:28'
p500
aV1 * 12 * 11
p501
asg9
V2015-10-21 03:35:16
p502
sS'part1_incorrect_attempt'
p503
(lp504
(S'0:00:00'
p505
V1 * 13 * 13
p506
tp507
a(S'0:00:18'
p508
V4 * 13 * 13
p509
tp510
a(S'0:02:41'
p511
V4 * 4* 13 * 4*  13
p512
tp513
assVjag028
p514
(dp515
S'part1_correct_attempt'
p516
(lp517
S'0:01:40'
p518
aV14*13
p519
asg9
V2015-10-22 17:12:21
p520
sS'part1_incorrect_attempt'
p521
(lp522
(S'0:00:00'
p523
V13*12
p524
tp525
assVlguintu
p526
(dp527
S'part1_correct_attempt'
p528
(lp529
S'0:08:21'
p530
aVP(14,2)
p531
asg9
V2015-10-16 07:07:48
p532
sS'part1_incorrect_attempt'
p533
(lp534
(S'0:00:00'
p535
VC(6,3)
p536
tp537
a(S'0:00:29'
p538
VC(8,6)
p539
tp540
a(S'0:01:03'
p541
VC(8,7)
p542
tp543
a(S'0:01:23'
p544
VC(7,2)
p545
tp546
a(S'0:01:54'
p547
V7+6+5+4+3+2+1
p548
tp549
a(S'0:03:38'
p550
VP(8,2)
p551
tp552
a(S'0:04:03'
p553
VP(7,2)
p554
tp555
a(S'0:04:57'
p556
VP(8,2)
p557
tp558
a(S'0:05:13'
p559
V7+6+5+4+3+2
p560
tp561
assVjjchung
p562
(dp563
S'part1_correct_attempt'
p564
(lp565
S'0:00:06'
p566
aVP(13,2)
p567
asg9
V2015-10-21 02:54:26
p568
sS'part1_incorrect_attempt'
p569
(lp570
(S'0:00:00'
p571
VP(35,2)
p572
tp573
assVabjara
p574
(dp575
S'part1_correct_attempt'
p576
(lp577
S'0:05:06'
p578
aVC(15,1)*C(14,1)
p579
asg9
V2015-10-21 22:27:00
p580
sS'part1_incorrect_attempt'
p581
(lp582
(S'0:00:00'
p583
VC(16,7)
p584
tp585
a(S'0:00:00'
p586
VC(16,7)/C(16,1)
p587
tp588
a(S'0:00:31'
p589
VC(7,2)
p590
tp591
assVkrau
p592
(dp593
S'part1_correct_attempt'
p594
(lp595
S'0:00:19'
p596
aVP(12,2)
p597
asg9
V2015-10-21 04:22:16
p598
sS'part1_incorrect_attempt'
p599
(lp600
(S'0:00:00'
p601
V11*10
p602
tp603
assVkthui
p604
(dp605
S'part1_correct_attempt'
p606
(lp607
S'0:03:40'
p608
aV14*13
p609
asg9
V2015-10-18 09:31:28
p610
sS'part1_incorrect_attempt'
p611
(lp612
(S'0:00:00'
p613
V12!
p614
tp615
a(S'0:00:29'
p616
V12+11+10+9+8+7+6+5+4+3+2+1
p617
tp618
a(S'0:00:57'
p619
V11+10+9+8+7+6+5+4+3+2+1
p620
tp621
a(S'0:02:05'
p622
V12+11+10+9+8+7+6+5+4+3+2+1
p623
tp624
a(S'0:03:03'
p625
V12*11/2
p626
tp627
a(S'0:03:08'
p628
V12*11
p629
tp630
a(S'0:03:13'
p631
V12*11*2
p632
tp633
assValhung
p634
(dp635
S'part1_correct_attempt'
p636
(lp637
S'0:00:15'
p638
aV13*12
p639
asg9
V2015-10-22 19:24:00
p640
sS'part1_incorrect_attempt'
p641
(lp642
(S'0:00:00'
p643
V12*11
p644
tp645
assVbeyounge
p646
(dp647
S'part1_correct_attempt'
p648
(lp649
S'0:00:43'
p650
aVP(15,2)
p651
asg9
V2015-10-17 06:36:04
p652
sS'part1_incorrect_attempt'
p653
(lp654
(S'0:00:00'
p655
VC(11,2)
p656
tp657
assVtpmach
p658
(dp659
S'part1_correct_attempt'
p660
(lp661
S'4:48:47'
p662
aV15*14
p663
asg9
V2015-10-21 22:20:27
p664
sS'part1_incorrect_attempt'
p665
(lp666
(S'0:00:00'
p667
V13*12
p668
tp669
a(S'0:01:38'
p670
VP(13,2)
p671
tp672
a(S'0:01:56'
p673
VC(13,2)
p674
tp675
a(S'0:00:00'
p676
VP(13,2)
p677
tp678
a(S'0:00:00'
p679
VC(13,2)
p680
tp681
a(S'0:00:00'
p682
V13*12
p683
tp684
assVdsmonaha
p685
(dp686
S'part1_correct_attempt'
p687
(lp688
S'4:06:38'
p689
aVC(12,1)C(11,1)
p690
asg9
V2015-10-21 20:05:33
p691
sS'part1_incorrect_attempt'
p692
(lp693
(S'0:00:00'
p694
VC(6,2)
p695
tp696
a(S'0:00:06'
p697
VC(7,2)
p698
tp699
a(S'0:00:35'
p700
VP(7,2)
p701
tp702
assVjel075
p703
(dp704
S'part1_correct_attempt'
p705
(lp706
S'0:12:19'
p707
aVP(15,2)
p708
asg9
V2015-10-21 23:31:03
p709
sS'part1_incorrect_attempt'
p710
(lp711
(S'0:00:00'
p712
V8+C(8,1)+C(7,1)+C(6,1)+C(5,1)+C(4,1)+C(3,1)+C(2,1)
p713
tp714
a(S'0:00:00'
p715
V8+C(8,1)+C(7,1)+C(6,1)+C(5,1)+C(4,1)+C(3,1)+C(2,1)+C(1,1)
p716
tp717
a(S'0:00:16'
p718
VC(8,1)+C(7,1)+C(6,1)+C(5,1)+C(4,1)+C(3,1)+C(2,1)+C(1,1)
p719
tp720
a(S'0:00:00'
p721
V8!
p722
tp723
a(S'0:00:08'
p724
V8+7+6+5+4+3+2+1
p725
tp726
assVedescobe
p727
(dp728
S'part1_correct_attempt'
p729
(lp730
S'0:09:20'
p731
aV210
p732
asg9
V2015-10-18 11:46:59
p733
sS'part1_incorrect_attempt'
p734
(lp735
(S'0:00:00'
p736
V9+8+7+6+5+4+3+2+1
p737
tp738
a(S'0:06:06'
p739
V9+8+7+6+5+4+3+2+1
p740
tp741
a(S'0:08:22'
p742
VC(10,2)
p743
tp744
assVbakang
p745
(dp746
S'part1_correct_attempt'
p747
(lp748
S'0:02:24'
p749
aV14*13
p750
asg9
V2015-10-22 07:44:29
p751
sS'part1_incorrect_attempt'
p752
(lp753
(S'0:00:00'
p754
VC(8,2)+C(6,2)+8*6
p755
tp756
assVmuy002
p757
(dp758
S'part1_correct_attempt'
p759
(lp760
S'0:02:24'
p761
aV13*12
p762
asg9
V2015-10-22 21:25:56
p763
sS'part1_incorrect_attempt'
p764
(lp765
(S'0:00:00'
p766
VC(9,2)
p767
tp768
a(S'0:02:12'
p769
V14*13
p770
tp771
assVjtfrankl
p772
(dp773
S'part1_correct_attempt'
p774
(lp775
S'0:00:29'
p776
aV12*11
p777
asg9
V2015-10-21 00:27:04
p778
sS'part1_incorrect_attempt'
p779
(lp780
(S'0:00:00'
p781
V4+3+2+1
p782
tp783
assVcstringh
p784
(dp785
S'part1_correct_attempt'
p786
(lp787
S'0:24:29'
p788
aV12 * 11
p789
asg9
V2015-10-22 00:37:17
p790
sS'part1_incorrect_attempt'
p791
(lp792
(S'0:00:00'
p793
V12*11*10
p794
tp795
assVrbdoming
p796
(dp797
S'part1_correct_attempt'
p798
(lp799
S'3 days, 3:14:48'
p800
aV12*11
p801
asg9
V2015-10-18 01:45:23
p802
sS'part1_incorrect_attempt'
p803
(lp804
(S'0:00:00'
p805
VC(13,10)
p806
tp807
a(S'0:01:24'
p808
V10+9+8+7+6+5+4+3+2+1
p809
tp810
a(S'0:01:52'
p811
VC(10,2)
p812
tp813
a(S'0:05:51'
p814
V9+8+7+6+5+4+3+2+1
p815
tp816
a(S'0:06:18'
p817
VC(10,2)
p818
tp819
a(S'0:00:00'
p820
VC(9,2)
p821
tp822
a(S'0:00:14'
p823
VC(10,2)
p824
tp825
assVqfu
p826
(dp827
S'part1_correct_attempt'
p828
(lp829
S'0:03:56'
p830
aV12*11
p831
asg9
V2015-10-16 03:26:10
p832
sS'part1_incorrect_attempt'
p833
(lp834
(S'0:00:00'
p835
V11*5
p836
tp837
assVhsc052
p838
(dp839
S'part1_correct_attempt'
p840
(lp841
S'0:02:07'
p842
aVP(13,2)
p843
asg9
V2015-10-22 06:23:05
p844
sS'part1_incorrect_attempt'
p845
(lp846
(S'0:00:00'
p847
VC(11,2)
p848
tp849
assVdac064
p850
(dp851
S'part1_correct_attempt'
p852
(lp853
S'0:02:41'
p854
aV15*14
p855
asg9
V2015-10-22 21:08:08
p856
sS'part1_incorrect_attempt'
p857
(lp858
(S'0:00:00'
p859
V7+6+5+4+3+2+1
p860
tp861
assVyil035
p862
(dp863
S'part1_correct_attempt'
p864
(lp865
S'0:01:31'
p866
aV12*11
p867
asg9
V2015-10-21 00:10:35
p868
sS'part1_incorrect_attempt'
p869
(lp870
(S'0:00:00'
p871
V8+7+6+5+4+3+2+1
p872
tp873
assVsghouse
p874
(dp875
S'part1_correct_attempt'
p876
(lp877
S'20:23:59'
p878
aV(14*13)
p879
asg9
V2015-10-21 03:08:51
p880
sS'part1_incorrect_attempt'
p881
(lp882
(S'0:00:00'
p883
V10!
p884
tp885
a(S'0:00:00'
p886
VC(10, 3)
p887
tp888
a(S'0:00:23'
p889
VC(11, 3)
p890
tp891
a(S'0:00:47'
p892
VC(10,2)
p893
tp894
a(S'0:01:02'
p895
VC(11,2)
p896
tp897
assVk3tan
p898
(dp899
S'part1_correct_attempt'
p900
(lp901
S'0:20:01'
p902
aV15*14
p903
asg9
V2015-10-22 21:52:07
p904
sS'part1_incorrect_attempt'
p905
(lp906
(S'0:00:00'
p907
V12*11
p908
tp909
assVjyc018
p910
(dp911
S'part1_correct_attempt'
p912
(lp913
S'0:39:09'
p914
aVC(15,2) * 2
p915
asg9
V2015-10-22 22:57:44
p916
sS'part1_incorrect_attempt'
p917
(lp918
(S'0:00:00'
p919
V13*12
p920
tp921
a(S'0:00:22'
p922
V12*11
p923
tp924
a(S'0:00:00'
p925
V12+11+10+9+8+7+6+5+4+3+2+1
p926
tp927
assVctroncos
p928
(dp929
S'part1_correct_attempt'
p930
(lp931
S'0:00:09'
p932
aV(15 -2) * (15-1)
p933
asg9
V2015-10-22 17:13:05
p934
sS'part1_incorrect_attempt'
p935
(lp936
(S'0:00:00'
p937
V(15) * (15-1)
p938
tp939
assVlywong
p940
(dp941
S'part1_correct_attempt'
p942
(lp943
S'15:35:00'
p944
aV(14)(13)
p945
asg9
V2015-10-21 07:57:11
p946
sS'part1_incorrect_attempt'
p947
(lp948
(S'0:00:00'
p949
VC(15,3)
p950
tp951
assVkebao
p952
(dp953
S'part1_correct_attempt'
p954
(lp955
S'0:01:12'
p956
aV11*12
p957
asg9
V2015-10-22 03:08:42
p958
sS'part1_incorrect_attempt'
p959
(lp960
(S'0:00:00'
p961
V13*12
p962
tp963
assVhkhodada
p964
(dp965
S'part1_correct_attempt'
p966
(lp967
S'0:02:08'
p968
aV13*12
p969
asg9
V2015-10-21 02:18:40
p970
sS'part1_incorrect_attempt'
p971
(lp972
(S'0:00:00'
p973
V14*13
p974
tp975
assVnisharma
p976
(dp977
S'part1_correct_attempt'
p978
(lp979
S'0:00:34'
p980
aV12*11
p981
asg9
V2015-10-22 15:00:34
p982
sS'part1_incorrect_attempt'
p983
(lp984
(S'0:00:00'
p985
V14*13
p986
tp987
assVglcohen
p988
(dp989
S'part1_correct_attempt'
p990
(lp991
S'0:01:07'
p992
aV14*13
p993
asg9
V2015-10-18 01:15:48
p994
sS'part1_incorrect_attempt'
p995
(lp996
(S'0:00:00'
p997
VC(13,2)
p998
tp999
assVacvuong
p1000
(dp1001
S'part1_correct_attempt'
p1002
(lp1003
S'23:21:51'
p1004
aV13*12
p1005
asg9
V2015-10-20 16:39:32
p1006
sS'part1_incorrect_attempt'
p1007
(lp1008
(S'0:00:00'
p1009
VC(8,2)
p1010
tp1011
a(S'0:14:34'
p1012
VC(14,3)
p1013
tp1014
assVd6he
p1015
(dp1016
S'part1_correct_attempt'
p1017
(lp1018
S'0:00:58'
p1019
aV15*14
p1020
asg9
V2015-10-22 22:17:06
p1021
sS'part1_incorrect_attempt'
p1022
(lp1023
(S'0:00:00'
p1024
V13*12
p1025
tp1026
assVsachadal
p1027
(dp1028
S'part1_correct_attempt'
p1029
(lp1030
S'0:10:53'
p1031
aV13*12
p1032
asg9
V2015-10-22 17:15:53
p1033
sS'part1_incorrect_attempt'
p1034
(lp1035
(S'0:00:00'
p1036
V8*7
p1037
tp1038
assVawollner
p1039
(dp1040
S'part1_correct_attempt'
p1041
(lp1042
S'0:02:06'
p1043
aV12!/10!
p1044
asg9
V2015-10-21 18:15:12
p1045
sS'part1_incorrect_attempt'
p1046
(lp1047
(S'0:00:00'
p1048
V3+2+1
p1049
tp1050
assVdcrume
p1051
(dp1052
S'part1_correct_attempt'
p1053
(lp1054
S'20:57:41'
p1055
aV15*14
p1056
asg9
V2015-10-21 20:10:03
p1057
sS'part1_incorrect_attempt'
p1058
(lp1059
(S'0:00:00'
p1060
V16*15
p1061
tp1062
assVmrchin
p1063
(dp1064
S'part1_correct_attempt'
p1065
(lp1066
S'0:00:32'
p1067
aV12*11
p1068
asg9
V2015-10-22 18:49:55
p1069
sS'part1_incorrect_attempt'
p1070
(lp1071
(S'0:00:00'
p1072
V15*14
p1073
tp1074
assVmbl003
p1075
(dp1076
S'part1_correct_attempt'
p1077
(lp1078
S'0:08:30'
p1079
aV15*14
p1080
asg9
V2015-10-21 20:07:05
p1081
sS'part1_incorrect_attempt'
p1082
(lp1083
(S'0:00:00'
p1084
V6+7+8+9+10+11+12+13+14+15+16
p1085
tp1086
a(S'0:02:55'
p1087
V9+8+7+6+5+4+3+2+1
p1088
tp1089
a(S'0:00:00'
p1090
V16*15
p1091
tp1092
assVn2patil
p1093
(dp1094
S'part1_correct_attempt'
p1095
(lp1096
S'0:36:57'
p1097
aV12*11
p1098
asg9
V2015-10-21 22:40:17
p1099
sS'part1_incorrect_attempt'
p1100
(lp1101
(S'0:00:00'
p1102
VC(10,2)
p1103
tp1104
a(S'0:00:06'
p1105
VP(10,2)
p1106
tp1107
a(S'0:35:46'
p1108
V14*13
p1109
tp1110
a(S'0:36:13'
p1111
V13*12
p1112
tp1113
assVjblynch
p1114
(dp1115
S'part1_correct_attempt'
p1116
(lp1117
S'0:27:25'
p1118
aV13*12
p1119
asg9
V2015-10-21 05:54:49
p1120
sS'part1_incorrect_attempt'
p1121
(lp1122
(S'0:00:00'
p1123
V4(10+9+8+7+6+5+4+3+2+1)
p1124
tp1125
a(S'0:00:18'
p1126
V10+9+8+7+6+5+4+3+2+1
p1127
tp1128
assVnnh002
p1129
(dp1130
S'part1_correct_attempt'
p1131
(lp1132
S'0:01:42'
p1133
aV14*13
p1134
asg9
V2015-10-22 04:43:58
p1135
sS'part1_incorrect_attempt'
p1136
(lp1137
(S'0:00:00'
p1138
V10+9+8+7+6+5+4+3+2+1
p1139
tp1140
assVakhmelni
p1141
(dp1142
S'part1_correct_attempt'
p1143
(lp1144
S'0:00:37'
p1145
aV13*12
p1146
asg9
V2015-10-22 22:34:40
p1147
sS'part1_incorrect_attempt'
p1148
(lp1149
(S'0:00:00'
p1150
V14*13
p1151
tp1152
a(S'0:00:16'
p1153
V15*14
p1154
tp1155
assVtol003
p1156
(dp1157
S'part1_correct_attempt'
p1158
(lp1159
S'0:03:15'
p1160
aV13*12
p1161
asg9
V2015-10-21 00:48:47
p1162
sS'part1_incorrect_attempt'
p1163
(lp1164
(S'0:00:00'
p1165
VC(13,2)-C(11,2)
p1166
tp1167
assVskodigal
p1168
(dp1169
S'part1_correct_attempt'
p1170
(lp1171
S'0:00:51'
p1172
aV12*11
p1173
asg9
V2015-10-22 01:36:13
p1174
sS'part1_incorrect_attempt'
p1175
(lp1176
(S'0:00:00'
p1177
V14*13
p1178
tp1179
assVhachrist
p1180
(dp1181
S'part1_correct_attempt'
p1182
(lp1183
S'8:02:28'
p1184
aV13*12
p1185
asg9
V2015-10-21 22:27:01
p1186
sS'part1_incorrect_attempt'
p1187
(lp1188
(S'0:00:00'
p1189
VC(14,3) - C(12,3)
p1190
tp1191
a(S'0:00:00'
p1192
VC(12,3)
p1193
tp1194
a(S'0:00:00'
p1195
VC(14,3)
p1196
tp1197
a(S'0:00:00'
p1198
VC(14,3)
p1199
tp1200
assVkew017
p1201
(dp1202
S'part1_correct_attempt'
p1203
(lp1204
S'0:01:40'
p1205
aVP(14,2)
p1206
asg9
V2015-10-22 20:51:13
p1207
sS'part1_incorrect_attempt'
p1208
(lp1209
(S'0:00:00'
p1210
VC(11,2)
p1211
tp1212
a(S'0:00:23'
p1213
VP(11,2)
p1214
tp1215
assVc1sorian
p1216
(dp1217
S'part1_correct_attempt'
p1218
(lp1219
S'0:17:21'
p1220
aV12*11
p1221
asg9
V2015-10-21 21:56:05
p1222
sS'part1_incorrect_attempt'
p1223
(lp1224
(S'0:00:00'
p1225
VC(12,2)-C(6,2)
p1226
tp1227
a(S'0:00:59'
p1228
VC(13,3)
p1229
tp1230
a(S'0:13:07'
p1231
VC(13,3)-C(12,3)
p1232
tp1233
assVcsl030
p1234
(dp1235
S'part1_correct_attempt'
p1236
(lp1237
S'0:09:10'
p1238
aV12*13
p1239
asg9
V2015-10-22 04:31:31
p1240
sS'part1_incorrect_attempt'
p1241
(lp1242
(S'0:00:00'
p1243
V14 * 14
p1244
tp1245
a(S'0:09:01'
p1246
V14*13
p1247
tp1248
assVyhhan
p1249
(dp1250
S'part1_correct_attempt'
p1251
(lp1252
S'0:03:37'
p1253
aV15*14
p1254
asg9
V2015-10-22 23:27:46
p1255
sS'part1_incorrect_attempt'
p1256
(lp1257
(S'0:00:00'
p1258
V8*7
p1259
tp1260
a(S'0:00:42'
p1261
V8+7+6+5+4+3+2+1
p1262
tp1263
a(S'0:00:48'
p1264
V8+7+6+5+4+3+2
p1265
tp1266
a(S'0:02:32'
p1267
VC(9,2)
p1268
tp1269
a(S'0:03:17'
p1270
V9*8
p1271
tp1272
a(S'0:03:23'
p1273
V8*7
p1274
tp1275
assVatorr
p1276
(dp1277
S'part1_correct_attempt'
p1278
(lp1279
S'0:01:22'
p1280
aV1 * 13 * 12
p1281
asg9
V2015-10-22 23:00:51
p1282
sS'part1_incorrect_attempt'
p1283
(lp1284
(S'0:00:00'
p1285
V1* 10 * 9
p1286
tp1287
a(S'0:00:24'
p1288
V1* 9 * 8
p1289
tp1290
a(S'0:00:40'
p1291
V1 * 9 * 9
p1292
tp1293
assVcagatep
p1294
(dp1295
S'part1_correct_attempt'
p1296
(lp1297
S'0:03:10'
p1298
aV13*12
p1299
asg9
V2015-10-22 21:36:28
p1300
sS'part1_incorrect_attempt'
p1301
(lp1302
(S'0:00:00'
p1303
VC(11, 2)
p1304
tp1305
assVtjke
p1306
(dp1307
S'part1_correct_attempt'
p1308
(lp1309
S'0:02:47'
p1310
aVP(12,2)
p1311
asg9
V2015-10-18 04:47:11
p1312
sS'part1_incorrect_attempt'
p1313
(lp1314
(S'0:00:00'
p1315
VP(11,2)
p1316
tp1317
a(S'0:00:34'
p1318
VC(11,2)
p1319
tp1320
a(S'0:01:41'
p1321
VP(11,2)
p1322
tp1323
assVmasaro
p1324
(dp1325
S'part1_correct_attempt'
p1326
(lp1327
S'3:20:17'
p1328
aV156
p1329
asg9
V2015-10-20 17:41:57
p1330
sS'part1_incorrect_attempt'
p1331
(lp1332
(S'0:00:00'
p1333
V12*11
p1334
tp1335
assVt2shin
p1336
(dp1337
S'part1_correct_attempt'
p1338
(lp1339
S'0:02:05'
p1340
aV14*13
p1341
asg9
V2015-10-22 23:39:58
p1342
sS'part1_incorrect_attempt'
p1343
(lp1344
(S'0:00:00'
p1345
V7*6
p1346
tp1347
a(S'0:01:43'
p1348
V6+5+4+3+2+1
p1349
tp1350
a(S'0:01:49'
p1351
V6+5+4+3+2
p1352
tp1353
assVvsamant
p1354
(dp1355
S'part1_correct_attempt'
p1356
(lp1357
S'0:01:36'
p1358
aV12*11
p1359
asg9
V2015-10-21 19:33:28
p1360
sS'part1_incorrect_attempt'
p1361
(lp1362
(S'0:00:00'
p1363
V11*10*9
p1364
tp1365
a(S'0:01:03'
p1366
V12*11*9
p1367
tp1368
a(S'0:01:10'
p1369
V12*11*10
p1370
tp1371
assVspw006
p1372
(dp1373
S'part1_correct_attempt'
p1374
(lp1375
S'0:01:56'
p1376
aV12*11
p1377
asg9
V2015-10-20 21:48:57
p1378
sS'part1_incorrect_attempt'
p1379
(lp1380
(S'0:00:00'
p1381
V6+5+4+3+2+1
p1382
tp1383
a(S'0:01:44'
p1384
V13*13
p1385
tp1386
assVany027
p1387
(dp1388
S'part1_correct_attempt'
p1389
(lp1390
S'0:01:24'
p1391
aVP(15,2)
p1392
asg9
V2015-10-19 20:49:33
p1393
sS'part1_incorrect_attempt'
p1394
(lp1395
(S'0:00:00'
p1396
VP(12,2)
p1397
tp1398
assVjdeon
p1399
(dp1400
S'part1_correct_attempt'
p1401
(lp1402
S'0:07:03'
p1403
aV15*14
p1404
asg9
V2015-10-22 05:08:10
p1405
sS'part1_incorrect_attempt'
p1406
(lp1407
(S'0:00:00'
p1408
V8+7+6+5+4+3+2+1
p1409
tp1410
a(S'0:00:50'
p1411
V9+8+7+6+5+4+3+2+1
p1412
tp1413
assVs2chaudh
p1414
(dp1415
S'part1_correct_attempt'
p1416
(lp1417
S'0:01:23'
p1418
aV15*14
p1419
asg9
V2015-10-22 03:08:10
p1420
sS'part1_incorrect_attempt'
p1421
(lp1422
(S'0:00:00'
p1423
VC(13,2)
p1424
tp1425
a(S'0:00:00'
p1426
V16*15
p1427
tp1428
assVj6quach
p1429
(dp1430
S'part1_correct_attempt'
p1431
(lp1432
S'0:00:29'
p1433
aV14*13
p1434
asg9
V2015-10-22 18:34:02
p1435
sS'part1_incorrect_attempt'
p1436
(lp1437
(S'0:00:00'
p1438
V11*10
p1439
tp1440
assVgsrandha
p1441
(dp1442
S'part1_correct_attempt'
p1443
(lp1444
S'2 days, 22:07:23'
p1445
aV12*11
p1446
asg9
V2015-10-16 01:55:18
p1447
sS'part1_incorrect_attempt'
p1448
(lp1449
(S'0:00:00'
p1450
V1*13*12
p1451
tp1452
assVdcgriffi
p1453
(dp1454
S'part1_correct_attempt'
p1455
(lp1456
S'2:11:23'
p1457
aV15*14
p1458
asg9
V2015-10-21 02:17:37
p1459
sS'part1_incorrect_attempt'
p1460
(lp1461
(S'0:00:00'
p1462
V7!
p1463
tp1464
a(S'0:00:46'
p1465
V7+6+5+4+3+2+1
p1466
tp1467
a(S'0:00:00'
p1468
V16*16
p1469
tp1470
assVrsmurlo
p1471
(dp1472
S'part1_correct_attempt'
p1473
(lp1474
S'0:04:45'
p1475
aVC(12,2)*2
p1476
asg9
V2015-10-21 23:31:31
p1477
sS'part1_incorrect_attempt'
p1478
(lp1479
(S'0:00:00'
p1480
VC(10,2)
p1481
tp1482
a(S'0:00:00'
p1483
V9+8+7+6+5+4+3+2+1
p1484
tp1485
assVdkostins
p1486
(dp1487
S'part1_correct_attempt'
p1488
(lp1489
S'0:00:55'
p1490
aV13*12
p1491
asg9
V2015-10-22 00:37:38
p1492
sS'part1_incorrect_attempt'
p1493
(lp1494
(S'0:00:00'
p1495
V14*13
p1496
tp1497
assVagarango
p1498
(dp1499
S'part1_correct_attempt'
p1500
(lp1501
S'0:06:40'
p1502
aV12*11
p1503
asg9
V2015-10-22 19:32:55
p1504
sS'part1_incorrect_attempt'
p1505
(lp1506
(S'0:00:00'
p1507
V13!
p1508
tp1509
a(S'0:04:44'
p1510
V8*7
p1511
tp1512
a(S'0:04:53'
p1513
V5*8*7
p1514
tp1515
assVtwsalim
p1516
(dp1517
S'part1_correct_attempt'
p1518
(lp1519
S'0:01:57'
p1520
aVP(13, 2)
p1521
asg9
V2015-10-20 18:32:12
p1522
sS'part1_incorrect_attempt'
p1523
(lp1524
(S'0:00:00'
p1525
VC(14 - 5, 2)
p1526
tp1527
a(S'0:00:20'
p1528
VC(9, 2)
p1529
tp1530
assVmsaguiar
p1531
(dp1532
S'part1_correct_attempt'
p1533
(lp1534
S'0:04:39'
p1535
aV14*13
p1536
asg9
V2015-10-22 03:38:20
p1537
sS'part1_incorrect_attempt'
p1538
(lp1539
(S'0:00:00'
p1540
V6*5
p1541
tp1542
assVk5law
p1543
(dp1544
S'part1_correct_attempt'
p1545
(lp1546
S'12:22:09'
p1547
aV13!/(11!)
p1548
asg9
V2015-10-19 08:00:39
p1549
sS'part1_incorrect_attempt'
p1550
(lp1551
(S'0:00:00'
p1552
V11+10+9+8+7+8+7+6+5+4+3
p1553
tp1554
a(S'0:06:14'
p1555
V(12*14)+(11*14)+(10*14)+(9*14)+(8*14)+(7*14)+(6*14)+(5*14)+(4*14)+(3*14)+(2*14)+(1*14)
p1556
tp1557
a(S'0:06:28'
p1558
V(12*14)+(11*14)+(10*14)+(9*14)+(8*14)+(7*14)+(6*14)+(5*14)+(4*14)+(3*14)+(2*14)
p1559
tp1560
a(S'0:06:34'
p1561
V(12*14)+(11*14)+(10*14)+(9*14)+(8*14)+(7*14)+(6*14)+(5*14)+(4*14)+(3*14)
p1562
tp1563
a(S'12:07:37'
p1564
V12*11
p1565
tp1566
a(S'12:12:39'
p1567
V11+10+9+8+7+8+7+6+5+4+3
p1568
tp1569
a(S'12:13:07'
p1570
V11+10+9+8+7+8+7+6+5+4+3+2+1
p1571
tp1572
a(S'12:13:34'
p1573
V13+12+11+10+9+8+7+8+7+6+5+4+3+2+1
p1574
tp1575
a(S'12:13:45'
p1576
V12+11+10+9+8+7+8+7+6+5+4+3+2+1
p1577
tp1578
assVajabasa
p1579
(dp1580
S'part1_correct_attempt'
p1581
(lp1582
S'0:01:06'
p1583
aV13*14
p1584
asg9
V2015-10-22 06:45:22
p1585
sS'part1_incorrect_attempt'
p1586
(lp1587
(S'0:00:00'
p1588
V15!/12!
p1589
tp1590
assVjnn015
p1591
(dp1592
S'part1_correct_attempt'
p1593
(lp1594
S'0:12:54'
p1595
aVP(13, 2)
p1596
asg9
V2015-10-22 23:31:17
p1597
sS'part1_incorrect_attempt'
p1598
(lp1599
(S'0:00:00'
p1600
V6*5 + 5*4 + 4*3 + 3*2 + 2
p1601
tp1602
a(S'0:01:00'
p1603
V5 + 4 + 3 + 2 + 1
p1604
tp1605
assVedcole
p1606
(dp1607
S'part1_correct_attempt'
p1608
(lp1609
S'0:02:54'
p1610
aV12*11
p1611
asg9
V2015-10-21 18:13:58
p1612
sS'part1_incorrect_attempt'
p1613
(lp1614
(S'0:00:00'
p1615
VC(12, 2) + 1
p1616
tp1617
a(S'0:00:00'
p1618
VC(11, 2)
p1619
tp1620
assVaordookh
p1621
(dp1622
S'part1_correct_attempt'
p1623
(lp1624
S'0:02:17'
p1625
aV13*12
p1626
asg9
V2015-10-22 06:20:25
p1627
sS'part1_incorrect_attempt'
p1628
(lp1629
(S'0:00:00'
p1630
VC(6,2)
p1631
tp1632
assVkquong
p1633
(dp1634
S'part1_correct_attempt'
p1635
(lp1636
S'0:09:58'
p1637
aV15*14
p1638
asg9
V2015-10-18 05:32:37
p1639
sS'part1_incorrect_attempt'
p1640
(lp1641
(S'0:00:00'
p1642
V8 * 7 * 6
p1643
tp1644
a(S'0:05:56'
p1645
V7 + 6 + 5 + 4 + 3+ 2+ 1
p1646
tp1647
assVvasharma
p1648
(dp1649
S'part1_correct_attempt'
p1650
(lp1651
S'0:00:31'
p1652
aV13*12
p1653
asg9
V2015-10-21 23:28:59
p1654
sS'part1_incorrect_attempt'
p1655
(lp1656
(S'0:00:00'
p1657
V9*8
p1658
tp1659
assVsyip
p1660
(dp1661
S'part1_correct_attempt'
p1662
(lp1663
S'0:00:33'
p1664
aV14*13
p1665
asg9
V2015-10-18 22:27:02
p1666
sS'part1_incorrect_attempt'
p1667
(lp1668
(S'0:00:00'
p1669
V9*8
p1670
tp1671
assVyypan
p1672
(dp1673
S'part1_correct_attempt'
p1674
(lp1675
S'0:03:18'
p1676
aV14*13
p1677
asg9
V2015-10-22 00:20:56
p1678
sS'part1_incorrect_attempt'
p1679
(lp1680
(S'0:00:00'
p1681
V7*6
p1682
tp1683
a(S'0:02:49'
p1684
V7*7
p1685
tp1686
assVajvanega
p1687
(dp1688
S'part1_correct_attempt'
p1689
(lp1690
S'0:01:53'
p1691
aVP(15,2)
p1692
asg9
V2015-10-22 17:21:17
p1693
sS'part1_incorrect_attempt'
p1694
(lp1695
(S'0:00:00'
p1696
V3!
p1697
tp1698
a(S'0:01:44'
p1699
VP(14,2)
p1700
tp1701
assVzhw110
p1702
(dp1703
S'part1_correct_attempt'
p1704
(lp1705
S'0:10:22'
p1706
aV13*12
p1707
asg9
V2015-10-22 17:14:45
p1708
sS'part1_incorrect_attempt'
p1709
(lp1710
(S'0:00:00'
p1711
V6*13
p1712
tp1713
assVmtrafeca
p1714
(dp1715
S'part1_correct_attempt'
p1716
(lp1717
S'1 day, 13:04:46'
p1718
aV14*13
p1719
asg9
V2015-10-21 07:57:40
p1720
sS'part1_incorrect_attempt'
p1721
(lp1722
(S'0:00:00'
p1723
V1+2+3+4+5+6+7+8+9+10+11+12+13+14+15
p1724
tp1725
a(S'0:14:38'
p1726
V7+8+9+10+11+12+13+14+15
p1727
tp1728
a(S'0:14:45'
p1729
V8+9+10+11+12+13+14+15
p1730
tp1731
a(S'0:15:28'
p1732
VC(8,3)
p1733
tp1734
a(S'0:15:34'
p1735
VC(9,3)
p1736
tp1737
a(S'0:15:42'
p1738
VC(7,3)
p1739
tp1740
a(S'0:15:52'
p1741
VC(7,2)
p1742
tp1743
a(S'0:19:28'
p1744
V7+8+9
p1745
tp1746
a(S'0:20:26'
p1747
V15!/7!
p1748
tp1749
a(S'0:20:33'
p1750
V15!/8!
p1751
tp1752
a(S'0:20:45'
p1753
V15!/6!
p1754
tp1755
a(S'0:26:57'
p1756
VC(8,2)
p1757
tp1758
a(S'0:27:10'
p1759
VC(8,2)+7
p1760
tp1761
asssV3
p1762
(dp1763
Vb3hwang
p1764
(dp1765
S'part3_correct_attempt'
p1766
(lp1767
S'0:02:28'
p1768
aV(9(10))/2
p1769
asS'part2_correct_attempt'
p1770
(lp1771
S'0:01:19'
p1772
aV1
p1773
asS'part1_correct_attempt'
p1774
(lp1775
S'0:00:00'
p1776
ag501
asg9
V2015-10-21 03:43:44
p1777
sS'part3_incorrect_attempt'
p1778
(lp1779
(S'0:02:19'
p1780
V(8(9))/2
p1781
tp1782
assVfichoi
p1783
(dp1784
S'part3_correct_attempt'
p1785
(lp1786
S'0:29:13'
p1787
aV21
p1788
asS'part2_correct_attempt'
p1789
(lp1790
S'0:05:36'
p1791
aV2
p1792
asS'part1_correct_attempt'
p1793
(lp1794
S'0:00:00'
p1795
aVP(14,2)
p1796
asg9
V2015-10-22 05:35:44
p1797
sS'part3_incorrect_attempt'
p1798
(lp1799
(S'0:14:56'
p1800
VP(15,3)
p1801
tp1802
a(S'0:23:54'
p1803
VP(15,8)
p1804
tp1805
a(S'0:25:59'
p1806
VC(15,6)
p1807
tp1808
a(S'0:26:11'
p1809
VP(15,6)
p1810
tp1811
assVapokhare
p1812
(dp1813
S'part3_correct_attempt'
p1814
(lp1815
S'0:37:42'
p1816
aV(6*5)/2
p1817
asS'part2_correct_attempt'
p1818
(lp1819
S'0:03:18'
p1820
aV5
p1821
asS'part1_correct_attempt'
p1822
(lp1823
S'0:00:00'
p1824
aV12*11
p1825
asg9
V2015-10-21 18:19:19
p1826
sS'part3_incorrect_attempt'
p1827
(lp1828
(S'0:03:18'
p1829
V4*(5/2)
p1830
tp1831
assVjag028
p1832
(dp1833
S'part3_correct_attempt'
p1834
(lp1835
S'0:03:05'
p1836
aV1+2+3+4+5
p1837
asS'part2_correct_attempt'
p1838
(lp1839
S'0:00:45'
p1840
aV2
p1841
asS'part1_correct_attempt'
p1842
(lp1843
S'0:00:00'
p1844
ag519
asg9
V2015-10-22 17:14:01
p1845
sS'part3_incorrect_attempt'
p1846
(lp1847
(S'0:01:34'
p1848
V1+2+3+4+5+6+7+8
p1849
tp1850
a(S'0:01:51'
p1851
V1+2+3+4+5+6+7+8+9
p1852
tp1853
a(S'0:03:00'
p1854
V1+2+3+4+5+6
p1855
tp1856
assVctroncos
p1857
(dp1858
S'part3_correct_attempt'
p1859
(lp1860
S'0:03:16'
p1861
aV(15-9)*(15-9-1)/2
p1862
asS'part2_correct_attempt'
p1863
(lp1864
S'0:01:53'
p1865
aV12 - 9 -1
p1866
asS'part1_correct_attempt'
p1867
(lp1868
S'0:00:00'
p1869
ag933
asg9
V2015-10-22 17:13:14
p1870
sS'part3_incorrect_attempt'
p1871
(lp1872
(S'0:02:14'
p1873
V15 - 12
p1874
tp1875
assVt2shin
p1876
(dp1877
S'part3_correct_attempt'
p1878
(lp1879
S'0:04:04'
p1880
aV1+2+3+4+5+6
p1881
asS'part2_correct_attempt'
p1882
(lp1883
S'0:02:26'
p1884
aV4
p1885
asS'part1_correct_attempt'
p1886
(lp1887
S'0:00:00'
p1888
ag1341
asg9
V2015-10-22 23:42:03
p1889
sS'part3_incorrect_attempt'
p1890
(lp1891
(S'0:03:40'
p1892
V7*6
p1893
tp1894
assVkew060
p1895
(dp1896
S'part3_correct_attempt'
p1897
(lp1898
S'0:05:38'
p1899
aV1+2+3+4+5+6
p1900
asS'part2_correct_attempt'
p1901
(lp1902
S'0:01:08'
p1903
aV2
p1904
asS'part1_correct_attempt'
p1905
(lp1906
S'0:00:00'
p1907
aVP(16-1,2)
p1908
asg9
V2015-10-22 22:41:56
p1909
sS'part3_incorrect_attempt'
p1910
(lp1911
(S'0:02:29'
p1912
V1+2+3+4+5
p1913
tp1914
a(S'0:04:11'
p1915
V1+2
p1916
tp1917
a(S'0:05:20'
p1918
V1+2+3+4
p1919
tp1920
a(S'0:05:30'
p1921
V1+2+3
p1922
tp1923
assVhkhodada
p1924
(dp1925
S'part3_correct_attempt'
p1926
(lp1927
S'20:51:13'
p1928
aV1+2+3+4+5+6+7+8
p1929
asS'part2_correct_attempt'
p1930
(lp1931
S'0:02:17'
p1932
aV3
p1933
asS'part1_correct_attempt'
p1934
(lp1935
S'0:00:00'
p1936
ag969
asg9
V2015-10-21 02:20:48
p1937
sS'part3_incorrect_attempt'
p1938
(lp1939
(S'20:50:28'
p1940
V1+2+3+4
p1941
tp1942
assVlguintu
p1943
(dp1944
S'part3_correct_attempt'
p1945
(lp1946
S'0:00:25'
p1947
aVC(8,2)
p1948
asS'part2_correct_attempt'
p1949
(lp1950
S'-1 day, 23:56:36'
p1951
aV5
p1952
asS'part1_correct_attempt'
p1953
(lp1954
S'0:00:00'
p1955
ag531
asg9
V2015-10-16 07:16:09
p1956
sS'part3_incorrect_attempt'
p1957
(lp1958
(S'0:00:18'
p1959
VP(8,2)
p1960
tp1961
assVjguanzho
p1962
(dp1963
S'part3_correct_attempt'
p1964
(lp1965
S'0:06:39'
p1966
aV(6+7+8+9+10+11+12+13)-(8*5)
p1967
asS'part2_correct_attempt'
p1968
(lp1969
S'0:04:12'
p1970
aV2
p1971
asS'part1_correct_attempt'
p1972
(lp1973
S'0:00:00'
p1974
ag81
asg9
V2015-10-18 22:23:22
p1975
sS'part3_incorrect_attempt'
p1976
(lp1977
(S'0:04:12'
p1978
V13-4-1
p1979
tp1980
a(S'0:05:20'
p1981
V8*7
p1982
tp1983
assVany027
p1984
(dp1985
S'part3_correct_attempt'
p1986
(lp1987
S'0:05:33'
p1988
aV1+2+3+4+5+6+7+8+9+10+11
p1989
asS'part2_correct_attempt'
p1990
(lp1991
S'0:01:42'
p1992
aV3
p1993
asS'part1_correct_attempt'
p1994
(lp1995
S'0:00:00'
p1996
ag1392
asg9
V2015-10-19 20:50:57
p1997
sS'part3_incorrect_attempt'
p1998
(lp1999
(S'0:03:07'
p2000
V1+2+3+4+5+6
p2001
tp2002
a(S'0:03:26'
p2003
V1+2+3+4+5+6+7+8+9+10+11+12
p2004
tp2005
assVeaherman
p2006
(dp2007
S'part3_correct_attempt'
p2008
(lp2009
S'0:20:43'
p2010
aV28
p2011
asS'part2_correct_attempt'
p2012
(lp2013
S'0:05:12'
p2014
aV4
p2015
asS'part1_correct_attempt'
p2016
(lp2017
S'0:00:00'
p2018
aV12(11)
p2019
asg9
V2015-10-22 17:32:53
p2020
sS'part3_incorrect_attempt'
p2021
(lp2022
(S'0:10:22'
p2023
V10+11+12+13
p2024
tp2025
a(S'0:11:04'
p2026
V4+5+6+7
p2027
tp2028
a(S'0:11:39'
p2029
V4+3+2+1
p2030
tp2031
a(S'0:19:37'
p2032
V6+7+8+9+10+11+12+13
p2033
tp2034
assVkthui
p2035
(dp2036
S'part3_correct_attempt'
p2037
(lp2038
S'0:02:21'
p2039
aV11+10+9+8+7+6+5+4+3+2+1
p2040
asS'part2_correct_attempt'
p2041
(lp2042
S'0:00:41'
p2043
aV7
p2044
asS'part1_correct_attempt'
p2045
(lp2046
S'0:00:00'
p2047
ag609
asg9
V2015-10-18 09:35:08
p2048
sS'part3_incorrect_attempt'
p2049
(lp2050
(S'0:01:27'
p2051
V12*11
p2052
tp2053
a(S'0:01:50'
p2054
V12+11+10+9+8+7+6+5+4+3+2+1
p2055
tp2056
assVpvl001
p2057
(dp2058
S'part3_correct_attempt'
p2059
(lp2060
S'0:06:33'
p2061
aV1 + 2 + 3 + 4 + 5 + 6 + 7 + 8
p2062
asS'part2_correct_attempt'
p2063
(lp2064
S'0:03:20'
p2065
aV6
p2066
asS'part1_correct_attempt'
p2067
(lp2068
S'0:00:00'
p2069
aV13 * 12
p2070
asg9
V2015-10-19 22:56:02
p2071
sS'part3_incorrect_attempt'
p2072
(lp2073
(S'0:03:38'
p2074
V6 + 5 + 4 + 3 + 2 +1
p2075
tp2076
assVvsosnovs
p2077
(dp2078
S'part3_correct_attempt'
p2079
(lp2080
S'23:30:13'
p2081
aV(9*8)/(2)
p2082
asS'part2_correct_attempt'
p2083
(lp2084
S'23:25:20'
p2085
aV4
p2086
asS'part1_correct_attempt'
p2087
(lp2088
S'0:00:00'
p2089
aV210
p2090
asg9
V2015-10-21 06:09:42
p2091
sS'part3_incorrect_attempt'
p2092
(lp2093
(S'23:30:08'
p2094
V(9*8)/(3)
p2095
tp2096
assValhung
p2097
(dp2098
S'part3_correct_attempt'
p2099
(lp2100
S'0:13:42'
p2101
aV(9*10)/2
p2102
asS'part2_correct_attempt'
p2103
(lp2104
S'0:07:39'
p2105
aV8
p2106
asS'part1_correct_attempt'
p2107
(lp2108
S'0:00:00'
p2109
ag639
asg9
V2015-10-22 19:24:15
p2110
sS'part3_incorrect_attempt'
p2111
(lp2112
(S'0:11:33'
p2113
V9*8
p2114
tp2115
a(S'0:12:45'
p2116
V8*9/2
p2117
tp2118
assVv3doan
p2119
(dp2120
S'part3_correct_attempt'
p2121
(lp2122
S'0:04:16'
p2123
aV10 * 11 / 2
p2124
asS'part2_correct_attempt'
p2125
(lp2126
S'0:00:35'
p2127
aV5
p2128
asS'part1_correct_attempt'
p2129
(lp2130
S'0:00:00'
p2131
aVP(12,2)
p2132
asg9
V2015-10-22 21:09:42
p2133
sS'part3_incorrect_attempt'
p2134
(lp2135
(S'0:03:25'
p2136
V7!
p2137
tp2138
a(S'0:03:42'
p2139
V10!
p2140
tp2141
assVarvenega
p2142
(dp2143
S'part3_correct_attempt'
p2144
(lp2145
S'0:00:07'
p2146
aV1+2+3+4+5+6
p2147
asS'part2_correct_attempt'
p2148
(lp2149
S'0:00:00'
p2150
aV2
p2151
asS'part1_correct_attempt'
p2152
(lp2153
S'0:00:00'
p2154
ag348
asg9
V2015-10-22 22:04:34
p2155
sS'part3_incorrect_attempt'
p2156
(lp2157
(S'0:00:00'
p2158
V1+2+3+4+5+6+7+8+9
p2159
tp2160
assVn2patil
p2161
(dp2162
S'part3_correct_attempt'
p2163
(lp2164
S'0:12:05'
p2165
aV1+2+3+4+5+6+7+8+9
p2166
asS'part2_correct_attempt'
p2167
(lp2168
S'-1 day, 23:59:46'
p2169
aV1
p2170
asS'part1_correct_attempt'
p2171
(lp2172
S'0:00:00'
p2173
ag1098
asg9
V2015-10-21 23:17:14
p2174
sS'part3_incorrect_attempt'
p2175
(lp2176
(S'0:00:32'
p2177
V1+2+3+4+5
p2178
tp2179
a(S'0:01:35'
p2180
V4+5
p2181
tp2182
a(S'0:04:00'
p2183
V1+2+3
p2184
tp2185
a(S'0:10:25'
p2186
V3+4+5
p2187
tp2188
a(S'0:10:53'
p2189
V1+2+3+4+5+6+7+8
p2190
tp2191
a(S'0:10:58'
p2192
V1+2+3+4+5+6+7
p2193
tp2194
a(S'0:11:20'
p2195
V1+2+3+4+5+6+7+8+9+10
p2196
tp2197
assVs2chaudh
p2198
(dp2199
S'part3_correct_attempt'
p2200
(lp2201
S'14:24:39'
p2202
aV1+2+3+4+5+6+7+8+9+10
p2203
asS'part2_correct_attempt'
p2204
(lp2205
S'1:06:34'
p2206
aV2
p2207
asS'part1_correct_attempt'
p2208
(lp2209
S'0:00:00'
p2210
ag1419
asg9
V2015-10-22 03:09:33
p2211
sS'part3_incorrect_attempt'
p2212
(lp2213
(S'1:11:49'
p2214
V15*14
p2215
tp2216
a(S'1:14:26'
p2217
V16*15*14
p2218
tp2219
assVtpmach
p2220
(dp2221
S'part3_correct_attempt'
p2222
(lp2223
S'0:27:27'
p2224
aV78
p2225
asS'part2_correct_attempt'
p2226
(lp2227
S'0:07:11'
p2228
aV5
p2229
asS'part1_correct_attempt'
p2230
(lp2231
S'0:00:00'
p2232
ag663
asg9
V2015-10-22 03:09:14
p2233
sS'part3_incorrect_attempt'
p2234
(lp2235
(S'0:20:40'
p2236
V12*11*10*9*8*7*6*5*4*3*2
p2237
tp2238
assVvasharma
p2239
(dp2240
S'part3_correct_attempt'
p2241
(lp2242
S'0:08:49'
p2243
aV1+2+3+(14-9-1)
p2244
asS'part2_correct_attempt'
p2245
(lp2246
S'0:00:09'
p2247
aV1
p2248
asS'part1_correct_attempt'
p2249
(lp2250
S'0:00:00'
p2251
ag1653
asg9
V2015-10-21 23:29:30
p2252
sS'part3_incorrect_attempt'
p2253
(lp2254
(S'0:00:49'
p2255
V1+2+3+4+5+6+7+8+9
p2256
tp2257
a(S'0:01:12'
p2258
V1+2+3+4+5+6+7+8+11+12+13+14
p2259
tp2260
a(S'0:01:29'
p2261
V1+2+3+4+5+6+7+8+11+12
p2262
tp2263
a(S'0:03:05'
p2264
V1+2+3+4+5+6+7+8
p2265
tp2266
a(S'0:03:29'
p2267
V1+2+3+4+5+6+7+8+9+10+11+12+13+14
p2268
tp2269
a(S'0:06:18'
p2270
V1+2+3+4+5+6+7+8
p2271
tp2272
a(S'0:06:26'
p2273
V1+2+3+4+5+6+7+8+9
p2274
tp2275
a(S'0:07:43'
p2276
V1+2+3+4+5+(14-9+1)
p2277
tp2278
a(S'0:08:13'
p2279
V1+2+3+4+5+(14-9-1)
p2280
tp2281
a(S'0:08:39'
p2282
V1+2+3+4+(14-9-1)
p2283
tp2284
assVbmilton
p2285
(dp2286
S'part3_correct_attempt'
p2287
(lp2288
S'0:05:05'
p2289
aV1+2+3+4+5+6+7+8+9+10
p2290
asS'part2_correct_attempt'
p2291
(lp2292
S'0:00:46'
p2293
aV9
p2294
asS'part1_correct_attempt'
p2295
(lp2296
S'0:00:00'
p2297
aV13 * 12
p2298
asg9
V2015-10-21 03:49:57
p2299
sS'part3_incorrect_attempt'
p2300
(lp2301
(S'0:04:38'
p2302
V1+2+3+4+5+6+7+8+9
p2303
tp2304
assVvqt004
p2305
(dp2306
S'part3_correct_attempt'
p2307
(lp2308
S'0:02:46'
p2309
aV4*7
p2310
asS'part2_correct_attempt'
p2311
(lp2312
S'0:00:00'
p2313
aV1
p2314
asS'part1_correct_attempt'
p2315
(lp2316
S'0:00:00'
p2317
aV12*11
p2318
asg9
V2015-10-22 14:54:37
p2319
sS'part3_incorrect_attempt'
p2320
(lp2321
(S'0:00:00'
p2322
V4*9
p2323
tp2324
assVmnrahman
p2325
(dp2326
S'part3_correct_attempt'
p2327
(lp2328
S'3:31:11'
p2329
aV((14-8)*(14-8-1))/2
p2330
asS'part2_correct_attempt'
p2331
(lp2332
S'2:18:26'
p2333
aV1
p2334
asS'part1_correct_attempt'
p2335
(lp2336
S'0:00:00'
p2337
aV(14-1)(14-2)
p2338
asg9
V2015-10-22 17:34:20
p2339
sS'part3_incorrect_attempt'
p2340
(lp2341
(S'3:30:45'
p2342
V(14-8)(14-7)/2
p2343
tp2344
assVpnquach
p2345
(dp2346
S'part3_correct_attempt'
p2347
(lp2348
S'0:00:34'
p2349
aV66
p2350
asS'part2_correct_attempt'
p2351
(lp2352
S'0:00:00'
p2353
aV4
p2354
asS'part1_correct_attempt'
p2355
(lp2356
S'0:00:00'
p2357
aV14*13
p2358
asg9
V2015-10-22 21:08:26
p2359
sS'part3_incorrect_attempt'
p2360
(lp2361
(S'0:00:00'
p2362
V66*14*13
p2363
tp2364
assVagarango
p2365
(dp2366
S'part3_correct_attempt'
p2367
(lp2368
S'0:05:24'
p2369
aV7+6+5+4+3+2+1
p2370
asS'part2_correct_attempt'
p2371
(lp2372
S'0:02:41'
p2373
aV7
p2374
asS'part1_correct_attempt'
p2375
(lp2376
S'0:00:00'
p2377
ag1503
asg9
V2015-10-22 19:39:35
p2378
sS'part3_incorrect_attempt'
p2379
(lp2380
(S'0:05:07'
p2381
V8+7+6+5+4+3+2+1
p2382
tp2383
assVbtn023
p2384
(dp2385
S'part3_correct_attempt'
p2386
(lp2387
S'14:09:21'
p2388
aV(1+2+3+4+5+6+7)
p2389
asS'part2_correct_attempt'
p2390
(lp2391
S'14:03:17'
p2392
aV4
p2393
asS'part1_correct_attempt'
p2394
(lp2395
S'0:00:00'
p2396
ag324
asg9
V2015-10-21 18:11:08
p2397
sS'part3_incorrect_attempt'
p2398
(lp2399
(S'14:05:54'
p2400
V1+2+3+4+5+6
p2401
tp2402
a(S'14:07:53'
p2403
V(1+2+3+4+5)
p2404
tp2405
assVachinn
p2406
(dp2407
S'part3_correct_attempt'
p2408
(lp2409
S'0:11:52'
p2410
aV1+2+3+4+5+6+7+8+9+10
p2411
asS'part2_correct_attempt'
p2412
(lp2413
S'0:05:48'
p2414
aV1
p2415
asS'part1_correct_attempt'
p2416
(lp2417
S'0:00:00'
p2418
aV14*13
p2419
asg9
V2015-10-19 22:42:22
p2420
sS'part3_incorrect_attempt'
p2421
(lp2422
(S'0:10:49'
p2423
V11*10
p2424
tp2425
assVdwzhang
p2426
(dp2427
S'part3_correct_attempt'
p2428
(lp2429
S'0:08:23'
p2430
aV1+2+3+4+5+6+7+8+9+10
p2431
asS'part2_correct_attempt'
p2432
(lp2433
S'0:04:40'
p2434
aV7
p2435
asS'part1_correct_attempt'
p2436
(lp2437
S'0:00:00'
p2438
aV15*14
p2439
asg9
V2015-10-22 08:12:12
p2440
sS'part3_incorrect_attempt'
p2441
(lp2442
(S'0:07:16'
p2443
V1+2+3+4+5+6+7+8+19+20+21
p2444
tp2445
a(S'0:07:24'
p2446
V1+2+3+4+5+6+7+8+19+20
p2447
tp2448
assVhaw081
p2449
(dp2450
S'part3_correct_attempt'
p2451
(lp2452
S'0:23:40'
p2453
aV3+2+1
p2454
asS'part2_correct_attempt'
p2455
(lp2456
S'0:03:02'
p2457
aV3
p2458
asS'part1_correct_attempt'
p2459
(lp2460
S'0:00:00'
p2461
ag246
asg9
V2015-10-22 06:08:56
p2462
sS'part3_incorrect_attempt'
p2463
(lp2464
(S'0:15:46'
p2465
V11+10+9+8+7+6+5+4+3+2+1
p2466
tp2467
assVkalang
p2468
(dp2469
S'part3_correct_attempt'
p2470
(lp2471
S'0:05:33'
p2472
aV8*7/2
p2473
asS'part2_correct_attempt'
p2474
(lp2475
S'0:03:06'
p2476
aV3
p2477
asS'part1_correct_attempt'
p2478
(lp2479
S'0:00:00'
p2480
aV12*11
p2481
asg9
V2015-10-22 21:06:06
p2482
sS'part3_incorrect_attempt'
p2483
(lp2484
(S'0:05:27'
p2485
V8*7
p2486
tp2487
assVdgunawan
p2488
(dp2489
S'part2_correct_attempt'
p2490
(lp2491
S'0:00:53'
p2492
aV3
p2493
asS'part1_correct_attempt'
p2494
(lp2495
S'0:00:00'
p2496
ag336
asg9
V2015-10-23 00:52:56
p2497
sS'part3_incorrect_attempt'
p2498
(lp2499
(S'0:05:58'
p2500
V9*10/2
p2501
tp2502
a(S'0:06:12'
p2503
V12*10/2
p2504
tp2505
a(S'0:06:48'
p2506
V11*10/2
p2507
tp2508
a(S'0:06:56'
p2509
V11(10)/2
p2510
tp2511
a(S'0:07:09'
p2512
V12(10)/2
p2513
tp2514
assVrraiyyan
p2515
(dp2516
S'part3_correct_attempt'
p2517
(lp2518
S'0:06:22'
p2519
aVC(11,2)
p2520
asS'part2_correct_attempt'
p2521
(lp2522
S'0:03:24'
p2523
aV7
p2524
asS'part1_correct_attempt'
p2525
(lp2526
S'0:00:00'
p2527
aV14*13
p2528
asg9
V2015-10-22 20:33:37
p2529
sS'part3_incorrect_attempt'
p2530
(lp2531
(S'0:04:46'
p2532
V11!
p2533
tp2534
a(S'0:05:49'
p2535
V10!
p2536
tp2537
a(S'0:05:55'
p2538
V9!
p2539
tp2540
assVhmshah
p2541
(dp2542
S'part3_correct_attempt'
p2543
(lp2544
S'0:01:52'
p2545
aV1.0*(14-8)*(14-8-1)/2
p2546
asS'part2_correct_attempt'
p2547
(lp2548
S'0:00:54'
p2549
aV1.0*(10-8-1)
p2550
asS'part1_correct_attempt'
p2551
(lp2552
S'0:00:00'
p2553
aV1.0*(14-1)*(14-2)
p2554
asg9
V2015-10-22 09:12:11
p2555
sS'part3_incorrect_attempt'
p2556
(lp2557
(S'0:01:35'
p2558
V1.0*(14-8)*(10-8-1)/2
p2559
tp2560
assVv4zhang
p2561
(dp2562
S'part3_correct_attempt'
p2563
(lp2564
S'10:20:44'
p2565
aV1+2+3+4+5+6+7+8
p2566
asS'part2_correct_attempt'
p2567
(lp2568
S'10:04:41'
p2569
aV5
p2570
asS'part1_correct_attempt'
p2571
(lp2572
S'0:00:00'
p2573
aVC(14, 1)*C(13, 1)
p2574
asg9
V2015-10-22 10:20:41
p2575
sS'part3_incorrect_attempt'
p2576
(lp2577
(S'10:05:54'
p2578
VC(10, 2)
p2579
tp2580
a(S'10:13:47'
p2581
V1+2+3+4+5
p2582
tp2583
assVdsmonaha
p2584
(dp2585
S'part3_correct_attempt'
p2586
(lp2587
S'0:12:05'
p2588
aV6+5+4+3+2+1
p2589
asS'part2_correct_attempt'
p2590
(lp2591
S'0:00:22'
p2592
aV5
p2593
asS'part1_correct_attempt'
p2594
(lp2595
S'0:00:00'
p2596
ag690
asg9
V2015-10-22 00:12:11
p2597
sS'part3_incorrect_attempt'
p2598
(lp2599
(S'0:11:43'
p2600
V6!
p2601
tp2602
assVtcuddy
p2603
(dp2604
S'part3_correct_attempt'
p2605
(lp2606
S'0:12:07'
p2607
aV11*12/2
p2608
asS'part2_correct_attempt'
p2609
(lp2610
S'0:00:50'
p2611
aV5
p2612
asS'part1_correct_attempt'
p2613
(lp2614
S'0:00:00'
p2615
ag363
asg9
V2015-10-17 22:31:44
p2616
sS'part3_incorrect_attempt'
p2617
(lp2618
(S'0:04:06'
p2619
V10(11)/2
p2620
tp2621
a(S'0:05:29'
p2622
V14*15/2 - 10
p2623
tp2624
a(S'0:07:12'
p2625
V14*15/2 - (12)/2
p2626
tp2627
a(S'0:07:58'
p2628
V13*14/2 - (12)/2
p2629
tp2630
a(S'0:11:43'
p2631
V14*15/2 - (4*3)/2
p2632
tp2633
a(S'0:11:53'
p2634
V14*15/2 - (5*4)/2
p2635
tp2636
assVdlgoldbe
p2637
(dp2638
S'part3_correct_attempt'
p2639
(lp2640
S'2:11:19'
p2641
aV1+2+3+4+5+6+7+8+9+10+11+12
p2642
asS'part2_correct_attempt'
p2643
(lp2644
S'2:03:28'
p2645
aV10
p2646
asS'part1_correct_attempt'
p2647
(lp2648
S'0:00:00'
p2649
aVC(14,2)*2
p2650
asg9
V2015-10-22 17:46:42
p2651
sS'part3_incorrect_attempt'
p2652
(lp2653
(S'2:04:21'
p2654
V4+5+6+7+8+9+10+11+12+13+14+15
p2655
tp2656
a(S'2:09:07'
p2657
VC(14,2)*20
p2658
tp2659
a(S'2:10:35'
p2660
V1+2+3+4+5+6+7+8+9+10+11+12+13
p2661
tp2662
assVp4kumar
p2663
(dp2664
S'part3_correct_attempt'
p2665
(lp2666
S'0:01:33'
p2667
aV1+2+3+4+5+6+7+8+9+10+11+12+13
p2668
asS'part2_correct_attempt'
p2669
(lp2670
S'0:00:47'
p2671
aV3
p2672
asS'part1_correct_attempt'
p2673
(lp2674
S'0:00:00'
p2675
aV210
p2676
asg9
V2015-10-22 22:52:54
p2677
sS'part3_incorrect_attempt'
p2678
(lp2679
(S'0:01:26'
p2680
V1+2+3+4+5+6+7+8+9+10+11+12+13+14
p2681
tp2682
assVhmnaing
p2683
(dp2684
S'part3_correct_attempt'
p2685
(lp2686
S'15:13:27'
p2687
aV1+2+3+4+5+6+7+8+9
p2688
asS'part2_correct_attempt'
p2689
(lp2690
S'15:08:47'
p2691
aV13-6-1
p2692
asS'part1_correct_attempt'
p2693
(lp2694
S'0:00:00'
p2695
aV15*14
p2696
asg9
V2015-10-22 00:34:59
p2697
sS'part3_incorrect_attempt'
p2698
(lp2699
(S'15:09:03'
p2700
V1+2+3+4+5+6
p2701
tp2702
a(S'15:09:46'
p2703
V7+8+9+10+11+12
p2704
tp2705
a(S'15:13:20'
p2706
V1+2+3+4+5+6+7+8+9+10
p2707
tp2708
assVaadhakal
p2709
(dp2710
S'part3_correct_attempt'
p2711
(lp2712
S'0:02:06'
p2713
aV(11*10)/2
p2714
asS'part2_correct_attempt'
p2715
(lp2716
S'0:01:15'
p2717
aV4
p2718
asS'part1_correct_attempt'
p2719
(lp2720
S'0:00:00'
p2721
aV12*11
p2722
asg9
V2015-10-21 18:58:04
p2723
sS'part3_incorrect_attempt'
p2724
(lp2725
(S'0:01:15'
p2726
V(5*4)/2
p2727
tp2728
a(S'0:01:52'
p2729
V(11*4)/2
p2730
tp2731
assVglcohen
p2732
(dp2733
S'part3_correct_attempt'
p2734
(lp2735
S'0:06:35'
p2736
aV1+ 2+3+4+5+6+7+8+9+10+11+12
p2737
asS'part2_correct_attempt'
p2738
(lp2739
S'0:04:44'
p2740
aV10
p2741
asS'part1_correct_attempt'
p2742
(lp2743
S'0:00:00'
p2744
ag993
asg9
V2015-10-18 01:16:55
p2745
sS'part3_incorrect_attempt'
p2746
(lp2747
(S'0:06:26'
p2748
V3+4+5+6+7+8+9+10+11+12
p2749
tp2750
assVsayao
p2751
(dp2752
S'part3_correct_attempt'
p2753
(lp2754
S'0:24:10'
p2755
aV1+2+3+4+5+6+7+8
p2756
asS'part2_correct_attempt'
p2757
(lp2758
S'0:00:39'
p2759
aV2
p2760
asS'part1_correct_attempt'
p2761
(lp2762
S'0:00:00'
p2763
aVP(14,2)
p2764
asg9
V2015-10-21 16:46:03
p2765
sS'part3_incorrect_attempt'
p2766
(lp2767
(S'0:01:05'
p2768
VP(15,3)-P(14,2)
p2769
tp2770
a(S'0:09:35'
p2771
VP(15,3)*P(14,2)
p2772
tp2773
a(S'0:10:33'
p2774
VP(15,3)-P(14,2)
p2775
tp2776
a(S'0:10:41'
p2777
VP(15,3)-2548
p2778
tp2779
a(S'0:22:42'
p2780
VP(14,2)
p2781
tp2782
assVdpereira
p2783
(dp2784
S'part3_correct_attempt'
p2785
(lp2786
S'0:01:40'
p2787
aV1+2+3+4+5+6+7+8+9
p2788
asS'part2_correct_attempt'
p2789
(lp2790
S'0:01:09'
p2791
aV1
p2792
asS'part1_correct_attempt'
p2793
(lp2794
S'0:00:00'
p2795
aV15*14
p2796
asg9
V2015-10-19 21:10:01
p2797
sS'part3_incorrect_attempt'
p2798
(lp2799
(S'0:01:09'
p2800
V1+2+3+4+5+6+7+8
p2801
tp2802
a(S'0:01:14'
p2803
V1+2+3+4+5+6+7
p2804
tp2805
assVachava
p2806
(dp2807
S'part3_correct_attempt'
p2808
(lp2809
S'0:04:15'
p2810
aV1+2+3+4+5
p2811
asS'part2_correct_attempt'
p2812
(lp2813
S'-1 day, 19:41:13'
p2814
aV1
p2815
asS'part1_correct_attempt'
p2816
(lp2817
S'0:00:00'
p2818
ag438
asg9
V2015-10-21 21:43:56
p2819
sS'part3_incorrect_attempt'
p2820
(lp2821
(S'0:04:10'
p2822
V1+2+3+4
p2823
tp2824
assVhaliew
p2825
(dp2826
S'part3_correct_attempt'
p2827
(lp2828
S'0:02:37'
p2829
aV8+7+6+5+4+3+2+1
p2830
asS'part2_correct_attempt'
p2831
(lp2832
S'0:00:57'
p2833
aV1*2*1
p2834
asS'part1_correct_attempt'
p2835
(lp2836
S'0:00:00'
p2837
aV1*12*11
p2838
asg9
V2015-10-22 01:19:38
p2839
sS'part3_incorrect_attempt'
p2840
(lp2841
(S'0:02:00'
p2842
V8!
p2843
tp2844
assVcsl030
p2845
(dp2846
S'part3_correct_attempt'
p2847
(lp2848
S'0:23:52'
p2849
aV1 + 2 + 3 + 4
p2850
asS'part2_correct_attempt'
p2851
(lp2852
S'0:00:48'
p2853
aV1
p2854
asS'part1_correct_attempt'
p2855
(lp2856
S'0:00:00'
p2857
ag1239
asg9
V2015-10-22 04:40:41
p2858
sS'part3_incorrect_attempt'
p2859
(lp2860
(S'0:03:59'
p2861
V4*3
p2862
tp2863
a(S'0:04:07'
p2864
V4*2
p2865
tp2866
a(S'0:04:52'
p2867
V4*(4!)
p2868
tp2869
a(S'0:04:59'
p2870
V4*(3!)
p2871
tp2872
a(S'0:05:06'
p2873
V4*(2!)
p2874
tp2875
a(S'0:06:37'
p2876
V4+ 4!
p2877
tp2878
a(S'0:14:00'
p2879
V14 - 9
p2880
tp2881
a(S'0:14:18'
p2882
V14 - 10
p2883
tp2884
assVedcole
p2885
(dp2886
S'part3_correct_attempt'
p2887
(lp2888
S'0:05:14'
p2889
aV10+9+8+7+6+5+4+3+2+1
p2890
asS'part2_correct_attempt'
p2891
(lp2892
S'0:02:52'
p2893
aV9
p2894
asS'part1_correct_attempt'
p2895
(lp2896
S'0:00:00'
p2897
ag1611
asg9
V2015-10-21 18:16:52
p2898
sS'part3_incorrect_attempt'
p2899
(lp2900
(S'0:03:06'
p2901
V12*11*9
p2902
tp2903
assVv4sharma
p2904
(dp2905
S'part3_correct_attempt'
p2906
(lp2907
S'0:24:23'
p2908
aV66
p2909
asS'part2_correct_attempt'
p2910
(lp2911
S'0:05:32'
p2912
aV9
p2913
asS'part1_correct_attempt'
p2914
(lp2915
S'0:00:00'
p2916
aV14*13
p2917
asg9
V2015-10-21 16:26:39
p2918
sS'part3_incorrect_attempt'
p2919
(lp2920
(S'0:21:15'
p2921
V9!
p2922
tp2923
assVcprafull
p2924
(dp2925
S'part3_correct_attempt'
p2926
(lp2927
S'0:12:57'
p2928
aV(13-5)(13-6)/2
p2929
asS'part2_correct_attempt'
p2930
(lp2931
S'0:02:13'
p2932
aV12-5-1
p2933
asS'part1_correct_attempt'
p2934
(lp2935
S'0:00:00'
p2936
aV(12)(11)
p2937
asg9
V2015-10-22 19:55:10
p2938
sS'part3_incorrect_attempt'
p2939
(lp2940
(S'0:02:28'
p2941
V(12)(11)/2
p2942
tp2943
a(S'0:09:50'
p2944
V(12)(11)/6
p2945
tp2946
a(S'0:09:56'
p2947
V(12)(11)/1
p2948
tp2949
a(S'0:10:02'
p2950
V(12)(11)/2
p2951
tp2952
a(S'0:10:07'
p2953
V(12)(11)/3
p2954
tp2955
a(S'0:10:11'
p2956
V(12)(11)/4
p2957
tp2958
a(S'0:10:16'
p2959
V(12)(11)/6
p2960
tp2961
a(S'0:11:36'
p2962
V(23)*(2)/2
p2963
tp2964
assVdcastlem
p2965
(dp2966
S'part3_correct_attempt'
p2967
(lp2968
S'0:58:47'
p2969
aV1+2+3+4+5+6
p2970
asS'part2_correct_attempt'
p2971
(lp2972
S'0:00:30'
p2973
aV4
p2974
asS'part1_correct_attempt'
p2975
(lp2976
S'0:00:00'
p2977
aV13*12
p2978
asg9
V2015-10-21 18:13:18
p2979
sS'part3_incorrect_attempt'
p2980
(lp2981
(S'0:06:43'
p2982
V13*12*4
p2983
tp2984
a(S'0:08:47'
p2985
V8+9+10+11+12+13
p2986
tp2987
a(S'0:08:55'
p2988
V8+9+10+11+12+13+14
p2989
tp2990
a(S'0:09:00'
p2991
V8+9+10+11
p2992
tp2993
a(S'0:09:11'
p2994
V7+8+9+10
p2995
tp2996
a(S'0:09:23'
p2997
V7+8+9+10+11+12+13
p2998
tp2999
a(S'0:09:32'
p3000
V7+8+9+10+11+12+13+14
p3001
tp3002
a(S'0:09:41'
p3003
V8+9+10+11+12+13
p3004
tp3005
a(S'0:09:56'
p3006
V10+11+12+13
p3007
tp3008
a(S'0:10:05'
p3009
V11+12+13+14
p3010
tp3011
a(S'0:11:08'
p3012
V8+9+10
p3013
tp3014
a(S'0:11:16'
p3015
V7+8+9
p3016
tp3017
a(S'0:12:33'
p3018
V8+9+10+11
p3019
tp3020
a(S'0:13:01'
p3021
V8*9*10*11
p3022
tp3023
a(S'0:14:50'
p3024
V7+8+9+10
p3025
tp3026
a(S'0:15:02'
p3027
V8+9+10
p3028
tp3029
a(S'0:18:13'
p3030
V8+9+10+11+12+13
p3031
tp3032
a(S'0:18:19'
p3033
V8+9+10+11+12+13+14
p3034
tp3035
a(S'0:18:25'
p3036
V7+8+9+10+11+12+13+14
p3037
tp3038
a(S'0:20:32'
p3039
V8+9+10+11+12
p3040
tp3041
a(S'0:20:37'
p3042
V8+9+10+11
p3043
tp3044
a(S'0:20:52'
p3045
V8+9+10+11+12+13
p3046
tp3047
a(S'0:20:58'
p3048
V8+9+10+11+12+13+14
p3049
tp3050
a(S'0:21:05'
p3051
V7+8+9+10+11+12+13+14
p3052
tp3053
a(S'0:21:51'
p3054
V8+9+10+11+12+13+14
p3055
tp3056
a(S'0:22:03'
p3057
V8+9+10+11+12+13
p3058
tp3059
a(S'0:24:37'
p3060
V8+9+10+11
p3061
tp3062
a(S'0:26:11'
p3063
V7+8+9+10
p3064
tp3065
a(S'0:55:49'
p3066
V8+9+10+11
p3067
tp3068
a(S'0:56:01'
p3069
V8*9*10*11
p3070
tp3071
a(S'0:56:39'
p3072
V8+9+10+11+12+13+14
p3073
tp3074
a(S'0:57:55'
p3075
V9+10+11+12+13+14
p3076
tp3077
a(S'0:58:01'
p3078
V9+10+11+12+13
p3079
tp3080
a(S'0:58:09'
p3081
V9+10+11
p3082
tp3083
assVvolim
p3084
(dp3085
S'part3_correct_attempt'
p3086
(lp3087
S'0:01:05'
p3088
aV9+8+7+6+5+4+3+2+1
p3089
asS'part2_correct_attempt'
p3090
(lp3091
S'0:00:34'
p3092
aV9
p3093
asS'part1_correct_attempt'
p3094
(lp3095
S'0:00:00'
p3096
aV12*11
p3097
asg9
V2015-10-21 02:54:44
p3098
sS'part3_incorrect_attempt'
p3099
(lp3100
(S'0:00:57'
p3101
V9+8+7+6+5
p3102
tp3103
assVk4ma
p3104
(dp3105
S'part3_correct_attempt'
p3106
(lp3107
S'0:05:34'
p3108
aV28
p3109
asS'part2_correct_attempt'
p3110
(lp3111
S'0:01:31'
p3112
aV4
p3113
asS'part1_correct_attempt'
p3114
(lp3115
S'0:00:00'
p3116
aV15*14
p3117
asg9
V2015-10-22 04:04:04
p3118
sS'part3_incorrect_attempt'
p3119
(lp3120
(S'0:02:52'
p3121
V8*7
p3122
tp3123
assVajvanega
p3124
(dp3125
S'part3_correct_attempt'
p3126
(lp3127
S'0:19:25'
p3128
aV8+7+6+5+4+3+2+1+9
p3129
asS'part2_correct_attempt'
p3130
(lp3131
S'0:07:35'
p3132
aV1
p3133
asS'part1_correct_attempt'
p3134
(lp3135
S'0:00:00'
p3136
ag1692
asg9
V2015-10-22 17:23:10
p3137
sS'part3_incorrect_attempt'
p3138
(lp3139
(S'0:15:21'
p3140
V8*7
p3141
tp3142
a(S'0:17:59'
p3143
V8^2
p3144
tp3145
a(S'0:18:25'
p3146
V8+7+6+5+4+3+2+1
p3147
tp3148
assVzig006
p3149
(dp3150
S'part3_correct_attempt'
p3151
(lp3152
S'0:01:11'
p3153
aV1+2+3+4+5
p3154
asS'part2_correct_attempt'
p3155
(lp3156
S'0:01:00'
p3157
aV1
p3158
asS'part1_correct_attempt'
p3159
(lp3160
S'0:00:00'
p3161
aV156
p3162
asg9
V2015-10-21 20:42:32
p3163
sS'part3_incorrect_attempt'
p3164
(lp3165
(S'0:01:00'
p3166
V1+2+3+4+5+6
p3167
tp3168
assVsrl006
p3169
(dp3170
S'part3_incorrect_attempt'
p3171
(lp3172
(S'0:02:02'
p3173
V((14-8)(14-8-1))/2
p3174
tp3175
a(S'0:02:19'
p3176
V((14-7)(14-7-1))/2
p3177
tp3178
a(S'0:02:26'
p3179
V((14-6)(14-6-1))/2
p3180
tp3181
a(S'0:02:34'
p3182
V((14-9)(14-9-1))/2
p3183
tp3184
a(S'0:02:45'
p3185
V((14-10)(14-10-1))/2
p3186
tp3187
a(S'0:02:52'
p3188
V((14-11)(14-11-1))/2
p3189
tp3190
a(S'0:03:06'
p3191
V((14-8)(14-8-1))/2
p3192
tp3193
a(S'0:03:13'
p3194
V((14-7)(14-7-1))/2
p3195
tp3196
a(S'0:05:21'
p3197
V((14+9)(14-9+1))/2
p3198
tp3199
asS'part1_correct_attempt'
p3200
(lp3201
S'0:00:00'
p3202
ag21
asg9
V2015-10-23 00:43:34
p3203
ssVsghouse
p3204
(dp3205
S'part3_correct_attempt'
p3206
(lp3207
S'0:05:48'
p3208
aV1+2+3+4+5+6+7+8+9
p3209
asS'part2_correct_attempt'
p3210
(lp3211
S'0:02:05'
p3212
aV1
p3213
asS'part1_correct_attempt'
p3214
(lp3215
S'0:00:00'
p3216
ag879
asg9
V2015-10-21 23:32:50
p3217
sS'part3_incorrect_attempt'
p3218
(lp3219
(S'0:03:07'
p3220
V10!
p3221
tp3222
a(S'0:04:09'
p3223
V1+2+3+4+5+6+7+8+9+10+11
p3224
tp3225
a(S'0:04:17'
p3226
V1+2+3+4+5+6+7+8+9+10
p3227
tp3228
a(S'0:04:24'
p3229
V2+3+4+5+6+7+8+9+10
p3230
tp3231
assVggaddi
p3232
(dp3233
S'part3_correct_attempt'
p3234
(lp3235
S'0:07:49'
p3236
aV1+2+3+4+5+6+7+8+9+10+11
p3237
asS'part2_correct_attempt'
p3238
(lp3239
S'0:04:42'
p3240
aV7
p3241
asS'part1_correct_attempt'
p3242
(lp3243
S'0:00:00'
p3244
aVP(13,2)
p3245
asg9
V2015-10-20 00:49:54
p3246
sS'part3_incorrect_attempt'
p3247
(lp3248
(S'0:05:54'
p3249
V4+5+6+7+8+9+10+11+12+13+14
p3250
tp3251
assVmtrafeca
p3252
(dp3253
S'part3_correct_attempt'
p3254
(lp3255
S'0:32:04'
p3256
aV28
p3257
asS'part2_correct_attempt'
p3258
(lp3259
S'0:01:50'
p3260
aV4
p3261
asS'part1_correct_attempt'
p3262
(lp3263
S'0:00:00'
p3264
ag1719
asg9
V2015-10-22 21:02:26
p3265
sS'part3_incorrect_attempt'
p3266
(lp3267
(S'0:12:03'
p3268
V8+9+10+11+12+13+14+15
p3269
tp3270
a(S'0:12:14'
p3271
V7+8+9+10+11+12+13+14+15
p3272
tp3273
a(S'0:17:27'
p3274
V8+9+10+11+12+13+14+15
p3275
tp3276
a(S'0:17:54'
p3277
V14*13
p3278
tp3279
a(S'0:26:26'
p3280
V1+2+3+4+5+6+7+8+9+10+11+12+13+14+15
p3281
tp3282
a(S'0:26:57'
p3283
V7+8+9+10+11+12+13+14+15
p3284
tp3285
a(S'0:27:38'
p3286
V8+9+10+11+12+13+14+15
p3287
tp3288
assVbkoli
p3289
(dp3290
S'part3_correct_attempt'
p3291
(lp3292
S'0:34:00'
p3293
aV(14-4)(14-4-1)/2
p3294
asS'part2_correct_attempt'
p3295
(lp3296
S'0:06:47'
p3297
aV8
p3298
asS'part1_correct_attempt'
p3299
(lp3300
S'0:00:00'
p3301
aV(14-1)(14-2)
p3302
asg9
V2015-10-22 20:31:32
p3303
sS'part3_incorrect_attempt'
p3304
(lp3305
(S'0:33:26'
p3306
V(14-4)(14-3)/2
p3307
tp3308
a(S'0:33:41'
p3309
V(14-4)(14-3-1)/2
p3310
tp3311
assVk3tan
p3312
(dp3313
S'part3_correct_attempt'
p3314
(lp3315
S'0:52:51'
p3316
aV1+2+3+4+5+6
p3317
asS'part2_correct_attempt'
p3318
(lp3319
S'0:00:13'
p3320
aV1
p3321
asS'part1_correct_attempt'
p3322
(lp3323
S'0:00:00'
p3324
ag903
asg9
V2015-10-22 22:12:08
p3325
sS'part3_incorrect_attempt'
p3326
(lp3327
(S'0:32:33'
p3328
V6!
p3329
tp3330
a(S'0:33:13'
p3331
V5!
p3332
tp3333
a(S'0:33:18'
p3334
V4!
p3335
tp3336
assVj2phung
p3337
(dp3338
S'part3_correct_attempt'
p3339
(lp3340
S'0:17:19'
p3341
aV36
p3342
asS'part2_correct_attempt'
p3343
(lp3344
S'0:01:16'
p3345
aV2
p3346
asS'part1_correct_attempt'
p3347
(lp3348
S'0:00:00'
p3349
aV15*14
p3350
asg9
V2015-10-22 05:57:34
p3351
sS'part3_incorrect_attempt'
p3352
(lp3353
(S'0:02:38'
p3354
V2*7
p3355
tp3356
a(S'0:03:04'
p3357
V2*15
p3358
tp3359
a(S'0:03:14'
p3360
V2*13
p3361
tp3362
asssV2
p3363
(dp3364
Vdlgoldbe
p3365
(dp3366
S'part2_correct_attempt'
p3367
(lp3368
S'2:03:28'
p3369
ag2646
asg9
g2651
sS'part2_incorrect_attempt'
p3370
(lp3371
(S'1:55:48'
p3372
VC(11,1)
p3373
tp3374
a(S'2:00:05'
p3375
V3+4+5+6+7+8+9+10+11+12
p3376
tp3377
assVjyc018
p3378
(dp3379
S'part2_correct_attempt'
p3380
(lp3381
S'0:04:52'
p3382
aV9
p3383
asg9
V2015-10-22 23:36:53
p3384
sS'part2_incorrect_attempt'
p3385
(lp3386
(S'0:00:49'
p3387
V12+11+10+9+8+7+6+5+4+3+2+1
p3388
tp3389
assVctroncos
p3390
(dp3391
S'part2_correct_attempt'
p3392
(lp3393
S'0:01:53'
p3394
ag1866
asg9
g1870
sS'part2_incorrect_attempt'
p3395
(lp3396
(S'0:01:48'
p3397
V12 - 9
p3398
tp3399
assVkebao
p3400
(dp3401
S'part2_correct_attempt'
p3402
(lp3403
S'17:55:38'
p3404
aV9
p3405
asg9
V2015-10-22 03:09:54
p3406
sS'part2_incorrect_attempt'
p3407
(lp3408
(S'16:05:05'
p3409
V10*9
p3410
tp3411
a(S'16:05:18'
p3412
V9*8
p3413
tp3414
assVkbielawi
p3415
(dp3416
S'part2_correct_attempt'
p3417
(lp3418
S'0:00:48'
p3419
aV6
p3420
asg9
V2015-10-21 20:38:54
p3421
sS'part2_incorrect_attempt'
p3422
(lp3423
(S'0:00:37'
p3424
V15-2
p3425
tp3426
assVkalang
p3427
(dp3428
S'part2_correct_attempt'
p3429
(lp3430
S'0:03:06'
p3431
ag2477
asg9
g2482
sS'part2_incorrect_attempt'
p3432
(lp3433
(S'0:01:25'
p3434
V2*4
p3435
tp3436
assVjjchung
p3437
(dp3438
S'part2_correct_attempt'
p3439
(lp3440
S'3:11:07'
p3441
aV2
p3442
asg9
V2015-10-21 02:54:32
p3443
sS'part2_incorrect_attempt'
p3444
(lp3445
(S'3:10:49'
p3446
V(14-8)*(14-8-1)/2
p3447
tp3448
assVabjara
p3449
(dp3450
S'part2_correct_attempt'
p3451
(lp3452
S'0:11:55'
p3453
aV1
p3454
asg9
V2015-10-21 22:32:06
p3455
sS'part2_incorrect_attempt'
p3456
(lp3457
(S'0:08:39'
p3458
VC(14,1)
p3459
tp3460
assVspw006
p3461
(dp3462
S'part2_correct_attempt'
p3463
(lp3464
S'0:00:13'
p3465
aV5
p3466
asg9
V2015-10-20 21:50:53
p3467
sS'part2_incorrect_attempt'
p3468
(lp3469
(S'-1 day, 23:59:32'
p3470
V6+5+4+3+2+1
p3471
tp3472
assVskarimik
p3473
(dp3474
S'part2_correct_attempt'
p3475
(lp3476
S'0:12:37'
p3477
aV3
p3478
asg9
V2015-10-18 03:41:26
p3479
sS'part2_incorrect_attempt'
p3480
(lp3481
(S'0:00:00'
p3482
V12+13+14
p3483
tp3484
a(S'0:04:54'
p3485
V9+10+11
p3486
tp3487
assVthk002
p3488
(dp3489
S'part2_correct_attempt'
p3490
(lp3491
S'2:42:12'
p3492
aV5
p3493
asg9
V2015-10-21 01:54:05
p3494
sS'part2_incorrect_attempt'
p3495
(lp3496
(S'2:39:17'
p3497
VC(12,5)
p3498
tp3499
a(S'2:39:24'
p3500
VC(12,1)
p3501
tp3502
a(S'2:39:38'
p3503
VC(12,1)-1
p3504
tp3505
assVdcrume
p3506
(dp3507
g9
V2015-10-22 17:07:44
p3508
sS'part2_incorrect_attempt'
p3509
(lp3510
(S'0:04:49'
p3511
V9+10+11+12+13+14+15+16
p3512
tp3513
assVk5law
p3514
(dp3515
S'part2_correct_attempt'
p3516
(lp3517
S'-1 day, 11:27:45'
p3518
aV5
p3519
asg9
V2015-10-19 20:22:48
p3520
sS'part2_incorrect_attempt'
p3521
(lp3522
(S'-1 day, 11:27:35'
p3523
V5+6+7+8+9+10+11
p3524
tp3525
assVmbl003
p3526
(dp3527
S'part2_correct_attempt'
p3528
(lp3529
S'0:00:42'
p3530
aV3
p3531
asg9
V2015-10-21 20:15:35
p3532
sS'part2_incorrect_attempt'
p3533
(lp3534
(S'-1 day, 23:59:13'
p3535
V9+8+7+6+5+4+3+2+1
p3536
tp3537
assVhaw081
p3538
(dp3539
S'part2_correct_attempt'
p3540
(lp3541
S'0:03:02'
p3542
ag2458
asg9
g2462
sS'part2_incorrect_attempt'
p3543
(lp3544
(S'0:02:51'
p3545
VP(13-2,1)
p3546
tp3547
assVffhaddad
p3548
(dp3549
S'part2_correct_attempt'
p3550
(lp3551
S'0:09:27'
p3552
aV1
p3553
asg9
V2015-10-22 20:45:37
p3554
sS'part2_incorrect_attempt'
p3555
(lp3556
(S'0:01:57'
p3557
V7-4
p3558
tp3559
assVdis003
p3560
(dp3561
S'part2_correct_attempt'
p3562
(lp3563
S'0:00:00'
p3564
aV13-5-1
p3565
asg9
V2015-10-22 17:42:09
p3566
sS'part2_incorrect_attempt'
p3567
(lp3568
(S'-1 day, 23:58:27'
p3569
V9-6-1
p3570
tp3571
assVtol003
p3572
(dp3573
S'part2_correct_attempt'
p3574
(lp3575
S'0:08:08'
p3576
aV2
p3577
asg9
V2015-10-21 00:52:02
p3578
sS'part2_incorrect_attempt'
p3579
(lp3580
(S'0:02:38'
p3581
V11*10
p3582
tp3583
assVhaliew
p3584
(dp3585
S'part2_correct_attempt'
p3586
(lp3587
S'0:00:57'
p3588
ag2834
asg9
g2839
sS'part2_incorrect_attempt'
p3589
(lp3590
(S'0:00:40'
p3591
V1*11*1
p3592
tp3593
assVeaherman
p3594
(dp3595
S'part2_correct_attempt'
p3596
(lp3597
S'0:05:12'
p3598
ag2015
asg9
g2020
sS'part2_incorrect_attempt'
p3599
(lp3600
(S'0:02:39'
p3601
V10+11+12+13
p3602
tp3603
a(S'0:03:47'
p3604
V11+12+13
p3605
tp3606
a(S'0:03:56'
p3607
V9+10+11+12
p3608
tp3609
a(S'0:05:05'
p3610
V6+7+8+9
p3611
tp3612
assVdtea
p3613
(dp3614
S'part2_correct_attempt'
p3615
(lp3616
S'0:07:02'
p3617
aV5
p3618
asg9
V2015-10-22 22:42:02
p3619
sS'part2_incorrect_attempt'
p3620
(lp3621
(S'0:06:57'
p3622
VP(13-1,2)
p3623
tp3624
assVggaddi
p3625
(dp3626
S'part2_correct_attempt'
p3627
(lp3628
S'0:04:42'
p3629
ag3241
asg9
g3246
sS'part2_incorrect_attempt'
p3630
(lp3631
(S'0:01:24'
p3632
VP(12,1)
p3633
tp3634
a(S'0:03:01'
p3635
VC(12,1)
p3636
tp3637
assVcprafull
p3638
(dp3639
S'part2_correct_attempt'
p3640
(lp3641
S'0:02:13'
p3642
ag2933
asg9
g2938
sS'part2_incorrect_attempt'
p3643
(lp3644
(S'0:00:00'
p3645
V12-2-1
p3646
tp3647
asssV4
p3648
(dp3649
Vagoldsht
p3650
(dp3651
S'part4_incorrect_attempt'
p3652
(lp3653
(S'0:02:22'
p3654
V(15-2)*(15-2-1)/2 * (15-1)*(15-2)
p3655
tp3656
asS'part2_correct_attempt'
p3657
(lp3658
S'0:01:24'
p3659
aV13-2-1
p3660
asS'part4_correct_attempt'
p3661
(lp3662
S'0:02:42'
p3663
aV(15-2)*(15-2-1)/(2 * (15-1)*(15-2))
p3664
asS'part3_correct_attempt'
p3665
(lp3666
S'0:01:24'
p3667
aV(15-2)*(15-2-1)/2
p3668
asS'part1_correct_attempt'
p3669
(lp3670
S'0:00:00'
p3671
aV(15-1)*(15-2)
p3672
asg9
V2015-10-20 05:56:57
p3673
ssVlrlai
p3674
(dp3675
S'part4_incorrect_attempt'
p3676
(lp3677
(S'0:03:19'
p3678
V(45/(13*12*11) * (12*11/(13*12*11)))/(12*11/(13*12*11))
p3679
tp3680
asS'part2_correct_attempt'
p3681
(lp3682
S'0:01:09'
p3683
aV2
p3684
asS'part4_correct_attempt'
p3685
(lp3686
S'7:50:48'
p3687
aV45/(12*11)
p3688
asS'part3_correct_attempt'
p3689
(lp3690
S'0:03:19'
p3691
aV45
p3692
asS'part1_correct_attempt'
p3693
(lp3694
S'0:00:00'
p3695
aV12*11
p3696
asg9
V2015-10-21 20:10:58
p3697
ssVasetters
p3698
(dp3699
S'part4_incorrect_attempt'
p3700
(lp3701
(S'0:00:00'
p3702
V(12*13/2)/14*13
p3703
tp3704
asS'part2_correct_attempt'
p3705
(lp3706
S'0:00:00'
p3707
aV2
p3708
asS'part4_correct_attempt'
p3709
(lp3710
S'0:00:10'
p3711
aV(12*13/2)/(14*13)
p3712
asS'part3_correct_attempt'
p3713
(lp3714
S'-1 day, 23:59:10'
p3715
aV12(13)/2
p3716
asS'part1_correct_attempt'
p3717
(lp3718
S'0:00:00'
p3719
aV14*13
p3720
asg9
V2015-10-20 07:27:34
p3721
ssVspw006
p3722
(dp3723
S'part4_incorrect_attempt'
p3724
(lp3725
(S'0:00:28'
p3726
V6+5+4+3+2+1/(12*11)
p3727
tp3728
asS'part2_correct_attempt'
p3729
(lp3730
S'0:00:13'
p3731
ag3466
asS'part4_correct_attempt'
p3732
(lp3733
S'0:00:39'
p3734
aV(6+5+4+3+2+1)/(12*11)
p3735
asS'part3_correct_attempt'
p3736
(lp3737
S'-1 day, 23:59:32'
p3738
aV6+5+4+3+2+1
p3739
asS'part1_correct_attempt'
p3740
(lp3741
S'0:00:00'
p3742
ag1377
asg9
g3467
ssVasp025
p3743
(dp3744
S'part4_incorrect_attempt'
p3745
(lp3746
(S'0:24:04'
p3747
V(8*7/2)/12*11
p3748
tp3749
asS'part2_correct_attempt'
p3750
(lp3751
S'0:00:56'
p3752
aV6
p3753
asS'part4_correct_attempt'
p3754
(lp3755
S'0:24:14'
p3756
aV(8*7/2)/(12*11)
p3757
asS'part3_correct_attempt'
p3758
(lp3759
S'0:18:33'
p3760
aV8*7/2
p3761
asS'part1_correct_attempt'
p3762
(lp3763
S'0:00:00'
p3764
aV12*11
p3765
asg9
V2015-10-21 19:37:12
p3766
ssVaadhakal
p3767
(dp3768
S'part4_incorrect_attempt'
p3769
(lp3770
(S'0:02:06'
p3771
V((11*10)/2)/12*11
p3772
tp3773
asS'part2_correct_attempt'
p3774
(lp3775
S'0:01:15'
p3776
ag2718
asS'part4_correct_attempt'
p3777
(lp3778
S'0:02:21'
p3779
aV((11*10)/2)/(12*11)
p3780
asS'part3_correct_attempt'
p3781
(lp3782
S'0:02:06'
p3783
ag2714
asS'part1_correct_attempt'
p3784
(lp3785
S'0:00:00'
p3786
ag2722
asg9
g2723
ssVrraiyyan
p3787
(dp3788
S'part4_incorrect_attempt'
p3789
(lp3790
(S'0:08:31'
p3791
VC(11,2)*14*13/(C(15,3))
p3792
tp3793
asS'part2_correct_attempt'
p3794
(lp3795
S'0:03:24'
p3796
ag2524
asS'part4_correct_attempt'
p3797
(lp3798
S'0:12:11'
p3799
aVC(11,2)/(14*13)
p3800
asS'part3_correct_attempt'
p3801
(lp3802
S'0:06:22'
p3803
ag2520
asS'part1_correct_attempt'
p3804
(lp3805
S'0:00:00'
p3806
ag2528
asg9
g2529
ssVjfalcone
p3807
(dp3808
S'part4_incorrect_attempt'
p3809
(lp3810
(S'0:02:49'
p3811
V182/66
p3812
tp3813
asS'part2_correct_attempt'
p3814
(lp3815
S'0:01:21'
p3816
aV8
p3817
asS'part4_correct_attempt'
p3818
(lp3819
S'0:03:23'
p3820
aV(12)*(11)/2/182
p3821
asS'part3_correct_attempt'
p3822
(lp3823
S'0:02:20'
p3824
aV(12)*(11)/2
p3825
asS'part1_correct_attempt'
p3826
(lp3827
S'0:00:00'
p3828
aV(14)(13)
p3829
asg9
V2015-10-22 20:11:11
p3830
ssVhak014
p3831
(dp3832
S'part4_incorrect_attempt'
p3833
(lp3834
(S'0:02:42'
p3835
V21/14*13
p3836
tp3837
asS'part2_correct_attempt'
p3838
(lp3839
S'0:00:36'
p3840
aV1
p3841
asS'part4_correct_attempt'
p3842
(lp3843
S'0:04:26'
p3844
aV21/(14*13)
p3845
asS'part3_correct_attempt'
p3846
(lp3847
S'0:02:23'
p3848
aV21
p3849
asS'part1_correct_attempt'
p3850
(lp3851
S'0:00:00'
p3852
aV14*13
p3853
asg9
V2015-10-20 07:53:56
p3854
ssVjcj006
p3855
(dp3856
S'part4_incorrect_attempt'
p3857
(lp3858
(S'0:00:00'
p3859
V1+2+3+4+5+6+7/(15*14)
p3860
tp3861
asS'part2_correct_attempt'
p3862
(lp3863
S'0:00:00'
p3864
aV1
p3865
asS'part4_correct_attempt'
p3866
(lp3867
S'0:00:10'
p3868
aV(1+2+3+4+5+6+7)/(15*14)
p3869
asS'part3_correct_attempt'
p3870
(lp3871
S'0:00:00'
p3872
aV1+2+3+4+5+6+7
p3873
asS'part1_correct_attempt'
p3874
(lp3875
S'0:00:00'
p3876
aV15*14
p3877
asg9
V2015-10-21 23:04:57
p3878
ssVachinn
p3879
(dp3880
S'part4_incorrect_attempt'
p3881
(lp3882
(S'0:16:02'
p3883
V(65/15!)/((14*13)/15!)
p3884
tp3885
a(S'0:16:35'
p3886
V(65/(15*14*13))/((14*13)/(15*14*13))
p3887
tp3888
asS'part2_correct_attempt'
p3889
(lp3890
S'0:05:48'
p3891
ag2415
asS'part4_correct_attempt'
p3892
(lp3893
S'0:16:56'
p3894
aV(55/(15*14*13))/((14*13)/(15*14*13))
p3895
asS'part3_correct_attempt'
p3896
(lp3897
S'0:11:52'
p3898
ag2411
asS'part1_correct_attempt'
p3899
(lp3900
S'0:00:00'
p3901
ag2419
asg9
g2420
ssVjcl084
p3902
(dp3903
S'part4_incorrect_attempt'
p3904
(lp3905
(S'0:02:01'
p3906
V9*8/2/11*12
p3907
tp3908
asS'part2_correct_attempt'
p3909
(lp3910
S'0:00:43'
p3911
aV10-4-1
p3912
asS'part4_correct_attempt'
p3913
(lp3914
S'0:02:17'
p3915
aV(9*8/2)/(11*12)
p3916
asS'part3_correct_attempt'
p3917
(lp3918
S'0:01:28'
p3919
aV9*8/2
p3920
asS'part1_correct_attempt'
p3921
(lp3922
S'0:00:00'
p3923
aV11*12
p3924
asg9
V2015-10-20 03:02:56
p3925
ssVaakumar
p3926
(dp3927
S'part4_incorrect_attempt'
p3928
(lp3929
(S'0:40:02'
p3930
V36/12*11
p3931
tp3932
asS'part2_correct_attempt'
p3933
(lp3934
S'0:00:55'
p3935
aV3
p3936
asS'part4_correct_attempt'
p3937
(lp3938
S'0:40:14'
p3939
aV36/132
p3940
asS'part3_correct_attempt'
p3941
(lp3942
S'0:39:44'
p3943
aV36
p3944
asS'part1_correct_attempt'
p3945
(lp3946
S'0:00:00'
p3947
aV12*11
p3948
asg9
V2015-10-19 23:21:21
p3949
ssVthwan
p3950
(dp3951
S'part4_incorrect_attempt'
p3952
(lp3953
(S'0:03:39'
p3954
V45/15*14
p3955
tp3956
asS'part2_correct_attempt'
p3957
(lp3958
S'0:00:40'
p3959
aV2
p3960
asS'part4_correct_attempt'
p3961
(lp3962
S'0:03:59'
p3963
aV45/(15*14)
p3964
asS'part3_correct_attempt'
p3965
(lp3966
S'0:03:39'
p3967
aV45
p3968
asS'part1_correct_attempt'
p3969
(lp3970
S'0:00:00'
p3971
aV15*14
p3972
asg9
V2015-10-19 17:00:29
p3973
ssVeaherman
p3974
(dp3975
S'part4_incorrect_attempt'
p3976
(lp3977
(S'0:21:03'
p3978
V28/22(11)
p3979
tp3980
asS'part2_correct_attempt'
p3981
(lp3982
S'0:05:12'
p3983
ag2015
asS'part4_correct_attempt'
p3984
(lp3985
S'0:22:04'
p3986
aV28/[12(11)]
p3987
asS'part3_correct_attempt'
p3988
(lp3989
S'0:20:43'
p3990
ag2011
asS'part1_correct_attempt'
p3991
(lp3992
S'0:00:00'
p3993
ag2019
asg9
g2020
ssVedcole
p3994
(dp3995
S'part4_incorrect_attempt'
p3996
(lp3997
(S'0:06:29'
p3998
V(10+9+8+7+6+5+4+3+2+1)/12*11
p3999
tp4000
asS'part2_correct_attempt'
p4001
(lp4002
S'0:02:52'
p4003
ag2894
asS'part4_correct_attempt'
p4004
(lp4005
S'0:06:39'
p4006
aV(10+9+8+7+6+5+4+3+2+1)/(12*11)
p4007
asS'part3_correct_attempt'
p4008
(lp4009
S'0:05:14'
p4010
ag2890
asS'part1_correct_attempt'
p4011
(lp4012
S'0:00:00'
p4013
ag1611
asg9
g2898
ssVrbdoming
p4014
(dp4015
S'part4_incorrect_attempt'
p4016
(lp4017
(S'0:00:13'
p4018
V121/45
p4019
tp4020
asS'part2_correct_attempt'
p4021
(lp4022
S'-1 day, 23:42:43'
p4023
aV8
p4024
asS'part4_correct_attempt'
p4025
(lp4026
S'0:00:46'
p4027
aV45/132
p4028
asS'part3_correct_attempt'
p4029
(lp4030
S'-1 day, 23:43:22'
p4031
aVC(10,2)
p4032
asS'part1_correct_attempt'
p4033
(lp4034
S'0:00:00'
p4035
ag801
asg9
V2015-10-21 05:00:11
p4036
ssVmitopete
p4037
(dp4038
S'part4_incorrect_attempt'
p4039
(lp4040
(S'0:13:41'
p4041
V(36/(C(9,2)))/((P(14,2))/(C(14,2)))
p4042
tp4043
a(S'0:35:13'
p4044
V(36/120)/(P(14,2)/P(15,2))
p4045
tp4046
a(S'0:37:36'
p4047
V(36/44)/(P(14,2)/P(15,2))
p4048
tp4049
asS'part3_correct_attempt'
p4050
(lp4051
S'0:06:30'
p4052
aV36
p4053
asS'part2_correct_attempt'
p4054
(lp4055
S'-1 day, 21:58:52'
p4056
aV5
p4057
asS'part1_correct_attempt'
p4058
(lp4059
S'0:00:00'
p4060
ag474
asg9
V2015-10-22 01:41:02
p4061
ssVzhz159
p4062
(dp4063
S'part4_incorrect_attempt'
p4064
(lp4065
(S'0:00:58'
p4066
V0.314857
p4067
tp4068
asS'part2_correct_attempt'
p4069
(lp4070
S'0:00:00'
p4071
aV1
p4072
asS'part4_correct_attempt'
p4073
(lp4074
S'0:01:17'
p4075
aV0.3142857
p4076
asS'part3_correct_attempt'
p4077
(lp4078
S'0:00:58'
p4079
aV66
p4080
asS'part1_correct_attempt'
p4081
(lp4082
S'0:00:00'
p4083
aV210
p4084
asg9
V2015-10-22 04:20:01
p4085
ssVqfu
p4086
(dp4087
S'part4_incorrect_attempt'
p4088
(lp4089
(S'0:00:00'
p4090
V55/12*11
p4091
tp4092
asS'part2_correct_attempt'
p4093
(lp4094
S'-1 day, 23:56:04'
p4095
aV7
p4096
asS'part4_correct_attempt'
p4097
(lp4098
S'0:00:13'
p4099
aV55/(12*11)
p4100
asS'part3_correct_attempt'
p4101
(lp4102
S'-1 day, 23:58:51'
p4103
aV55
p4104
asS'part1_correct_attempt'
p4105
(lp4106
S'0:00:00'
p4107
ag831
asg9
V2015-10-16 03:30:06
p4108
ssVk3tan
p4109
(dp4110
S'part4_incorrect_attempt'
p4111
(lp4112
(S'0:53:03'
p4113
V21/15*14
p4114
tp4115
asS'part2_correct_attempt'
p4116
(lp4117
S'0:00:13'
p4118
ag3321
asS'part4_correct_attempt'
p4119
(lp4120
S'0:53:23'
p4121
aV21/210
p4122
asS'part3_correct_attempt'
p4123
(lp4124
S'0:52:51'
p4125
ag3317
asS'part1_correct_attempt'
p4126
(lp4127
S'0:00:00'
p4128
ag903
asg9
g3325
ssVj2phung
p4129
(dp4130
S'part4_incorrect_attempt'
p4131
(lp4132
(S'0:19:10'
p4133
V(36/210)/(2/210)
p4134
tp4135
asS'part2_correct_attempt'
p4136
(lp4137
S'0:01:16'
p4138
ag3346
asS'part4_correct_attempt'
p4139
(lp4140
S'0:22:29'
p4141
aV36/210
p4142
asS'part3_correct_attempt'
p4143
(lp4144
S'0:17:19'
p4145
ag3342
asS'part1_correct_attempt'
p4146
(lp4147
S'0:00:00'
p4148
ag3350
asg9
g3351
sss.