(dp0
S'1'
p1
(dp2
S'Joonhan'
p3
(dp4
S'part1_correct_attempt'
p5
(lp6
S'0:04:43'
p7
aV(1/8)+(2/8)+(3/8)+(4/8)+(5/8)+(6/8)+(7/8)+(8/8)
p8
asS'first_attempt'
p9
V2016-11-02 19:35:55
p10
sS'part1_incorrect_attempt'
p11
(lp12
(S'0:00:00'
p13
V4.45
p14
tp15
assS'jar045'
p16
(dp17
S'part1_correct_attempt'
p18
(lp19
S'0:04:59'
p20
aV7*(7+1)/(2*7)
p21
asg9
V2016-11-01 04:43:24
p22
sS'part1_incorrect_attempt'
p23
(lp24
(S'0:00:00'
p25
V6*(6+1)
p26
tp27
assS'zow006'
p28
(dp29
S'part1_correct_attempt'
p30
(lp31
S'0:02:51'
p32
aV(1+2+3+4+5+6+7+8)/8
p33
asg9
V2016-11-01 22:40:16
p34
sS'part1_incorrect_attempt'
p35
(lp36
(S'0:00:00'
p37
V(1+2+3+4+5+6+7+8+9)/9
p38
tp39
assS'SothyrakSrey'
p40
(dp41
g9
V2016-11-01 21:53:08
p42
sS'part1_incorrect_attempt'
p43
(lp44
(S'0:00:00'
p45
V(0.5*1)+(0.5*2)+(0.5*3)+(0.5*4)+(0.5*5)+(0.5*6)
p46
tp47
assS'christhoperbernard'
p48
(dp49
S'part1_correct_attempt'
p50
(lp51
S'0:08:53'
p52
aV1/6+2/6+3/6+4/6+5/6+6/6
p53
asg9
V2016-11-02 19:58:28
p54
sS'part1_incorrect_attempt'
p55
(lp56
(S'0:00:00'
p57
V1/6+2/6+3/6+5/6+6/6
p58
tp59
asssS'3'
p60
(dp61
S'ray003'
p62
(dp63
S'part3_correct_attempt'
p64
(lp65
S'0:00:00'
p66
aV(45/9)*2+(48.6/9)*4
p67
asS'part3_incorrect_attempt'
p68
(lp69
(S'-1 day, 23:54:15'
p70
V225/30
p71
tp72
a(S'-1 day, 23:57:53'
p73
V93.6/9
p74
tp75
asg9
V2016-11-01 22:09:54
p76
ssS'NicoleStone'
p77
(dp78
S'part3_correct_attempt'
p79
(lp80
S'0:00:00'
p81
aV(3*4.5)+(2*((1+2+3+4+5+6+7+8+8)/9))
p82
asS'part3_incorrect_attempt'
p83
(lp84
(S'-1 day, 23:52:55'
p85
V21.714
p86
tp87
asg9
V2016-11-02 20:43:53
p88
ssS'vincebai'
p89
(dp90
S'part3_correct_attempt'
p91
(lp92
S'0:00:00'
p93
aV26.2
p94
asS'part3_incorrect_attempt'
p95
(lp96
(S'-1 day, 23:54:05'
p97
V28.5
p98
tp99
asg9
V2016-11-01 08:12:49
p100
ssS'Ankush_Sarow'
p101
(dp102
S'part3_correct_attempt'
p103
(lp104
S'0:00:00'
p105
aV4 * (1/8 + 2/8 + 3/8 + 4/8 + 5/8 + 6/8 + 7/8 + 8/8) + 3 * (1/9 + 2/9 + 3/9 + 4/9 + 5/9 + 6/9 + 7/9 + 16/9)
p106
asS'part3_incorrect_attempt'
p107
(lp108
(S'-1 day, 23:48:27'
p109
V1/7 + 2/7 + 3/7 + 4/7 + 5/7 + 6/7 + 7/7 + 1/8 + 2/8 + 3/8 + 4/8 + 5/8 + 6/8 + 7/4
p110
tp111
asg9
V2016-11-01 23:13:01
p112
ssS'maxcjx'
p113
(dp114
S'part3_correct_attempt'
p115
(lp116
S'0:00:00'
p117
aV4.5*4+((1+7)*(7/2)*(1/9)+8*(2/9))*4
p118
asS'part3_incorrect_attempt'
p119
(lp120
(S'-1 day, 23:57:56'
p121
V4.5*2+(1+7)*(7/2)*(1/9)+8*(2/9)*4
p122
tp123
a(S'-1 day, 23:58:43'
p124
V4.5*2+((1+7)*(7/2)*(1/9)+8*(2/9))*4
p125
tp126
asg9
V2016-10-30 23:34:13
p127
ssg28
(dp128
S'part3_correct_attempt'
p129
(lp130
S'0:00:00'
p131
aV2*9/2+2*44/9
p132
asS'part3_incorrect_attempt'
p133
(lp134
(S'-1 day, 23:57:09'
p135
V3*5+4*5.4
p136
tp137
asg9
V2016-11-01 22:43:07
p138
ssS'evahuynh'
p139
(dp140
S'part3_correct_attempt'
p141
(lp142
S'0:00:00'
p143
aV(2*((1+2+3+4+5+6+7+8)/8))+(4*(((1+2+3+4+5+6+7)/9)+(16/9)))
p144
asS'part3_incorrect_attempt'
p145
(lp146
(S'-1 day, 22:52:43'
p147
V5+5.4
p148
tp149
a(S'-1 day, 23:05:15'
p150
V17.7857
p151
tp152
a(S'-1 day, 23:08:25'
p153
V(3.5*4)+(2.43*2)
p154
tp155
a(S'-1 day, 23:14:12'
p156
V(3.5*4)+(3.857*2)
p157
tp158
asg9
V2016-10-31 19:11:00
p159
ssS'Zhongting'
p160
(dp161
S'part3_correct_attempt'
p162
(lp163
S'0:00:00'
p164
aV18+44*4/9
p165
asS'part3_incorrect_attempt'
p166
(lp167
(S'-1 day, 23:52:58'
p168
V15+4*27/5
p169
tp170
a(S'-1 day, 23:58:41'
p171
V9+44/3
p172
tp173
asg9
V2016-10-30 09:24:13
p174
ssS'MattBowen96'
p175
(dp176
S'part3_correct_attempt'
p177
(lp178
S'0:00:00'
p179
aV(4*((1+2+3+4+5+6+7) / 8) + ((2/8) * 8)) + (2 * 4.5)
p180
asS'part3_incorrect_attempt'
p181
(lp182
(S'-1 day, 23:55:46'
p183
V14 + 15.44
p184
tp185
a(S'0:00:00'
p186
V(4*((1+2+3+4+5+6+7) / 8) + ((2/8) * 8)) + (2 * 4.5)
p187
tp188
asg9
V2016-11-02 07:44:44
p189
ssS'Jisu'
p190
(dp191
S'part3_correct_attempt'
p192
(lp193
S'0:00:00'
p194
aV3*7*(7+1)/(2*7)+3*(2*7/(7+1)+(7*(7-1))/(2*(7+1)))
p195
asS'part3_incorrect_attempt'
p196
(lp197
(S'-1 day, 23:45:10'
p198
V3*6*(6+1)/(2*6)+2*(2*6/6+1)+(6*(6-1))/(2*(6+1))
p199
tp200
a(S'-1 day, 23:56:20'
p201
V3*6*(6+1)/(2*6)+3*(2*6/6+1)+(6*(6-1))/(2*(6+1))
p202
tp203
asg9
V2016-10-29 20:16:38
p204
ssS'srrozen'
p205
(dp206
S'part3_correct_attempt'
p207
(lp208
S'0:00:00'
p209
aV(2*((1/8)+(2/8)+(3/8)+(4/8)+(5/8)+(6/8)+(7/8)+1))+(2*((1/9)+(2/9)+(3/9)+(4/9)+(5/9)+(6/9)+(7/9)+(16/9)))
p210
asS'part3_incorrect_attempt'
p211
(lp212
(S'-1 day, 23:52:47'
p213
V(4*((1/6)+(2/6)+(3/6)+(4/6)+(5/6)+1))+(3*((1/27)+(2/27)+(3/27)+(4/27)+(5/27)+(12/27)))
p214
tp215
asg9
V2016-11-01 21:53:37
p216
ssS'mhatch'
p217
(dp218
S'part3_correct_attempt'
p219
(lp220
S'0:00:00'
p221
aV3 * 4.5 + 2 * (1/9 + 2/9 + 3/9 + 4/9 + 5/9 + 6/9 + 7/9 + 16/9)
p222
asS'part3_incorrect_attempt'
p223
(lp224
(S'-1 day, 23:53:25'
p225
V3 * (1/7 + 2/7 + 3/7 + 4/7 + 5/7 + 12/7) + 4 * 3.5
p226
tp227
a(S'-1 day, 23:57:40'
p228
V4 * (1/9 + 2/9 + 3/9 + 4/9 + 5/9 + 6/9 + 7/9 + 8/9 + 1) + 4 * ( 1/11 + 2/11 + 3/11 + 4/11 + 5/11 + 6/11 + 7/11 + 8/11 + 18/11)
p229
tp230
asg9
V2016-11-02 03:12:19
p231
ssS'rsamuail'
p232
(dp233
S'part3_correct_attempt'
p234
(lp235
S'0:00:00'
p236
aV3*(1/7*(1+2+3+4+5+6+7))+3*(1/8*(1+2+3+4+5+6+2*(7)))
p237
asS'part3_incorrect_attempt'
p238
(lp239
(S'-1 day, 9:19:33'
p240
V38.625
p241
tp242
asg9
V2016-11-02 18:28:00
p243
ssS'mtashman'
p244
(dp245
S'part3_correct_attempt'
p246
(lp247
S'0:00:00'
p248
aV12+(4(35/8))
p249
asS'part3_incorrect_attempt'
p250
(lp251
(S'-1 day, 23:35:39'
p252
V((3.5*3)+(4.5*4))/7
p253
tp254
a(S'-1 day, 23:52:16'
p255
V((3.5*3)+(3.85*4))/7
p256
tp257
a(S'-1 day, 23:57:13'
p258
V29.875
p259
tp260
asg9
V2016-10-30 19:22:40
p261
ssS'ThuanNguyen'
p262
(dp263
S'part3_correct_attempt'
p264
(lp265
S'0:00:00'
p266
aV208/5
p267
asS'part3_incorrect_attempt'
p268
(lp269
(S'-1 day, 23:53:43'
p270
V152/7
p271
tp272
a(S'-1 day, 23:55:08'
p273
V154/5
p274
tp275
asg9
V2016-11-02 03:56:32
p276
ssS'A4chau'
p277
(dp278
S'part3_correct_attempt'
p279
(lp280
S'0:00:00'
p281
aV2*((1/6)+(2/6)+(3/6)+(4/6)+(5/6)+1) + 3*((1/7)+(2/7)+(3/7)+(4/7)+(5/7)+(6/7)+(6/7))
p282
asS'part3_incorrect_attempt'
p283
(lp284
(S'-1 day, 23:55:39'
p285
V2*((1/7)+(2/7)+(3/7)+(4/7)+(5/7)+(6/7)+1) + 2*((1/8)+(2/8)+(3/8)+(4/8)+(5/8)+(6/8)+(2/8))
p286
tp287
a(S'-1 day, 23:57:42'
p288
V4*((1/7)+(2/7)+(3/7)+(4/7)+(5/7)+(6/7)+1)+4*((1/7)+(2/7)+(3/7)+(4/7)+(5/7)+(6/7)+2)
p289
tp290
asg9
V2016-11-02 05:01:43
p291
ssS'tommyt1109'
p292
(dp293
S'part3_correct_attempt'
p294
(lp295
S'0:00:00'
p296
aV3*((1*1/6)+(2*1/6)+(3*1/6)+(4*1/6)+(5*1/6)+(6*1/6))+((1*1/7)+(2*1/7)+(3*1/7)+(4*1/7)+(5*1/7)+(6*2/7))*4
p297
asS'part3_incorrect_attempt'
p298
(lp299
(S'-1 day, 23:57:48'
p300
V3*((1*1/9)+(2*1/9)+(3*1/9)+(4*1/9)+(5*1/9)+(6*1/9)+(7*1/9)+(8*1/9)+(9*1/9))+((1*1/10)+(2*1/10)+(3*1/10)+(4*1/10)+(5*1/10)+(6*1/10)+(7*1/10)+(8*1/10)+(9*2/10))*2
p301
tp302
asg9
V2016-11-02 06:39:47
p303
sssS'2'
p304
(dp305
S'codyndoan'
p306
(dp307
S'part2_correct_attempt'
p308
(lp309
S'0:00:00'
p310
aV1*(1/10) + 2*(1/10) + 3*(1/10) + 4*(1/10) + 5*(1/10) + 6*(1/10) + 7*(1/10) + 8*(1/10) + 9*(2/10)
p311
asg9
V2016-11-02 18:41:47
p312
sS'part2_incorrect_attempt'
p313
(lp314
(S'-1 day, 23:54:58'
p315
V1*(1/8) + 2*(1/8) + 3*(1/8) + 4*(1/8) + 5*(1/8) + 6*(1/8) + 7*(1/8) + 8*(2/8)
p316
tp317
assg62
(dp318
S'part2_correct_attempt'
p319
(lp320
S'0:00:00'
p321
aV48.6/9
p322
asg9
g76
sS'part2_incorrect_attempt'
p323
(lp324
(S'-1 day, 23:54:15'
p325
V120/30
p326
tp327
assg160
(dp328
S'part2_correct_attempt'
p329
(lp330
S'0:00:00'
p331
aV44/9
p332
asg9
g174
sS'part2_incorrect_attempt'
p333
(lp334
(S'-1 day, 23:52:58'
p335
V27/5
p336
tp337
assS'Ian'
p338
(dp339
S'part2_correct_attempt'
p340
(lp341
S'0:00:00'
p342
aV1/8 + 2/8 + 3/8 + 4/8 + 5/8 + 6/8 + 14/8
p343
asg9
V2016-11-02 01:42:57
p344
sS'part2_incorrect_attempt'
p345
(lp346
(S'-1 day, 21:42:32'
p347
V.11+.11*2+.11*3+.11*4+.11*5+.11*6+.11*7+.22*8
p348
tp349
assg77
(dp350
S'part2_correct_attempt'
p351
(lp352
S'0:00:00'
p353
aV(1+2+3+4+5+6+7+8+8)/9
p354
asg9
g88
sS'part2_incorrect_attempt'
p355
(lp356
(S'-1 day, 23:52:55'
p357
V3.857
p358
tp359
assg89
(dp360
S'part2_correct_attempt'
p361
(lp362
S'0:00:00'
p363
aV5.4
p364
asg9
g100
sS'part2_incorrect_attempt'
p365
(lp366
(S'-1 day, 23:54:05'
p367
V5.5
p368
tp369
assg48
(dp370
S'part2_correct_attempt'
p371
(lp372
S'0:00:00'
p373
aV1/7+2/7+3/7+4/7+5/7+12/7
p374
asg9
V2016-11-02 20:07:21
p375
sS'part2_incorrect_attempt'
p376
(lp377
(S'-1 day, 23:51:07'
p378
V1/7+2/7+3/7+5/7+12/7
p379
tp380
assg28
(dp381
S'part2_correct_attempt'
p382
(lp383
S'0:00:00'
p384
aV((1+2+3+4+5+6+7)/9)+8*(2/9)
p385
asg9
g138
sS'part2_incorrect_attempt'
p386
(lp387
(S'-1 day, 23:57:09'
p388
V0.1(1+2+3+4+5+6+7+8)+0.2*9
p389
tp390
assS'evahuynh'
p391
(dp392
S'part2_correct_attempt'
p393
(lp394
S'0:00:00'
p395
aV((1+2+3+4+5+6+7)/9)+(16/9)
p396
asg9
g159
sS'part2_incorrect_attempt'
p397
(lp398
(S'-1 day, 23:05:15'
p399
V2.4285
p400
tp401
a(S'-1 day, 23:08:25'
p402
V2.43
p403
tp404
a(S'-1 day, 23:14:12'
p405
V3.857
p406
tp407
a(S'-1 day, 23:16:21'
p408
V3.85
p409
tp410
a(S'-1 day, 23:18:07'
p411
V4.89
p412
tp413
assS'Joonhan'
p414
(dp415
S'part2_correct_attempt'
p416
(lp417
S'0:00:00'
p418
aV(1/9)+(2/9)+(3/9)+(4/9)+(5/9)+(6/9)+(7/9)+(16/9)
p419
asg9
V2016-11-02 19:40:38
p420
sS'part2_incorrect_attempt'
p421
(lp422
(S'-1 day, 23:35:03'
p423
V(1/9)+(2/9)+(3/9)+(4/9) +(5/9)+(6/9)+(7/9)+(8/9)+2
p424
tp425
assg175
(dp426
S'part2_correct_attempt'
p427
(lp428
S'0:00:00'
p429
aV((1+2+3+4+5+6+7) / 8) + ((2/8) * 8)
p430
asg9
g189
sS'part2_incorrect_attempt'
p431
(lp432
(S'-1 day, 23:55:46'
p433
V3.86
p434
tp435
a(S'-1 day, 23:58:21'
p436
V3.857
p437
tp438
a(S'0:00:00'
p439
V((1+2+3+4+5+6+7) / 8) + ((2/8) * 8)
p440
tp441
assS'srrozen'
p442
(dp443
S'part2_correct_attempt'
p444
(lp445
S'0:00:00'
p446
aV(1/9)+(2/9)+(3/9)+(4/9)+(5/9)+(6/9)+(7/9)+(16/9)
p447
asg9
g216
sS'part2_incorrect_attempt'
p448
(lp449
(S'-1 day, 23:37:27'
p450
V(1/6)+(2/6)+(3/6)+(4/6)+(5/6)+2
p451
tp452
a(S'-1 day, 23:52:47'
p453
V(1/27)+(2/27)+(3/27)+(4/27)+(5/27)+(12/27)
p454
tp455
assS'mhatch'
p456
(dp457
S'part2_correct_attempt'
p458
(lp459
S'0:00:00'
p460
aV1/9 + 2/9 + 3/9 + 4/9 + 5/9 + 6/9 + 7/9 + 16/9
p461
asg9
g231
sS'part2_incorrect_attempt'
p462
(lp463
(S'-1 day, 23:47:55'
p464
V2/15 + 4/15 + 6/15 + 8/15 + 10/15 + 2
p465
tp466
a(S'-1 day, 23:57:40'
p467
V1/11 + 2/11 + 3/11 + 4/11 + 5/11 + 6/11 + 7/11 + 8/11 + 18/11
p468
tp469
assS'rsamuail'
p470
(dp471
S'part2_correct_attempt'
p472
(lp473
S'0:00:00'
p474
aV1/8*(1+2+3+4+5+6+2*(7))
p475
asg9
g243
sS'part2_incorrect_attempt'
p476
(lp477
(S'-1 day, 23:49:37'
p478
V1/9*(1+2+3+4+5+6+7+8)+2*9
p479
tp480
assg244
(dp481
S'part2_correct_attempt'
p482
(lp483
S'0:00:00'
p484
aV35/8
p485
asg9
g261
sS'part2_incorrect_attempt'
p486
(lp487
(S'-1 day, 23:35:39'
p488
V4.5
p489
tp490
a(S'-1 day, 23:52:16'
p491
V3.85
p492
tp493
assg277
(dp494
S'part2_correct_attempt'
p495
(lp496
S'0:00:00'
p497
aV(1/7)+(2/7)+(3/7)+(4/7)+(5/7)+(6/7)+(6/7)
p498
asg9
g291
sS'part2_incorrect_attempt'
p499
(lp500
(S'-1 day, 23:55:39'
p501
V(1/8)+(2/8)+(3/8)+(4/8)+(5/8)+(6/8)+(2/8)
p502
tp503
a(S'-1 day, 23:57:42'
p504
V(1/7)+(2/7)+(3/7)+(4/7)+(5/7)+(6/7)+2
p505
tp506
assS'tommyt1109'
p507
(dp508
S'part2_correct_attempt'
p509
(lp510
S'0:00:00'
p511
aV(1*1/7)+(2*1/7)+(3*1/7)+(4*1/7)+(5*1/7)+(6*2/7)
p512
asg9
g303
sS'part2_incorrect_attempt'
p513
(lp514
(S'-1 day, 23:53:18'
p515
V(1*1/8)+(2*1/8)+(3*1/8)+(4*1/8)+(5*1/8)+(6*1/8)+(7*1/8)+(8*1/4)
p516
tp517
asssS'4'
p518
(dp519
g77
(dp520
S'part4_correct_attempt'
p521
(lp522
S'0:00:00'
p523
aV((3*4.5)+(2*((1+2+3+4+5+6+7+8+8)/9)))/.4
p524
asS'part4_incorrect_attempt'
p525
(lp526
(S'-1 day, 23:52:55'
p527
V108.57
p528
tp529
asg9
g88
ssg89
(dp530
S'part4_correct_attempt'
p531
(lp532
S'0:00:00'
p533
aV26.2/.3
p534
asS'part4_incorrect_attempt'
p535
(lp536
(S'-1 day, 23:54:05'
p537
V0.3/(1/8)^5
p538
tp539
asg9
g100
ssg139
(dp540
S'part4_correct_attempt'
p541
(lp542
S'0:00:00'
p543
aV((2*((1+2+3+4+5+6+7+8)/8))+(4*(((1+2+3+4+5+6+7)/9)+(16/9))))/0.2
p544
asS'part4_incorrect_attempt'
p545
(lp546
(S'-1 day, 22:52:43'
p547
V34.66666
p548
tp549
a(S'-1 day, 23:14:12'
p550
V211.74
p551
tp552
a(S'-1 day, 23:57:24'
p553
V((1+2+3+4+5+6)/6)+(((1+2+3+4+5)/7)+(12/7))/0.4
p554
tp555
asg9
g159
ssg175
(dp556
S'part4_correct_attempt'
p557
(lp558
S'0:00:00'
p559
aV(4*((1+2+3+4+5+6+7) / 8) + ((2/8) * 8)) + (2 * 4.5) / .1
p560
asS'part4_incorrect_attempt'
p561
(lp562
(S'-1 day, 23:55:46'
p563
V294.4
p564
tp565
a(S'0:00:00'
p566
V(4*((1+2+3+4+5+6+7) / 8) + ((2/8) * 8)) + (2 * 4.5) / .1
p567
tp568
asg9
g189
ssS'srrozen'
p569
(dp570
S'part4_correct_attempt'
p571
(lp572
S'0:00:00'
p573
aV((2*((1/8)+(2/8)+(3/8)+(4/8)+(5/8)+(6/8)+(7/8)+1))+(2*((1/9)+(2/9)+(3/9)+(4/9)+(5/9)+(6/9)+(7/9)+(16/9))))/0.2
p574
asS'part4_incorrect_attempt'
p575
(lp576
(S'-1 day, 23:57:32'
p577
V(3*((1/8)+(2/8)+(3/8)+(4/8)+(5/8)+(6/8)+(7/8)+1))+(2*((1/9)+(2/9)+(3/9)+(4/9)+(5/9)+(6/9)+(7/9)+(16/9)))/0.5
p578
tp579
asg9
g216
ssg232
(dp580
S'part4_correct_attempt'
p581
(lp582
S'0:00:00'
p583
aV(3*(1/7*(1+2+3+4+5+6+7))+3*(1/8*(1+2+3+4+5+6+2*(7))))/0.3
p584
asS'part4_incorrect_attempt'
p585
(lp586
(S'-1 day, 9:19:33'
p587
V.2
p588
tp589
a(S'-1 day, 9:20:12'
p590
V.1
p591
tp592
a(S'-1 day, 23:56:39'
p593
V2*(1/9*(1+2+3+4+5+6+7+8+9))+4*(1/10*(1+2+3+4+5+6+7+8+2*(9)))/0.1
p594
tp595
asg9
g243
ssS'twsalim'
p596
(dp597
S'part4_correct_attempt'
p598
(lp599
S'0:00:00'
p600
aV( 3*( (8*9)/2*(1/8) ) + 3*( (28/9) + (16/9) ) ) / ( 0.5 )
p601
asS'part4_incorrect_attempt'
p602
(lp603
(S'-1 day, 23:49:14'
p604
V41.875
p605
tp606
asg9
V2016-11-01 19:32:44
p607
ssg262
(dp608
S'part4_correct_attempt'
p609
(lp610
S'0:00:00'
p611
aV416/5
p612
asS'part4_incorrect_attempt'
p613
(lp614
(S'-1 day, 23:53:43'
p615
V76/7
p616
tp617
a(S'-1 day, 23:55:08'
p618
V77/5
p619
tp620
asg9
g276
ssg277
(dp621
S'part4_correct_attempt'
p622
(lp623
S'0:00:00'
p624
aV(2*((1/6)+(2/6)+(3/6)+(4/6)+(5/6)+1) + 3*((1/7)+(2/7)+(3/7)+(4/7)+(5/7)+(6/7)+(6/7)))/(0.4)
p625
asS'part4_incorrect_attempt'
p626
(lp627
(S'-1 day, 23:55:39'
p628
V34.375
p629
tp630
asg9
g291
ssg244
(dp631
S'part4_correct_attempt'
p632
(lp633
S'0:00:00'
p634
aV59
p635
asS'part4_incorrect_attempt'
p636
(lp637
(S'-1 day, 23:35:39'
p638
V3.5
p639
tp640
a(S'-1 day, 23:52:16'
p641
V64.75
p642
tp643
asg9
g261
sss.