(dp0
S'1'
p1
ccollections
defaultdict
p2
(c__builtin__
list
p3
tp4
Rp5
S'Digits'
p6
(lp7
(S'(1-(1/2^2))*100'
p8
V23
p9
tp10
a(S'(1-(1/2^2))*100'
p11
V25
p12
tp13
a(S'(1-(1/2^2))*100'
p14
V95
p15
tp16
a(S'(1-(1/2^2))*100'
p17
V25
p18
tp19
a(S'(1-(1/2^2))*100'
p20
V25
p21
tp22
a(S'(1-(1/2^2))*100'
p23
V0
p24
tp25
a(S'(1-(1/2^2))*100'
p26
V50
p27
tp28
a(S'(1-(1/2^2))*100'
p29
V68
p30
tp31
a(S'(1-(1/2^2))*100'
p32
V95
p33
tp34
a(S'(1-(1/2^2))*100'
p35
V25
p36
tp37
a(S'(1-(1/2^2))*100'
p38
V25
p39
tp40
a(S'(1-(1/2^2))*100'
p41
V25
p42
tp43
a(S'(1-(1/2^2))*100'
p44
V0
p45
tp46
a(S'(1-(1/2^2))*100'
p47
V25
p48
tp49
a(S'(1-(1/2^2))*100'
p50
V50
p51
tp52
a(S'(1-(1/2^2))*100'
p53
V13
p54
tp55
a(S'(1-(1/2^2))*100'
p56
V12
p57
tp58
a(S'(1-(1/2^2))*100'
p59
V1
p60
tp61
a(S'(1-(1/2^2))*100'
p62
V50
p63
tp64
a(S'(1-(1/2^2))*100'
p65
V0
p66
tp67
a(S'(1-(1/2^2))*100'
p68
V25
p69
tp70
a(S'(1-(1/2^2))*100'
p71
V25
p72
tp73
a(S'(1-(1/2^2))*100'
p74
V25
p75
tp76
a(S'(1-(1/2^2))*100'
p77
V50
p78
tp79
a(S'(1-(1/2^2))*100'
p80
V0
p81
tp82
a(S'(1-(1/2^2))*100'
p83
V91
p84
tp85
a(S'(1-(1/2^2))*100'
p86
V25
p87
tp88
a(S'(1-(1/2^2))*100'
p89
V1
p90
tp91
a(S'(1-(1/2^2))*100'
p92
V25
p93
tp94
a(S'(1-(1/2^2))*100'
p95
V25
p96
tp97
a(S'(1-(1/2^2))*100'
p98
V1
p99
tp100
a(S'(1-(1/2^2))*100'
p101
V25
p102
tp103
asS"['R']"
p104
(lp105
(S'(1-(1/2^2))*100'
p106
V(1-1/4) * 100
p107
(lp108
(S'R'
p109
F75.0
g106
g107
tp110
aS'zhenzhai'
p111
(lp112
V2016-11-02 03:55:51
p113
tp114
a(S'(1-(1/2^2))*100'
p115
V(1-(1/2^2)) * 100
p116
(lp117
(g109
F75.0
g115
g116
tp118
aS'abtom'
p119
(lp120
V2016-10-29 23:03:00
p121
tp122
a(S'(1-(1/2^2))*100'
p123
V(1-(1/4)) * 100
p124
(lp125
(g109
F75.0
g123
g124
tp126
aS'abtom'
p127
(lp128
V2016-10-29 23:03:40
p129
tp130
a(S'(1-(1/2^2))*100'
p131
V75
p132
(lp133
(g109
F75.0
g131
g132
tp134
aS'mvkrishn'
p135
(lp136
V2016-11-02 17:45:48
p137
tp138
a(S'(1-(1/2^2))*100'
p139
V75
p140
(lp141
(g109
F75.0
g139
g140
tp142
aS'mvkrishn'
p143
(lp144
V2016-11-02 17:47:42
p145
tp146
a(S'(1-(1/2^2))*100'
p147
V75
p148
(lp149
(g109
F75.0
g147
g148
tp150
aS'aliceh'
p151
(lp152
V2016-11-02 06:33:43
p153
tp154
a(S'(1-(1/2^2))*100'
p155
V75
p156
(lp157
(g109
F75.0
g155
g156
tp158
aS'aliceh'
p159
(lp160
V2016-11-02 06:35:26
p161
tp162
a(S'(1-(1/2^2))*100'
p163
V75
p164
(lp165
(g109
F75.0
g163
g164
tp166
aS'aliceh'
p167
(lp168
V2016-11-02 06:36:17
p169
tp170
a(S'(1-(1/2^2))*100'
p171
V75
p172
(lp173
(g109
F75.0
g171
g172
tp174
aS'aliceh'
p175
(lp176
V2016-11-02 06:36:51
p177
tp178
a(S'(1-(1/2^2))*100'
p179
V(1-(1/2^2))*100
p180
(lp181
(g109
F75.0
g179
g180
tp182
aS'Jisu'
p183
(lp184
V2016-10-29 20:11:26
p185
tp186
a(S'(1-(1/2^2))*100'
p187
V75
p188
(lp189
(g109
F75.0
g187
g188
tp190
aS'ray003'
p191
(lp192
V2016-11-01 22:29:04
p193
tp194
a(S'(1-(1/2^2))*100'
p195
V75
p196
(lp197
(g109
F75.0
g195
g196
tp198
aS'ray003'
p199
(lp200
V2016-11-01 22:30:32
p201
tp202
a(S'(1-(1/2^2))*100'
p203
V75
p204
(lp205
(g109
F75.0
g203
g204
tp206
aS'ray003'
p207
(lp208
V2016-11-01 22:33:10
p209
tp210
a(S'(1-(1/2^2))*100'
p211
V75
p212
(lp213
(g109
F75.0
g211
g212
tp214
aS'ray003'
p215
(lp216
V2016-11-01 22:33:53
p217
tp218
a(S'(1-(1/2^2))*100'
p219
V75
p220
(lp221
(g109
F75.0
g219
g220
tp222
aS'ray003'
p223
(lp224
V2016-11-01 22:34:34
p225
tp226
a(S'(1-(1/2^2))*100'
p227
V75
p228
(lp229
(g109
F75.0
g227
g228
tp230
aS'ray003'
p231
(lp232
V2016-11-01 22:35:01
p233
tp234
a(S'(1-(1/2^2))*100'
p235
V75
p236
(lp237
(g109
F75.0
g235
g236
tp238
aS'kevin'
p239
(lp240
V2016-10-30 00:09:31
p241
tp242
a(S'(1-(1/2^2))*100'
p243
V(1-(1/2^2))*100
p244
(lp245
(g109
F75.0
g243
g244
tp246
aS'jar045'
p247
(lp248
V2016-11-01 04:54:05
p249
tp250
a(S'(1-(1/2^2))*100'
p251
V(1-(1/2^2))*100
p252
(lp253
(g109
F75.0
g251
g252
tp254
aS'jar045'
p255
(lp256
V2016-11-01 04:56:40
p257
tp258
a(S'(1-(1/2^2))*100'
p259
V75
p260
(lp261
(g109
F75.0
g259
g260
tp262
aS'kyle'
p263
(lp264
V2016-11-02 05:39:07
p265
tp266
a(S'(1-(1/2^2))*100'
p267
V75
p268
(lp269
(g109
F75.0
g267
g268
tp270
aS'kyle'
p271
(lp272
V2016-11-02 05:40:03
p273
tp274
a(S'(1-(1/2^2))*100'
p275
V75
p276
(lp277
(g109
F75.0
g275
g276
tp278
aS'kyle'
p279
(lp280
V2016-11-02 05:50:06
p281
tp282
a(S'(1-(1/2^2))*100'
p283
V75
p284
(lp285
(g109
F75.0
g283
g284
tp286
aS'kyle'
p287
(lp288
V2016-11-02 05:55:09
p289
tp290
a(S'(1-(1/2^2))*100'
p291
V75
p292
(lp293
(g109
F75.0
g291
g292
tp294
aS'kyle'
p295
(lp296
V2016-11-02 05:57:12
p297
tp298
a(S'(1-(1/2^2))*100'
p299
V75
p300
(lp301
(g109
F75.0
g299
g300
tp302
aS'chenboy3'
p303
(lp304
V2016-11-01 03:22:18
p305
tp306
a(S'(1-(1/2^2))*100'
p307
V75
p308
(lp309
(g109
F75.0
g307
g308
tp310
aS'chenboy3'
p311
(lp312
V2016-11-01 03:22:39
p313
tp314
a(S'(1-(1/2^2))*100'
p315
V75
p316
(lp317
(g109
F75.0
g315
g316
tp318
aS'chenboy3'
p319
(lp320
V2016-11-01 03:23:22
p321
tp322
a(S'(1-(1/2^2))*100'
p323
V75
p324
(lp325
(g109
F75.0
g323
g324
tp326
aS'chenboy3'
p327
(lp328
V2016-11-01 03:25:55
p329
tp330
a(S'(1-(1/2^2))*100'
p331
V75
p332
(lp333
(g109
F75.0
g331
g332
tp334
aS'chenboy3'
p335
(lp336
V2016-11-01 03:26:17
p337
tp338
a(S'(1-(1/2^2))*100'
p339
V75
p340
(lp341
(g109
F75.0
g339
g340
tp342
aS'chenboy3'
p343
(lp344
V2016-11-01 03:30:18
p345
tp346
a(S'(1-(1/2^2))*100'
p347
V75
p348
(lp349
(g109
F75.0
g347
g348
tp350
aS'chenboy3'
p351
(lp352
V2016-11-01 03:30:40
p353
tp354
a(S'(1-(1/2^2))*100'
p355
V75
p356
(lp357
(g109
F75.0
g355
g356
tp358
aS'chenboy3'
p359
(lp360
V2016-11-01 03:43:30
p361
tp362
a(S'(1-(1/2^2))*100'
p363
V75
p364
(lp365
(g109
F75.0
g363
g364
tp366
aS'chenboy3'
p367
(lp368
V2016-11-01 03:43:56
p369
tp370
a(S'(1-(1/2^2))*100'
p371
V75
p372
(lp373
(g109
F75.0
g371
g372
tp374
aS'chenboy3'
p375
(lp376
V2016-11-01 03:44:20
p377
tp378
a(S'(1-(1/2^2))*100'
p379
V(1-(1/4))*100
p380
(lp381
(g109
F75.0
g379
g380
tp382
aS'sunilraiyani'
p383
(lp384
V2016-10-31 07:11:35
p385
tp386
a(S'(1-(1/2^2))*100'
p387
V75
p388
(lp389
(g109
F75.0
g387
g388
tp390
aS'PriyankaK'
p391
(lp392
V2016-11-01 07:06:35
p393
tp394
a(S'(1-(1/2^2))*100'
p395
V75
p396
(lp397
(g109
F75.0
g395
g396
tp398
aS'PriyankaK'
p399
(lp400
V2016-11-01 07:07:57
p401
tp402
a(S'(1-(1/2^2))*100'
p403
V75
p404
(lp405
(g109
F75.0
g403
g404
tp406
aS'PriyankaK'
p407
(lp408
V2016-11-01 07:10:03
p409
tp410
a(S'(1-(1/2^2))*100'
p411
V75
p412
(lp413
(g109
F75.0
g411
g412
tp414
aS'PriyankaK'
p415
(lp416
V2016-11-01 07:11:28
p417
tp418
a(S'(1-(1/2^2))*100'
p419
V75
p420
(lp421
(g109
F75.0
g419
g420
tp422
aS'PriyankaK'
p423
(lp424
V2016-11-01 07:13:32
p425
tp426
a(S'(1-(1/2^2))*100'
p427
V(1-(1/(7.4/3.7)^2))*100
p428
(lp429
(g109
F75.0
g427
g428
tp430
aS'woguan'
p431
(lp432
V2016-11-02 19:03:08
p433
tp434
a(S'(1-(1/2^2))*100'
p435
V75
p436
(lp437
(g109
F75.0
g435
g436
tp438
aS'TianhaoQiu'
p439
(lp440
V2016-11-01 22:44:37
p441
tp442
a(S'(1-(1/2^2))*100'
p443
V75
p444
(lp445
(g109
F75.0
g443
g444
tp446
aS'TianhaoQiu'
p447
(lp448
V2016-11-01 22:46:53
p449
tp450
a(S'(1-(1/2^2))*100'
p451
V75
p452
(lp453
(g109
F75.0
g451
g452
tp454
aS'TianhaoQiu'
p455
(lp456
V2016-11-02 00:36:12
p457
tp458
a(S'(1-(1/2^2))*100'
p459
V75
p460
(lp461
(g109
F75.0
g459
g460
tp462
aS'TianhaoQiu'
p463
(lp464
V2016-11-02 01:14:29
p465
tp466
a(S'(1-(1/2^2))*100'
p467
V75
p468
(lp469
(g109
F75.0
g467
g468
tp470
aS'TianhaoQiu'
p471
(lp472
V2016-11-02 01:16:24
p473
tp474
a(S'(1-(1/2^2))*100'
p475
V75
p476
(lp477
(g109
F75.0
g475
g476
tp478
aS'TianhaoQiu'
p479
(lp480
V2016-11-02 18:15:29
p481
tp482
a(S'(1-(1/2^2))*100'
p483
V75
p484
(lp485
(g109
F75.0
g483
g484
tp486
aS'TianhaoQiu'
p487
(lp488
V2016-11-02 18:15:54
p489
tp490
a(S'(1-(1/2^2))*100'
p491
V75
p492
(lp493
(g109
F75.0
g491
g492
tp494
aS'TianhaoQiu'
p495
(lp496
V2016-11-02 18:17:23
p497
tp498
a(S'(1-(1/2^2))*100'
p499
V75
p500
(lp501
(g109
F75.0
g499
g500
tp502
aS'TianhaoQiu'
p503
(lp504
V2016-11-02 18:18:36
p505
tp506
a(S'(1-(1/2^2))*100'
p507
V75
p508
(lp509
(g109
F75.0
g507
g508
tp510
aS'TianhaoQiu'
p511
(lp512
V2016-11-02 18:19:00
p513
tp514
a(S'(1-(1/2^2))*100'
p515
V75
p516
(lp517
(g109
F75.0
g515
g516
tp518
aS'TianhaoQiu'
p519
(lp520
V2016-11-02 18:19:22
p521
tp522
a(S'(1-(1/2^2))*100'
p523
V75
p524
(lp525
(g109
F75.0
g523
g524
tp526
aS'YuqinWu'
p527
(lp528
V2016-10-29 21:08:03
p529
tp530
a(S'(1-(1/2^2))*100'
p531
V.75*100
p532
(lp533
(g109
F75.0
g531
g532
tp534
aS'rsamuail'
p535
(lp536
V2016-10-29 23:42:37
p537
tp538
a(S'(1-(1/2^2))*100'
p539
V75
p540
(lp541
(g109
F75.0
g539
g540
tp542
aS'codyndoan'
p543
(lp544
V2016-11-02 19:06:31
p545
tp546
a(S'(1-(1/2^2))*100'
p547
V75
p548
(lp549
(g109
F75.0
g547
g548
tp550
aS'codyndoan'
p551
(lp552
V2016-11-02 19:10:47
p553
tp554
a(S'(1-(1/2^2))*100'
p555
V75
p556
(lp557
(g109
F75.0
g555
g556
tp558
aS'codyndoan'
p559
(lp560
V2016-11-02 19:11:53
p561
tp562
a(S'(1-(1/2^2))*100'
p563
V75
p564
(lp565
(g109
F75.0
g563
g564
tp566
aS'codyndoan'
p567
(lp568
V2016-11-02 19:12:23
p569
tp570
a(S'(1-(1/2^2))*100'
p571
V75
p572
(lp573
(g109
F75.0
g571
g572
tp574
aS'codyndoan'
p575
(lp576
V2016-11-02 19:12:45
p577
tp578
a(S'(1-(1/2^2))*100'
p579
V(1-(1/2^2))*100
p580
(lp581
(g109
F75.0
g579
g580
tp582
aS'Ryan_Yi'
p583
(lp584
V2016-10-29 23:40:24
p585
tp586
a(S'(1-(1/2^2))*100'
p587
V75
p588
(lp589
(g109
F75.0
g587
g588
tp590
aS'evahuynh'
p591
(lp592
V2016-10-31 19:34:11
p593
tp594
a(S'(1-(1/2^2))*100'
p595
V75
p596
(lp597
(g109
F75.0
g595
g596
tp598
aS'evahuynh'
p599
(lp600
V2016-10-31 19:38:21
p601
tp602
a(S'(1-(1/2^2))*100'
p603
V75
p604
(lp605
(g109
F75.0
g603
g604
tp606
aS'evahuynh'
p607
(lp608
V2016-10-31 19:40:28
p609
tp610
a(S'(1-(1/2^2))*100'
p611
V75
p612
(lp613
(g109
F75.0
g611
g612
tp614
aS'evahuynh'
p615
(lp616
V2016-10-31 19:43:21
p617
tp618
a(S'(1-(1/2^2))*100'
p619
V75
p620
(lp621
(g109
F75.0
g619
g620
tp622
aS'evahuynh'
p623
(lp624
V2016-10-31 19:44:10
p625
tp626
a(S'(1-(1/2^2))*100'
p627
V75
p628
(lp629
(g109
F75.0
g627
g628
tp630
aS'evahuynh'
p631
(lp632
V2016-11-01 18:13:48
p633
tp634
a(S'(1-(1/2^2))*100'
p635
V75
p636
(lp637
(g109
F75.0
g635
g636
tp638
aS'Ankush_Sarow'
p639
(lp640
V2016-11-02 18:57:11
p641
tp642
a(S'(1-(1/2^2))*100'
p643
V75
p644
(lp645
(g109
F75.0
g643
g644
tp646
aS'Ankush_Sarow'
p647
(lp648
V2016-11-02 19:00:52
p649
tp650
a(S'(1-(1/2^2))*100'
p651
V75
p652
(lp653
(g109
F75.0
g651
g652
tp654
aS'Ankush_Sarow'
p655
(lp656
V2016-11-02 19:01:41
p657
tp658
a(S'(1-(1/2^2))*100'
p659
V75
p660
(lp661
(g109
F75.0
g659
g660
tp662
aS'Ankush_Sarow'
p663
(lp664
V2016-11-02 19:09:33
p665
tp666
a(S'(1-(1/2^2))*100'
p667
V75
p668
(lp669
(g109
F75.0
g667
g668
tp670
aS'KevinKlein'
p671
(lp672
V2016-11-01 20:19:53
p673
tp674
a(S'(1-(1/2^2))*100'
p675
V75
p676
(lp677
(g109
F75.0
g675
g676
tp678
aS'KevinKlein'
p679
(lp680
V2016-11-01 20:21:12
p681
tp682
a(S'(1-(1/2^2))*100'
p683
V75
p684
(lp685
(g109
F75.0
g683
g684
tp686
aS'KevinKlein'
p687
(lp688
V2016-11-01 20:23:22
p689
tp690
a(S'(1-(1/2^2))*100'
p691
V75
p692
(lp693
(g109
F75.0
g691
g692
tp694
aS'JiangfengYin'
p695
(lp696
V2016-11-02 03:33:40
p697
tp698
a(S'(1-(1/2^2))*100'
p699
V75
p700
(lp701
(g109
F75.0
g699
g700
tp702
aS'JiangfengYin'
p703
(lp704
V2016-11-02 03:34:23
p705
tp706
a(S'(1-(1/2^2))*100'
p707
V75
p708
(lp709
(g109
F75.0
g707
g708
tp710
aS'JiangfengYin'
p711
(lp712
V2016-11-02 03:35:01
p713
tp714
a(S'(1-(1/2^2))*100'
p715
V75
p716
(lp717
(g109
F75.0
g715
g716
tp718
aS'JiangfengYin'
p719
(lp720
V2016-11-02 03:36:46
p721
tp722
a(S'(1-(1/2^2))*100'
p723
V75
p724
(lp725
(g109
F75.0
g723
g724
tp726
aS'JiangfengYin'
p727
(lp728
V2016-11-02 03:37:15
p729
tp730
a(S'(1-(1/2^2))*100'
p731
V75
p732
(lp733
(g109
F75.0
g731
g732
tp734
aS'JiangfengYin'
p735
(lp736
V2016-11-02 03:38:56
p737
tp738
a(S'(1-(1/2^2))*100'
p739
V75
p740
(lp741
(g109
F75.0
g739
g740
tp742
aS'JiangfengYin'
p743
(lp744
V2016-11-02 03:39:21
p745
tp746
a(S'(1-(1/2^2))*100'
p747
V75
p748
(lp749
(g109
F75.0
g747
g748
tp750
aS'vincebai'
p751
(lp752
V2016-11-01 18:35:34
p753
tp754
a(S'(1-(1/2^2))*100'
p755
V75
p756
(lp757
(g109
F75.0
g755
g756
tp758
aS'vincebai'
p759
(lp760
V2016-11-01 18:36:17
p761
tp762
a(S'(1-(1/2^2))*100'
p763
V75
p764
(lp765
(g109
F75.0
g763
g764
tp766
aS'dillonliu'
p767
(lp768
V2016-11-01 04:28:34
p769
tp770
a(S'(1-(1/2^2))*100'
p771
V75
p772
(lp773
(g109
F75.0
g771
g772
tp774
aS'ThuanNguyen'
p775
(lp776
V2016-11-02 04:28:11
p777
tp778
a(S'(1-(1/2^2))*100'
p779
V75
p780
(lp781
(g109
F75.0
g779
g780
tp782
aS'ThuanNguyen'
p783
(lp784
V2016-11-02 18:26:48
p785
tp786
a(S'(1-(1/2^2))*100'
p787
V75
p788
(lp789
(g109
F75.0
g787
g788
tp790
aS'ThuanNguyen'
p791
(lp792
V2016-11-02 18:30:06
p793
tp794
a(S'(1-(1/2^2))*100'
p795
V75
p796
(lp797
(g109
F75.0
g795
g796
tp798
aS'ThuanNguyen'
p799
(lp800
V2016-11-02 18:32:07
p801
tp802
a(S'(1-(1/2^2))*100'
p803
V(1-(1/2^2))*100
p804
(lp805
(g109
F75.0
g803
g804
tp806
aS'piamsiri'
p807
(lp808
V2016-10-31 01:13:22
p809
tp810
a(S'(1-(1/2^2))*100'
p811
V(1-(1/(2^2)))*100
p812
(lp813
(g109
F75.0
g811
g812
tp814
aS'christywong'
p815
(lp816
V2016-10-30 20:25:22
p817
tp818
a(S'(1-(1/2^2))*100'
p819
V(1-(1/4))*100
p820
(lp821
(g109
F75.0
g819
g820
tp822
aS'christywong'
p823
(lp824
V2016-11-02 08:15:46
p825
tp826
a(S'(1-(1/2^2))*100'
p827
V(1-(1/4))*100
p828
(lp829
(g109
F75.0
g827
g828
tp830
aS'christywong'
p831
(lp832
V2016-11-02 08:17:51
p833
tp834
a(S'(1-(1/2^2))*100'
p835
V(1-(1/4))*100
p836
(lp837
(g109
F75.0
g835
g836
tp838
aS'DannyDelCerro'
p839
(lp840
V2016-11-02 01:54:44
p841
tp842
a(S'(1-(1/2^2))*100'
p843
V(1-(1/4))*100
p844
(lp845
(g109
F75.0
g843
g844
tp846
aS'DannyDelCerro'
p847
(lp848
V2016-11-02 01:55:46
p849
tp850
a(S'(1-(1/2^2))*100'
p851
V(1-(1/4))*100
p852
(lp853
(g109
F75.0
g851
g852
tp854
aS'wheilson'
p855
(lp856
V2016-11-01 17:42:05
p857
tp858
a(S'(1-(1/2^2))*100'
p859
V(1-(1/4))*100
p860
(lp861
(g109
F75.0
g859
g860
tp862
aS'wheilson'
p863
(lp864
V2016-11-01 17:49:33
p865
tp866
a(S'(1-(1/2^2))*100'
p867
V75
p868
(lp869
(g109
F75.0
g867
g868
tp870
aS'Ian'
p871
(lp872
V2016-11-02 01:53:29
p873
tp874
a(S'(1-(1/2^2))*100'
p875
V75
p876
(lp877
(g109
F75.0
g875
g876
tp878
aS'Ian'
p879
(lp880
V2016-11-02 01:56:22
p881
tp882
a(S'(1-(1/2^2))*100'
p883
V(1-1/4)*100
p884
(lp885
(g109
F75.0
g883
g884
tp886
aS'Zhongting'
p887
(lp888
V2016-10-30 09:38:23
p889
tp890
a(S'(1-(1/2^2))*100'
p891
V3/4*100
p892
(lp893
(g109
F75.0
g891
g892
tp894
aS'Zhongting'
p895
(lp896
V2016-10-30 09:42:36
p897
tp898
a(S'(1-(1/2^2))*100'
p899
V75
p900
(lp901
(g109
F75.0
g899
g900
tp902
aS'jih089'
p903
(lp904
V2016-10-29 19:53:53
p905
tp906
a(S'(1-(1/2^2))*100'
p907
V75
p908
(lp909
(g109
F75.0
g907
g908
tp910
aS'jih089'
p911
(lp912
V2016-10-29 19:55:35
p913
tp914
a(S'(1-(1/2^2))*100'
p915
V75
p916
(lp917
(g109
F75.0
g915
g916
tp918
aS'jih089'
p919
(lp920
V2016-10-29 19:56:32
p921
tp922
a(S'(1-(1/2^2))*100'
p923
V75
p924
(lp925
(g109
F75.0
g923
g924
tp926
aS'jih089'
p927
(lp928
V2016-10-29 19:58:19
p929
tp930
a(S'(1-(1/2^2))*100'
p931
V75
p932
(lp933
(g109
F75.0
g931
g932
tp934
aS'jih089'
p935
(lp936
V2016-10-29 20:02:19
p937
tp938
a(S'(1-(1/2^2))*100'
p939
V(1-(1/4))*100
p940
(lp941
(g109
F75.0
g939
g940
tp942
aS'Guillermo'
p943
(lp944
V2016-10-29 20:45:36
p945
tp946
a(S'(1-(1/2^2))*100'
p947
V75
p948
(lp949
(g109
F75.0
g947
g948
tp950
aS'RobinO'
p951
(lp952
V2016-10-30 19:44:36
p953
tp954
a(S'(1-(1/2^2))*100'
p955
V75
p956
(lp957
(g109
F75.0
g955
g956
tp958
aS'RobinO'
p959
(lp960
V2016-10-30 19:47:14
p961
tp962
a(S'(1-(1/2^2))*100'
p963
V75
p964
(lp965
(g109
F75.0
g963
g964
tp966
aS'RobinO'
p967
(lp968
V2016-10-30 19:47:52
p969
tp970
a(S'(1-(1/2^2))*100'
p971
V75
p972
(lp973
(g109
F75.0
g971
g972
tp974
aS'srrozen'
p975
(lp976
V2016-11-02 01:06:28
p977
tp978
a(S'(1-(1/2^2))*100'
p979
V75
p980
(lp981
(g109
F75.0
g979
g980
tp982
aS'srrozen'
p983
(lp984
V2016-11-02 01:11:38
p985
tp986
a(S'(1-(1/2^2))*100'
p987
V75
p988
(lp989
(g109
F75.0
g987
g988
tp990
aS'srrozen'
p991
(lp992
V2016-11-02 01:16:09
p993
tp994
a(S'(1-(1/2^2))*100'
p995
V75
p996
(lp997
(g109
F75.0
g995
g996
tp998
aS'srrozen'
p999
(lp1000
V2016-11-02 01:26:51
p1001
tp1002
a(S'(1-(1/2^2))*100'
p1003
V75
p1004
(lp1005
(g109
F75.0
g1003
g1004
tp1006
aS'srrozen'
p1007
(lp1008
V2016-11-02 01:43:14
p1009
tp1010
a(S'(1-(1/2^2))*100'
p1011
V75
p1012
(lp1013
(g109
F75.0
g1011
g1012
tp1014
aS'srrozen'
p1015
(lp1016
V2016-11-02 01:45:45
p1017
tp1018
a(S'(1-(1/2^2))*100'
p1019
V(1-(1/4))*100
p1020
(lp1021
(g109
F75.0
g1019
g1020
tp1022
aS'DannyChan'
p1023
(lp1024
V2016-10-30 23:50:22
p1025
tp1026
a(S'(1-(1/2^2))*100'
p1027
V75
p1028
(lp1029
(g109
F75.0
g1027
g1028
tp1030
aS'A4chau'
p1031
(lp1032
V2016-11-02 05:20:05
p1033
tp1034
a(S'(1-(1/2^2))*100'
p1035
V75
p1036
(lp1037
(g109
F75.0
g1035
g1036
tp1038
aS'kmesic'
p1039
(lp1040
V2016-11-01 18:25:51
p1041
tp1042
a(S'(1-(1/2^2))*100'
p1043
V75
p1044
(lp1045
(g109
F75.0
g1043
g1044
tp1046
aS'zhc047'
p1047
(lp1048
V2016-11-02 01:59:28
p1049
tp1050
a(S'(1-(1/2^2))*100'
p1051
V75
p1052
(lp1053
(g109
F75.0
g1051
g1052
tp1054
aS'maxcjx'
p1055
(lp1056
V2016-10-30 23:47:22
p1057
tp1058
a(S'(1-(1/2^2))*100'
p1059
V75
p1060
(lp1061
(g109
F75.0
g1059
g1060
tp1062
aS'maxcjx'
p1063
(lp1064
V2016-10-30 23:48:50
p1065
tp1066
a(S'(1-(1/2^2))*100'
p1067
V75
p1068
(lp1069
(g109
F75.0
g1067
g1068
tp1070
aS'maxcjx'
p1071
(lp1072
V2016-10-30 23:50:58
p1073
tp1074
a(S'(1-(1/2^2))*100'
p1075
V75
p1076
(lp1077
(g109
F75.0
g1075
g1076
tp1078
aS'maxcjx'
p1079
(lp1080
V2016-10-31 18:38:48
p1081
tp1082
a(S'(1-(1/2^2))*100'
p1083
V(1-(1/2^2))*100
p1084
(lp1085
(g109
F75.0
g1083
g1084
tp1086
aS'rleaton'
p1087
(lp1088
V2016-10-29 21:27:31
p1089
tp1090
a(S'(1-(1/2^2))*100'
p1091
V(1-(4.2/8.4)^2)*100
p1092
(lp1093
(g109
F75.0
g1091
g1092
tp1094
aS'HaoDong'
p1095
(lp1096
V2016-10-30 22:47:00
p1097
tp1098
a(S'(1-(1/2^2))*100'
p1099
V75
p1100
(lp1101
(g109
F75.0
g1099
g1100
tp1102
aS'DarrenYang'
p1103
(lp1104
V2016-10-30 04:47:37
p1105
tp1106
a(S'(1-(1/2^2))*100'
p1107
V75
p1108
(lp1109
(g109
F75.0
g1107
g1108
tp1110
aS'DarrenYang'
p1111
(lp1112
V2016-10-30 04:49:43
p1113
tp1114
a(S'(1-(1/2^2))*100'
p1115
V75
p1116
(lp1117
(g109
F75.0
g1115
g1116
tp1118
aS'DarrenYang'
p1119
(lp1120
V2016-10-30 04:50:29
p1121
tp1122
asS'Fraction'
p1123
(lp1124
(S'(1-(1/2^2))*100'
p1125
V100*(1-(1/11.56))
p1126
tp1127
a(S'(1-(1/2^2))*100'
p1128
V100*(1-(1/11.56))
p1129
tp1130
a(S'(1-(1/2^2))*100'
p1131
V.75
p1132
tp1133
a(S'(1-(1/2^2))*100'
p1134
V.25
p1135
tp1136
a(S'(1-(1/2^2))*100'
p1137
V.75
p1138
tp1139
a(S'(1-(1/2^2))*100'
p1140
V.25
p1141
tp1142
a(S'(1-(1/2^2))*100'
p1143
V.75
p1144
tp1145
a(S'(1-(1/2^2))*100'
p1146
V1-((4.3^2)/(8.6^2))
p1147
tp1148
a(S'(1-(1/2^2))*100'
p1149
V3/4
p1150
tp1151
a(S'(1-(1/2^2))*100'
p1152
V1-((4.3^2)/(8.6^2))
p1153
tp1154
a(S'(1-(1/2^2))*100'
p1155
V0.25
p1156
tp1157
a(S'(1-(1/2^2))*100'
p1158
V0.75
p1159
tp1160
a(S'(1-(1/2^2))*100'
p1161
V0.25
p1162
tp1163
a(S'(1-(1/2^2))*100'
p1164
V3/4
p1165
tp1166
a(S'(1-(1/2^2))*100'
p1167
V0.75
p1168
tp1169
a(S'(1-(1/2^2))*100'
p1170
V(4.8^2)/14.4 - (4.8^2)/33.6
p1171
tp1172
a(S'(1-(1/2^2))*100'
p1173
V(3.2^2)/(17.6^2) + (3.2^2)/(30.4^2)
p1174
tp1175
a(S'(1-(1/2^2))*100'
p1176
V(4.2^2)/(15.6^2) - (4.2^2)/(32.4^2)
p1177
tp1178
a(S'(1-(1/2^2))*100'
p1179
V1/4
p1180
tp1181
a(S'(1-(1/2^2))*100'
p1182
V.5
p1183
tp1184
a(S'(1-(1/2^2))*100'
p1185
V.95
p1186
tp1187
a(S'(1-(1/2^2))*100'
p1188
V1/49
p1189
tp1190
a(S'(1-(1/2^2))*100'
p1191
V1.0412
p1192
tp1193
a(S'(1-(1/2^2))*100'
p1194
V((4.6^2)/(9.2))*100
p1195
tp1196
a(S'(1-(1/2^2))*100'
p1197
V(1/(3.7^2))*100
p1198
tp1199
a(S'(1-(1/2^2))*100'
p1200
V6.6/10.89
p1201
tp1202
a(S'(1-(1/2^2))*100'
p1203
V9/36
p1204
tp1205
a(S'(1-(1/2^2))*100'
p1206
V17.64/(16.8)^2
p1207
tp1208
a(S'(1-(1/2^2))*100'
p1209
V1/16
p1210
tp1211
a(S'(1-(1/2^2))*100'
p1212
V6.25
p1213
tp1214
a(S'(1-(1/2^2))*100'
p1215
V1/4
p1216
tp1217
a(S'(1-(1/2^2))*100'
p1218
V1/9*100
p1219
tp1220
a(S'(1-(1/2^2))*100'
p1221
V((1/4)-(1/9))*100
p1222
tp1223
a(S'(1-(1/2^2))*100'
p1224
V1/8*100
p1225
tp1226
a(S'(1-(1/2^2))*100'
p1227
V1/8
p1228
tp1229
a(S'(1-(1/2^2))*100'
p1230
V100/8
p1231
tp1232
a(S'(1-(1/2^2))*100'
p1233
V100/16
p1234
tp1235
a(S'(1-(1/2^2))*100'
p1236
V1/16
p1237
tp1238
a(S'(1-(1/2^2))*100'
p1239
V(1/(2*2^2))*100
p1240
tp1241
a(S'(1-(1/2^2))*100'
p1242
V1/(2*2^2)
p1243
tp1244
a(S'(1-(1/2^2))*100'
p1245
V11.11
p1246
tp1247
a(S'(1-(1/2^2))*100'
p1248
V12.5
p1249
tp1250
a(S'(1-(1/2^2))*100'
p1251
V100/18
p1252
tp1253
a(S'(1-(1/2^2))*100'
p1254
V1/18
p1255
tp1256
a(S'(1-(1/2^2))*100'
p1257
V12.50
p1258
tp1259
a(S'(1-(1/2^2))*100'
p1260
V1/32*100
p1261
tp1262
a(S'(1-(1/2^2))*100'
p1263
V13.93
p1264
tp1265
a(S'(1-(1/2^2))*100'
p1266
V12.5
p1267
tp1268
a(S'(1-(1/2^2))*100'
p1269
V9/36
p1270
tp1271
a(S'(1-(1/2^2))*100'
p1272
V0.25
p1273
tp1274
a(S'(1-(1/2^2))*100'
p1275
V95.89
p1276
tp1277
a(S'(1-(1/2^2))*100'
p1278
V1/4
p1279
tp1280
a(S'(1-(1/2^2))*100'
p1281
V(1-(1/14.4^2))*100
p1282
tp1283
a(S'(1-(1/2^2))*100'
p1284
V17.75
p1285
tp1286
a(S'(1-(1/2^2))*100'
p1287
V0.25
p1288
tp1289
a(S'(1-(1/2^2))*100'
p1290
V0.5
p1291
tp1292
a(S'(1-(1/2^2))*100'
p1293
V1/((8.6/4.3)^2)*2
p1294
tp1295
a(S'(1-(1/2^2))*100'
p1296
V1/2
p1297
tp1298
a(S'(1-(1/2^2))*100'
p1299
V1/6
p1300
tp1301
a(S'(1-(1/2^2))*100'
p1302
V1/4
p1303
tp1304
a(S'(1-(1/2^2))*100'
p1305
V3/4
p1306
tp1307
a(S'(1-(1/2^2))*100'
p1308
V3/4
p1309
tp1310
a(S'(1-(1/2^2))*100'
p1311
V0.9545 
p1312
tp1313
a(S'(1-(1/2^2))*100'
p1314
V(1-(1/9))*100
p1315
tp1316
a(S'(1-(1/2^2))*100'
p1317
V(4.2^2)/(8.4*2)
p1318
tp1319
a(S'(1-(1/2^2))*100'
p1320
V6.25
p1321
tp1322
a(S'(1-(1/2^2))*100'
p1323
V.25
p1324
tp1325
a(S'(1-(1/2^2))*100'
p1326
V1/4
p1327
tp1328
a(S'(1-(1/2^2))*100'
p1329
V4.4/((15.2+32.8)^2)
p1330
tp1331
a(S'(1-(1/2^2))*100'
p1332
V1/((3.4)^2)
p1333
tp1334
a(S'(1-(1/2^2))*100'
p1335
V(1 - (1/((3.1)^2))) * 100
p1336
tp1337
a(S'(1-(1/2^2))*100'
p1338
V1/(4.4)^2
p1339
tp1340
a(S'(1-(1/2^2))*100'
p1341
V0.312
p1342
tp1343
a(S'(1-(1/2^2))*100'
p1344
V0.25
p1345
tp1346
a(S'(1-(1/2^2))*100'
p1347
V0.75
p1348
tp1349
a(S'(1-(1/2^2))*100'
p1350
V0.25
p1351
tp1352
a(S'(1-(1/2^2))*100'
p1353
V0.75
p1354
tp1355
a(S'(1-(1/2^2))*100'
p1356
V100 * (3.4^2) / (6.8^2)
p1357
tp1358
a(S'(1-(1/2^2))*100'
p1359
V ((3.4^2) / (6.8^2))
p1360
tp1361
a(S'(1-(1/2^2))*100'
p1362
V (3.4^2) / (6.8^2)
p1363
tp1364
a(S'(1-(1/2^2))*100'
p1365
V100 *  (3.6^2) / ((31.2-24)^2)
p1366
tp1367
a(S'(1-(1/2^2))*100'
p1368
V100 - (100 *  (3.1^2) / ((30.2-24)^2))
p1369
tp1370
a(S'(1-(1/2^2))*100'
p1371
V1-4.1^2/(8.2^2)
p1372
tp1373
a(S'(1-(1/2^2))*100'
p1374
V.25
p1375
tp1376
assS'2'
p1377
g2
(g3
tp1378
Rp1379
g6
(lp1380
(S'0.5*1/((44-24)/3.5)^2'
p1381
V35
p1382
tp1383
a(S'0.5*1/((44-24)/4.6)^2'
p1384
V20
p1385
tp1386
a(S'0.5*1/((44-24)/4.3)^2'
p1387
V1
p1388
tp1389
a(S'0.5*1/((44-24)/4.8)^2'
p1390
V1
p1391
tp1392
asS"['R.1']"
p1393
(lp1394
(S'0.5*1/((44-24)/3.8)^2'
p1395
V1/((44-24)/3.8)^2
p1396
(lp1397
(S'R.1'
p1398
F27.700831024930753
S'((44-24)/3.8)^2'
p1399
V((44-24)/3.8)^2
p1400
tp1401
ag271
(lp1402
V2016-11-02 05:40:03
p1403
tp1404
a(S'0.5*1/((44-24)/4.1)^2'
p1405
V1/((20/4.1)^2)
p1406
(lp1407
(S'R.1'
p1408
F23.795359904818568
S'((44-24)/4.1)^2'
p1409
V(20/4.1)^2
p1410
tp1411
ag551
(lp1412
V2016-11-02 19:10:47
p1413
tp1414
a(S'0.5*1/((44-24)/3.2)^2'
p1415
V1/(6.25)^2
p1416
(lp1417
(S'R.1'
p1418
F39.0625
S'((44-24)/3.2)^2'
p1419
V(6.25)^2
p1420
tp1421
ag615
(lp1422
V2016-10-31 19:43:21
p1423
tp1424
a(S'0.5*1/((44-24)/3.9)^2'
p1425
V1/(20/3.9)^2
p1426
(lp1427
(S'R.1'
p1428
F26.29848783694938
S'((44-24)/3.9)^2'
p1429
V(20/3.9)^2
p1430
tp1431
ag655
(lp1432
V2016-11-02 19:01:41
p1433
tp1434
a(S'0.5*1/((44-24)/3.8)^2'
p1435
V1/(20/3.8)^2
p1436
(lp1437
(S'R.1'
p1438
F27.700831024930753
S'((44-24)/3.8)^2'
p1439
V(20/3.8)^2
p1440
tp1441
aS'vincebai'
p1442
(lp1443
V2016-11-01 08:42:45
p1444
tp1445
a(S'0.5*1/((44-24)/4.2)^2'
p1446
V1/2(20/4.2)^2
p1447
(lp1448
(S'R.1'
p1449
F22.675736961451246
S'((44-24)/4.2)^2'
p1450
V(20/4.2)^2
p1451
tp1452
aS'vincebai'
p1453
(lp1454
V2016-11-01 09:03:52
p1455
tp1456
a(S'0.5*1/((44-24)/4.3)^2'
p1457
V1/(20/4.3)^2
p1458
(lp1459
(S'R.1'
p1460
F21.63331530557058
S'((44-24)/4.3)^2'
p1461
V(20/4.3)^2
p1462
tp1463
ag911
(lp1464
V2016-10-29 19:55:35
p1465
tp1466
a(S'0.5*1/((44-24)/4.2)^2'
p1467
V1/(20/4.2)^2
p1468
(lp1469
(S'R.1'
p1470
F22.675736961451246
S'((44-24)/4.2)^2'
p1471
V(20/4.2)^2
p1472
tp1473
aS'maxcjx'
p1474
(lp1475
V2016-10-30 23:40:31
p1476
tp1477
a(S'0.5*1/((44-24)/4.8)^2'
p1478
V1/((20/4.8)*(20/4.8))
p1479
(lp1480
(S'R.1'
p1481
F17.361111111111114
S'((44-24)/4.8)^2'
p1482
V(20/4.8)*(20/4.8)
p1483
tp1484
ag1063
(lp1485
V2016-10-30 23:48:50
p1486
tp1487
a(S'0.5*1/((44-24)/3.0)^2'
p1488
V100/((20/3)*(20/3))
p1489
(lp1490
(S'R.1'
p1491
F44.44444444444445
S'((44-24)/3.0)^2'
p1492
V(20/3)*(20/3)
p1493
tp1494
ag1071
(lp1495
V2016-10-30 23:50:58
p1496
tp1497
asS"['R.1.0.0', 'R.1.1']"
p1498
(lp1499
(S'0.5*1/((44-24)/3.3)^2'
p1500
V1/((20/4.1)^2)
p1501
(lp1502
(S'R.1.0.0'
p1503
F20.0
S'44-24'
p1504
V20
p1505
tp1506
a(S'R.1.1'
p1507
F2.0
S'2'
p1508
V2
p1509
tp1510
ag567
(lp1511
V2016-11-02 19:12:23
p1512
tp1513
a(S'0.5*1/((44-24)/4.2)^2'
p1514
V0.5/(20/3)^2
p1515
(lp1516
(S'R.1.0.0'
p1517
F20.0
S'44-24'
p1518
V20
p1519
tp1520
a(S'R.1.1'
p1521
F2.0
g1508
g1509
tp1522
ag887
(lp1523
V2016-10-30 09:38:23
p1524
tp1525
asS"['R.1.1']"
p1526
(lp1527
(S'0.5*1/((44-24)/4.2)^2'
p1528
V17.64/(20^2)
p1529
(lp1530
(S'R.1.1'
p1531
F2.0
g1508
g1509
tp1532
ag959
(lp1533
V2016-10-30 19:47:14
p1534
tp1535
a(S'0.5*1/((44-24)/4.1)^2'
p1536
V1-4.1^2/(20^2)/2
p1537
(lp1538
(S'R.1.1'
p1539
F2.0
g1508
g1509
tp1540
aS'HaoDong'
p1541
(lp1542
V2016-10-30 22:42:53
p1543
tp1544
asS"['R.1.0.0']"
p1545
(lp1546
(S'0.5*1/((44-24)/3.6)^2'
p1547
V1/2((20/4.1)^2)
p1548
(lp1549
(S'R.1.0.0'
p1550
F20.0
S'44-24'
p1551
V20
p1552
tp1553
ag559
(lp1554
V2016-11-02 19:11:53
p1555
tp1556
asS"['R.0.1', 'R.1.0.0', 'R.1.1']"
p1557
(lp1558
(S'0.5*1/((44-24)/3.6)^2'
p1559
V0.5*1/(((44-24)/3.5)^2)
p1560
(lp1561
(S'R.0.1'
p1562
F1.0
S'1'
p1563
V1
p1564
tp1565
a(S'R.1.0.0'
p1566
F20.0
S'44-24'
p1567
V44-24
p1568
tp1569
a(S'R.1.1'
p1570
F2.0
g1508
g1509
tp1571
ag823
(lp1572
V2016-11-02 08:15:46
p1573
tp1574
asS"['R']"
p1575
(lp1576
(S'0.5*1/((44-24)/3.7)^2'
p1577
V.5 *1 / (20 / 3.7)^2
p1578
(lp1579
(g109
F0.017112500000000003
g1577
g1578
tp1580
ag127
(lp1581
V2016-10-29 23:03:40
p1582
tp1583
a(S'0.5*1/((44-24)/4.8)^2'
p1584
V(4.8)^2/(2*(44 - 24)^2)
p1585
(lp1586
(g109
F0.028799999999999996
g1584
g1585
tp1587
aS'mvkrishn'
p1588
(lp1589
V2016-11-02 17:46:52
p1590
tp1591
a(S'0.5*1/((44-24)/4.3)^2'
p1592
V(4.3)^2/(2*(44 - 24)^2)
p1593
(lp1594
(g109
F0.023112499999999998
g1592
g1593
tp1595
ag143
(lp1596
V2016-11-02 17:47:42
p1597
tp1598
a(S'0.5*1/((44-24)/4.8)^2'
p1599
V1/(2*(20/4.8)^2)
p1600
(lp1601
(g109
F0.028799999999999996
g1599
g1600
tp1602
ag175
(lp1603
V2016-11-02 06:36:51
p1604
tp1605
a(S'0.5*1/((44-24)/4.1)^2'
p1606
V0.5*1/((44-24)/4.1)^2
p1607
(lp1608
(g109
F0.021012499999999993
g1606
g1607
tp1609
aS'Jisu'
p1610
(lp1611
V2016-10-29 20:11:05
p1612
tp1613
a(S'0.5*1/((44-24)/3.8)^2'
p1614
V0.5*1/((44-24)/3.8)^2
p1615
(lp1616
(g109
F0.018049999999999997
g1614
g1615
tp1617
ag183
(lp1618
V2016-10-29 20:11:26
p1619
tp1620
a(S'0.5*1/((44-24)/3.4)^2'
p1621
V.01445
p1622
(lp1623
(g109
F0.014449999999999998
g1621
g1622
tp1624
ag231
(lp1625
V2016-11-01 22:35:01
p1626
tp1627
a(S'0.5*1/((44-24)/3.3)^2'
p1628
V0.0136125
p1629
(lp1630
(g109
F0.013612500000000001
g1628
g1629
tp1631
ag239
(lp1632
V2016-10-30 00:09:31
p1633
tp1634
a(S'0.5*1/((44-24)/3.3)^2'
p1635
V0.5*1/((20)/3.3)^2
p1636
(lp1637
(g109
F0.013612500000000001
g1635
g1636
tp1638
ag255
(lp1639
V2016-11-01 04:56:40
p1640
tp1641
a(S'0.5*1/((44-24)/3.1)^2'
p1642
V(1/2)(3.1^2/(44-24)^2)
p1643
(lp1644
(g109
F0.012012500000000002
g1642
g1643
tp1645
ag295
(lp1646
V2016-11-02 05:57:12
p1647
tp1648
a(S'0.5*1/((44-24)/4.5)^2'
p1649
V4.5^2 / 800
p1650
(lp1651
(g109
F0.025312499999999998
g1649
g1650
tp1652
ag375
(lp1653
V2016-11-01 03:44:20
p1654
tp1655
a(S'0.5*1/((44-24)/4.3)^2'
p1656
V0.5 * (4.3^2)/(20^2)
p1657
(lp1658
(g109
F0.023112499999999998
g1656
g1657
tp1659
aS'sunilraiyani'
p1660
(lp1661
V2016-10-31 07:09:59
p1662
tp1663
a(S'0.5*1/((44-24)/3.3)^2'
p1664
V0.5*(3.3^2)/(20^2)
p1665
(lp1666
(g109
F0.013612500000000001
g1664
g1665
tp1667
ag383
(lp1668
V2016-10-31 07:11:35
p1669
tp1670
a(S'0.5*1/((44-24)/3.2)^2'
p1671
V0.0128
p1672
(lp1673
(g109
F0.0128
g1671
g1672
tp1674
ag423
(lp1675
V2016-11-01 07:13:32
p1676
tp1677
a(S'0.5*1/((44-24)/3.7)^2'
p1678
V0.5*1/((44-24)/3.7)^2
p1679
(lp1680
(g109
F0.017112500000000003
g1678
g1679
tp1681
ag431
(lp1682
V2016-11-02 19:03:08
p1683
tp1684
a(S'0.5*1/((44-24)/3.3)^2'
p1685
V3.3^2/800
p1686
(lp1687
(g109
F0.013612500000000001
g1685
g1686
tp1688
ag519
(lp1689
V2016-11-02 18:19:22
p1690
tp1691
a(S'0.5*1/((44-24)/3.6)^2'
p1692
V0.5/(20/3.6)^2
p1693
(lp1694
(g109
F0.0162
g1692
g1693
tp1695
ag527
(lp1696
V2016-10-29 21:08:03
p1697
tp1698
a(S'0.5*1/((44-24)/3.2)^2'
p1699
V.5*(1/(20/3.2)^2)
p1700
(lp1701
(g109
F0.0128
g1699
g1700
tp1702
ag535
(lp1703
V2016-10-29 23:42:37
p1704
tp1705
a(S'0.5*1/((44-24)/4.1)^2'
p1706
V1/((20/4.1)^2) *.5
p1707
(lp1708
(g109
F0.021012499999999993
g1706
g1707
tp1709
ag575
(lp1710
V2016-11-02 19:12:45
p1711
tp1712
a(S'0.5*1/((44-24)/4.4)^2'
p1713
V0.5*1/((44-24)/4.4)^2
p1714
(lp1715
(g109
F0.024200000000000006
g1713
g1714
tp1716
ag583
(lp1717
V2016-10-29 23:40:24
p1718
tp1719
a(S'0.5*1/((44-24)/4.0)^2'
p1720
V((4^2)/(20^2))/2
p1721
(lp1722
(g109
F0.02
g1720
g1721
tp1723
ag631
(lp1724
V2016-11-01 18:13:48
p1725
tp1726
a(S'0.5*1/((44-24)/3.5)^2'
p1727
V1/2 * (3.5/20)^2
p1728
(lp1729
(g109
F0.0153125
g1727
g1728
tp1730
ag663
(lp1731
V2016-11-02 19:09:33
p1732
tp1733
a(S'0.5*1/((44-24)/3.4)^2'
p1734
V0.01445
p1735
(lp1736
(g109
F0.014449999999999998
g1734
g1735
tp1737
ag687
(lp1738
V2016-11-01 20:23:22
p1739
tp1740
a(S'0.5*1/((44-24)/4.0)^2'
p1741
V0.02
p1742
(lp1743
(g109
F0.02
g1741
g1742
tp1744
ag743
(lp1745
V2016-11-02 03:39:21
p1746
tp1747
a(S'0.5*1/((44-24)/3.7)^2'
p1748
V1/(2*(20/3.7)^2)
p1749
(lp1750
(g109
F0.017112500000000003
g1748
g1749
tp1751
aS'vincebai'
p1752
(lp1753
V2016-11-01 09:08:08
p1754
tp1755
a(S'0.5*1/((44-24)/4.9)^2'
p1756
V1/(2*(20/4.9)^2)
p1757
(lp1758
(g109
F0.030012499999999998
g1756
g1757
tp1759
aS'vincebai'
p1760
(lp1761
V2016-11-01 09:09:09
p1762
tp1763
a(S'0.5*1/((44-24)/4.6)^2'
p1764
V1/(2*(20/4.6)^2)
p1765
(lp1766
(g109
F0.02644999999999999
g1764
g1765
tp1767
aS'vincebai'
p1768
(lp1769
V2016-11-01 09:10:32
p1770
tp1771
a(S'0.5*1/((44-24)/4.5)^2'
p1772
V1/(2*(20/4.5)^2)
p1773
(lp1774
(g109
F0.025312499999999998
g1772
g1773
tp1775
aS'vincebai'
p1776
(lp1777
V2016-11-01 09:12:03
p1778
tp1779
a(S'0.5*1/((44-24)/3.4)^2'
p1780
V1/(2*(20/3.4)^2)
p1781
(lp1782
(g109
F0.014449999999999998
g1780
g1781
tp1783
ag759
(lp1784
V2016-11-01 18:36:17
p1785
tp1786
a(S'0.5*1/((44-24)/3.2)^2'
p1787
V0.0128
p1788
(lp1789
(g109
F0.0128
g1787
g1788
tp1790
aS'dillonliu'
p1791
(lp1792
V2016-11-01 04:08:54
p1793
tp1794
a(S'0.5*1/((44-24)/4.9)^2'
p1795
V24.01/800
p1796
(lp1797
(g109
F0.030012499999999998
g1795
g1796
tp1798
aS'dillonliu'
p1799
(lp1800
V2016-11-01 04:26:17
p1801
tp1802
a(S'0.5*1/((44-24)/3.9)^2'
p1803
V15.21/800
p1804
(lp1805
(g109
F0.019012499999999995
g1803
g1804
tp1806
aS'dillonliu'
p1807
(lp1808
V2016-11-01 04:27:44
p1809
tp1810
a(S'0.5*1/((44-24)/4.9)^2'
p1811
V(4.9)^2/800
p1812
(lp1813
(g109
F0.030012499999999998
g1811
g1812
tp1814
aS'dillonliu'
p1815
(lp1816
V2016-11-01 04:28:12
p1817
tp1818
a(S'0.5*1/((44-24)/4.1)^2'
p1819
V(4.1)^2/800
p1820
(lp1821
(g109
F0.021012499999999993
g1819
g1820
tp1822
ag767
(lp1823
V2016-11-01 04:28:34
p1824
tp1825
a(S'0.5*1/((44-24)/4.0)^2'
p1826
V0.5*1/((44-24)/4)^2
p1827
(lp1828
(g109
F0.02
g1826
g1827
tp1829
ag807
(lp1830
V2016-10-31 01:13:22
p1831
tp1832
a(S'0.5*1/((44-24)/3.7)^2'
p1833
V0.5*1/(((44-24)/3.7)^2)
p1834
(lp1835
(g109
F0.017112500000000003
g1833
g1834
tp1836
ag815
(lp1837
V2016-10-30 20:25:22
p1838
tp1839
a(S'0.5*1/((44-24)/4.0)^2'
p1840
V0.5*1/(((44-24)/4.0)^2)
p1841
(lp1842
(g109
F0.02
g1840
g1841
tp1843
ag831
(lp1844
V2016-11-02 08:17:51
p1845
tp1846
a(S'0.5*1/((44-24)/3.2)^2'
p1847
V0.5*1/((44-24)/3.2)^2
p1848
(lp1849
(g109
F0.0128
g1847
g1848
tp1850
ag847
(lp1851
V2016-11-02 01:55:46
p1852
tp1853
a(S'0.5*1/((44-24)/4.2)^2'
p1854
V0.5*1/((44-24)/4.2)^2
p1855
(lp1856
(g109
F0.02205
g1854
g1855
tp1857
ag863
(lp1858
V2016-11-01 17:49:33
p1859
tp1860
a(S'0.5*1/((44-24)/3.7)^2'
p1861
V.5*1/((44-24)/3.7)^2
p1862
(lp1863
(g109
F0.017112500000000003
g1861
g1862
tp1864
ag879
(lp1865
V2016-11-02 01:56:22
p1866
tp1867
a(S'0.5*1/((44-24)/4.0)^2'
p1868
V0.5/25
p1869
(lp1870
(g109
F0.02
g1868
g1869
tp1871
ag895
(lp1872
V2016-10-30 09:42:36
p1873
tp1874
a(S'0.5*1/((44-24)/3.4)^2'
p1875
V0.5*(3.4/20)^2
p1876
(lp1877
(g109
F0.014449999999999998
g1875
g1876
tp1878
ag935
(lp1879
V2016-10-29 20:02:19
p1880
tp1881
a(S'0.5*1/((44-24)/3.7)^2'
p1882
V1/(2*(20/3.7)^2)
p1883
(lp1884
(g109
F0.017112500000000003
g1882
g1883
tp1885
aS'Guillermo'
p1886
(lp1887
V2016-10-29 20:17:13
p1888
tp1889
a(S'0.5*1/((44-24)/3.2)^2'
p1890
V1/(2*(20/3.2)^2)
p1891
(lp1892
(g109
F0.0128
g1890
g1891
tp1893
aS'Guillermo'
p1894
(lp1895
V2016-10-29 20:41:27
p1896
tp1897
a(S'0.5*1/((44-24)/4.4)^2'
p1898
V1/(2*(20/4.4)^2)
p1899
(lp1900
(g109
F0.024200000000000006
g1898
g1899
tp1901
aS'Guillermo'
p1902
(lp1903
V2016-10-29 20:44:54
p1904
tp1905
a(S'0.5*1/((44-24)/3.3)^2'
p1906
V1/(2*(20/3.3)^2)
p1907
(lp1908
(g109
F0.013612500000000001
g1906
g1907
tp1909
ag943
(lp1910
V2016-10-29 20:45:36
p1911
tp1912
a(S'0.5*1/((44-24)/4.3)^2'
p1913
V9.245/(20^2)
p1914
(lp1915
(g109
F0.023112499999999998
g1913
g1914
tp1916
ag967
(lp1917
V2016-10-30 19:47:52
p1918
tp1919
a(S'0.5*1/((44-24)/3.6)^2'
p1920
V0.0324/2
p1921
(lp1922
(g109
F0.0162
g1920
g1921
tp1923
ag1015
(lp1924
V2016-11-02 01:45:45
p1925
tp1926
a(S'0.5*1/((44-24)/4.0)^2'
p1927
V0.5*1/((44-24)/4)^2
p1928
(lp1929
(g109
F0.02
g1927
g1928
tp1930
aS'DannyChan'
p1931
(lp1932
V2016-10-30 23:48:41
p1933
tp1934
a(S'0.5*1/((44-24)/4.4)^2'
p1935
V0.5*1/((44-24)/4.4)^2
p1936
(lp1937
(g109
F0.024200000000000006
g1935
g1936
tp1938
ag1023
(lp1939
V2016-10-30 23:50:22
p1940
tp1941
a(S'0.5*1/((44-24)/3.2)^2'
p1942
V(3.2^2)/(800)
p1943
(lp1944
(g109
F0.0128
g1942
g1943
tp1945
ag1031
(lp1946
V2016-11-02 05:20:05
p1947
tp1948
a(S'0.5*1/((44-24)/3.4)^2'
p1949
V(1/((20/3.4)^2))/2
p1950
(lp1951
(g109
F0.014449999999999998
g1949
g1950
tp1952
aS'kmesic'
p1953
(lp1954
V2016-11-01 18:15:41
p1955
tp1956
a(S'0.5*1/((44-24)/4.4)^2'
p1957
V(1/((20/4.4)^2))/2
p1958
(lp1959
(g109
F0.024200000000000006
g1957
g1958
tp1960
aS'kmesic'
p1961
(lp1962
V2016-11-01 18:24:59
p1963
tp1964
a(S'0.5*1/((44-24)/4.0)^2'
p1965
V(1/((20/4)^2))/2
p1966
(lp1967
(g109
F0.02
g1965
g1966
tp1968
ag1039
(lp1969
V2016-11-01 18:25:51
p1970
tp1971
a(S'0.5*1/((44-24)/3.8)^2'
p1972
V0.0361/2
p1973
(lp1974
(g109
F0.018049999999999997
g1972
g1973
tp1975
aS'zhc047'
p1976
(lp1977
V2016-11-02 01:47:45
p1978
tp1979
a(S'0.5*1/((44-24)/4.8)^2'
p1980
V0.0288
p1981
(lp1982
(g109
F0.028799999999999996
g1980
g1981
tp1983
aS'zhc047'
p1984
(lp1985
V2016-11-02 01:51:01
p1986
tp1987
a(S'0.5*1/((44-24)/3.0)^2'
p1988
V0.0225/2
p1989
(lp1990
(g109
F0.011249999999999998
g1988
g1989
tp1991
aS'zhc047'
p1992
(lp1993
V2016-11-02 01:52:05
p1994
tp1995
a(S'0.5*1/((44-24)/3.4)^2'
p1996
V0.01445
p1997
(lp1998
(g109
F0.014449999999999998
g1996
g1997
tp1999
ag1047
(lp2000
V2016-11-02 01:59:28
p2001
tp2002
a(S'0.5*1/((44-24)/3.5)^2'
p2003
V0.5/((20/3.5)*(20/3.5))
p2004
(lp2005
(g109
F0.0153125
g2003
g2004
tp2006
ag1079
(lp2007
V2016-10-31 18:38:48
p2008
tp2009
a(S'0.5*1/((44-24)/3.1)^2'
p2010
V( (3.1^2) / (44-24)^2)/2
p2011
(lp2012
(g109
F0.012012500000000002
g2010
g2011
tp2013
aS'PizzaPolice'
p2014
(lp2015
V2016-11-02 10:11:53
p2016
tp2017
a(S'0.5*1/((44-24)/4.1)^2'
p2018
V0.5*1/((44-24)/4.1)^2
p2019
(lp2020
(g109
F0.021012499999999993
g2018
g2019
tp2021
ag1087
(lp2022
V2016-10-29 21:27:31
p2023
tp2024
a(S'0.5*1/((44-24)/4.2)^2'
p2025
V(4.2/20)^2/2
p2026
(lp2027
(g109
F0.02205
g2025
g2026
tp2028
ag1095
(lp2029
V2016-10-30 22:47:00
p2030
tp2031
a(S'0.5*1/((44-24)/4.2)^2'
p2032
V(4.2)^2/800
p2033
(lp2034
(g109
F0.02205
g2032
g2033
tp2035
ag1119
(lp2036
V2016-10-30 04:50:29
p2037
tp2038
asS"['R.0.1', 'R.1.0.0.0', 'R.1.0.1', 'R.1.1']"
p2039
(lp2040
(S'0.5*1/((44-24)/4.7)^2'
p2041
V.5 * 1 / ((44-42)/4.7)^2
p2042
(lp2043
(S'R.0.1'
p2044
F1.0
g1563
g1564
tp2045
a(S'R.1.0.0.0'
p2046
F44.0
S'44'
p2047
V44
p2048
tp2049
a(S'R.1.0.1'
p2050
F4.7
S'4.7'
p2051
V4.7
p2052
tp2053
a(S'R.1.1'
p2054
F2.0
g1508
g1509
tp2055
ag119
(lp2056
V2016-10-29 23:03:00
p2057
tp2058
ass.