(dp0
S'11'
p1
(dp2
S'codyndoan'
p3
(dp4
S'first_attempt'
p5
V2016-11-02 17:49:37
p6
sS'part11_correct_attempt'
p7
(lp8
S'0:00:00'
p9
aV(1*(4/16) + 2*(8/16) + 3*(4/16))*2
p10
asS'part11_incorrect_attempt'
p11
(lp12
(S'-2 days, 4:21:46'
p13
V(1*((1/16) + (2/16) + (1/16)) + 2*((2/16) + (4/16) + (2/16)) + 3*((1/16) + (2/16) + (1/16)))*2
p14
tp15
a(S'0:00:00'
p16
V(1*(4/16) + 2*(8/16) + 3*(4/16))*2
p17
tp18
assS'HaoDong'
p19
(dp20
g5
V2016-10-30 22:13:39
p21
sS'part11_correct_attempt'
p22
(lp23
S'0:00:00'
p24
aV(4/16+2*8/16+3*4/16)*2
p25
asS'part11_incorrect_attempt'
p26
(lp27
(S'-1 day, 23:52:07'
p28
V(4/16+2*8/16+3*4/16)+(4/16+2*8/16+3*4/16)
p29
tp30
a(S'0:00:00'
p31
V(4/16+2*8/16+3*4/16)*2
p32
tp33
assS'piamsiri'
p34
(dp35
g5
V2016-10-29 19:55:34
p36
sS'part11_correct_attempt'
p37
(lp38
S'0:00:00'
p39
aV32/16 + 32/16
p40
asS'part11_incorrect_attempt'
p41
(lp42
(S'0:00:00'
p43
V32/16 + 32/16
p44
tp45
assS'vincebai'
p46
(dp47
g5
V2016-11-01 06:16:20
p48
sS'part11_correct_attempt'
p49
(lp50
S'0:00:00'
p51
aV2*(4/16 + 16/16 + 12/16)
p52
asS'part11_incorrect_attempt'
p53
(lp54
(S'0:00:00'
p55
V2*(4/16 + 16/16 + 12/16)
p56
tp57
assS'christywong'
p58
(dp59
g5
V2016-10-30 06:51:34
p60
sS'part11_correct_attempt'
p61
(lp62
S'0:00:00'
p63
aV(1*((1+2+1)/16)+2*((2+4+2)/16)+3*((1+2+1)/16))+(1*((1+2+1)/16)+2*((2+4+2)/16)+3*((1+2+1)/16))
p64
asS'part11_incorrect_attempt'
p65
(lp66
(S'0:00:00'
p67
V(1*((1+2+1)/16)+2*((2+4+2)/16)+3*((1+2+1)/16))+(1*((1+2+1)/16)+2*((2+4+2)/16)+3*((1+2+1)/16))
p68
tp69
assS'ReneSanchez'
p70
(dp71
g5
V2016-11-02 20:36:20
p72
sS'part11_incorrect_attempt'
p73
(lp74
(S'0:00:00'
p75
V4/16 + 4/16 + 8/16 + 4/16 + 4/16 + 8/16
p76
tp77
assS'rsamuail'
p78
(dp79
g5
V2016-10-29 23:27:48
p80
sS'part11_correct_attempt'
p81
(lp82
S'0:00:00'
p83
aV1*(1+2+1)/16+2*(2+4+2)/16+3*(1+2+1)/16+1*(1+2+1)/16+2*(2+4+2)/16+3*(1+2+1)/16
p84
asS'part11_incorrect_attempt'
p85
(lp86
(S'-1 day, 23:04:57'
p87
V(1*(1+2+1)/16+2*(2+4+2)/16+3*(1+2+1)/16)+(1*(1+2+1)/16+2*(2+4+2)/16+3*(1+2+1)/16)
p88
tp89
a(S'-1 day, 23:38:03'
p90
V(1*(1+2+1)/16+2*(2+4+2)/16+3*(1+2+1)/16)+(1*(1+2+1)/16+2*(2+4+2)/16+3*(1+2+1)/16)
p91
tp92
assS'zow006'
p93
(dp94
g5
V2016-11-01 21:55:07
p95
sS'part11_correct_attempt'
p96
(lp97
S'0:00:00'
p98
aV2(1/4+2/2+3/4)
p99
asS'part11_incorrect_attempt'
p100
(lp101
(S'-1 day, 23:37:35'
p102
V2(1/4+2/2+3/4)
p103
tp104
a(S'-1 day, 23:50:01'
p105
V2*2
p106
tp107
a(S'0:00:00'
p108
V2(1/4+2/2+3/4)
p109
tp110
assS'tsy'
p111
(dp112
g5
V2016-11-02 19:50:25
p113
sS'part11_correct_attempt'
p114
(lp115
S'0:00:00'
p116
aV4
p117
asS'part11_incorrect_attempt'
p118
(lp119
(S'-1 day, 23:57:51'
p120
V2((4/16)+1+(12/16))
p121
tp122
assS'tommyt1109'
p123
(dp124
g5
V2016-11-01 08:23:58
p125
sS'part11_correct_attempt'
p126
(lp127
S'0:00:00'
p128
aV2*((1*4/16)+(2*8/16)+(3*4/16))
p129
asS'part11_incorrect_attempt'
p130
(lp131
(S'-1 day, 23:57:59'
p132
V2*((1*4/16)+(2*8/16)+(3*4/16))
p133
tp134
a(S'0:00:00'
p135
V2*((1*4/16)+(2*8/16)+(3*4/16))
p136
tp137
assS'mvkrishn'
p138
(dp139
g5
V2016-11-02 17:27:41
p140
sS'part11_correct_attempt'
p141
(lp142
S'0:00:00'
p143
aV4
p144
asS'part11_incorrect_attempt'
p145
(lp146
(S'-1 day, 23:48:04'
p147
V2*(1/4 + 1 + 3/4)
p148
tp149
assS'Joonhan'
p150
(dp151
g5
V2016-10-30 08:53:35
p152
sS'part11_correct_attempt'
p153
(lp154
S'0:00:00'
p155
aV2*((1*(4/16))+(2*(8/16))+(3*(4/16)))
p156
asS'part11_incorrect_attempt'
p157
(lp158
(S'-1 day, 23:57:52'
p159
V2*((1*(4/16))+(2*(8/16))+(3*(4/16)))
p160
tp161
a(S'0:00:00'
p162
V2*((1*(4/16))+(2*(8/16))+(3*(4/16)))
p163
tp164
assS'mtashman'
p165
(dp166
g5
V2016-10-30 18:41:09
p167
sS'part11_correct_attempt'
p168
(lp169
S'0:00:00'
p170
aV(1/16)+(2/16)+(1/16)+(2/16)+(4/16)+(2/16)+(1/16)+(2/16)+(1/16)+(1/16)+(2/16)+(1/16)+(2/16)+(4/16)+(2/16)+(1/16)+(2/16)+(1/16)
p171
asS'part11_incorrect_attempt'
p172
(lp173
(S'0:00:00'
p174
V(1/16)+(2/16)+(1/16)+(2/16)+(4/16)+(2/16)+(1/16)+(2/16)+(1/16)+(1/16)+(2/16)+(1/16)+(2/16)+(4/16)+(2/16)+(1/16)+(2/16)+(1/16)
p175
tp176
assS'aliceh'
p177
(dp178
g5
V2016-11-02 05:22:00
p179
sS'part11_correct_attempt'
p180
(lp181
S'0:00:00'
p182
aV2*2
p183
asS'part11_incorrect_attempt'
p184
(lp185
(S'0:00:00'
p186
V2*2
p187
tp188
assS'TianhaoQiu'
p189
(dp190
g5
V2016-11-02 18:43:51
p191
sS'part11_correct_attempt'
p192
(lp193
S'0:00:00'
p194
aV2*(4/16+2*8/16+3*4/16)
p195
asS'part11_incorrect_attempt'
p196
(lp197
(S'0:00:00'
p198
V2*(4/16+2*8/16+3*4/16)
p199
tp200
assS'ray003'
p201
(dp202
g5
V2016-11-01 21:23:01
p203
sS'part11_correct_attempt'
p204
(lp205
S'0:00:00'
p206
aV2*((1/4)*1+(1/2)*2+(1/4)*3)
p207
asS'part11_incorrect_attempt'
p208
(lp209
(S'0:00:00'
p210
V2*((1/4)*1+(1/2)*2+(1/4)*3)
p211
tp212
assS'christhoperbernard'
p213
(dp214
g5
V2016-11-01 18:34:52
p215
sS'part11_correct_attempt'
p216
(lp217
S'0:00:00'
p218
aV2*(4/16+16/16+12/16)
p219
asS'part11_incorrect_attempt'
p220
(lp221
(S'-1 day, 23:51:43'
p222
V2*(4/16+16/16+12/16)
p223
tp224
a(S'0:00:00'
p225
V2*(4/16+16/16+12/16)
p226
tp227
assS'kmesic'
p228
(dp229
g5
V2016-11-01 17:07:34
p230
sS'part11_correct_attempt'
p231
(lp232
S'0:00:00'
p233
aV2* ((1/4) + 1 + (3/4))
p234
asS'part11_incorrect_attempt'
p235
(lp236
(S'0:00:00'
p237
V2* ((1/4) + 1 + (3/4))
p238
tp239
assS'k1siu'
p240
(dp241
g5
V2016-10-30 23:22:23
p242
sS'part11_correct_attempt'
p243
(lp244
S'0:00:00'
p245
aV(1(1/16 + 2/16 + 1/16) + 2*(2/16 + 4/16 + 2/16) + 3*(1/16 + 2/16 + 1/16)) + (1*(1/16 + 2/16 + 1/16) + 2*(2/16 + 4/16 + 2/16) + 3*(1/16 + 2/16 + 1/16))
p246
asS'part11_incorrect_attempt'
p247
(lp248
(S'0:00:00'
p249
V(1(1/16 + 2/16 + 1/16) + 2*(2/16 + 4/16 + 2/16) + 3*(1/16 + 2/16 + 1/16)) + (1*(1/16 + 2/16 + 1/16) + 2*(2/16 + 4/16 + 2/16) + 3*(1/16 + 2/16 + 1/16))
p250
tp251
assS'Ankush_Sarow'
p252
(dp253
g5
V2016-11-01 22:11:46
p254
sS'part11_correct_attempt'
p255
(lp256
S'0:00:00'
p257
aV2(1/4 + 1 + 3/4)
p258
asS'part11_incorrect_attempt'
p259
(lp260
(S'0:00:00'
p261
V2(1/4 + 1 + 3/4)
p262
tp263
assS'Guillermo'
p264
(dp265
g5
V2016-10-29 05:22:16
p266
sS'part11_correct_attempt'
p267
(lp268
S'0:00:00'
p269
aV((1)*(4/16)+(2)*(8/16)+(3)*(4/16))+((1)*(4/16)+(2)*(8/16)+(3)*(4/16))
p270
asS'part11_incorrect_attempt'
p271
(lp272
(S'-1 day, 21:43:54'
p273
V((1)*(4/16)+(2)*(8/16)+(3)*(4/16))+((1)*(4/16)+(2)*(8/16)+(3)*(4/16))
p274
tp275
a(S'-1 day, 21:49:29'
p276
V((1)*(4/16)+(2)*(8/16)+(3)*(4/16))+((4/16)+1+(12/16))
p277
tp278
a(S'-1 day, 22:25:04'
p279
V((1)*(4/16)+(2)*(8/16)+(3)*(4/16))+((1)*(4/16)+(2)*(8/16)+(3)*(4/16))
p280
tp281
a(S'0:00:00'
p282
V((1)*(4/16)+(2)*(8/16)+(3)*(4/16))+((1)*(4/16)+(2)*(8/16)+(3)*(4/16))
p283
tp284
assS'jar045'
p285
(dp286
g5
V2016-11-01 05:17:16
p287
sS'part11_correct_attempt'
p288
(lp289
S'0:00:00'
p290
aV(0.25 * 1 + 2*0.5 + 3 * 0.25) + (0.25 * 1 + 2*0.5 + 3 * 0.25)
p291
asS'part11_incorrect_attempt'
p292
(lp293
(S'0:00:00'
p294
V(0.25 * 1 + 2*0.5 + 3 * 0.25) + (0.25 * 1 + 2*0.5 + 3 * 0.25)
p295
tp296
assS'wheilson'
p297
(dp298
g5
V2016-11-01 08:30:11
p299
sS'part11_correct_attempt'
p300
(lp301
S'0:00:00'
p302
aV(1/4+1+3/4)*2
p303
asS'part11_incorrect_attempt'
p304
(lp305
(S'0:00:00'
p306
V(1/4+1+3/4)*2
p307
tp308
asssS'10'
p309
(dp310
g165
(dp311
S'part10_incorrect_attempt'
p312
(lp313
(S'0:00:00'
p314
V(1/16)+(2/16)+(1/16)+(2/16)+(4/16)+(2/16)+(1/16)+(2/16)+(1/16)
p315
tp316
asg5
g167
sS'part10_correct_attempt'
p317
(lp318
S'0:00:00'
p319
aV(1/16)+(2/16)+(1/16)+(2/16)+(4/16)+(2/16)+(1/16)+(2/16)+(1/16)
p320
asssS'13'
p321
(dp322
S'zkvick'
p323
(dp324
S'part13_correct_attempt'
p325
(lp326
S'0:00:00'
p327
aV1/2+1/4+1+3/4+3/4+3/4-4
p328
asS'part13_incorrect_attempt'
p329
(lp330
(S'0:00:00'
p331
V1/2+1/4+1+3/4+3/4+3/4-4
p332
tp333
asg5
V2016-11-01 20:03:10
p334
ssg34
(dp335
S'part13_correct_attempt'
p336
(lp337
S'0:00:00'
p338
aV2*2 - (32/16 + 32/16)
p339
asS'part13_incorrect_attempt'
p340
(lp341
(S'0:00:00'
p342
V2*2 - (32/16 + 32/16)
p343
tp344
asg5
g36
ssS'zhc047'
p345
(dp346
S'part13_correct_attempt'
p347
(lp348
S'0:00:00'
p349
aV4 - 4
p350
asS'part13_incorrect_attempt'
p351
(lp352
(S'0:00:00'
p353
V4 - 4
p354
tp355
asg5
V2016-11-01 06:29:09
p356
ssg93
(dp357
S'part13_correct_attempt'
p358
(lp359
S'0:00:00'
p360
aV4-4
p361
asS'part13_incorrect_attempt'
p362
(lp363
(S'-1 day, 23:37:35'
p364
V4-4
p365
tp366
a(S'-1 day, 23:50:01'
p367
V4-4
p368
tp369
a(S'0:00:00'
p370
V4-4
p371
tp372
asg5
g95
ssS'YuqinWu'
p373
(dp374
S'part13_correct_attempt'
p375
(lp376
S'0:00:00'
p377
aV(1+4+3+4+16+12+3+12+9)/16 - 4
p378
asS'part13_incorrect_attempt'
p379
(lp380
(S'0:00:00'
p381
V(1+4+3+4+16+12+3+12+9)/16 - 4
p382
tp383
asg5
V2016-10-29 19:59:39
p384
ssS'DannyChan'
p385
(dp386
S'part13_correct_attempt'
p387
(lp388
S'0:00:00'
p389
aV0
p390
asS'part13_incorrect_attempt'
p391
(lp392
(S'-1 day, 23:56:09'
p393
V(1/2 + 32/16 + 24/16) - ((1/4+1+3/4)*(1/4+1+3/4))
p394
tp395
asg5
V2016-10-30 23:28:40
p396
ssg285
(dp397
S'part13_correct_attempt'
p398
(lp399
S'0:00:00'
p400
aV4 - (2 * 2)
p401
asS'part13_incorrect_attempt'
p402
(lp403
(S'0:00:00'
p404
V4 - (2 * 2)
p405
tp406
asg5
g287
ssg78
(dp407
S'part13_correct_attempt'
p408
(lp409
S'0:00:00'
p410
aV((1*1+2*2+3*1+2*2+4*4+6*2+3*1+6*2+9*1)/16)-((1*(1+2+1)/16+2*(2+4+2)/16+3*(1+2+1)/16)*(1*(1+2+1)/16+2*(2+4+2)/16+3*(1+2+1)/16))
p411
asS'part13_incorrect_attempt'
p412
(lp413
(S'-1 day, 23:04:57'
p414
V((1*1+2*2+3*1+2*2+4*4+6*2+3*1+6*2+9*1)/16)-((1*(1+2+1)/16+2*(2+4+2)/16+3*(1+2+1)/16)*(1*(1+2+1)/16+2*(2+4+2)/16+3*(1+2+1)/16))
p415
tp416
a(S'-1 day, 23:38:03'
p417
V(1*1+2*2+3*1+2*2+4*4+6*2+3*1+6*2+9*1)/16-(1*(1+2+1)/16+2*(2+4+2)/16+3*(1+2+1)/16)*(1*(1+2+1)/16+2*(2+4+2)/16+3*(1+2+1)/16)
p418
tp419
a(S'0:00:00'
p420
V((1*1+2*2+3*1+2*2+4*4+6*2+3*1+6*2+9*1)/16)-((1*(1+2+1)/16+2*(2+4+2)/16+3*(1+2+1)/16)*(1*(1+2+1)/16+2*(2+4+2)/16+3*(1+2+1)/16))
p421
tp422
asg5
g80
sssS'12'
p423
(dp424
S'codyndoan'
p425
(dp426
S'part12_correct_attempt'
p427
(lp428
S'0:00:00'
p429
aV(1*(4/16) + 2*(8/16) + 3*(4/16))^2
p430
asS'part12_incorrect_attempt'
p431
(lp432
(S'0:00:00'
p433
V(1*(4/16) + 2*(8/16) + 3*(4/16))^2
p434
tp435
asg5
g6
ssS'Zhongting'
p436
(dp437
S'part12_correct_attempt'
p438
(lp439
S'0:00:00'
p440
aV1/16+2*4/16+3*2/16+4*4/16+6*4/16+9/16
p441
asS'part12_incorrect_attempt'
p442
(lp443
(S'0:00:00'
p444
V1/16+2*4/16+3*2/16+4*4/16+6*4/16+9/16
p445
tp446
asg5
V2016-10-30 08:40:15
p447
ssS'zkvick'
p448
(dp449
S'part12_correct_attempt'
p450
(lp451
S'0:00:00'
p452
aV1/2+1/4+1+3/4+3/4+3/4
p453
asS'part12_incorrect_attempt'
p454
(lp455
(S'-1 day, 23:52:47'
p456
V1/2+1/4+1+3/4+3/4+3/4
p457
tp458
a(S'0:00:00'
p459
V1/2+1/4+1+3/4+3/4+3/4
p460
tp461
asg5
g334
ssS'Ian'
p462
(dp463
S'part12_correct_attempt'
p464
(lp465
S'0:00:00'
p466
aV(4/16 + 1 + 12/16)*(4/16 + 1 + 12/16)
p467
asS'part12_incorrect_attempt'
p468
(lp469
(S'0:00:00'
p470
V(4/16 + 1 + 12/16)*(4/16 + 1 + 12/16)
p471
tp472
asg5
V2016-11-01 22:58:40
p473
ssg34
(dp474
S'part12_correct_attempt'
p475
(lp476
S'0:00:00'
p477
aV2*2
p478
asS'part12_incorrect_attempt'
p479
(lp480
(S'0:00:00'
p481
V2*2
p482
tp483
asg5
g36
ssg46
(dp484
S'part12_correct_attempt'
p485
(lp486
S'0:00:00'
p487
aV1/16 + 4/16 + 3/16 + 4/16 + 16/16 + 12/16 + 3/16 + 12/16 + 9/16
p488
asS'part12_incorrect_attempt'
p489
(lp490
(S'0:00:00'
p491
V1/16 + 4/16 + 3/16 + 4/16 + 16/16 + 12/16 + 3/16 + 12/16 + 9/16
p492
tp493
asg5
g48
ssS'HaoDong'
p494
(dp495
S'part12_correct_attempt'
p496
(lp497
S'0:00:00'
p498
aV1*1/16+2*(2/16+2/16)+3*(1/16+1/16)+4*4/16+6*(2/16+2/16)+9*1/16
p499
asS'part12_incorrect_attempt'
p500
(lp501
(S'0:00:00'
p502
V1*1/16+2*(2/16+2/16)+3*(1/16+1/16)+4*4/16+6*(2/16+2/16)+9*1/16
p503
tp504
asg5
g21
ssS'ReneSanchez'
p505
(dp506
S'part12_incorrect_attempt'
p507
(lp508
(S'0:00:00'
p509
V(1*1*(1/16)) + (1*2*(2/16)) + (1*3*(1/16)) + (2*1*(2/16)) + (2*2*(4/16)) + (2*3*(2/16)) + (3*1*(1/16)) + (3*2*(2/16)) + (3*3*(1/16))
p510
tp511
asg5
V2016-11-02 21:12:54
p512
ssg165
(dp513
S'part12_correct_attempt'
p514
(lp515
S'0:00:00'
p516
aV((1/16)+(2/16)+(1/16)+(2/16)+(4/16)+(2/16)+(1/16)+(2/16)+(1/16))*((1/16)+(2/16)+(1/16)+(2/16)+(4/16)+(2/16)+(1/16)+(2/16)+(1/16))
p517
asS'part12_incorrect_attempt'
p518
(lp519
(S'0:00:00'
p520
V((1/16)+(2/16)+(1/16)+(2/16)+(4/16)+(2/16)+(1/16)+(2/16)+(1/16))*((1/16)+(2/16)+(1/16)+(2/16)+(4/16)+(2/16)+(1/16)+(2/16)+(1/16))
p521
tp522
asg5
g167
ssS'til005'
p523
(dp524
S'part12_correct_attempt'
p525
(lp526
S'0:00:00'
p527
aV1/16+8/16+6/16+1+24/16+9/16
p528
asS'part12_incorrect_attempt'
p529
(lp530
(S'-1 day, 13:12:13'
p531
V1/16+2*2*2/16+2*3/16+4*4/16+6*2*2/16+9/16
p532
tp533
a(S'-1 day, 23:56:07'
p534
V1/16+8/16+6/16+1+24/16+9/16
p535
tp536
a(S'0:00:00'
p537
V1/16+8/16+6/16+1+24/16+9/16
p538
tp539
asg5
V2016-11-02 05:49:08
p540
ssS'Shiyuc'
p541
(dp542
S'part12_correct_attempt'
p543
(lp544
S'0:00:00'
p545
aV(1*(1/16+2/16+1/16) + 2 * (2/16+4/16+2/16) + 3 * (1/16+2/16+1/16)) * (1*(1/16+2/16+1/16) + 2 * (2/16+4/16+2/16) + 3 * (1/16+2/16+1/16))
p546
asS'part12_incorrect_attempt'
p547
(lp548
(S'0:00:00'
p549
V(1*(1/16+2/16+1/16) + 2 * (2/16+4/16+2/16) + 3 * (1/16+2/16+1/16)) * (1*(1/16+2/16+1/16) + 2 * (2/16+4/16+2/16) + 3 * (1/16+2/16+1/16))
p550
tp551
asg5
V2016-10-31 03:11:38
p552
ssS'woguan'
p553
(dp554
S'part12_correct_attempt'
p555
(lp556
S'0:00:00'
p557
aV1*1/16 + 2*2/16 + 3*1/16 + 2*2/16 + 4*4/16 + 6*2/16 + 3*1/16 + 6*2/16 + 9*1/16
p558
asS'part12_incorrect_attempt'
p559
(lp560
(S'0:00:00'
p561
V1*1/16 + 2*2/16 + 3*1/16 + 2*2/16 + 4*4/16 + 6*2/16 + 3*1/16 + 6*2/16 + 9*1/16
p562
tp563
asg5
V2016-11-02 16:46:38
p564
ssg58
(dp565
S'part12_correct_attempt'
p566
(lp567
S'0:00:00'
p568
aV(1*1*(1/16))+(2*1*(2/16))+(3*1*(1/16))+(1*2*(2/16))+(2*2*(4/16))+(3*2*(2/16))+(1*3*(1/16))+(2*3*(2/16))+(3*3*(1/16))
p569
asS'part12_incorrect_attempt'
p570
(lp571
(S'0:00:00'
p572
V(1*1*(1/16))+(2*1*(2/16))+(3*1*(1/16))+(1*2*(2/16))+(2*2*(4/16))+(3*2*(2/16))+(1*3*(1/16))+(2*3*(2/16))+(3*3*(1/16))
p573
tp574
asg5
g60
ssS'john_wishon'
p575
(dp576
S'part12_correct_attempt'
p577
(lp578
S'0:00:00'
p579
aV4
p580
asS'part12_incorrect_attempt'
p581
(lp582
(S'-1 day, 23:24:08'
p583
V(1*1*(4/16))+(1*2*(8/16))+(1*3*(4/16))
p584
tp585
a(S'-1 day, 23:30:48'
p586
V1*1*(1/16) + 1*2*(2/16) + 1*3*(1/16) + 2*1*(2/16) + 2*2*(4/16) + 2*3*(2/16) + 3*1*(1/16) + 3*2*(2/16) + 3*3*(1/16)
p587
tp588
a(S'-1 day, 23:40:43'
p589
V1*1*(1/16) + 1*2*(2/16) + 1*3*(1/16) + 2*1*(2/16) + 2*2*(4/16) + 2*3*(2/16) + 3*1*(1/16) + 3*2*(2/16) + 3*3*(1/16)
p590
tp591
asg5
V2016-11-02 00:06:46
p592
ssg111
(dp593
S'part12_correct_attempt'
p594
(lp595
S'0:00:00'
p596
aV4
p597
asS'part12_incorrect_attempt'
p598
(lp599
(S'-1 day, 23:57:51'
p600
V1/16+4/16+3/16+4/16+1+12/16+3/16+12/16+9/16
p601
tp602
asg5
g113
ssS'SidneyNguyen'
p603
(dp604
S'part12_correct_attempt'
p605
(lp606
S'0:00:00'
p607
aV(4/16+16/16+12/16)*(4/16+16/16+12/16)
p608
asS'part12_incorrect_attempt'
p609
(lp610
(S'0:00:00'
p611
V(4/16+16/16+12/16)*(4/16+16/16+12/16)
p612
tp613
asg5
V2016-11-02 04:13:46
p614
ssS'twsalim'
p615
(dp616
S'part12_correct_attempt'
p617
(lp618
S'0:00:00'
p619
aV(1/4 + 1 + 3/4)(1/4 + 1 + 3/4)
p620
asS'part12_incorrect_attempt'
p621
(lp622
(S'0:00:00'
p623
V(1/4 + 1 + 3/4)(1/4 + 1 + 3/4)
p624
tp625
asg5
V2016-10-31 04:45:03
p626
ssg123
(dp627
S'part12_correct_attempt'
p628
(lp629
S'0:00:00'
p630
aV((1*4/16)+(2*8/16)+(3*4/16))^2
p631
asS'part12_incorrect_attempt'
p632
(lp633
(S'-1 day, 23:57:59'
p634
V((1*4/16)+(2*8/16)+(3*4/16))^2
p635
tp636
a(S'0:00:00'
p637
V((1*4/16)+(2*8/16)+(3*4/16))^2
p638
tp639
asg5
g125
ssS'RobinO'
p640
(dp641
S'part12_correct_attempt'
p642
(lp643
S'0:00:00'
p644
aV1*(1/16)+2*(4/16)+3*(2/16)+4*(4/16)+6*(4/16)+9*(1/16)
p645
asS'part12_incorrect_attempt'
p646
(lp647
(S'0:00:00'
p648
V1*(1/16)+2*(4/16)+3*(2/16)+4*(4/16)+6*(4/16)+9*(1/16)
p649
tp650
asg5
V2016-10-30 18:55:27
p651
ssg385
(dp652
S'part12_correct_attempt'
p653
(lp654
S'0:00:00'
p655
aV4
p656
asS'part12_incorrect_attempt'
p657
(lp658
(S'-1 day, 23:56:09'
p659
V1/2 + 32/16 + 24/16
p660
tp661
asg5
g396
ssg150
(dp662
S'part12_correct_attempt'
p663
(lp664
S'0:00:00'
p665
aV((1*(4/16))+(2*(8/16))+(3*(4/16)))^2
p666
asS'part12_incorrect_attempt'
p667
(lp668
(S'-1 day, 23:57:52'
p669
V((1*(4/16))+(2*(8/16))+(3*(4/16)))^2
p670
tp671
a(S'0:00:00'
p672
V((1*(4/16))+(2*(8/16))+(3*(4/16)))^2
p673
tp674
asg5
g152
ssS'DannyDelCerro'
p675
(dp676
S'part12_correct_attempt'
p677
(lp678
S'0:00:00'
p679
aV((1/4)+(1)+(3/4))((1/4)+(1)+(3/4))
p680
asS'part12_incorrect_attempt'
p681
(lp682
(S'-1 day, 23:57:06'
p683
V((1/4)+(1)+(3/4))((1/4)+(1)+(3/4))
p684
tp685
a(S'0:00:00'
p686
V((1/4)+(1)+(3/4))((1/4)+(1)+(3/4))
p687
tp688
asg5
V2016-11-02 01:37:49
p689
ssg189
(dp690
S'part12_correct_attempt'
p691
(lp692
S'0:00:00'
p693
aV2*(4/16+2*8/16+3*4/16)
p694
asS'part12_incorrect_attempt'
p695
(lp696
(S'0:00:00'
p697
V2*(4/16+2*8/16+3*4/16)
p698
tp699
asg5
g191
ssg201
(dp700
S'part12_correct_attempt'
p701
(lp702
S'0:00:00'
p703
aV((1/4)*1+(1/2)*2+(1/4)*3)^2
p704
asS'part12_incorrect_attempt'
p705
(lp706
(S'0:00:00'
p707
V((1/4)*1+(1/2)*2+(1/4)*3)^2
p708
tp709
asg5
g203
ssS'christhoperbernard'
p710
(dp711
S'part12_correct_attempt'
p712
(lp713
S'0:00:00'
p714
aV(4/16+16/16+12/16)*(4/16+16/16+12/16)
p715
asS'part12_incorrect_attempt'
p716
(lp717
(S'0:00:00'
p718
V(4/16+16/16+12/16)*(4/16+16/16+12/16)
p719
tp720
asg5
g215
ssg228
(dp721
S'part12_correct_attempt'
p722
(lp723
S'0:00:00'
p724
aV((1/4) + 1 + (3/4))^2
p725
asS'part12_incorrect_attempt'
p726
(lp727
(S'0:00:00'
p728
V((1/4) + 1 + (3/4))^2
p729
tp730
asg5
g230
ssg240
(dp731
S'part12_correct_attempt'
p732
(lp733
S'0:00:00'
p734
aV1*(1/16) + 2*(2/16) + 3*(1/16) + 2*(2/16) + 4*(4/16) + 6*(2/16) + 3*(1/16) + 6*(2/16) + 9*(1/16)
p735
asS'part12_incorrect_attempt'
p736
(lp737
(S'0:00:00'
p738
V1*(1/16) + 2*(2/16) + 3*(1/16) + 2*(2/16) + 4*(4/16) + 6*(2/16) + 3*(1/16) + 6*(2/16) + 9*(1/16)
p739
tp740
asg5
g242
ssg252
(dp741
S'part12_correct_attempt'
p742
(lp743
S'0:00:00'
p744
aV(1/4 + 1 + 3/4)^2
p745
asS'part12_incorrect_attempt'
p746
(lp747
(S'0:00:00'
p748
V(1/4 + 1 + 3/4)^2
p749
tp750
asg5
g254
ssg285
(dp751
S'part12_correct_attempt'
p752
(lp753
S'0:00:00'
p754
aV1*(1/16) + 2*(2/16) + 3*(1/16) + 2*(2/16) + 4*(4/16) + 6*(2/16) + 3*(1/16) + 6*(2/16) + 9*(1/16)
p755
asS'part12_incorrect_attempt'
p756
(lp757
(S'0:00:00'
p758
V1*(1/16) + 2*(2/16) + 3*(1/16) + 2*(2/16) + 4*(4/16) + 6*(2/16) + 3*(1/16) + 6*(2/16) + 9*(1/16)
p759
tp760
asg5
g287
ssg297
(dp761
S'part12_correct_attempt'
p762
(lp763
S'0:00:00'
p764
aV(1/4+1+3/4)*(1/4+1+3/4)
p765
asS'part12_incorrect_attempt'
p766
(lp767
(S'0:00:00'
p768
V(1/4+1+3/4)*(1/4+1+3/4)
p769
tp770
asg5
g299
sssS'15'
p771
(dp772
S'john_wishon'
p773
(dp774
S'part15_correct_attempt'
p775
(lp776
S'0:00:00'
p777
aV0
p778
asS'part15_incorrect_attempt'
p779
(lp780
(S'-1 day, 23:11:42'
p781
V-1
p782
tp783
asg5
g592
ssS'Nikan_Aminian'
p784
(dp785
S'part15_correct_attempt'
p786
(lp787
S'0:00:00'
p788
aV0
p789
asS'part15_incorrect_attempt'
p790
(lp791
(S'-1 day, 23:58:42'
p792
V-1
p793
tp794
asg5
V2016-11-02 20:28:53
p795
ssg213
(dp796
S'part15_correct_attempt'
p797
(lp798
S'0:00:00'
p799
aV0
p800
asS'part15_incorrect_attempt'
p801
(lp802
(S'-1 day, 23:51:43'
p803
V-1
p804
tp805
asg5
g215
sssS'14'
p806
(dp807
g323
(dp808
S'part14_correct_attempt'
p809
(lp810
S'0:00:00'
p811
aV(1/2+1/4+1+3/4+3/4+3/4-4)/(2/3)
p812
asg5
g334
sS'part14_incorrect_attempt'
p813
(lp814
(S'0:00:00'
p815
V(1/2+1/4+1+3/4+3/4+3/4-4)/(2/3)
p816
tp817
asssS'1'
p818
(dp819
S'rsamuail'
p820
(dp821
S'part1_correct_attempt'
p822
(lp823
S'1:46:58'
p824
aV1/16+2/16+1/16
p825
asg5
V2016-10-29 21:40:50
p826
sS'part1_incorrect_attempt'
p827
(lp828
(S'0:00:00'
p829
V1/16
p830
tp831
assS'PhillipJo'
p832
(dp833
g5
V2016-11-01 09:54:52
p834
sS'part1_incorrect_attempt'
p835
(lp836
(S'0:00:00'
p837
V1/16
p838
tp839
assS'JunnelReboquio'
p840
(dp841
g5
V2016-10-31 18:23:46
p842
sS'part1_incorrect_attempt'
p843
(lp844
(S'0:00:00'
p845
V1/16
p846
tp847
asssS'3'
p848
(dp849
g820
(dp850
S'part3_correct_attempt'
p851
(lp852
S'0:00:00'
p853
aV1/16+2/16+1/16
p854
asS'part3_incorrect_attempt'
p855
(lp856
(S'-1 day, 22:13:02'
p857
V1/16
p858
tp859
asg5
g80
ssg840
(dp860
S'part3_incorrect_attempt'
p861
(lp862
(S'0:00:00'
p863
V1/16
p864
tp865
asg5
V2016-10-31 18:23:46
p866
sssS'2'
p867
(dp868
g820
(dp869
S'part2_correct_attempt'
p870
(lp871
S'0:00:00'
p872
aV2/16+4/16+2/16
p873
asg5
g80
sS'part2_incorrect_attempt'
p874
(lp875
(S'-1 day, 22:13:02'
p876
V2/16
p877
tp878
assS'ReneSanchez'
p879
(dp880
g5
V2016-11-02 20:17:12
p881
sS'part2_incorrect_attempt'
p882
(lp883
(S'0:00:00'
p884
V6/16
p885
tp886
assg840
(dp887
g5
V2016-10-31 18:23:46
p888
sS'part2_incorrect_attempt'
p889
(lp890
(S'0:00:00'
p891
V2/16
p892
tp893
asssS'5'
p894
(dp895
g820
(dp896
S'part5_correct_attempt'
p897
(lp898
S'0:00:00'
p899
aV2/16+4/16+2/16
p900
asS'part5_incorrect_attempt'
p901
(lp902
(S'-1 day, 22:13:02'
p903
V2/16
p904
tp905
asg5
g80
ssS'Ian'
p906
(dp907
S'part5_correct_attempt'
p908
(lp909
S'0:00:00'
p910
aV8/16
p911
asS'part5_incorrect_attempt'
p912
(lp913
(S'-1 day, 23:54:29'
p914
V6/16
p915
tp916
asg5
g473
ssg840
(dp917
S'part5_incorrect_attempt'
p918
(lp919
(S'0:00:00'
p920
V2/16
p921
tp922
asg5
V2016-10-31 18:23:46
p923
sssS'4'
p924
(dp925
g820
(dp926
S'part4_correct_attempt'
p927
(lp928
S'0:00:00'
p929
aV1/16+2/16+1/16
p930
asS'part4_incorrect_attempt'
p931
(lp932
(S'-1 day, 22:13:02'
p933
V1/16
p934
tp935
asg5
g80
ssg840
(dp936
S'part4_incorrect_attempt'
p937
(lp938
(S'0:00:00'
p939
V1/16
p940
tp941
asg5
V2016-10-31 18:23:46
p942
sssS'7'
p943
(dp944
sS'6'
p945
(dp946
g820
(dp947
S'part6_incorrect_attempt'
p948
(lp949
(S'-1 day, 22:13:02'
p950
V1/16
p951
tp952
asg5
g80
sS'part6_correct_attempt'
p953
(lp954
S'0:00:00'
p955
aV1/16+2/16+1/16
p956
assg784
(dp957
S'part6_incorrect_attempt'
p958
(lp959
(S'-1 day, 23:58:42'
p960
V1/2
p961
tp962
asg5
g795
sS'part6_correct_attempt'
p963
(lp964
S'0:00:00'
p965
aV1/4
p966
assg840
(dp967
S'part6_incorrect_attempt'
p968
(lp969
(S'0:00:00'
p970
V1/16
p971
tp972
asg5
V2016-10-31 18:23:46
p973
sssS'9'
p974
(dp975
S'Nikan_Aminian'
p976
(dp977
S'part9_correct_attempt'
p978
(lp979
S'0:00:00'
p980
aV2
p981
asg5
g795
sS'part9_incorrect_attempt'
p982
(lp983
(S'-1 day, 23:34:21'
p984
V1/4 + 1/2 + 1/4
p985
tp986
assg165
(dp987
S'part9_correct_attempt'
p988
(lp989
S'0:00:00'
p990
aV(1/16)+(2/16)+(1/16)+(2/16)+(4/16)+(2/16)+(1/16)+(2/16)+(1/16)
p991
asg5
g167
sS'part9_incorrect_attempt'
p992
(lp993
(S'0:00:00'
p994
V(1/16)+(2/16)+(1/16)+(2/16)+(4/16)+(2/16)+(1/16)+(2/16)+(1/16)
p995
tp996
asssS'8'
p997
(dp998
s.