(dp0
S'1'
p1
ccollections
defaultdict
p2
(c__builtin__
list
p3
tp4
Rp5
S"['R.1']"
p6
(lp7
(S'7*(7+1)/(2*7)'
p8
V70/14
p9
(lp10
(S'R.1'
p11
F14.0
S'2*7'
p12
V14
p13
tp14
aS'Joonhan'
p15
(lp16
V2016-11-02 19:10:47
p17
tp18
asS'Digits'
p19
(lp20
(S'8*(8+1)/(2*8)'
p21
V4
p22
tp23
a(S'7*(7+1)/(2*7)'
p24
V5
p25
tp26
asS"['R']"
p27
(lp28
(S'8*(8+1)/(2*8)'
p29
V8 * (9) / (16)
p30
(lp31
(S'R'
p32
F4.5
g29
g30
tp33
aS'abtom'
p34
(lp35
V2016-10-29 23:02:01
p36
tp37
a(S'6*(6+1)/(2*6)'
p38
V3.5
p39
(lp40
(g32
F3.5
g38
g39
tp41
aS'mvkrishn'
p42
(lp43
V2016-11-02 17:40:28
p44
tp45
a(S'6*(6+1)/(2*6)'
p46
V3.5
p47
(lp48
(g32
F3.5
g46
g47
tp49
aS'aliceh'
p50
(lp51
V2016-11-02 06:10:20
p52
tp53
a(S'7*(7+1)/(2*7)'
p54
V4
p55
(lp56
(g32
F4.0
g54
g55
tp57
aS'aliceh'
p58
(lp59
V2016-11-02 06:16:05
p60
tp61
a(S'6*(6+1)/(2*6)'
p62
V3.5
p63
(lp64
(g32
F3.5
g62
g63
tp65
aS'NicoleStone'
p66
(lp67
V2016-11-02 20:36:48
p68
tp69
a(S'8*(8+1)/(2*8)'
p70
V4.5
p71
(lp72
(g32
F4.5
g70
g71
tp73
aS'NicoleStone'
p74
(lp75
V2016-11-02 20:43:53
p76
tp77
a(S'6*(6+1)/(2*6)'
p78
V6*(6+1)/(2*6)
p79
(lp80
(g32
F3.5
g78
g79
tp81
aS'Jisu'
p82
(lp83
V2016-10-29 20:01:48
p84
tp85
a(S'9*(9+1)/(2*9)'
p86
V9*(9+1)/(2*9)
p87
(lp88
(g32
F5.0
g86
g87
tp89
aS'Jisu'
p90
(lp91
V2016-10-29 20:03:40
p92
tp93
a(S'6*(6+1)/(2*6)'
p94
V6*(6+1)/(2*6)
p95
(lp96
(g32
F3.5
g94
g95
tp97
aS'Jisu'
p98
(lp99
V2016-10-29 20:12:58
p100
tp101
a(S'9*(9+1)/(2*9)'
p102
V9*(9+1)/(2*9)
p103
(lp104
(g32
F5.0
g102
g103
tp105
aS'Jisu'
p106
(lp107
V2016-10-29 20:14:43
p108
tp109
a(S'7*(7+1)/(2*7)'
p110
V7*(7+1)/(2*7)
p111
(lp112
(g32
F4.0
g110
g111
tp113
aS'Jisu'
p114
(lp115
V2016-10-29 20:16:38
p116
tp117
a(S'6*(6+1)/(2*6)'
p118
V21/6
p119
(lp120
(g32
F3.5
g118
g119
tp121
aS'ray003'
p122
(lp123
V2016-11-01 22:04:09
p124
tp125
a(S'9*(9+1)/(2*9)'
p126
V45/9
p127
(lp128
(g32
F5.0
g126
g127
tp129
aS'ray003'
p130
(lp131
V2016-11-01 22:07:47
p132
tp133
a(S'9*(9+1)/(2*9)'
p134
V45/9
p135
(lp136
(g32
F5.0
g134
g135
tp137
aS'ray003'
p138
(lp139
V2016-11-01 22:09:54
p140
tp141
a(S'7*(7+1)/(2*7)'
p142
V4
p143
(lp144
(g32
F4.0
g142
g143
tp145
aS'kevin'
p146
(lp147
V2016-10-30 00:05:37
p148
tp149
a(S'8*(8+1)/(2*8)'
p150
V8*(8+1)/(2*8)
p151
(lp152
(g32
F4.5
g150
g151
tp153
aS'jar045'
p154
(lp155
V2016-11-01 04:44:16
p156
tp157
a(S'7*(7+1)/(2*7)'
p158
V7*(7+1)/(2*7)
p159
(lp160
(g32
F4.0
g158
g159
tp161
aS'jar045'
p162
(lp163
V2016-11-01 04:48:23
p164
tp165
a(S'9*(9+1)/(2*9)'
p166
V5
p167
(lp168
(g32
F5.0
g166
g167
tp169
aS'kyle'
p170
(lp171
V2016-11-02 05:09:12
p172
tp173
a(S'8*(8+1)/(2*8)'
p174
V(1*1/8)+(2*1/8)+(3*1/8)+(4*1/8)+(5*1/8)+(6*1/8)+(7*1/8)+(8*1/8)
p175
(lp176
(g32
F4.5
g174
g175
tp177
aS'tommyt1109'
p178
(lp179
V2016-11-02 06:33:05
p180
tp181
a(S'9*(9+1)/(2*9)'
p182
V(1*1/9)+(2*1/9)+(3*1/9)+(4*1/9)+(5*1/9)+(6*1/9)+(7*1/9)+(8*1/9)+(9*1/9)
p183
(lp184
(g32
F5.0
g182
g183
tp185
aS'tommyt1109'
p186
(lp187
V2016-11-02 06:37:35
p188
tp189
a(S'6*(6+1)/(2*6)'
p190
V(1*1/6)+(2*1/6)+(3*1/6)+(4*1/6)+(5*1/6)+(6*1/6)
p191
(lp192
(g32
F3.5
g190
g191
tp193
aS'tommyt1109'
p194
(lp195
V2016-11-02 06:39:47
p196
tp197
a(S'9*(9+1)/(2*9)'
p198
V1/9+2/9+3/9+4/9+5/9+6/9+7/9+8/9+9/9
p199
(lp200
(g32
F5.0
g198
g199
tp201
aS'christhoperbernard'
p202
(lp203
V2016-11-02 20:06:03
p204
tp205
a(S'6*(6+1)/(2*6)'
p206
V1/6+2/6+3/6+4/6+5/6+6/6
p207
(lp208
(g32
F3.5
g206
g207
tp209
aS'christhoperbernard'
p210
(lp211
V2016-11-02 20:07:21
p212
tp213
a(S'9*(9+1)/(2*9)'
p214
V(1/9)+(2/9)+(3/9)+(4/9)+(5/9)+(6/9)+(7/9)+(8/9)+(1)
p215
(lp216
(g32
F5.0
g214
g215
tp217
aS'GNajera'
p218
(lp219
V2016-10-31 21:33:17
p220
tp221
a(S'9*(9+1)/(2*9)'
p222
V5
p223
(lp224
(g32
F5.0
g222
g223
tp225
aS'MattBowen96'
p226
(lp227
V2016-11-02 07:21:45
p228
tp229
a(S'6*(6+1)/(2*6)'
p230
V3.5
p231
(lp232
(g32
F3.5
g230
g231
tp233
aS'MattBowen96'
p234
(lp235
V2016-11-02 07:40:30
p236
tp237
a(S'6*(6+1)/(2*6)'
p238
V3.5
p239
(lp240
(g32
F3.5
g238
g239
tp241
aS'MattBowen96'
p242
(lp243
V2016-11-02 07:43:05
p244
tp245
a(S'8*(8+1)/(2*8)'
p246
V4.5
p247
(lp248
(g32
F4.5
g246
g247
tp249
aS'MattBowen96'
p250
(lp251
V2016-11-02 07:44:44
p252
tp253
a(S'6*(6+1)/(2*6)'
p254
V3.5
p255
(lp256
(g32
F3.5
g254
g255
tp257
aS'chenboy3'
p258
(lp259
V2016-11-01 03:15:17
p260
tp261
a(S'6*(6+1)/(2*6)'
p262
V3.5
p263
(lp264
(g32
F3.5
g262
g263
tp265
aS'chenboy3'
p266
(lp267
V2016-11-01 03:18:36
p268
tp269
a(S'9*(9+1)/(2*9)'
p270
V(1+2+3+4+5+6+7+8+9)/9
p271
(lp272
(g32
F5.0
g270
g271
tp273
aS'sunilraiyani'
p274
(lp275
V2016-10-31 07:00:17
p276
tp277
a(S'6*(6+1)/(2*6)'
p278
V3.5
p279
(lp280
(g32
F3.5
g278
g279
tp281
aS'PriyankaK'
p282
(lp283
V2016-11-01 06:48:32
p284
tp285
a(S'7*(7+1)/(2*7)'
p286
V28/7
p287
(lp288
(g32
F4.0
g286
g287
tp289
aS'twsalim'
p290
(lp291
V2016-11-01 19:21:58
p292
tp293
a(S'8*(8+1)/(2*8)'
p294
V(8*9)/2*(1/8)
p295
(lp296
(g32
F4.5
g294
g295
tp297
aS'twsalim'
p298
(lp299
V2016-11-01 19:32:44
p300
tp301
a(S'7*(7+1)/(2*7)'
p302
V28*1/7
p303
(lp304
(g32
F4.0
g302
g303
tp305
aS'Riyang'
p306
(lp307
V2016-11-01 21:18:05
p308
tp309
a(S'6*(6+1)/(2*6)'
p310
V21*1/6
p311
(lp312
(g32
F3.5
g310
g311
tp313
aS'Riyang'
p314
(lp315
V2016-11-01 21:24:06
p316
tp317
a(S'9*(9+1)/(2*9)'
p318
V9*(9+1)/(2*9)
p319
(lp320
(g32
F5.0
g318
g319
tp321
aS'woguan'
p322
(lp323
V2016-11-02 18:50:18
p324
tp325
a(S'6*(6+1)/(2*6)'
p326
V1/6+2/6+3/6+4/6+5/6+6/6
p327
(lp328
(g32
F3.5
g326
g327
tp329
aS'TianhaoQiu'
p330
(lp331
V2016-11-02 18:57:58
p332
tp333
a(S'8*(8+1)/(2*8)'
p334
V9/2
p335
(lp336
(g32
F4.5
g334
g335
tp337
aS'YuqinWu'
p338
(lp339
V2016-10-29 21:06:45
p340
tp341
a(S'9*(9+1)/(2*9)'
p342
V1/9*(1+2+3+4+5+6+7+8+9)
p343
(lp344
(g32
F5.0
g342
g343
tp345
aS'rsamuail'
p346
(lp347
V2016-11-02 18:17:37
p348
tp349
a(S'7*(7+1)/(2*7)'
p350
V1/7*(1+2+3+4+5+6+7)
p351
(lp352
(g32
F4.0
g350
g351
tp353
aS'rsamuail'
p354
(lp355
V2016-11-02 18:21:32
p356
tp357
a(S'9*(9+1)/(2*9)'
p358
V1/9*(1+2+3+4+5+6+7+8+9)
p359
(lp360
(g32
F5.0
g358
g359
tp361
aS'rsamuail'
p362
(lp363
V2016-11-02 18:24:39
p364
tp365
a(S'7*(7+1)/(2*7)'
p366
V1/7*(1+2+3+4+5+6+7)
p367
(lp368
(g32
F4.0
g366
g367
tp369
aS'rsamuail'
p370
(lp371
V2016-11-02 18:26:06
p372
tp373
a(S'7*(7+1)/(2*7)'
p374
V1/7*(1+2+3+4+5+6+7)
p375
(lp376
(g32
F4.0
g374
g375
tp377
aS'rsamuail'
p378
(lp379
V2016-11-02 18:28:00
p380
tp381
a(S'8*(8+1)/(2*8)'
p382
V1*(1/8) + 2*(1/8) + 3*(1/8) + 4*(1/8) + 5*(1/8) + 6*(1/8) + 7*(1/8) + 8*(1/8)
p383
(lp384
(g32
F4.5
g382
g383
tp385
aS'codyndoan'
p386
(lp387
V2016-11-02 18:36:45
p388
tp389
a(S'9*(9+1)/(2*9)'
p390
V1*(1/9) + 2*(1/9) + 3*(1/9) + 4*(1/9) + 5*(1/9) + 6*(1/9) + 7*(1/9) + 8*(1/9) + 9*(1/9)
p391
(lp392
(g32
F5.0
g390
g391
tp393
aS'codyndoan'
p394
(lp395
V2016-11-02 18:41:47
p396
tp397
a(S'7*(7+1)/(2*7)'
p398
V7*(7+1)/(2*7)
p399
(lp400
(g32
F4.0
g398
g399
tp401
aS'Ryan_Yi'
p402
(lp403
V2016-10-29 23:41:54
p404
tp405
a(S'8*(8+1)/(2*8)'
p406
V8*(8+1)/(2*8)
p407
(lp408
(g32
F4.5
g406
g407
tp409
aS'Ryan_Yi'
p410
(lp411
V2016-10-29 23:43:49
p412
tp413
a(S'9*(9+1)/(2*9)'
p414
V5
p415
(lp416
(g32
F5.0
g414
g415
tp417
aS'evahuynh'
p418
(lp419
V2016-10-31 18:03:43
p420
tp421
a(S'6*(6+1)/(2*6)'
p422
V3.5
p423
(lp424
(g32
F3.5
g422
g423
tp425
aS'evahuynh'
p426
(lp427
V2016-10-31 18:16:15
p428
tp429
a(S'9*(9+1)/(2*9)'
p430
V5
p431
(lp432
(g32
F5.0
g430
g431
tp433
aS'evahuynh'
p434
(lp435
V2016-10-31 18:17:24
p436
tp437
a(S'6*(6+1)/(2*6)'
p438
V3.5
p439
(lp440
(g32
F3.5
g438
g439
tp441
aS'evahuynh'
p442
(lp443
V2016-10-31 18:17:50
p444
tp445
a(S'6*(6+1)/(2*6)'
p446
V3.5
p447
(lp448
(g32
F3.5
g446
g447
tp449
aS'evahuynh'
p450
(lp451
V2016-10-31 18:19:25
p452
tp453
a(S'7*(7+1)/(2*7)'
p454
V4
p455
(lp456
(g32
F4.0
g454
g455
tp457
aS'evahuynh'
p458
(lp459
V2016-10-31 18:22:24
p460
tp461
a(S'6*(6+1)/(2*6)'
p462
V3.5
p463
(lp464
(g32
F3.5
g462
g463
tp465
aS'evahuynh'
p466
(lp467
V2016-10-31 18:25:12
p468
tp469
a(S'6*(6+1)/(2*6)'
p470
V3.5
p471
(lp472
(g32
F3.5
g470
g471
tp473
aS'evahuynh'
p474
(lp475
V2016-10-31 18:27:21
p476
tp477
a(S'8*(8+1)/(2*8)'
p478
V4.5
p479
(lp480
(g32
F4.5
g478
g479
tp481
aS'evahuynh'
p482
(lp483
V2016-10-31 18:29:07
p484
tp485
a(S'6*(6+1)/(2*6)'
p486
V(1+2+3+4+5+6)/6
p487
(lp488
(g32
F3.5
g486
g487
tp489
aS'evahuynh'
p490
(lp491
V2016-10-31 19:08:24
p492
tp493
a(S'8*(8+1)/(2*8)'
p494
V(1+2+3+4+5+6+7+8)/8
p495
(lp496
(g32
F4.5
g494
g495
tp497
aS'evahuynh'
p498
(lp499
V2016-10-31 19:11:00
p500
tp501
a(S'9*(9+1)/(2*9)'
p502
V(1/9)+(2/9)+(3/9)+(4/9) +(5/9)+(6/9)+(7/9)+(8/9)+1
p503
(lp504
(g32
F5.0
g502
g503
tp505
aS'Joonhan'
p506
(lp507
V2016-11-02 19:15:41
p508
tp509
a(S'9*(9+1)/(2*9)'
p510
V(1/9)+(2/9)+(3/9)+(4/9) +(5/9)+(6/9)+(7/9)+(8/9)+1
p511
(lp512
(g32
F5.0
g510
g511
tp513
aS'Joonhan'
p514
(lp515
V2016-11-02 19:34:01
p516
tp517
a(S'8*(8+1)/(2*8)'
p518
V(1/8)+(2/8)+(3/8)+(4/8)+(5/8)+(6/8)+(7/8)+(8/8)
p519
(lp520
(g32
F4.5
g518
g519
tp521
aS'Joonhan'
p522
(lp523
V2016-11-02 19:40:38
p524
tp525
a(S'7*(7+1)/(2*7)'
p526
V1/7 + 2/7 + 3/7 + 4/7 + 5/7 + 6/7 + 7/7
p527
(lp528
(g32
F4.0
g526
g527
tp529
aS'Ankush_Sarow'
p530
(lp531
V2016-11-01 23:01:28
p532
tp533
a(S'8*(8+1)/(2*8)'
p534
V1/8 + 2/8 + 3/8 + 4/8 + 5/8 + 6/8 + 7/8 + 8/8
p535
(lp536
(g32
F4.5
g534
g535
tp537
aS'Ankush_Sarow'
p538
(lp539
V2016-11-01 23:13:01
p540
tp541
a(S'9*(9+1)/(2*9)'
p542
V5
p543
(lp544
(g32
F5.0
g542
g543
tp545
aS'KevinKlein'
p546
(lp547
V2016-11-01 18:54:33
p548
tp549
a(S'6*(6+1)/(2*6)'
p550
V3.5
p551
(lp552
(g32
F3.5
g550
g551
tp553
aS'JiangfengYin'
p554
(lp555
V2016-11-02 03:19:19
p556
tp557
a(S'8*(8+1)/(2*8)'
p558
V4.5
p559
(lp560
(g32
F4.5
g558
g559
tp561
aS'vincebai'
p562
(lp563
V2016-11-01 08:06:54
p564
tp565
a(S'9*(9+1)/(2*9)'
p566
V5
p567
(lp568
(g32
F5.0
g566
g567
tp569
aS'vincebai'
p570
(lp571
V2016-11-01 08:12:49
p572
tp573
a(S'7*(7+1)/(2*7)'
p574
V28/7
p575
(lp576
(g32
F4.0
g574
g575
tp577
aS'dillonliu'
p578
(lp579
V2016-11-01 04:01:42
p580
tp581
a(S'7*(7+1)/(2*7)'
p582
V4
p583
(lp584
(g32
F4.0
g582
g583
tp585
aS'dillonliu'
p586
(lp587
V2016-11-01 04:03:21
p588
tp589
a(S'7*(7+1)/(2*7)'
p590
V4
p591
(lp592
(g32
F4.0
g590
g591
tp593
aS'ThuanNguyen'
p594
(lp595
V2016-11-02 03:47:59
p596
tp597
a(S'6*(6+1)/(2*6)'
p598
V3.5
p599
(lp600
(g32
F3.5
g598
g599
tp601
aS'ThuanNguyen'
p602
(lp603
V2016-11-02 03:50:15
p604
tp605
a(S'9*(9+1)/(2*9)'
p606
V5
p607
(lp608
(g32
F5.0
g606
g607
tp609
aS'ThuanNguyen'
p610
(lp611
V2016-11-02 03:51:40
p612
tp613
a(S'9*(9+1)/(2*9)'
p614
V5
p615
(lp616
(g32
F5.0
g614
g615
tp617
aS'ThuanNguyen'
p618
(lp619
V2016-11-02 03:53:15
p620
tp621
a(S'9*(9+1)/(2*9)'
p622
V5
p623
(lp624
(g32
F5.0
g622
g623
tp625
aS'ThuanNguyen'
p626
(lp627
V2016-11-02 03:56:32
p628
tp629
a(S'8*(8+1)/(2*8)'
p630
V8*(8+1)/(2*8)
p631
(lp632
(g32
F4.5
g630
g631
tp633
aS'piamsiri'
p634
(lp635
V2016-10-31 01:08:23
p636
tp637
a(S'9*(9+1)/(2*9)'
p638
V9*(9+1)/(2*9)
p639
(lp640
(g32
F5.0
g638
g639
tp641
aS'christywong'
p642
(lp643
V2016-10-30 20:22:22
p644
tp645
a(S'9*(9+1)/(2*9)'
p646
V9*(9+1)/(2*9)
p647
(lp648
(g32
F5.0
g646
g647
tp649
aS'christywong'
p650
(lp651
V2016-10-30 20:24:31
p652
tp653
a(S'8*(8+1)/(2*8)'
p654
V1/8+2/8+3/8+4/8+5/8+6/8+7/8+1
p655
(lp656
(g32
F4.5
g654
g655
tp657
aS'DannyDelCerro'
p658
(lp659
V2016-11-02 01:43:35
p660
tp661
a(S'7*(7+1)/(2*7)'
p662
V(1/7)+(2/7)+(3/7)+(4/7)+(5/7)+(6/7)+1
p663
(lp664
(g32
F4.0
g662
g663
tp665
aS'DannyDelCerro'
p666
(lp667
V2016-11-02 01:47:43
p668
tp669
a(S'7*(7+1)/(2*7)'
p670
V(7*(7+1))/(2*7)
p671
(lp672
(g32
F4.0
g670
g671
tp673
aS'k1siu'
p674
(lp675
V2016-10-30 23:35:59
p676
tp677
a(S'8*(8+1)/(2*8)'
p678
V1/8*(1+2+3+4+5+6+7+8)
p679
(lp680
(g32
F4.5
g678
g679
tp681
aS'wheilson'
p682
(lp683
V2016-11-01 16:12:38
p684
tp685
a(S'8*(8+1)/(2*8)'
p686
V1/8 + 2/8 + 3/8 + 4/8 + 5/8 + 6/8 + 7/8 + 1
p687
(lp688
(g32
F4.5
g686
g687
tp689
aS'Ian'
p690
(lp691
V2016-11-01 23:25:29
p692
tp693
a(S'6*(6+1)/(2*6)'
p694
V1/6 + 2/6 + 3/6 + 4/6 + 5/6 + 6/6
p695
(lp696
(g32
F3.5
g694
g695
tp697
aS'Ian'
p698
(lp699
V2016-11-02 01:34:02
p700
tp701
a(S'7*(7+1)/(2*7)'
p702
V1/7 + 2/7 + 3/7 + 4/7 + 5/7 + 6/7 + 1
p703
(lp704
(g32
F4.0
g702
g703
tp705
aS'Ian'
p706
(lp707
V2016-11-02 01:42:57
p708
tp709
a(S'9*(9+1)/(2*9)'
p710
V5
p711
(lp712
(g32
F5.0
g710
g711
tp713
aS'Zhongting'
p714
(lp715
V2016-10-30 09:16:18
p716
tp717
a(S'8*(8+1)/(2*8)'
p718
V4.5
p719
(lp720
(g32
F4.5
g718
g719
tp721
aS'Zhongting'
p722
(lp723
V2016-10-30 09:21:15
p724
tp725
a(S'8*(8+1)/(2*8)'
p726
V4.5
p727
(lp728
(g32
F4.5
g726
g727
tp729
aS'Zhongting'
p730
(lp731
V2016-10-30 09:22:54
p732
tp733
a(S'8*(8+1)/(2*8)'
p734
V4.5
p735
(lp736
(g32
F4.5
g734
g735
tp737
aS'Zhongting'
p738
(lp739
V2016-10-30 09:24:13
p740
tp741
a(S'8*(8+1)/(2*8)'
p742
V1/8+2/8+3/8+4/8+5/8+6/8+7/8+1
p743
(lp744
(g32
F4.5
g742
g743
tp745
aS'zkvick'
p746
(lp747
V2016-11-01 20:26:41
p748
tp749
a(S'6*(6+1)/(2*6)'
p750
V21/6
p751
(lp752
(g32
F3.5
g750
g751
tp753
aS'jih089'
p754
(lp755
V2016-10-29 05:24:05
p756
tp757
a(S'7*(7+1)/(2*7)'
p758
V4
p759
(lp760
(g32
F4.0
g758
g759
tp761
aS'jih089'
p762
(lp763
V2016-10-29 05:26:43
p764
tp765
a(S'8*(8+1)/(2*8)'
p766
V(1/8)*(1+2+3+4+5+6+7+8)
p767
(lp768
(g32
F4.5
g766
g767
tp769
aS'Guillermo'
p770
(lp771
V2016-10-29 19:54:26
p772
tp773
a(S'6*(6+1)/(2*6)'
p774
V(1/6)*(1+2+3+4+5+6)
p775
(lp776
(g32
F3.5
g774
g775
tp777
aS'Guillermo'
p778
(lp779
V2016-10-29 19:59:19
p780
tp781
a(S'7*(7+1)/(2*7)'
p782
V(1/7)*(1+2+3+4+5+6+7)
p783
(lp784
(g32
F4.0
g782
g783
tp785
aS'Guillermo'
p786
(lp787
V2016-10-29 20:03:52
p788
tp789
a(S'7*(7+1)/(2*7)'
p790
V(1+2+3+4+5+6+7)/7
p791
(lp792
(g32
F4.0
g790
g791
tp793
aS'RobinO'
p794
(lp795
V2016-10-30 19:31:36
p796
tp797
a(S'6*(6+1)/(2*6)'
p798
V(1/6)+(2/6)+(3/6)+(4/6)+(5/6)+1
p799
(lp800
(g32
F3.5
g798
g799
tp801
aS'srrozen'
p802
(lp803
V2016-11-01 21:31:04
p804
tp805
a(S'6*(6+1)/(2*6)'
p806
V(1/6)+(2/6)+(3/6)+(4/6)+(5/6)+1
p807
(lp808
(g32
F3.5
g806
g807
tp809
aS'srrozen'
p810
(lp811
V2016-11-01 21:46:24
p812
tp813
a(S'8*(8+1)/(2*8)'
p814
V(1/8)+(2/8)+(3/8)+(4/8)+(5/8)+(6/8)+(7/8)+1
p815
(lp816
(g32
F4.5
g814
g815
tp817
aS'srrozen'
p818
(lp819
V2016-11-01 21:51:09
p820
tp821
a(S'8*(8+1)/(2*8)'
p822
V(1/8)+(2/8)+(3/8)+(4/8)+(5/8)+(6/8)+(7/8)+1
p823
(lp824
(g32
F4.5
g822
g823
tp825
aS'srrozen'
p826
(lp827
V2016-11-01 21:53:37
p828
tp829
a(S'7*(7+1)/(2*7)'
p830
V7*(8)/14
p831
(lp832
(g32
F4.0
g830
g831
tp833
aS'DannyChan'
p834
(lp835
V2016-10-30 23:41:40
p836
tp837
a(S'9*(9+1)/(2*9)'
p838
V9*(10)/18
p839
(lp840
(g32
F5.0
g838
g839
tp841
aS'DannyChan'
p842
(lp843
V2016-10-30 23:43:25
p844
tp845
a(S'9*(9+1)/(2*9)'
p846
V1/9+2/9+3/9+4/9+5/9+6/9+7/9+8/9+1
p847
(lp848
(g32
F5.0
g846
g847
tp849
aS'DannyChan'
p850
(lp851
V2016-11-02 19:44:07
p852
tp853
a(S'7*(7+1)/(2*7)'
p854
V1/7+2/7+3/7+4/7+5/7+6/7+1
p855
(lp856
(g32
F4.0
g854
g855
tp857
aS'DannyChan'
p858
(lp859
V2016-11-02 19:46:01
p860
tp861
a(S'7*(7+1)/(2*7)'
p862
V(1/7)+(2/7)+(3/7)+(4/7)+(5/7)+(6/7)+1
p863
(lp864
(g32
F4.0
g862
g863
tp865
aS'A4chau'
p866
(lp867
V2016-11-02 04:57:22
p868
tp869
a(S'7*(7+1)/(2*7)'
p870
V(1/7)+(2/7)+(3/7)+(4/7)+(5/7)+(6/7)+1
p871
(lp872
(g32
F4.0
g870
g871
tp873
aS'A4chau'
p874
(lp875
V2016-11-02 04:59:25
p876
tp877
a(S'6*(6+1)/(2*6)'
p878
V(1/6)+(2/6)+(3/6)+(4/6)+(5/6)+1
p879
(lp880
(g32
F3.5
g878
g879
tp881
aS'A4chau'
p882
(lp883
V2016-11-02 05:01:43
p884
tp885
a(S'9*(9+1)/(2*9)'
p886
V(1+2+3+4+5+6+7+8+9)/9
p887
(lp888
(g32
F5.0
g886
g887
tp889
aS'zow006'
p890
(lp891
V2016-11-01 22:38:12
p892
tp893
a(S'8*(8+1)/(2*8)'
p894
V(1+2+3+4+5+6+7+8)/8
p895
(lp896
(g32
F4.5
g894
g895
tp897
aS'zow006'
p898
(lp899
V2016-11-01 22:43:07
p900
tp901
a(S'7*(7+1)/(2*7)'
p902
V(1*1/7) + (2/7) + 3/7 + 4/7 + 5/7 + 6/7 + 1
p903
(lp904
(g32
F4.0
g902
g903
tp905
aS'kmesic'
p906
(lp907
V2016-11-01 17:57:29
p908
tp909
a(S'6*(6+1)/(2*6)'
p910
V(1*1/6) + (2/6) + 3/6 + 4/6 + 5/6 + 1
p911
(lp912
(g32
F3.5
g910
g911
tp913
aS'kmesic'
p914
(lp915
V2016-11-01 18:03:00
p916
tp917
a(S'7*(7+1)/(2*7)'
p918
V4
p919
(lp920
(g32
F4.0
g918
g919
tp921
aS'zhc047'
p922
(lp923
V2016-11-02 01:33:24
p924
tp925
a(S'9*(9+1)/(2*9)'
p926
V1/9 + 2/9 + 3/9 + 4/9 + 5/9 + 6/9 + 7/9 + 8/9 + 1
p927
(lp928
(g32
F5.0
g926
g927
tp929
aS'shravangrandhi'
p930
(lp931
V2016-10-31 01:05:49
p932
tp933
a(S'7*(7+1)/(2*7)'
p934
V1/7 + 2/7 + 3/7 + 4/7 + 5/7 + 6/7 + 1
p935
(lp936
(g32
F4.0
g934
g935
tp937
aS'shravangrandhi'
p938
(lp939
V2016-10-31 01:15:03
p940
tp941
a(S'8*(8+1)/(2*8)'
p942
V4.5
p943
(lp944
(g32
F4.5
g942
g943
tp945
aS'maxcjx'
p946
(lp947
V2016-10-30 23:32:09
p948
tp949
a(S'8*(8+1)/(2*8)'
p950
V4.5
p951
(lp952
(g32
F4.5
g950
g951
tp953
aS'maxcjx'
p954
(lp955
V2016-10-30 23:34:13
p956
tp957
a(S'8*(8+1)/(2*8)'
p958
V4.5
p959
(lp960
(g32
F4.5
g958
g959
tp961
aS'PizzaPolice'
p962
(lp963
V2016-11-02 02:08:37
p964
tp965
a(S'7*(7+1)/(2*7)'
p966
V4
p967
(lp968
(g32
F4.0
g966
g967
tp969
aS'PizzaPolice'
p970
(lp971
V2016-11-02 02:10:33
p972
tp973
a(S'7*(7+1)/(2*7)'
p974
V4
p975
(lp976
(g32
F4.0
g974
g975
tp977
aS'PizzaPolice'
p978
(lp979
V2016-11-02 02:11:57
p980
tp981
a(S'9*(9+1)/(2*9)'
p982
V5
p983
(lp984
(g32
F5.0
g982
g983
tp985
aS'PizzaPolice'
p986
(lp987
V2016-11-02 02:13:29
p988
tp989
a(S'6*(6+1)/(2*6)'
p990
V6*(6+1)/(2*6)
p991
(lp992
(g32
F3.5
g990
g991
tp993
aS'rleaton'
p994
(lp995
V2016-10-29 21:34:16
p996
tp997
a(S'9*(9+1)/(2*9)'
p998
V9*(9+1)/(2*9)
p999
(lp1000
(g32
F5.0
g998
g999
tp1001
aS'rleaton'
p1002
(lp1003
V2016-10-29 22:01:34
p1004
tp1005
a(S'6*(6+1)/(2*6)'
p1006
V6*(6+1)/(2*6)
p1007
(lp1008
(g32
F3.5
g1006
g1007
tp1009
aS'rleaton'
p1010
(lp1011
V2016-10-29 22:05:02
p1012
tp1013
a(S'9*(9+1)/(2*9)'
p1014
V9*(9+1)/(2*9)
p1015
(lp1016
(g32
F5.0
g1014
g1015
tp1017
aS'rleaton'
p1018
(lp1019
V2016-10-29 22:08:23
p1020
tp1021
a(S'9*(9+1)/(2*9)'
p1022
V5
p1023
(lp1024
(g32
F5.0
g1022
g1023
tp1025
aS'HaoDong'
p1026
(lp1027
V2016-10-30 00:38:35
p1028
tp1029
a(S'6*(6+1)/(2*6)'
p1030
V3.5
p1031
(lp1032
(g32
F3.5
g1030
g1031
tp1033
aS'mtashman'
p1034
(lp1035
V2016-10-30 18:58:19
p1036
tp1037
a(S'6*(6+1)/(2*6)'
p1038
V3.5
p1039
(lp1040
(g32
F3.5
g1038
g1039
tp1041
aS'mtashman'
p1042
(lp1043
V2016-10-30 19:14:56
p1044
tp1045
a(S'7*(7+1)/(2*7)'
p1046
V4
p1047
(lp1048
(g32
F4.0
g1046
g1047
tp1049
aS'mtashman'
p1050
(lp1051
V2016-10-30 19:19:53
p1052
tp1053
a(S'7*(7+1)/(2*7)'
p1054
V4
p1055
(lp1056
(g32
F4.0
g1054
g1055
tp1057
aS'mtashman'
p1058
(lp1059
V2016-10-30 19:22:40
p1060
tp1061
a(S'6*(6+1)/(2*6)'
p1062
V3.5
p1063
(lp1064
(g32
F3.5
g1062
g1063
tp1065
aS'mhatch'
p1066
(lp1067
V2016-11-02 03:00:14
p1068
tp1069
a(S'6*(6+1)/(2*6)'
p1070
V3.5
p1071
(lp1072
(g32
F3.5
g1070
g1071
tp1073
aS'mhatch'
p1074
(lp1075
V2016-11-02 03:05:44
p1076
tp1077
a(S'9*(9+1)/(2*9)'
p1078
V1/9 + 2/9 + 3/9 + 4/9 + 5/9 + 6/9 + 7/9 + 8/9 + 1
p1079
(lp1080
(g32
F5.0
g1078
g1079
tp1081
aS'mhatch'
p1082
(lp1083
V2016-11-02 03:09:59
p1084
tp1085
a(S'8*(8+1)/(2*8)'
p1086
V4.5
p1087
(lp1088
(g32
F4.5
g1086
g1087
tp1089
aS'mhatch'
p1090
(lp1091
V2016-11-02 03:12:19
p1092
tp1093
a(S'7*(7+1)/(2*7)'
p1094
V4
p1095
(lp1096
(g32
F4.0
g1094
g1095
tp1097
aS'DarrenYang'
p1098
(lp1099
V2016-10-30 04:47:21
p1100
tp1101
a(S'7*(7+1)/(2*7)'
p1102
V4
p1103
(lp1104
(g32
F4.0
g1102
g1103
tp1105
aS'DarrenYang'
p1106
(lp1107
V2016-10-30 04:51:34
p1108
tp1109
a(S'6*(6+1)/(2*6)'
p1110
V3.5
p1111
(lp1112
(g32
F3.5
g1110
g1111
tp1113
aS'DarrenYang'
p1114
(lp1115
V2016-10-30 04:59:20
p1116
tp1117
a(S'7*(7+1)/(2*7)'
p1118
V4
p1119
(lp1120
(g32
F4.0
g1118
g1119
tp1121
aS'DarrenYang'
p1122
(lp1123
V2016-10-30 05:03:45
p1124
tp1125
asS'Fraction'
p1126
(lp1127
(S'9*(9+1)/(2*9)'
p1128
V4.5
p1129
tp1130
a(S'7*(7+1)/(2*7)'
p1131
V6.125
p1132
tp1133
a(S'9*(9+1)/(2*9)'
p1134
V1/9
p1135
tp1136
a(S'7*(7+1)/(2*7)'
p1137
V(2*5)+(3*5.4)
p1138
tp1139
a(S'7*(7+1)/(2*7)'
p1140
V(2*5)+(3*5.4)
p1141
tp1142
a(S'9*(9+1)/(2*9)'
p1143
V4.5
p1144
tp1145
assS'3'
p1146
g2
(g3
tp1147
Rp1148
S"['R.1.0']"
p1149
(lp1150
(S'3*6*(6+1)/(2*6) + 4*(2*6/(6+1) + (6*(6-1))/(2*(6+1)))'
p1151
V3*(1/6+2/6+3/6+5/6+6/6)+4*(1/7+2/7+3/7+5/7+12/7)
p1152
(lp1153
(S'R.1.0'
p1154
F4.0
S'4'
p1155
V4
p1156
tp1157
aS'christhoperbernard'
p1158
(lp1159
V2016-11-02 19:58:28
p1160
tp1161
a(S'2*8*(8+1)/(2*8) + 4*(2*8/(8+1) + (8*(8-1))/(2*(8+1)))'
p1162
V(2*4.5)+(4*4.89)
p1163
(lp1164
(S'R.1.0'
p1165
F4.0
g1155
g1156
tp1166
ag482
(lp1167
V2016-10-31 18:29:07
p1168
tp1169
a(S'2*6*(6+1)/(2*6) + 4*(2*6/(6+1) + (6*(6-1))/(2*(6+1)))'
p1170
V(2*((1/6)+(2/6)+(3/6)+(4/6)+(5/6)+1))+(4*((1/6)+(2/6)+(3/6)+(4/6)+(5/6)+2))
p1171
(lp1172
(S'R.1.0'
p1173
F4.0
g1155
g1156
tp1174
ag802
(lp1175
V2016-11-01 21:31:04
p1176
tp1177
a(S'4*6*(6+1)/(2*6) + 3*(2*6/(6+1) + (6*(6-1))/(2*(6+1)))'
p1178
V4 * (3.5) + 3 * (2/15 + 4/15 + 6/15 + 8/15 + 10/15 + 2)
p1179
(lp1180
(S'R.1.0'
p1181
F3.0
S'3'
p1182
V3
p1183
tp1184
ag1066
(lp1185
V2016-11-02 03:00:14
p1186
tp1187
asS"['R.0', 'R.1.1.1.1.0']"
p1188
(lp1189
(S'3*7*(7+1)/(2*7) + 2*(2*7/(7+1) + (7*(7-1))/(2*(7+1)))'
p1190
V3*(1/7*(1+2+3+4+5+6+7))+4*(1/7*(1+2+3+4+5+6+2*(7)))
p1191
(lp1192
(S'R.0'
p1193
F12.0
S'3*7*(7+1)/(2*7)'
p1194
V3*(1/7*(1+2+3+4+5+6+7))
p1195
tp1196
a(S'R.1.1.1.1.0'
p1197
F2.0
S'2'
p1198
V2
p1199
tp1200
ag354
(lp1201
V2016-11-02 18:21:32
p1202
tp1203
asS"['R.0', 'R.1.0', 'R.1.1.0', 'R.1.1.1.0.1']"
p1204
(lp1205
(S'3*6*(6+1)/(2*6) + 4*(2*6/(6+1) + (6*(6-1))/(2*(6+1)))'
p1206
V3 * 3.5 + 4 * (6 * 2/7 + 15 * 5/7)
p1207
(lp1208
(S'R.0'
p1209
F10.5
S'3*6*(6+1)/(2*6)'
p1210
V3 * 3.5
p1211
tp1212
a(S'R.1.0'
p1213
F4.0
g1155
g1156
tp1214
a(S'R.1.1.0'
p1215
F1.7142857142857142
S'2*6/(6+1)'
p1216
V6 * 2/7
p1217
tp1218
a(S'R.1.1.1.0.1'
p1219
F5.0
S'6-1'
p1220
V5
p1221
tp1222
ag258
(lp1223
V2016-11-01 03:15:17
p1224
tp1225
asS"['R.1']"
p1226
(lp1227
(S'2*9*(9+1)/(2*9) + 3*(2*9/(9+1) + (9*(9-1))/(2*(9+1)))'
p1228
V(5*3)+(5.4*3)
p1229
(lp1230
(S'R.1'
p1231
F16.200000000000003
S'3*(2*9/(9+1) + (9*(9-1))/(2*(9+1)))'
p1232
V5.4*3
p1233
tp1234
ag434
(lp1235
V2016-10-31 18:17:24
p1236
tp1237
a(S'3*8*(8+1)/(2*8) + 4*(2*8/(8+1) + (8*(8-1))/(2*(8+1)))'
p1238
V12+(176/9)
p1239
(lp1240
(S'R.1'
p1241
F19.555555555555557
S'4*(2*8/(8+1) + (8*(8-1))/(2*(8+1)))'
p1242
V176/9
p1243
tp1244
aS'KevinKlein'
p1245
(lp1246
V2016-11-01 18:51:03
p1247
tp1248
a(S'4*9*(9+1)/(2*9) + 2*(2*9/(9+1) + (9*(9-1))/(2*(9+1)))'
p1249
V4*9+(9+1)/(2*9)+2*(2*9/(9+1)+(9*(9-1))/(2*(9+1)))
p1250
(lp1251
(S'R.1'
p1252
F10.8
S'2*(2*9/(9+1) + (9*(9-1))/(2*(9+1)))'
p1253
V2*(2*9/(9+1)+(9*(9-1))/(2*(9+1)))
p1254
tp1255
ag642
(lp1256
V2016-10-30 20:22:22
p1257
tp1258
asS"['R.0.0.0']"
p1259
(lp1260
(S'4*7*(7+1)/(2*7) + 2*(2*7/(7+1) + (7*(7-1))/(2*(7+1)))'
p1261
V28/7+42/16+7/4
p1262
(lp1263
(S'R.0.0.0'
p1264
F28.0
S'4*7'
p1265
V28
p1266
tp1267
ag290
(lp1268
V2016-11-01 19:21:58
p1269
tp1270
asS"['R.1.1']"
p1271
(lp1272
(S'4*8*(8+1)/(2*8) + 2*(2*8/(8+1) + (8*(8-1))/(2*(8+1)))'
p1273
V2*(1/8+2/8+3/8+4/8+5/8+6/8+7/8+1)+3*(1/9+2/9+3/9+4/9+5/9+6/9+7/9+16/9)
p1274
(lp1275
(S'R.1.1'
p1276
F4.888888888888889
S'2*8/(8+1) + (8*(8-1))/(2*(8+1))'
p1277
V1/9+2/9+3/9+4/9+5/9+6/9+7/9+16/9
p1278
tp1279
aS'DannyDelCerro'
p1280
(lp1281
V2016-11-02 01:45:09
p1282
tp1283
asS"['R.0']"
p1284
(lp1285
(S'3*8*(8+1)/(2*8) + 2*(2*8/(8+1) + (8*(8-1))/(2*(8+1)))'
p1286
V3*((1*1/8)+(2*1/8)+(3*1/8)+(4*1/8)+(5*1/8)+(6*1/8)+(7*1/8)+(8*1/8))+((1*1/8)+(2*1/8)+(3*1/8)+(4*1/8)+(5*1/8)+(6*1/8)+(7*1/8)+(8*1/4))*2
p1287
(lp1288
(S'R.0'
p1289
F13.5
S'3*8*(8+1)/(2*8)'
p1290
V3*((1*1/8)+(2*1/8)+(3*1/8)+(4*1/8)+(5*1/8)+(6*1/8)+(7*1/8)+(8*1/8))
p1291
tp1292
ag178
(lp1293
V2016-11-02 06:33:05
p1294
tp1295
a(S'3*6*(6+1)/(2*6) + 4*(2*6/(6+1) + (6*(6-1))/(2*(6+1)))'
p1296
V(3.5 * 3) + (3.857 * 4)
p1297
(lp1298
(S'R.0'
p1299
F10.5
S'3*6*(6+1)/(2*6)'
p1300
V3.5 * 3
p1301
tp1302
ag242
(lp1303
V2016-11-02 07:43:05
p1304
tp1305
a(S'3*7*(7+1)/(2*7) + 2*(2*7/(7+1) + (7*(7-1))/(2*(7+1)))'
p1306
V12 + 35/2
p1307
(lp1308
(S'R.0'
p1309
F12.0
S'3*7*(7+1)/(2*7)'
p1310
V12
p1311
tp1312
ag578
(lp1313
V2016-11-01 04:01:42
p1314
tp1315
asS"['R.0', 'R.1.1']"
p1316
(lp1317
(S'3*7*(7+1)/(2*7) + 2*(2*7/(7+1) + (7*(7-1))/(2*(7+1)))'
p1318
V(3*4) + (3 * (((14 + 6 + 5 + 4 + 3 + 2 + 1)/8)))
p1319
(lp1320
(S'R.0'
p1321
F12.0
S'3*7*(7+1)/(2*7)'
p1322
V3*4
p1323
tp1324
a(S'R.1.1'
p1325
F4.375
S'2*7/(7+1) + (7*(7-1))/(2*(7+1))'
p1326
V(14 + 6 + 5 + 4 + 3 + 2 + 1)/8
p1327
tp1328
ag978
(lp1329
V2016-11-02 02:11:57
p1330
tp1331
asS"['R.0', 'R.1.0']"
p1332
(lp1333
(S'3*9*(9+1)/(2*9) + 4*(2*9/(9+1) + (9*(9-1))/(2*(9+1)))'
p1334
V(3*1/9*(1+2+3+4+5+6+7+8+9))+4*(1/9*(1+2+3+4+5+6+7+8)+2*9)
p1335
(lp1336
(S'R.0'
p1337
F15.0
S'3*9*(9+1)/(2*9)'
p1338
V3*1/9*(1+2+3+4+5+6+7+8+9)
p1339
tp1340
a(S'R.1.0'
p1341
F4.0
g1155
g1156
tp1342
ag346
(lp1343
V2016-11-02 18:17:37
p1344
tp1345
a(S'3*9*(9+1)/(2*9) + 4*(2*9/(9+1) + (9*(9-1))/(2*(9+1)))'
p1346
V3*5+4*5
p1347
(lp1348
(S'R.0'
p1349
F15.0
S'3*9*(9+1)/(2*9)'
p1350
V3*5
p1351
tp1352
a(S'R.1.0'
p1353
F4.0
g1155
g1156
tp1354
ag890
(lp1355
V2016-11-01 22:38:12
p1356
tp1357
asS"['R']"
p1358
(lp1359
(S'2*6*(6+1)/(2*6) + 2*(2*6/(6+1) + (6*(6-1))/(2*(6+1)))'
p1360
V2*(3.5) + 2*((1 + 2 + 3 + 4 + 5)*1/7 + 6*(2/7))
p1361
(lp1362
(g32
F14.714285714285714
g1360
g1361
tp1363
ag42
(lp1364
V2016-11-02 17:40:28
p1365
tp1366
a(S'3*7*(7+1)/(2*7) + 4*(2*7/(7+1) + (7*(7-1))/(2*(7+1)))'
p1367
V12+(17.5)
p1368
(lp1369
(g32
F29.5
g1367
g1368
tp1370
ag58
(lp1371
V2016-11-02 06:16:05
p1372
tp1373
a(S'3*8*(8+1)/(2*8) + 2*(2*8/(8+1) + (8*(8-1))/(2*(8+1)))'
p1374
V(3*4.5)+(2*((1+2+3+4+5+6+7+8+8)/9))
p1375
(lp1376
(g32
F23.27777777777778
g1374
g1375
tp1377
ag74
(lp1378
V2016-11-02 20:43:53
p1379
tp1380
a(S'2*8*(8+1)/(2*8) + 4*(2*8/(8+1) + (8*(8-1))/(2*(8+1)))'
p1381
V2*8*(8+1)/(2*8)+4*(2*8/(8+1)+(8*(8-1))/(2*(8+1)))
p1382
(lp1383
(g32
F28.555555555555557
g1381
g1382
tp1384
aS'Jisu'
p1385
(lp1386
V2016-10-29 20:05:19
p1387
tp1388
a(S'3*9*(9+1)/(2*9) + 2*(2*9/(9+1) + (9*(9-1))/(2*(9+1)))'
p1389
V3*9*(9+1)/(2*9)+2*(2*9/(9+1)+(9*(9-1))/(2*(9+1)))
p1390
(lp1391
(g32
F25.8
g1389
g1390
tp1392
ag106
(lp1393
V2016-10-29 20:14:43
p1394
tp1395
a(S'3*7*(7+1)/(2*7) + 3*(2*7/(7+1) + (7*(7-1))/(2*(7+1)))'
p1396
V3*7*(7+1)/(2*7)+3*(2*7/(7+1)+(7*(7-1))/(2*(7+1)))
p1397
(lp1398
(g32
F25.125
g1396
g1397
tp1399
ag114
(lp1400
V2016-10-29 20:16:38
p1401
tp1402
a(S'2*9*(9+1)/(2*9) + 4*(2*9/(9+1) + (9*(9-1))/(2*(9+1)))'
p1403
V(45/9)*2+(48.6/9)*4
p1404
(lp1405
(g32
F31.6
g1403
g1404
tp1406
ag138
(lp1407
V2016-11-01 22:09:54
p1408
tp1409
a(S'2*7*(7+1)/(2*7) + 2*(2*7/(7+1) + (7*(7-1))/(2*(7+1)))'
p1410
V16.75
p1411
(lp1412
(g32
F16.75
g1410
g1411
tp1413
ag146
(lp1414
V2016-10-30 00:05:37
p1415
tp1416
a(S'4*7*(7+1)/(2*7) + 2*(2*7/(7+1) + (7*(7-1))/(2*(7+1)))'
p1417
V4*4 + 2*4.375
p1418
(lp1419
(g32
F24.75
g1417
g1418
tp1420
ag162
(lp1421
V2016-11-01 04:48:23
p1422
tp1423
a(S'4*9*(9+1)/(2*9) + 4*(2*9/(9+1) + (9*(9-1))/(2*(9+1)))'
p1424
V4*5+4*(27/5)
p1425
(lp1426
(g32
F41.6
g1424
g1425
tp1427
ag170
(lp1428
V2016-11-02 05:09:12
p1429
tp1430
a(S'3*6*(6+1)/(2*6) + 4*(2*6/(6+1) + (6*(6-1))/(2*(6+1)))'
p1431
V3*((1*1/6)+(2*1/6)+(3*1/6)+(4*1/6)+(5*1/6)+(6*1/6))+((1*1/7)+(2*1/7)+(3*1/7)+(4*1/7)+(5*1/7)+(6*2/7))*4
p1432
(lp1433
(g32
F25.928571428571427
g1431
g1432
tp1434
ag194
(lp1435
V2016-11-02 06:39:47
p1436
tp1437
a(S'4*6*(6+1)/(2*6) + 2*(2*6/(6+1) + (6*(6-1))/(2*(6+1)))'
p1438
V4*(1/6+2/6+3/6+4/6+5/6+6/6)+2*(1/7+2/7+3/7+4/7+5/7+12/7)
p1439
(lp1440
(g32
F21.714285714285715
g1438
g1439
tp1441
ag210
(lp1442
V2016-11-02 20:07:21
p1443
tp1444
a(S'4*9*(9+1)/(2*9) + 4*(2*9/(9+1) + (9*(9-1))/(2*(9+1)))'
p1445
V20+(27*4)/5
p1446
(lp1447
(g32
F41.6
g1445
g1446
tp1448
ag218
(lp1449
V2016-10-31 21:33:17
p1450
tp1451
a(S'3*9*(9+1)/(2*9) + 3*(2*9/(9+1) + (9*(9-1))/(2*(9+1)))'
p1452
V31.2
p1453
(lp1454
(g32
F31.200000000000003
g1452
g1453
tp1455
ag226
(lp1456
V2016-11-02 07:21:45
p1457
tp1458
a(S'2*6*(6+1)/(2*6) + 2*(2*6/(6+1) + (6*(6-1))/(2*(6+1)))'
p1459
V7/2 * 2 + 2 * 27/7
p1460
(lp1461
(g32
F14.714285714285714
g1459
g1460
tp1462
ag266
(lp1463
V2016-11-01 03:18:36
p1464
tp1465
a(S'2*9*(9+1)/(2*9) + 4*(2*9/(9+1) + (9*(9-1))/(2*(9+1)))'
p1466
V(2*((1+2+3+4+5+6+7+8+9)/9))+(4*(((1+2+3+4+5+6+7+8)/10)+(18/10)))
p1467
(lp1468
(g32
F31.6
g1466
g1467
tp1469
ag274
(lp1470
V2016-10-31 07:00:17
p1471
tp1472
a(S'3*6*(6+1)/(2*6) + 4*(2*6/(6+1) + (6*(6-1))/(2*(6+1)))'
p1473
V363/14
p1474
(lp1475
(g32
F25.928571428571427
g1473
g1474
tp1476
ag282
(lp1477
V2016-11-01 06:48:32
p1478
tp1479
a(S'3*8*(8+1)/(2*8) + 3*(2*8/(8+1) + (8*(8-1))/(2*(8+1)))'
p1480
V3*( (8*9)/2*(1/8) ) + 3*( (28/9) + (16/9) )
p1481
(lp1482
(g32
F28.166666666666668
g1480
g1481
tp1483
ag298
(lp1484
V2016-11-01 19:32:44
p1485
tp1486
a(S'4*6*(6+1)/(2*6) + 3*(2*6/(6+1) + (6*(6-1))/(2*(6+1)))'
p1487
V4*(21/6)+3*(27/7)
p1488
(lp1489
(g32
F25.57142857142857
g1487
g1488
tp1490
ag314
(lp1491
V2016-11-01 21:24:06
p1492
tp1493
a(S'4*9*(9+1)/(2*9) + 3*(2*9/(9+1) + (9*(9-1))/(2*(9+1)))'
p1494
V4*(9*(9+1)/(2*9))+3*(2*9/(9+1)+(9*(9-1))/(2*(9+1)))
p1495
(lp1496
(g32
F36.2
g1494
g1495
tp1497
ag322
(lp1498
V2016-11-02 18:50:18
p1499
tp1500
a(S'3*6*(6+1)/(2*6) + 2*(2*6/(6+1) + (6*(6-1))/(2*(6+1)))'
p1501
V3*(1/6+2/6+3/6+4/6+5/6+6/6)+2*(1/7+2/7+3/7+4/7+5/7+12/7)
p1502
(lp1503
(g32
F18.214285714285715
g1501
g1502
tp1504
ag330
(lp1505
V2016-11-02 18:57:58
p1506
tp1507
a(S'2*8*(8+1)/(2*8) + 2*(2*8/(8+1) + (8*(8-1))/(2*(8+1)))'
p1508
V9+88/9
p1509
(lp1510
(g32
F18.77777777777778
g1508
g1509
tp1511
ag338
(lp1512
V2016-10-29 21:06:45
p1513
tp1514
a(S'2*9*(9+1)/(2*9) + 4*(2*9/(9+1) + (9*(9-1))/(2*(9+1)))'
p1515
V2*(1/9*(1+2+3+4+5+6+7+8+9))+4*(1/10*(1+2+3+4+5+6+7+8+2*(9)))
p1516
(lp1517
(g32
F31.6
g1515
g1516
tp1518
ag362
(lp1519
V2016-11-02 18:24:39
p1520
tp1521
a(S'2*7*(7+1)/(2*7) + 2*(2*7/(7+1) + (7*(7-1))/(2*(7+1)))'
p1522
V2*(1/7*(1+2+3+4+5+6+7))+2*(1/8*(1+2+3+4+5+6+2*(7)))
p1523
(lp1524
(g32
F16.75
g1522
g1523
tp1525
ag370
(lp1526
V2016-11-02 18:26:06
p1527
tp1528
a(S'3*7*(7+1)/(2*7) + 3*(2*7/(7+1) + (7*(7-1))/(2*(7+1)))'
p1529
V3*(1/7*(1+2+3+4+5+6+7))+3*(1/8*(1+2+3+4+5+6+2*(7)))
p1530
(lp1531
(g32
F25.125
g1529
g1530
tp1532
ag378
(lp1533
V2016-11-02 18:28:00
p1534
tp1535
a(S'2*9*(9+1)/(2*9) + 2*(2*9/(9+1) + (9*(9-1))/(2*(9+1)))'
p1536
V2*(1*(1/9) + 2*(1/9) + 3*(1/9) + 4*(1/9) + 5*(1/9) + 6*(1/9) + 7*(1/9) + 8*(1/9) + 9*(1/9)) + 2*(1*(1/10) + 2*(1/10) + 3*(1/10) + 4*(1/10) + 5*(1/10) + 6*(1/10) + 7*(1/10) + 8*(1/10) + 9*(2/10))
p1537
(lp1538
(g32
F20.8
g1536
g1537
tp1539
ag394
(lp1540
V2016-11-02 18:41:47
p1541
tp1542
a(S'4*8*(8+1)/(2*8) + 3*(2*8/(8+1) + (8*(8-1))/(2*(8+1)))'
p1543
V4*8*(8+1)/(2*8)+3*(2*8/(8+1)+(8*(8-1))/(2*(8+1)))
p1544
(lp1545
(g32
F32.66666666666667
g1543
g1544
tp1546
ag410
(lp1547
V2016-10-29 23:43:49
p1548
tp1549
a(S'4*7*(7+1)/(2*7) + 2*(2*7/(7+1) + (7*(7-1))/(2*(7+1)))'
p1550
V(4*4)+(4.375*2)
p1551
(lp1552
(g32
F24.75
g1550
g1551
tp1553
ag458
(lp1554
V2016-10-31 18:22:24
p1555
tp1556
a(S'2*6*(6+1)/(2*6) + 4*(2*6/(6+1) + (6*(6-1))/(2*(6+1)))'
p1557
V(((1+2+3+4+5+6)/6)*2)+((((1+2+3+4+5)/7)+(12/7))*4)
p1558
(lp1559
(g32
F22.428571428571427
g1557
g1558
tp1560
ag490
(lp1561
V2016-10-31 19:08:24
p1562
tp1563
a(S'2*8*(8+1)/(2*8) + 4*(2*8/(8+1) + (8*(8-1))/(2*(8+1)))'
p1564
V(2*((1+2+3+4+5+6+7+8)/8))+(4*(((1+2+3+4+5+6+7)/9)+(16/9)))
p1565
(lp1566
(g32
F28.555555555555557
g1564
g1565
tp1567
ag498
(lp1568
V2016-10-31 19:11:00
p1569
tp1570
a(S'2*9*(9+1)/(2*9) + 3*(2*9/(9+1) + (9*(9-1))/(2*(9+1)))'
p1571
V(2*5)+(3*5.4)
p1572
(lp1573
(g32
F26.200000000000003
g1571
g1572
tp1574
ag514
(lp1575
V2016-11-02 19:34:01
p1576
tp1577
a(S'2*8*(8+1)/(2*8) + 2*(2*8/(8+1) + (8*(8-1))/(2*(8+1)))'
p1578
V(((1/9)+(2/9)+(3/9)+(4/9)+(5/9)+(6/9)+(7/9)+(16/9))*2)+(((1/8)+(2/8)+(3/8)+(4/8)+(5/8)+(6/8)+(7/8)+(8/8))*2)
p1579
(lp1580
(g32
F18.77777777777778
g1578
g1579
tp1581
ag522
(lp1582
V2016-11-02 19:40:38
p1583
tp1584
a(S'4*8*(8+1)/(2*8) + 3*(2*8/(8+1) + (8*(8-1))/(2*(8+1)))'
p1585
V4 * (1/8 + 2/8 + 3/8 + 4/8 + 5/8 + 6/8 + 7/8 + 8/8) + 3 * (1/9 + 2/9 + 3/9 + 4/9 + 5/9 + 6/9 + 7/9 + 16/9)
p1586
(lp1587
(g32
F32.66666666666667
g1585
g1586
tp1588
ag538
(lp1589
V2016-11-01 23:13:01
p1590
tp1591
a(S'3*9*(9+1)/(2*9) + 3*(2*9/(9+1) + (9*(9-1))/(2*(9+1)))'
p1592
V15 + 16.2
p1593
(lp1594
(g32
F31.200000000000003
g1592
g1593
tp1595
ag546
(lp1596
V2016-11-01 18:54:33
p1597
tp1598
a(S'2*6*(6+1)/(2*6) + 2*(2*6/(6+1) + (6*(6-1))/(2*(6+1)))'
p1599
V7+54/7
p1600
(lp1601
(g32
F14.714285714285714
g1599
g1600
tp1602
ag554
(lp1603
V2016-11-02 03:19:19
p1604
tp1605
a(S'2*9*(9+1)/(2*9) + 3*(2*9/(9+1) + (9*(9-1))/(2*(9+1)))'
p1606
V26.2
p1607
(lp1608
(g32
F26.200000000000003
g1606
g1607
tp1609
ag570
(lp1610
V2016-11-01 08:12:49
p1611
tp1612
a(S'2*7*(7+1)/(2*7) + 4*(2*7/(7+1) + (7*(7-1))/(2*(7+1)))'
p1613
V8 + 35/2
p1614
(lp1615
(g32
F25.5
g1613
g1614
tp1616
ag586
(lp1617
V2016-11-01 04:03:21
p1618
tp1619
a(S'4*7*(7+1)/(2*7) + 2*(2*7/(7+1) + (7*(7-1))/(2*(7+1)))'
p1620
V99/4
p1621
(lp1622
(g32
F24.75
g1620
g1621
tp1623
ag594
(lp1624
V2016-11-02 03:47:59
p1625
tp1626
a(S'4*9*(9+1)/(2*9) + 3*(2*9/(9+1) + (9*(9-1))/(2*(9+1)))'
p1627
V181/5
p1628
(lp1629
(g32
F36.2
g1627
g1628
tp1630
ag618
(lp1631
V2016-11-02 03:53:15
p1632
tp1633
a(S'4*9*(9+1)/(2*9) + 4*(2*9/(9+1) + (9*(9-1))/(2*(9+1)))'
p1634
V208/5
p1635
(lp1636
(g32
F41.6
g1634
g1635
tp1637
ag626
(lp1638
V2016-11-02 03:56:32
p1639
tp1640
a(S'2*8*(8+1)/(2*8) + 3*(2*8/(8+1) + (8*(8-1))/(2*(8+1)))'
p1641
V2*(8*(8+1)/(2*8)) + 3*(2*8/(8+1) + (8*(8-1))/(2*(8+1)))
p1642
(lp1643
(g32
F23.666666666666668
g1641
g1642
tp1644
ag634
(lp1645
V2016-10-31 01:08:23
p1646
tp1647
a(S'2*9*(9+1)/(2*9) + 3*(2*9/(9+1) + (9*(9-1))/(2*(9+1)))'
p1648
V2*9*(9+1)/(2*9)+3*(2*9/(9+1)+(9*(9-1))/(2*(9+1)))
p1649
(lp1650
(g32
F26.200000000000003
g1648
g1649
tp1651
ag650
(lp1652
V2016-10-30 20:24:31
p1653
tp1654
a(S'2*7*(7+1)/(2*7) + 4*(2*7/(7+1) + (7*(7-1))/(2*(7+1)))'
p1655
V(2*((1/7)+(2/7)+(3/7)+(4/7)+(5/7)+(6/7)+1))+(4*((1/8)+(2/8)+(3/8)+(4/8)+(5/8)+(6/8)+(14/8)))
p1656
(lp1657
(g32
F25.5
g1655
g1656
tp1658
ag666
(lp1659
V2016-11-02 01:47:43
p1660
tp1661
a(S'4*7*(7+1)/(2*7) + 2*(2*7/(7+1) + (7*(7-1))/(2*(7+1)))'
p1662
V4*((7*(7+1))/(2*7)) + 2*((2*7/(7+1) + (7*(7-1))/(2*(7+1))))
p1663
(lp1664
(g32
F24.75
g1662
g1663
tp1665
ag674
(lp1666
V2016-10-30 23:35:59
p1667
tp1668
a(S'2*8*(8+1)/(2*8) + 4*(2*8/(8+1) + (8*(8-1))/(2*(8+1)))'
p1669
V2/8*(1+2+3+4+5+6+7+8)+4*(1/9*(1+2+3+4+5+6+7)+2/9*8)
p1670
(lp1671
(g32
F28.555555555555557
g1669
g1670
tp1672
ag682
(lp1673
V2016-11-01 16:12:38
p1674
tp1675
a(S'3*6*(6+1)/(2*6) + 3*(2*6/(6+1) + (6*(6-1))/(2*(6+1)))'
p1676
V3*(1/6 + 2/6 + 3/6 + 4/6 + 5/6 + 6/6) + 3*(1/7+ 2/7 + 3/7 + 4/7 + 5/7 + 12/7)
p1677
(lp1678
(g32
F22.07142857142857
g1676
g1677
tp1679
ag698
(lp1680
V2016-11-02 01:34:02
p1681
tp1682
a(S'3*7*(7+1)/(2*7) + 4*(2*7/(7+1) + (7*(7-1))/(2*(7+1)))'
p1683
V3*(1/7 + 2/7 + 3/7 + 4/7 + 5/7 + 6/7 + 1)+4*(1/8 + 2/8 + 3/8 + 4/8 + 5/8 + 6/8 + 14/8)
p1684
(lp1685
(g32
F29.5
g1683
g1684
tp1686
ag706
(lp1687
V2016-11-02 01:42:57
p1688
tp1689
a(S'3*9*(9+1)/(2*9) + 4*(2*9/(9+1) + (9*(9-1))/(2*(9+1)))'
p1690
V15+4*27/5
p1691
(lp1692
(g32
F36.6
g1690
g1691
tp1693
ag714
(lp1694
V2016-10-30 09:16:18
p1695
tp1696
a(S'2*8*(8+1)/(2*8) + 3*(2*8/(8+1) + (8*(8-1))/(2*(8+1)))'
p1697
V9+44/3
p1698
(lp1699
(g32
F23.666666666666668
g1697
g1698
tp1700
ag722
(lp1701
V2016-10-30 09:21:15
p1702
tp1703
a(S'4*8*(8+1)/(2*8) + 4*(2*8/(8+1) + (8*(8-1))/(2*(8+1)))'
p1704
V18+44*4/9
p1705
(lp1706
(g32
F37.55555555555556
g1704
g1705
tp1707
ag738
(lp1708
V2016-10-30 09:24:13
p1709
tp1710
a(S'3*7*(7+1)/(2*7) + 3*(2*7/(7+1) + (7*(7-1))/(2*(7+1)))'
p1711
V12+105/8
p1712
(lp1713
(g32
F25.125
g1711
g1712
tp1714
ag762
(lp1715
V2016-10-29 05:26:43
p1716
tp1717
a(S'2*7*(7+1)/(2*7) + 2*(2*7/(7+1) + (7*(7-1))/(2*(7+1)))'
p1718
V((2)*(4))+((2)*(4.375))
p1719
(lp1720
(g32
F16.75
g1718
g1719
tp1721
ag786
(lp1722
V2016-10-29 20:03:52
p1723
tp1724
a(S'3*7*(7+1)/(2*7) + 3*(2*7/(7+1) + (7*(7-1))/(2*(7+1)))'
p1725
V12+3*(35/8)
p1726
(lp1727
(g32
F25.125
g1725
g1726
tp1728
ag794
(lp1729
V2016-10-30 19:31:36
p1730
tp1731
a(S'3*8*(8+1)/(2*8) + 2*(2*8/(8+1) + (8*(8-1))/(2*(8+1)))'
p1732
V(3*((1/8)+(2/8)+(3/8)+(4/8)+(5/8)+(6/8)+(7/8)+1))+(2*((1/9)+(2/9)+(3/9)+(4/9)+(5/9)+(6/9)+(7/9)+(16/9)))
p1733
(lp1734
(g32
F23.27777777777778
g1732
g1733
tp1735
ag818
(lp1736
V2016-11-01 21:51:09
p1737
tp1738
a(S'2*8*(8+1)/(2*8) + 2*(2*8/(8+1) + (8*(8-1))/(2*(8+1)))'
p1739
V(2*((1/8)+(2/8)+(3/8)+(4/8)+(5/8)+(6/8)+(7/8)+1))+(2*((1/9)+(2/9)+(3/9)+(4/9)+(5/9)+(6/9)+(7/9)+(16/9)))
p1740
(lp1741
(g32
F18.77777777777778
g1739
g1740
tp1742
ag826
(lp1743
V2016-11-01 21:53:37
p1744
tp1745
a(S'3*7*(7+1)/(2*7) + 2*(2*7/(7+1) + (7*(7-1))/(2*(7+1)))'
p1746
V(3*(1/7+2/7+3/7+4/7+5/7+6/7+1))+(2*(1/8+2/8+3/8+4/8+5/8+6/8+14/8))
p1747
(lp1748
(g32
F20.75
g1746
g1747
tp1749
ag858
(lp1750
V2016-11-02 19:46:01
p1751
tp1752
a(S'2*6*(6+1)/(2*6) + 3*(2*6/(6+1) + (6*(6-1))/(2*(6+1)))'
p1753
V2*((1/6)+(2/6)+(3/6)+(4/6)+(5/6)+1) + 3*((1/7)+(2/7)+(3/7)+(4/7)+(5/7)+(6/7)+(6/7))
p1754
(lp1755
(g32
F18.57142857142857
g1753
g1754
tp1756
ag882
(lp1757
V2016-11-02 05:01:43
p1758
tp1759
a(S'2*8*(8+1)/(2*8) + 2*(2*8/(8+1) + (8*(8-1))/(2*(8+1)))'
p1760
V2*9/2+2*44/9
p1761
(lp1762
(g32
F18.77777777777778
g1760
g1761
tp1763
ag898
(lp1764
V2016-11-01 22:43:07
p1765
tp1766
a(S'4*6*(6+1)/(2*6) + 4*(2*6/(6+1) + (6*(6-1))/(2*(6+1)))'
p1767
V4 * ((1*1/6) + (2/6) + 3/6 + 4/6 + 5/6 + 1) + 4*((1*1/7) + (2/7) + 3/7 + 4/7 + 5/7 + (6 * 2/7))
p1768
(lp1769
(g32
F29.428571428571427
g1767
g1768
tp1770
ag914
(lp1771
V2016-11-01 18:03:00
p1772
tp1773
a(S'3*7*(7+1)/(2*7) + 4*(2*7/(7+1) + (7*(7-1))/(2*(7+1)))'
p1774
V3*4 + 4*4.375
p1775
(lp1776
(g32
F29.5
g1774
g1775
tp1777
ag922
(lp1778
V2016-11-02 01:33:24
p1779
tp1780
a(S'3*9*(9+1)/(2*9) + 3*(2*9/(9+1) + (9*(9-1))/(2*(9+1)))'
p1781
V3*5 + 3*5.4
p1782
(lp1783
(g32
F31.200000000000003
g1781
g1782
tp1784
ag930
(lp1785
V2016-10-31 01:05:49
p1786
tp1787
a(S'4*7*(7+1)/(2*7) + 4*(2*7/(7+1) + (7*(7-1))/(2*(7+1)))'
p1788
V4 * 4 + 4 * 4.375
p1789
(lp1790
(g32
F33.5
g1788
g1789
tp1791
ag938
(lp1792
V2016-10-31 01:15:03
p1793
tp1794
a(S'4*8*(8+1)/(2*8) + 4*(2*8/(8+1) + (8*(8-1))/(2*(8+1)))'
p1795
V4.5*4+((1+7)*(7/2)*(1/9)+8*(2/9))*4
p1796
(lp1797
(g32
F37.55555555555556
g1795
g1796
tp1798
ag954
(lp1799
V2016-10-30 23:34:13
p1800
tp1801
a(S'2*9*(9+1)/(2*9) + 4*(2*9/(9+1) + (9*(9-1))/(2*(9+1)))'
p1802
V(5*2) + (4*((18 + 8 + 7 + 6 + 5 + 4 + 3 + 2 + 1)/10))
p1803
(lp1804
(g32
F31.6
g1802
g1803
tp1805
ag986
(lp1806
V2016-11-02 02:13:29
p1807
tp1808
a(S'4*6*(6+1)/(2*6) + 2*(2*6/(6+1) + (6*(6-1))/(2*(6+1)))'
p1809
V4*6*(6+1)/(2*6)+2*(2*6/(6+1)+(6*(6-1))/(2*(6+1)))
p1810
(lp1811
(g32
F21.714285714285715
g1809
g1810
tp1812
ag994
(lp1813
V2016-10-29 21:34:16
p1814
tp1815
a(S'4*9*(9+1)/(2*9) + 2*(2*9/(9+1) + (9*(9-1))/(2*(9+1)))'
p1816
V4*9*(9+1)/(2*9)+2*(2*9/(9+1)+(9*(9-1))/(2*(9+1)))
p1817
(lp1818
(g32
F30.8
g1816
g1817
tp1819
ag1002
(lp1820
V2016-10-29 22:01:34
p1821
tp1822
a(S'3*9*(9+1)/(2*9) + 3*(2*9/(9+1) + (9*(9-1))/(2*(9+1)))'
p1823
V3*9*(9+1)/(2*9)+3*(2*9/(9+1)+(9*(9-1))/(2*(9+1)))
p1824
(lp1825
(g32
F31.200000000000003
g1823
g1824
tp1826
ag1018
(lp1827
V2016-10-29 22:08:23
p1828
tp1829
a(S'4*9*(9+1)/(2*9) + 3*(2*9/(9+1) + (9*(9-1))/(2*(9+1)))'
p1830
V20+3*(9*2/10+36/10)
p1831
(lp1832
(g32
F36.2
g1830
g1831
tp1833
ag1026
(lp1834
V2016-10-30 00:38:35
p1835
tp1836
a(S'3*7*(7+1)/(2*7) + 4*(2*7/(7+1) + (7*(7-1))/(2*(7+1)))'
p1837
V12+(4(35/8))
p1838
(lp1839
(g32
F29.5
g1837
g1838
tp1840
ag1058
(lp1841
V2016-10-30 19:22:40
p1842
tp1843
a(S'3*8*(8+1)/(2*8) + 2*(2*8/(8+1) + (8*(8-1))/(2*(8+1)))'
p1844
V3 * 4.5 + 2 * (1/9 + 2/9 + 3/9 + 4/9 + 5/9 + 6/9 + 7/9 + 16/9)
p1845
(lp1846
(g32
F23.27777777777778
g1844
g1845
tp1847
ag1090
(lp1848
V2016-11-02 03:12:19
p1849
tp1850
a(S'2*7*(7+1)/(2*7) + 3*(2*7/(7+1) + (7*(7-1))/(2*(7+1)))'
p1851
V169/8
p1852
(lp1853
(g32
F21.125
g1851
g1852
tp1854
ag1122
(lp1855
V2016-10-30 05:03:45
p1856
tp1857
assS'2'
p1858
g2
(g3
tp1859
Rp1860
g19
(lp1861
(S'2*7/(7+1) + (7*(7-1))/(2*(7+1))'
p1862
V4
p1863
tp1864
asS"['R.1.1.0']"
p1865
(lp1866
(S'2*9/(9+1) + (9*(9-1))/(2*(9+1))'
p1867
V(1+7)*(7/2)*(1/9)+8*(2/9)
p1868
(lp1869
(S'R.1.1.0'
p1870
F2.0
g1198
g1199
tp1871
aS'maxcjx'
p1872
(lp1873
V2016-10-30 23:32:56
p1874
tp1875
asS"['R.0', 'R.1.0.1']"
p1876
(lp1877
(S'2*6/(6+1) + (6*(6-1))/(2*(6+1))'
p1878
V6 * 2/7 + 15 * 5/7
p1879
(lp1880
(S'R.0'
p1881
F1.7142857142857142
S'2*6/(6+1)'
p1882
V6 * 2/7
p1883
tp1884
a(S'R.1.0.1'
p1885
F5.0
S'6-1'
p1886
g1221
tp1887
ag258
(lp1888
V2016-11-01 03:15:17
p1889
tp1890
asS"['R']"
p1891
(lp1892
(S'2*8/(8+1) + (8*(8-1))/(2*(8+1))'
p1893
V2 * 8/ 9 + 56/ 18
p1894
(lp1895
(g32
F4.888888888888889
g1893
g1894
tp1896
ag34
(lp1897
V2016-10-29 23:02:01
p1898
tp1899
a(S'2*6/(6+1) + (6*(6-1))/(2*(6+1))'
p1900
V(1 + 2 + 3 + 4 + 5)*1/7 + 6*(2/7)
p1901
(lp1902
(g32
F3.8571428571428568
g1900
g1901
tp1903
ag42
(lp1904
V2016-11-02 17:40:28
p1905
tp1906
a(S'2*6/(6+1) + (6*(6-1))/(2*(6+1))'
p1907
V27/7
p1908
(lp1909
(g32
F3.8571428571428568
g1907
g1908
tp1910
ag50
(lp1911
V2016-11-02 06:10:20
p1912
tp1913
a(S'2*7/(7+1) + (7*(7-1))/(2*(7+1))'
p1914
V4.375
p1915
(lp1916
(g32
F4.375
g1914
g1915
tp1917
ag58
(lp1918
V2016-11-02 06:16:05
p1919
tp1920
a(S'2*8/(8+1) + (8*(8-1))/(2*(8+1))'
p1921
V(1+2+3+4+5+6+7+8+8)/9
p1922
(lp1923
(g32
F4.888888888888889
g1921
g1922
tp1924
ag74
(lp1925
V2016-11-02 20:43:53
p1926
tp1927
a(S'2*6/(6+1) + (6*(6-1))/(2*(6+1))'
p1928
V2*6/(6+1)+(6*(6-1))/(2*(6+1))
p1929
(lp1930
(g32
F3.8571428571428568
g1928
g1929
tp1931
ag82
(lp1932
V2016-10-29 20:01:48
p1933
tp1934
a(S'2*9/(9+1) + (9*(9-1))/(2*(9+1))'
p1935
V2*9/(9+1)+(9*(9-1))/(2*(9+1))
p1936
(lp1937
(g32
F5.4
g1935
g1936
tp1938
ag90
(lp1939
V2016-10-29 20:03:40
p1940
tp1941
a(S'2*8/(8+1) + (8*(8-1))/(2*(8+1))'
p1942
V2*8/(8+1)+(8*(8-1))/(2*(8+1))
p1943
(lp1944
(g32
F4.888888888888889
g1942
g1943
tp1945
ag1385
(lp1946
V2016-10-29 20:05:19
p1947
tp1948
a(S'2*6/(6+1) + (6*(6-1))/(2*(6+1))'
p1949
V2*6/(6+1)+(6*(6-1))/(2*(6+1))
p1950
(lp1951
(g32
F3.8571428571428568
g1949
g1950
tp1952
ag98
(lp1953
V2016-10-29 20:12:58
p1954
tp1955
a(S'2*9/(9+1) + (9*(9-1))/(2*(9+1))'
p1956
V2*9/(9+1)+(9*(9-1))/(2*(9+1))
p1957
(lp1958
(g32
F5.4
g1956
g1957
tp1959
ag106
(lp1960
V2016-10-29 20:14:43
p1961
tp1962
a(S'2*7/(7+1) + (7*(7-1))/(2*(7+1))'
p1963
V2*7/(7+1)+(7*(7-1))/(2*(7+1))
p1964
(lp1965
(g32
F4.375
g1963
g1964
tp1966
ag114
(lp1967
V2016-10-29 20:16:38
p1968
tp1969
a(S'2*9/(9+1) + (9*(9-1))/(2*(9+1))'
p1970
V48.6/9
p1971
(lp1972
(g32
F5.4
g1970
g1971
tp1973
ag130
(lp1974
V2016-11-01 22:07:47
p1975
tp1976
a(S'2*9/(9+1) + (9*(9-1))/(2*(9+1))'
p1977
V48.6/9
p1978
(lp1979
(g32
F5.4
g1977
g1978
tp1980
ag138
(lp1981
V2016-11-01 22:09:54
p1982
tp1983
a(S'2*7/(7+1) + (7*(7-1))/(2*(7+1))'
p1984
V4.375
p1985
(lp1986
(g32
F4.375
g1984
g1985
tp1987
ag146
(lp1988
V2016-10-30 00:05:37
p1989
tp1990
a(S'2*7/(7+1) + (7*(7-1))/(2*(7+1))'
p1991
V2*7/(7+1) + (7*(7-1))/(2*(7+1))
p1992
(lp1993
(g32
F4.375
g1991
g1992
tp1994
ag162
(lp1995
V2016-11-01 04:48:23
p1996
tp1997
a(S'2*9/(9+1) + (9*(9-1))/(2*(9+1))'
p1998
V27/5
p1999
(lp2000
(g32
F5.4
g1998
g1999
tp2001
ag170
(lp2002
V2016-11-02 05:09:12
p2003
tp2004
a(S'2*9/(9+1) + (9*(9-1))/(2*(9+1))'
p2005
V(1*1/10)+(2*1/10)+(3*1/10)+(4*1/10)+(5*1/10)+(6*1/10)+(7*1/10)+(8*1/10)+(9*2/10)
p2006
(lp2007
(g32
F5.4
g2005
g2006
tp2008
ag186
(lp2009
V2016-11-02 06:37:35
p2010
tp2011
a(S'2*6/(6+1) + (6*(6-1))/(2*(6+1))'
p2012
V(1*1/7)+(2*1/7)+(3*1/7)+(4*1/7)+(5*1/7)+(6*2/7)
p2013
(lp2014
(g32
F3.8571428571428568
g2012
g2013
tp2015
ag194
(lp2016
V2016-11-02 06:39:47
p2017
tp2018
a(S'2*6/(6+1) + (6*(6-1))/(2*(6+1))'
p2019
V1/7+2/7+3/7+4/7+5/7+12/7
p2020
(lp2021
(g32
F3.8571428571428568
g2019
g2020
tp2022
ag210
(lp2023
V2016-11-02 20:07:21
p2024
tp2025
a(S'2*9/(9+1) + (9*(9-1))/(2*(9+1))'
p2026
V(1/10)+(2/10)+(3/10)+(4/10)+(5/10)+(6/10)+(7/10)+(8/10)+(18/10)
p2027
(lp2028
(g32
F5.4
g2026
g2027
tp2029
ag218
(lp2030
V2016-10-31 21:33:17
p2031
tp2032
a(S'2*9/(9+1) + (9*(9-1))/(2*(9+1))'
p2033
V5.4
p2034
(lp2035
(g32
F5.4
g2033
g2034
tp2036
ag226
(lp2037
V2016-11-02 07:21:45
p2038
tp2039
a(S'2*6/(6+1) + (6*(6-1))/(2*(6+1))'
p2040
V27/7
p2041
(lp2042
(g32
F3.8571428571428568
g2040
g2041
tp2043
ag266
(lp2044
V2016-11-01 03:18:36
p2045
tp2046
a(S'2*9/(9+1) + (9*(9-1))/(2*(9+1))'
p2047
V((1+2+3+4+5+6+7+8)/10)+(18/10)
p2048
(lp2049
(g32
F5.4
g2047
g2048
tp2050
ag274
(lp2051
V2016-10-31 07:00:17
p2052
tp2053
a(S'2*6/(6+1) + (6*(6-1))/(2*(6+1))'
p2054
V27/7
p2055
(lp2056
(g32
F3.8571428571428568
g2054
g2055
tp2057
ag282
(lp2058
V2016-11-01 06:48:32
p2059
tp2060
a(S'2*7/(7+1) + (7*(7-1))/(2*(7+1))'
p2061
V42/16+7/4
p2062
(lp2063
(g32
F4.375
g2061
g2062
tp2064
ag290
(lp2065
V2016-11-01 19:21:58
p2066
tp2067
a(S'2*8/(8+1) + (8*(8-1))/(2*(8+1))'
p2068
V(28/9) + (16/9)
p2069
(lp2070
(g32
F4.888888888888889
g2068
g2069
tp2071
ag298
(lp2072
V2016-11-01 19:32:44
p2073
tp2074
a(S'2*6/(6+1) + (6*(6-1))/(2*(6+1))'
p2075
V27/7
p2076
(lp2077
(g32
F3.8571428571428568
g2075
g2076
tp2078
ag314
(lp2079
V2016-11-01 21:24:06
p2080
tp2081
a(S'2*9/(9+1) + (9*(9-1))/(2*(9+1))'
p2082
V2*9/(9+1)+(9*(9-1))/(2*(9+1))
p2083
(lp2084
(g32
F5.4
g2082
g2083
tp2085
ag322
(lp2086
V2016-11-02 18:50:18
p2087
tp2088
a(S'2*6/(6+1) + (6*(6-1))/(2*(6+1))'
p2089
V1/7+2/7+3/7+4/7+5/7+12/7
p2090
(lp2091
(g32
F3.8571428571428568
g2089
g2090
tp2092
ag330
(lp2093
V2016-11-02 18:57:58
p2094
tp2095
a(S'2*8/(8+1) + (8*(8-1))/(2*(8+1))'
p2096
V8*2/9+ 28/9
p2097
(lp2098
(g32
F4.888888888888889
g2096
g2097
tp2099
ag338
(lp2100
V2016-10-29 21:06:45
p2101
tp2102
a(S'2*9/(9+1) + (9*(9-1))/(2*(9+1))'
p2103
V1/10*(1+2+3+4+5+6+7+8+2*(9))
p2104
(lp2105
(g32
F5.4
g2103
g2104
tp2106
ag362
(lp2107
V2016-11-02 18:24:39
p2108
tp2109
a(S'2*7/(7+1) + (7*(7-1))/(2*(7+1))'
p2110
V1/8*(1+2+3+4+5+6+2*(7))
p2111
(lp2112
(g32
F4.375
g2110
g2111
tp2113
ag370
(lp2114
V2016-11-02 18:26:06
p2115
tp2116
a(S'2*7/(7+1) + (7*(7-1))/(2*(7+1))'
p2117
V1/8*(1+2+3+4+5+6+2*(7))
p2118
(lp2119
(g32
F4.375
g2117
g2118
tp2120
ag378
(lp2121
V2016-11-02 18:28:00
p2122
tp2123
a(S'2*9/(9+1) + (9*(9-1))/(2*(9+1))'
p2124
V1*(1/10) + 2*(1/10) + 3*(1/10) + 4*(1/10) + 5*(1/10) + 6*(1/10) + 7*(1/10) + 8*(1/10) + 9*(2/10)
p2125
(lp2126
(g32
F5.4
g2124
g2125
tp2127
ag394
(lp2128
V2016-11-02 18:41:47
p2129
tp2130
a(S'2*8/(8+1) + (8*(8-1))/(2*(8+1))'
p2131
V2*8/(8+1)+(8*(8-1))/(2*(8+1))
p2132
(lp2133
(g32
F4.888888888888889
g2131
g2132
tp2134
ag410
(lp2135
V2016-10-29 23:43:49
p2136
tp2137
a(S'2*9/(9+1) + (9*(9-1))/(2*(9+1))'
p2138
V5.4
p2139
(lp2140
(g32
F5.4
g2138
g2139
tp2141
ag418
(lp2142
V2016-10-31 18:03:43
p2143
tp2144
a(S'2*9/(9+1) + (9*(9-1))/(2*(9+1))'
p2145
V5.4
p2146
(lp2147
(g32
F5.4
g2145
g2146
tp2148
ag434
(lp2149
V2016-10-31 18:17:24
p2150
tp2151
a(S'2*7/(7+1) + (7*(7-1))/(2*(7+1))'
p2152
V4.375
p2153
(lp2154
(g32
F4.375
g2152
g2153
tp2155
ag458
(lp2156
V2016-10-31 18:22:24
p2157
tp2158
a(S'2*6/(6+1) + (6*(6-1))/(2*(6+1))'
p2159
V((1+2+3+4+5)/7)+(12/7)
p2160
(lp2161
(g32
F3.8571428571428568
g2159
g2160
tp2162
ag490
(lp2163
V2016-10-31 19:08:24
p2164
tp2165
a(S'2*8/(8+1) + (8*(8-1))/(2*(8+1))'
p2166
V((1+2+3+4+5+6+7)/9)+(16/9)
p2167
(lp2168
(g32
F4.888888888888889
g2166
g2167
tp2169
ag498
(lp2170
V2016-10-31 19:11:00
p2171
tp2172
a(S'2*9/(9+1) + (9*(9-1))/(2*(9+1))'
p2173
V(1/10)+(2/10)+(3/10)+(4/10)+(5/10)+(6/10)+(7/10)+(8/10)+(18/10)
p2174
(lp2175
(g32
F5.4
g2173
g2174
tp2176
ag514
(lp2177
V2016-11-02 19:34:01
p2178
tp2179
a(S'2*8/(8+1) + (8*(8-1))/(2*(8+1))'
p2180
V(1/9)+(2/9)+(3/9)+(4/9)+(5/9)+(6/9)+(7/9)+(16/9)
p2181
(lp2182
(g32
F4.888888888888889
g2180
g2181
tp2183
ag522
(lp2184
V2016-11-02 19:40:38
p2185
tp2186
a(S'2*7/(7+1) + (7*(7-1))/(2*(7+1))'
p2187
V1/8 + 2/8 + 3/8 + 4/8 + 5/8 + 6/8 + 7/4
p2188
(lp2189
(g32
F4.375
g2187
g2188
tp2190
ag530
(lp2191
V2016-11-01 23:01:28
p2192
tp2193
a(S'2*8/(8+1) + (8*(8-1))/(2*(8+1))'
p2194
V1/9 + 2/9 + 3/9 + 4/9 + 5/9 + 6/9 + 7/9 + 16/9
p2195
(lp2196
(g32
F4.888888888888889
g2194
g2195
tp2197
ag538
(lp2198
V2016-11-01 23:13:01
p2199
tp2200
a(S'2*8/(8+1) + (8*(8-1))/(2*(8+1))'
p2201
V44/9
p2202
(lp2203
(g32
F4.888888888888889
g2201
g2202
tp2204
ag1245
(lp2205
V2016-11-01 18:51:03
p2206
tp2207
a(S'2*9/(9+1) + (9*(9-1))/(2*(9+1))'
p2208
V5.4
p2209
(lp2210
(g32
F5.4
g2208
g2209
tp2211
ag546
(lp2212
V2016-11-01 18:54:33
p2213
tp2214
a(S'2*6/(6+1) + (6*(6-1))/(2*(6+1))'
p2215
V27/7
p2216
(lp2217
(g32
F3.8571428571428568
g2215
g2216
tp2218
ag554
(lp2219
V2016-11-02 03:19:19
p2220
tp2221
a(S'2*9/(9+1) + (9*(9-1))/(2*(9+1))'
p2222
V5.4
p2223
(lp2224
(g32
F5.4
g2222
g2223
tp2225
ag570
(lp2226
V2016-11-01 08:12:49
p2227
tp2228
a(S'2*7/(7+1) + (7*(7-1))/(2*(7+1))'
p2229
V21/8 + 7/4
p2230
(lp2231
(g32
F4.375
g2229
g2230
tp2232
ag578
(lp2233
V2016-11-01 04:01:42
p2234
tp2235
a(S'2*7/(7+1) + (7*(7-1))/(2*(7+1))'
p2236
V35/8
p2237
(lp2238
(g32
F4.375
g2236
g2237
tp2239
ag586
(lp2240
V2016-11-01 04:03:21
p2241
tp2242
a(S'2*7/(7+1) + (7*(7-1))/(2*(7+1))'
p2243
V35/8
p2244
(lp2245
(g32
F4.375
g2243
g2244
tp2246
ag594
(lp2247
V2016-11-02 03:47:59
p2248
tp2249
a(S'2*6/(6+1) + (6*(6-1))/(2*(6+1))'
p2250
V27/7
p2251
(lp2252
(g32
F3.8571428571428568
g2250
g2251
tp2253
ag602
(lp2254
V2016-11-02 03:50:15
p2255
tp2256
a(S'2*9/(9+1) + (9*(9-1))/(2*(9+1))'
p2257
V27/5
p2258
(lp2259
(g32
F5.4
g2257
g2258
tp2260
ag610
(lp2261
V2016-11-02 03:51:40
p2262
tp2263
a(S'2*9/(9+1) + (9*(9-1))/(2*(9+1))'
p2264
V27/5
p2265
(lp2266
(g32
F5.4
g2264
g2265
tp2267
ag618
(lp2268
V2016-11-02 03:53:15
p2269
tp2270
a(S'2*9/(9+1) + (9*(9-1))/(2*(9+1))'
p2271
V27/5
p2272
(lp2273
(g32
F5.4
g2271
g2272
tp2274
ag626
(lp2275
V2016-11-02 03:56:32
p2276
tp2277
a(S'2*8/(8+1) + (8*(8-1))/(2*(8+1))'
p2278
V2*8/(8+1) + (8*(8-1))/(2*(8+1))
p2279
(lp2280
(g32
F4.888888888888889
g2278
g2279
tp2281
ag634
(lp2282
V2016-10-31 01:08:23
p2283
tp2284
a(S'2*9/(9+1) + (9*(9-1))/(2*(9+1))'
p2285
V2*9/(9+1)+(9*(9-1))/(2*(9+1))
p2286
(lp2287
(g32
F5.4
g2285
g2286
tp2288
ag642
(lp2289
V2016-10-30 20:22:22
p2290
tp2291
a(S'2*9/(9+1) + (9*(9-1))/(2*(9+1))'
p2292
V2*9/(9+1)+(9*(9-1))/(2*(9+1))
p2293
(lp2294
(g32
F5.4
g2292
g2293
tp2295
ag650
(lp2296
V2016-10-30 20:24:31
p2297
tp2298
a(S'2*8/(8+1) + (8*(8-1))/(2*(8+1))'
p2299
V1/9+2/9+3/9+4/9+5/9+6/9+7/9+16/9
p2300
(lp2301
(g32
F4.888888888888889
g2299
g2300
tp2302
ag658
(lp2303
V2016-11-02 01:43:35
p2304
tp2305
a(S'2*8/(8+1) + (8*(8-1))/(2*(8+1))'
p2306
V(1/9+2/9+3/9+4/9+5/9+6/9+7/9+16/9)
p2307
(lp2308
(g32
F4.888888888888889
g2306
V1/9+2/9+3/9+4/9+5/9+6/9+7/9+16/9
p2309
tp2310
ag1280
(lp2311
V2016-11-02 01:45:09
p2312
tp2313
a(S'2*7/(7+1) + (7*(7-1))/(2*(7+1))'
p2314
V(1/8)+(2/8)+(3/8)+(4/8)+(5/8)+(6/8)+(14/8)
p2315
(lp2316
(g32
F4.375
g2314
g2315
tp2317
ag666
(lp2318
V2016-11-02 01:47:43
p2319
tp2320
a(S'2*7/(7+1) + (7*(7-1))/(2*(7+1))'
p2321
V(2*7/(7+1) + (7*(7-1))/(2*(7+1)))
p2322
(lp2323
(g32
F4.375
g2321
V2*7/(7+1) + (7*(7-1))/(2*(7+1))
p2324
tp2325
ag674
(lp2326
V2016-10-30 23:35:59
p2327
tp2328
a(S'2*8/(8+1) + (8*(8-1))/(2*(8+1))'
p2329
V1/9*(1+2+3+4+5+6+7)+2/9*8
p2330
(lp2331
(g32
F4.888888888888889
g2329
g2330
tp2332
ag682
(lp2333
V2016-11-01 16:12:38
p2334
tp2335
a(S'2*6/(6+1) + (6*(6-1))/(2*(6+1))'
p2336
V1/7+ 2/7 + 3/7 + 4/7 + 5/7 + 12/7
p2337
(lp2338
(g32
F3.8571428571428568
g2336
g2337
tp2339
ag698
(lp2340
V2016-11-02 01:34:02
p2341
tp2342
a(S'2*7/(7+1) + (7*(7-1))/(2*(7+1))'
p2343
V1/8 + 2/8 + 3/8 + 4/8 + 5/8 + 6/8 + 14/8
p2344
(lp2345
(g32
F4.375
g2343
g2344
tp2346
ag706
(lp2347
V2016-11-02 01:42:57
p2348
tp2349
a(S'2*9/(9+1) + (9*(9-1))/(2*(9+1))'
p2350
V27/5
p2351
(lp2352
(g32
F5.4
g2350
g2351
tp2353
ag714
(lp2354
V2016-10-30 09:16:18
p2355
tp2356
a(S'2*8/(8+1) + (8*(8-1))/(2*(8+1))'
p2357
V44/9
p2358
(lp2359
(g32
F4.888888888888889
g2357
g2358
tp2360
ag722
(lp2361
V2016-10-30 09:21:15
p2362
tp2363
a(S'2*8/(8+1) + (8*(8-1))/(2*(8+1))'
p2364
V44/9
p2365
(lp2366
(g32
F4.888888888888889
g2364
g2365
tp2367
ag730
(lp2368
V2016-10-30 09:22:54
p2369
tp2370
a(S'2*8/(8+1) + (8*(8-1))/(2*(8+1))'
p2371
V44/9
p2372
(lp2373
(g32
F4.888888888888889
g2371
g2372
tp2374
ag738
(lp2375
V2016-10-30 09:24:13
p2376
tp2377
a(S'2*8/(8+1) + (8*(8-1))/(2*(8+1))'
p2378
V1/9+2/9+3/9+4/9+5/9+6/9+7/9+16/9
p2379
(lp2380
(g32
F4.888888888888889
g2378
g2379
tp2381
ag746
(lp2382
V2016-11-01 20:26:41
p2383
tp2384
a(S'2*7/(7+1) + (7*(7-1))/(2*(7+1))'
p2385
V35/8
p2386
(lp2387
(g32
F4.375
g2385
g2386
tp2388
ag762
(lp2389
V2016-10-29 05:26:43
p2390
tp2391
a(S'2*8/(8+1) + (8*(8-1))/(2*(8+1))'
p2392
V(1/9)*(1+2+3+4+5+6+7)+(8*(2/9))
p2393
(lp2394
(g32
F4.888888888888889
g2392
g2393
tp2395
ag770
(lp2396
V2016-10-29 19:54:26
p2397
tp2398
a(S'2*6/(6+1) + (6*(6-1))/(2*(6+1))'
p2399
V(1/7)*(1+2+3+4+5)+(6)*(2/7)
p2400
(lp2401
(g32
F3.8571428571428568
g2399
g2400
tp2402
ag778
(lp2403
V2016-10-29 19:59:19
p2404
tp2405
a(S'2*7/(7+1) + (7*(7-1))/(2*(7+1))'
p2406
V(1/8)*(1+2+3+4+5+6+14)
p2407
(lp2408
(g32
F4.375
g2406
g2407
tp2409
ag786
(lp2410
V2016-10-29 20:03:52
p2411
tp2412
a(S'2*7/(7+1) + (7*(7-1))/(2*(7+1))'
p2413
V((1+2+3+4+5+6)/8)+7*(2/8)
p2414
(lp2415
(g32
F4.375
g2413
g2414
tp2416
ag794
(lp2417
V2016-10-30 19:31:36
p2418
tp2419
a(S'2*8/(8+1) + (8*(8-1))/(2*(8+1))'
p2420
V(1/9)+(2/9)+(3/9)+(4/9)+(5/9)+(6/9)+(7/9)+(16/9)
p2421
(lp2422
(g32
F4.888888888888889
g2420
g2421
tp2423
ag818
(lp2424
V2016-11-01 21:51:09
p2425
tp2426
a(S'2*8/(8+1) + (8*(8-1))/(2*(8+1))'
p2427
V(1/9)+(2/9)+(3/9)+(4/9)+(5/9)+(6/9)+(7/9)+(16/9)
p2428
(lp2429
(g32
F4.888888888888889
g2427
g2428
tp2430
ag826
(lp2431
V2016-11-01 21:53:37
p2432
tp2433
a(S'2*7/(7+1) + (7*(7-1))/(2*(7+1))'
p2434
V2*7/8+(7*6/(2*8))
p2435
(lp2436
(g32
F4.375
g2434
g2435
tp2437
ag834
(lp2438
V2016-10-30 23:41:40
p2439
tp2440
a(S'2*9/(9+1) + (9*(9-1))/(2*(9+1))'
p2441
V2*9/10+(9*8/(2*10))
p2442
(lp2443
(g32
F5.4
g2441
g2442
tp2444
ag842
(lp2445
V2016-10-30 23:43:25
p2446
tp2447
a(S'2*9/(9+1) + (9*(9-1))/(2*(9+1))'
p2448
V1/10+2/10+3/10+4/10+5/10+6/10+7/10+8/10+18/10
p2449
(lp2450
(g32
F5.4
g2448
g2449
tp2451
ag850
(lp2452
V2016-11-02 19:44:07
p2453
tp2454
a(S'2*7/(7+1) + (7*(7-1))/(2*(7+1))'
p2455
V1/8+2/8+3/8+4/8+5/8+6/8+14/8
p2456
(lp2457
(g32
F4.375
g2455
g2456
tp2458
ag858
(lp2459
V2016-11-02 19:46:01
p2460
tp2461
a(S'2*6/(6+1) + (6*(6-1))/(2*(6+1))'
p2462
V(1/7)+(2/7)+(3/7)+(4/7)+(5/7)+(6/7)+(6/7)
p2463
(lp2464
(g32
F3.8571428571428568
g2462
g2463
tp2465
ag882
(lp2466
V2016-11-02 05:01:43
p2467
tp2468
a(S'2*9/(9+1) + (9*(9-1))/(2*(9+1))'
p2469
V0.1*(1+2+3+4+5+6+7+8)+0.2*9
p2470
(lp2471
(g32
F5.4
g2469
g2470
tp2472
ag890
(lp2473
V2016-11-01 22:38:12
p2474
tp2475
a(S'2*8/(8+1) + (8*(8-1))/(2*(8+1))'
p2476
V((1+2+3+4+5+6+7)/9)+8*(2/9)
p2477
(lp2478
(g32
F4.888888888888889
g2476
g2477
tp2479
ag898
(lp2480
V2016-11-01 22:43:07
p2481
tp2482
a(S'2*7/(7+1) + (7*(7-1))/(2*(7+1))'
p2483
V(1*1/8) + (2/8) + 3/8 + 4/8 + 5/8 + 6/8 + (7 * 2/8)
p2484
(lp2485
(g32
F4.375
g2483
g2484
tp2486
ag906
(lp2487
V2016-11-01 17:57:29
p2488
tp2489
a(S'2*6/(6+1) + (6*(6-1))/(2*(6+1))'
p2490
V(1*1/7) + (2/7) + 3/7 + 4/7 + 5/7 + (6 * 2/7)
p2491
(lp2492
(g32
F3.8571428571428568
g2490
g2491
tp2493
ag914
(lp2494
V2016-11-01 18:03:00
p2495
tp2496
a(S'2*7/(7+1) + (7*(7-1))/(2*(7+1))'
p2497
V1/8+1/4+3/8+1/2+5/8+3/4+7/4
p2498
(lp2499
(g32
F4.375
g2497
g2498
tp2500
ag922
(lp2501
V2016-11-02 01:33:24
p2502
tp2503
a(S'2*9/(9+1) + (9*(9-1))/(2*(9+1))'
p2504
V1/10 + 2/10 + 3/10 + 4/10 + 5/10 + 6/10 + 7/10 + 8/10 + 9/5
p2505
(lp2506
(g32
F5.4
g2504
g2505
tp2507
ag930
(lp2508
V2016-10-31 01:05:49
p2509
tp2510
a(S'2*7/(7+1) + (7*(7-1))/(2*(7+1))'
p2511
V1/8 + 2/8 + 3/8 + 4/8 + 5/8 + 6/8 +7/4
p2512
(lp2513
(g32
F4.375
g2511
g2512
tp2514
ag938
(lp2515
V2016-10-31 01:15:03
p2516
tp2517
a(S'2*8/(8+1) + (8*(8-1))/(2*(8+1))'
p2518
V(1+7)*(7/2)*(1/9)+8*(2/9)
p2519
(lp2520
(g32
F4.888888888888889
g2518
g2519
tp2521
ag946
(lp2522
V2016-10-30 23:32:09
p2523
tp2524
a(S'2*8/(8+1) + (8*(8-1))/(2*(8+1))'
p2525
V(1+7)*(7/2)*(1/9)+8*(2/9)
p2526
(lp2527
(g32
F4.888888888888889
g2525
g2526
tp2528
ag954
(lp2529
V2016-10-30 23:34:13
p2530
tp2531
a(S'2*7/(7+1) + (7*(7-1))/(2*(7+1))'
p2532
V(14 + 6 + 5 + 4 + 3 + 2 + 1)/8
p2533
(lp2534
(g32
F4.375
g2532
g2533
tp2535
ag970
(lp2536
V2016-11-02 02:10:33
p2537
tp2538
a(S'2*7/(7+1) + (7*(7-1))/(2*(7+1))'
p2539
V((14 + 6 + 5 + 4 + 3 + 2 + 1)/8)
p2540
(lp2541
(g32
F4.375
g2539
V(14 + 6 + 5 + 4 + 3 + 2 + 1)/8
p2542
tp2543
ag978
(lp2544
V2016-11-02 02:11:57
p2545
tp2546
a(S'2*9/(9+1) + (9*(9-1))/(2*(9+1))'
p2547
V(18 + 8 + 7 + 6 + 5 + 4 + 3 + 2 + 1)/10
p2548
(lp2549
(g32
F5.4
g2547
g2548
tp2550
ag986
(lp2551
V2016-11-02 02:13:29
p2552
tp2553
a(S'2*6/(6+1) + (6*(6-1))/(2*(6+1))'
p2554
V2*6/(6+1)+(6*(6-1))/(2*(6+1))
p2555
(lp2556
(g32
F3.8571428571428568
g2554
g2555
tp2557
ag1010
(lp2558
V2016-10-29 22:05:02
p2559
tp2560
a(S'2*9/(9+1) + (9*(9-1))/(2*(9+1))'
p2561
V2*9/(9+1)+(9*(9-1))/(2*(9+1))
p2562
(lp2563
(g32
F5.4
g2561
g2562
tp2564
ag1018
(lp2565
V2016-10-29 22:08:23
p2566
tp2567
a(S'2*9/(9+1) + (9*(9-1))/(2*(9+1))'
p2568
V9*2/10+36/10
p2569
(lp2570
(g32
F5.4
g2568
g2569
tp2571
ag1026
(lp2572
V2016-10-30 00:38:35
p2573
tp2574
a(S'2*7/(7+1) + (7*(7-1))/(2*(7+1))'
p2575
V35/8
p2576
(lp2577
(g32
F4.375
g2575
g2576
tp2578
ag1050
(lp2579
V2016-10-30 19:19:53
p2580
tp2581
a(S'2*7/(7+1) + (7*(7-1))/(2*(7+1))'
p2582
V35/8
p2583
(lp2584
(g32
F4.375
g2582
g2583
tp2585
ag1058
(lp2586
V2016-10-30 19:22:40
p2587
tp2588
a(S'2*6/(6+1) + (6*(6-1))/(2*(6+1))'
p2589
V1/7 + 2/7 + 3/7 + 4/7 + 5/7 + 12/7
p2590
(lp2591
(g32
F3.8571428571428568
g2589
g2590
tp2592
ag1074
(lp2593
V2016-11-02 03:05:44
p2594
tp2595
a(S'2*8/(8+1) + (8*(8-1))/(2*(8+1))'
p2596
V1/9 + 2/9 + 3/9 + 4/9 + 5/9 + 6/9 + 7/9 + 16/9
p2597
(lp2598
(g32
F4.888888888888889
g2596
g2597
tp2599
ag1090
(lp2600
V2016-11-02 03:12:19
p2601
tp2602
a(S'2*7/(7+1) + (7*(7-1))/(2*(7+1))'
p2603
V35/8
p2604
(lp2605
(g32
F4.375
g2603
g2604
tp2606
ag1122
(lp2607
V2016-10-30 05:03:45
p2608
tp2609
asS"['R.1.0.1', 'R.1.1.0']"
p2610
(lp2611
(S'2*7/(7+1) + (7*(7-1))/(2*(7+1))'
p2612
V1/7*(1+2+3+4+5+6+2*(7))
p2613
(lp2614
(S'R.1.0.1'
p2615
F6.0
S'7-1'
p2616
V6
p2617
tp2618
a(S'R.1.1.0'
p2619
F2.0
g1198
g1199
tp2620
ag354
(lp2621
V2016-11-02 18:21:32
p2622
tp2623
assS'4'
p2624
g2
(g3
tp2625
Rp2626
S"['R.0.0', 'R.0.1.1.1.1.0', 'R.1']"
p2627
(lp2628
(S'(3*7*(7+1)/(2*7) + 2*(2*7/(7+1) + (7*(7-1))/(2*(7+1))))/0.2'
p2629
V(3*(1/7*(1+2+3+4+5+6+7))+4*(1/7*(1+2+3+4+5+6+2*(7))))/0.2
p2630
(lp2631
(S'R.0.0'
p2632
F12.0
S'3*7*(7+1)/(2*7)'
p2633
V3*(1/7*(1+2+3+4+5+6+7))
p2634
tp2635
a(S'R.0.1.1.1.1.0'
p2636
F2.0
g1198
g1199
tp2637
a(S'R.1'
p2638
F0.2
S'0.2'
p2639
V0.2
p2640
tp2641
ag354
(lp2642
V2016-11-02 18:21:32
p2643
tp2644
asg19
(lp2645
(S'(3*6*(6+1)/(2*6) + 3*(2*6/(6+1) + (6*(6-1))/(2*(6+1))))/0.5'
p2646
V22
p2647
tp2648
a(S'(3*9*(9+1)/(2*9) + 4*(2*9/(9+1) + (9*(9-1))/(2*(9+1))))/0.4'
p2649
V91
p2650
tp2651
a(S'(4*7*(7+1)/(2*7) + 2*(2*7/(7+1) + (7*(7-1))/(2*(7+1))))/0.4'
p2652
V90
p2653
tp2654
a(S'(2*8*(8+1)/(2*8) + 3*(2*8/(8+1) + (8*(8-1))/(2*(8+1))))/0.5'
p2655
V46
p2656
tp2657
a(S'(2*6*(6+1)/(2*6) + 4*(2*6/(6+1) + (6*(6-1))/(2*(6+1))))/0.5'
p2658
V50
p2659
tp2660
a(S'(4*7*(7+1)/(2*7) + 4*(2*7/(7+1) + (7*(7-1))/(2*(7+1))))/0.2'
p2661
V180
p2662
tp2663
a(S'(3*7*(7+1)/(2*7) + 4*(2*7/(7+1) + (7*(7-1))/(2*(7+1))))/0.3'
p2664
V10
p2665
tp2666
asS"['R.0.0', 'R.0.1.0', 'R.1']"
p2667
(lp2668
(S'(3*9*(9+1)/(2*9) + 4*(2*9/(9+1) + (9*(9-1))/(2*(9+1))))/0.4'
p2669
V((3*1/9*(1+2+3+4+5+6+7+8+9))+4*(1/9*(1+2+3+4+5+6+7+8)+2*9))/0.4
p2670
(lp2671
(S'R.0.0'
p2672
F15.0
S'3*9*(9+1)/(2*9)'
p2673
V3*1/9*(1+2+3+4+5+6+7+8+9)
p2674
tp2675
a(S'R.0.1.0'
p2676
F4.0
g1155
g1156
tp2677
a(S'R.1'
p2678
F0.4
S'0.4'
p2679
V0.4
p2680
tp2681
ag346
(lp2682
V2016-11-02 18:17:37
p2683
tp2684
asS"['R.0']"
p2685
(lp2686
(S'(2*7*(7+1)/(2*7) + 2*(2*7/(7+1) + (7*(7-1))/(2*(7+1))))/0.3'
p2687
V(2*(1/7*(1+2+3+4+5+6+7))+2*(1/8*(1+2+3+4+5+6+2*(7))))/0.4
p2688
(lp2689
(S'R.0'
p2690
F16.75
S'2*7*(7+1)/(2*7) + 2*(2*7/(7+1) + (7*(7-1))/(2*(7+1)))'
p2691
V2*(1/7*(1+2+3+4+5+6+7))+2*(1/8*(1+2+3+4+5+6+2*(7)))
p2692
tp2693
ag370
(lp2694
V2016-11-02 18:26:06
p2695
tp2696
a(S'(2*9*(9+1)/(2*9) + 3*(2*9/(9+1) + (9*(9-1))/(2*(9+1))))/0.5'
p2697
V((2*5)+(3*5.4))/10
p2698
(lp2699
(S'R.0'
p2700
F26.200000000000003
S'2*9*(9+1)/(2*9) + 3*(2*9/(9+1) + (9*(9-1))/(2*(9+1)))'
p2701
V(2*5)+(3*5.4)
p2702
tp2703
ag514
(lp2704
V2016-11-02 19:34:01
p2705
tp2706
asS"['R.1']"
p2707
(lp2708
(S'(4*6*(6+1)/(2*6) + 2*(2*6/(6+1) + (6*(6-1))/(2*(6+1))))/0.2'
p2709
V(225/30)/0.2
p2710
(lp2711
(S'R.1'
p2712
F0.2
S'0.2'
p2713
V0.2
p2714
tp2715
ag122
(lp2716
V2016-11-01 22:04:09
p2717
tp2718
a(S'(3*7*(7+1)/(2*7) + 3*(2*7/(7+1) + (7*(7-1))/(2*(7+1))))/0.1'
p2719
V(1/7 + 2/7 + 3/7 + 4/7 + 5/7 + 6/7 + 7/7 + 1/8 + 2/8 + 3/8 + 4/8 + 5/8 + 6/8 + 7/4)/0.1
p2720
(lp2721
(S'R.1'
p2722
F0.1
S'0.1'
p2723
V0.1
p2724
tp2725
ag530
(lp2726
V2016-11-01 23:01:28
p2727
tp2728
a(S'(3*7*(7+1)/(2*7) + 2*(2*7/(7+1) + (7*(7-1))/(2*(7+1))))/0.4'
p2729
V29.5/0.4
p2730
(lp2731
(S'R.1'
p2732
F0.4
S'0.4'
p2733
V0.4
p2734
tp2735
ag578
(lp2736
V2016-11-01 04:01:42
p2737
tp2738
a(S'(3*8*(8+1)/(2*8) + 2*(2*8/(8+1) + (8*(8-1))/(2*(8+1))))/0.4'
p2739
V(9+44/3)/0.4
p2740
(lp2741
(S'R.1'
p2742
F0.4
S'0.4'
p2743
V0.4
p2744
tp2745
ag730
(lp2746
V2016-10-30 09:22:54
p2747
tp2748
a(S'(4*6*(6+1)/(2*6) + 3*(2*6/(6+1) + (6*(6-1))/(2*(6+1))))/0.3'
p2749
V17/0.3
p2750
(lp2751
(S'R.1'
p2752
F0.3
S'0.3'
p2753
V0.3
p2754
tp2755
ag810
(lp2756
V2016-11-01 21:46:24
p2757
tp2758
a(S'(3*9*(9+1)/(2*9) + 4*(2*9/(9+1) + (9*(9-1))/(2*(9+1))))/0.1'
p2759
V5*7/0.1
p2760
(lp2761
(S'R.1'
p2762
F0.1
S'0.1'
p2763
V0.1
p2764
tp2765
ag890
(lp2766
V2016-11-01 22:38:12
p2767
tp2768
a(S'(3*8*(8+1)/(2*8) + 3*(2*8/(8+1) + (8*(8-1))/(2*(8+1))))/0.2'
p2769
V(3*5+4*5.4)/0.2
p2770
(lp2771
(S'R.1'
p2772
F0.2
S'0.2'
p2773
V0.2
p2774
tp2775
aS'zow006'
p2776
(lp2777
V2016-11-01 22:40:16
p2778
tp2779
a(S'(2*8*(8+1)/(2*8) + 4*(2*8/(8+1) + (8*(8-1))/(2*(8+1))))/0.3'
p2780
V(4.5*2+(1+7)*(7/2)*(1/9)+8*(2/9)*4)/0.3
p2781
(lp2782
(S'R.1'
p2783
F0.3
S'0.3'
p2784
V0.3
p2785
tp2786
ag946
(lp2787
V2016-10-30 23:32:09
p2788
tp2789
a(S'(4*9*(9+1)/(2*9) + 4*(2*9/(9+1) + (9*(9-1))/(2*(9+1))))/0.5'
p2790
V(4.5*2+((1+7)*(7/2)*(1/9)+8*(2/9))*4)/0.5
p2791
(lp2792
(S'R.1'
p2793
F0.5
S'0.5'
p2794
V0.5
p2795
tp2796
ag1872
(lp2797
V2016-10-30 23:32:56
p2798
tp2799
a(S'(2*6*(6+1)/(2*6) + 3*(2*6/(6+1) + (6*(6-1))/(2*(6+1))))/0.5'
p2800
V(3 * (1/7 + 2/7 + 3/7 + 4/7 + 5/7 + 12/7) + 4 * 3.5)/.5
p2801
(lp2802
(S'R.1'
p2803
F0.5
S'0.5'
p2804
V.5
p2805
tp2806
ag1074
(lp2807
V2016-11-02 03:05:44
p2808
tp2809
a(S'(4*9*(9+1)/(2*9) + 4*(2*9/(9+1) + (9*(9-1))/(2*(9+1))))/0.5'
p2810
V(4 * (1/9 + 2/9 + 3/9 + 4/9 + 5/9 + 6/9 + 7/9 + 8/9 + 1) + 4 * ( 1/11 + 2/11 + 3/11 + 4/11 + 5/11 + 6/11 + 7/11 + 8/11 + 18/11))/.5
p2811
(lp2812
(S'R.1'
p2813
F0.5
S'0.5'
p2814
V.5
p2815
tp2816
ag1082
(lp2817
V2016-11-02 03:09:59
p2818
tp2819
asS"['R.0.0', 'R.0.1.0', 'R.0.1.1.0', 'R.0.1.1.1.0.1', 'R.1']"
p2820
(lp2821
(S'(3*6*(6+1)/(2*6) + 4*(2*6/(6+1) + (6*(6-1))/(2*(6+1))))/0.1'
p2822
V(3 * 3.5 + 4 * (6 * 2/7 + 15 * 5/7)) / 0.1
p2823
(lp2824
(S'R.0.0'
p2825
F10.5
S'3*6*(6+1)/(2*6)'
p2826
V3 * 3.5
p2827
tp2828
a(S'R.0.1.0'
p2829
F4.0
g1155
g1156
tp2830
a(S'R.0.1.1.0'
p2831
F1.7142857142857142
S'2*6/(6+1)'
p2832
V6 * 2/7
p2833
tp2834
a(S'R.0.1.1.1.0.1'
p2835
F5.0
S'6-1'
p2836
g1221
tp2837
a(S'R.1'
p2838
F0.1
S'0.1'
p2839
V0.1
p2840
tp2841
ag258
(lp2842
V2016-11-01 03:15:17
p2843
tp2844
asS"['R.0.0', 'R.1']"
p2845
(lp2846
(S'(3*8*(8+1)/(2*8) + 2*(2*8/(8+1) + (8*(8-1))/(2*(8+1))))/0.1'
p2847
V(3*((1*1/8)+(2*1/8)+(3*1/8)+(4*1/8)+(5*1/8)+(6*1/8)+(7*1/8)+(8*1/8))+((1*1/8)+(2*1/8)+(3*1/8)+(4*1/8)+(5*1/8)+(6*1/8)+(7*1/8)+(8*1/4))*2)/.1
p2848
(lp2849
(S'R.0.0'
p2850
F13.5
S'3*8*(8+1)/(2*8)'
p2851
V3*((1*1/8)+(2*1/8)+(3*1/8)+(4*1/8)+(5*1/8)+(6*1/8)+(7*1/8)+(8*1/8))
p2852
tp2853
a(S'R.1'
p2854
F0.1
S'0.1'
p2855
V.1
p2856
tp2857
ag178
(lp2858
V2016-11-02 06:33:05
p2859
tp2860
a(S'(3*6*(6+1)/(2*6) + 4*(2*6/(6+1) + (6*(6-1))/(2*(6+1))))/0.2'
p2861
V((3.5 * 3) + (3.857 * 4)) / 0.2
p2862
(lp2863
(S'R.0.0'
p2864
F10.5
S'3*6*(6+1)/(2*6)'
p2865
V3.5 * 3
p2866
tp2867
a(S'R.1'
p2868
F0.2
S'0.2'
p2869
V0.2
p2870
tp2871
ag242
(lp2872
V2016-11-02 07:43:05
p2873
tp2874
asS"['R.0.0', 'R.0.1.1']"
p2875
(lp2876
(S'(3*7*(7+1)/(2*7) + 2*(2*7/(7+1) + (7*(7-1))/(2*(7+1))))/0.2'
p2877
V((3*4) + (3 * (((14 + 6 + 5 + 4 + 3 + 2 + 1)/8)))) / .3
p2878
(lp2879
(S'R.0.0'
p2880
F12.0
S'3*7*(7+1)/(2*7)'
p2881
V3*4
p2882
tp2883
a(S'R.0.1.1'
p2884
F4.375
S'2*7/(7+1) + (7*(7-1))/(2*(7+1))'
p2885
V(14 + 6 + 5 + 4 + 3 + 2 + 1)/8
p2886
tp2887
ag978
(lp2888
V2016-11-02 02:11:57
p2889
tp2890
asS"['R.0.0.0', 'R.0.1', 'R.1']"
p2891
(lp2892
(S'(3*6*(6+1)/(2*6) + 2*(2*6/(6+1) + (6*(6-1))/(2*(6+1))))/0.2'
p2893
V(3*6*(6+1)/(2+6)+2*(2*6/(6+1)+(6*(6-1))/(2*(6+1))))/0.2
p2894
(lp2895
(S'R.0.0.0'
p2896
F126.0
S'3*6*(6+1)'
p2897
V3*6*(6+1)
p2898
tp2899
a(S'R.0.1'
p2900
F7.7142857142857135
S'2*(2*6/(6+1) + (6*(6-1))/(2*(6+1)))'
p2901
V2*(2*6/(6+1)+(6*(6-1))/(2*(6+1)))
p2902
tp2903
a(S'R.1'
p2904
F0.2
S'0.2'
p2905
V0.2
p2906
tp2907
ag82
(lp2908
V2016-10-29 20:01:48
p2909
tp2910
asg1126
(lp2911
(S'(2*9*(9+1)/(2*9) + 3*(2*9/(9+1) + (9*(9-1))/(2*(9+1))))/0.1'
p2912
V(93.6/9)/0.1
p2913
tp2914
a(S'(2*9*(9+1)/(2*9) + 3*(2*9/(9+1) + (9*(9-1))/(2*(9+1))))/0.1'
p2915
V(3*((1*1/9)+(2*1/9)+(3*1/9)+(4*1/9)+(5*1/9)+(6*1/9)+(7*1/9)+(8*1/9)+(9*1/9))+((1*1/10)+(2*1/10)+(3*1/10)+(4*1/10)+(5*1/10)+(6*1/10)+(7*1/10)+(8*1/10)+(9*2/10))*2)/.1
p2916
tp2917
a(S'(4*9*(9+1)/(2*9) + 3*(2*9/(9+1) + (9*(9-1))/(2*(9+1))))/0.2'
p2918
V362/5
p2919
tp2920
asS"['R.0.1.1', 'R.1']"
p2921
(lp2922
(S'(4*8*(8+1)/(2*8) + 2*(2*8/(8+1) + (8*(8-1))/(2*(8+1))))/0.2'
p2923
V(2*(1/8+2/8+3/8+4/8+5/8+6/8+7/8+1)+3*(1/9+2/9+3/9+4/9+5/9+6/9+7/9+16/9))/.2
p2924
(lp2925
(S'R.0.1.1'
p2926
F4.888888888888889
S'2*8/(8+1) + (8*(8-1))/(2*(8+1))'
p2927
V1/9+2/9+3/9+4/9+5/9+6/9+7/9+16/9
p2928
tp2929
a(S'R.1'
p2930
F0.2
S'0.2'
p2931
V.2
p2932
tp2933
ag1280
(lp2934
V2016-11-02 01:45:09
p2935
tp2936
asS"['R.0.1', 'R.1']"
p2937
(lp2938
(S'(3*8*(8+1)/(2*8) + 4*(2*8/(8+1) + (8*(8-1))/(2*(8+1))))/0.3'
p2939
V(12+(176/9))/.3
p2940
(lp2941
(S'R.0.1'
p2942
F19.555555555555557
S'4*(2*8/(8+1) + (8*(8-1))/(2*(8+1)))'
p2943
V176/9
p2944
tp2945
a(S'R.1'
p2946
F0.3
S'0.3'
p2947
V.3
p2948
tp2949
ag1245
(lp2950
V2016-11-01 18:51:03
p2951
tp2952
asS"['R.0.1.0', 'R.1']"
p2953
(lp2954
(S'(3*6*(6+1)/(2*6) + 4*(2*6/(6+1) + (6*(6-1))/(2*(6+1))))/0.1'
p2955
V(3*(1/6+2/6+3/6+5/6+6/6)+4*(1/7+2/7+3/7+5/7+12/7))/0.1
p2956
(lp2957
(S'R.0.1.0'
p2958
F4.0
g1155
g1156
tp2959
a(S'R.1'
p2960
F0.1
S'0.1'
p2961
V0.1
p2962
tp2963
ag1158
(lp2964
V2016-11-02 19:58:28
p2965
tp2966
a(S'(2*8*(8+1)/(2*8) + 4*(2*8/(8+1) + (8*(8-1))/(2*(8+1))))/0.1'
p2967
V((2*4.5)+(4*4.89))/0.1
p2968
(lp2969
(S'R.0.1.0'
p2970
F4.0
g1155
g1156
tp2971
a(S'R.1'
p2972
F0.1
S'0.1'
p2973
V0.1
p2974
tp2975
ag482
(lp2976
V2016-10-31 18:29:07
p2977
tp2978
a(S'(4*6*(6+1)/(2*6) + 3*(2*6/(6+1) + (6*(6-1))/(2*(6+1))))/0.3'
p2979
V(4 * (3.5) + 3 * (2/15 + 4/15 + 6/15 + 8/15 + 10/15 + 2)) / .3
p2980
(lp2981
(S'R.0.1.0'
p2982
F3.0
g1182
g1183
tp2983
a(S'R.1'
p2984
F0.3
S'0.3'
p2985
V.3
p2986
tp2987
ag1066
(lp2988
V2016-11-02 03:00:14
p2989
tp2990
asS"['R']"
p2991
(lp2992
(S'(4*8*(8+1)/(2*8) + 2*(2*8/(8+1) + (8*(8-1))/(2*(8+1))))/0.2'
p2993
V(4 * 8 * (9)/(16) + 2 * (16/(9) + (8 * (7))/(2*(9))))/.2
p2994
(lp2995
(g32
F138.88888888888889
g2993
g2994
tp2996
ag34
(lp2997
V2016-10-29 23:02:01
p2998
tp2999
a(S'(2*6*(6+1)/(2*6) + 2*(2*6/(6+1) + (6*(6-1))/(2*(6+1))))/0.5'
p3000
V4*(3.5) + 4*((1 + 2 + 3 + 4 + 5)*1/7 + 6*(2/7))
p3001
(lp3002
(g32
F29.428571428571427
g3000
g3001
tp3003
ag42
(lp3004
V2016-11-02 17:40:28
p3005
tp3006
a(S'(3*7*(7+1)/(2*7) + 4*(2*7/(7+1) + (7*(7-1))/(2*(7+1))))/0.4'
p3007
V73.75
p3008
(lp3009
(g32
F73.75
g3007
g3008
tp3010
ag58
(lp3011
V2016-11-02 06:16:05
p3012
tp3013
a(S'(3*8*(8+1)/(2*8) + 2*(2*8/(8+1) + (8*(8-1))/(2*(8+1))))/0.4'
p3014
V((3*4.5)+(2*((1+2+3+4+5+6+7+8+8)/9)))/.4
p3015
(lp3016
(g32
F58.19444444444444
g3014
g3015
tp3017
ag74
(lp3018
V2016-11-02 20:43:53
p3019
tp3020
a(S'(3*9*(9+1)/(2*9) + 3*(2*9/(9+1) + (9*(9-1))/(2*(9+1))))/0.1'
p3021
V(3*9*(9+1)/(2*9)+3*(2*9/(9+1)+(9*(9-1))/(2*(9+1))))/0.1
p3022
(lp3023
(g32
F312.0
g3021
g3022
tp3024
ag90
(lp3025
V2016-10-29 20:03:40
p3026
tp3027
a(S'(2*8*(8+1)/(2*8) + 4*(2*8/(8+1) + (8*(8-1))/(2*(8+1))))/0.4'
p3028
V(2*8*(8+1)/(2*8)+4*(2*8/(8+1)+(8*(8-1))/(2*(8+1))))/0.4
p3029
(lp3030
(g32
F71.38888888888889
g3028
g3029
tp3031
ag1385
(lp3032
V2016-10-29 20:05:19
p3033
tp3034
a(S'(3*6*(6+1)/(2*6) + 3*(2*6/(6+1) + (6*(6-1))/(2*(6+1))))/0.2'
p3035
V(3*6*(6+1)/(2*6)+3*(2*6/(6+1)+(6*(6-1))/(2*(6+1))))/0.2
p3036
(lp3037
(g32
F110.35714285714285
g3035
g3036
tp3038
ag98
(lp3039
V2016-10-29 20:12:58
p3040
tp3041
a(S'(3*7*(7+1)/(2*7) + 3*(2*7/(7+1) + (7*(7-1))/(2*(7+1))))/0.2'
p3042
V(3*7*(7+1)/(2*7)+3*(2*7/(7+1)+(7*(7-1))/(2*(7+1))))/0.2
p3043
(lp3044
(g32
F125.625
g3042
g3043
tp3045
ag114
(lp3046
V2016-10-29 20:16:38
p3047
tp3048
a(S'(2*9*(9+1)/(2*9) + 4*(2*9/(9+1) + (9*(9-1))/(2*(9+1))))/0.3'
p3049
V((45/9)*2+(48.6/9)*4)/0.3
p3050
(lp3051
(g32
F105.33333333333334
g3049
g3050
tp3052
ag138
(lp3053
V2016-11-01 22:09:54
p3054
tp3055
a(S'(2*7*(7+1)/(2*7) + 2*(2*7/(7+1) + (7*(7-1))/(2*(7+1))))/0.3'
p3056
V335/6
p3057
(lp3058
(g32
F55.833333333333336
g3056
g3057
tp3059
ag146
(lp3060
V2016-10-30 00:05:37
p3061
tp3062
a(S'(4*7*(7+1)/(2*7) + 2*(2*7/(7+1) + (7*(7-1))/(2*(7+1))))/0.2'
p3063
V(4*4 + 2*4.375) / 0.2
p3064
(lp3065
(g32
F123.75
g3063
g3064
tp3066
ag162
(lp3067
V2016-11-01 04:48:23
p3068
tp3069
a(S'(4*9*(9+1)/(2*9) + 4*(2*9/(9+1) + (9*(9-1))/(2*(9+1))))/0.2'
p3070
V(4*5+4*(27/5))/0.2
p3071
(lp3072
(g32
F208.0
g3070
g3071
tp3073
ag170
(lp3074
V2016-11-02 05:09:12
p3075
tp3076
a(S'(3*6*(6+1)/(2*6) + 4*(2*6/(6+1) + (6*(6-1))/(2*(6+1))))/0.4'
p3077
V(3*((1*1/6)+(2*1/6)+(3*1/6)+(4*1/6)+(5*1/6)+(6*1/6))+((1*1/7)+(2*1/7)+(3*1/7)+(4*1/7)+(5*1/7)+(6*2/7))*4)/.4
p3078
(lp3079
(g32
F64.82142857142857
g3077
g3078
tp3080
ag194
(lp3081
V2016-11-02 06:39:47
p3082
tp3083
a(S'(4*6*(6+1)/(2*6) + 2*(2*6/(6+1) + (6*(6-1))/(2*(6+1))))/0.1'
p3084
V(4*(1/6+2/6+3/6+4/6+5/6+6/6)+2*(1/7+2/7+3/7+4/7+5/7+12/7))/0.1
p3085
(lp3086
(g32
F217.14285714285714
g3084
g3085
tp3087
ag210
(lp3088
V2016-11-02 20:07:21
p3089
tp3090
a(S'(4*9*(9+1)/(2*9) + 4*(2*9/(9+1) + (9*(9-1))/(2*(9+1))))/0.5'
p3091
V(208/5)/0.5
p3092
(lp3093
(g32
F83.2
g3091
g3092
tp3094
ag218
(lp3095
V2016-10-31 21:33:17
p3096
tp3097
a(S'(2*6*(6+1)/(2*6) + 2*(2*6/(6+1) + (6*(6-1))/(2*(6+1))))/0.5'
p3098
V(7/2 * 2 + 2 * 27/7) / 0.5
p3099
(lp3100
(g32
F29.428571428571427
g3098
g3099
tp3101
ag266
(lp3102
V2016-11-01 03:18:36
p3103
tp3104
a(S'(2*9*(9+1)/(2*9) + 4*(2*9/(9+1) + (9*(9-1))/(2*(9+1))))/0.1'
p3105
V((2*((1+2+3+4+5+6+7+8+9)/9))+(4*(((1+2+3+4+5+6+7+8)/10)+(18/10))))*10
p3106
(lp3107
(g32
F316.0
g3105
g3106
tp3108
ag274
(lp3109
V2016-10-31 07:00:17
p3110
tp3111
a(S'(3*6*(6+1)/(2*6) + 4*(2*6/(6+1) + (6*(6-1))/(2*(6+1))))/0.2'
p3112
V1815/14
p3113
(lp3114
(g32
F129.64285714285714
g3112
g3113
tp3115
ag282
(lp3116
V2016-11-01 06:48:32
p3117
tp3118
a(S'(3*8*(8+1)/(2*8) + 3*(2*8/(8+1) + (8*(8-1))/(2*(8+1))))/0.5'
p3119
V( 3*( (8*9)/2*(1/8) ) + 3*( (28/9) + (16/9) ) ) / ( 0.5 )
p3120
(lp3121
(g32
F56.333333333333336
g3119
g3120
tp3122
ag298
(lp3123
V2016-11-01 19:32:44
p3124
tp3125
a(S'(4*6*(6+1)/(2*6) + 3*(2*6/(6+1) + (6*(6-1))/(2*(6+1))))/0.3'
p3126
V(4*(21/6)+3*(27/7))/0.3
p3127
(lp3128
(g32
F85.23809523809524
g3126
g3127
tp3129
ag314
(lp3130
V2016-11-01 21:24:06
p3131
tp3132
a(S'(4*9*(9+1)/(2*9) + 3*(2*9/(9+1) + (9*(9-1))/(2*(9+1))))/0.3'
p3133
V(4*(9*(9+1)/(2*9))+3*(2*9/(9+1)+(9*(9-1))/(2*(9+1))))/0.3
p3134
(lp3135
(g32
F120.66666666666669
g3133
g3134
tp3136
ag322
(lp3137
V2016-11-02 18:50:18
p3138
tp3139
a(S'(3*6*(6+1)/(2*6) + 2*(2*6/(6+1) + (6*(6-1))/(2*(6+1))))/0.1'
p3140
V(3*(1/6+2/6+3/6+4/6+5/6+6/6)+2*(1/7+2/7+3/7+4/7+5/7+12/7))*10
p3141
(lp3142
(g32
F182.14285714285714
g3140
g3141
tp3143
ag330
(lp3144
V2016-11-02 18:57:58
p3145
tp3146
a(S'(2*8*(8+1)/(2*8) + 2*(2*8/(8+1) + (8*(8-1))/(2*(8+1))))/0.2'
p3147
V(9+88/9)/0.2
p3148
(lp3149
(g32
F93.88888888888889
g3147
g3148
tp3150
ag338
(lp3151
V2016-10-29 21:06:45
p3152
tp3153
a(S'(3*7*(7+1)/(2*7) + 3*(2*7/(7+1) + (7*(7-1))/(2*(7+1))))/0.3'
p3154
V(3*(1/7*(1+2+3+4+5+6+7))+3*(1/8*(1+2+3+4+5+6+2*(7))))/0.3
p3155
(lp3156
(g32
F83.75
g3154
g3155
tp3157
ag378
(lp3158
V2016-11-02 18:28:00
p3159
tp3160
a(S'(2*9*(9+1)/(2*9) + 2*(2*9/(9+1) + (9*(9-1))/(2*(9+1))))/0.5'
p3161
V20.8/.5
p3162
(lp3163
(g32
F41.6
g3161
g3162
tp3164
ag394
(lp3165
V2016-11-02 18:41:47
p3166
tp3167
a(S'(3*7*(7+1)/(2*7) + 2*(2*7/(7+1) + (7*(7-1))/(2*(7+1))))/0.5'
p3168
V(3*7*(7+1)/(2*7)+2*(2*7/(7+1)+(7*(7-1))/(2*(7+1))))/0.5
p3169
(lp3170
(g32
F41.5
g3168
g3169
tp3171
ag402
(lp3172
V2016-10-29 23:41:54
p3173
tp3174
a(S'(4*8*(8+1)/(2*8) + 3*(2*8/(8+1) + (8*(8-1))/(2*(8+1))))/0.5'
p3175
V(4*8*(8+1)/(2*8)+3*(2*8/(8+1)+(8*(8-1))/(2*(8+1))))/0.5
p3176
(lp3177
(g32
F65.33333333333334
g3175
g3176
tp3178
ag410
(lp3179
V2016-10-29 23:43:49
p3180
tp3181
a(S'(2*8*(8+1)/(2*8) + 4*(2*8/(8+1) + (8*(8-1))/(2*(8+1))))/0.2'
p3182
V((2*((1+2+3+4+5+6+7+8)/8))+(4*(((1+2+3+4+5+6+7)/9)+(16/9))))/0.2
p3183
(lp3184
(g32
F142.77777777777777
g3182
g3183
tp3185
ag498
(lp3186
V2016-10-31 19:11:00
p3187
tp3188
a(S'(2*8*(8+1)/(2*8) + 2*(2*8/(8+1) + (8*(8-1))/(2*(8+1))))/0.3'
p3189
V((((1/9)+(2/9)+(3/9)+(4/9)+(5/9)+(6/9)+(7/9)+(16/9))*2)+(((1/8)+(2/8)+(3/8)+(4/8)+(5/8)+(6/8)+(7/8)+(8/8))*2))/0.3
p3190
(lp3191
(g32
F62.592592592592595
g3189
g3190
tp3192
ag522
(lp3193
V2016-11-02 19:40:38
p3194
tp3195
a(S'(4*8*(8+1)/(2*8) + 3*(2*8/(8+1) + (8*(8-1))/(2*(8+1))))/0.3'
p3196
V(4 * (1/8 + 2/8 + 3/8 + 4/8 + 5/8 + 6/8 + 7/8 + 8/8) + 3 * (1/9 + 2/9 + 3/9 + 4/9 + 5/9 + 6/9 + 7/9 + 16/9))/0.3
p3197
(lp3198
(g32
F108.88888888888891
g3196
g3197
tp3199
ag538
(lp3200
V2016-11-01 23:13:01
p3201
tp3202
a(S'(3*9*(9+1)/(2*9) + 3*(2*9/(9+1) + (9*(9-1))/(2*(9+1))))/0.5'
p3203
V62.4
p3204
(lp3205
(g32
F62.400000000000006
g3203
g3204
tp3206
ag546
(lp3207
V2016-11-01 18:54:33
p3208
tp3209
a(S'(2*6*(6+1)/(2*6) + 2*(2*6/(6+1) + (6*(6-1))/(2*(6+1))))/0.1'
p3210
V70+540/7
p3211
(lp3212
(g32
F147.14285714285714
g3210
g3211
tp3213
ag554
(lp3214
V2016-11-02 03:19:19
p3215
tp3216
a(S'(2*9*(9+1)/(2*9) + 3*(2*9/(9+1) + (9*(9-1))/(2*(9+1))))/0.3'
p3217
V26.2/.3
p3218
(lp3219
(g32
F87.33333333333334
g3217
g3218
tp3220
ag570
(lp3221
V2016-11-01 08:12:49
p3222
tp3223
a(S'(2*7*(7+1)/(2*7) + 4*(2*7/(7+1) + (7*(7-1))/(2*(7+1))))/0.2'
p3224
V51*5/2
p3225
(lp3226
(g32
F127.5
g3224
g3225
tp3227
ag586
(lp3228
V2016-11-01 04:03:21
p3229
tp3230
a(S'(4*9*(9+1)/(2*9) + 4*(2*9/(9+1) + (9*(9-1))/(2*(9+1))))/0.5'
p3231
V416/5
p3232
(lp3233
(g32
F83.2
g3231
g3232
tp3234
ag626
(lp3235
V2016-11-02 03:56:32
p3236
tp3237
a(S'(2*8*(8+1)/(2*8) + 3*(2*8/(8+1) + (8*(8-1))/(2*(8+1))))/0.5'
p3238
V(2*(8*(8+1)/(2*8)) + 3*(2*8/(8+1) + (8*(8-1))/(2*(8+1)))) / 0.5
p3239
(lp3240
(g32
F47.333333333333336
g3238
g3239
tp3241
ag634
(lp3242
V2016-10-31 01:08:23
p3243
tp3244
a(S'(4*9*(9+1)/(2*9) + 2*(2*9/(9+1) + (9*(9-1))/(2*(9+1))))/0.4'
p3245
V(4*9*(9+1)/(2*9)+2*(2*9/(9+1)+(9*(9-1))/(2*(9+1))))/0.4
p3246
(lp3247
(g32
F77.0
g3245
g3246
tp3248
ag642
(lp3249
V2016-10-30 20:22:22
p3250
tp3251
a(S'(2*9*(9+1)/(2*9) + 3*(2*9/(9+1) + (9*(9-1))/(2*(9+1))))/0.1'
p3252
V(2*9*(9+1)/(2*9)+3*(2*9/(9+1)+(9*(9-1))/(2*(9+1))))/0.1
p3253
(lp3254
(g32
F262.0
g3252
g3253
tp3255
ag650
(lp3256
V2016-10-30 20:24:31
p3257
tp3258
a(S'(2*7*(7+1)/(2*7) + 4*(2*7/(7+1) + (7*(7-1))/(2*(7+1))))/0.4'
p3259
V((2*((1/7)+(2/7)+(3/7)+(4/7)+(5/7)+(6/7)+1))+(4*((1/8)+(2/8)+(3/8)+(4/8)+(5/8)+(6/8)+(14/8))))/.4
p3260
(lp3261
(g32
F63.75
g3259
g3260
tp3262
ag666
(lp3263
V2016-11-02 01:47:43
p3264
tp3265
a(S'(4*7*(7+1)/(2*7) + 2*(2*7/(7+1) + (7*(7-1))/(2*(7+1))))/0.2'
p3266
V(4*((7*(7+1))/(2*7)) + 2*((2*7/(7+1) + (7*(7-1))/(2*(7+1)))))/0.2
p3267
(lp3268
(g32
F123.75
g3266
g3267
tp3269
ag674
(lp3270
V2016-10-30 23:35:59
p3271
tp3272
a(S'(2*8*(8+1)/(2*8) + 4*(2*8/(8+1) + (8*(8-1))/(2*(8+1))))/0.5'
p3273
V(2/8*(1+2+3+4+5+6+7+8)+4*(1/9*(1+2+3+4+5+6+7)+2/9*8))/0.5
p3274
(lp3275
(g32
F57.111111111111114
g3273
g3274
tp3276
ag682
(lp3277
V2016-11-01 16:12:38
p3278
tp3279
a(S'(3*7*(7+1)/(2*7) + 4*(2*7/(7+1) + (7*(7-1))/(2*(7+1))))/0.5'
p3280
V(3*(1/7 + 2/7 + 3/7 + 4/7 + 5/7 + 6/7 + 1)+4*(1/8 + 2/8 + 3/8 + 4/8 + 5/8 + 6/8 + 14/8))/.5
p3281
(lp3282
(g32
F59.0
g3280
g3281
tp3283
ag706
(lp3284
V2016-11-02 01:42:57
p3285
tp3286
a(S'(4*8*(8+1)/(2*8) + 4*(2*8/(8+1) + (8*(8-1))/(2*(8+1))))/0.3'
p3287
V(18+44*4/9)/0.3
p3288
(lp3289
(g32
F125.18518518518519
g3287
g3288
tp3290
ag738
(lp3291
V2016-10-30 09:24:13
p3292
tp3293
a(S'(3*7*(7+1)/(2*7) + 3*(2*7/(7+1) + (7*(7-1))/(2*(7+1))))/0.2'
p3294
V125.625
p3295
(lp3296
(g32
F125.625
g3294
g3295
tp3297
ag762
(lp3298
V2016-10-29 05:26:43
p3299
tp3300
a(S'(2*7*(7+1)/(2*7) + 2*(2*7/(7+1) + (7*(7-1))/(2*(7+1))))/0.1'
p3301
V10*(((2)*(4))+((2)*(4.375)))
p3302
(lp3303
(g32
F167.5
g3301
g3302
tp3304
ag786
(lp3305
V2016-10-29 20:03:52
p3306
tp3307
a(S'(3*7*(7+1)/(2*7) + 3*(2*7/(7+1) + (7*(7-1))/(2*(7+1))))/0.1'
p3308
V251.25
p3309
(lp3310
(g32
F251.25
g3308
g3309
tp3311
ag794
(lp3312
V2016-10-30 19:31:36
p3313
tp3314
a(S'(2*8*(8+1)/(2*8) + 2*(2*8/(8+1) + (8*(8-1))/(2*(8+1))))/0.2'
p3315
V((2*((1/8)+(2/8)+(3/8)+(4/8)+(5/8)+(6/8)+(7/8)+1))+(2*((1/9)+(2/9)+(3/9)+(4/9)+(5/9)+(6/9)+(7/9)+(16/9))))/0.2
p3316
(lp3317
(g32
F93.88888888888889
g3315
g3316
tp3318
ag826
(lp3319
V2016-11-01 21:53:37
p3320
tp3321
a(S'(3*7*(7+1)/(2*7) + 2*(2*7/(7+1) + (7*(7-1))/(2*(7+1))))/0.5'
p3322
V((3*(1/7+2/7+3/7+4/7+5/7+6/7+1))+(2*(1/8+2/8+3/8+4/8+5/8+6/8+14/8)))/0.5
p3323
(lp3324
(g32
F41.5
g3322
g3323
tp3325
ag858
(lp3326
V2016-11-02 19:46:01
p3327
tp3328
a(S'(2*6*(6+1)/(2*6) + 3*(2*6/(6+1) + (6*(6-1))/(2*(6+1))))/0.4'
p3329
V(2*((1/6)+(2/6)+(3/6)+(4/6)+(5/6)+1) + 3*((1/7)+(2/7)+(3/7)+(4/7)+(5/7)+(6/7)+(6/7)))/(0.4)
p3330
(lp3331
(g32
F46.42857142857142
g3329
g3330
tp3332
ag882
(lp3333
V2016-11-02 05:01:43
p3334
tp3335
a(S'(2*8*(8+1)/(2*8) + 2*(2*8/(8+1) + (8*(8-1))/(2*(8+1))))/0.1'
p3336
V(2*9/2+2*44/9)/0.1
p3337
(lp3338
(g32
F187.77777777777777
g3336
g3337
tp3339
ag898
(lp3340
V2016-11-01 22:43:07
p3341
tp3342
a(S'(4*6*(6+1)/(2*6) + 4*(2*6/(6+1) + (6*(6-1))/(2*(6+1))))/0.4'
p3343
V(4 * ((1*1/6) + (2/6) + 3/6 + 4/6 + 5/6 + 1) + 4*((1*1/7) + (2/7) + 3/7 + 4/7 + 5/7 + (6 * 2/7)))/0.4
p3344
(lp3345
(g32
F73.57142857142857
g3343
g3344
tp3346
ag914
(lp3347
V2016-11-01 18:03:00
p3348
tp3349
a(S'(3*7*(7+1)/(2*7) + 4*(2*7/(7+1) + (7*(7-1))/(2*(7+1))))/0.2'
p3350
V29.5/0.2
p3351
(lp3352
(g32
F147.5
g3350
g3351
tp3353
ag922
(lp3354
V2016-11-02 01:33:24
p3355
tp3356
a(S'(4*7*(7+1)/(2*7) + 4*(2*7/(7+1) + (7*(7-1))/(2*(7+1))))/0.5'
p3357
V67
p3358
(lp3359
(g32
F67.0
g3357
g3358
tp3360
ag938
(lp3361
V2016-10-31 01:15:03
p3362
tp3363
a(S'(4*8*(8+1)/(2*8) + 4*(2*8/(8+1) + (8*(8-1))/(2*(8+1))))/0.2'
p3364
V(4.5*4+((1+7)*(7/2)*(1/9)+8*(2/9))*4)/0.2
p3365
(lp3366
(g32
F187.77777777777777
g3364
g3365
tp3367
ag954
(lp3368
V2016-10-30 23:34:13
p3369
tp3370
a(S'(2*9*(9+1)/(2*9) + 4*(2*9/(9+1) + (9*(9-1))/(2*(9+1))))/0.3'
p3371
V((5*2) + (4*((18 + 8 + 7 + 6 + 5 + 4 + 3 + 2 + 1)/10)))/.3
p3372
(lp3373
(g32
F105.33333333333334
g3371
g3372
tp3374
ag986
(lp3375
V2016-11-02 02:13:29
p3376
tp3377
a(S'(4*6*(6+1)/(2*6) + 2*(2*6/(6+1) + (6*(6-1))/(2*(6+1))))/0.4'
p3378
V(4 * 6 * (6 + 1) / (2*6) +2 * (2 * 6 / (6+1) + (6 * (6-1)) / (2 * (6+1)))) / .4
p3379
(lp3380
(g32
F54.285714285714285
g3378
g3379
tp3381
ag994
(lp3382
V2016-10-29 21:34:16
p3383
tp3384
a(S'(4*6*(6+1)/(2*6) + 4*(2*6/(6+1) + (6*(6-1))/(2*(6+1))))/0.2'
p3385
V(4*6*(6+1)/(2*6)+4*(2*6/(6+1)+(6*(6-1))/(2*(6+1))))/.2
p3386
(lp3387
(g32
F147.14285714285714
g3385
g3386
tp3388
ag1010
(lp3389
V2016-10-29 22:05:02
p3390
tp3391
a(S'(3*9*(9+1)/(2*9) + 3*(2*9/(9+1) + (9*(9-1))/(2*(9+1))))/0.5'
p3392
V(3*9*(9+1)/(2*9)+3*(2*9/(9+1)+(9*(9-1))/(2*(9+1))))/.5
p3393
(lp3394
(g32
F62.400000000000006
g3392
g3393
tp3395
ag1018
(lp3396
V2016-10-29 22:08:23
p3397
tp3398
a(S'(4*9*(9+1)/(2*9) + 3*(2*9/(9+1) + (9*(9-1))/(2*(9+1))))/0.2'
p3399
V(20+3*(9*2/10+36/10))/0.2
p3400
(lp3401
(g32
F181.0
g3399
g3400
tp3402
ag1026
(lp3403
V2016-10-30 00:38:35
p3404
tp3405
a(S'(3*7*(7+1)/(2*7) + 4*(2*7/(7+1) + (7*(7-1))/(2*(7+1))))/0.5'
p3406
V59
p3407
(lp3408
(g32
F59.0
g3406
g3407
tp3409
ag1058
(lp3410
V2016-10-30 19:22:40
p3411
tp3412
a(S'(3*8*(8+1)/(2*8) + 2*(2*8/(8+1) + (8*(8-1))/(2*(8+1))))/0.5'
p3413
V(3 * 4.5 + 2 * (1/9 + 2/9 + 3/9 + 4/9 + 5/9 + 6/9 + 7/9 + 16/9))/.5
p3414
(lp3415
(g32
F46.55555555555556
g3413
g3414
tp3416
ag1090
(lp3417
V2016-11-02 03:12:19
p3418
tp3419
a(S'(2*7*(7+1)/(2*7) + 3*(2*7/(7+1) + (7*(7-1))/(2*(7+1))))/0.1'
p3420
V1690/8
p3421
(lp3422
(g32
F211.25
g3420
g3421
tp3423
ag1122
(lp3424
V2016-10-30 05:03:45
p3425
tp3426
ass.