(dp0
S'11'
p1
(dp2
S'Jisu'
p3
(dp4
S'first_attempt'
p5
V2016-10-30 01:18:14
p6
sS'part11_correct_attempt'
p7
(lp8
S'0:00:00'
p9
aV1*(1/3 + 0 + 1/6)+2*(0 + 0 + 0)+3*(1/6 + 0 + 1/3) + 1*(1/3 + 0 + 1/6)+2*(0 + 0 + 0)+3*(1/6 + 0 + 1/3)
p10
asS'part11_incorrect_attempt'
p11
(lp12
(S'-1 day, 19:09:49'
p13
V1*(1/3+0+1/6)+2*(1/3+0+1/6)+3*(1/3+0+1/6)+1*(1/3+0+1/6)+2*(1/3+0+1/6)+3*(1/3+0+1/6)
p14
tp15
asssS'10'
p16
(dp17
S'codyndoan'
p18
(dp19
S'part10_incorrect_attempt'
p20
(lp21
(S'0:00:00'
p22
V12/6
p23
tp24
asg5
V2016-11-02 18:18:29
p25
sS'part10_correct_attempt'
p26
(lp27
S'0:00:00'
p28
aV12/6
p29
assS'TianhaoQiu'
p30
(dp31
S'part10_incorrect_attempt'
p32
(lp33
(S'0:00:00'
p34
V4*(1/6+1/3)
p35
tp36
asg5
V2016-11-02 18:49:42
p37
sS'part10_correct_attempt'
p38
(lp39
S'0:00:00'
p40
aV4*(1/6+1/3)
p41
assS'wheilson'
p42
(dp43
S'part10_incorrect_attempt'
p44
(lp45
(S'0:00:00'
p46
V4*(1/3+1/6)
p47
tp48
asg5
V2016-11-01 15:37:20
p49
sS'part10_correct_attempt'
p50
(lp51
S'0:00:00'
p52
aV4*(1/3+1/6)
p53
assS'Yangc'
p54
(dp55
S'part10_incorrect_attempt'
p56
(lp57
(S'0:00:00'
p58
V4*(1/3+1/6)
p59
tp60
asg5
V2016-11-02 20:42:08
p61
sS'part10_correct_attempt'
p62
(lp63
S'0:00:00'
p64
aV4*(1/3+1/6)
p65
asssS'13'
p66
(dp67
g18
(dp68
S'part13_correct_attempt'
p69
(lp70
S'0:00:00'
p71
aV1/3
p72
asS'part13_incorrect_attempt'
p73
(lp74
(S'0:00:00'
p75
V1/3
p76
tp77
asg5
g25
ssS'Zhongting'
p78
(dp79
S'part13_correct_attempt'
p80
(lp81
S'0:00:00'
p82
aV1/3
p83
asS'part13_incorrect_attempt'
p84
(lp85
(S'-1 day, 22:43:31'
p86
V1/3
p87
tp88
a(S'-1 day, 23:06:44'
p89
V1/3
p90
tp91
a(S'0:00:00'
p92
V1/3
p93
tp94
asg5
V2016-10-30 09:59:03
p95
ssS'zkvick'
p96
(dp97
S'part13_correct_attempt'
p98
(lp99
S'0:00:00'
p100
aV1/3
p101
asS'part13_incorrect_attempt'
p102
(lp103
(S'-1 day, 23:56:54'
p104
V1/3
p105
tp106
a(S'0:00:00'
p107
V1/3
p108
tp109
asg5
V2016-11-01 20:16:29
p110
ssS'piamsiri'
p111
(dp112
S'part13_correct_attempt'
p113
(lp114
S'0:00:00'
p115
aV(1/3 + 3/6 + 3/6 + 9/3) - 4
p116
asS'part13_incorrect_attempt'
p117
(lp118
(S'-2 days, 19:13:47'
p119
V(3/6 + 9/6) * (3/6 + 9/6) - ((3/6 + 9/6) + (3/6 + 9/6))
p120
tp121
a(S'-2 days, 19:29:19'
p122
V5 - 4
p123
tp124
asg5
V2016-10-31 00:49:10
p125
ssS'vincebai'
p126
(dp127
S'part13_correct_attempt'
p128
(lp129
S'0:00:00'
p130
aV(1/3 + 1/2 + 1/2 + 3 - 4)
p131
asS'part13_incorrect_attempt'
p132
(lp133
(S'-1 day, 23:53:19'
p134
V(1/3 + 1/2 + 1/3 + 3) - 4
p135
tp136
asg5
V2016-11-01 06:34:34
p137
ssS'dillonliu'
p138
(dp139
S'part13_correct_attempt'
p140
(lp141
S'0:00:00'
p142
aV1/3
p143
asS'part13_incorrect_attempt'
p144
(lp145
(S'0:00:00'
p146
V1/3
p147
tp148
asg5
V2016-11-01 03:50:42
p149
ssS'yuhan'
p150
(dp151
S'part13_correct_attempt'
p152
(lp153
S'0:00:00'
p154
aV1/3
p155
asS'part13_incorrect_attempt'
p156
(lp157
(S'-1 day, 23:54:32'
p158
V1/2
p159
tp160
a(S'-1 day, 23:57:48'
p161
V1/3
p162
tp163
a(S'0:00:00'
p164
V1/3
p165
tp166
asg5
V2016-11-01 04:11:48
p167
ssS'YuqinWu'
p168
(dp169
S'part13_correct_attempt'
p170
(lp171
S'0:00:00'
p172
aV1/3
p173
asS'part13_incorrect_attempt'
p174
(lp175
(S'0:00:00'
p176
V1/3
p177
tp178
asg5
V2016-10-29 20:39:14
p179
ssS'aspindle'
p180
(dp181
S'part13_correct_attempt'
p182
(lp183
S'0:00:00'
p184
aV1/3
p185
asS'part13_incorrect_attempt'
p186
(lp187
(S'-1 day, 22:56:36'
p188
V1/3
p189
tp190
a(S'-1 day, 23:16:49'
p191
V1/3
p192
tp193
a(S'-1 day, 23:22:06'
p194
V1/3
p195
tp196
a(S'-1 day, 23:24:00'
p197
V1/3
p198
tp199
a(S'0:00:00'
p200
V1/3
p201
tp202
asg5
V2016-11-02 09:02:03
p203
ssS'kevin'
p204
(dp205
S'part13_correct_attempt'
p206
(lp207
S'0:00:00'
p208
aV1/3
p209
asS'part13_incorrect_attempt'
p210
(lp211
(S'0:00:00'
p212
V1/3
p213
tp214
asg5
V2016-10-29 23:52:12
p215
ssS'GNajera'
p216
(dp217
S'part13_correct_attempt'
p218
(lp219
S'0:00:00'
p220
aV1/3
p221
asS'part13_incorrect_attempt'
p222
(lp223
(S'0:00:00'
p224
V1/3
p225
tp226
asg5
V2016-10-31 21:19:47
p227
ssS'chenboy3'
p228
(dp229
S'part13_correct_attempt'
p230
(lp231
S'0:00:00'
p232
aV1/3
p233
asS'part13_incorrect_attempt'
p234
(lp235
(S'-1 day, 23:58:10'
p236
V1/3
p237
tp238
a(S'-1 day, 23:59:09'
p239
V1/3
p240
tp241
a(S'0:00:00'
p242
V1/3
p243
tp244
asg5
V2016-11-01 03:41:04
p245
ssg54
(dp246
S'part13_correct_attempt'
p247
(lp248
S'0:00:00'
p249
aV(4*(1/3+1/6))^2-(4*(1/3+1/6))*(4*(1/3+1/6))
p250
asS'part13_incorrect_attempt'
p251
(lp252
(S'0:00:00'
p253
V(4*(1/3+1/6))^2-(4*(1/3+1/6))*(4*(1/3+1/6))
p254
tp255
asg5
g61
ssS'jih089'
p256
(dp257
S'part13_incorrect_attempt'
p258
(lp259
(S'0:00:00'
p260
V1/3
p261
tp262
a(S'0:00:00'
p263
V1/3
p264
tp265
a(S'0:00:00'
p266
V1/3
p267
tp268
a(S'0:00:00'
p269
V1/3
p270
tp271
a(S'0:00:00'
p272
V1/3
p273
tp274
a(S'0:00:00'
p275
V1/3
p276
tp277
asg5
V2016-10-29 05:03:42
p278
ssS'Safai'
p279
(dp280
S'part13_correct_attempt'
p281
(lp282
S'0:00:00'
p283
aV1/3
p284
asS'part13_incorrect_attempt'
p285
(lp286
(S'-1 day, 23:57:05'
p287
V1/3
p288
tp289
a(S'0:00:00'
p290
V1/3
p291
tp292
asg5
V2016-11-02 02:37:00
p293
ssS'srrozen'
p294
(dp295
S'part13_correct_attempt'
p296
(lp297
S'0:00:00'
p298
aV1/3
p299
asS'part13_incorrect_attempt'
p300
(lp301
(S'-1 day, 22:56:13'
p302
V1/3
p303
tp304
a(S'-1 day, 22:59:16'
p305
V1/3
p306
tp307
a(S'0:00:00'
p308
V1/3
p309
tp310
asg5
V2016-11-01 21:17:25
p311
ssS'JiangfengYin'
p312
(dp313
S'part13_correct_attempt'
p314
(lp315
S'0:00:00'
p316
aV1/3
p317
asS'part13_incorrect_attempt'
p318
(lp319
(S'0:00:00'
p320
V1/3
p321
tp322
asg5
V2016-11-01 22:12:15
p323
ssS'tsy'
p324
(dp325
S'part13_correct_attempt'
p326
(lp327
S'0:00:00'
p328
aV1/3
p329
asS'part13_incorrect_attempt'
p330
(lp331
(S'0:00:00'
p332
V1/3
p333
tp334
asg5
V2016-11-02 21:13:26
p335
ssS'tommyt1109'
p336
(dp337
S'part13_correct_attempt'
p338
(lp339
S'0:00:00'
p340
aV(13/3)-((1*3/6)+(2*0)+(3*3/6))^2
p341
asS'part13_incorrect_attempt'
p342
(lp343
(S'-1 day, 23:53:36'
p344
V(((3/6)+(2*0)+(3*3/6))^2)-(2*((3/6)+(2*0)+(3*3/6)))
p345
tp346
asg5
V2016-11-02 05:34:45
p347
ssS'PriyankaK'
p348
(dp349
S'part13_correct_attempt'
p350
(lp351
S'0:00:00'
p352
aV1/3
p353
asS'part13_incorrect_attempt'
p354
(lp355
(S'-1 day, 23:41:30'
p356
V1/3
p357
tp358
a(S'-1 day, 23:44:51'
p359
V1/3
p360
tp361
a(S'0:00:00'
p362
V1/3
p363
tp364
asg5
V2016-11-01 06:35:02
p365
ssS'mvkrishn'
p366
(dp367
S'part13_correct_attempt'
p368
(lp369
S'0:00:00'
p370
aV1/3
p371
asS'part13_incorrect_attempt'
p372
(lp373
(S'-1 day, 23:56:59'
p374
V1/3
p375
tp376
a(S'0:00:00'
p377
V1/3
p378
tp379
asg5
V2016-11-02 17:34:10
p380
ssS'DannyChan'
p381
(dp382
S'part13_correct_attempt'
p383
(lp384
S'0:00:00'
p385
aV1/3
p386
asS'part13_incorrect_attempt'
p387
(lp388
(S'0:00:00'
p389
V1/3
p390
tp391
asg5
V2016-10-30 23:35:58
p392
ssS'A4chau'
p393
(dp394
S'part13_correct_attempt'
p395
(lp396
S'0:00:00'
p397
aV1/3
p398
asS'part13_incorrect_attempt'
p399
(lp400
(S'0:00:00'
p401
V1/3
p402
tp403
asg5
V2016-11-02 04:48:52
p404
ssS'DannyDelCerro'
p405
(dp406
S'part13_incorrect_attempt'
p407
(lp408
(S'0:00:00'
p409
V1/3
p410
tp411
asg5
V2016-11-02 21:16:35
p412
ssS'aliceh'
p413
(dp414
S'part13_correct_attempt'
p415
(lp416
S'0:00:00'
p417
aV(1/3)
p418
asS'part13_incorrect_attempt'
p419
(lp420
(S'0:00:00'
p421
V(1/3)
p422
tp423
asg5
V2016-11-02 05:44:01
p424
ssS'shravangrandhi'
p425
(dp426
S'part13_correct_attempt'
p427
(lp428
S'0:00:00'
p429
aV1/3
p430
asS'part13_incorrect_attempt'
p431
(lp432
(S'-1 day, 23:55:01'
p433
V1/3
p434
tp435
a(S'-1 day, 23:55:50'
p436
V1/3
p437
tp438
a(S'0:00:00'
p439
V1/3
p440
tp441
asg5
V2016-10-30 01:08:33
p442
ssS'Lpascual'
p443
(dp444
S'part13_correct_attempt'
p445
(lp446
S'0:00:00'
p447
aV1/3
p448
asS'part13_incorrect_attempt'
p449
(lp450
(S'-1 day, 23:56:52'
p451
V.3
p452
tp453
a(S'0:00:00'
p454
V1/3
p455
tp456
asg5
V2016-11-02 00:20:49
p457
ssS'KevinKlein'
p458
(dp459
S'part13_correct_attempt'
p460
(lp461
S'0:00:00'
p462
aV(1/3 + 1/2 + 1/2 + 3)-4
p463
asS'part13_incorrect_attempt'
p464
(lp465
(S'-1 day, 23:55:06'
p466
V2/3
p467
tp468
asg5
V2016-11-01 18:25:34
p469
ssS'sunilraiyani'
p470
(dp471
S'part13_correct_attempt'
p472
(lp473
S'0:00:00'
p474
aV1/3
p475
asS'part13_incorrect_attempt'
p476
(lp477
(S'0:00:00'
p478
V1/3
p479
tp480
asg5
V2016-10-31 06:47:10
p481
ssS'maxcjx'
p482
(dp483
S'part13_correct_attempt'
p484
(lp485
S'0:00:00'
p486
aV1/3
p487
asS'part13_incorrect_attempt'
p488
(lp489
(S'-1 day, 23:59:01'
p490
V1/3
p491
tp492
a(S'0:00:00'
p493
V1/3
p494
tp495
asg5
V2016-10-30 23:23:23
p496
ssS'kyle'
p497
(dp498
S'part13_correct_attempt'
p499
(lp500
S'0:00:00'
p501
aV1/3
p502
asS'part13_incorrect_attempt'
p503
(lp504
(S'0:00:00'
p505
V1/3
p506
tp507
asg5
V2016-11-02 04:01:51
p508
sssS'12'
p509
(dp510
S'codyndoan'
p511
(dp512
S'part12_correct_attempt'
p513
(lp514
S'0:00:00'
p515
aV26/6
p516
asS'part12_incorrect_attempt'
p517
(lp518
(S'-1 day, 23:44:17'
p519
V(1*(3/6) + 0 + 3*(3/6))^2
p520
tp521
asg5
g25
ssS'ray003'
p522
(dp523
S'part12_correct_attempt'
p524
(lp525
S'0:00:00'
p526
aV(1/3)*1+(1/6)*3+(1/6)*3+(1/3)*9
p527
asS'part12_incorrect_attempt'
p528
(lp529
(S'-1 day, 21:09:42'
p530
V((3/6)*1+0+(3/6)*3)^2
p531
tp532
a(S'-1 day, 21:15:00'
p533
V((3/6*1)+(3/6*3))^2
p534
tp535
asg5
V2016-11-02 00:16:41
p536
ssg54
(dp537
S'part12_correct_attempt'
p538
(lp539
S'0:00:00'
p540
aV(4*(1/3+1/6))^2
p541
asS'part12_incorrect_attempt'
p542
(lp543
(S'0:00:00'
p544
V(4*(1/3+1/6))^2
p545
tp546
asg5
g61
ssg111
(dp547
S'part12_correct_attempt'
p548
(lp549
S'0:00:00'
p550
aV1/3 + 3/6 + 3/6 + 9/3
p551
asS'part12_incorrect_attempt'
p552
(lp553
(S'-2 days, 19:13:47'
p554
V(3/6 + 9/6) * (3/6 + 9/6)
p555
tp556
a(S'-1 day, 23:14:39'
p557
V1/3*1/3 + 9/6*9/6
p558
tp559
a(S'-1 day, 23:32:19'
p560
V2*2
p561
tp562
a(S'-1 day, 23:35:42'
p563
V4/36 + 18/36 + 18/36 + 81/36
p564
tp565
a(S'-1 day, 23:37:49'
p566
V1/9 + 3/18 + 3/18 + 9/36
p567
tp568
a(S'-1 day, 23:39:37'
p569
V9/36 + 27/36 + 27/36 + 81/36
p570
tp571
asg5
g125
ssg126
(dp572
S'part12_correct_attempt'
p573
(lp574
S'0:00:00'
p575
aV1/3 + 1/2 + 1/2 + 3
p576
asS'part12_incorrect_attempt'
p577
(lp578
(S'-1 day, 23:53:19'
p579
V1/3 + 1/2 + 1/3 + 3
p580
tp581
asg5
g137
ssS'RobinO'
p582
(dp583
S'part12_correct_attempt'
p584
(lp585
S'0:00:00'
p586
aV(1*(1/3)+3*(1/3)+9*(1/3))
p587
asS'part12_incorrect_attempt'
p588
(lp589
(S'-1 day, 23:51:40'
p590
V1*(1/3)+3*(1/6)+1*(1/3)+3*(1/6)
p591
tp592
asg5
V2016-10-30 19:09:44
p593
ssS'mhatch'
p594
(dp595
S'part12_correct_attempt'
p596
(lp597
S'0:00:00'
p598
aV(1/3 * 1 + 6 * 1/6 + 1/3 * 9)
p599
asS'part12_incorrect_attempt'
p600
(lp601
(S'-1 day, 23:40:20'
p602
V(1/3 + 1/2)^2
p603
tp604
asg5
V2016-11-02 02:50:22
p605
ssg150
(dp606
S'part12_correct_attempt'
p607
(lp608
S'0:00:00'
p609
aV4+1/3
p610
asS'part12_incorrect_attempt'
p611
(lp612
(S'-1 day, 23:54:32'
p613
V4+1/2
p614
tp615
asg5
g167
ssS'Joonhan'
p616
(dp617
S'part12_correct_attempt'
p618
(lp619
S'0:00:00'
p620
aV(1*1/3)+0+(3*1/6)+0+0+0+(3*1/6)+0+(9*1/3)
p621
asS'part12_incorrect_attempt'
p622
(lp623
(S'-1 day, 4:12:57'
p624
V((1*(3/6))+0+(3*(3/6)))^2
p625
tp626
asg5
V2016-10-31 04:43:29
p627
ssg405
(dp628
S'part12_incorrect_attempt'
p629
(lp630
(S'0:00:00'
p631
V((1/2)+0+(3/2))*((1/2)+0+(3/2))
p632
tp633
asg5
V2016-11-02 21:16:35
p634
ssS'PizzaPolice'
p635
(dp636
S'part12_correct_attempt'
p637
(lp638
S'0:00:00'
p639
aV13/3
p640
asS'part12_incorrect_attempt'
p641
(lp642
(S'-1 day, 23:38:07'
p643
V(2*2)
p644
tp645
asg5
V2016-11-02 01:51:52
p646
ssS'Shiyuc'
p647
(dp648
S'part12_correct_attempt'
p649
(lp650
S'0:00:00'
p651
aV1/3+3*1/6+3*1/6+3*1/3
p652
asS'part12_incorrect_attempt'
p653
(lp654
(S'0:00:00'
p655
V1/3+3*1/6+3*1/6+3*1/3
p656
tp657
asg5
V2016-11-02 21:08:00
p658
ssS'wheilson'
p659
(dp660
S'part12_correct_attempt'
p661
(lp662
S'0:00:00'
p663
aV1/3+3/6+3/6+3
p664
asS'part12_incorrect_attempt'
p665
(lp666
(S'-1 day, 23:40:10'
p667
V(1/3+3/6)*2
p668
tp669
a(S'-1 day, 23:42:06'
p670
V(1/3+3/6)*2+3
p671
tp672
asg5
g49
ssS'A4chau'
p673
(dp674
S'part12_correct_attempt'
p675
(lp676
S'0:00:00'
p677
aV4+(1/3)
p678
asS'part12_incorrect_attempt'
p679
(lp680
(S'-1 day, 23:52:57'
p681
V(2/3)+1
p682
tp683
asg5
g404
ssS'tommyt1109'
p684
(dp685
S'part12_correct_attempt'
p686
(lp687
S'0:00:00'
p688
aV13/3
p689
asS'part12_incorrect_attempt'
p690
(lp691
(S'-1 day, 23:40:12'
p692
V(9/6)^2
p693
tp694
a(S'-1 day, 23:53:36'
p695
V((3/6)+(2*0)+(3*3/6))^2
p696
tp697
asg5
g347
sssS'15'
p698
(dp699
sS'14'
p700
(dp701
S'codyndoan'
p702
(dp703
S'part14_correct_attempt'
p704
(lp705
S'0:00:00'
p706
aV1/3
p707
asg5
g25
sS'part14_incorrect_attempt'
p708
(lp709
(S'-1 day, 23:57:43'
p710
V14/6
p711
tp712
a(S'0:00:00'
p713
V1/3
p714
tp715
assS'Zhongting'
p716
(dp717
S'part14_correct_attempt'
p718
(lp719
S'0:00:00'
p720
aV1/3
p721
asg5
g95
sS'part14_incorrect_attempt'
p722
(lp723
(S'-1 day, 23:06:44'
p724
V0.03134
p725
tp726
a(S'-1 day, 23:50:50'
p727
V1/3/((1/3+9/3+81/3)*2)^(1/2)
p728
tp729
a(S'-1 day, 23:53:33'
p730
V1/3/(1/3+3+81/3-4)
p731
tp732
a(S'-1 day, 23:56:39'
p733
V1/3/(1/3+1/6)*10
p734
tp735
a(S'-1 day, 23:57:04'
p736
V1/3/((1/3+1/6)*10)
p737
tp738
a(S'-1 day, 23:57:48'
p739
V1/15
p740
tp741
a(S'-1 day, 23:58:46'
p742
V1/3
p743
tp744
a(S'0:00:00'
p745
V1/3
p746
tp747
assg96
(dp748
S'part14_correct_attempt'
p749
(lp750
S'0:00:00'
p751
aV1/3
p752
asg5
g110
sS'part14_incorrect_attempt'
p753
(lp754
(S'-1 day, 23:56:54'
p755
V(1/3)/(2/3)
p756
tp757
a(S'0:00:00'
p758
V1/3
p759
tp760
assS'Ian'
p761
(dp762
S'part14_correct_attempt'
p763
(lp764
S'0:00:00'
p765
aV1/3
p766
asg5
V2016-11-01 23:14:50
p767
sS'part14_incorrect_attempt'
p768
(lp769
(S'0:00:00'
p770
V1/3
p771
tp772
assg111
(dp773
S'part14_correct_attempt'
p774
(lp775
S'0:00:00'
p776
aV((1/3 + 3/6 + 3/6 + 9/3) - 4) / 1
p777
asg5
g125
sS'part14_incorrect_attempt'
p778
(lp779
(S'-2 days, 19:13:47'
p780
V(3/6 + 9/6) * (3/6 + 9/6) - ((3/6 + 9/6) + (3/6 + 9/6))
p781
tp782
assg126
(dp783
S'part14_correct_attempt'
p784
(lp785
S'0:00:00'
p786
aV(1/3 + 1/2 + 1/2 + 3 - 4)
p787
asg5
g137
sS'part14_incorrect_attempt'
p788
(lp789
(S'-1 day, 23:53:19'
p790
V((1/3 + 1/2 + 1/3 + 3) - 4)/(((1/2+9/2)-(1/2))*((1/2+9/2)-(1/2)))
p791
tp792
a(S'0:00:00'
p793
V(1/3 + 1/2 + 1/2 + 3 - 4)
p794
tp795
assg405
(dp796
g5
V2016-11-02 21:16:35
p797
sS'part14_incorrect_attempt'
p798
(lp799
(S'0:00:00'
p800
V1/3
p801
tp802
assS'RobinO'
p803
(dp804
S'part14_correct_attempt'
p805
(lp806
S'0:00:00'
p807
aV(1*(1/3)+3*(1/3)+9*(1/3))-4
p808
asg5
g593
sS'part14_incorrect_attempt'
p809
(lp810
(S'0:00:00'
p811
V(1*(1/3)+3*(1/3)+9*(1/3))-4
p812
tp813
assS'zow006'
p814
(dp815
S'part14_correct_attempt'
p816
(lp817
S'0:00:00'
p818
aV(1/3)/1
p819
asg5
V2016-11-01 22:14:04
p820
sS'part14_incorrect_attempt'
p821
(lp822
(S'-1 day, 23:48:35'
p823
V(13/3)*4
p824
tp825
a(S'-1 day, 23:56:03'
p826
V(1/3)/(1/2)
p827
tp828
a(S'0:00:00'
p829
V(1/3)/1
p830
tp831
assg138
(dp832
S'part14_correct_attempt'
p833
(lp834
S'0:00:00'
p835
aV1/3
p836
asg5
g149
sS'part14_incorrect_attempt'
p837
(lp838
(S'0:00:00'
p839
V1/3
p840
tp841
assS'evahuynh'
p842
(dp843
S'part14_correct_attempt'
p844
(lp845
S'0:00:00'
p846
aV((13/3) - 4)
p847
asg5
V2016-10-31 17:38:55
p848
sS'part14_incorrect_attempt'
p849
(lp850
(S'0:00:00'
p851
V((13/3) - 4)
p852
tp853
assS'YuqinWu'
p854
(dp855
S'part14_correct_attempt'
p856
(lp857
S'0:00:00'
p858
aV1/3
p859
asg5
g179
sS'part14_incorrect_attempt'
p860
(lp861
(S'-1 day, 23:57:32'
p862
V((1/3+4)/4)
p863
tp864
a(S'0:00:00'
p865
V1/3
p866
tp867
assS'til005'
p868
(dp869
S'part14_correct_attempt'
p870
(lp871
S'0:00:00'
p872
aV1/3/sqrt(1)
p873
asg5
V2016-11-02 05:52:42
p874
sS'part14_incorrect_attempt'
p875
(lp876
(S'0:00:00'
p877
V1/3/sqrt(1)
p878
tp879
assS'rsamuail'
p880
(dp881
S'part14_correct_attempt'
p882
(lp883
S'0:00:00'
p884
aV(((1/3+0+3/6)+0+(3/6+0+3))-4)/1*1
p885
asg5
V2016-11-02 18:35:40
p886
sS'part14_incorrect_attempt'
p887
(lp888
(S'0:00:00'
p889
V(((1/3+0+3/6)+0+(3/6+0+3))-4)/1*1
p890
tp891
assS'aspindle'
p892
(dp893
S'part14_correct_attempt'
p894
(lp895
S'0:00:00'
p896
aV1/3
p897
asg5
g203
sS'part14_incorrect_attempt'
p898
(lp899
(S'-1 day, 23:16:49'
p900
V2/13
p901
tp902
a(S'-1 day, 23:22:06'
p903
V.857142857
p904
tp905
a(S'0:00:00'
p906
V1/3
p907
tp908
assg204
(dp909
S'part14_correct_attempt'
p910
(lp911
S'0:00:00'
p912
aV1/3
p913
asg5
g215
sS'part14_incorrect_attempt'
p914
(lp915
(S'0:00:00'
p916
V1/3
p917
tp918
assg216
(dp919
S'part14_correct_attempt'
p920
(lp921
S'0:00:00'
p922
aV1/3
p923
asg5
g227
sS'part14_incorrect_attempt'
p924
(lp925
(S'0:00:00'
p926
V1/3
p927
tp928
assS'chenboy3'
p929
(dp930
S'part14_correct_attempt'
p931
(lp932
S'0:00:00'
p933
aV1/3
p934
asg5
g245
sS'part14_incorrect_attempt'
p935
(lp936
(S'-1 day, 23:59:09'
p937
V1/3
p938
tp939
a(S'0:00:00'
p940
V1/3
p941
tp942
assS'Ankush_Sarow'
p943
(dp944
S'part14_correct_attempt'
p945
(lp946
S'0:00:00'
p947
aV1/3
p948
asg5
V2016-11-01 22:31:09
p949
sS'part14_incorrect_attempt'
p950
(lp951
(S'0:00:00'
p952
V1/3
p953
tp954
assg256
(dp955
g5
V2016-10-29 05:03:42
p956
sS'part14_incorrect_attempt'
p957
(lp958
(S'0:00:00'
p959
V2/3
p960
tp961
a(S'0:00:00'
p962
V3/4
p963
tp964
a(S'0:00:00'
p965
V3/2
p966
tp967
a(S'0:00:00'
p968
V1/2
p969
tp970
a(S'0:00:00'
p971
V1/33
p972
tp973
a(S'0:00:00'
p974
V1/2
p975
tp976
a(S'0:00:00'
p977
V4/3
p978
tp979
a(S'0:00:00'
p980
V1/6
p981
tp982
a(S'0:00:00'
p983
V1/2
p984
tp985
a(S'0:00:00'
p986
V1/63
p987
tp988
a(S'0:00:00'
p989
V1/3
p990
tp991
a(S'0:00:00'
p992
V1/3
p993
tp994
a(S'0:00:00'
p995
V1/3
p996
tp997
assS'christywong'
p998
(dp999
S'part14_correct_attempt'
p1000
(lp1001
S'1:58:59'
p1002
aV(1*1/3+2*0+3*1/6+2*0+4*0+6*0+3*1/6+6*0+9*1/3-(1*(1/3+0+1/6)+2*(0+0+0)+3*(1/6+0+1/3))*(1*(1/3+0+1/6)+2*(0+0+0)+3*(1/6+0+1/3)))/(sqrt(1*(1/3+0+1/6)+4*(0+0+0)+9*(1/6+0+1/3)-(1*(1/3+0+1/6)+2*(0+0+0)+3*(1/6+0+1/3))^2)*sqrt(1*(1/3+0+1/6)+4*(0+0+0)+9*(1/6+0+1/3)-(1*(1/3+0+1/6)+2*(0+0+0)+3*(1/6+0+1/3))^2)
p1003
asg5
V2016-10-30 20:14:38
p1004
sS'part14_incorrect_attempt'
p1005
(lp1006
(S'0:00:00'
p1007
V((1*1*(1/3))+(2*1*(0))+(3*1*(1/6))+(1*2*(0))+(2*2*(0))+(3*2*(0))+(1*3*(1/6))+(2*3*(0))+(3*3*(1/3))) / (1*(1/3+0+1/6)+4*(0+0+0)+9*(1/6+0+1/3)-(1*(1/3+0+1/6)+2*(0+0+0)+3*(1/6+0+1/3))^2)
p1008
tp1009
assg279
(dp1010
S'part14_correct_attempt'
p1011
(lp1012
S'0:00:00'
p1013
aV1/3
p1014
asg5
g293
sS'part14_incorrect_attempt'
p1015
(lp1016
(S'-1 day, 23:57:05'
p1017
V1/3
p1018
tp1019
a(S'0:00:00'
p1020
V1/3
p1021
tp1022
assg294
(dp1023
S'part14_correct_attempt'
p1024
(lp1025
S'0:00:00'
p1026
aV1/3
p1027
asg5
g311
sS'part14_incorrect_attempt'
p1028
(lp1029
(S'-1 day, 22:56:13'
p1030
V1/48
p1031
tp1032
a(S'-1 day, 22:59:16'
p1033
V1/12
p1034
tp1035
a(S'0:00:00'
p1036
V1/3
p1037
tp1038
assS'john_wishon'
p1039
(dp1040
S'part14_correct_attempt'
p1041
(lp1042
S'0:00:00'
p1043
aV1/3
p1044
asg5
V2016-11-02 02:44:53
p1045
sS'part14_incorrect_attempt'
p1046
(lp1047
(S'-1 day, 23:56:33'
p1048
V1/3
p1049
tp1050
a(S'0:00:00'
p1051
V1/3
p1052
tp1053
assg312
(dp1054
S'part14_correct_attempt'
p1055
(lp1056
S'0:00:00'
p1057
aV1/3
p1058
asg5
g323
sS'part14_incorrect_attempt'
p1059
(lp1060
(S'0:00:00'
p1061
V1/3
p1062
tp1063
assg324
(dp1064
S'part14_correct_attempt'
p1065
(lp1066
S'0:00:00'
p1067
aV1/3
p1068
asg5
g335
sS'part14_incorrect_attempt'
p1069
(lp1070
(S'0:00:00'
p1071
V1/3
p1072
tp1073
assg336
(dp1074
S'part14_correct_attempt'
p1075
(lp1076
S'0:00:00'
p1077
aV((13/3)-((1*3/6)+(2*0)+(3*3/6))^2)/((5-9/16)^1/2)*((5-9/16)^1/2)
p1078
asg5
g347
sS'part14_incorrect_attempt'
p1079
(lp1080
(S'-1 day, 23:53:36'
p1081
V((((3/6)+(2*0)+(3*3/6))^2)-(2*((3/6)+(2*0)+(3*3/6))))/((5-9/16)^1/2)*((5-9/16)^1/2)
p1082
tp1083
a(S'0:00:00'
p1084
V((13/3)-((1*3/6)+(2*0)+(3*3/6))^2)/((5-9/16)^1/2)*((5-9/16)^1/2)
p1085
tp1086
assg348
(dp1087
S'part14_correct_attempt'
p1088
(lp1089
S'0:00:00'
p1090
aV1/3
p1091
asg5
g365
sS'part14_incorrect_attempt'
p1092
(lp1093
(S'-1 day, 23:41:30'
p1094
V1/15
p1095
tp1096
a(S'-1 day, 23:44:51'
p1097
V1/9
p1098
tp1099
a(S'0:00:00'
p1100
V1/3
p1101
tp1102
assg366
(dp1103
S'part14_correct_attempt'
p1104
(lp1105
S'0:00:00'
p1106
aV1/3
p1107
asg5
g380
sS'part14_incorrect_attempt'
p1108
(lp1109
(S'-1 day, 23:56:59'
p1110
V2/11
p1111
tp1112
a(S'0:00:00'
p1113
V1/3
p1114
tp1115
assS'Joonhan'
p1116
(dp1117
S'part14_correct_attempt'
p1118
(lp1119
S'0:00:00'
p1120
aV((1*1/3)+(3*1/6)+(3*1/6)+(9*1/3))-4
p1121
asg5
g627
sS'part14_incorrect_attempt'
p1122
(lp1123
(S'-1 day, 23:57:24'
p1124
V(((1*1/3)+(3*1/6)+(3*1/6)+0+(9*1/3))/4)
p1125
tp1126
a(S'0:00:00'
p1127
V((1*1/3)+(3*1/6)+(3*1/6)+(9*1/3))-4
p1128
tp1129
assg393
(dp1130
S'part14_correct_attempt'
p1131
(lp1132
S'0:00:00'
p1133
aV(1/3)
p1134
asg5
g404
sS'part14_incorrect_attempt'
p1135
(lp1136
(S'0:00:00'
p1137
V(1/3)
p1138
tp1139
assg150
(dp1140
S'part14_correct_attempt'
p1141
(lp1142
S'0:00:00'
p1143
aV1/3
p1144
asg5
g167
sS'part14_incorrect_attempt'
p1145
(lp1146
(S'-1 day, 23:54:32'
p1147
V1/4
p1148
tp1149
a(S'-1 day, 23:57:48'
p1150
V1/6
p1151
tp1152
a(S'0:00:00'
p1153
V1/3
p1154
tp1155
assg413
(dp1156
S'part14_correct_attempt'
p1157
(lp1158
S'0:00:00'
p1159
aV(1/3)
p1160
asg5
g424
sS'part14_incorrect_attempt'
p1161
(lp1162
(S'0:00:00'
p1163
V(1/3)
p1164
tp1165
assg30
(dp1166
S'part14_correct_attempt'
p1167
(lp1168
S'0:00:00'
p1169
aV1/3
p1170
asg5
g37
sS'part14_incorrect_attempt'
p1171
(lp1172
(S'0:00:00'
p1173
V1/3
p1174
tp1175
assg425
(dp1176
S'part14_correct_attempt'
p1177
(lp1178
S'0:00:00'
p1179
aV1/3
p1180
asg5
g442
sS'part14_incorrect_attempt'
p1181
(lp1182
(S'-1 day, 23:55:01'
p1183
V1/3
p1184
tp1185
a(S'-1 day, 23:55:50'
p1186
V1/3
p1187
tp1188
a(S'0:00:00'
p1189
V1/3
p1190
tp1191
assg443
(dp1192
S'part14_correct_attempt'
p1193
(lp1194
S'0:00:00'
p1195
aV1/3
p1196
asg5
g457
sS'part14_incorrect_attempt'
p1197
(lp1198
(S'-1 day, 23:56:52'
p1199
V.3
p1200
tp1201
a(S'0:00:00'
p1202
V1/3
p1203
tp1204
assS'ray003'
p1205
(dp1206
S'part14_correct_attempt'
p1207
(lp1208
S'0:00:00'
p1209
aV(((1/3)*1+(1/6)*3+(1/6)*3+(1/3)*9)-((3/6)*1+(3/6)*3)^2)
p1210
asg5
g536
sS'part14_incorrect_attempt'
p1211
(lp1212
(S'0:00:00'
p1213
V(((1/3)*1+(1/6)*3+(1/6)*3+(1/3)*9)-((3/6)*1+(3/6)*3)^2)
p1214
tp1215
assg458
(dp1216
S'part14_correct_attempt'
p1217
(lp1218
S'0:00:00'
p1219
aV(1/3 + 1/2 + 1/2 + 3)-4
p1220
asg5
g469
sS'part14_incorrect_attempt'
p1221
(lp1222
(S'-1 day, 23:55:06'
p1223
V2/75
p1224
tp1225
a(S'0:00:00'
p1226
V(1/3 + 1/2 + 1/2 + 3)-4
p1227
tp1228
assg470
(dp1229
S'part14_correct_attempt'
p1230
(lp1231
S'0:00:00'
p1232
aV1/3
p1233
asg5
g481
sS'part14_incorrect_attempt'
p1234
(lp1235
(S'0:00:00'
p1236
V1/3
p1237
tp1238
assg482
(dp1239
S'part14_correct_attempt'
p1240
(lp1241
S'0:00:00'
p1242
aV1/3
p1243
asg5
g496
sS'part14_incorrect_attempt'
p1244
(lp1245
(S'-1 day, 23:59:01'
p1246
V1/3
p1247
tp1248
a(S'0:00:00'
p1249
V1/3
p1250
tp1251
assS'mninette'
p1252
(dp1253
S'part14_correct_attempt'
p1254
(lp1255
S'0:00:00'
p1256
aV1/3
p1257
asg5
V2016-10-31 18:15:45
p1258
sS'part14_incorrect_attempt'
p1259
(lp1260
(S'0:00:00'
p1261
V1/3
p1262
tp1263
assg497
(dp1264
S'part14_correct_attempt'
p1265
(lp1266
S'0:00:00'
p1267
aV1/3
p1268
asg5
g508
sS'part14_incorrect_attempt'
p1269
(lp1270
(S'0:00:00'
p1271
V1/3
p1272
tp1273
assS'kmesic'
p1274
(dp1275
S'part14_correct_attempt'
p1276
(lp1277
S'0:00:00'
p1278
aV(1/3)
p1279
asg5
V2016-11-01 17:33:19
p1280
sS'part14_incorrect_attempt'
p1281
(lp1282
(S'0:00:00'
p1283
V(1/3)
p1284
tp1285
assS'MattBowen96'
p1286
(dp1287
S'part14_correct_attempt'
p1288
(lp1289
S'0:01:18'
p1290
aV((1 * 1 * (1/3)) + (3 * 1 * (1/6)) + (3 * 1 * (1/6)) + (3 * 3 * (1/3)) - 4) / (2/3)
p1291
asg5
V2016-11-01 22:45:42
p1292
sS'part14_incorrect_attempt'
p1293
(lp1294
(S'0:00:00'
p1295
V(1/3) / (2/3)
p1296
tp1297
a(S'0:00:00'
p1298
V1/2
p1299
tp1300
assS'jar045'
p1301
(dp1302
S'part14_correct_attempt'
p1303
(lp1304
S'0:00:00'
p1305
aV (1*(1/3) + 2*0 + 3*(1/6) + 2*0 + 4*0 + 6*0 + 3*(1/6) + 6*(0) + 9*(1/3) - ( (1 * ((1/3) + (0) + (1/6)) + 2 * (0) + 3* ((1/6) + (0) + (1/3))) * (1 * ((1/3) + (0) + (1/6)) + 2 * (0) + 3* ((1/6) + (0) + (1/3))) ))
p1306
asg5
V2016-11-01 06:14:36
p1307
sS'part14_incorrect_attempt'
p1308
(lp1309
(S'-1 day, 23:20:58'
p1310
V1.01 / (1*1)
p1311
tp1312
a(S'-1 day, 23:46:25'
p1313
V(5/6) / (1 * 1)
p1314
tp1315
a(S'0:00:00'
p1316
V (1*(1/3) + 2*0 + 3*(1/6) + 2*0 + 4*0 + 6*0 + 3*(1/6) + 6*(0) + 9*(1/3) - ( (1 * ((1/3) + (0) + (1/6)) + 2 * (0) + 3* ((1/6) + (0) + (1/3))) * (1 * ((1/3) + (0) + (1/6)) + 2 * (0) + 3* ((1/6) + (0) + (1/3))) ))
p1317
tp1318
assg42
(dp1319
S'part14_correct_attempt'
p1320
(lp1321
S'0:00:00'
p1322
aV(1/3+3/6+3/6+3-(4*(1/3+1/6)*2))
p1323
asg5
g49
sS'part14_incorrect_attempt'
p1324
(lp1325
(S'0:00:00'
p1326
V(1/3+3/6+3/6+3-(4*(1/3+1/6)*2))
p1327
tp1328
assS'zhenzhai'
p1329
(dp1330
S'part14_correct_attempt'
p1331
(lp1332
S'0:11:13'
p1333
aV0.2*0.8
p1334
asg5
V2016-11-02 08:51:00
p1335
sS'part14_incorrect_attempt'
p1336
(lp1337
(S'0:00:00'
p1338
V0.3*0.2
p1339
tp1340
a(S'0:00:00'
p1341
V0.2*0.8
p1342
tp1343
asssS'1'
p1344
(dp1345
S'Nikan_Aminian'
p1346
(dp1347
g5
V2016-11-02 20:31:06
p1348
sS'part1_incorrect_attempt'
p1349
(lp1350
(S'0:00:00'
p1351
V1/3
p1352
tp1353
asssS'3'
p1354
(dp1355
g1346
(dp1356
S'part3_incorrect_attempt'
p1357
(lp1358
(S'0:00:00'
p1359
V1/3
p1360
tp1361
asg5
V2016-11-02 20:31:06
p1362
sssS'2'
p1363
(dp1364
S'Ryan_Yi'
p1365
(dp1366
S'part2_correct_attempt'
p1367
(lp1368
S'0:00:00'
p1369
aV0+0+0
p1370
asg5
V2016-10-29 23:39:38
p1371
sS'part2_incorrect_attempt'
p1372
(lp1373
(S'0:00:00'
p1374
V0+0+0
p1375
tp1376
assg1301
(dp1377
S'part2_correct_attempt'
p1378
(lp1379
S'0:00:00'
p1380
aV0
p1381
asg5
g1307
sS'part2_incorrect_attempt'
p1382
(lp1383
(S'-1 day, 23:20:58'
p1384
V0 + 0 + 0
p1385
tp1386
a(S'-1 day, 23:46:25'
p1387
V0 
p1388
tp1389
a(S'-1 day, 23:52:24'
p1390
V0 
p1391
tp1392
assg3
(dp1393
S'part2_correct_attempt'
p1394
(lp1395
S'0:00:00'
p1396
aV0
p1397
asg5
g6
sS'part2_incorrect_attempt'
p1398
(lp1399
(S'-1 day, 19:09:49'
p1400
V0+0+0
p1401
tp1402
a(S'-1 day, 23:55:20'
p1403
V0+0+0
p1404
tp1405
assS'cameronEllis'
p1406
(dp1407
g5
V2016-11-02 19:54:10
p1408
sS'part2_incorrect_attempt'
p1409
(lp1410
(S'0:00:00'
p1411
V(0)+(0)+(0)
p1412
tp1413
asssS'5'
p1414
(dp1415
g1365
(dp1416
S'part5_correct_attempt'
p1417
(lp1418
S'0:00:00'
p1419
aV0+0+0
p1420
asS'part5_incorrect_attempt'
p1421
(lp1422
(S'0:00:00'
p1423
V0+0+0
p1424
tp1425
asg5
g1371
ssg1301
(dp1426
S'part5_correct_attempt'
p1427
(lp1428
S'0:00:00'
p1429
aV0 
p1430
asS'part5_incorrect_attempt'
p1431
(lp1432
(S'-1 day, 23:20:58'
p1433
V0 + 0 + 0
p1434
tp1435
a(S'0:00:00'
p1436
V0 
p1437
tp1438
asg5
g1307
ssg3
(dp1439
S'part5_correct_attempt'
p1440
(lp1441
S'0:00:00'
p1442
aV0
p1443
asS'part5_incorrect_attempt'
p1444
(lp1445
(S'-1 day, 19:09:49'
p1446
V0+0+0
p1447
tp1448
a(S'-1 day, 23:55:20'
p1449
V0+0+0
p1450
tp1451
asg5
g6
ssg1406
(dp1452
S'part5_incorrect_attempt'
p1453
(lp1454
(S'0:00:00'
p1455
V(0)+(0)+(0)
p1456
tp1457
asg5
V2016-11-02 19:54:10
p1458
sssS'4'
p1459
(dp1460
g1346
(dp1461
S'part4_incorrect_attempt'
p1462
(lp1463
(S'0:00:00'
p1464
V1/3
p1465
tp1466
asg5
V2016-11-02 20:31:06
p1467
sssS'7'
p1468
(dp1469
sS'6'
p1470
(dp1471
g1346
(dp1472
S'part6_incorrect_attempt'
p1473
(lp1474
(S'0:00:00'
p1475
V1/3
p1476
tp1477
asg5
V2016-11-02 20:31:06
p1478
sssS'9'
p1479
(dp1480
g18
(dp1481
S'part9_correct_attempt'
p1482
(lp1483
S'0:00:00'
p1484
aV12/6
p1485
asg5
g25
sS'part9_incorrect_attempt'
p1486
(lp1487
(S'0:00:00'
p1488
V12/6
p1489
tp1490
assg30
(dp1491
S'part9_correct_attempt'
p1492
(lp1493
S'0:00:00'
p1494
aV4*(1/6+1/3)
p1495
asg5
g37
sS'part9_incorrect_attempt'
p1496
(lp1497
(S'0:00:00'
p1498
V4*(1/6+1/3)
p1499
tp1500
assg42
(dp1501
S'part9_correct_attempt'
p1502
(lp1503
S'0:00:00'
p1504
aV4*(1/3+1/6)
p1505
asg5
g49
sS'part9_incorrect_attempt'
p1506
(lp1507
(S'0:00:00'
p1508
V4*(1/3+1/6)
p1509
tp1510
asssS'8'
p1511
(dp1512
s.