(dp0
S'1'
p1
(dp2
S'codyndoan'
p3
(dp4
S'part1_correct_attempt'
p5
(lp6
S'0:10:45'
p7
aV(112*.5)/.4
p8
asS'first_attempt'
p9
V2016-11-02 18:22:00
p10
sS'part1_incorrect_attempt'
p11
(lp12
(S'0:00:00'
p13
V(1/2)/194
p14
tp15
a(S'0:02:37'
p16
V(186)/.6
p17
tp18
assS'chenboy3'
p19
(dp20
S'part1_correct_attempt'
p21
(lp22
S'0:01:10'
p23
aV161.25
p24
asg9
V2016-11-01 03:12:01
p25
sS'part1_incorrect_attempt'
p26
(lp27
(S'0:00:00'
p28
V91.7
p29
tp30
assS'zkvick'
p31
(dp32
g9
V2016-11-01 20:20:50
p33
sS'part1_incorrect_attempt'
p34
(lp35
(S'0:00:00'
p36
V.5/.9
p37
tp38
a(S'0:01:27'
p39
V.2*119
p40
tp41
assS'vincebai'
p42
(dp43
S'part1_correct_attempt'
p44
(lp45
S'0:19:49'
p46
aV264
p47
asg9
V2016-11-01 07:31:48
p48
sS'part1_incorrect_attempt'
p49
(lp50
(S'0:00:00'
p51
V188.75
p52
tp53
a(S'0:16:16'
p54
V217.45714
p55
tp56
assS'christhoperbernard'
p57
(dp58
S'part1_correct_attempt'
p59
(lp60
S'0:38:07'
p61
aV270
p62
asg9
V2016-11-02 19:16:53
p63
sS'part1_incorrect_attempt'
p64
(lp65
(S'0:00:00'
p66
V0.6
p67
tp68
a(S'0:00:26'
p69
V0.4
p70
tp71
a(S'0:08:22'
p72
V172.5
p73
tp74
a(S'0:20:10'
p75
V352.5
p76
tp77
assS'AlexM'
p78
(dp79
S'part1_correct_attempt'
p80
(lp81
S'0:42:00'
p82
aV0.8*171/0.5
p83
asg9
V2016-11-02 07:37:23
p84
sS'part1_incorrect_attempt'
p85
(lp86
(S'0:00:00'
p87
V102/0.7
p88
tp89
a(S'0:04:22'
p90
V154*0.7^-1
p91
tp92
assS'zow006'
p93
(dp94
S'part1_correct_attempt'
p95
(lp96
S'0:05:36'
p97
aV75/0.4
p98
asg9
V2016-11-01 22:25:40
p99
sS'part1_incorrect_attempt'
p100
(lp101
(S'0:00:00'
p102
V149/0.7
p103
tp104
assS'Alix'
p105
(dp106
g9
V2016-11-01 05:00:28
p107
sS'part1_incorrect_attempt'
p108
(lp109
(S'0:00:00'
p110
V.5/.7
p111
tp112
a(S'0:06:56'
p113
V129*.5
p114
tp115
assS'john_wishon'
p116
(dp117
g9
V2016-11-02 20:26:07
p118
sS'part1_incorrect_attempt'
p119
(lp120
(S'0:00:00'
p121
V.6(144)
p122
tp123
a(S'0:00:24'
p124
V.4(169)
p125
tp126
a(S'0:03:21'
p127
V2*176
p128
tp129
a(S'0:03:42'
p130
V2*176
p131
tp132
assS'JiangfengYin'
p133
(dp134
S'part1_correct_attempt'
p135
(lp136
S'0:08:49'
p137
aV175*0.7/0.5
p138
asg9
V2016-11-02 00:25:10
p139
sS'part1_incorrect_attempt'
p140
(lp141
(S'0:00:00'
p142
V191.43
p143
tp144
a(S'0:05:51'
p145
V186*0.7
p146
tp147
assS'Guillermo'
p148
(dp149
S'part1_correct_attempt'
p150
(lp151
S'0:01:29'
p152
aV((.8)*(180))/(.5)
p153
asg9
V2016-10-29 19:42:54
p154
sS'part1_incorrect_attempt'
p155
(lp156
(S'0:00:00'
p157
V184.6
p158
tp159
assS'jewidjaj'
p160
(dp161
S'part1_correct_attempt'
p162
(lp163
S'0:13:10'
p164
aV220.5
p165
asg9
V2016-11-02 06:04:31
p166
sS'part1_incorrect_attempt'
p167
(lp168
(S'0:00:00'
p169
V0.4/0.6
p170
tp171
a(S'0:06:05'
p172
V77.3333333333
p173
tp174
a(S'0:09:11'
p175
V142.142857143
p176
tp177
assS'TianhaoQiu'
p178
(dp179
S'part1_correct_attempt'
p180
(lp181
S'0:01:50'
p182
aV173/0.4*0.6
p183
asg9
V2016-11-02 18:54:08
p184
sS'part1_incorrect_attempt'
p185
(lp186
(S'0:00:00'
p187
V194*0.6
p188
tp189
a(S'0:01:04'
p190
V138*0.7
p191
tp192
assS'Riyang'
p193
(dp194
S'part1_correct_attempt'
p195
(lp196
S'0:18:18'
p197
aV0.6*111/0.4
p198
asg9
V2016-11-01 20:46:40
p199
sS'part1_incorrect_attempt'
p200
(lp201
(S'0:00:00'
p202
V137.6
p203
tp204
assS'Lpascual'
p205
(dp206
S'part1_correct_attempt'
p207
(lp208
S'0:37:02'
p209
aV152.6
p210
asg9
V2016-11-02 01:21:33
p211
sS'part1_incorrect_attempt'
p212
(lp213
(S'0:00:00'
p214
V.5/.6
p215
tp216
a(S'0:01:00'
p217
V4/5
p218
tp219
a(S'0:03:28'
p220
V0.5/0.8
p221
tp222
assS'ThuanNguyen'
p223
(dp224
S'part1_correct_attempt'
p225
(lp226
S'0:52:46'
p227
aV197.75
p228
asg9
V2016-11-02 03:15:33
p229
sS'part1_incorrect_attempt'
p230
(lp231
(S'0:00:00'
p232
V116.4
p233
tp234
assS'tommyt1109'
p235
(dp236
S'part1_correct_attempt'
p237
(lp238
S'0:41:50'
p239
aV(.8*193)/.5
p240
asg9
V2016-11-02 05:47:04
p241
sS'part1_incorrect_attempt'
p242
(lp243
(S'0:00:00'
p244
V115.2
p245
tp246
a(S'0:23:57'
p247
V.4*130
p248
tp249
a(S'0:39:29'
p250
V154/.6
p251
tp252
asssS'2'
p253
(dp254
g19
(dp255
S'part2_correct_attempt'
p256
(lp257
S'0:00:00'
p258
aV372 * 0.4 / 260
p259
asg9
V2016-11-01 03:13:11
p260
sS'part2_incorrect_attempt'
p261
(lp262
(S'-1 day, 23:58:50'
p263
V0.73
p264
tp265
assS'NicoleStone'
p266
(dp267
S'part2_correct_attempt'
p268
(lp269
S'0:00:00'
p270
aV(.5*308)/266
p271
asg9
V2016-11-02 18:28:31
p272
sS'part2_incorrect_attempt'
p273
(lp274
(S'-1 day, 23:47:59'
p275
V.593
p276
tp277
assS'vincebai'
p278
(dp279
S'part2_correct_attempt'
p280
(lp281
S'0:00:00'
p282
aV140/279
p283
asg9
V2016-11-01 07:51:37
p284
sS'part2_incorrect_attempt'
p285
(lp286
(S'-1 day, 23:58:54'
p287
V273/449
p288
tp289
assS'christhoperbernard'
p290
(dp291
S'part2_correct_attempt'
p292
(lp293
S'0:00:00'
p294
aV0.64775087
p295
asg9
V2016-11-02 19:55:00
p296
sS'part2_incorrect_attempt'
p297
(lp298
(S'-1 day, 23:58:11'
p299
V0.686
p300
tp301
assS'kmesic'
p302
(dp303
S'part2_correct_attempt'
p304
(lp305
S'0:00:00'
p306
aV(489* .5)/(297)
p307
asg9
V2016-11-01 17:48:55
p308
sS'part2_incorrect_attempt'
p309
(lp310
(S'-1 day, 23:54:48'
p311
V0.78
p312
tp313
assS'Alix'
p314
(dp315
S'part2_correct_attempt'
p316
(lp317
S'0:07:34'
p318
aV271/349
p319
asg9
V2016-11-01 05:01:42
p320
sS'part2_incorrect_attempt'
p321
(lp322
(S'0:00:00'
p323
V286/412
p324
tp325
a(S'0:00:00'
p326
V280/348
p327
tp328
a(S'0:00:00'
p329
V.5/.8
p330
tp331
a(S'0:00:00'
p332
V271/349
p333
tp334
assS'Ankush_Sarow'
p335
(dp336
S'part2_correct_attempt'
p337
(lp338
S'0:00:00'
p339
aV349*0.4/254
p340
asg9
V2016-11-01 22:48:19
p341
sS'part2_incorrect_attempt'
p342
(lp343
(S'-1 day, 23:55:55'
p344
V0.44
p345
tp346
assS'DannyDelCerro'
p347
(dp348
S'part2_correct_attempt'
p349
(lp350
S'0:00:00'
p351
aV.6
p352
asg9
V2016-11-02 01:07:57
p353
sS'part2_incorrect_attempt'
p354
(lp355
(S'0:00:00'
p356
V.6
p357
tp358
assg178
(dp359
S'part2_correct_attempt'
p360
(lp361
S'0:00:00'
p362
aV340*0.4/297
p363
asg9
V2016-11-02 18:55:58
p364
sS'part2_incorrect_attempt'
p365
(lp366
(S'-1 day, 23:58:10'
p367
V266/377
p368
tp369
assS'ThuanNguyen'
p370
(dp371
S'part2_correct_attempt'
p372
(lp373
S'0:00:00'
p374
aV96/155
p375
asg9
V2016-11-02 04:08:19
p376
sS'part2_incorrect_attempt'
p377
(lp378
(S'-1 day, 23:28:18'
p379
V0.427
p380
tp381
a(S'-1 day, 23:31:57'
p382
V0.73
p383
tp384
a(S'-1 day, 23:58:22'
p385
V0.51
p386
tp387
asss.