(dp0
V1
p1
(dp2
Vdlgoldbe
p3
(dp4
S'part1_correct_attempt'
p5
(lp6
S'0:17:15'
p7
aV4*(4*2)
p8
asS'first_attempt'
p9
V2015-10-22 15:34:09
p10
sS'part1_incorrect_attempt'
p11
(lp12
(S'0:00:00'
p13
V47!/(2!*45!)
p14
tp15
a(S'0:03:16'
p16
V2*(47!/(2!*45!))
p17
tp18
assVkthui
p19
(dp20
S'part1_correct_attempt'
p21
(lp22
S'0:03:52'
p23
aV4*(4+4)
p24
asg9
V2015-10-18 06:46:12
p25
sS'part1_incorrect_attempt'
p26
(lp27
(S'0:00:00'
p28
V5!
p29
tp30
assVttimmons
p31
(dp32
S'part1_correct_attempt'
p33
(lp34
S'0:02:31'
p35
aV4*8
p36
asg9
V2015-10-20 17:26:21
p37
sS'part1_incorrect_attempt'
p38
(lp39
(S'0:00:00'
p40
V3*4
p41
tp42
a(S'0:00:43'
p43
VC(12,3)
p44
tp45
a(S'0:01:22'
p46
V12^3
p47
tp48
a(S'0:01:30'
p49
V12*11*10
p50
tp51
a(S'0:01:47'
p52
V12*8*4
p53
tp54
assVabjara
p55
(dp56
S'part1_correct_attempt'
p57
(lp58
S'13:34:14'
p59
aV32
p60
asg9
V2015-10-21 09:36:48
p61
sS'part1_incorrect_attempt'
p62
(lp63
(S'0:00:00'
p64
V43!/(2!41!)
p65
tp66
assVjag028
p67
(dp68
S'part1_correct_attempt'
p69
(lp70
S'2:25:46'
p71
aV32
p72
asg9
V2015-10-22 14:40:06
p73
sS'part1_incorrect_attempt'
p74
(lp75
(S'0:00:00'
p76
VC(47,2)
p77
tp78
a(S'0:00:21'
p79
V47!
p80
tp81
a(S'0:00:00'
p82
V8!
p83
tp84
a(S'0:01:29'
p85
V4*4*4
p86
tp87
assVakhmelni
p88
(dp89
S'part1_correct_attempt'
p90
(lp91
S'0:10:16'
p92
aV32
p93
asg9
V2015-10-22 22:09:43
p94
sS'part1_incorrect_attempt'
p95
(lp96
(S'0:00:00'
p97
V4*4*4
p98
tp99
a(S'0:09:48'
p100
V32*C(47,2)
p101
tp102
assVt2shin
p103
(dp104
S'part1_correct_attempt'
p105
(lp106
S'0:00:26'
p107
aV4*8
p108
asg9
V2015-10-22 20:28:42
p109
sS'part1_incorrect_attempt'
p110
(lp111
(S'0:00:00'
p112
V4*4*4
p113
tp114
assVvsamant
p115
(dp116
S'part1_correct_attempt'
p117
(lp118
S'0:01:02'
p119
aV4*8
p120
asg9
V2015-10-21 18:32:35
p121
sS'part1_incorrect_attempt'
p122
(lp123
(S'0:00:00'
p124
V(C(12,1)*4)(C(12,1)*4+C(12,1)*4)
p125
tp126
assVdan029
p127
(dp128
S'part1_correct_attempt'
p129
(lp130
S'0:00:21'
p131
aV32
p132
asg9
V2015-10-22 00:02:59
p133
sS'part1_incorrect_attempt'
p134
(lp135
(S'0:00:00'
p136
V47*46
p137
tp138
assVglcohen
p139
(dp140
S'part1_correct_attempt'
p141
(lp142
S'0:00:15'
p143
aV4*8
p144
asg9
V2015-10-17 23:46:34
p145
sS'part1_incorrect_attempt'
p146
(lp147
(S'0:00:00'
p148
V(C(4,1) * C(47,1)) * (C(8,1) *C(47,1))
p149
tp150
assVjguanzho
p151
(dp152
S'part1_correct_attempt'
p153
(lp154
S'6:38:05'
p155
aV4*8
p156
asg9
V2015-10-16 20:17:25
p157
sS'part1_incorrect_attempt'
p158
(lp159
(S'0:00:00'
p160
V4!/3!
p161
tp162
a(S'0:01:36'
p163
V48!/(3!*45!)
p164
tp165
a(S'0:02:15'
p166
V48!/(47!) + 47!/(45!*2!)
p167
tp168
assVdgunawan
p169
(dp170
S'part1_correct_attempt'
p171
(lp172
S'18:53:18'
p173
aVC(4, 1)C(8, 1)
p174
asg9
V2015-10-21 06:25:41
p175
sS'part1_incorrect_attempt'
p176
(lp177
(S'0:00:00'
p178
V12!
p179
tp180
assVj6quach
p181
(dp182
S'part1_correct_attempt'
p183
(lp184
S'0:09:36'
p185
aV32
p186
asg9
V2015-10-22 17:41:58
p187
sS'part1_incorrect_attempt'
p188
(lp189
(S'0:00:00'
p190
VC(12,2)
p191
tp192
assVskarimik
p193
(dp194
S'part1_correct_attempt'
p195
(lp196
S'0:01:27'
p197
aV4*2*4
p198
asg9
V2015-10-17 20:21:14
p199
sS'part1_incorrect_attempt'
p200
(lp201
(S'0:00:00'
p202
V4*4*4
p203
tp204
assVrwthomps
p205
(dp206
S'part1_correct_attempt'
p207
(lp208
S'0:02:39'
p209
aV32
p210
asg9
V2015-10-20 22:27:40
p211
sS'part1_incorrect_attempt'
p212
(lp213
(S'0:00:00'
p214
VC(3, 2)
p215
tp216
assVjjm019
p217
(dp218
S'part1_correct_attempt'
p219
(lp220
S'3:44:37'
p221
aV32
p222
asg9
V2015-10-21 23:12:13
p223
sS'part1_incorrect_attempt'
p224
(lp225
(S'0:00:00'
p226
VC(52,2)
p227
tp228
assVpcdo
p229
(dp230
S'part1_correct_attempt'
p231
(lp232
S'0:05:13'
p233
aV4*8
p234
asg9
V2015-10-19 07:11:38
p235
sS'part1_incorrect_attempt'
p236
(lp237
(S'0:00:00'
p238
VC(50,3)
p239
tp240
assVr1gu
p241
(dp242
S'part1_correct_attempt'
p243
(lp244
S'0:01:40'
p245
aV4*8
p246
asg9
V2015-10-22 10:51:52
p247
sS'part1_incorrect_attempt'
p248
(lp249
(S'0:00:00'
p250
V3*4^2
p251
tp252
assVctgraves
p253
(dp254
S'part1_correct_attempt'
p255
(lp256
S'0:01:23'
p257
aV4*(8)
p258
asg9
V2015-10-21 01:25:25
p259
sS'part1_incorrect_attempt'
p260
(lp261
(S'0:00:00'
p262
V4*4*4
p263
tp264
a(S'0:00:40'
p265
V4^3*2
p266
tp267
assVk5law
p268
(dp269
S'part1_correct_attempt'
p270
(lp271
S'0:02:24'
p272
aV4*(8)
p273
asg9
V2015-10-19 06:22:53
p274
sS'part1_incorrect_attempt'
p275
(lp276
(S'0:00:00'
p277
V13!/(2!11!)
p278
tp279
a(S'0:01:39'
p280
V[47!/(4!43!)]*[43!/(8!35!)]
p281
tp282
assVbeyounge
p283
(dp284
S'part1_correct_attempt'
p285
(lp286
S'0:03:40'
p287
aVC(4,1)*(C(8,1))
p288
asg9
V2015-10-17 05:05:18
p289
sS'part1_incorrect_attempt'
p290
(lp291
(S'0:00:00'
p292
VC(12,2)
p293
tp294
assVj5phung
p295
(dp296
S'part1_correct_attempt'
p297
(lp298
S'0:03:31'
p299
aV4*8
p300
asg9
V2015-10-16 17:04:57
p301
sS'part1_incorrect_attempt'
p302
(lp303
(S'0:00:00'
p304
VC(47,3)
p305
tp306
a(S'0:00:17'
p307
VC(47,12)
p308
tp309
a(S'0:00:48'
p310
VC(12,2)
p311
tp312
a(S'0:01:04'
p313
V12*11
p314
tp315
assVp4kumar
p316
(dp317
S'part1_correct_attempt'
p318
(lp319
S'4:09:32'
p320
aV4*8
p321
asg9
V2015-10-22 17:48:18
p322
sS'part1_incorrect_attempt'
p323
(lp324
(S'0:00:00'
p325
VC(52 - 5, 2)
p326
tp327
a(S'0:00:32'
p328
VC(52 - 5, 2) * 2
p329
tp330
a(S'0:00:59'
p331
VC(52, 1)
p332
tp333
a(S'0:01:04'
p334
VC(52, 2)
p335
tp336
a(S'0:00:00'
p337
VC(3 * 4, 2)
p338
tp339
a(S'0:00:27'
p340
VC(52 - 5, 2) - C(52 - 5 - 3 * 4, 2)
p341
tp342
a(S'0:01:21'
p343
VC( 2 * 4, 2)
p344
tp345
a(S'0:09:10'
p346
VP(3 * 4, 2)
p347
tp348
a(S'0:09:40'
p349
VP(3 * 4, 1)
p350
tp351
a(S'0:09:46'
p352
VP(3 * 4, 3)
p353
tp354
a(S'0:09:52'
p355
VP(3 * 4, 2)
p356
tp357
a(S'0:11:24'
p358
VP(3 * 3, 2)
p359
tp360
assVs2chaudh
p361
(dp362
S'part1_correct_attempt'
p363
(lp364
S'1 day, 21:45:33'
p365
aV4*4+4*4
p366
asg9
V2015-10-20 19:45:56
p367
sS'part1_incorrect_attempt'
p368
(lp369
(S'0:00:00'
p370
VC(4,1)^2*C(13,1)^2
p371
tp372
assVjmiclat
p373
(dp374
g9
V2015-10-19 23:21:31
p375
sS'part1_incorrect_attempt'
p376
(lp377
(S'0:00:00'
p378
V(47*13)
p379
tp380
a(S'0:00:00'
p381
V(47*23)
p382
tp383
assVksmurlo
p384
(dp385
S'part1_correct_attempt'
p386
(lp387
S'0:03:36'
p388
aV4*16/2
p389
asg9
V2015-10-20 23:39:10
p390
sS'part1_incorrect_attempt'
p391
(lp392
(S'0:00:00'
p393
V16*4
p394
tp395
assVhaw081
p396
(dp397
S'part1_correct_attempt'
p398
(lp399
S'0:08:02'
p400
aV4*(4+4)
p401
asg9
V2015-10-18 06:40:17
p402
sS'part1_incorrect_attempt'
p403
(lp404
(S'0:00:00'
p405
VC(52-5,3)
p406
tp407
a(S'0:00:26'
p408
VC(13,3)
p409
tp410
a(S'0:04:05'
p411
VC(13,1)C(4,1)(C(13,1)C(4,1) + C(13,1)C(4,1))
p412
tp413
a(S'0:04:23'
p414
VC(13,1)C(4,1)+(C(13,1)C(4,1) + C(13,1)C(4,1))
p415
tp416
assVvqt004
p417
(dp418
S'part1_correct_attempt'
p419
(lp420
S'0:09:01'
p421
aV4*8
p422
asg9
V2015-10-22 12:51:24
p423
sS'part1_incorrect_attempt'
p424
(lp425
(S'0:00:00'
p426
VC(44,2)
p427
tp428
a(S'0:02:25'
p429
VC(47,2)
p430
tp431
a(S'0:04:54'
p432
VC(3,2)
p433
tp434
a(S'0:05:20'
p435
VC(12,2)
p436
tp437
a(S'0:07:34'
p438
VC(3,2)*4
p439
tp440
assVhak014
p441
(dp442
S'part1_correct_attempt'
p443
(lp444
S'2:23:00'
p445
aV32
p446
asg9
V2015-10-19 22:12:55
p447
sS'part1_incorrect_attempt'
p448
(lp449
(S'0:00:00'
p450
VC(47, 12)
p451
tp452
assVk4ma
p453
(dp454
S'part1_correct_attempt'
p455
(lp456
S'0:30:39'
p457
aV32
p458
asg9
V2015-10-22 02:28:20
p459
sS'part1_incorrect_attempt'
p460
(lp461
(S'0:00:00'
p462
VC(47,2)
p463
tp464
a(S'0:00:28'
p465
VC(12,2)
p466
tp467
a(S'0:04:43'
p468
V16*4
p469
tp470
assVrlhagen
p471
(dp472
S'part1_correct_attempt'
p473
(lp474
S'0:04:07'
p475
aV4*8
p476
asg9
V2015-10-18 17:28:22
p477
sS'part1_incorrect_attempt'
p478
(lp479
(S'0:00:00'
p480
V47*46
p481
tp482
a(S'0:00:46'
p483
V47!/(2!(47-2)!)
p484
tp485
a(S'0:03:09'
p486
V47!/((47-2)!)
p487
tp488
assVganajera
p489
(dp490
S'part1_correct_attempt'
p491
(lp492
S'0:00:57'
p493
aV4*2*4
p494
asg9
V2015-10-16 02:14:14
p495
sS'part1_incorrect_attempt'
p496
(lp497
(S'0:00:00'
p498
V4*2*4*4
p499
tp500
assVacs008
p501
(dp502
g9
V2015-10-22 04:17:43
p503
sS'part1_incorrect_attempt'
p504
(lp505
(S'0:00:00'
p506
V270725+752538150
p507
tp508
a(S'0:00:05'
p509
V270725*752538150
p510
tp511
assVm4bui
p512
(dp513
S'part1_correct_attempt'
p514
(lp515
S'0:02:26'
p516
aV2*4^2
p517
asg9
V2015-10-22 21:31:04
p518
sS'part1_incorrect_attempt'
p519
(lp520
(S'0:00:00'
p521
V3*4^2
p522
tp523
assVkalang
p524
(dp525
S'part1_correct_attempt'
p526
(lp527
S'0:05:55'
p528
aV4*8
p529
asg9
V2015-10-22 02:45:51
p530
sS'part1_incorrect_attempt'
p531
(lp532
(S'0:00:00'
p533
VC(52-5,4) + C(52-6,8)
p534
tp535
a(S'0:00:10'
p536
VC(52-5,4)
p537
tp538
a(S'0:00:57'
p539
V4+4+4
p540
tp541
a(S'0:03:51'
p542
VC(47,4)
p543
tp544
a(S'0:04:04'
p545
VC(12,2)
p546
tp547
a(S'0:05:43'
p548
V4*4*4
p549
tp550
assVjcl084
p551
(dp552
S'part1_correct_attempt'
p553
(lp554
S'0:08:30'
p555
aV4*8
p556
asg9
V2015-10-20 02:57:58
p557
sS'part1_incorrect_attempt'
p558
(lp559
(S'0:00:00'
p560
V3*4^2
p561
tp562
assVatorr
p563
(dp564
S'part1_correct_attempt'
p565
(lp566
S'1 day, 1:55:43'
p567
aV32
p568
asg9
V2015-10-21 21:55:59
p569
sS'part1_incorrect_attempt'
p570
(lp571
(S'0:00:00'
p572
V47^3
p573
tp574
a(S'0:00:21'
p575
V44^3
p576
tp577
a(S'0:00:00'
p578
V2 * 47
p579
tp580
a(S'0:00:26'
p581
VC(50,2)
p582
tp583
a(S'0:00:30'
p584
VC(50,3)
p585
tp586
a(S'0:00:40'
p587
VC(3,2)
p588
tp589
a(S'0:01:18'
p590
VC(52-5,2)
p591
tp592
a(S'0:01:23'
p593
VC(52-5,3)
p594
tp595
assVdcrume
p596
(dp597
S'part1_correct_attempt'
p598
(lp599
S'0:02:32'
p600
aV4*8
p601
asg9
V2015-10-21 19:33:11
p602
sS'part1_incorrect_attempt'
p603
(lp604
(S'0:00:00'
p605
V3!
p606
tp607
assVjdeon
p608
(dp609
S'part1_correct_attempt'
p610
(lp611
S'0:01:56'
p612
aV2*4*4
p613
asg9
V2015-10-22 02:36:20
p614
sS'part1_incorrect_attempt'
p615
(lp616
(S'0:00:00'
p617
V3*4*4*4
p618
tp619
a(S'0:01:37'
p620
V3*4*4
p621
tp622
assVt1tran
p623
(dp624
S'part1_correct_attempt'
p625
(lp626
S'0:02:51'
p627
aVC(2,1)C(4,1)^2
p628
asg9
V2015-10-18 02:29:34
p629
sS'part1_incorrect_attempt'
p630
(lp631
(S'0:00:00'
p632
VC(3,2)C(4,1)^2
p633
tp634
a(S'0:00:45'
p635
VC(13,2)C(4,1)^2
p636
tp637
assValhung
p638
(dp639
S'part1_correct_attempt'
p640
(lp641
S'0:06:52'
p642
aV4*(4+4)
p643
asg9
V2015-10-22 17:39:34
p644
sS'part1_incorrect_attempt'
p645
(lp646
(S'0:00:00'
p647
VC(47,4)
p648
tp649
a(S'0:00:13'
p650
VC(47,4)-C(43,4)
p651
tp652
a(S'0:00:41'
p653
VC(47,4)-C(46,4)
p654
tp655
a(S'0:00:00'
p656
VP(47,4)
p657
tp658
assVapokhare
p659
(dp660
S'part1_correct_attempt'
p661
(lp662
S'0:00:42'
p663
aV8*4
p664
asg9
V2015-10-21 17:44:44
p665
sS'part1_incorrect_attempt'
p666
(lp667
(S'0:00:00'
p668
VC(8,4)
p669
tp670
a(S'0:00:13'
p671
VC(5,3)
p672
tp673
a(S'0:00:32'
p674
VC(5,2)
p675
tp676
assVavasavad
p677
(dp678
S'part1_correct_attempt'
p679
(lp680
S'22:42:13'
p681
aV16 * 2
p682
asg9
V2015-10-21 20:19:21
p683
sS'part1_incorrect_attempt'
p684
(lp685
(S'0:00:00'
p686
V3!
p687
tp688
assVtcuddy
p689
(dp690
S'part1_correct_attempt'
p691
(lp692
S'2:37:15'
p693
aV4(4+4)
p694
asg9
V2015-10-17 17:54:53
p695
sS'part1_incorrect_attempt'
p696
(lp697
(S'0:00:00'
p698
V12!/[3!(9!)]
p699
tp700
assVl8ngo
p701
(dp702
S'part1_correct_attempt'
p703
(lp704
S'3:24:48'
p705
aV2*[4**2]
p706
asg9
V2015-10-21 17:49:59
p707
sS'part1_incorrect_attempt'
p708
(lp709
(S'0:00:00'
p710
V[52-5]!/[2![52-5-2]!]
p711
tp712
a(S'0:02:15'
p713
V47!/[2!45!]
p714
tp715
assVajabasa
p716
(dp717
S'part1_correct_attempt'
p718
(lp719
S'0:00:14'
p720
aV4*8
p721
asg9
V2015-10-22 02:06:43
p722
sS'part1_incorrect_attempt'
p723
(lp724
(S'0:00:00'
p725
V4*4*4
p726
tp727
assVmcatozzi
p728
(dp729
S'part1_correct_attempt'
p730
(lp731
S'0:00:28'
p732
aV32
p733
asg9
V2015-10-20 22:46:27
p734
sS'part1_incorrect_attempt'
p735
(lp736
(S'0:00:00'
p737
V52*52
p738
tp739
assVw4shin
p740
(dp741
S'part1_correct_attempt'
p742
(lp743
S'0:02:35'
p744
aV4*8
p745
asg9
V2015-10-18 22:49:55
p746
sS'part1_incorrect_attempt'
p747
(lp748
(S'0:00:00'
p749
V(4*8)/2
p750
tp751
assVsayao
p752
(dp753
S'part1_correct_attempt'
p754
(lp755
S'0:02:23'
p756
aV32
p757
asg9
V2015-10-21 16:30:52
p758
sS'part1_incorrect_attempt'
p759
(lp760
(S'0:00:00'
p761
V4*4*4
p762
tp763
a(S'0:01:44'
p764
V4^4+4^4
p765
tp766
assVtjke
p767
(dp768
S'part1_correct_attempt'
p769
(lp770
S'0:01:42'
p771
aV4*8
p772
asg9
V2015-10-17 23:35:05
p773
sS'part1_incorrect_attempt'
p774
(lp775
(S'0:00:00'
p776
V4!*4!
p777
tp778
a(S'0:00:24'
p779
VC(8,2)
p780
tp781
a(S'0:01:16'
p782
V4*C(2,1)*8
p783
tp784
assVcsl030
p785
(dp786
S'part1_correct_attempt'
p787
(lp788
S'0:50:52'
p789
aV4 * 4 * 2
p790
asg9
V2015-10-22 02:21:53
p791
sS'part1_incorrect_attempt'
p792
(lp793
(S'0:00:00'
p794
V4 + 4 + 4 + 4
p795
tp796
a(S'0:00:00'
p797
V4 * 4 * 4
p798
tp799
assVdpereira
p800
(dp801
S'part1_correct_attempt'
p802
(lp803
S'0:00:07'
p804
aV4 * 4 + 4*4
p805
asg9
V2015-10-19 06:14:38
p806
sS'part1_incorrect_attempt'
p807
(lp808
(S'0:00:00'
p809
V4 * 4 * 4
p810
tp811
assVachava
p812
(dp813
S'part1_correct_attempt'
p814
(lp815
S'1:38:25'
p816
aV4 * ( 4 + 4)
p817
asg9
V2015-10-19 17:34:10
p818
sS'part1_incorrect_attempt'
p819
(lp820
(S'0:00:00'
p821
VC(11,2)
p822
tp823
a(S'0:00:52'
p824
VC(11,2) + C(4,1)
p825
tp826
a(S'0:00:58'
p827
VC(11,2) + C(11,2)
p828
tp829
a(S'1:38:09'
p830
V24 + 4
p831
tp832
assVdtea
p833
(dp834
S'part1_correct_attempt'
p835
(lp836
S'0:01:37'
p837
aV8*4
p838
asg9
V2015-10-22 22:05:44
p839
sS'part1_incorrect_attempt'
p840
(lp841
(S'0:00:00'
p842
V4+4+4
p843
tp844
assVcstringh
p845
(dp846
S'part1_correct_attempt'
p847
(lp848
S'0:14:26'
p849
aV4 * 8
p850
asg9
V2015-10-21 22:10:14
p851
sS'part1_incorrect_attempt'
p852
(lp853
(S'0:00:00'
p854
VC(47, 2)
p855
tp856
a(S'0:00:00'
p857
VC(47, 1) + C(46, 2)
p858
tp859
a(S'0:00:22'
p860
VC(47, 4) + C(46, 8)
p861
tp862
a(S'0:00:48'
p863
V4! + 8!
p864
tp865
a(S'0:01:43'
p866
VC(47, 1) + C(43,1)
p867
tp868
a(S'0:01:53'
p869
VC(47, 1) + C(43,2)
p870
tp871
a(S'0:02:01'
p872
VC(47, 4) + C(43,8)
p873
tp874
assVksrijong
p875
(dp876
S'part1_correct_attempt'
p877
(lp878
S'0:00:05'
p879
aV4*8
p880
asg9
V2015-10-21 22:26:10
p881
sS'part1_incorrect_attempt'
p882
(lp883
(S'0:00:00'
p884
V4*4*3
p885
tp886
assVedcole
p887
(dp888
S'part1_correct_attempt'
p889
(lp890
S'0:02:12'
p891
aVC(4, 1) * C(8, 1)
p892
asg9
V2015-10-21 18:24:57
p893
sS'part1_incorrect_attempt'
p894
(lp895
(S'0:00:00'
p896
VC(12, 3)
p897
tp898
assVrbdoming
p899
(dp900
S'part1_correct_attempt'
p901
(lp902
S'3 days, 17:09:00'
p903
aV4*8
p904
asg9
V2015-10-18 00:39:33
p905
sS'part1_incorrect_attempt'
p906
(lp907
(S'0:00:00'
p908
V3*3*3
p909
tp910
a(S'0:00:13'
p911
V3*3
p912
tp913
a(S'0:00:18'
p914
V3*2
p915
tp916
assVmitopete
p917
(dp918
S'part1_correct_attempt'
p919
(lp920
S'0:07:35'
p921
aV4*8
p922
asg9
V2015-10-20 22:29:22
p923
sS'part1_incorrect_attempt'
p924
(lp925
(S'0:00:00'
p926
V4!*4^2
p927
tp928
a(S'0:05:34'
p929
V8!
p930
tp931
assVyjshin
p932
(dp933
g9
V2015-10-20 16:16:01
p934
sS'part1_incorrect_attempt'
p935
(lp936
(S'0:00:00'
p937
V4*4*4
p938
tp939
assVdcastlem
p940
(dp941
S'part1_correct_attempt'
p942
(lp943
S'2:33:54'
p944
aV32
p945
asg9
V2015-10-21 18:02:17
p946
sS'part1_incorrect_attempt'
p947
(lp948
(S'0:00:00'
p949
VC(47,2)
p950
tp951
a(S'0:00:05'
p952
VC(47,3)
p953
tp954
a(S'0:00:15'
p955
VC(47,2)
p956
tp957
a(S'0:01:22'
p958
VC(47,3)
p959
tp960
a(S'0:01:29'
p961
VC(52,3)
p962
tp963
a(S'0:01:32'
p964
VC(52,2)
p965
tp966
a(S'0:03:54'
p967
VC(47,3)
p968
tp969
a(S'0:04:15'
p970
VC(47,12)
p971
tp972
a(S'0:00:00'
p973
VC(47, 3)
p974
tp975
a(S'0:07:53'
p976
VC(3,2)
p977
tp978
a(S'0:09:01'
p979
VC(47,2)
p980
tp981
a(S'0:09:06'
p982
VP(47,2)
p983
tp984
a(S'0:09:11'
p985
VP(47,3)
p986
tp987
a(S'0:09:21'
p988
VC(3,2)
p989
tp990
a(S'0:09:27'
p991
VP(3,2)
p992
tp993
a(S'0:09:34'
p994
VP(47,2)
p995
tp996
a(S'0:09:41'
p997
VP(47,3)
p998
tp999
a(S'0:00:00'
p1000
V4*4*4
p1001
tp1002
a(S'0:00:30'
p1003
V4*4*4
p1004
tp1005
a(S'0:00:00'
p1006
VC(52,3)
p1007
tp1008
a(S'0:00:07'
p1009
VC(47,3)
p1010
tp1011
a(S'0:00:23'
p1012
VC(47,2)
p1013
tp1014
a(S'0:00:49'
p1015
VC(3,2)
p1016
tp1017
a(S'0:01:52'
p1018
VC(47,3)*C(3,2)
p1019
tp1020
a(S'0:12:49'
p1021
VC(47,3)*C(4,1)-C(47,2)
p1022
tp1023
a(S'0:13:06'
p1024
VC(47,3)-C(47,2)
p1025
tp1026
a(S'0:00:00'
p1027
VC(64,2)
p1028
tp1029
a(S'0:00:25'
p1030
V4*3/2
p1031
tp1032
a(S'0:00:47'
p1033
VC(12,2)
p1034
tp1035
a(S'0:01:05'
p1036
VC(47,3)-C(12,2)
p1037
tp1038
a(S'0:01:50'
p1039
V12*2
p1040
tp1041
a(S'0:02:10'
p1042
VP(12,2)
p1043
tp1044
a(S'0:04:04'
p1045
V8*12
p1046
tp1047
a(S'0:04:13'
p1048
V8*9
p1049
tp1050
assVytc012
p1051
(dp1052
S'part1_correct_attempt'
p1053
(lp1054
S'0:00:40'
p1055
aVC(4,1)*C(8,1)
p1056
asg9
V2015-10-21 21:27:49
p1057
sS'part1_incorrect_attempt'
p1058
(lp1059
(S'0:00:00'
p1060
VC(8,1)
p1061
tp1062
assVtak068
p1063
(dp1064
S'part1_correct_attempt'
p1065
(lp1066
S'0:03:21'
p1067
aV4*8
p1068
asg9
V2015-10-20 10:23:54
p1069
sS'part1_incorrect_attempt'
p1070
(lp1071
(S'0:00:00'
p1072
V1.0*4**2
p1073
tp1074
assVyypan
p1075
(dp1076
S'part1_correct_attempt'
p1077
(lp1078
S'0:00:27'
p1079
aV4*8
p1080
asg9
V2015-10-21 22:13:08
p1081
sS'part1_incorrect_attempt'
p1082
(lp1083
(S'0:00:00'
p1084
V4*4*4
p1085
tp1086
assVyos017
p1087
(dp1088
S'part1_correct_attempt'
p1089
(lp1090
S'0:14:12'
p1091
aV(4)*8
p1092
asg9
V2015-10-21 07:16:18
p1093
sS'part1_incorrect_attempt'
p1094
(lp1095
(S'0:00:00'
p1096
V(4*46!)/(8!*38!)
p1097
tp1098
a(S'0:06:31'
p1099
V(4*52!)/(8!*34!)
p1100
tp1101
assVajvanega
p1102
(dp1103
S'part1_correct_attempt'
p1104
(lp1105
S'22:41:33'
p1106
aV32
p1107
asg9
V2015-10-21 00:36:03
p1108
sS'part1_incorrect_attempt'
p1109
(lp1110
(S'0:00:00'
p1111
V16*4
p1112
tp1113
a(S'0:02:37'
p1114
V4*4*4
p1115
tp1116
a(S'0:19:47'
p1117
V(78*16)
p1118
tp1119
assVtpmach
p1120
(dp1121
S'part1_correct_attempt'
p1122
(lp1123
S'4:57:07'
p1124
aV4*C(8,1)
p1125
asg9
V2015-10-21 20:30:44
p1126
sS'part1_incorrect_attempt'
p1127
(lp1128
(S'0:00:00'
p1129
VC(47,2)
p1130
tp1131
a(S'0:00:16'
p1132
VC(47,3)
p1133
tp1134
a(S'0:00:37'
p1135
VC(47,12)
p1136
tp1137
a(S'0:00:00'
p1138
VC(52-5,2)
p1139
tp1140
assVhmshah
p1141
(dp1142
S'part1_correct_attempt'
p1143
(lp1144
S'1:06:44'
p1145
aV32
p1146
asg9
V2015-10-22 08:21:48
p1147
sS'part1_incorrect_attempt'
p1148
(lp1149
(S'0:00:00'
p1150
VC(47,3)
p1151
tp1152
assVhmnaing
p1153
(dp1154
S'part1_correct_attempt'
p1155
(lp1156
S'8:17:41'
p1157
aV32
p1158
asg9
V2015-10-21 18:07:10
p1159
sS'part1_incorrect_attempt'
p1160
(lp1161
(S'0:00:00'
p1162
VC(12,2)
p1163
tp1164
assVggaddi
p1165
(dp1166
S'part1_correct_attempt'
p1167
(lp1168
S'0:05:03'
p1169
aV4*8
p1170
asg9
V2015-10-17 03:37:31
p1171
sS'part1_incorrect_attempt'
p1172
(lp1173
(S'0:00:00'
p1174
VC(52-5, 2)
p1175
tp1176
a(S'0:00:39'
p1177
V3*4
p1178
tp1179
a(S'0:01:00'
p1180
VC(52-5, 3*4)
p1181
tp1182
a(S'0:04:04'
p1183
VC(52-5, 4)+C(52-6, 8)
p1184
tp1185
a(S'0:04:18'
p1186
VC(52-5, 4)*C(52-6, 8)
p1187
tp1188
assVmtrafeca
p1189
(dp1190
S'part1_correct_attempt'
p1191
(lp1192
S'0:01:58'
p1193
aV32
p1194
asg9
V2015-10-21 05:08:11
p1195
sS'part1_incorrect_attempt'
p1196
(lp1197
(S'0:00:00'
p1198
V(47!)/(3!*44!)
p1199
tp1200
assVasp025
p1201
(dp1202
S'part1_correct_attempt'
p1203
(lp1204
S'0:04:28'
p1205
aV4*8
p1206
asg9
V2015-10-21 18:28:27
p1207
sS'part1_incorrect_attempt'
p1208
(lp1209
(S'0:00:00'
p1210
V47!/3!
p1211
tp1212
a(S'0:01:22'
p1213
V47!/2!
p1214
tp1215
asssV2
p1216
(dp1217
Vh4tu
p1218
(dp1219
S'part2_correct_attempt'
p1220
(lp1221
S'0:07:31'
p1222
aV32/(47*46/2)
p1223
asS'part1_correct_attempt'
p1224
(lp1225
S'0:00:00'
p1226
aV32
p1227
asg9
V2015-10-22 16:01:17
p1228
sS'part2_incorrect_attempt'
p1229
(lp1230
(S'0:06:51'
p1231
V32/(47*46)+32/(47*45)
p1232
tp1233
assVr2fisher
p1234
(dp1235
S'part2_correct_attempt'
p1236
(lp1237
S'0:07:02'
p1238
aV32/((52-5)!/(45!*2!))
p1239
asS'part1_correct_attempt'
p1240
(lp1241
S'0:00:00'
p1242
aV4*8
p1243
asg9
V2015-10-22 23:10:23
p1244
sS'part2_incorrect_attempt'
p1245
(lp1246
(S'0:01:34'
p1247
V1-(32/(52-5))
p1248
tp1249
assVjfalcone
p1250
(dp1251
S'part2_correct_attempt'
p1252
(lp1253
S'0:05:22'
p1254
aV32/C(47,2)
p1255
asS'part1_correct_attempt'
p1256
(lp1257
S'0:00:00'
p1258
aV4*8
p1259
asg9
V2015-10-22 08:28:20
p1260
sS'part2_incorrect_attempt'
p1261
(lp1262
(S'0:02:32'
p1263
VC(52,2)/32
p1264
tp1265
assVctroncos
p1266
(dp1267
S'part2_correct_attempt'
p1268
(lp1269
S'12:12:36'
p1270
aV4*8/C(52-5,2)
p1271
asS'part1_correct_attempt'
p1272
(lp1273
S'0:00:00'
p1274
aV32
p1275
asg9
V2015-10-22 04:48:54
p1276
sS'part2_incorrect_attempt'
p1277
(lp1278
(S'0:31:45'
p1279
V47*47
p1280
tp1281
assVvsamant
p1282
(dp1283
S'part2_correct_attempt'
p1284
(lp1285
S'0:13:15'
p1286
aV32/(C(47,2))
p1287
asS'part1_correct_attempt'
p1288
(lp1289
S'0:00:00'
p1290
ag120
asg9
V2015-10-21 18:33:37
p1291
sS'part2_incorrect_attempt'
p1292
(lp1293
(S'0:09:18'
p1294
V35/3
p1295
tp1296
assVjjm019
p1297
(dp1298
S'part2_correct_attempt'
p1299
(lp1300
S'6:41:49'
p1301
aV(32/C((52-5),2))
p1302
asS'part1_correct_attempt'
p1303
(lp1304
S'0:00:00'
p1305
ag222
asg9
V2015-10-22 02:56:50
p1306
sS'part2_incorrect_attempt'
p1307
(lp1308
(S'1:33:50'
p1309
V1/32
p1310
tp1311
a(S'1:33:55'
p1312
V2/32
p1313
tp1314
assVaggouw
p1315
(dp1316
S'part2_correct_attempt'
p1317
(lp1318
S'3 days, 6:14:57'
p1319
aV32/1081
p1320
asS'part1_correct_attempt'
p1321
(lp1322
S'0:00:00'
p1323
aV32
p1324
asg9
V2015-10-18 02:28:10
p1325
sS'part2_incorrect_attempt'
p1326
(lp1327
(S'0:08:51'
p1328
V12/47
p1329
tp1330
a(S'0:11:01'
p1331
V(3/47)*(8/46)
p1332
tp1333
a(S'0:11:17'
p1334
V(32/47)*(46)
p1335
tp1336
a(S'0:15:19'
p1337
V4/32
p1338
tp1339
assVkbielawi
p1340
(dp1341
S'part2_correct_attempt'
p1342
(lp1343
S'2:38:17'
p1344
aV32/(C(47, 2))
p1345
asS'part1_correct_attempt'
p1346
(lp1347
S'0:00:00'
p1348
aV4*8
p1349
asg9
V2015-10-22 14:31:30
p1350
sS'part2_incorrect_attempt'
p1351
(lp1352
(S'2:36:05'
p1353
V(C(47, 2))/(4*8)
p1354
tp1355
assVglcohen
p1356
(dp1357
S'part2_correct_attempt'
p1358
(lp1359
S'0:43:40'
p1360
aV32/C(47,2)
p1361
asS'part1_correct_attempt'
p1362
(lp1363
S'0:00:00'
p1364
ag144
asg9
V2015-10-17 23:46:49
p1365
sS'part2_incorrect_attempt'
p1366
(lp1367
(S'0:00:08'
p1368
V1/32
p1369
tp1370
a(S'0:01:45'
p1371
V32/47 * 32/46
p1372
tp1373
a(S'0:01:56'
p1374
V(32/47) +( 32/46)
p1375
tp1376
a(S'0:02:04'
p1377
V(32/47) * (32/46)
p1378
tp1379
a(S'0:03:24'
p1380
V2/32
p1381
tp1382
a(S'0:24:25'
p1383
VC(47,2)*(1/4*8)
p1384
tp1385
a(S'0:24:33'
p1386
VC(47,2)*(1/32)
p1387
tp1388
a(S'0:27:44'
p1389
V(1/52)^2/(254)
p1390
tp1391
a(S'0:29:52'
p1392
V3/1225
p1393
tp1394
assVjguanzho
p1395
(dp1396
S'part2_correct_attempt'
p1397
(lp1398
S'2 days, 19:36:51'
p1399
aV(4*8)/(47!/(2!*45!))
p1400
asS'part1_correct_attempt'
p1401
(lp1402
S'0:00:00'
p1403
ag156
asg9
V2015-10-17 02:55:30
p1404
sS'part2_incorrect_attempt'
p1405
(lp1406
(S'0:05:22'
p1407
V4*8
p1408
tp1409
a(S'0:18:40'
p1410
V(32/(47*46))/(8/47)
p1411
tp1412
a(S'0:18:46'
p1413
V(32/(47*47))/(8/47)
p1414
tp1415
a(S'0:22:42'
p1416
V(32/47)/(8/47)
p1417
tp1418
a(S'1 day, 18:34:47'
p1419
V(4*8/(47!/(2!*45!)))/(8/(47!/(2!*45!)))
p1420
tp1421
assVrohan
p1422
(dp1423
S'part2_correct_attempt'
p1424
(lp1425
S'2:16:14'
p1426
aV32/1081
p1427
asS'part1_correct_attempt'
p1428
(lp1429
S'0:00:00'
p1430
aV32
p1431
asg9
V2015-10-22 20:41:25
p1432
sS'part2_incorrect_attempt'
p1433
(lp1434
(S'0:23:19'
p1435
V(12/47)(12/47)
p1436
tp1437
a(S'0:23:25'
p1438
V(12/47)(11/47)
p1439
tp1440
assVany027
p1441
(dp1442
S'part2_correct_attempt'
p1443
(lp1444
S'0:07:24'
p1445
aV(4+ C(8,2) )/ C(47,2)
p1446
asS'part1_correct_attempt'
p1447
(lp1448
S'0:00:00'
p1449
aV4 + C(8,2)
p1450
asg9
V2015-10-19 19:42:59
p1451
sS'part2_incorrect_attempt'
p1452
(lp1453
(S'0:01:08'
p1454
VC(47, 32)
p1455
tp1456
a(S'0:01:49'
p1457
VC(47, 2)
p1458
tp1459
a(S'0:02:35'
p1460
VC(47, 1)
p1461
tp1462
a(S'0:03:47'
p1463
V(47-32)  / (47)
p1464
tp1465
a(S'0:07:09'
p1466
VC(47,2)
p1467
tp1468
assVkrau
p1469
(dp1470
S'part2_correct_attempt'
p1471
(lp1472
S'7:25:46'
p1473
aV32/47/23
p1474
asS'part1_correct_attempt'
p1475
(lp1476
S'0:00:00'
p1477
aV32
p1478
asg9
V2015-10-20 20:23:22
p1479
sS'part2_incorrect_attempt'
p1480
(lp1481
(S'7:19:18'
p1482
V(32/47*46)/(1/52/51)
p1483
tp1484
a(S'7:19:42'
p1485
V(32/47*46)/(1/52/51/50/49/48)
p1486
tp1487
a(S'7:23:53'
p1488
V((32/(47*46))) / ((1/(52*51*50*49*48)))
p1489
tp1490
assVmhale
p1491
(dp1492
S'part2_correct_attempt'
p1493
(lp1494
S'0:06:04'
p1495
aV32/1081
p1496
asS'part1_correct_attempt'
p1497
(lp1498
S'0:00:00'
p1499
aV4 * 8
p1500
asg9
V2015-10-21 06:30:40
p1501
sS'part2_incorrect_attempt'
p1502
(lp1503
(S'0:01:16'
p1504
V(8/46)(4/47)
p1505
tp1506
a(S'0:02:36'
p1507
V(8/46)/(4/47)
p1508
tp1509
assVthk002
p1510
(dp1511
S'part2_correct_attempt'
p1512
(lp1513
S'1:05:12'
p1514
aV32/C(47,2)
p1515
asS'part1_correct_attempt'
p1516
(lp1517
S'0:00:00'
p1518
aV32
p1519
asg9
V2015-10-20 21:42:23
p1520
sS'part2_incorrect_attempt'
p1521
(lp1522
(S'0:01:24'
p1523
VC(46,2)
p1524
tp1525
a(S'0:59:31'
p1526
VC(47,2)
p1527
tp1528
a(S'0:59:38'
p1529
V47^2
p1530
tp1531
assVs1powers
p1532
(dp1533
S'part2_correct_attempt'
p1534
(lp1535
S'0:19:25'
p1536
aV4*8 / (47!/(45!2!))
p1537
asS'part1_correct_attempt'
p1538
(lp1539
S'0:00:00'
p1540
aV4*8
p1541
asg9
V2015-10-21 18:34:13
p1542
sS'part2_incorrect_attempt'
p1543
(lp1544
(S'0:14:49'
p1545
V16/47
p1546
tp1547
assVkthui
p1548
(dp1549
S'part2_correct_attempt'
p1550
(lp1551
S'0:21:16'
p1552
aV(4/47)*(4/46+4/46)*2
p1553
asS'part1_correct_attempt'
p1554
(lp1555
S'0:00:00'
p1556
ag24
asg9
V2015-10-18 06:50:04
p1557
sS'part2_incorrect_attempt'
p1558
(lp1559
(S'0:02:00'
p1560
V(1/4)*(1/4+1/4)*2
p1561
tp1562
a(S'0:02:13'
p1563
V(1/4)*(1/4+1/4)
p1564
tp1565
a(S'0:17:34'
p1566
V(4*(4+4)*2)/47
p1567
tp1568
assVctgraves
p1569
(dp1570
S'part2_correct_attempt'
p1571
(lp1572
S'0:30:33'
p1573
aV32/((52-5)!/(2!*(52-7)!))
p1574
asS'part1_correct_attempt'
p1575
(lp1576
S'0:00:00'
p1577
ag258
asg9
V2015-10-21 01:26:48
p1578
sS'part2_incorrect_attempt'
p1579
(lp1580
(S'0:30:23'
p1581
V(52-5)!/(2!*(52-7)!)
p1582
tp1583
assVk5law
p1584
(dp1585
S'part2_correct_attempt'
p1586
(lp1587
S'0:52:06'
p1588
aV32/[47!/(2!45!)]
p1589
asS'part1_correct_attempt'
p1590
(lp1591
S'0:00:00'
p1592
ag273
asg9
V2015-10-19 06:25:17
p1593
sS'part2_incorrect_attempt'
p1594
(lp1595
(S'0:18:46'
p1596
V(1/32)/[47!/(5!42!)]
p1597
tp1598
a(S'0:24:07'
p1599
V[47!/(2!45!)]/[47!/(5!42!)]
p1600
tp1601
a(S'0:25:53'
p1602
V[32!/(30!2!)]/[47!/(5!42!)]
p1603
tp1604
assVbeyounge
p1605
(dp1606
S'part2_correct_attempt'
p1607
(lp1608
S'0:07:20'
p1609
aV[C(4,1)*(C(8,1))]/(C(47,2))
p1610
asS'part1_correct_attempt'
p1611
(lp1612
S'0:00:00'
p1613
ag288
asg9
V2015-10-17 05:08:58
p1614
sS'part2_incorrect_attempt'
p1615
(lp1616
(S'0:06:10'
p1617
V1/[C(4,1)*(C(8,1))]
p1618
tp1619
assVpsable
p1620
(dp1621
S'part2_correct_attempt'
p1622
(lp1623
S'1:33:28'
p1624
aV32/1081
p1625
asS'part1_correct_attempt'
p1626
(lp1627
S'0:00:00'
p1628
aV32
p1629
asg9
V2015-10-22 22:57:14
p1630
sS'part2_incorrect_attempt'
p1631
(lp1632
(S'0:06:06'
p1633
V4/47
p1634
tp1635
a(S'0:08:08'
p1636
V12/47
p1637
tp1638
a(S'0:09:29'
p1639
V12/47
p1640
tp1641
assVj5phung
p1642
(dp1643
S'part2_correct_attempt'
p1644
(lp1645
S'0:20:19'
p1646
aV(4/47)*(8/46)+(8/47)*(4/46)
p1647
asS'part1_correct_attempt'
p1648
(lp1649
S'0:00:00'
p1650
ag300
asg9
V2015-10-16 17:08:28
p1651
sS'part2_incorrect_attempt'
p1652
(lp1653
(S'0:01:51'
p1654
V24/52
p1655
tp1656
a(S'0:02:22'
p1657
V4/24
p1658
tp1659
a(S'0:07:36'
p1660
V(32/4)52
p1661
tp1662
a(S'0:11:20'
p1663
V(32/47)/47
p1664
tp1665
a(S'0:12:53'
p1666
V4/12
p1667
tp1668
a(S'0:13:27'
p1669
V(12/47)/(8/47)
p1670
tp1671
a(S'0:13:37'
p1672
V(8/47)/(12/47)
p1673
tp1674
a(S'0:17:29'
p1675
V(5/52)*(32/47)
p1676
tp1677
a(S'0:17:41'
p1678
V(2/52)*(32/47)
p1679
tp1680
a(S'0:19:34'
p1681
V(32/47)*(31/46)
p1682
tp1683
a(S'0:19:50'
p1684
V(32/47)*(8/46)
p1685
tp1686
assVtpmach
p1687
(dp1688
S'part2_correct_attempt'
p1689
(lp1690
S'0:09:37'
p1691
aV32/C(47,2)
p1692
asS'part1_correct_attempt'
p1693
(lp1694
S'0:00:00'
p1695
ag1125
asg9
V2015-10-22 01:27:51
p1696
sS'part2_incorrect_attempt'
p1697
(lp1698
(S'0:01:38'
p1699
VC(47,2)
p1700
tp1701
a(S'0:03:52'
p1702
VC(52-5,2)/32
p1703
tp1704
a(S'0:06:21'
p1705
V(32/47)(4/47)
p1706
tp1707
a(S'0:06:33'
p1708
V(32/47)/(4/47)
p1709
tp1710
a(S'0:09:28'
p1711
VC(47,2)
p1712
tp1713
assVgsrandha
p1714
(dp1715
S'part2_correct_attempt'
p1716
(lp1717
S'6:31:50'
p1718
aV32/(C(47,2))
p1719
asS'part1_correct_attempt'
p1720
(lp1721
S'0:00:00'
p1722
aV4 * (4 +4)
p1723
asg9
V2015-10-19 00:09:18
p1724
sS'part2_incorrect_attempt'
p1725
(lp1726
(S'0:00:11'
p1727
V3/32
p1728
tp1729
a(S'0:00:22'
p1730
V2/32
p1731
tp1732
a(S'0:00:26'
p1733
V1/32
p1734
tp1735
a(S'0:00:31'
p1736
V5/32
p1737
tp1738
a(S'0:00:35'
p1739
V4/32
p1740
tp1741
a(S'0:00:39'
p1742
V3/32
p1743
tp1744
a(S'0:00:43'
p1745
V6/32
p1746
tp1747
a(S'0:00:46'
p1748
V7/32
p1749
tp1750
a(S'0:00:50'
p1751
V8/32
p1752
tp1753
a(S'0:00:55'
p1754
V8/329
p1755
tp1756
a(S'0:01:00'
p1757
V9/32
p1758
tp1759
a(S'0:01:05'
p1760
V10/32
p1761
tp1762
a(S'0:01:09'
p1763
V11/32
p1764
tp1765
a(S'0:01:13'
p1766
V12/32
p1767
tp1768
a(S'0:01:17'
p1769
V13/32
p1770
tp1771
a(S'0:01:21'
p1772
V14/32
p1773
tp1774
a(S'0:01:24'
p1775
V15/32
p1776
tp1777
a(S'0:01:30'
p1778
V16/32
p1779
tp1780
a(S'5:01:03'
p1781
V52*51
p1782
tp1783
assVmuy002
p1784
(dp1785
S'part2_correct_attempt'
p1786
(lp1787
S'0:05:27'
p1788
aV32/C(47,2)
p1789
asS'part1_correct_attempt'
p1790
(lp1791
S'0:00:00'
p1792
aV32
p1793
asg9
V2015-10-22 20:32:09
p1794
sS'part2_incorrect_attempt'
p1795
(lp1796
(S'0:02:16'
p1797
VC(47,2)
p1798
tp1799
a(S'0:02:34'
p1800
VC(47,2)/47^2
p1801
tp1802
assVrsmurlo
p1803
(dp1804
S'part2_correct_attempt'
p1805
(lp1806
S'0:19:45'
p1807
aV32/((47*46)/2)
p1808
asS'part1_correct_attempt'
p1809
(lp1810
S'0:00:00'
p1811
aV4*8
p1812
asg9
V2015-10-20 20:35:14
p1813
sS'part2_incorrect_attempt'
p1814
(lp1815
(S'0:08:33'
p1816
V(4!/43!4!)*(8!/38!8!)
p1817
tp1818
a(S'0:08:54'
p1819
V(4!/(43!4!))*(8!/(38!8!))
p1820
tp1821
a(S'0:10:37'
p1822
V(4!/(43!4!))*(8!/(38!8!))+((8!/(39!8!))(4!/(42!4!)))
p1823
tp1824
a(S'0:13:28'
p1825
V(8!/(38!8!))
p1826
tp1827
assVdkostins
p1828
(dp1829
S'part2_correct_attempt'
p1830
(lp1831
S'1 day, 1:05:44'
p1832
aV32/C(47,2)
p1833
asS'part1_correct_attempt'
p1834
(lp1835
S'0:00:00'
p1836
aV32
p1837
asg9
V2015-10-21 00:05:49
p1838
sS'part2_incorrect_attempt'
p1839
(lp1840
(S'19:06:38'
p1841
VC(47,32)
p1842
tp1843
a(S'19:08:31'
p1844
VC(47,2)/47
p1845
tp1846
a(S'19:09:03'
p1847
V1/47
p1848
tp1849
a(S'19:09:06'
p1850
V2/47
p1851
tp1852
a(S'19:09:09'
p1853
V3/47
p1854
tp1855
a(S'19:09:12'
p1856
V4/47
p1857
tp1858
a(S'19:09:16'
p1859
V5/47
p1860
tp1861
a(S'19:09:20'
p1862
V6/47
p1863
tp1864
a(S'19:09:23'
p1865
V7/47
p1866
tp1867
a(S'19:09:27'
p1868
V8/47
p1869
tp1870
a(S'19:09:31'
p1871
V9/47
p1872
tp1873
a(S'19:09:35'
p1874
V10/47
p1875
tp1876
a(S'19:09:39'
p1877
V11/47
p1878
tp1879
a(S'19:09:43'
p1880
V12/47
p1881
tp1882
a(S'19:09:46'
p1883
V13/47
p1884
tp1885
a(S'19:09:49'
p1886
V14/47
p1887
tp1888
a(S'19:09:54'
p1889
V15/47
p1890
tp1891
a(S'19:10:05'
p1892
V16/47
p1893
tp1894
a(S'19:10:08'
p1895
V17/47
p1896
tp1897
a(S'19:10:11'
p1898
V18/47
p1899
tp1900
a(S'19:10:14'
p1901
V19/47
p1902
tp1903
a(S'19:10:17'
p1904
V20/47
p1905
tp1906
a(S'19:10:20'
p1907
V21/47
p1908
tp1909
a(S'19:10:24'
p1910
V22/47
p1911
tp1912
a(S'19:10:27'
p1913
V23/47
p1914
tp1915
a(S'19:10:30'
p1916
V24/47
p1917
tp1918
a(S'19:10:38'
p1919
V25/47
p1920
tp1921
a(S'19:10:41'
p1922
V26/47
p1923
tp1924
a(S'19:10:44'
p1925
V27/47
p1926
tp1927
a(S'19:10:49'
p1928
V28/47
p1929
tp1930
a(S'19:10:52'
p1931
V29/47
p1932
tp1933
a(S'19:10:55'
p1934
V20/47
p1935
tp1936
a(S'19:10:58'
p1937
V30/47
p1938
tp1939
a(S'19:11:00'
p1940
V31/47
p1941
tp1942
a(S'19:11:06'
p1943
V33/47
p1944
tp1945
a(S'19:11:10'
p1946
V34/47
p1947
tp1948
a(S'19:11:13'
p1949
V35/47
p1950
tp1951
a(S'19:11:16'
p1952
V36/47
p1953
tp1954
a(S'19:11:19'
p1955
V37/47
p1956
tp1957
a(S'19:11:22'
p1958
V38/47
p1959
tp1960
a(S'19:11:25'
p1961
V39/47
p1962
tp1963
a(S'19:11:28'
p1964
V40/47
p1965
tp1966
a(S'19:11:31'
p1967
V41/47
p1968
tp1969
a(S'19:11:34'
p1970
V42/47
p1971
tp1972
a(S'19:11:37'
p1973
V43/47
p1974
tp1975
a(S'19:11:42'
p1976
V44/47
p1977
tp1978
a(S'19:11:45'
p1979
V45/47
p1980
tp1981
a(S'19:11:48'
p1982
V46/47
p1983
tp1984
a(S'19:12:57'
p1985
VC(32,2)/47
p1986
tp1987
a(S'19:13:11'
p1988
VC(47,2)/32
p1989
tp1990
a(S'19:14:46'
p1991
V.01
p1992
tp1993
a(S'19:14:50'
p1994
V.02
p1995
tp1996
a(S'19:14:53'
p1997
V.03
p1998
tp1999
a(S'19:18:24'
p2000
VC(52-5,2)/32
p2001
tp2002
a(S'19:19:27'
p2003
VC(32,2)/(52-5)
p2004
tp2005
a(S'21:03:40'
p2006
V(52-5-32)/47
p2007
tp2008
a(S'21:03:47'
p2009
V(52-5-32)/32
p2010
tp2011
a(S'21:10:26'
p2012
V(52-5-32)
p2013
tp2014
a(S'21:17:45'
p2015
V(52-32)
p2016
tp2017
a(S'1 day, 0:49:47'
p2018
VC(47,2)-C(32,2)
p2019
tp2020
a(S'1 day, 0:49:58'
p2021
V(C(47,2)-C(32,2))/47
p2022
tp2023
a(S'1 day, 0:52:02'
p2024
V(C(47,2)-32)/47
p2025
tp2026
a(S'1 day, 0:52:47'
p2027
V(C(47,2)-C(32,2))/47
p2028
tp2029
a(S'1 day, 0:55:41'
p2030
V(C(47,2)-C(31,2))/47
p2031
tp2032
a(S'1 day, 0:55:44'
p2033
V(C(47,2)-C(30,2))/47
p2034
tp2035
a(S'1 day, 0:55:49'
p2036
V(C(47,2)-C(29,2))/47
p2037
tp2038
a(S'1 day, 0:55:52'
p2039
V(C(47,2)-C(28,2))/47
p2040
tp2041
a(S'1 day, 0:55:55'
p2042
V(C(47,2)-C(27,2))/47
p2043
tp2044
a(S'1 day, 0:55:59'
p2045
V(C(47,2)-C(26,2))/47
p2046
tp2047
a(S'1 day, 0:56:03'
p2048
V(C(47,2)-C(25,2))/47
p2049
tp2050
a(S'1 day, 0:56:08'
p2051
V(C(47,2)-C(24,2))/47
p2052
tp2053
a(S'1 day, 0:56:17'
p2054
V(C(47,2)-C(23,2))/47
p2055
tp2056
a(S'1 day, 0:56:21'
p2057
V(C(47,2)-C(22,2))/47
p2058
tp2059
a(S'1 day, 0:56:25'
p2060
V(C(47,2)-C(21,2))/47
p2061
tp2062
a(S'1 day, 0:56:37'
p2063
V(C(47,2)-C(47,2))/47
p2064
tp2065
a(S'1 day, 0:56:41'
p2066
V(C(47,2)-C(46,2))/47
p2067
tp2068
a(S'1 day, 0:57:04'
p2069
V(C(47,2)-C(32,2))/32
p2070
tp2071
a(S'1 day, 0:59:58'
p2072
V(C(47,2)-C(35,2))/32
p2073
tp2074
a(S'1 day, 1:00:04'
p2075
V(C(47,2)-C(35,2))/47
p2076
tp2077
assVr9jiang
p2078
(dp2079
S'part2_correct_attempt'
p2080
(lp2081
S'1:49:47'
p2082
aV32/C(47,2)
p2083
asS'part1_correct_attempt'
p2084
(lp2085
S'0:00:00'
p2086
aV32
p2087
asg9
V2015-10-18 21:14:02
p2088
sS'part2_incorrect_attempt'
p2089
(lp2090
(S'0:14:35'
p2091
V3(2/C(47,3))/C(52,5)
p2092
tp2093
a(S'0:14:47'
p2094
V(32/C(47,3))/C(52,5)
p2095
tp2096
assVrlhagen
p2097
(dp2098
S'part2_correct_attempt'
p2099
(lp2100
S'0:01:39'
p2101
aV32/(47!/(2!(47-2)!))
p2102
asS'part1_correct_attempt'
p2103
(lp2104
S'0:00:00'
p2105
ag476
asg9
V2015-10-18 17:32:29
p2106
sS'part2_incorrect_attempt'
p2107
(lp2108
(S'0:01:29'
p2109
V32/47!/(2!(47-2)!)
p2110
tp2111
assVagarango
p2112
(dp2113
S'part2_correct_attempt'
p2114
(lp2115
S'0:27:55'
p2116
aV32/1081
p2117
asS'part1_correct_attempt'
p2118
(lp2119
S'0:00:00'
p2120
aV32
p2121
asg9
V2015-10-22 05:53:30
p2122
sS'part2_incorrect_attempt'
p2123
(lp2124
(S'0:00:45'
p2125
V(13!)/(2!)(11!)
p2126
tp2127
assVavasavad
p2128
(dp2129
S'part2_correct_attempt'
p2130
(lp2131
S'1:07:25'
p2132
aV32/C(47,2)
p2133
asS'part1_correct_attempt'
p2134
(lp2135
S'0:00:00'
p2136
ag682
asg9
V2015-10-22 19:01:34
p2137
sS'part2_incorrect_attempt'
p2138
(lp2139
(S'0:07:58'
p2140
VC(47,2)/16
p2141
tp2142
assVvsosnovs
p2143
(dp2144
S'part2_correct_attempt'
p2145
(lp2146
S'1 day, 9:10:11'
p2147
aV32/(C(47,2))
p2148
asS'part1_correct_attempt'
p2149
(lp2150
S'0:00:00'
p2151
aV4*8
p2152
asg9
V2015-10-21 07:02:14
p2153
sS'part2_incorrect_attempt'
p2154
(lp2155
(S'0:01:06'
p2156
V(4/47)*(8/46)/(8/46)
p2157
tp2158
a(S'0:01:29'
p2159
V(4/47)*(8/46)/(4/47)
p2160
tp2161
a(S'0:05:06'
p2162
V(4/47)
p2163
tp2164
a(S'0:06:12'
p2165
V((4/47)*(8/46))/(4/47)
p2166
tp2167
a(S'0:07:34'
p2168
V((4/47)*(8/32))/(4/47)
p2169
tp2170
a(S'0:07:41'
p2171
V((4/47)*(8/47))/(4/47)
p2172
tp2173
a(S'0:07:46'
p2174
V((4/47)*(8/46))/(4/47)
p2175
tp2176
a(S'0:07:52'
p2177
V((4/47)*(4/46))/(4/47)
p2178
tp2179
a(S'0:07:58'
p2180
V((4/47)*(8/46))/(4/47)
p2181
tp2182
a(S'22:27:44'
p2183
VC(52,5)-C(32,5)
p2184
tp2185
a(S'22:28:04'
p2186
VC(52,5)-C(20,5)
p2187
tp2188
a(S'1 day, 8:50:55'
p2189
VC(32,2)- C(20,2)
p2190
tp2191
a(S'1 day, 8:53:10'
p2192
VC(47,2)-C(32,2)
p2193
tp2194
a(S'1 day, 8:54:06'
p2195
V3/32
p2196
tp2197
a(S'1 day, 8:56:37'
p2198
VC(47,2)(C(32,2))/32
p2199
tp2200
a(S'1 day, 8:56:49'
p2201
VC(47,2)(C(32,2))/C(32,2)
p2202
tp2203
a(S'1 day, 8:56:56'
p2204
VC(47,2)(C(47,2))/C(32,2)
p2205
tp2206
a(S'1 day, 8:57:07'
p2207
VC(47,2)(C(32,2))/C(32,2)
p2208
tp2209
a(S'1 day, 8:57:15'
p2210
VC(47,2)(C(32,2))/C(47,2)
p2211
tp2212
a(S'1 day, 8:57:25'
p2213
VC(47,2)/(C(32,2))
p2214
tp2215
a(S'1 day, 9:04:19'
p2216
V2/(C(32,2))
p2217
tp2218
a(S'1 day, 9:04:46'
p2219
V(C(47,2))
p2220
tp2221
a(S'1 day, 9:07:40'
p2222
V(C(47,2))- C(32,2)
p2223
tp2224
a(S'1 day, 9:08:01'
p2225
V(C(47,2))- C(32,2)/(C(32,2))
p2226
tp2227
assVs6deng
p2228
(dp2229
S'part1_correct_attempt'
p2230
(lp2231
S'0:00:00'
p2232
aV2(16)
p2233
asg9
V2015-10-21 23:00:16
p2234
sS'part2_incorrect_attempt'
p2235
(lp2236
(S'0:05:24'
p2237
V(12/47)*(8/46)
p2238
tp2239
a(S'0:05:35'
p2240
VC(47,2)
p2241
tp2242
a(S'0:05:47'
p2243
VC(47,1)*C(46,1)
p2244
tp2245
a(S'0:10:43'
p2246
V(52-5)*C(46,1)
p2247
tp2248
a(S'0:10:52'
p2249
VC(47,1)*C(46,1)
p2250
tp2251
a(S'0:11:08'
p2252
VC(47,1)
p2253
tp2254
a(S'0:11:44'
p2255
VC(47,1)+C(46,1)
p2256
tp2257
a(S'0:12:15'
p2258
VC(47,1)+C(46,1)
p2259
tp2260
assVkalang
p2261
(dp2262
S'part2_correct_attempt'
p2263
(lp2264
S'0:02:47'
p2265
aV32/C(47,2)
p2266
asS'part1_correct_attempt'
p2267
(lp2268
S'0:00:00'
p2269
ag529
asg9
V2015-10-22 02:51:46
p2270
sS'part2_incorrect_attempt'
p2271
(lp2272
(S'0:00:33'
p2273
VC(47,32)
p2274
tp2275
a(S'0:00:50'
p2276
VC(52,32)
p2277
tp2278
a(S'0:01:26'
p2279
VC(47,46)
p2280
tp2281
assVaakumar
p2282
(dp2283
S'part2_correct_attempt'
p2284
(lp2285
S'0:26:02'
p2286
aV32/C(47,2)
p2287
asS'part1_correct_attempt'
p2288
(lp2289
S'0:00:00'
p2290
aV32
p2291
asg9
V2015-10-19 05:23:22
p2292
sS'part2_incorrect_attempt'
p2293
(lp2294
(S'0:13:52'
p2295
V144/47/46
p2296
tp2297
a(S'0:23:12'
p2298
V32/47*46
p2299
tp2300
assVhachrist
p2301
(dp2302
S'part2_correct_attempt'
p2303
(lp2304
S'1:28:01'
p2305
aV32/C(47,2)
p2306
asS'part1_correct_attempt'
p2307
(lp2308
S'0:00:00'
p2309
aV32
p2310
asg9
V2015-10-21 19:39:39
p2311
sS'part2_incorrect_attempt'
p2312
(lp2313
(S'0:00:54'
p2314
V2/32
p2315
tp2316
a(S'1:18:13'
p2317
VC(47,2)
p2318
tp2319
a(S'1:19:32'
p2320
VC(47,2) - C(35,2)
p2321
tp2322
a(S'1:24:00'
p2323
V12/32
p2324
tp2325
assVdkurli
p2326
(dp2327
S'part2_correct_attempt'
p2328
(lp2329
S'0:11:28'
p2330
aV(32/47/23)
p2331
asS'part1_correct_attempt'
p2332
(lp2333
S'0:00:00'
p2334
aV32
p2335
asg9
V2015-10-21 03:37:23
p2336
sS'part2_incorrect_attempt'
p2337
(lp2338
(S'0:05:30'
p2339
V(32/2162)/(1/49/48)
p2340
tp2341
a(S'0:07:59'
p2342
V(32/2162)(1/49/48)/(1/52/51/50/49/48)
p2343
tp2344
a(S'0:09:37'
p2345
V(32/47/46)(1/49/48)/(1/52/51/50/49/48)
p2346
tp2347
a(S'0:10:57'
p2348
V(32/47/46)
p2349
tp2350
a(S'0:11:17'
p2351
V(32/47/46/2)
p2352
tp2353
assVt1tran
p2354
(dp2355
S'part2_correct_attempt'
p2356
(lp2357
S'0:00:46'
p2358
aVC(2,1)C(4,1)^2/C(47,2)
p2359
asS'part1_correct_attempt'
p2360
(lp2361
S'0:00:00'
p2362
ag628
asg9
V2015-10-18 02:32:25
p2363
sS'part2_incorrect_attempt'
p2364
(lp2365
(S'0:00:19'
p2366
VC(2,1)C(4,1)^2/C(49,3)
p2367
tp2368
a(S'0:00:36'
p2369
VC(2,1)C(4,1)^2/C(49,2)
p2370
tp2371
assVdsmonaha
p2372
(dp2373
S'part2_correct_attempt'
p2374
(lp2375
S'0:56:28'
p2376
aV32/C(47,2)
p2377
asS'part1_correct_attempt'
p2378
(lp2379
S'0:00:00'
p2380
aVC(4,1)C(2,1)C(4,1)
p2381
asg9
V2015-10-20 17:04:44
p2382
sS'part2_incorrect_attempt'
p2383
(lp2384
(S'0:17:02'
p2385
VP(47,1)P(46,1)
p2386
tp2387
assVq3wen
p2388
(dp2389
S'part2_correct_attempt'
p2390
(lp2391
S'0:11:38'
p2392
aV32/1081
p2393
asS'part1_correct_attempt'
p2394
(lp2395
S'0:00:00'
p2396
aV32
p2397
asg9
V2015-10-21 22:51:17
p2398
sS'part2_incorrect_attempt'
p2399
(lp2400
(S'0:00:08'
p2401
V1/32
p2402
tp2403
assVjcj006
p2404
(dp2405
S'part2_correct_attempt'
p2406
(lp2407
S'0:02:14'
p2408
aV32/(47!/(2*45!))
p2409
asS'part1_correct_attempt'
p2410
(lp2411
S'0:00:00'
p2412
aV32
p2413
asg9
V2015-10-21 22:10:15
p2414
sS'part2_incorrect_attempt'
p2415
(lp2416
(S'0:00:00'
p2417
V47*46
p2418
tp2419
assVdjk006
p2420
(dp2421
S'part2_correct_attempt'
p2422
(lp2423
S'0:21:57'
p2424
aV32/(47*46/2)
p2425
asS'part1_correct_attempt'
p2426
(lp2427
S'0:00:00'
p2428
aV4*8
p2429
asg9
V2015-10-20 23:49:46
p2430
sS'part2_incorrect_attempt'
p2431
(lp2432
(S'0:09:42'
p2433
V12/47 * (8/46)
p2434
tp2435
a(S'0:09:47'
p2436
V12/47 * (4/46)
p2437
tp2438
assVabasu
p2439
(dp2440
S'part2_correct_attempt'
p2441
(lp2442
S'0:33:15'
p2443
aV32/(C(47,2))
p2444
asS'part1_correct_attempt'
p2445
(lp2446
S'0:00:00'
p2447
aV32
p2448
asg9
V2015-10-19 05:16:02
p2449
sS'part2_incorrect_attempt'
p2450
(lp2451
(S'0:04:10'
p2452
V(12/47)*(11/46)
p2453
tp2454
a(S'0:28:15'
p2455
V0.08695652173
p2456
tp2457
a(S'0:29:48'
p2458
V0.08695652173+0.17391304347
p2459
tp2460
assVachava
p2461
(dp2462
S'part2_correct_attempt'
p2463
(lp2464
S'11:55:36'
p2465
aV32/ (C(47,2))
p2466
asS'part1_correct_attempt'
p2467
(lp2468
S'0:00:00'
p2469
ag817
asg9
V2015-10-19 19:12:35
p2470
sS'part2_incorrect_attempt'
p2471
(lp2472
(S'0:02:26'
p2473
V4 * (4+4) / C(13,2)* C(52,3)
p2474
tp2475
assVlahawkin
p2476
(dp2477
S'part2_correct_attempt'
p2478
(lp2479
S'0:07:53'
p2480
aV32/(47*23)
p2481
asS'part1_correct_attempt'
p2482
(lp2483
S'0:00:00'
p2484
aV2(4^2)
p2485
asg9
V2015-10-20 23:06:02
p2486
sS'part2_incorrect_attempt'
p2487
(lp2488
(S'0:00:16'
p2489
V(((16/47)+(16/47))2/52)/(2/52)
p2490
tp2491
a(S'0:00:30'
p2492
V(((16/47)+(16/47))(2/52))/(2/52)
p2493
tp2494
a(S'0:00:42'
p2495
V(((16/47)+(16/47))+(2/52))/(2/52)
p2496
tp2497
a(S'0:01:52'
p2498
V(32/47)+(32/47)
p2499
tp2500
assVcstringh
p2501
(dp2502
S'part2_correct_attempt'
p2503
(lp2504
S'0:51:46'
p2505
aV((4*8)/C(47,2))
p2506
asS'part1_correct_attempt'
p2507
(lp2508
S'0:00:00'
p2509
ag850
asg9
V2015-10-21 22:24:40
p2510
sS'part2_incorrect_attempt'
p2511
(lp2512
(S'0:22:00'
p2513
V47*46
p2514
tp2515
a(S'0:43:05'
p2516
V(12/47)
p2517
tp2518
a(S'0:43:30'
p2519
V(8/47)
p2520
tp2521
a(S'0:45:54'
p2522
V(3/47)
p2523
tp2524
a(S'0:46:01'
p2525
V(2/47)
p2526
tp2527
a(S'0:49:32'
p2528
V((4)/47)
p2529
tp2530
a(S'0:49:40'
p2531
V((3)/47)
p2532
tp2533
a(S'0:49:52'
p2534
V(13/47)
p2535
tp2536
a(S'0:49:58'
p2537
V(14/47)
p2538
tp2539
a(S'0:50:02'
p2540
V(15/47)
p2541
tp2542
a(S'0:50:22'
p2543
V(2/47)
p2544
tp2545
a(S'0:50:29'
p2546
V(3/47)
p2547
tp2548
a(S'0:50:34'
p2549
V(4/47)
p2550
tp2551
a(S'0:50:39'
p2552
V(5/47)
p2553
tp2554
a(S'0:50:43'
p2555
V(6/47)
p2556
tp2557
a(S'0:50:48'
p2558
V(7/47)
p2559
tp2560
assVdan029
p2561
(dp2562
S'part2_correct_attempt'
p2563
(lp2564
S'0:11:12'
p2565
aV32/C(47,2)
p2566
asS'part1_correct_attempt'
p2567
(lp2568
S'0:00:00'
p2569
ag132
asg9
V2015-10-22 00:03:20
p2570
sS'part2_incorrect_attempt'
p2571
(lp2572
(S'0:06:47'
p2573
V32/(47*46)/(1/52*51*50*49*48)
p2574
tp2575
a(S'0:07:04'
p2576
V32/(47*46)/(1/(52*51*50*49*48))
p2577
tp2578
a(S'0:07:14'
p2579
V32/(47*46)/((52*51*50*49*48))
p2580
tp2581
assVrbdoming
p2582
(dp2583
S'part2_correct_attempt'
p2584
(lp2585
S'0:22:17'
p2586
aV32/1081
p2587
asS'part1_correct_attempt'
p2588
(lp2589
S'0:00:00'
p2590
ag904
asg9
V2015-10-21 17:48:33
p2591
sS'part2_incorrect_attempt'
p2592
(lp2593
(S'0:02:10'
p2594
V3/32
p2595
tp2596
a(S'0:05:30'
p2597
V2/32
p2598
tp2599
assVkquong
p2600
(dp2601
S'part2_correct_attempt'
p2602
(lp2603
S'5:18:57'
p2604
aV32/(47!/(2!(47-2)!))
p2605
asS'part1_correct_attempt'
p2606
(lp2607
S'0:00:00'
p2608
aV64/2
p2609
asg9
V2015-10-17 22:48:11
p2610
sS'part2_incorrect_attempt'
p2611
(lp2612
(S'0:26:32'
p2613
V2/52
p2614
tp2615
a(S'0:27:07'
p2616
V1/(52 * 52)
p2617
tp2618
a(S'0:43:21'
p2619
V4/52 * 4/51 + 4/52 * 4/51
p2620
tp2621
a(S'0:44:53'
p2622
V4/47 * 4/46 + 4/47 * 4/46
p2623
tp2624
a(S'0:46:18'
p2625
V64/(47 * 46)* 4/46
p2626
tp2627
a(S'4:57:23'
p2628
V8/52 * 4/52
p2629
tp2630
a(S'4:57:34'
p2631
V8/52 * 4/51
p2632
tp2633
a(S'4:58:19'
p2634
V32/52 * 4/51
p2635
tp2636
a(S'4:58:31'
p2637
V32/47 * 4/46
p2638
tp2639
a(S'5:04:35'
p2640
V12/47 * 4/46
p2641
tp2642
a(S'5:06:39'
p2643
V12/47 * 4/46 * 4
p2644
tp2645
a(S'5:09:06'
p2646
V4/46
p2647
tp2648
a(S'5:09:20'
p2649
V4/47
p2650
tp2651
a(S'5:09:29'
p2652
V4/47 * 4/46
p2653
tp2654
a(S'5:12:03'
p2655
V8/47 * 4/46
p2656
tp2657
a(S'5:12:16'
p2658
V8/47 * 4/46 * 4
p2659
tp2660
assVzig006
p2661
(dp2662
S'part2_correct_attempt'
p2663
(lp2664
S'0:20:50'
p2665
aV32/1081
p2666
asS'part1_correct_attempt'
p2667
(lp2668
S'0:00:00'
p2669
aV32
p2670
asg9
V2015-10-17 00:04:07
p2671
sS'part2_incorrect_attempt'
p2672
(lp2673
(S'0:01:36'
p2674
V32/47*46
p2675
tp2676
assVyil035
p2677
(dp2678
S'part2_correct_attempt'
p2679
(lp2680
S'1 day, 17:50:11'
p2681
aV32/1081
p2682
asS'part1_correct_attempt'
p2683
(lp2684
S'0:00:00'
p2685
aV32
p2686
asg9
V2015-10-19 05:59:56
p2687
sS'part2_incorrect_attempt'
p2688
(lp2689
(S'0:00:22'
p2690
V47*46
p2691
tp2692
a(S'0:01:04'
p2693
V47*43
p2694
tp2695
assVytc012
p2696
(dp2697
S'part2_correct_attempt'
p2698
(lp2699
S'0:18:57'
p2700
aV(C(4,1)*C(8,1))/(C(47,2))
p2701
asS'part1_correct_attempt'
p2702
(lp2703
S'0:00:00'
p2704
ag1056
asg9
V2015-10-21 21:28:29
p2705
sS'part2_incorrect_attempt'
p2706
(lp2707
(S'0:03:14'
p2708
V3/(C(4,1)*C(8,1))
p2709
tp2710
a(S'0:05:34'
p2711
V1/(C(4,1)*C(8,1))
p2712
tp2713
a(S'0:08:26'
p2714
V(C(4,1))/(C(4,1)*C(8,1))
p2715
tp2716
a(S'0:08:45'
p2717
VC(8,1)/(C(4,1)*C(8,1))
p2718
tp2719
a(S'0:09:35'
p2720
VC(4,1)C(4,1)C(4,1)/(C(4,1)*C(8,1))
p2721
tp2722
assVmtrafeca
p2723
(dp2724
S'part2_correct_attempt'
p2725
(lp2726
S'0:37:37'
p2727
aV32/(47!/(2!*45!))
p2728
asS'part1_correct_attempt'
p2729
(lp2730
S'0:00:00'
p2731
ag1194
asg9
V2015-10-21 05:10:09
p2732
sS'part2_incorrect_attempt'
p2733
(lp2734
(S'0:04:10'
p2735
V12/32
p2736
tp2737
a(S'0:04:15'
p2738
V8/32
p2739
tp2740
a(S'0:05:35'
p2741
V8/47
p2742
tp2743
a(S'0:05:41'
p2744
V12/47
p2745
tp2746
a(S'0:13:16'
p2747
V3/47
p2748
tp2749
a(S'0:15:25'
p2750
V16/47
p2751
tp2752
a(S'0:15:30'
p2753
V4/47
p2754
tp2755
a(S'0:15:35'
p2756
V2/47
p2757
tp2758
a(S'0:17:30'
p2759
V47!/(3!*44!)
p2760
tp2761
a(S'0:18:59'
p2762
V3/32
p2763
tp2764
a(S'0:19:04'
p2765
V12/32
p2766
tp2767
a(S'0:19:08'
p2768
V16/32
p2769
tp2770
a(S'0:19:13'
p2771
V8/32
p2772
tp2773
a(S'0:37:25'
p2774
V47!/(2!*45!)
p2775
tp2776
assVj2phung
p2777
(dp2778
S'part2_correct_attempt'
p2779
(lp2780
S'0:07:48'
p2781
aV32/(47!/(45!2!))
p2782
asS'part1_correct_attempt'
p2783
(lp2784
S'0:00:00'
p2785
aV16*2
p2786
asg9
V2015-10-22 03:28:47
p2787
sS'part2_incorrect_attempt'
p2788
(lp2789
(S'0:02:24'
p2790
V1/32
p2791
tp2792
asss.