(dp0
V1
p1
ccollections
defaultdict
p2
(c__builtin__
list
p3
tp4
Rp5
S'Digits'
p6
(lp7
(V10!
p8
V11
p9
tp10
a(V10!
p11
V11
p12
tp13
a(V10!
p14
V10
p15
tp16
a(V10!
p17
V10
p18
tp19
asS"['R.0']"
p20
(lp21
(V10!
p22
V10^10
p23
(lp24
(S'R.0'
p25
F10.0
V10
p26
V10
p27
tp28
aVttimmons
p29
(lp30
(V$n
p31
V14
p32
tp33
a(V$ans
p34
V2184
p35
tp36
a(V$n
p37
V14
p38
tp39
a(V$ans
p40
V2184
p41
tp42
aV2015-10-11 00:42:49
p43
tp44
a(V10!
p45
VP(10,10)
p46
(lp47
(S'R.0'
p48
F10.0
V10
p49
V10
p50
tp51
aVksmurlo
p52
(lp53
(V$n
p54
V17
p55
tp56
a(V$ans
p57
V4080
p58
tp59
a(V$n
p60
V17
p61
tp62
a(V$ans
p63
V4080
p64
tp65
aV2015-10-13 23:00:40
p66
tp67
assV3
p68
g2
(g3
tp69
Rp70
g6
(lp71
(V15!/(15-3)!
p72
V455
p73
tp74
a(V15!/(15-3)!
p75
V455
p76
tp77
a(V11!/(11-3)!
p78
V6652800
p79
tp80
a(V14!/(14-3)!
p81
V364
p82
tp83
a(V16!/(16-3)!
p84
V560
p85
tp86
a(g84
V816
p87
tp88
a(V12!/(12-3)!
p89
V220
p90
tp91
a(V13!/(13-3)!
p92
V286
p93
tp94
a(V10!/(10-3)!
p95
V120
p96
tp97
a(V11!/(11-3)!
p98
V165
p99
tp100
asS'redirect'
p101
(lp102
(V14!/(14-3)!
p103
VC(14,3)
p104
tp105
a(V12!/(12-3)!
p106
VC(52,3)
p107
tp108
a(V15!/(15-3)!
p109
VC(52,3)
p110
tp111
a(V14!/(14-3)!
p112
V18!/(18-3)
p113
tp114
asS"['R.1']"
p115
(lp116
(V20!/(20-3)!
p117
V20!/3!*17!
p118
(lp119
(S'R.1'
p120
I355687428096000
V(20-3)!
p121
V17!
p122
tp123
aVmrchin
p124
(lp125
(V$n
p126
V20
p127
tp128
a(V$ans
p129
V6840
p130
tp131
a(V$n
p132
V20
p133
tp134
a(V$ans
p135
V6840
p136
tp137
aV2015-10-12 03:06:08
p138
tp139
a(g89
V12!/3!*9!
p140
(lp141
(S'R.1'
p142
I362880
V(12-3)!
p143
V9!
p144
tp145
aVhah008
p146
(lp147
(V$n
p148
V12
p149
tp150
a(V$ans
p151
V1320
p152
tp153
a(V$n
p154
V12
p155
tp156
a(V$ans
p157
V1320
p158
tp159
aV2015-10-13 02:27:24
p160
tp161
a(V18!/(18-3)!
p162
V13!(15!)
p163
(lp164
(S'R.1'
p165
I1307674368000
V(18-3)!
p166
V15!
p167
tp168
aVt2li
p169
(lp170
(V$n
p171
V18
p172
tp173
a(V$ans
p174
V4896
p175
tp176
a(V$n
p177
V18
p178
tp179
a(V$ans
p180
V4896
p181
tp182
aV2015-10-14 03:18:03
p183
tp184
a(V18!/(18-3)!
p185
V18!/3!15!
p186
(lp187
(S'R.1'
p188
I1307674368000
V(18-3)!
p189
V15!
p190
tp191
aVanislam
p192
(lp193
(V$n
p194
V18
p195
tp196
a(V$ans
p197
V4896
p198
tp199
a(V$n
p200
V18
p201
tp202
a(V$ans
p203
V4896
p204
tp205
aV2015-10-15 08:46:51
p206
tp207
asS"['R.0', 'R.1']"
p208
(lp209
(V19!/(19-3)!
p210
V19!((19-3)!)
p211
(lp212
(S'R.0'
p213
I121645100408832000
V19!
p214
V19!
p215
tp216
a(S'R.1'
p217
I20922789888000
V(19-3)!
p218
V(19-3)!
p219
tp220
aVewbrenna
p221
(lp222
(V$n
p223
V19
p224
tp225
a(V$ans
p226
V5814
p227
tp228
a(V$n
p229
V19
p230
tp231
a(V$ans
p232
V5814
p233
tp234
aV2015-10-12 19:27:38
p235
tp236
asS"['R.0']"
p237
(lp238
(V20!/(20-3)!
p239
V20!/(3!*17!)
p240
(lp241
(S'R.0'
p242
I2432902008176640000
V20!
p243
V20!
p244
tp245
aVjix029
p246
(lp247
(V$n
p248
V20
p249
tp250
a(V$ans
p251
V6840
p252
tp253
a(V$n
p254
V20
p255
tp256
a(V$ans
p257
V6840
p258
tp259
aV2015-10-09 21:44:14
p260
tp261
a(V19!/(19-3)!
p262
V19! / (16! * 3!)
p263
(lp264
(S'R.0'
p265
I121645100408832000
V19!
p266
V19!
p267
tp268
aVbmilton
p269
(lp270
(V$n
p271
V19
p272
tp273
a(V$ans
p274
V5814
p275
tp276
a(V$n
p277
V19
p278
tp279
a(V$ans
p280
V5814
p281
tp282
aV2015-10-09 22:50:13
p283
tp284
a(V15!/(15-3)!
p285
V15!/[3!*12!]
p286
(lp287
(S'R.0'
p288
I1307674368000
V15!
p289
V15!
p290
tp291
aVmasaro
p292
(lp293
(V$n
p294
V15
p295
tp296
a(V$ans
p297
V2730
p298
tp299
a(V$n
p300
V15
p301
tp302
a(V$ans
p303
V2730
p304
tp305
aV2015-10-10 00:07:20
p306
tp307
a(g78
V11!/ [(8!)(3!)]
p308
(lp309
(S'R.0'
p310
I39916800
V11!
p311
V11!
p312
tp313
aVsrl006
p314
(lp315
(V$n
p316
V11
p317
tp318
a(V$ans
p319
V990
p320
tp321
a(V$n
p322
V11
p323
tp324
a(V$ans
p325
V990
p326
tp327
aV2015-10-10 04:00:27
p328
tp329
a(V10!/(10-3)!
p330
V10! / (3! * 7!)
p331
(lp332
(S'R.0'
p333
I3628800
V10!
p334
V10!
p335
tp336
aVdpereira
p337
(lp338
(V$n
p339
V10
p340
tp341
a(V$ans
p342
V720
p343
tp344
a(V$n
p345
V10
p346
tp347
a(V$ans
p348
V720
p349
tp350
aV2015-10-10 05:32:54
p351
tp352
a(V16!/(16-3)!
p353
V16!/(3!*13!)
p354
(lp355
(S'R.0'
p356
I20922789888000
V16!
p357
V16!
p358
tp359
aVggaddi
p360
(lp361
(V$n
p362
V16
p363
tp364
a(V$ans
p365
V3360
p366
tp367
a(V$n
p368
V16
p369
tp370
a(V$ans
p371
V3360
p372
tp373
aV2015-10-10 06:15:04
p374
tp375
a(V19!/(19-3)!
p376
V19!/3!
p377
(lp378
(S'R.0'
p379
I121645100408832000
V19!
p380
V19!
p381
tp382
aVbtn023
p383
(lp384
(V$n
p385
V19
p386
tp387
a(V$ans
p388
V5814
p389
tp390
a(V$n
p391
V19
p392
tp393
a(V$ans
p394
V5814
p395
tp396
aV2015-10-10 08:13:13
p397
tp398
a(g376
V19!/(16!*3!)
p399
(lp400
(S'R.0'
p401
I121645100408832000
V19!
p402
V19!
p403
tp404
aVbtn023
p405
g384
V2015-10-10 08:14:00
p406
tp407
a(V18!/(18-3)!
p408
V18!/[(18-3)!3!]
p409
(lp410
(S'R.0'
p411
I6402373705728000
V18!
p412
V18!
p413
tp414
aVpthsu
p415
(lp416
(V$n
p417
V18
p418
tp419
a(V$ans
p420
V4896
p421
tp422
a(V$n
p423
V18
p424
tp425
a(V$ans
p426
V4896
p427
tp428
aV2015-10-10 19:09:17
p429
tp430
a(V20!/(20-3)!
p431
V20!/(17!*3!)
p432
(lp433
(S'R.0'
p434
I2432902008176640000
V20!
p435
V20!
p436
tp437
aVmtrafeca
p438
(lp439
(V$n
p440
V20
p441
tp442
a(V$ans
p443
V6840
p444
tp445
a(V$n
p446
V20
p447
tp448
a(V$ans
p449
V6840
p450
tp451
aV2015-10-10 19:45:52
p452
tp453
a(V14!/(14-3)!
p454
V14!/7!
p455
(lp456
(S'R.0'
p457
I87178291200
V14!
p458
V14!
p459
tp460
aVdjk006
p461
(lp462
(V$n
p463
V14
p464
tp465
a(V$ans
p466
V2184
p467
tp468
a(V$n
p469
V14
p470
tp471
a(V$ans
p472
V2184
p473
tp474
aV2015-10-10 20:54:47
p475
tp476
a(g454
V14!/10!
p477
(lp478
(S'R.0'
p479
I87178291200
V14!
p480
V14!
p481
tp482
aVdjk006
p483
g462
V2015-10-10 20:54:56
p484
tp485
a(V12!/(12-3)!
p486
V12!/(3!*(12-3)!)
p487
(lp488
(S'R.0'
p489
I479001600
V12!
p490
V12!
p491
tp492
aVlrlai
p493
(lp494
(V$n
p495
V12
p496
tp497
a(V$ans
p498
V1320
p499
tp500
a(V$n
p501
V12
p502
tp503
a(V$ans
p504
V1320
p505
tp506
aV2015-10-10 22:31:09
p507
tp508
a(g103
V14!/[3![14-3]!]
p509
(lp510
(S'R.0'
p511
I87178291200
V14!
p512
V14!
p513
tp514
aVttimmons
p515
g30
V2015-10-11 00:44:04
p516
tp517
a(g103
V14!/[3!*([14-3]!)]
p518
(lp519
(S'R.0'
p520
I87178291200
V14!
p521
V14!
p522
tp523
aVttimmons
p524
g30
V2015-10-11 00:44:15
p525
tp526
a(V14!/(14-3)!
p527
V14!/3!
p528
(lp529
(S'R.0'
p530
I87178291200
V14!
p531
V14!
p532
tp533
aVatorr
p534
(lp535
(V$n
p536
V14
p537
tp538
a(V$ans
p539
V2184
p540
tp541
a(V$n
p542
V14
p543
tp544
a(V$ans
p545
V2184
p546
tp547
aV2015-10-11 00:53:14
p548
tp549
a(V15!/(15-3)!
p550
V15!/(3!12!)
p551
(lp552
(S'R.0'
p553
I1307674368000
V15!
p554
V15!
p555
tp556
aVabasu
p557
(lp558
(V$n
p559
V15
p560
tp561
a(V$ans
p562
V2730
p563
tp564
a(V$n
p565
V15
p566
tp567
a(V$ans
p568
V2730
p569
tp570
aV2015-10-11 01:23:57
p571
tp572
a(V17!/(17-3)!
p573
V17!/(14!*6)
p574
(lp575
(S'R.0'
p576
I355687428096000
V17!
p577
V17!
p578
tp579
aVc2qiu
p580
(lp581
(V$n
p582
V17
p583
tp584
a(V$ans
p585
V4080
p586
tp587
a(V$n
p588
V17
p589
tp590
a(V$ans
p591
V4080
p592
tp593
aV2015-10-11 08:11:23
p594
tp595
a(g573
V(17!)/(14!*3!)
p596
(lp597
(S'R.0'
p598
I355687428096000
V17!
p599
V17!
p600
tp601
aVc2qiu
p602
g581
V2015-10-11 08:15:20
p603
tp604
a(g573
V(17!)/3!
p605
(lp606
(S'R.0'
p607
I355687428096000
V17!
p608
V17!
p609
tp610
aVc2qiu
p611
g581
V2015-10-11 08:15:36
p612
tp613
a(g117
V20!/(3!*17!)
p614
(lp615
(S'R.0'
p616
I2432902008176640000
V20!
p617
V20!
p618
tp619
aVmrchin
p620
g125
V2015-10-12 03:06:13
p621
tp622
a(V16!/(16-3)!
p623
V16!/3!
p624
(lp625
(S'R.0'
p626
I20922789888000
V16!
p627
V16!
p628
tp629
aVabjara
p630
(lp631
(V$n
p632
V16
p633
tp634
a(V$ans
p635
V3360
p636
tp637
a(V$n
p638
V16
p639
tp640
a(V$ans
p641
V3360
p642
tp643
aV2015-10-12 03:27:05
p644
tp645
a(g623
V16!/(3!*13!)
p646
(lp647
(S'R.0'
p648
I20922789888000
V16!
p649
V16!
p650
tp651
aVabjara
p652
g631
V2015-10-12 03:28:27
p653
tp654
a(g623
V16!/3!
p655
(lp656
(S'R.0'
p657
I20922789888000
V16!
p658
V16!
p659
tp660
aVabjara
p661
g631
V2015-10-12 03:29:27
p662
tp663
a(V14!/(14-3)!
p664
V14!/(11!(3!))
p665
(lp666
(S'R.0'
p667
I87178291200
V14!
p668
V14!
p669
tp670
aVcstringh
p671
(lp672
(V$n
p673
V14
p674
tp675
a(V$ans
p676
V2184
p677
tp678
a(V$n
p679
V14
p680
tp681
a(V$ans
p682
V2184
p683
tp684
aV2015-10-12 19:08:06
p685
tp686
a(V14!/(14-3)!
p687
V(14!)/(3!(11!))
p688
(lp689
(S'R.0'
p690
I87178291200
V14!
p691
V14!
p692
tp693
aVccn001
p694
(lp695
(V$n
p696
V14
p697
tp698
a(V$ans
p699
V2184
p700
tp701
a(V$n
p702
V14
p703
tp704
a(V$ans
p705
V2184
p706
tp707
aV2015-10-12 21:01:25
p708
tp709
a(V20!/(20-3)!
p710
V(20!)/(3!)
p711
(lp712
(S'R.0'
p713
I2432902008176640000
V20!
p714
V20!
p715
tp716
aVvolim
p717
(lp718
(V$n
p719
V20
p720
tp721
a(V$ans
p722
V6840
p723
tp724
a(V$n
p725
V20
p726
tp727
a(V$ans
p728
V6840
p729
tp730
aV2015-10-12 22:05:06
p731
tp732
a(g710
V(20!)/((3!)(17!))
p733
(lp734
(S'R.0'
p735
I2432902008176640000
V20!
p736
V20!
p737
tp738
aVvolim
p739
g718
V2015-10-12 22:05:25
p740
tp741
a(V15!/(15-3)!
p742
V15!/(3!*12!)
p743
(lp744
(S'R.0'
p745
I1307674368000
V15!
p746
V15!
p747
tp748
aVctgraves
p749
(lp750
(V$n
p751
V15
p752
tp753
a(V$ans
p754
V2730
p755
tp756
a(V$n
p757
V15
p758
tp759
a(V$ans
p760
V2730
p761
tp762
aV2015-10-13 00:21:03
p763
tp764
a(V11!/(11-3)!
p765
V(11!)/(3!*8!)
p766
(lp767
(S'R.0'
p768
I39916800
V11!
p769
V11!
p770
tp771
aVdlgoldbe
p772
(lp773
(V$n
p774
V11
p775
tp776
a(V$ans
p777
V990
p778
tp779
a(V$n
p780
V11
p781
tp782
a(V$ans
p783
V990
p784
tp785
aV2015-10-13 00:33:33
p786
tp787
a(g765
V(11!)/(3!)
p788
(lp789
(S'R.0'
p790
I39916800
V11!
p791
V11!
p792
tp793
aVdlgoldbe
p794
g773
V2015-10-13 00:34:35
p795
tp796
a(g765
V(11!)/(11-3!)
p797
(lp798
(S'R.0'
p799
I39916800
V11!
p800
V11!
p801
tp802
aVdlgoldbe
p803
g773
V2015-10-13 00:34:59
p804
tp805
a(g89
V12!/3!
p806
(lp807
(S'R.0'
p808
I479001600
V12!
p809
V12!
p810
tp811
aVhah008
p812
g147
V2015-10-13 02:26:34
p813
tp814
a(g89
V12!/(3!*9!)
p815
(lp816
(S'R.0'
p817
I479001600
V12!
p818
V12!
p819
tp820
aVhah008
p821
g147
V2015-10-13 02:27:31
p822
tp823
a(V14!/(14-3)!
p824
V14!/3!
p825
(lp826
(S'R.0'
p827
I87178291200
V14!
p828
V14!
p829
tp830
aVdkurli
p831
(lp832
(V$n
p833
V14
p834
tp835
a(V$ans
p836
V2184
p837
tp838
a(V$n
p839
V14
p840
tp841
a(V$ans
p842
V2184
p843
tp844
aV2015-10-13 07:26:02
p845
tp846
a(V11!/(11-3)!
p847
V11!/(3!8!)
p848
(lp849
(S'R.0'
p850
I39916800
V11!
p851
V11!
p852
tp853
aVjhw015
p854
(lp855
(V$n
p856
V11
p857
tp858
a(V$ans
p859
V990
p860
tp861
a(V$n
p862
V11
p863
tp864
a(V$ans
p865
V990
p866
tp867
aV2015-10-13 07:47:52
p868
tp869
a(V20!/(20-3)!
p870
V20!/3!
p871
(lp872
(S'R.0'
p873
I2432902008176640000
V20!
p874
V20!
p875
tp876
aVkrkelkar
p877
(lp878
(V$n
p879
V20
p880
tp881
a(V$ans
p882
V6840
p883
tp884
a(V$n
p885
V20
p886
tp887
a(V$ans
p888
V6840
p889
tp890
aV2015-10-13 17:34:27
p891
tp892
a(V13!/(13-3)!
p893
V13!/(10!3!)
p894
(lp895
(S'R.0'
p896
I6227020800
V13!
p897
V13!
p898
tp899
aVjcl084
p900
(lp901
(V$n
p902
V13
p903
tp904
a(V$ans
p905
V1716
p906
tp907
a(V$n
p908
V13
p909
tp910
a(V$ans
p911
V1716
p912
tp913
aV2015-10-13 20:06:34
p914
tp915
a(V12!/(12-3)!
p916
V12!/(3!9!)
p917
(lp918
(S'R.0'
p919
I479001600
V12!
p920
V12!
p921
tp922
aVspw006
p923
(lp924
(V$n
p925
V12
p926
tp927
a(V$ans
p928
V1320
p929
tp930
a(V$n
p931
V12
p932
tp933
a(V$ans
p934
V1320
p935
tp936
aV2015-10-13 21:02:22
p937
tp938
a(g916
V12!/(3!)
p939
(lp940
(S'R.0'
p941
I479001600
V12!
p942
V12!
p943
tp944
aVspw006
p945
g924
V2015-10-13 21:02:30
p946
tp947
a(V17!/(17-3)!
p948
V17!/((17)(16)(15))
p949
(lp950
(S'R.0'
p951
I355687428096000
V17!
p952
V17!
p953
tp954
aVaportuga
p955
(lp956
(V$n
p957
V17
p958
tp959
a(V$ans
p960
V4080
p961
tp962
a(V$n
p963
V17
p964
tp965
a(V$ans
p966
V4080
p967
tp968
aV2015-10-13 22:33:46
p969
tp970
a(V14!/(14-3)!
p971
V14!/(3!11!)
p972
(lp973
(S'R.0'
p974
I87178291200
V14!
p975
V14!
p976
tp977
aVs6deng
p978
(lp979
(V$n
p980
V14
p981
tp982
a(V$ans
p983
V2184
p984
tp985
a(V$n
p986
V14
p987
tp988
a(V$ans
p989
V2184
p990
tp991
aV2015-10-13 22:56:55
p992
tp993
a(V16!/(16-3)!
p994
V16! / ((13!)(3!))
p995
(lp996
(S'R.0'
p997
I20922789888000
V16!
p998
V16!
p999
tp1000
aVmcatozzi
p1001
(lp1002
(V$n
p1003
V16
p1004
tp1005
a(V$ans
p1006
V3360
p1007
tp1008
a(V$n
p1009
V16
p1010
tp1011
a(V$ans
p1012
V3360
p1013
tp1014
aV2015-10-13 23:00:24
p1015
tp1016
a(V10!/(10-3)!
p1017
V10!/(3! * 7!)
p1018
(lp1019
(S'R.0'
p1020
I3628800
V10!
p1021
V10!
p1022
tp1023
aVv4sharma
p1024
(lp1025
(V$n
p1026
V10
p1027
tp1028
a(V$ans
p1029
V720
p1030
tp1031
a(V$n
p1032
V10
p1033
tp1034
a(V$ans
p1035
V720
p1036
tp1037
aV2015-10-13 23:58:38
p1038
tp1039
a(V15!/(15-3)!
p1040
V15!/(12!3!)
p1041
(lp1042
(S'R.0'
p1043
I1307674368000
V15!
p1044
V15!
p1045
tp1046
aVagoldsht
p1047
(lp1048
(V$n
p1049
V15
p1050
tp1051
a(V$ans
p1052
V2730
p1053
tp1054
a(V$n
p1055
V15
p1056
tp1057
a(V$ans
p1058
V2730
p1059
tp1060
aV2015-10-14 01:37:19
p1061
tp1062
a(g1040
V15!/3!
p1063
(lp1064
(S'R.0'
p1065
I1307674368000
V15!
p1066
V15!
p1067
tp1068
aVagoldsht
p1069
g1048
V2015-10-14 02:04:31
p1070
tp1071
a(g1040
V15!/(12!3!)
p1072
(lp1073
(S'R.0'
p1074
I1307674368000
V15!
p1075
V15!
p1076
tp1077
aVagoldsht
p1078
g1048
V2015-10-14 02:04:57
p1079
tp1080
a(V11!/(11-3)!
p1081
V11!/(7!)
p1082
(lp1083
(S'R.0'
p1084
I39916800
V11!
p1085
V11!
p1086
tp1087
aVtcn013
p1088
(lp1089
(V$n
p1090
V11
p1091
tp1092
a(V$ans
p1093
V990
p1094
tp1095
a(V$n
p1096
V11
p1097
tp1098
a(V$ans
p1099
V990
p1100
tp1101
aV2015-10-14 02:57:45
p1102
tp1103
a(V19!/(19-3)!
p1104
V19!/(3!16!)
p1105
(lp1106
(S'R.0'
p1107
I121645100408832000
V19!
p1108
V19!
p1109
tp1110
aVyos017
p1111
(lp1112
(V$n
p1113
V19
p1114
tp1115
a(V$ans
p1116
V5814
p1117
tp1118
a(V$n
p1119
V19
p1120
tp1121
a(V$ans
p1122
V5814
p1123
tp1124
aV2015-10-14 05:06:33
p1125
tp1126
a(g1104
V19!/(3!*16!)
p1127
(lp1128
(S'R.0'
p1129
I121645100408832000
V19!
p1130
V19!
p1131
tp1132
aVyos017
p1133
g1112
V2015-10-14 05:06:47
p1134
tp1135
a(V11!/(11-3)!
p1136
V11! / ((8!)(3!))
p1137
(lp1138
(S'R.0'
p1139
I39916800
V11!
p1140
V11!
p1141
tp1142
aVsyc078
p1143
(lp1144
(V$n
p1145
V11
p1146
tp1147
a(V$ans
p1148
V990
p1149
tp1150
aV2015-10-14 14:18:05
p1151
tp1152
a(V17!/(17-3)!
p1153
V17!/(15!)
p1154
(lp1155
(S'R.0'
p1156
I355687428096000
V17!
p1157
V17!
p1158
tp1159
aVnisharma
p1160
(lp1161
(V$n
p1162
V17
p1163
tp1164
a(V$ans
p1165
V4080
p1166
tp1167
a(V$n
p1168
V17
p1169
tp1170
a(V$ans
p1171
V4080
p1172
tp1173
aV2015-10-14 17:46:51
p1174
tp1175
a(V17!/(17-3)!
p1176
V17!/(14!3!)
p1177
(lp1178
(S'R.0'
p1179
I355687428096000
V17!
p1180
V17!
p1181
tp1182
aVrbdoming
p1183
(lp1184
(V$n
p1185
V17
p1186
tp1187
a(V$ans
p1188
V4080
p1189
tp1190
a(V$n
p1191
V17
p1192
tp1193
a(V$ans
p1194
V4080
p1195
tp1196
aV2015-10-14 18:09:50
p1197
tp1198
a(V20!/(20-3)!
p1199
V(20!)/((3!)*(17!))
p1200
(lp1201
(S'R.0'
p1202
I2432902008176640000
V20!
p1203
V20!
p1204
tp1205
aVarvenega
p1206
(lp1207
(V$n
p1208
V20
p1209
tp1210
a(V$ans
p1211
V6840
p1212
tp1213
a(V$n
p1214
V20
p1215
tp1216
a(V$ans
p1217
V6840
p1218
tp1219
aV2015-10-14 18:26:00
p1220
tp1221
a(V13!/(13-3)!
p1222
V13!/3!
p1223
(lp1224
(S'R.0'
p1225
I6227020800
V13!
p1226
V13!
p1227
tp1228
aVanvan
p1229
(lp1230
(V$n
p1231
V13
p1232
tp1233
a(V$ans
p1234
V1716
p1235
tp1236
a(V$n
p1237
V13
p1238
tp1239
a(V$ans
p1240
V1716
p1241
tp1242
aV2015-10-14 19:41:52
p1243
tp1244
a(g1222
V13!/ (3!10!)
p1245
(lp1246
(S'R.0'
p1247
I6227020800
V13!
p1248
V13!
p1249
tp1250
aVanvan
p1251
g1230
V2015-10-14 19:42:05
p1252
tp1253
a(g1222
V13!/ 3!
p1254
(lp1255
(S'R.0'
p1256
I6227020800
V13!
p1257
V13!
p1258
tp1259
aVanvan
p1260
g1230
V2015-10-14 19:42:23
p1261
tp1262
a(g1222
V13!/(10!3!)
p1263
(lp1264
(S'R.0'
p1265
I6227020800
V13!
p1266
V13!
p1267
tp1268
aVanvan
p1269
g1230
V2015-10-14 19:43:07
p1270
tp1271
a(V10!/(10-3)!
p1272
V10!/(7!3!)
p1273
(lp1274
(S'R.0'
p1275
I3628800
V10!
p1276
V10!
p1277
tp1278
aVc1sorian
p1279
(lp1280
(V$n
p1281
V10
p1282
tp1283
a(V$ans
p1284
V720
p1285
tp1286
a(V$n
p1287
V10
p1288
tp1289
a(V$ans
p1290
V720
p1291
tp1292
aV2015-10-14 21:52:30
p1293
tp1294
a(V17!/(17-3)!
p1295
V17!/(14!3!)
p1296
(lp1297
(S'R.0'
p1298
I355687428096000
V17!
p1299
V17!
p1300
tp1301
aVytc012
p1302
(lp1303
(V$n
p1304
V17
p1305
tp1306
a(V$ans
p1307
V4080
p1308
tp1309
a(V$n
p1310
V17
p1311
tp1312
a(V$ans
p1313
V4080
p1314
tp1315
aV2015-10-14 21:59:45
p1316
tp1317
a(g1295
V17!/(3!)
p1318
(lp1319
(S'R.0'
p1320
I355687428096000
V17!
p1321
V17!
p1322
tp1323
aVytc012
p1324
g1303
V2015-10-14 21:59:59
p1325
tp1326
a(V20!/(20-3)!
p1327
V(20!)/((20-17)!)
p1328
(lp1329
(S'R.0'
p1330
I2432902008176640000
V20!
p1331
V20!
p1332
tp1333
aVkmc012
p1334
(lp1335
(V$n
p1336
V20
p1337
tp1338
a(V$ans
p1339
V6840
p1340
tp1341
a(V$n
p1342
V20
p1343
tp1344
a(V$ans
p1345
V6840
p1346
tp1347
aV2015-10-15 00:58:48
p1348
tp1349
a(V17!/(17-3)!
p1350
V17!/(3!14!)
p1351
(lp1352
(S'R.0'
p1353
I355687428096000
V17!
p1354
V17!
p1355
tp1356
aVjmiclat
p1357
(lp1358
(V$n
p1359
V17
p1360
tp1361
a(V$ans
p1362
V4080
p1363
tp1364
a(V$n
p1365
V17
p1366
tp1367
a(V$ans
p1368
V4080
p1369
tp1370
aV2015-10-15 02:47:27
p1371
tp1372
a(V19!/(19-3)!
p1373
V19!/17!
p1374
(lp1375
(S'R.0'
p1376
I121645100408832000
V19!
p1377
V19!
p1378
tp1379
aVkew017
p1380
(lp1381
(V$n
p1382
V19
p1383
tp1384
a(V$ans
p1385
V5814
p1386
tp1387
a(V$n
p1388
V19
p1389
tp1390
a(V$ans
p1391
V5814
p1392
tp1393
aV2015-10-15 05:29:23
p1394
tp1395
a(g112
V14!/(14-3)
p1396
(lp1397
(S'R.0'
p1398
I87178291200
V14!
p1399
V14!
p1400
tp1401
aVagian
p1402
(lp1403
(V$n
p1404
V14
p1405
tp1406
a(V$ans
p1407
V2184
p1408
tp1409
a(V$n
p1410
V14
p1411
tp1412
a(V$ans
p1413
V2184
p1414
tp1415
aV2015-10-15 07:12:15
p1416
tp1417
a(g185
V18!/(3!15!)
p1418
(lp1419
(S'R.0'
p1420
I6402373705728000
V18!
p1421
V18!
p1422
tp1423
aVanislam
p1424
g193
V2015-10-15 08:46:59
p1425
tp1426
a(g185
V18!/3!
p1427
(lp1428
(S'R.0'
p1429
I6402373705728000
V18!
p1430
V18!
p1431
tp1432
aVanislam
p1433
g193
V2015-10-15 08:47:08
p1434
tp1435
a(V14!/(14-3)!
p1436
V14!/3!
p1437
(lp1438
(S'R.0'
p1439
I87178291200
V14!
p1440
V14!
p1441
tp1442
aVaalhaida
p1443
(lp1444
(V$n
p1445
V14
p1446
tp1447
a(V$ans
p1448
V2184
p1449
tp1450
a(V$n
p1451
V14
p1452
tp1453
a(V$ans
p1454
V2184
p1455
tp1456
aV2015-10-15 14:04:55
p1457
tp1458
a(V18!/(18-3)!
p1459
V18!/(8!)
p1460
(lp1461
(S'R.0'
p1462
I6402373705728000
V18!
p1463
V18!
p1464
tp1465
aVralhadda
p1466
(lp1467
(V$n
p1468
V18
p1469
tp1470
a(V$ans
p1471
V4896
p1472
tp1473
a(V$n
p1474
V18
p1475
tp1476
a(V$ans
p1477
V4896
p1478
tp1479
aV2015-10-15 17:26:42
p1480
tp1481
a(V15!/(15-3)!
p1482
V15!/ (3! * 12!)
p1483
(lp1484
(S'R.0'
p1485
I1307674368000
V15!
p1486
V15!
p1487
tp1488
aVkgrozav
p1489
(lp1490
(V$n
p1491
V15
p1492
tp1493
a(V$ans
p1494
V2730
p1495
tp1496
a(V$n
p1497
V15
p1498
tp1499
a(V$ans
p1500
V2730
p1501
tp1502
aV2015-10-15 18:11:25
p1503
tp1504
a(V11!/(11-3)!
p1505
V11! / ( 3! * 8!)
p1506
(lp1507
(S'R.0'
p1508
I39916800
V11!
p1509
V11!
p1510
tp1511
aVdac064
p1512
(lp1513
(V$n
p1514
V11
p1515
tp1516
a(V$ans
p1517
V990
p1518
tp1519
a(V$n
p1520
V11
p1521
tp1522
a(V$ans
p1523
V990
p1524
tp1525
aV2015-10-15 19:20:22
p1526
tp1527
a(V20!/(20-3)!
p1528
V20!/(17!3!)
p1529
(lp1530
(S'R.0'
p1531
I2432902008176640000
V20!
p1532
V20!
p1533
tp1534
aVjtfrankl
p1535
(lp1536
(V$n
p1537
V20
p1538
tp1539
a(V$ans
p1540
V6840
p1541
tp1542
a(V$n
p1543
V20
p1544
tp1545
a(V$ans
p1546
V6840
p1547
tp1548
aV2015-10-15 20:34:47
p1549
tp1550
a(V16!/(16-3)!
p1551
V(16!)/[(3!)(12!)]
p1552
(lp1553
(S'R.0'
p1554
I20922789888000
V16!
p1555
V16!
p1556
tp1557
aVakg009
p1558
(lp1559
(V$n
p1560
V16
p1561
tp1562
a(V$ans
p1563
V3360
p1564
tp1565
a(V$n
p1566
V16
p1567
tp1568
a(V$ans
p1569
V3360
p1570
tp1571
aV2015-10-15 21:30:07
p1572
tp1573
a(g1551
V(16!)/[(3!)(13!)]
p1574
(lp1575
(S'R.0'
p1576
I20922789888000
V16!
p1577
V16!
p1578
tp1579
aVakg009
p1580
g1559
V2015-10-15 21:32:00
p1581
tp1582
a(V13!/(13-3)!
p1583
V13!/(13-3)
p1584
(lp1585
(S'R.0'
p1586
I6227020800
V13!
p1587
V13!
p1588
tp1589
aVbpandayk
p1590
(lp1591
(V$n
p1592
V13
p1593
tp1594
a(V$ans
p1595
V1716
p1596
tp1597
a(V$n
p1598
V13
p1599
tp1600
a(V$ans
p1601
V1716
p1602
tp1603
aV2015-10-15 21:51:38
p1604
tp1605
asS"['R.1.0.0']"
p1606
(lp1607
(g893
VC(10,3)13!/(10!3!)
p1608
(lp1609
(S'R.1.0.0'
p1610
F13.0
V13
p1611
V13
p1612
tp1613
aVjcl084
p1614
g901
V2015-10-13 20:07:04
p1615
tp1616
asS'Fraction'
p1617
(lp1618
(g431
V52!/(49!*3!)
p1619
tp1620
a(g103
V3!/[3![11!]]
p1621
tp1622
a(V12!/(12-3)!
p1623
V12!/(12!-3!)
p1624
tp1625
a(g765
V(3!*8!)/(11!)
p1626
tp1627
a(g948
V3!/(17!(14!))
p1628
tp1629
a(g1153
V17!/(3!*15!)
p1630
tp1631
a(g1176
V17/(14!3!)
p1632
tp1633
a(V12!/(12-3)!
p1634
V3!/12!
p1635
tp1636
a(g1350
V17!/(3!15!)
p1637
tp1638
a(V12!/(12-3)!
p1639
V3!/9!
p1640
tp1641
a(g1551
V(1/16) * (1/15) * (1/14)
p1642
tp1643
asS"['R']"
p1644
(lp1645
(V20!/(20-3)!
p1646
VP(20,3)
p1647
(lp1648
(S'R'
p1649
F6840.0
g1646
g1647
tp1650
aVvsamant
p1651
(lp1652
(V$n
p1653
V20
p1654
tp1655
a(V$ans
p1656
V6840
p1657
tp1658
a(V$n
p1659
V20
p1660
tp1661
a(V$ans
p1662
V6840
p1663
tp1664
aV2015-10-10 00:33:53
p1665
tp1666
a(V12!/(12-3)!
p1667
VP(12,3)
p1668
(lp1669
(g1649
F1320.0
g1667
g1668
tp1670
aVt1tran
p1671
(lp1672
(V$n
p1673
V12
p1674
tp1675
a(V$ans
p1676
V1320
p1677
tp1678
a(V$n
p1679
V12
p1680
tp1681
a(V$ans
p1682
V1320
p1683
tp1684
aV2015-10-10 05:27:49
p1685
tp1686
a(g376
VP(19,3)
p1687
(lp1688
(g1649
F5814.0
g376
g1687
tp1689
aVbtn023
p1690
g384
V2015-10-10 08:12:47
p1691
tp1692
a(V13!/(13-3)!
p1693
VP(13,3)
p1694
(lp1695
(g1649
F1716.0
g1693
g1694
tp1696
aValakamsa
p1697
(lp1698
(V$n
p1699
V13
p1700
tp1701
a(V$ans
p1702
V1716
p1703
tp1704
a(V$n
p1705
V13
p1706
tp1707
a(V$ans
p1708
V1716
p1709
tp1710
aV2015-10-10 19:34:18
p1711
tp1712
a(g486
VP(12,3)
p1713
(lp1714
(g1649
F1320.0
g486
g1713
tp1715
aVlrlai
p1716
g494
V2015-10-10 22:30:38
p1717
tp1718
a(g527
VP(14,3)
p1719
(lp1720
(g1649
F2184.0
g527
g1719
tp1721
aVatorr
p1722
g535
V2015-10-11 00:53:00
p1723
tp1724
a(V13!/(13-3)!
p1725
VP(13,3)
p1726
(lp1727
(g1649
F1716.0
g1725
g1726
tp1728
aVkew060
p1729
(lp1730
(V$n
p1731
V13
p1732
tp1733
a(V$ans
p1734
V1716
p1735
tp1736
a(V$n
p1737
V13
p1738
tp1739
a(V$ans
p1740
V1716
p1741
tp1742
aV2015-10-14 01:12:25
p1743
tp1744
a(V18!/(18-3)!
p1745
VP(18,3)
p1746
(lp1747
(g1649
F4896.0
g1745
g1746
tp1748
aVhmshah
p1749
(lp1750
(V$n
p1751
V18
p1752
tp1753
a(V$ans
p1754
V4896
p1755
tp1756
a(V$n
p1757
V18
p1758
tp1759
a(V$ans
p1760
V4896
p1761
tp1762
aV2015-10-14 01:39:00
p1763
tp1764
a(g1081
VP(11,3)
p1765
(lp1766
(g1649
F990.0
g1081
g1765
tp1767
aVtcn013
p1768
g1089
V2015-10-14 02:57:35
p1769
tp1770
a(g162
VP(18,3)
p1771
(lp1772
(g1649
F4896.0
g162
g1771
tp1773
aVt2li
p1774
g170
V2015-10-14 03:17:51
p1775
tp1776
a(V11!/(11-3)!
p1777
VP(11,3)
p1778
(lp1779
(g1649
F990.0
g1777
g1778
tp1780
aVskodigal
p1781
(lp1782
(V$n
p1783
V11
p1784
tp1785
a(V$ans
p1786
V990
p1787
tp1788
a(V$n
p1789
V11
p1790
tp1791
a(V$ans
p1792
V990
p1793
tp1794
aV2015-10-14 05:38:31
p1795
tp1796
a(V15!/(15-3)!
p1797
VP(15,3)
p1798
(lp1799
(g1649
F2730.0
g1797
g1798
tp1800
aVmnrahman
p1801
(lp1802
(V$n
p1803
V15
p1804
tp1805
a(V$ans
p1806
V2730
p1807
tp1808
a(V$n
p1809
V15
p1810
tp1811
a(V$ans
p1812
V2730
p1813
tp1814
aV2015-10-15 06:54:05
p1815
tp1816
a(V13!/(13-3)!
p1817
VP(13, 3)
p1818
(lp1819
(g1649
F1716.0
g1817
g1818
tp1820
aVazkong
p1821
(lp1822
(V$n
p1823
V13
p1824
tp1825
a(V$ans
p1826
V1716
p1827
tp1828
a(V$n
p1829
V13
p1830
tp1831
a(V$ans
p1832
V1716
p1833
tp1834
aV2015-10-15 15:24:54
p1835
tp1836
assV2
p1837
g2
(g3
tp1838
Rp1839
g6
(lp1840
(V20
p1841
V52
p1842
tp1843
a(V12
p1844
V52
p1845
tp1846
a(V15
p1847
V52
p1848
tp1849
a(V10
p1850
V720
p1851
tp1852
a(V18
p1853
V1,2,3,4,5,6,7,8,9,10,11,12,13,14,15,16,17,18
p1854
tp1855
a(V13
p1856
V52
p1857
tp1858
a(V16
p1859
V560
p1860
tp1861
a(g1859
V3360
p1862
tp1863
a(V17
p1864
V171
p1865
tp1866
a(V14
p1867
V18
p1868
tp1869
ass.