(dp0
V1
p1
(dp2
sV3
p3
(dp4
Valhung
p5
(dp6
S'part3_correct_attempt'
p7
(lp8
S'0:01:17'
p9
aV(13!)/[(13-3)!]
p10
asS'part2_correct_attempt'
p11
(lp12
S'0:00:00'
p13
aV13
p14
asS'part1_correct_attempt'
p15
(lp16
S'0:00:00'
p17
aV10!
p18
asS'first_attempt'
p19
V2015-10-15 18:39:56
p20
sS'part3_incorrect_attempt'
p21
(lp22
(S'0:00:00'
p23
VC(13,3)
p24
tp25
assVhah008
p26
(dp27
S'part3_correct_attempt'
p28
(lp29
S'0:08:15'
p30
aV12*11*10
p31
asS'part2_correct_attempt'
p32
(lp33
S'0:00:00'
p34
aV12
p35
asS'part1_correct_attempt'
p36
(lp37
S'0:00:00'
p38
aV10!
p39
asg19
V2015-10-13 02:23:04
p40
sS'part3_incorrect_attempt'
p41
(lp42
(S'0:00:28'
p43
V12!/9!3!
p44
tp45
a(S'0:01:13'
p46
VC(12,3)
p47
tp48
assVakhmelni
p49
(dp50
S'part3_correct_attempt'
p51
(lp52
S'0:00:54'
p53
aV(17!)/(17-3)!
p54
asS'part2_correct_attempt'
p55
(lp56
S'0:00:24'
p57
aV17
p58
asS'part1_correct_attempt'
p59
(lp60
S'0:00:00'
p61
aV10!
p62
asg19
V2015-10-15 22:05:42
p63
sS'part3_incorrect_attempt'
p64
(lp65
(S'0:00:24'
p66
V3!
p67
tp68
assVvsamant
p69
(dp70
S'part3_correct_attempt'
p71
(lp72
S'0:01:34'
p73
aV20!/(20-3)!
p74
asS'part2_correct_attempt'
p75
(lp76
S'0:00:00'
p77
aV20
p78
asS'part1_correct_attempt'
p79
(lp80
S'0:00:00'
p81
aV10!
p82
asg19
V2015-10-10 00:33:46
p83
sS'part3_incorrect_attempt'
p84
(lp85
(S'0:00:00'
p86
VC(20,3)
p87
tp88
assVtol003
p89
(dp90
S'part3_correct_attempt'
p91
(lp92
S'0:01:03'
p93
aV16!/(16-3)!
p94
asS'part2_correct_attempt'
p95
(lp96
S'0:00:00'
p97
aV16
p98
asS'part1_correct_attempt'
p99
(lp100
S'0:00:00'
p101
aV10!
p102
asg19
V2015-10-13 23:08:51
p103
sS'part3_incorrect_attempt'
p104
(lp105
(S'0:00:00'
p106
V16!
p107
tp108
assVlguintu
p109
(dp110
S'part3_correct_attempt'
p111
(lp112
S'0:00:21'
p113
aV12!/9!
p114
asS'part2_correct_attempt'
p115
(lp116
S'0:00:00'
p117
aV12
p118
asS'part1_correct_attempt'
p119
(lp120
S'0:00:00'
p121
aV10!
p122
asg19
V2015-10-09 20:58:55
p123
sS'part3_incorrect_attempt'
p124
(lp125
(S'0:00:00'
p126
V3!
p127
tp128
assVc1sorian
p129
(dp130
S'part3_correct_attempt'
p131
(lp132
S'0:01:35'
p133
aV10!/(7!)
p134
asS'part2_correct_attempt'
p135
(lp136
S'0:00:27'
p137
aV10
p138
asS'part1_correct_attempt'
p139
(lp140
S'0:00:00'
p141
aV10!
p142
asg19
V2015-10-14 21:51:52
p143
sS'part3_incorrect_attempt'
p144
(lp145
(S'0:00:27'
p146
V10!/7!3!
p147
tp148
assVewbrenna
p149
(dp150
S'part3_correct_attempt'
p151
(lp152
S'0:00:57'
p153
aV19!/((19-3)!)
p154
asS'part2_correct_attempt'
p155
(lp156
S'0:00:00'
p157
aV19
p158
asS'part1_correct_attempt'
p159
(lp160
S'0:00:00'
p161
aV10!
p162
asg19
V2015-10-12 19:27:38
p163
sS'part3_incorrect_attempt'
p164
(lp165
(S'0:00:35'
p166
V(19!((19-3)!))*3!
p167
tp168
assVmasaro
p169
(dp170
S'part3_correct_attempt'
p171
(lp172
S'0:02:35'
p173
aV6*(15!/[3!*12!])
p174
asS'part2_correct_attempt'
p175
(lp176
S'0:00:00'
p177
aV15
p178
asS'part1_correct_attempt'
p179
(lp180
S'0:00:00'
p181
aV10!
p182
asg19
V2015-10-10 00:06:52
p183
sS'part3_incorrect_attempt'
p184
(lp185
(S'0:00:00'
p186
VC(15,3)
p187
tp188
assVanislam
p189
(dp190
S'part3_correct_attempt'
p191
(lp192
S'0:00:44'
p193
aV18!/15!
p194
asS'part2_correct_attempt'
p195
(lp196
S'0:00:00'
p197
aV18
p198
asS'part1_correct_attempt'
p199
(lp200
S'0:00:00'
p201
aV10!
p202
asg19
V2015-10-15 08:46:37
p203
sS'part3_incorrect_attempt'
p204
(lp205
(S'0:00:00'
p206
VC(18,3)
p207
tp208
assVpcdo
p209
(dp210
S'part3_correct_attempt'
p211
(lp212
S'0:00:25'
p213
aV17!/(17-3)!
p214
asS'part2_correct_attempt'
p215
(lp216
S'0:00:00'
p217
aV17
p218
asS'part1_correct_attempt'
p219
(lp220
S'0:00:00'
p221
aV10!
p222
asg19
V2015-10-13 18:10:44
p223
sS'part3_incorrect_attempt'
p224
(lp225
(S'0:00:00'
p226
VC(17,3)
p227
tp228
assVt2li
p229
(dp230
S'part3_correct_attempt'
p231
(lp232
S'0:02:30'
p233
aV18!/(15!)
p234
asS'part2_correct_attempt'
p235
(lp236
S'0:00:50'
p237
aV18
p238
asS'part1_correct_attempt'
p239
(lp240
S'0:00:00'
p241
aV10!
p242
asg19
V2015-10-14 03:15:43
p243
sS'part3_incorrect_attempt'
p244
(lp245
(S'0:01:09'
p246
VC(18,3)
p247
tp248
assVjmiclat
p249
(dp250
S'part3_correct_attempt'
p251
(lp252
S'0:00:39'
p253
aV17!/(14!)
p254
asS'part2_correct_attempt'
p255
(lp256
S'0:00:00'
p257
aV17
p258
asS'part1_correct_attempt'
p259
(lp260
S'0:00:00'
p261
aV10!
p262
asg19
V2015-10-15 02:47:13
p263
sS'part3_incorrect_attempt'
p264
(lp265
(S'0:00:00'
p266
V17!/3!15!
p267
tp268
assVagoldsht
p269
(dp270
S'part3_correct_attempt'
p271
(lp272
S'0:29:26'
p273
aV15!/(12!)
p274
asS'part2_correct_attempt'
p275
(lp276
S'0:01:21'
p277
aV15
p278
asS'part1_correct_attempt'
p279
(lp280
S'0:00:00'
p281
aV10!
p282
asg19
V2015-10-14 01:35:45
p283
sS'part3_incorrect_attempt'
p284
(lp285
(S'0:01:21'
p286
V10!/(7!3!)
p287
tp288
assVamquinte
p289
(dp290
S'part3_correct_attempt'
p291
(lp292
S'0:04:43'
p293
aV16(15)(14)
p294
asS'part2_correct_attempt'
p295
(lp296
S'0:00:00'
p297
aV16
p298
asS'part1_correct_attempt'
p299
(lp300
S'0:00:00'
p301
aV10!
p302
asg19
V2015-10-12 19:35:57
p303
sS'part3_incorrect_attempt'
p304
(lp305
(S'0:00:00'
p306
V16!15!14!
p307
tp308
a(S'0:04:29'
p309
V16!15!14!
p310
tp311
assVj6quach
p312
(dp313
S'part3_correct_attempt'
p314
(lp315
S'0:00:25'
p316
aV15!/12!
p317
asS'part2_correct_attempt'
p318
(lp319
S'0:00:00'
p320
aV15
p321
asS'part1_correct_attempt'
p322
(lp323
S'0:00:00'
p324
aV10!
p325
asg19
V2015-10-09 05:05:15
p326
sS'part3_incorrect_attempt'
p327
(lp328
(S'0:00:00'
p329
VP(10,3)
p330
tp331
a(S'0:00:10'
p332
V10!/7!
p333
tp334
assVgsrandha
p335
(dp336
S'part3_correct_attempt'
p337
(lp338
S'0:01:27'
p339
aV15*14*13
p340
asS'part2_correct_attempt'
p341
(lp342
S'0:00:06'
p343
aV15
p344
asS'part1_correct_attempt'
p345
(lp346
S'0:00:00'
p347
aV10!
p348
asg19
V2015-10-12 06:46:12
p349
sS'part3_incorrect_attempt'
p350
(lp351
(S'0:00:57'
p352
V15^3
p353
tp354
assVjyc018
p355
(dp356
S'part3_correct_attempt'
p357
(lp358
S'0:01:46'
p359
aV15!/(12!)
p360
asS'part2_correct_attempt'
p361
(lp362
S'0:01:02'
p363
aV15
p364
asS'part1_correct_attempt'
p365
(lp366
S'0:00:00'
p367
aV10!
p368
asg19
V2015-10-12 01:38:59
p369
sS'part3_incorrect_attempt'
p370
(lp371
(S'0:01:02'
p372
V52!/(49!)
p373
tp374
assVbmilton
p375
(dp376
S'part3_correct_attempt'
p377
(lp378
S'0:00:31'
p379
aV19! / 16!
p380
asS'part2_correct_attempt'
p381
(lp382
S'0:00:00'
p383
aV19
p384
asS'part1_correct_attempt'
p385
(lp386
S'0:00:00'
p387
aV10!
p388
asg19
V2015-10-09 22:49:54
p389
sS'part3_incorrect_attempt'
p390
(lp391
(S'0:00:00'
p392
VC(19,3)
p393
tp394
assVmnrahman
p395
(dp396
S'part3_correct_attempt'
p397
(lp398
S'0:00:35'
p399
aV15!/(15-3)!
p400
asS'part2_correct_attempt'
p401
(lp402
S'0:00:00'
p403
aV15
p404
asS'part1_correct_attempt'
p405
(lp406
S'0:00:00'
p407
aV10!
p408
asg19
V2015-10-15 06:53:57
p409
sS'part3_incorrect_attempt'
p410
(lp411
(S'0:00:00'
p412
VC(15,3)
p413
tp414
assVjew037
p415
(dp416
S'part3_correct_attempt'
p417
(lp418
S'0:00:23'
p419
aV990
p420
asS'part3_incorrect_attempt'
p421
(lp422
(S'0:00:10'
p423
V3!
p424
tp425
asS'part1_correct_attempt'
p426
(lp427
S'0:00:00'
p428
aV10!
p429
asg19
V2015-10-14 04:41:33
p430
ssVrsmurlo
p431
(dp432
S'part3_correct_attempt'
p433
(lp434
S'0:00:13'
p435
aV15*14*13
p436
asS'part2_correct_attempt'
p437
(lp438
S'0:00:00'
p439
aV15
p440
asS'part1_correct_attempt'
p441
(lp442
S'0:00:00'
p443
aV10!
p444
asg19
V2015-10-13 06:08:56
p445
sS'part3_incorrect_attempt'
p446
(lp447
(S'0:00:00'
p448
V15*14*14
p449
tp450
assVjnatale
p451
(dp452
S'part3_correct_attempt'
p453
(lp454
S'0:00:15'
p455
aV16*15*14
p456
asS'part2_correct_attempt'
p457
(lp458
S'0:00:00'
p459
aV16
p460
asS'part1_correct_attempt'
p461
(lp462
S'0:00:00'
p463
aV10!
p464
asg19
V2015-10-15 03:10:19
p465
sS'part3_incorrect_attempt'
p466
(lp467
(S'0:00:00'
p468
V52*51*50
p469
tp470
assVjblynch
p471
(dp472
S'part3_correct_attempt'
p473
(lp474
S'0:00:25'
p475
aV14!/(14-3)!
p476
asS'part2_correct_attempt'
p477
(lp478
S'0:00:00'
p479
aV14
p480
asS'part1_correct_attempt'
p481
(lp482
S'0:00:00'
p483
aV10!
p484
asg19
V2015-10-12 06:41:39
p485
sS'part3_incorrect_attempt'
p486
(lp487
(S'0:00:00'
p488
VC(14,4)
p489
tp490
assVdis003
p491
(dp492
S'part3_correct_attempt'
p493
(lp494
S'0:00:22'
p495
aV18!/(18-3)!
p496
asS'part2_correct_attempt'
p497
(lp498
S'0:00:00'
p499
aV18
p500
asS'part1_correct_attempt'
p501
(lp502
S'0:00:00'
p503
aV10!
p504
asg19
V2015-10-15 10:44:21
p505
sS'part3_incorrect_attempt'
p506
(lp507
(S'0:00:00'
p508
VC(18,3)
p509
tp510
assVkalang
p511
(dp512
S'part3_correct_attempt'
p513
(lp514
S'0:00:25'
p515
aV19!/(16!)
p516
asS'part2_correct_attempt'
p517
(lp518
S'0:00:00'
p519
aV19
p520
asS'part1_correct_attempt'
p521
(lp522
S'0:00:00'
p523
aV10!
p524
asg19
V2015-10-11 23:33:42
p525
sS'part3_incorrect_attempt'
p526
(lp527
(S'0:00:00'
p528
VC(19,3)
p529
tp530
assVjcl084
p531
(dp532
S'part3_correct_attempt'
p533
(lp534
S'0:01:57'
p535
aV13!/(13-3)!
p536
asS'part2_correct_attempt'
p537
(lp538
S'0:00:19'
p539
aV13
p540
asS'part1_correct_attempt'
p541
(lp542
S'0:00:00'
p543
aV10!
p544
asg19
V2015-10-13 20:06:08
p545
sS'part3_incorrect_attempt'
p546
(lp547
(S'0:00:19'
p548
V13!/10!3!
p549
tp550
assVjhw015
p551
(dp552
S'part3_correct_attempt'
p553
(lp554
S'0:00:50'
p555
aV11!/8!
p556
asS'part2_correct_attempt'
p557
(lp558
S'0:00:11'
p559
aV11
p560
asS'part1_correct_attempt'
p561
(lp562
S'0:00:00'
p563
aV10!
p564
asg19
V2015-10-13 07:47:13
p565
sS'part3_incorrect_attempt'
p566
(lp567
(S'0:00:26'
p568
VC(11,3)
p569
tp570
assVdsmonaha
p571
(dp572
S'part3_correct_attempt'
p573
(lp574
S'0:01:31'
p575
aV17!/14!
p576
asS'part2_correct_attempt'
p577
(lp578
S'0:00:00'
p579
aV17
p580
asS'part1_correct_attempt'
p581
(lp582
S'0:00:00'
p583
aV10!
p584
asg19
V2015-10-13 16:53:08
p585
sS'part3_incorrect_attempt'
p586
(lp587
(S'0:00:00'
p588
VC(17,3)
p589
tp590
a(S'0:00:14'
p591
V17!16!15!
p592
tp593
a(S'0:00:23'
p594
V17!
p595
tp596
assVz3meng
p597
(dp598
S'part3_correct_attempt'
p599
(lp600
S'0:00:35'
p601
aV12*11*10
p602
asS'part2_correct_attempt'
p603
(lp604
S'0:00:00'
p605
aV12
p606
asS'part1_correct_attempt'
p607
(lp608
S'0:00:00'
p609
aV10!
p610
asg19
V2015-10-15 02:20:04
p611
sS'part3_incorrect_attempt'
p612
(lp613
(S'0:00:16'
p614
V3!
p615
tp616
assVtcuddy
p617
(dp618
S'part3_correct_attempt'
p619
(lp620
S'0:00:11'
p621
aV15!/12!
p622
asS'part2_correct_attempt'
p623
(lp624
S'0:00:00'
p625
aV15
p626
asS'part1_correct_attempt'
p627
(lp628
S'0:00:00'
p629
aV10!
p630
asg19
V2015-10-10 18:38:01
p631
sS'part3_incorrect_attempt'
p632
(lp633
(S'0:00:00'
p634
V10!/7!
p635
tp636
assVmcatozzi
p637
(dp638
S'part3_correct_attempt'
p639
(lp640
S'0:06:59'
p641
aV16!/13!
p642
asS'part2_correct_attempt'
p643
(lp644
S'0:01:55'
p645
aV16
p646
asS'part1_correct_attempt'
p647
(lp648
S'0:00:00'
p649
aV10*9*8*7*6*5*4*3*2
p650
asg19
V2015-10-13 22:56:39
p651
sS'part3_incorrect_attempt'
p652
(lp653
(S'0:01:55'
p654
VC(16,3)
p655
tp656
assVeaherman
p657
(dp658
S'part3_correct_attempt'
p659
(lp660
S'0:01:15'
p661
aV16!/(16-3)!
p662
asS'part2_correct_attempt'
p663
(lp664
S'0:00:00'
p665
aV16
p666
asS'part1_correct_attempt'
p667
(lp668
S'0:00:00'
p669
aV10!
p670
asg19
V2015-10-13 18:31:00
p671
sS'part3_incorrect_attempt'
p672
(lp673
(S'0:00:00'
p674
VC(16,3)
p675
tp676
assVabasu
p677
(dp678
S'part3_correct_attempt'
p679
(lp680
S'0:01:06'
p681
aV15*14*13
p682
asS'part2_correct_attempt'
p683
(lp684
S'0:00:00'
p685
aV15
p686
asS'part1_correct_attempt'
p687
(lp688
S'0:00:00'
p689
aV10!
p690
asg19
V2015-10-11 01:23:04
p691
sS'part3_incorrect_attempt'
p692
(lp693
(S'0:00:00'
p694
V(15!*14!*13!)
p695
tp696
assVetemlock
p697
(dp698
S'part3_correct_attempt'
p699
(lp700
S'0:00:36'
p701
aV10!/(10-3)!
p702
asS'part2_correct_attempt'
p703
(lp704
S'0:00:00'
p705
aV10
p706
asS'part1_correct_attempt'
p707
(lp708
S'0:00:00'
p709
aV10!
p710
asg19
V2015-10-09 20:55:23
p711
sS'part3_incorrect_attempt'
p712
(lp713
(S'0:00:00'
p714
VC(10,3)
p715
tp716
assVjag028
p717
(dp718
S'part3_correct_attempt'
p719
(lp720
S'0:15:59'
p721
aV19*18*17
p722
asS'part2_correct_attempt'
p723
(lp724
S'0:14:06'
p725
aV19
p726
asS'part1_correct_attempt'
p727
(lp728
S'0:00:00'
p729
aV10!
p730
asg19
V2015-10-14 23:12:17
p731
sS'part3_incorrect_attempt'
p732
(lp733
(S'0:15:39'
p734
V19!18!17!
p735
tp736
a(S'0:15:53'
p737
V19*18*17!
p738
tp739
assVdpereira
p740
(dp741
S'part3_correct_attempt'
p742
(lp743
S'0:00:46'
p744
aV10! / 7!
p745
asS'part2_correct_attempt'
p746
(lp747
S'0:00:00'
p748
aV10
p749
asS'part1_correct_attempt'
p750
(lp751
S'0:00:00'
p752
aV10!
p753
asg19
V2015-10-10 05:32:42
p754
sS'part3_incorrect_attempt'
p755
(lp756
(S'0:00:00'
p757
VC(10,3)
p758
tp759
assVhaliew
p760
(dp761
S'part3_correct_attempt'
p762
(lp763
S'0:00:16'
p764
aV16!/(16-3)!
p765
asS'part2_correct_attempt'
p766
(lp767
S'0:00:00'
p768
aV16
p769
asS'part1_correct_attempt'
p770
(lp771
S'0:00:00'
p772
aV10!
p773
asg19
V2015-10-13 17:24:11
p774
sS'part3_incorrect_attempt'
p775
(lp776
(S'0:00:00'
p777
VC(16,3)
p778
tp779
assVnisharma
p780
(dp781
S'part3_correct_attempt'
p782
(lp783
S'0:01:53'
p784
aV17!/(14!)
p785
asS'part2_correct_attempt'
p786
(lp787
S'0:00:14'
p788
aV17
p789
asS'part1_correct_attempt'
p790
(lp791
S'0:00:00'
p792
aV10!
p793
asg19
V2015-10-14 17:45:27
p794
sS'part3_incorrect_attempt'
p795
(lp796
(S'0:00:30'
p797
VC (17,3)
p798
tp799
assVcsl030
p800
(dp801
S'part3_correct_attempt'
p802
(lp803
S'0:01:10'
p804
aV14!/(14 - 3)!
p805
asS'part2_correct_attempt'
p806
(lp807
S'0:00:00'
p808
aV14
p809
asS'part1_correct_attempt'
p810
(lp811
S'0:00:00'
p812
aV10!
p813
asg19
V2015-10-13 22:48:44
p814
sS'part3_incorrect_attempt'
p815
(lp816
(S'0:00:00'
p817
VC(14,3)
p818
tp819
assVarc013
p820
(dp821
S'part3_correct_attempt'
p822
(lp823
S'0:01:24'
p824
aV15*14*13
p825
asS'part2_correct_attempt'
p826
(lp827
S'0:00:24'
p828
aV15
p829
asS'part1_correct_attempt'
p830
(lp831
S'0:00:00'
p832
aV10!
p833
asg19
V2015-10-13 01:56:12
p834
sS'part3_incorrect_attempt'
p835
(lp836
(S'0:00:43'
p837
VC(15,3)
p838
tp839
assVqfu
p840
(dp841
S'part3_correct_attempt'
p842
(lp843
S'0:01:48'
p844
aV15*14*13
p845
asS'part2_correct_attempt'
p846
(lp847
S'0:00:00'
p848
aV15
p849
asS'part1_correct_attempt'
p850
(lp851
S'0:00:00'
p852
aV10!
p853
asg19
V2015-10-09 04:02:55
p854
sS'part3_incorrect_attempt'
p855
(lp856
(S'0:00:00'
p857
VC(15,3)
p858
tp859
a(S'0:00:39'
p860
V(15*14*13)/3!
p861
tp862
assVaportuga
p863
(dp864
S'part3_correct_attempt'
p865
(lp866
S'0:05:46'
p867
aV17!/14!
p868
asS'part2_correct_attempt'
p869
(lp870
S'0:00:00'
p871
aV17
p872
asS'part1_correct_attempt'
p873
(lp874
S'0:00:00'
p875
aV10!
p876
asg19
V2015-10-13 22:29:11
p877
sS'part3_incorrect_attempt'
p878
(lp879
(S'0:04:23'
p880
V17!/(17)(16)(15)
p881
tp882
a(S'0:04:48'
p883
V14!
p884
tp885
assVsyip
p886
(dp887
S'part3_correct_attempt'
p888
(lp889
S'0:00:22'
p890
aV19*18*17
p891
asS'part2_correct_attempt'
p892
(lp893
S'0:00:00'
p894
aV19
p895
asS'part1_correct_attempt'
p896
(lp897
S'0:00:00'
p898
aV10!
p899
asg19
V2015-10-10 19:53:08
p900
sS'part3_incorrect_attempt'
p901
(lp902
(S'0:00:00'
p903
VC(19,3)
p904
tp905
assVdac064
p906
(dp907
S'part3_correct_attempt'
p908
(lp909
S'0:00:51'
p910
aV11! / ( 8!)
p911
asS'part2_correct_attempt'
p912
(lp913
S'0:00:00'
p914
aV11
p915
asS'part1_correct_attempt'
p916
(lp917
S'0:00:00'
p918
aV10!
p919
asg19
V2015-10-15 19:20:03
p920
sS'part3_incorrect_attempt'
p921
(lp922
(S'0:00:00'
p923
VC(11,3)
p924
tp925
assVmitopete
p926
(dp927
S'part3_correct_attempt'
p928
(lp929
S'0:04:21'
p930
aV19!/((19-3)!)
p931
asS'part2_correct_attempt'
p932
(lp933
S'0:00:00'
p934
aV19
p935
asS'part1_correct_attempt'
p936
(lp937
S'0:00:00'
p938
aV10!
p939
asg19
V2015-10-13 17:14:22
p940
sS'part3_incorrect_attempt'
p941
(lp942
(S'0:03:40'
p943
V19^3
p944
tp945
assVsrl006
p946
(dp947
S'part3_correct_attempt'
p948
(lp949
S'0:01:56'
p950
aV990
p951
asS'part2_correct_attempt'
p952
(lp953
S'0:00:19'
p954
aV11
p955
asS'part1_correct_attempt'
p956
(lp957
S'0:00:00'
p958
aV10!
p959
asg19
V2015-10-10 03:59:28
p960
sS'part3_incorrect_attempt'
p961
(lp962
(S'0:00:19'
p963
VC(11,3)
p964
tp965
a(S'0:00:50'
p966
V11!/ (8!)(3!)
p967
tp968
assVakg009
p969
(dp970
S'part3_correct_attempt'
p971
(lp972
S'0:05:12'
p973
aV(16!)/[(13!)]
p974
asS'part2_correct_attempt'
p975
(lp976
S'0:00:00'
p977
aV16
p978
asS'part1_correct_attempt'
p979
(lp980
S'0:00:00'
p981
aV10!
p982
asg19
V2015-10-15 21:29:51
p983
sS'part3_incorrect_attempt'
p984
(lp985
(S'0:00:00'
p986
V(16!)/(3!)(12!)
p987
tp988
assVsthapa
p989
(dp990
S'part3_correct_attempt'
p991
(lp992
S'0:01:15'
p993
aV12!/9!
p994
asS'part2_correct_attempt'
p995
(lp996
S'0:00:31'
p997
aV12
p998
asS'part1_correct_attempt'
p999
(lp1000
S'0:00:00'
p1001
aV10!
p1002
asg19
V2015-10-15 04:07:20
p1003
sS'part3_incorrect_attempt'
p1004
(lp1005
(S'0:01:02'
p1006
V10!/7!
p1007
tp1008
assVwhcombs
p1009
(dp1010
S'part3_correct_attempt'
p1011
(lp1012
S'0:00:41'
p1013
aV14!/(14-3)!
p1014
asS'part2_correct_attempt'
p1015
(lp1016
S'0:00:00'
p1017
aV14
p1018
asS'part1_correct_attempt'
p1019
(lp1020
S'0:00:00'
p1021
aV10!
p1022
asg19
V2015-10-12 23:43:22
p1023
sS'part3_incorrect_attempt'
p1024
(lp1025
(S'0:00:00'
p1026
VC(14,3)
p1027
tp1028
assVasp025
p1029
(dp1030
S'part3_correct_attempt'
p1031
(lp1032
S'0:02:15'
p1033
aV13*12*11
p1034
asS'part2_correct_attempt'
p1035
(lp1036
S'0:01:41'
p1037
aV13
p1038
asS'part1_correct_attempt'
p1039
(lp1040
S'0:00:00'
p1041
aV10!
p1042
asg19
V2015-10-13 06:44:50
p1043
sS'part3_incorrect_attempt'
p1044
(lp1045
(S'0:01:41'
p1046
V13!
p1047
tp1048
asssV2
p1049
(dp1050
Vaadhakal
p1051
(dp1052
S'part2_correct_attempt'
p1053
(lp1054
S'0:00:49'
p1055
aV10
p1056
asg19
V2015-10-12 06:35:51
p1057
sS'part2_incorrect_attempt'
p1058
(lp1059
(S'0:00:20'
p1060
V10!/7!
p1061
tp1062
assVjag028
p1063
(dp1064
S'part2_correct_attempt'
p1065
(lp1066
S'0:14:06'
p1067
ag726
asg19
g731
sS'part2_incorrect_attempt'
p1068
(lp1069
(S'0:05:32'
p1070
V19!
p1071
tp1072
assVacs008
p1073
(dp1074
S'part2_correct_attempt'
p1075
(lp1076
S'0:01:54'
p1077
aV16
p1078
asg19
V2015-10-14 21:47:07
p1079
sS'part2_incorrect_attempt'
p1080
(lp1081
(S'0:00:14'
p1082
V16!
p1083
tp1084
a(S'0:01:28'
p1085
V16*15*14
p1086
tp1087
asss.