(dp0
V1
p1
(dp2
Vapokhare
p3
(dp4
S'part1_correct_attempt'
p5
(lp6
S'0:14:36'
p7
aV52!/(6!*(52-6)!)
p8
asS'first_attempt'
p9
V2015-10-12 20:50:35
p10
sS'part1_incorrect_attempt'
p11
(lp12
(S'0:00:00'
p13
V52!/(52-6)!
p14
tp15
a(S'0:00:14'
p16
V52!/6!(52-6)!
p17
tp18
assVjguanzho
p19
(dp20
S'part1_correct_attempt'
p21
(lp22
S'0:03:31'
p23
aV52!/(46! * 6!)
p24
asg9
V2015-10-09 20:08:31
p25
sS'part1_incorrect_attempt'
p26
(lp27
(S'0:00:00'
p28
V52!/(46!)
p29
tp30
assVjhc010
p31
(dp32
S'part1_correct_attempt'
p33
(lp34
S'0:06:12'
p35
aVC(52,7)
p36
asg9
V2015-10-15 16:02:11
p37
sS'part1_incorrect_attempt'
p38
(lp39
(S'0:00:00'
p40
V52!/45!
p41
tp42
a(S'0:01:00'
p43
V52*51*50*49*48*47*46
p44
tp45
a(S'0:01:32'
p46
V7^52
p47
tp48
assVmhale
p49
(dp50
S'part1_correct_attempt'
p51
(lp52
S'0:00:46'
p53
aV20358520
p54
asg9
V2015-10-14 21:58:38
p55
sS'part1_incorrect_attempt'
p56
(lp57
(S'0:00:00'
p58
V52! / 46!
p59
tp60
a(S'0:00:21'
p61
V52 * 51 * 50 * 49 * 48 * 47
p62
tp63
assVl5han
p64
(dp65
S'part1_correct_attempt'
p66
(lp67
S'0:02:15'
p68
aVC(52,6)
p69
asg9
V2015-10-14 04:42:01
p70
sS'part1_incorrect_attempt'
p71
(lp72
(S'0:00:00'
p73
V52!/46!
p74
tp75
assVdan029
p76
(dp77
S'part1_correct_attempt'
p78
(lp79
S'0:01:58'
p80
aVC(52,7)
p81
asg9
V2015-10-09 22:54:35
p82
sS'part1_incorrect_attempt'
p83
(lp84
(S'0:00:00'
p85
V52*51*50*49*48*47*46
p86
tp87
assVjew037
p88
(dp89
S'part1_correct_attempt'
p90
(lp91
S'0:00:46'
p92
aVC(52,7)
p93
asg9
V2015-10-14 04:17:59
p94
sS'part1_incorrect_attempt'
p95
(lp96
(S'0:00:00'
p97
V7^52
p98
tp99
assVasrana
p100
(dp101
S'part1_correct_attempt'
p102
(lp103
S'0:03:59'
p104
aV270725
p105
asg9
V2015-10-15 11:11:34
p106
sS'part1_incorrect_attempt'
p107
(lp108
(S'0:00:00'
p109
V52*51*50*49
p110
tp111
assVjmmcalex
p112
(dp113
S'part1_correct_attempt'
p114
(lp115
S'0:03:35'
p116
aV52!/[4!48!]
p117
asg9
V2015-10-15 08:20:51
p118
sS'part1_incorrect_attempt'
p119
(lp120
(S'0:00:00'
p121
V52!/4!
p122
tp123
a(S'0:00:22'
p124
V52!/[48!]
p125
tp126
a(S'0:03:25'
p127
V52!/[48!]4!
p128
tp129
assVdgunawan
p130
(dp131
S'part1_correct_attempt'
p132
(lp133
S'0:09:41'
p134
aV270725
p135
asg9
V2015-10-14 20:43:53
p136
sS'part1_incorrect_attempt'
p137
(lp138
(S'0:00:00'
p139
V52 * 51 * 50 * 49
p140
tp141
assVssamudra
p142
(dp143
S'part1_correct_attempt'
p144
(lp145
S'0:43:53'
p146
aV52!/(47!5!)
p147
asg9
V2015-10-15 03:32:38
p148
sS'part1_incorrect_attempt'
p149
(lp150
(S'0:00:00'
p151
V5!
p152
tp153
assVtstevens
p154
(dp155
S'part1_correct_attempt'
p156
(lp157
S'0:01:19'
p158
aV2598960
p159
asg9
V2015-10-10 10:35:37
p160
sS'part1_incorrect_attempt'
p161
(lp162
(S'0:00:00'
p163
V52*51*50*49*48
p164
tp165
assVdjk006
p166
(dp167
S'part1_correct_attempt'
p168
(lp169
S'0:03:08'
p170
aV52!/(6!46!)
p171
asg9
V2015-10-11 02:25:02
p172
sS'part1_incorrect_attempt'
p173
(lp174
(S'0:00:00'
p175
V52*51*50*49*48*47
p176
tp177
assVdsriniva
p178
(dp179
S'part1_correct_attempt'
p180
(lp181
S'0:01:09'
p182
aV2598960
p183
asg9
V2015-10-15 19:56:13
p184
sS'part1_incorrect_attempt'
p185
(lp186
(S'0:00:00'
p187
V52*51*50*49*48
p188
tp189
assVglcohen
p190
(dp191
S'part1_correct_attempt'
p192
(lp193
S'0:00:31'
p194
aV(52!)/(47!5!)
p195
asg9
V2015-10-13 05:43:47
p196
sS'part1_incorrect_attempt'
p197
(lp198
(S'0:00:00'
p199
V52*51*50*49
p200
tp201
a(S'0:00:06'
p202
V52*51*50*49*48
p203
tp204
assVm4bui
p205
(dp206
S'part1_correct_attempt'
p207
(lp208
S'0:15:57'
p209
aVC(52,6)
p210
asg9
V2015-10-15 22:05:10
p211
sS'part1_incorrect_attempt'
p212
(lp213
(S'0:00:00'
p214
V52!/46!
p215
tp216
a(S'0:00:36'
p217
V52*51*50*49*48*47
p218
tp219
a(S'0:01:27'
p220
V52*51*50*49
p221
tp222
a(S'0:01:46'
p223
V52*51*50*49*48*47
p224
tp225
assVseleon
p226
(dp227
S'part1_correct_attempt'
p228
(lp229
S'0:00:19'
p230
aV52!/(5!(52-5)!)
p231
asg9
V2015-10-15 06:05:32
p232
sS'part1_incorrect_attempt'
p233
(lp234
(S'0:00:00'
p235
V52!/(52-5)!
p236
tp237
a(S'0:00:11'
p238
V52!/5!(52-5)!
p239
tp240
assVarc013
p241
(dp242
S'part1_correct_attempt'
p243
(lp244
S'0:09:02'
p245
aVC(52, 5) 
p246
asg9
V2015-10-14 03:21:47
p247
sS'part1_incorrect_attempt'
p248
(lp249
(S'0:00:00'
p250
V52!/47!
p251
tp252
a(S'0:00:25'
p253
V52!/(52-5)!
p254
tp255
assVstarinia
p256
(dp257
S'part1_correct_attempt'
p258
(lp259
S'0:14:03'
p260
aV52!/(4!48!)
p261
asg9
V2015-10-15 01:28:25
p262
sS'part1_incorrect_attempt'
p263
(lp264
(S'0:00:00'
p265
V52!/4!
p266
tp267
a(S'0:02:22'
p268
V52 * 51 * 50 * 49
p269
tp270
assVggaddi
p271
(dp272
S'part1_correct_attempt'
p273
(lp274
S'0:05:30'
p275
aV52!/(48!*4!)
p276
asg9
V2015-10-13 18:17:47
p277
sS'part1_incorrect_attempt'
p278
(lp279
(S'0:00:00'
p280
V52!/48!
p281
tp282
assVh4tu
p283
(dp284
S'part1_correct_attempt'
p285
(lp286
S'0:01:10'
p287
aV52!/(45!7!)
p288
asg9
V2015-10-15 06:55:49
p289
sS'part1_incorrect_attempt'
p290
(lp291
(S'0:00:00'
p292
V52!/45!
p293
tp294
a(S'0:01:03'
p295
V52!/45!7!
p296
tp297
assVjag028
p298
(dp299
S'part1_correct_attempt'
p300
(lp301
S'0:00:23'
p302
aVC(52,6)
p303
asg9
V2015-10-15 00:55:07
p304
sS'part1_incorrect_attempt'
p305
(lp306
(S'0:00:00'
p307
V6!
p308
tp309
assVjjchung
p310
(dp311
S'part1_correct_attempt'
p312
(lp313
S'0:01:06'
p314
aVC(52,4)
p315
asg9
V2015-10-14 19:51:30
p316
sS'part1_incorrect_attempt'
p317
(lp318
(S'0:00:00'
p319
V52*51*50*49
p320
tp321
a(S'0:00:56'
p322
V52!/48!
p323
tp324
assVatorr
p325
(dp326
S'part1_correct_attempt'
p327
(lp328
S'0:00:23'
p329
aV52!/(47!5!)
p330
asg9
V2015-10-11 01:30:03
p331
sS'part1_incorrect_attempt'
p332
(lp333
(S'0:00:00'
p334
V52!/47!
p335
tp336
assVcfgutier
p337
(dp338
S'part1_correct_attempt'
p339
(lp340
S'0:02:57'
p341
aV133784560
p342
asg9
V2015-10-15 21:27:34
p343
sS'part1_incorrect_attempt'
p344
(lp345
(S'0:00:00'
p346
V52*51*50*49*48*46
p347
tp348
a(S'0:00:12'
p349
V7!
p350
tp351
assVkrau
p352
(dp353
S'part1_correct_attempt'
p354
(lp355
S'0:00:12'
p356
aV52!/4!/48!
p357
asg9
V2015-10-14 03:51:35
p358
sS'part1_incorrect_attempt'
p359
(lp360
(S'0:00:00'
p361
V52!/4!/48
p362
tp363
assVmroknich
p364
(dp365
S'part1_correct_attempt'
p366
(lp367
S'0:00:36'
p368
aVC(52,5)
p369
asg9
V2015-10-14 00:29:10
p370
sS'part1_incorrect_attempt'
p371
(lp372
(S'0:00:00'
p373
V52*51*50*49*48
p374
tp375
assVjic212
p376
(dp377
S'part1_correct_attempt'
p378
(lp379
S'0:06:07'
p380
aVC(52,4)
p381
asg9
V2015-10-12 08:21:42
p382
sS'part1_incorrect_attempt'
p383
(lp384
(S'0:00:00'
p385
V52*51*50*49
p386
tp387
assVhak014
p388
(dp389
S'part1_correct_attempt'
p390
(lp391
S'0:03:05'
p392
aV52!/(6!46!)
p393
asg9
V2015-10-13 05:08:27
p394
sS'part1_incorrect_attempt'
p395
(lp396
(S'0:00:00'
p397
V52!/48!
p398
tp399
assVt2li
p400
(dp401
S'part1_correct_attempt'
p402
(lp403
S'0:02:15'
p404
aVC(52,7)
p405
asg9
V2015-10-14 06:34:34
p406
sS'part1_incorrect_attempt'
p407
(lp408
(S'0:00:00'
p409
V52!/(52-7)!
p410
tp411
a(S'0:00:28'
p412
V52*51*50*49*48*47*46
p413
tp414
a(S'0:00:37'
p415
V52*51*50*49*48
p416
tp417
assVdis003
p418
(dp419
S'part1_correct_attempt'
p420
(lp421
S'0:00:28'
p422
aVC(52,7)
p423
asg9
V2015-10-15 11:10:09
p424
sS'part1_incorrect_attempt'
p425
(lp426
(S'0:00:00'
p427
V52*51*50*49*48*47*56*45
p428
tp429
a(S'0:00:12'
p430
V52*51*50*49*48*47*56
p431
tp432
assVr1gu
p433
(dp434
S'part1_correct_attempt'
p435
(lp436
S'0:01:37'
p437
aV(52!)/(5!47!)
p438
asg9
V2015-10-15 12:13:46
p439
sS'part1_incorrect_attempt'
p440
(lp441
(S'0:00:00'
p442
V52*51*50*49*48
p443
tp444
assVdsmonaha
p445
(dp446
S'part1_correct_attempt'
p447
(lp448
S'0:01:59'
p449
aVC(52,5)
p450
asg9
V2015-10-13 17:52:10
p451
sS'part1_incorrect_attempt'
p452
(lp453
(S'0:00:00'
p454
V5^52
p455
tp456
assVjel075
p457
(dp458
S'part1_correct_attempt'
p459
(lp460
S'0:01:50'
p461
aV52!/(48!*4!)
p462
asg9
V2015-10-15 01:09:53
p463
sS'part1_incorrect_attempt'
p464
(lp465
(S'0:00:00'
p466
V52*51*50*49
p467
tp468
assVbakang
p469
(dp470
S'part1_correct_attempt'
p471
(lp472
S'0:01:11'
p473
aVC(52,7)
p474
asg9
V2015-10-15 02:08:40
p475
sS'part1_incorrect_attempt'
p476
(lp477
(S'0:00:00'
p478
V52!/(52-7)!
p479
tp480
a(S'0:00:38'
p481
V52!/45!
p482
tp483
assVjtfrankl
p484
(dp485
S'part1_correct_attempt'
p486
(lp487
S'0:04:45'
p488
aV52!/(48!4!)
p489
asg9
V2015-10-15 20:58:31
p490
sS'part1_incorrect_attempt'
p491
(lp492
(S'0:00:00'
p493
V52!/48!
p494
tp495
a(S'0:00:34'
p496
V52*51*50*49
p497
tp498
a(S'0:02:14'
p499
V52!/48!
p500
tp501
assVcstringh
p502
(dp503
S'part1_correct_attempt'
p504
(lp505
S'0:03:16'
p506
aV52!/(4!(48!))
p507
asg9
V2015-10-12 22:18:56
p508
sS'part1_incorrect_attempt'
p509
(lp510
(S'0:00:00'
p511
V52!/(4!(38!))
p512
tp513
assVv4sharma
p514
(dp515
S'part1_correct_attempt'
p516
(lp517
S'0:02:41'
p518
aVC(52, 4)
p519
asg9
V2015-10-14 01:26:17
p520
sS'part1_incorrect_attempt'
p521
(lp522
(S'0:00:00'
p523
V4^13
p524
tp525
a(S'0:00:58'
p526
V4*13
p527
tp528
assVyjshin
p529
(dp530
S'part1_correct_attempt'
p531
(lp532
S'0:03:59'
p533
aV52!/(45!7!)
p534
asg9
V2015-10-14 09:52:50
p535
sS'part1_incorrect_attempt'
p536
(lp537
(S'0:00:00'
p538
V52!/45!
p539
tp540
assVsippolit
p541
(dp542
S'part1_correct_attempt'
p543
(lp544
S'0:01:59'
p545
aV270725
p546
asg9
V2015-10-12 04:23:18
p547
sS'part1_incorrect_attempt'
p548
(lp549
(S'0:00:00'
p550
V4^52
p551
tp552
a(S'0:00:00'
p553
V4^52
p554
tp555
a(S'0:00:44'
p556
V52*51*50*49
p557
tp558
assVbkoli
p559
(dp560
S'part1_correct_attempt'
p561
(lp562
S'0:20:38'
p563
aV52!/(46!6!)
p564
asg9
V2015-10-15 06:57:44
p565
sS'part1_incorrect_attempt'
p566
(lp567
(S'0:00:00'
p568
V52!/46!
p569
tp570
assVxil109
p571
(dp572
S'part1_correct_attempt'
p573
(lp574
S'0:01:41'
p575
aVC(52,4)
p576
asg9
V2015-10-10 20:30:52
p577
sS'part1_incorrect_attempt'
p578
(lp579
(S'0:00:00'
p580
V52!/(52-4)!
p581
tp582
a(S'0:00:19'
p583
V52*51*50*49
p584
tp585
assVdac064
p586
(dp587
S'part1_correct_attempt'
p588
(lp589
S'0:00:33'
p590
aVC(52,5)
p591
asg9
V2015-10-15 20:17:19
p592
sS'part1_incorrect_attempt'
p593
(lp594
(S'0:00:00'
p595
V52!/((52-5)!)
p596
tp597
a(S'0:00:16'
p598
V52*51*50*49*48
p599
tp600
assVlywong
p601
(dp602
S'part1_correct_attempt'
p603
(lp604
S'0:03:06'
p605
aV52!/(4!(52-4)!)
p606
asg9
V2015-10-13 00:25:11
p607
sS'part1_incorrect_attempt'
p608
(lp609
(S'0:00:00'
p610
V52!/((52-4)!)
p611
tp612
assVkebao
p613
(dp614
S'part1_correct_attempt'
p615
(lp616
S'0:01:53'
p617
aV52!/(47!*5!)
p618
asg9
V2015-10-15 05:11:49
p619
sS'part1_incorrect_attempt'
p620
(lp621
(S'0:00:00'
p622
V52*51*50*49*48
p623
tp624
a(S'0:01:42'
p625
V52!/47!
p626
tp627
assVabasu
p628
(dp629
S'part1_correct_attempt'
p630
(lp631
S'0:03:59'
p632
aVC(52,5)
p633
asg9
V2015-10-11 02:13:06
p634
sS'part1_incorrect_attempt'
p635
(lp636
(S'0:00:00'
p637
V5*4*3*2*1
p638
tp639
a(S'0:00:13'
p640
V52!/48!
p641
tp642
a(S'0:00:33'
p643
V52*51*50*49
p644
tp645
a(S'0:01:24'
p646
V52*51*50*49*48
p647
tp648
a(S'0:02:08'
p649
V52!/47!
p650
tp651
a(S'0:03:20'
p652
V52!/47!
p653
tp654
assVd6he
p655
(dp656
S'part1_correct_attempt'
p657
(lp658
S'0:10:46'
p659
aV52!/(5!47!)
p660
asg9
V2015-10-15 06:14:29
p661
sS'part1_incorrect_attempt'
p662
(lp663
(S'0:00:00'
p664
V52*51*50
p665
tp666
a(S'0:00:41'
p667
V52*51*50*49*48
p668
tp669
a(S'0:03:25'
p670
V52*51*50*49*48
p671
tp672
assVmrchin
p673
(dp674
S'part1_correct_attempt'
p675
(lp676
S'0:01:09'
p677
aV52!/(48!*4!)
p678
asg9
V2015-10-12 03:34:34
p679
sS'part1_incorrect_attempt'
p680
(lp681
(S'0:00:00'
p682
V52*51*50*49
p683
tp684
assVdlt009
p685
(dp686
S'part1_correct_attempt'
p687
(lp688
S'0:10:19'
p689
aV52!/[(52-5)!5!]
p690
asg9
V2015-10-14 01:43:57
p691
sS'part1_incorrect_attempt'
p692
(lp693
(S'0:00:00'
p694
V52*51*50*49*48
p695
tp696
assVmbl003
p697
(dp698
S'part1_correct_attempt'
p699
(lp700
S'0:01:02'
p701
aV52!/(4!*48!)
p702
asg9
V2015-10-15 07:10:01
p703
sS'part1_incorrect_attempt'
p704
(lp705
(S'0:00:00'
p706
V52*51*50*49
p707
tp708
assVn2patil
p709
(dp710
S'part1_correct_attempt'
p711
(lp712
S'0:01:50'
p713
aV133784560
p714
asg9
V2015-10-13 16:30:32
p715
sS'part1_incorrect_attempt'
p716
(lp717
(S'0:00:00'
p718
V52*51*50*49*48*47*46*45
p719
tp720
a(S'0:00:12'
p721
V52*51*50*49*48*47*46
p722
tp723
assVksmurlo
p724
(dp725
S'part1_correct_attempt'
p726
(lp727
S'0:00:19'
p728
aVC(52,4)
p729
asg9
V2015-10-13 23:18:58
p730
sS'part1_incorrect_attempt'
p731
(lp732
(S'0:00:00'
p733
V52*51*50*49
p734
tp735
assVjeqin
p736
(dp737
S'part1_correct_attempt'
p738
(lp739
S'0:01:54'
p740
aV52!/(6!46!)
p741
asg9
V2015-10-15 12:37:29
p742
sS'part1_incorrect_attempt'
p743
(lp744
(S'0:00:00'
p745
V52!/46!
p746
tp747
a(S'0:00:26'
p748
V52*51*50*49*48*47
p749
tp750
assVjnatale
p751
(dp752
S'part1_correct_attempt'
p753
(lp754
S'0:00:28'
p755
aVC(52,6)
p756
asg9
V2015-10-13 01:16:22
p757
sS'part1_incorrect_attempt'
p758
(lp759
(S'0:00:00'
p760
V52*51*50*49*48*47
p761
tp762
assVakhmelni
p763
(dp764
S'part1_correct_attempt'
p765
(lp766
S'0:01:39'
p767
aVC(52,7)
p768
asg9
V2015-10-15 22:46:32
p769
sS'part1_incorrect_attempt'
p770
(lp771
(S'0:00:00'
p772
V(52!)/(52-7)!
p773
tp774
assVskodigal
p775
(dp776
S'part1_correct_attempt'
p777
(lp778
S'0:01:51'
p779
aVC(52,7)
p780
asg9
V2015-10-15 01:02:29
p781
sS'part1_incorrect_attempt'
p782
(lp783
(S'0:00:00'
p784
V7^52
p785
tp786
a(S'0:00:58'
p787
V52*51*50*49*48*47*46
p788
tp789
assVyeh013
p790
(dp791
S'part1_correct_attempt'
p792
(lp793
S'0:02:03'
p794
aV52!/(48!*4!)
p795
asg9
V2015-10-15 07:33:40
p796
sS'part1_incorrect_attempt'
p797
(lp798
(S'0:00:00'
p799
V52!/48!
p800
tp801
assVwcwhite
p802
(dp803
S'part1_correct_attempt'
p804
(lp805
S'1 day, 19:29:21'
p806
aVC(52,6)
p807
asg9
V2015-10-14 02:19:33
p808
sS'part1_incorrect_attempt'
p809
(lp810
(S'0:00:00'
p811
V5!
p812
tp813
assVkmc012
p814
(dp815
S'part1_correct_attempt'
p816
(lp817
S'0:00:28'
p818
aV(52!)/((7!)*((52-7)!))
p819
asg9
V2015-10-15 01:10:36
p820
sS'part1_incorrect_attempt'
p821
(lp822
(S'0:00:00'
p823
V(52!)/((52-7)!)
p824
tp825
assVeaherman
p826
(dp827
S'part1_correct_attempt'
p828
(lp829
S'0:00:27'
p830
aVC(52,4)
p831
asg9
V2015-10-14 02:46:12
p832
sS'part1_incorrect_attempt'
p833
(lp834
(S'0:00:00'
p835
V52!/(52-4)!
p836
tp837
assVcagatep
p838
(dp839
S'part1_correct_attempt'
p840
(lp841
S'0:01:48'
p842
aVC(52, 5)
p843
asg9
V2015-10-14 04:57:50
p844
sS'part1_incorrect_attempt'
p845
(lp846
(S'0:00:00'
p847
V52*51*50*49*48
p848
tp849
assVcprafull
p850
(dp851
S'part1_correct_attempt'
p852
(lp853
S'1:07:32'
p854
aV52!/((48!)(4!))
p855
asg9
V2015-10-14 07:13:56
p856
sS'part1_incorrect_attempt'
p857
(lp858
(S'0:00:00'
p859
V52*51*50*49
p860
tp861
a(S'0:03:22'
p862
V4^52
p863
tp864
a(S'0:03:34'
p865
V52*51*50*49
p866
tp867
a(S'0:00:00'
p868
V52!/(48!)(4!)
p869
tp870
assVr2fisher
p871
(dp872
S'part1_correct_attempt'
p873
(lp874
S'0:00:30'
p875
aV52!/(6!*46!)
p876
asg9
V2015-10-14 23:08:33
p877
sS'part1_incorrect_attempt'
p878
(lp879
(S'0:00:00'
p880
V6^52
p881
tp882
assVewbrenna
p883
(dp884
S'part1_correct_attempt'
p885
(lp886
S'0:00:47'
p887
aV2598960
p888
asg9
V2015-10-12 20:07:00
p889
sS'part1_incorrect_attempt'
p890
(lp891
(S'0:00:00'
p892
V52*51*50*49*48
p893
tp894
assVspw006
p895
(dp896
S'part1_correct_attempt'
p897
(lp898
S'0:00:57'
p899
aV52!/(45!7!)
p900
asg9
V2015-10-13 21:19:59
p901
sS'part1_incorrect_attempt'
p902
(lp903
(S'0:00:00'
p904
V7!
p905
tp906
a(S'0:00:20'
p907
V52!/7!
p908
tp909
a(S'0:00:29'
p910
V52!/45!
p911
tp912
assVany027
p913
(dp914
S'part1_correct_attempt'
p915
(lp916
S'0:01:29'
p917
aV2598960
p918
asg9
V2015-10-09 09:45:16
p919
sS'part1_incorrect_attempt'
p920
(lp921
(S'0:00:00'
p922
V13 * 4
p923
tp924
assVjdeon
p925
(dp926
S'part1_correct_attempt'
p927
(lp928
S'0:00:18'
p929
aVC(52,4)
p930
asg9
V2015-10-11 19:35:59
p931
sS'part1_incorrect_attempt'
p932
(lp933
(S'0:00:00'
p934
V52*51*50*49
p935
tp936
assVp4kumar
p937
(dp938
S'part1_correct_attempt'
p939
(lp940
S'0:03:29'
p941
aV270725
p942
asg9
V2015-10-15 08:54:11
p943
sS'part1_incorrect_attempt'
p944
(lp945
(S'0:00:00'
p946
V52!/(52-4)!
p947
tp948
a(S'0:00:22'
p949
V52*51*50*49
p950
tp951
assVamquinte
p952
(dp953
S'part1_correct_attempt'
p954
(lp955
S'0:01:28'
p956
aVC(52,7)
p957
asg9
V2015-10-12 21:00:05
p958
sS'part1_incorrect_attempt'
p959
(lp960
(S'0:00:00'
p961
V52*51*50*49*48*47*46
p962
tp963
assVjmiclat
p964
(dp965
S'part1_correct_attempt'
p966
(lp967
S'0:00:22'
p968
aV52!/(6!(52-6)!)
p969
asg9
V2015-10-15 17:18:30
p970
sS'part1_incorrect_attempt'
p971
(lp972
(S'0:00:00'
p973
V52!/(52-6)!
p974
tp975
a(S'0:00:09'
p976
V52!/52!(52-6)!
p977
tp978
assVgsrandha
p979
(dp980
S'part1_correct_attempt'
p981
(lp982
S'0:01:10'
p983
aV2598960
p984
asg9
V2015-10-12 06:58:29
p985
sS'part1_incorrect_attempt'
p986
(lp987
(S'0:00:00'
p988
V5!
p989
tp990
a(S'0:00:30'
p991
V52*51*50*49*48
p992
tp993
assVdcgriffi
p994
(dp995
S'part1_correct_attempt'
p996
(lp997
S'0:02:19'
p998
aV52!/(7!(52-7)!)
p999
asg9
V2015-10-14 07:18:48
p1000
sS'part1_incorrect_attempt'
p1001
(lp1002
(S'0:00:00'
p1003
V52!/(52-7)!
p1004
tp1005
assVrsmurlo
p1006
(dp1007
S'part1_correct_attempt'
p1008
(lp1009
S'0:18:41'
p1010
aV52!/(48!4!)
p1011
asg9
V2015-10-13 17:29:21
p1012
sS'part1_incorrect_attempt'
p1013
(lp1014
(S'0:00:00'
p1015
V52*51*50*49
p1016
tp1017
assVanl114
p1018
(dp1019
S'part1_correct_attempt'
p1020
(lp1021
S'0:06:38'
p1022
aV133784560
p1023
asg9
V2015-10-15 07:52:54
p1024
sS'part1_incorrect_attempt'
p1025
(lp1026
(S'0:00:00'
p1027
V52*51*50*49*48*47
p1028
tp1029
a(S'0:00:49'
p1030
V52*51*50*49*48*47*46
p1031
tp1032
assVachinn
p1033
(dp1034
S'part1_correct_attempt'
p1035
(lp1036
S'0:03:10'
p1037
aV(52*51*50*49)/(4*3*2)
p1038
asg9
V2015-10-12 23:42:35
p1039
sS'part1_incorrect_attempt'
p1040
(lp1041
(S'0:00:00'
p1042
V52*51*50*49
p1043
tp1044
assVjap009
p1045
(dp1046
S'part1_correct_attempt'
p1047
(lp1048
S'0:02:10'
p1049
aV52!/(7!(52-7)!)
p1050
asg9
V2015-10-15 21:43:10
p1051
sS'part1_incorrect_attempt'
p1052
(lp1053
(S'0:00:00'
p1054
V52!/(52-7)!
p1055
tp1056
a(S'0:01:37'
p1057
V52*51*50*49*48*47*46
p1058
tp1059
assVjcj006
p1060
(dp1061
S'part1_correct_attempt'
p1062
(lp1063
S'3:10:15'
p1064
aV52!/(45!7!)
p1065
asg9
V2015-10-13 20:43:36
p1066
sS'part1_incorrect_attempt'
p1067
(lp1068
(S'0:00:00'
p1069
V52!/(51-7)!
p1070
tp1071
a(S'0:00:15'
p1072
V52!/(52-7)!
p1073
tp1074
a(S'0:00:57'
p1075
V52*51*50*49*48*47*46
p1076
tp1077
a(S'0:00:00'
p1078
V52!/45!
p1079
tp1080
assVajabasa
p1081
(dp1082
S'part1_correct_attempt'
p1083
(lp1084
S'0:00:44'
p1085
aV52!/(6!*46!)
p1086
asg9
V2015-10-14 06:49:25
p1087
sS'part1_incorrect_attempt'
p1088
(lp1089
(S'0:00:00'
p1090
V52!/46!
p1091
tp1092
assVdtea
p1093
(dp1094
S'part1_correct_attempt'
p1095
(lp1096
S'0:01:21'
p1097
aVC(52,4)
p1098
asg9
V2015-10-15 23:20:31
p1099
sS'part1_incorrect_attempt'
p1100
(lp1101
(S'0:00:00'
p1102
V52*51*50*49
p1103
tp1104
assVlahawkin
p1105
(dp1106
S'part1_correct_attempt'
p1107
(lp1108
S'0:06:25'
p1109
aV52!/((52-7)!7!)
p1110
asg9
V2015-10-14 05:01:11
p1111
sS'part1_incorrect_attempt'
p1112
(lp1113
(S'0:00:00'
p1114
V52*51*50*49*48*46*45
p1115
tp1116
a(S'0:00:23'
p1117
V52*51*50*49*48*46
p1118
tp1119
a(S'0:00:50'
p1120
V52!/(52-7)!
p1121
tp1122
a(S'0:06:16'
p1123
V52!/(52-7)!7!
p1124
tp1125
assVkquong
p1126
(dp1127
S'part1_correct_attempt'
p1128
(lp1129
S'0:01:16'
p1130
aV52!/(4! *(52-4)!)
p1131
asg9
V2015-10-11 04:50:46
p1132
sS'part1_incorrect_attempt'
p1133
(lp1134
(S'0:00:00'
p1135
V52*51*50*49
p1136
tp1137
a(S'0:00:45'
p1138
V52 * 51 * 50 * 49
p1139
tp1140
assVvasharma
p1141
(dp1142
S'part1_correct_attempt'
p1143
(lp1144
S'0:00:12'
p1145
aV52!/[7!(52-7)!]
p1146
asg9
V2015-10-10 05:55:48
p1147
sS'part1_incorrect_attempt'
p1148
(lp1149
(S'0:00:00'
p1150
V52!/(52-7)!
p1151
tp1152
assVhpc001
p1153
(dp1154
S'part1_correct_attempt'
p1155
(lp1156
S'0:04:02'
p1157
aVC(52, 5)
p1158
asg9
V2015-10-14 21:34:22
p1159
sS'part1_incorrect_attempt'
p1160
(lp1161
(S'0:00:00'
p1162
V52*51*50*49*48
p1163
tp1164
assVxweng
p1165
(dp1166
S'part1_correct_attempt'
p1167
(lp1168
S'3:15:38'
p1169
aVC(52,4)
p1170
asg9
V2015-10-12 22:43:18
p1171
sS'part1_incorrect_attempt'
p1172
(lp1173
(S'0:00:00'
p1174
V52*51*50*49
p1175
tp1176
a(S'0:04:01'
p1177
V52*51*50*49
p1178
tp1179
assVyypan
p1180
(dp1181
S'part1_correct_attempt'
p1182
(lp1183
S'0:00:32'
p1184
aVC(52,5)
p1185
asg9
V2015-10-12 20:48:40
p1186
sS'part1_incorrect_attempt'
p1187
(lp1188
(S'0:00:00'
p1189
V52*51*50*49*48
p1190
tp1191
assVajvanega
p1192
(dp1193
S'part1_correct_attempt'
p1194
(lp1195
S'0:07:26'
p1196
aV52!/((52-4)!4!)
p1197
asg9
V2015-10-14 18:13:18
p1198
sS'part1_incorrect_attempt'
p1199
(lp1200
(S'0:00:00'
p1201
V52*51*50*49
p1202
tp1203
assVzig006
p1204
(dp1205
S'part1_correct_attempt'
p1206
(lp1207
S'0:05:48'
p1208
aV52!/(7!*45!)
p1209
asg9
V2015-10-12 23:19:11
p1210
sS'part1_incorrect_attempt'
p1211
(lp1212
(S'0:00:00'
p1213
V52!/45!
p1214
tp1215
a(S'0:00:26'
p1216
V52*51*50*49*48*47*46
p1217
tp1218
assVmjethani
p1219
(dp1220
S'part1_correct_attempt'
p1221
(lp1222
S'0:05:22'
p1223
aV52!/(7!(45!))
p1224
asg9
V2015-10-13 06:01:41
p1225
sS'part1_incorrect_attempt'
p1226
(lp1227
(S'0:00:00'
p1228
V52*51*50*49*48*47*46*45
p1229
tp1230
a(S'0:05:14'
p1231
V52!/7!(45!)
p1232
tp1233
assVkosung
p1234
(dp1235
S'part1_correct_attempt'
p1236
(lp1237
S'0:00:25'
p1238
aV52*51*50*49*48*47/(6*5*4*3*2)
p1239
asg9
V2015-10-15 07:00:04
p1240
sS'part1_incorrect_attempt'
p1241
(lp1242
(S'0:00:00'
p1243
V52*51*50*49*48*47*46/(6*5*4*3*2)
p1244
tp1245
assVj2phung
p1246
(dp1247
S'part1_correct_attempt'
p1248
(lp1249
S'0:00:32'
p1250
aV52!/(4!48!)
p1251
asg9
V2015-10-14 05:31:50
p1252
sS'part1_incorrect_attempt'
p1253
(lp1254
(S'0:00:00'
p1255
V52*51*50*49
p1256
tp1257
asssV3
p1258
(dp1259
Vapokhare
p1260
(dp1261
S'part3_correct_attempt'
p1262
(lp1263
S'0:05:30'
p1264
aV13!/(3!*(13-3)!)
p1265
asS'part3_incorrect_attempt'
p1266
(lp1267
(S'-1 day, 23:45:24'
p1268
V13!/(13-4)!
p1269
tp1270
a(S'0:01:08'
p1271
V13!/(6!*(13-6)!)
p1272
tp1273
asg9
V2015-10-12 21:05:11
p1274
ssVkbielawi
p1275
(dp1276
S'part3_correct_attempt'
p1277
(lp1278
S'3:06:27'
p1279
aVC(13,3)
p1280
asS'part3_incorrect_attempt'
p1281
(lp1282
(S'0:02:04'
p1283
V13*12*11*10
p1284
tp1285
a(S'3:03:18'
p1286
V13*12*11
p1287
tp1288
asg9
V2015-10-11 23:52:28
p1289
ssVjguanzho
p1290
(dp1291
S'part3_correct_attempt'
p1292
(lp1293
S'0:00:45'
p1294
aV13! / (5! * 8!)
p1295
asS'part3_incorrect_attempt'
p1296
(lp1297
(S'-1 day, 23:55:49'
p1298
V52!/(5!*47!)
p1299
tp1300
asg9
V2015-10-09 20:12:02
p1301
ssVjhc010
p1302
(dp1303
S'part3_correct_attempt'
p1304
(lp1305
S'0:00:58'
p1306
aVC(13,3)
p1307
asS'part3_incorrect_attempt'
p1308
(lp1309
(S'0:00:41'
p1310
V3^13
p1311
tp1312
a(S'0:00:49'
p1313
V13*12*11
p1314
tp1315
asg9
V2015-10-15 16:08:23
p1316
ssVdkurli
p1317
(dp1318
S'part3_correct_attempt'
p1319
(lp1320
S'0:02:13'
p1321
aV13!/10!/3!
p1322
asS'part3_incorrect_attempt'
p1323
(lp1324
(S'0:00:40'
p1325
V13*12*11
p1326
tp1327
a(S'0:01:59'
p1328
V13!/9!/4!
p1329
tp1330
asg9
V2015-10-14 03:50:42
p1331
ssVnhn018
p1332
(dp1333
S'part3_correct_attempt'
p1334
(lp1335
S'0:48:13'
p1336
aV715
p1337
asS'part3_incorrect_attempt'
p1338
(lp1339
(S'0:00:00'
p1340
V4^12
p1341
tp1342
a(S'0:01:03'
p1343
V4^13
p1344
tp1345
asg9
V2015-10-15 19:31:19
p1346
ssVdan029
p1347
(dp1348
S'part3_correct_attempt'
p1349
(lp1350
S'0:00:00'
p1351
aVC(13,3)
p1352
asS'part3_incorrect_attempt'
p1353
(lp1354
(S'-1 day, 23:58:02'
p1355
V13*12*11*10
p1356
tp1357
asg9
V2015-10-09 22:56:33
p1358
ssVhaw081
p1359
(dp1360
S'part3_correct_attempt'
p1361
(lp1362
S'0:18:08'
p1363
aVC(13,6)
p1364
asS'part3_incorrect_attempt'
p1365
(lp1366
(S'0:02:21'
p1367
VC(4,1)
p1368
tp1369
a(S'0:17:09'
p1370
V4*13
p1371
tp1372
asg9
V2015-10-10 23:32:20
p1373
ssVffhaddad
p1374
(dp1375
S'part3_correct_attempt'
p1376
(lp1377
S'0:01:32'
p1378
aVC(13,3)
p1379
asS'part3_incorrect_attempt'
p1380
(lp1381
(S'0:00:38'
p1382
VC(13,1)
p1383
tp1384
asg9
V2015-10-10 21:08:16
p1385
ssVjmmcalex
p1386
(dp1387
S'part3_correct_attempt'
p1388
(lp1389
S'0:06:29'
p1390
aV12*13/2
p1391
asS'part3_incorrect_attempt'
p1392
(lp1393
(S'0:06:19'
p1394
V12*13
p1395
tp1396
asg9
V2015-10-15 08:24:26
p1397
ssVtstevens
p1398
(dp1399
S'part3_correct_attempt'
p1400
(lp1401
S'0:05:57'
p1402
aV286
p1403
asS'part3_incorrect_attempt'
p1404
(lp1405
(S'0:01:39'
p1406
V4*13
p1407
tp1408
asg9
V2015-10-10 10:36:56
p1409
ssVpthsu
p1410
(dp1411
S'part3_correct_attempt'
p1412
(lp1413
S'0:39:07'
p1414
aVC(13,3)
p1415
asS'part3_incorrect_attempt'
p1416
(lp1417
(S'0:38:17'
p1418
VC(13,1)
p1419
tp1420
asg9
V2015-10-10 20:18:37
p1421
ssVtcuddy
p1422
(dp1423
S'part3_correct_attempt'
p1424
(lp1425
S'0:04:04'
p1426
aV13!/(3!10!)
p1427
asS'part3_incorrect_attempt'
p1428
(lp1429
(S'0:01:02'
p1430
V13*12*11
p1431
tp1432
a(S'0:03:31'
p1433
V13*12*11*4
p1434
tp1435
asg9
V2015-10-10 19:53:54
p1436
ssVl8ngo
p1437
(dp1438
S'part3_correct_attempt'
p1439
(lp1440
S'1:01:20'
p1441
aV13!/[4!9!]
p1442
asS'part3_incorrect_attempt'
p1443
(lp1444
(S'0:05:44'
p1445
V13*12*11
p1446
tp1447
a(S'0:10:53'
p1448
V14!/[4!10!]
p1449
tp1450
a(S'1:01:03'
p1451
V13![4!9!]
p1452
tp1453
asg9
V2015-10-12 15:46:35
p1454
ssVdjk006
p1455
(dp1456
S'part3_correct_attempt'
p1457
(lp1458
S'0:14:35'
p1459
aV13*12*11/6
p1460
asS'part3_incorrect_attempt'
p1461
(lp1462
(S'0:02:10'
p1463
V52*12*11
p1464
tp1465
a(S'0:02:29'
p1466
V4*13*12*11
p1467
tp1468
a(S'0:02:37'
p1469
V4*12*11
p1470
tp1471
a(S'0:07:10'
p1472
V13*12*11
p1473
tp1474
a(S'0:11:12'
p1475
V52*12*11
p1476
tp1477
a(S'0:13:48'
p1478
V52*12*11/2
p1479
tp1480
asg9
V2015-10-11 02:28:10
p1481
ssVdsriniva
p1482
(dp1483
S'part3_correct_attempt'
p1484
(lp1485
S'0:03:43'
p1486
aV715
p1487
asS'part3_incorrect_attempt'
p1488
(lp1489
(S'0:03:17'
p1490
V13*12*11*10
p1491
tp1492
asg9
V2015-10-15 19:57:22
p1493
ssVa2ahmed
p1494
(dp1495
S'part3_correct_attempt'
p1496
(lp1497
S'0:04:19'
p1498
aVC(13,5)
p1499
asS'part3_incorrect_attempt'
p1500
(lp1501
(S'0:02:32'
p1502
V13*12*11*10*9*8
p1503
tp1504
a(S'0:03:00'
p1505
V12*11*10*9*8*7
p1506
tp1507
a(S'0:03:43'
p1508
V13*12*11*10*9
p1509
tp1510
asg9
V2015-10-15 04:08:54
p1511
ssVmitopete
p1512
(dp1513
S'part3_correct_attempt'
p1514
(lp1515
S'0:07:13'
p1516
aV13!/(4!9!)
p1517
asS'part3_incorrect_attempt'
p1518
(lp1519
(S'0:02:05'
p1520
V4!
p1521
tp1522
a(S'0:04:05'
p1523
V4^13
p1524
tp1525
asg9
V2015-10-13 20:20:06
p1526
ssVstarinia
p1527
(dp1528
S'part3_correct_attempt'
p1529
(lp1530
S'2:07:22'
p1531
aVC(13,2)
p1532
asS'part3_incorrect_attempt'
p1533
(lp1534
(S'-1 day, 23:48:19'
p1535
V52/4
p1536
tp1537
a(S'0:11:11'
p1538
V13!/4!
p1539
tp1540
a(S'0:18:14'
p1541
V39!/(2!37!)
p1542
tp1543
asg9
V2015-10-15 01:42:28
p1544
ssVtak068
p1545
(dp1546
S'part3_correct_attempt'
p1547
(lp1548
S'0:11:57'
p1549
aV55*13
p1550
asS'part3_incorrect_attempt'
p1551
(lp1552
(S'0:08:41'
p1553
V4^13
p1554
tp1555
asg9
V2015-10-14 06:49:53
p1556
ssVm8woo
p1557
(dp1558
S'part3_correct_attempt'
p1559
(lp1560
S'0:01:04'
p1561
aVC(13,5)
p1562
asS'part3_incorrect_attempt'
p1563
(lp1564
(S'0:00:00'
p1565
VC(12,7)
p1566
tp1567
asg9
V2015-10-10 01:10:32
p1568
ssVdruble
p1569
(dp1570
S'part3_correct_attempt'
p1571
(lp1572
S'0:12:40'
p1573
aVC(13,2)
p1574
asS'part3_incorrect_attempt'
p1575
(lp1576
(S'0:04:01'
p1577
V4*13
p1578
tp1579
a(S'0:05:57'
p1580
V2*4*13
p1581
tp1582
asg9
V2015-10-13 01:02:05
p1583
ssVh4tu
p1584
(dp1585
S'part3_correct_attempt'
p1586
(lp1587
S'0:04:29'
p1588
aV13*12/2
p1589
asS'part3_incorrect_attempt'
p1590
(lp1591
(S'0:01:18'
p1592
V4^7
p1593
tp1594
a(S'0:02:05'
p1595
V4^6
p1596
tp1597
asg9
V2015-10-15 06:56:59
p1598
ssVccn001
p1599
(dp1600
S'part3_correct_attempt'
p1601
(lp1602
S'-1 day, 22:58:05'
p1603
aV13!/(3!(10!))
p1604
asS'part3_incorrect_attempt'
p1605
(lp1606
(S'-1 day, 22:57:27'
p1607
V13*12*11
p1608
tp1609
asg9
V2015-10-12 23:25:54
p1610
ssVlrlai
p1611
(dp1612
S'part3_correct_attempt'
p1613
(lp1614
S'0:07:35'
p1615
aVC(13,3)
p1616
asS'part3_incorrect_attempt'
p1617
(lp1618
(S'0:05:20'
p1619
V13*12*11
p1620
tp1621
a(S'0:05:28'
p1622
V13*12*11*13
p1623
tp1624
a(S'0:06:39'
p1625
V13*12*11*4
p1626
tp1627
a(S'0:07:27'
p1628
VC(13,3)*13
p1629
tp1630
asg9
V2015-10-12 19:51:30
p1631
ssVlguintu
p1632
(dp1633
S'part3_correct_attempt'
p1634
(lp1635
S'0:05:24'
p1636
aVC(13,4)
p1637
asS'part3_incorrect_attempt'
p1638
(lp1639
(S'0:01:06'
p1640
V4!
p1641
tp1642
a(S'0:04:54'
p1643
VC(13,1)
p1644
tp1645
asg9
V2015-10-09 21:51:02
p1646
ssVjjchung
p1647
(dp1648
S'part3_correct_attempt'
p1649
(lp1650
S'0:06:47'
p1651
aVC(13,3)
p1652
asS'part3_incorrect_attempt'
p1653
(lp1654
(S'0:01:31'
p1655
V13!12!11!
p1656
tp1657
asg9
V2015-10-14 19:52:36
p1658
ssVabjara
p1659
(dp1660
S'part3_correct_attempt'
p1661
(lp1662
S'0:13:30'
p1663
aV13!/(2!*11!)
p1664
asS'part3_incorrect_attempt'
p1665
(lp1666
(S'0:12:07'
p1667
V2^13
p1668
tp1669
asg9
V2015-10-12 10:47:42
p1670
ssVmroknich
p1671
(dp1672
S'part3_correct_attempt'
p1673
(lp1674
S'0:12:23'
p1675
aVC(13,3)
p1676
asS'part3_incorrect_attempt'
p1677
(lp1678
(S'0:12:09'
p1679
V13*12*11
p1680
tp1681
asg9
V2015-10-14 00:29:46
p1682
ssVbeyounge
p1683
(dp1684
S'part3_correct_attempt'
p1685
(lp1686
S'1:02:11'
p1687
aVC(13,4)
p1688
asS'part3_incorrect_attempt'
p1689
(lp1690
(S'0:00:51'
p1691
V13*12*11*10
p1692
tp1693
a(S'1:01:07'
p1694
V13*12*11*10
p1695
tp1696
asg9
V2015-10-09 06:00:12
p1697
ssVtpmach
p1698
(dp1699
S'part3_correct_attempt'
p1700
(lp1701
S'0:07:28'
p1702
aV13!/(4!(13-4)!)
p1703
asS'part3_incorrect_attempt'
p1704
(lp1705
(S'0:06:25'
p1706
V4^13
p1707
tp1708
asg9
V2015-10-11 01:28:46
p1709
ssVr1gu
p1710
(dp1711
S'part3_correct_attempt'
p1712
(lp1713
S'10:05:08'
p1714
aV(13!/(2!11!))
p1715
asS'part3_incorrect_attempt'
p1716
(lp1717
(S'10:04:19'
p1718
V4*(13!/(2!11!))
p1719
tp1720
asg9
V2015-10-15 12:15:23
p1721
ssVhak014
p1722
(dp1723
S'part3_correct_attempt'
p1724
(lp1725
S'2 days, 14:02:42'
p1726
aVC(13,5)
p1727
asS'part3_incorrect_attempt'
p1728
(lp1729
(S'0:00:29'
p1730
V13*12*11*10
p1731
tp1732
a(S'0:00:45'
p1733
V(13*12*11*10)*4
p1734
tp1735
a(S'0:02:16'
p1736
V13*12*11*10*9*47
p1737
tp1738
a(S'0:05:10'
p1739
V(13*12*11*10*9*39)
p1740
tp1741
a(S'1:21:04'
p1742
V(13*12*11*10*9*39)/5!
p1743
tp1744
asg9
V2015-10-13 05:11:32
p1745
ssVdis003
p1746
(dp1747
S'part3_correct_attempt'
p1748
(lp1749
S'0:03:32'
p1750
aVC(13,2)
p1751
asS'part3_incorrect_attempt'
p1752
(lp1753
(S'0:02:01'
p1754
V52/4
p1755
tp1756
asg9
V2015-10-15 11:10:37
p1757
ssVjhw015
p1758
(dp1759
S'part3_correct_attempt'
p1760
(lp1761
S'1:13:44'
p1762
aVC(13,5)
p1763
asS'part3_incorrect_attempt'
p1764
(lp1765
(S'0:02:14'
p1766
VC(52,4)
p1767
tp1768
a(S'0:05:06'
p1769
VC(52,13)
p1770
tp1771
a(S'0:05:13'
p1772
VC(52,4)
p1773
tp1774
a(S'0:05:52'
p1775
VP(52,4)
p1776
tp1777
a(S'0:05:58'
p1778
VP(52,13)
p1779
tp1780
a(S'1:12:36'
p1781
VC(52,4)
p1782
tp1783
a(S'1:12:41'
p1784
VC(52,13)
p1785
tp1786
asg9
V2015-10-15 02:18:24
p1787
ssVdsmonaha
p1788
(dp1789
S'part3_correct_attempt'
p1790
(lp1791
S'0:14:16'
p1792
aVC(13,4)
p1793
asS'part3_incorrect_attempt'
p1794
(lp1795
(S'0:00:38'
p1796
VC(13,1)
p1797
tp1798
a(S'0:02:24'
p1799
VP(13,1)
p1800
tp1801
a(S'0:05:07'
p1802
VC(4,1)
p1803
tp1804
a(S'0:05:16'
p1805
VC(13,1)
p1806
tp1807
a(S'0:05:21'
p1808
VC(12,1)
p1809
tp1810
asg9
V2015-10-13 17:54:09
p1811
ssVthwan
p1812
(dp1813
S'part3_correct_attempt'
p1814
(lp1815
S'0:01:33'
p1816
aVC(13,4)
p1817
asS'part3_incorrect_attempt'
p1818
(lp1819
(S'0:00:00'
p1820
VC(13,1)
p1821
tp1822
asg9
V2015-10-10 19:15:04
p1823
ssVlcardoso
p1824
(dp1825
S'part3_correct_attempt'
p1826
(lp1827
S'0:03:23'
p1828
aVC(13,2)
p1829
asS'part3_incorrect_attempt'
p1830
(lp1831
(S'0:01:31'
p1832
V4*13
p1833
tp1834
a(S'0:01:49'
p1835
V2*13
p1836
tp1837
asg9
V2015-10-13 17:22:51
p1838
ssVjel075
p1839
(dp1840
S'part3_correct_attempt'
p1841
(lp1842
S'-1 day, 23:59:46'
p1843
aV13!/(10!*3!)
p1844
asS'part3_incorrect_attempt'
p1845
(lp1846
(S'-1 day, 23:58:40'
p1847
V13*12*11
p1848
tp1849
asg9
V2015-10-15 01:11:43
p1850
ssVytc012
p1851
(dp1852
S'part3_correct_attempt'
p1853
(lp1854
S'0:11:16'
p1855
aV13!/(4!9!)
p1856
asS'part3_incorrect_attempt'
p1857
(lp1858
(S'0:10:11'
p1859
V13*12*11*10
p1860
tp1861
asg9
V2015-10-15 08:34:16
p1862
ssVedescobe
p1863
(dp1864
S'part3_correct_attempt'
p1865
(lp1866
S'2:19:35'
p1867
aVC(13,3)
p1868
asS'part3_incorrect_attempt'
p1869
(lp1870
(S'2:19:06'
p1871
V13*12*11
p1872
tp1873
asg9
V2015-10-12 20:11:25
p1874
ssVmuy002
p1875
(dp1876
S'part3_correct_attempt'
p1877
(lp1878
S'0:00:39'
p1879
aV13!/(2!11!)
p1880
asS'part3_incorrect_attempt'
p1881
(lp1882
(S'0:00:33'
p1883
V13!(2!11!)
p1884
tp1885
asg9
V2015-10-14 22:07:25
p1886
ssVwcwhite
p1887
(dp1888
S'part3_incorrect_attempt'
p1889
(lp1890
(S'0:04:38'
p1891
VC(52,11)
p1892
tp1893
a(S'0:12:38'
p1894
V11*10*9*8*7*6*5
p1895
tp1896
a(S'0:13:53'
p1897
V11*10*9*8*7*6
p1898
tp1899
a(S'0:15:20'
p1900
V13*12*11*10*9*8
p1901
tp1902
asg9
V2015-10-15 21:48:54
p1903
ssVcstringh
p1904
(dp1905
S'part3_correct_attempt'
p1906
(lp1907
S'0:32:37'
p1908
aVC(13, 3)
p1909
asS'part3_incorrect_attempt'
p1910
(lp1911
(S'-1 day, 23:59:04'
p1912
V14!
p1913
tp1914
a(S'0:02:54'
p1915
V14*13*12
p1916
tp1917
a(S'0:05:20'
p1918
V14*4
p1919
tp1920
a(S'0:09:10'
p1921
V12*4
p1922
tp1923
a(S'0:09:24'
p1924
V11*4
p1925
tp1926
asg9
V2015-10-12 22:22:12
p1927
ssVqfu
p1928
(dp1929
S'part3_correct_attempt'
p1930
(lp1931
S'0:01:26'
p1932
aVC(13,4)
p1933
asS'part3_incorrect_attempt'
p1934
(lp1935
(S'0:00:00'
p1936
VC(13,1)
p1937
tp1938
asg9
V2015-10-10 16:21:36
p1939
ssVyjshin
p1940
(dp1941
S'part3_correct_attempt'
p1942
(lp1943
S'1 day, 2:16:53'
p1944
aV13!/(3!10!)
p1945
asS'part3_incorrect_attempt'
p1946
(lp1947
(S'1 day, 0:01:21'
p1948
V(4*286*3*715)
p1949
tp1950
a(S'1 day, 2:16:44'
p1951
V13!/3!
p1952
tp1953
asg9
V2015-10-14 09:56:49
p1954
ssVbkoli
p1955
(dp1956
S'part3_correct_attempt'
p1957
(lp1958
S'9:47:43'
p1959
aV13!/(2!11!)
p1960
asS'part3_incorrect_attempt'
p1961
(lp1962
(S'9:47:33'
p1963
V13!/2!11!
p1964
tp1965
asg9
V2015-10-15 07:18:22
p1966
ssVdac064
p1967
(dp1968
S'part3_correct_attempt'
p1969
(lp1970
S'0:05:14'
p1971
aVC(13,4)
p1972
asS'part3_incorrect_attempt'
p1973
(lp1974
(S'0:03:08'
p1975
V(13! / 8!)*(13!)
p1976
tp1977
a(S'0:03:20'
p1978
V(13! / 8!)*(13)
p1979
tp1980
a(S'0:03:33'
p1981
V(13! / 9!)*(13)
p1982
tp1983
a(S'0:03:54'
p1984
V(13! / 9!)
p1985
tp1986
asg9
V2015-10-15 20:17:52
p1987
ssVv3doan
p1988
(dp1989
S'part3_correct_attempt'
p1990
(lp1991
S'0:19:31'
p1992
aVC(13,2)
p1993
asS'part3_incorrect_attempt'
p1994
(lp1995
(S'0:16:26'
p1996
V11 * 12
p1997
tp1998
asg9
V2015-10-11 02:30:57
p1999
ssVk3tan
p2000
(dp2001
S'part3_correct_attempt'
p2002
(lp2003
S'0:18:10'
p2004
aV13!/(4!9!)
p2005
asS'part3_incorrect_attempt'
p2006
(lp2007
(S'0:01:25'
p2008
V13!/(4!8!)
p2009
tp2010
a(S'0:07:30'
p2011
V13!/9!
p2012
tp2013
a(S'0:08:39'
p2014
V13!/6!
p2015
tp2016
a(S'0:08:48'
p2017
V13!/7!
p2018
tp2019
a(S'0:13:04'
p2020
V4(13!/9!)
p2021
tp2022
asg9
V2015-10-13 05:46:50
p2023
ssVb3hwang
p2024
(dp2025
S'part3_incorrect_attempt'
p2026
(lp2027
(S'0:04:36'
p2028
V3*13
p2029
tp2030
a(S'0:06:09'
p2031
V13*12*11*10*9*10
p2032
tp2033
asg9
V2015-10-15 22:53:09
p2034
ssVlywong
p2035
(dp2036
S'part3_correct_attempt'
p2037
(lp2038
S'0:06:03'
p2039
aV13!/(2!(13-2)!)
p2040
asS'part3_incorrect_attempt'
p2041
(lp2042
(S'0:05:46'
p2043
V13!/(2!(13-2))
p2044
tp2045
asg9
V2015-10-13 00:28:17
p2046
ssVkebao
p2047
(dp2048
S'part3_correct_attempt'
p2049
(lp2050
S'0:51:13'
p2051
aV13!/(2!*11!)
p2052
asS'part3_incorrect_attempt'
p2053
(lp2054
(S'0:01:39'
p2055
V13!/(5!)
p2056
tp2057
a(S'0:01:48'
p2058
V13!/(5!*8!)
p2059
tp2060
asg9
V2015-10-15 05:13:42
p2061
ssVnisharma
p2062
(dp2063
S'part3_correct_attempt'
p2064
(lp2065
S'21:08:05'
p2066
aVC(13,5)
p2067
asS'part3_incorrect_attempt'
p2068
(lp2069
(S'0:04:00'
p2070
V4*(13!/ 5!*8!)
p2071
tp2072
a(S'0:04:08'
p2073
V4*(13!/ (5!*8!))
p2074
tp2075
a(S'0:10:39'
p2076
V52!/(5!*47!)
p2077
tp2078
a(S'0:21:43'
p2079
V4*(13!/(5!*8!))
p2080
tp2081
a(S'0:25:50'
p2082
V52*51*50*49*48
p2083
tp2084
asg9
V2015-10-14 01:01:46
p2085
ssVglcohen
p2086
(dp2087
S'part3_correct_attempt'
p2088
(lp2089
S'0:04:56'
p2090
aV13!/(10!3!)
p2091
asS'part3_incorrect_attempt'
p2092
(lp2093
(S'0:02:32'
p2094
V(13!)/(12!)
p2095
tp2096
asg9
V2015-10-13 05:44:18
p2097
ssVachava
p2098
(dp2099
S'part3_correct_attempt'
p2100
(lp2101
S'0:43:22'
p2102
aVC(13,4)
p2103
asS'part3_incorrect_attempt'
p2104
(lp2105
(S'0:41:51'
p2106
V4^13
p2107
tp2108
asg9
V2015-10-13 07:44:33
p2109
ssVpvl001
p2110
(dp2111
S'part3_correct_attempt'
p2112
(lp2113
S'0:19:45'
p2114
aV78
p2115
asS'part3_incorrect_attempt'
p2116
(lp2117
(S'0:02:02'
p2118
V52 * 12
p2119
tp2120
a(S'0:15:02'
p2121
V13 * 12 * 4
p2122
tp2123
asg9
V2015-10-13 19:10:54
p2124
ssVjcj006
p2125
(dp2126
S'part3_correct_attempt'
p2127
(lp2128
S'0:13:56'
p2129
aV13!/(3!10!)
p2130
asS'part3_incorrect_attempt'
p2131
(lp2132
(S'0:03:35'
p2133
V13!/(9!4!)
p2134
tp2135
asg9
V2015-10-13 23:53:51
p2136
ssVn2patil
p2137
(dp2138
S'part3_correct_attempt'
p2139
(lp2140
S'0:11:09'
p2141
aV715
p2142
asS'part3_incorrect_attempt'
p2143
(lp2144
(S'0:10:52'
p2145
V13*12*11*10
p2146
tp2147
asg9
V2015-10-13 16:32:22
p2148
ssVjnatale
p2149
(dp2150
S'part3_correct_attempt'
p2151
(lp2152
S'0:07:14'
p2153
aVC(13,4)
p2154
asS'part3_incorrect_attempt'
p2155
(lp2156
(S'0:07:05'
p2157
V13*12*11*10
p2158
tp2159
asg9
V2015-10-13 01:16:50
p2160
ssVsyc078
p2161
(dp2162
S'part3_correct_attempt'
p2163
(lp2164
S'2 days, 5:16:47'
p2165
aV(13*12)/2
p2166
asS'part3_incorrect_attempt'
p2167
(lp2168
(S'2 days, 5:13:45'
p2169
V(13*12*11*10) / (4*3*2)
p2170
tp2171
asg9
V2015-10-12 21:09:54
p2172
ssVielouaae
p2173
(dp2174
S'part3_correct_attempt'
p2175
(lp2176
S'0:21:46'
p2177
aV13!/(9!4!)
p2178
asS'part3_incorrect_attempt'
p2179
(lp2180
(S'0:02:14'
p2181
V4*13
p2182
tp2183
a(S'0:20:30'
p2184
V13!/(5!6!)
p2185
tp2186
asg9
V2015-10-15 07:52:08
p2187
ssVc1sorian
p2188
(dp2189
S'part3_correct_attempt'
p2190
(lp2191
S'0:03:52'
p2192
aV13!/(3!10!)
p2193
asS'part3_incorrect_attempt'
p2194
(lp2195
(S'0:02:43'
p2196
V13!/(3!)
p2197
tp2198
a(S'0:02:52'
p2199
V13!/(3!9!)
p2200
tp2201
asg9
V2015-10-14 22:12:26
p2202
ssVcsl030
p2203
(dp2204
S'part3_correct_attempt'
p2205
(lp2206
S'0:02:06'
p2207
aVC(13, 3)
p2208
asS'part3_incorrect_attempt'
p2209
(lp2210
(S'0:01:09'
p2211
V4 * 13
p2212
tp2213
a(S'0:01:32'
p2214
V3 * 13
p2215
tp2216
asg9
V2015-10-10 05:01:34
p2217
ssVazkong
p2218
(dp2219
S'part3_correct_attempt'
p2220
(lp2221
S'0:04:05'
p2222
aVC(13, 4)
p2223
asS'part3_incorrect_attempt'
p2224
(lp2225
(S'0:03:27'
p2226
VC(13, 1)
p2227
tp2228
asg9
V2015-10-15 16:13:41
p2229
ssVk4ma
p2230
(dp2231
S'part3_correct_attempt'
p2232
(lp2233
S'-1 day, 23:59:27'
p2234
aVC(13,4)
p2235
asS'part3_incorrect_attempt'
p2236
(lp2237
(S'-1 day, 23:55:00'
p2238
V13*12*11*10
p2239
tp2240
asg9
V2015-10-15 03:24:32
p2241
ssVaurodrig
p2242
(dp2243
S'part3_correct_attempt'
p2244
(lp2245
S'1:27:17'
p2246
aV78
p2247
asS'part3_incorrect_attempt'
p2248
(lp2249
(S'0:50:38'
p2250
V4*9/[36/C(52,5)]
p2251
tp2252
a(S'0:54:20'
p2253
V52!/33120
p2254
tp2255
asg9
V2015-10-15 18:19:11
p2256
ssVhmnaing
p2257
(dp2258
S'part3_correct_attempt'
p2259
(lp2260
S'0:01:47'
p2261
aVC(13, 3)
p2262
asS'part3_incorrect_attempt'
p2263
(lp2264
(S'0:00:00'
p2265
V13*12*11
p2266
tp2267
asg9
V2015-10-13 00:38:44
p2268
ssVklala
p2269
(dp2270
S'part3_correct_attempt'
p2271
(lp2272
S'0:01:44'
p2273
aVC(13,3)
p2274
asS'part3_incorrect_attempt'
p2275
(lp2276
(S'0:00:52'
p2277
V4*13
p2278
tp2279
asg9
V2015-10-12 04:18:35
p2280
ssVdlgoldbe
p2281
(dp2282
S'part3_correct_attempt'
p2283
(lp2284
S'1 day, 23:12:53'
p2285
aV13!/(4!*9!)
p2286
asS'part3_incorrect_attempt'
p2287
(lp2288
(S'0:03:56'
p2289
V12*3
p2290
tp2291
asg9
V2015-10-13 01:23:40
p2292
ssVjfalcone
p2293
(dp2294
S'part3_correct_attempt'
p2295
(lp2296
S'0:11:53'
p2297
aV13!/(2!11!)
p2298
asS'part3_incorrect_attempt'
p2299
(lp2300
(S'0:06:31'
p2301
V4^13
p2302
tp2303
a(S'0:08:47'
p2304
V2^13
p2305
tp2306
asg9
V2015-10-14 22:48:45
p2307
ssVt2shin
p2308
(dp2309
S'part3_correct_attempt'
p2310
(lp2311
S'0:04:38'
p2312
aV13!/(3!10!)
p2313
asS'part3_incorrect_attempt'
p2314
(lp2315
(S'0:02:06'
p2316
V4*4*4
p2317
tp2318
a(S'0:03:20'
p2319
V13*12*11
p2320
tp2321
asg9
V2015-10-15 05:47:08
p2322
ssVewbrenna
p2323
(dp2324
S'part3_correct_attempt'
p2325
(lp2326
S'0:09:08'
p2327
aV13!/(4!*(13-4)!)
p2328
asS'part3_incorrect_attempt'
p2329
(lp2330
(S'0:02:41'
p2331
V13*12*11*10
p2332
tp2333
asg9
V2015-10-12 20:07:47
p2334
ssVspw006
p2335
(dp2336
S'part3_correct_attempt'
p2337
(lp2338
S'1:51:23'
p2339
aVC(13,4)
p2340
asS'part3_incorrect_attempt'
p2341
(lp2342
(S'1:50:33'
p2343
VC(52,7)
p2344
tp2345
asg9
V2015-10-13 21:20:56
p2346
ssVany027
p2347
(dp2348
S'part3_correct_attempt'
p2349
(lp2350
S'0:05:38'
p2351
aV78
p2352
asS'part3_incorrect_attempt'
p2353
(lp2354
(S'0:02:23'
p2355
V4 * 13
p2356
tp2357
a(S'0:05:02'
p2358
V2^13
p2359
tp2360
asg9
V2015-10-09 09:46:45
p2361
ssVvsosnovs
p2362
(dp2363
S'part3_correct_attempt'
p2364
(lp2365
S'0:07:15'
p2366
aVC(13,2)
p2367
asS'part3_incorrect_attempt'
p2368
(lp2369
(S'0:03:16'
p2370
VC(13,1)
p2371
tp2372
asg9
V2015-10-15 04:18:13
p2373
ssVk5law
p2374
(dp2375
S'part3_correct_attempt'
p2376
(lp2377
S'2:00:06'
p2378
aV(13!/(10!3!))
p2379
asS'part3_incorrect_attempt'
p2380
(lp2381
(S'1:53:04'
p2382
V13*12*11
p2383
tp2384
a(S'1:54:59'
p2385
V13*13*13
p2386
tp2387
a(S'1:59:25'
p2388
V4*13
p2389
tp2390
a(S'1:59:58'
p2391
V4*(13!/(10!3!))
p2392
tp2393
asg9
V2015-10-12 01:40:02
p2394
ssVb1green
p2395
(dp2396
S'part3_correct_attempt'
p2397
(lp2398
S'0:05:29'
p2399
aVC(13,4)
p2400
asS'part3_incorrect_attempt'
p2401
(lp2402
(S'0:00:50'
p2403
V13*12*11*10
p2404
tp2405
asg9
V2015-10-15 20:57:42
p2406
ssVamquinte
p2407
(dp2408
S'part3_correct_attempt'
p2409
(lp2410
S'3 days, 2:26:56'
p2411
aVC(13,5)
p2412
asS'part3_incorrect_attempt'
p2413
(lp2414
(S'0:01:43'
p2415
VC(52,2)
p2416
tp2417
asg9
V2015-10-12 21:01:33
p2418
ssVgsrandha
p2419
(dp2420
S'part3_correct_attempt'
p2421
(lp2422
S'23:17:29'
p2423
aV78
p2424
asS'part3_incorrect_attempt'
p2425
(lp2426
(S'0:04:51'
p2427
V13*12*11*10*9*8
p2428
tp2429
a(S'0:06:47'
p2430
V13*13*13*13
p2431
tp2432
a(S'0:07:41'
p2433
V125*20
p2434
tp2435
asg9
V2015-10-12 06:59:39
p2436
ssVdcgriffi
p2437
(dp2438
S'part3_correct_attempt'
p2439
(lp2440
S'0:00:00'
p2441
aV13!/(4!*9!)
p2442
asS'part3_incorrect_attempt'
p2443
(lp2444
(S'-1 day, 23:57:41'
p2445
V13*12*11*10
p2446
tp2447
asg9
V2015-10-14 07:21:07
p2448
ssVrsmurlo
p2449
(dp2450
S'part3_correct_attempt'
p2451
(lp2452
S'0:00:00'
p2453
aV13!/(10!3!)
p2454
asS'part3_incorrect_attempt'
p2455
(lp2456
(S'-1 day, 23:42:14'
p2457
V13*12*11*10
p2458
tp2459
a(S'-1 day, 23:50:51'
p2460
V13*12*11
p2461
tp2462
a(S'-1 day, 23:51:24'
p2463
V13*12*11*4
p2464
tp2465
a(S'-1 day, 23:52:04'
p2466
V13*12*11*39
p2467
tp2468
a(S'-1 day, 23:52:21'
p2469
V13*12*11*39*4
p2470
tp2471
a(S'-1 day, 23:54:16'
p2472
V13*12*11*4*4
p2473
tp2474
asg9
V2015-10-13 17:48:02
p2475
ssVanl114
p2476
(dp2477
S'part3_correct_attempt'
p2478
(lp2479
S'0:00:00'
p2480
aV1287
p2481
asS'part3_incorrect_attempt'
p2482
(lp2483
(S'-1 day, 23:54:32'
p2484
V(13*12*11*10*9)/52
p2485
tp2486
a(S'-1 day, 23:56:28'
p2487
V(13*12*11*10*9)
p2488
tp2489
asg9
V2015-10-15 07:59:32
p2490
ssVkalang
p2491
(dp2492
S'part3_correct_attempt'
p2493
(lp2494
S'0:01:15'
p2495
aVC(13,2)
p2496
asS'part3_incorrect_attempt'
p2497
(lp2498
(S'0:01:09'
p2499
VC(13,1)
p2500
tp2501
asg9
V2015-10-15 23:04:47
p2502
ssVajabasa
p2503
(dp2504
S'part3_correct_attempt'
p2505
(lp2506
S'0:09:13'
p2507
aVC(13, 2)
p2508
asS'part3_incorrect_attempt'
p2509
(lp2510
(S'0:07:17'
p2511
V13*13*4
p2512
tp2513
asg9
V2015-10-14 06:50:09
p2514
ssVjnn015
p2515
(dp2516
S'part3_correct_attempt'
p2517
(lp2518
S'0:05:57'
p2519
aV(13*12*11)/3!
p2520
asS'part3_incorrect_attempt'
p2521
(lp2522
(S'0:04:24'
p2523
V13*12*11
p2524
tp2525
asg9
V2015-10-11 15:24:08
p2526
ssVlahawkin
p2527
(dp2528
S'part3_correct_attempt'
p2529
(lp2530
S'0:09:31'
p2531
aV13!/((13-4)!*4!)
p2532
asS'part3_incorrect_attempt'
p2533
(lp2534
(S'0:02:57'
p2535
V4*9
p2536
tp2537
a(S'0:03:07'
p2538
V4*10
p2539
tp2540
a(S'0:04:10'
p2541
V9!/((5!)4!)
p2542
tp2543
a(S'0:07:14'
p2544
V9!/((7!)2!)
p2545
tp2546
asg9
V2015-10-14 05:07:36
p2547
ssVkosung
p2548
(dp2549
S'part3_correct_attempt'
p2550
(lp2551
S'-1 day, 23:57:50'
p2552
aV22*13
p2553
asS'part3_incorrect_attempt'
p2554
(lp2555
(S'-1 day, 23:40:29'
p2556
V13*12*11
p2557
tp2558
asg9
V2015-10-15 07:00:29
p2559
ssVxweng
p2560
(dp2561
S'part3_correct_attempt'
p2562
(lp2563
S'0:06:35'
p2564
aVC(13,3)
p2565
asS'part3_incorrect_attempt'
p2566
(lp2567
(S'-1 day, 21:02:51'
p2568
V4*13*12*11
p2569
tp2570
a(S'-1 day, 21:03:09'
p2571
V13*12*11
p2572
tp2573
a(S'-1 day, 21:07:40'
p2574
V3*13*12*11
p2575
tp2576
a(S'-1 day, 21:08:43'
p2577
V3*13
p2578
tp2579
a(S'-1 day, 23:49:04'
p2580
V4*13
p2581
tp2582
a(S'-1 day, 23:49:24'
p2583
V4*13*12*11*10
p2584
tp2585
a(S'-1 day, 23:49:37'
p2586
V4*13*12*11
p2587
tp2588
a(S'-1 day, 23:51:01'
p2589
V10*13*12*11
p2590
tp2591
a(S'-1 day, 23:51:06'
p2592
V13*12*11
p2593
tp2594
a(S'-1 day, 23:58:48'
p2595
VC(4,1)C(13,3)
p2596
tp2597
a(S'0:00:25'
p2598
VC(4,1)C(52,3)
p2599
tp2600
a(S'0:05:15'
p2601
VC(4,1)C(13,3)
p2602
tp2603
a(S'0:06:20'
p2604
VC(4,1)C(13,3)*39
p2605
tp2606
a(S'0:06:29'
p2607
VC(4,1)C(13,3)
p2608
tp2609
asg9
V2015-10-13 01:58:56
p2610
ssVyypan
p2611
(dp2612
S'part3_correct_attempt'
p2613
(lp2614
S'0:00:41'
p2615
aVC(13,3)
p2616
asS'part3_incorrect_attempt'
p2617
(lp2618
(S'0:00:26'
p2619
V13*12*11
p2620
tp2621
asg9
V2015-10-12 20:49:12
p2622
ssVajvanega
p2623
(dp2624
S'part3_correct_attempt'
p2625
(lp2626
S'0:09:55'
p2627
aV13!/(10!3!)
p2628
asS'part3_incorrect_attempt'
p2629
(lp2630
(S'0:06:29'
p2631
V4*13
p2632
tp2633
a(S'0:09:12'
p2634
V3^13
p2635
tp2636
asg9
V2015-10-14 18:20:44
p2637
ssVmtrafeca
p2638
(dp2639
S'part3_correct_attempt'
p2640
(lp2641
S'0:19:46'
p2642
aV13!/(11!*2!)
p2643
asS'part3_incorrect_attempt'
p2644
(lp2645
(S'0:07:54'
p2646
V52!/(13!*39!)
p2647
tp2648
a(S'0:08:16'
p2649
V13!/(5!*8!)
p2650
tp2651
a(S'0:12:03'
p2652
V13!/(4!*9!)
p2653
tp2654
a(S'0:16:08'
p2655
V9*8
p2656
tp2657
a(S'0:16:37'
p2658
V9!/(7!*2!)
p2659
tp2660
asg9
V2015-10-11 05:59:54
p2661
ssVkgrozav
p2662
(dp2663
S'part3_correct_attempt'
p2664
(lp2665
S'0:05:02'
p2666
aV13!/(2!*11!)
p2667
asS'part3_incorrect_attempt'
p2668
(lp2669
(S'0:02:05'
p2670
V13!/12!
p2671
tp2672
a(S'0:04:31'
p2673
V13!/(5!*8!)
p2674
tp2675
asg9
V2015-10-15 19:07:37
p2676
sssV2
p2677
(dp2678
Vkvass
p2679
(dp2680
S'part2_correct_attempt'
p2681
(lp2682
S'0:55:45'
p2683
aV4
p2684
asg9
V2015-10-14 05:13:51
p2685
sS'part2_incorrect_attempt'
p2686
(lp2687
(S'0:03:03'
p2688
VC(52,6)
p2689
tp2690
a(S'0:04:13'
p2691
VC(13,6)
p2692
tp2693
assVk5law
p2694
(dp2695
S'part2_correct_attempt'
p2696
(lp2697
S'0:01:47'
p2698
aV4
p2699
asg9
g2394
sS'part2_incorrect_attempt'
p2700
(lp2701
(S'0:01:16'
p2702
V13!/((13-3)!3!)
p2703
tp2704
a(S'0:01:29'
p2705
V52!/((52-13)!13!)
p2706
tp2707
assVkalang
p2708
(dp2709
S'part2_correct_attempt'
p2710
(lp2711
S'0:00:58'
p2712
aVC(4,1)
p2713
asg9
g2502
sS'part2_incorrect_attempt'
p2714
(lp2715
(S'0:00:00'
p2716
VC(4,2)
p2717
tp2718
assVjcl084
p2719
(dp2720
S'part2_correct_attempt'
p2721
(lp2722
S'0:02:07'
p2723
aV4
p2724
asg9
V2015-10-13 20:28:00
p2725
sS'part2_incorrect_attempt'
p2726
(lp2727
(S'0:00:30'
p2728
VC(52,4)
p2729
tp2730
a(S'0:00:36'
p2731
VC(13,4)
p2732
tp2733
a(S'0:00:57'
p2734
VC(52,13)
p2735
tp2736
assVnisharma
p2737
(dp2738
S'part2_correct_attempt'
p2739
(lp2740
S'0:03:00'
p2741
aV4
p2742
asg9
g2085
sS'part2_incorrect_attempt'
p2743
(lp2744
(S'0:02:02'
p2745
V4*(13!/5!*8!)
p2746
tp2747
a(S'0:02:29'
p2748
V4*(13!/(5!*8!))
p2749
tp2750
assVjag028
p2751
(dp2752
S'part2_correct_attempt'
p2753
(lp2754
S'16:07:32'
p2755
aV4
p2756
asg9
V2015-10-15 00:55:30
p2757
sS'part2_incorrect_attempt'
p2758
(lp2759
(S'0:03:35'
p2760
V4*C(13,6)
p2761
tp2762
a(S'0:03:45'
p2763
VC(13,6)
p2764
tp2765
a(S'0:03:51'
p2766
VC(13,4)
p2767
tp2768
a(S'0:03:58'
p2769
V6*C(13,4)
p2770
tp2771
assVakhmelni
p2772
(dp2773
S'part2_correct_attempt'
p2774
(lp2775
S'0:00:42'
p2776
aV4
p2777
asg9
V2015-10-15 22:48:11
p2778
sS'part2_incorrect_attempt'
p2779
(lp2780
(S'0:00:17'
p2781
VC(52,4)
p2782
tp2783
assVrbdoming
p2784
(dp2785
S'part2_correct_attempt'
p2786
(lp2787
S'0:01:23'
p2788
aV4
p2789
asg9
V2015-10-14 18:45:13
p2790
sS'part2_incorrect_attempt'
p2791
(lp2792
(S'0:00:00'
p2793
V5^4
p2794
tp2795
a(S'0:00:49'
p2796
V4^5
p2797
tp2798
assVmjethani
p2799
(dp2800
S'part2_correct_attempt'
p2801
(lp2802
S'2 days, 10:15:05'
p2803
aV4
p2804
asg9
V2015-10-13 06:07:03
p2805
sS'part2_incorrect_attempt'
p2806
(lp2807
(S'0:03:09'
p2808
V4!/(2!(2!))
p2809
tp2810
a(S'2 days, 9:27:57'
p2811
V(4!)/((2!)(2!))
p2812
tp2813
a(S'2 days, 9:28:42'
p2814
V7!/((2!)(5!))
p2815
tp2816
a(S'2 days, 9:56:54'
p2817
V((13!)/((2!)(11!)))
p2818
tp2819
a(S'2 days, 10:04:29'
p2820
V52!/((2!)(50!))
p2821
tp2822
a(S'2 days, 10:05:11'
p2823
V13!/((2!)(11!))
p2824
tp2825
assVkquong
p2826
(dp2827
S'part2_correct_attempt'
p2828
(lp2829
S'0:01:14'
p2830
aV4
p2831
asg9
V2015-10-11 04:52:02
p2832
sS'part2_incorrect_attempt'
p2833
(lp2834
(S'0:00:59'
p2835
V13!/(3!*(13-3)!)
p2836
tp2837
assVhkhodada
p2838
(dp2839
S'part2_correct_attempt'
p2840
(lp2841
S'1 day, 7:27:14'
p2842
aV4
p2843
asg9
V2015-10-10 18:51:37
p2844
sS'part2_incorrect_attempt'
p2845
(lp2846
(S'0:00:00'
p2847
VC(13,5)
p2848
tp2849
a(S'0:02:06'
p2850
VP(13,5)
p2851
tp2852
a(S'0:05:51'
p2853
VC(13,8)
p2854
tp2855
a(S'0:06:06'
p2856
VP(13,8)
p2857
tp2858
a(S'0:06:50'
p2859
V4*C(13,5)
p2860
tp2861
a(S'0:07:00'
p2862
V4*C(13,8)
p2863
tp2864
a(S'0:13:38'
p2865
V(13!)/[8!*5!]
p2866
tp2867
a(S'1 day, 7:17:40'
p2868
VC(13,5)*C(39,1)*4
p2869
tp2870
a(S'1 day, 7:17:51'
p2871
VC(13,5)*C(39,1)
p2872
tp2873
a(S'1 day, 7:18:19'
p2874
VC(13,5)
p2875
tp2876
a(S'1 day, 7:18:39'
p2877
V4*C(13,5)
p2878
tp2879
a(S'1 day, 7:25:29'
p2880
VC(13,10)
p2881
tp2882
a(S'1 day, 7:25:48'
p2883
VC(13,8)
p2884
tp2885
a(S'1 day, 7:26:05'
p2886
V4*C(13,8)
p2887
tp2888
assVvasharma
p2889
(dp2890
S'part2_correct_attempt'
p2891
(lp2892
S'0:06:36'
p2893
aV4
p2894
asg9
V2015-10-10 05:56:00
p2895
sS'part2_incorrect_attempt'
p2896
(lp2897
(S'0:03:40'
p2898
V52!/[5!(52-5)!]
p2899
tp2900
assVacvuong
p2901
(dp2902
S'part2_correct_attempt'
p2903
(lp2904
S'0:03:22'
p2905
aV4
p2906
asg9
V2015-10-13 04:39:39
p2907
sS'part2_incorrect_attempt'
p2908
(lp2909
(S'0:00:00'
p2910
VC(4,2)
p2911
tp2912
assVabasu
p2913
(dp2914
S'part2_correct_attempt'
p2915
(lp2916
S'0:15:50'
p2917
aVC(4,1)
p2918
asg9
V2015-10-11 02:17:05
p2919
sS'part2_incorrect_attempt'
p2920
(lp2921
(S'0:05:35'
p2922
VC(52,4)
p2923
tp2924
assVxweng
p2925
(dp2926
S'part2_correct_attempt'
p2927
(lp2928
S'-1 day, 21:02:38'
p2929
aV4
p2930
asg9
g2610
sS'part2_incorrect_attempt'
p2931
(lp2932
(S'-1 day, 20:51:12'
p2933
V25*52*51/3
p2934
tp2935
a(S'-1 day, 20:51:30'
p2936
V100*52*51/3
p2937
tp2938
a(S'-1 day, 20:54:23'
p2939
V13*12*11
p2940
tp2941
a(S'-1 day, 20:54:47'
p2942
V13*12*11*4
p2943
tp2944
a(S'-1 day, 20:55:43'
p2945
V4*52*51*50/3!
p2946
tp2947
a(S'-1 day, 20:58:19'
p2948
V52*12*11
p2949
tp2950
assVmitopete
p2951
(dp2952
S'part2_correct_attempt'
p2953
(lp2954
S'0:01:10'
p2955
aV4
p2956
asg9
g1526
sS'part2_incorrect_attempt'
p2957
(lp2958
(S'0:00:13'
p2959
V4!
p2960
tp2961
a(S'0:00:39'
p2962
V13^4
p2963
tp2964
a(S'0:00:49'
p2965
V4^13
p2966
tp2967
assVytc012
p2968
(dp2969
S'part2_correct_attempt'
p2970
(lp2971
S'0:11:42'
p2972
aV4!/3!1!
p2973
asg9
g1862
sS'part2_incorrect_attempt'
p2974
(lp2975
(S'0:00:29'
p2976
V7!/(4!3!)
p2977
tp2978
a(S'0:00:57'
p2979
V7*6*5*4
p2980
tp2981
a(S'0:01:29'
p2982
V4^4
p2983
tp2984
a(S'0:01:35'
p2985
V4^7
p2986
tp2987
assVtcuddy
p2988
(dp2989
S'part2_correct_attempt'
p2990
(lp2991
S'0:00:35'
p2992
aV4
p2993
asg9
g1436
sS'part2_incorrect_attempt'
p2994
(lp2995
(S'0:00:19'
p2996
V4^3
p2997
tp2998
assVsayao
p2999
(dp3000
S'part2_correct_attempt'
p3001
(lp3002
S'0:01:31'
p3003
aV4
p3004
asg9
V2015-10-12 00:47:11
p3005
sS'part2_incorrect_attempt'
p3006
(lp3007
(S'0:00:58'
p3008
V13!/2!
p3009
tp3010
a(S'0:01:14'
p3011
V13!/(2!*11!)
p3012
tp3013
assVs6deng
p3014
(dp3015
S'part2_correct_attempt'
p3016
(lp3017
S'0:05:11'
p3018
aV4
p3019
asg9
V2015-10-14 03:02:56
p3020
sS'part2_incorrect_attempt'
p3021
(lp3022
(S'0:02:27'
p3023
VC(52,3)
p3024
tp3025
a(S'0:02:34'
p3026
VP(52,3)
p3027
tp3028
a(S'0:04:12'
p3029
VC(13,5)
p3030
tp3031
a(S'0:04:53'
p3032
VC(13,4)
p3033
tp3034
assVt2li
p3035
(dp3036
S'part2_correct_attempt'
p3037
(lp3038
S'0:04:11'
p3039
aV4
p3040
asg9
V2015-10-14 06:36:49
p3041
sS'part2_incorrect_attempt'
p3042
(lp3043
(S'0:01:41'
p3044
VC(4,2)*52*C(51,5)
p3045
tp3046
a(S'0:01:58'
p3047
VC(4,2)*52*51*C(50,5)
p3048
tp3049
a(S'0:03:01'
p3050
V4*C(13,2)C(39,5)
p3051
tp3052
a(S'0:03:51'
p3053
VC(13,2)
p3054
tp3055
a(S'0:03:56'
p3056
V4C(13,2)
p3057
tp3058
asssV5
p3059
(dp3060
Vdlgoldbe
p3061
(dp3062
S'part5_correct_attempt'
p3063
(lp3064
S'1 day, 23:14:43'
p3065
aV39!/(3!*36!)
p3066
asS'part5_incorrect_attempt'
p3067
(lp3068
(S'0:07:38'
p3069
V(48!)/((3!)*(48-3)!)
p3070
tp3071
asg9
g2292
ssVjfalcone
p3072
(dp3073
S'part5_correct_attempt'
p3074
(lp3075
S'0:22:00'
p3076
aV39!/(4!35!)
p3077
asS'part5_incorrect_attempt'
p3078
(lp3079
(S'0:12:20'
p3080
V26!(4!22!)
p3081
tp3082
a(S'0:13:25'
p3083
V39!(4!35!)
p3084
tp3085
asg9
g2307
ssVacvuong
p3086
(dp3087
S'part5_correct_attempt'
p3088
(lp3089
S'0:03:22'
p3090
aVC(39,2)
p3091
asS'part5_incorrect_attempt'
p3092
(lp3093
(S'0:00:00'
p3094
VC(26,2)
p3095
tp3096
asg9
g2907
ssVjjm019
p3097
(dp3098
S'part5_correct_attempt'
p3099
(lp3100
S'0:06:53'
p3101
aV82251
p3102
asS'part5_incorrect_attempt'
p3103
(lp3104
(S'0:05:05'
p3105
V4(715)
p3106
tp3107
asg9
V2015-10-15 23:24:43
p3108
ssVdcrume
p3109
(dp3110
S'part5_incorrect_attempt'
p3111
(lp3112
(S'1 day, 2:53:43'
p3113
VC(26,2)
p3114
tp3115
asg9
V2015-10-14 20:25:03
p3116
ssVt2li
p3117
(dp3118
S'part5_correct_attempt'
p3119
(lp3120
S'0:05:03'
p3121
aVC(39,5)
p3122
asS'part5_incorrect_attempt'
p3123
(lp3124
(S'0:03:37'
p3125
V4C(13,2)C(39,5)
p3126
tp3127
asg9
g3041
ssVjdeon
p3128
(dp3129
S'part5_correct_attempt'
p3130
(lp3131
S'0:05:01'
p3132
aVC(39,2)
p3133
asS'part5_incorrect_attempt'
p3134
(lp3135
(S'0:00:47'
p3136
VC(50,2)
p3137
tp3138
a(S'0:01:44'
p3139
VC(26,2)
p3140
tp3141
asg9
V2015-10-11 19:36:17
p3142
ssVdan029
p3143
(dp3144
S'part5_correct_attempt'
p3145
(lp3146
S'0:00:00'
p3147
aVC(39,4)
p3148
asS'part5_incorrect_attempt'
p3149
(lp3150
(S'-1 day, 23:58:02'
p3151
V39*38*37*36
p3152
tp3153
asg9
g1358
ssVgsrandha
p3154
(dp3155
S'part5_incorrect_attempt'
p3156
(lp3157
(S'0:07:41'
p3158
V125*20
p3159
tp3160
asg9
g2436
ssVr1gu
p3161
(dp3162
S'part5_correct_attempt'
p3163
(lp3164
S'10:07:22'
p3165
aV39!/(3!36!)
p3166
asS'part5_incorrect_attempt'
p3167
(lp3168
(S'10:06:34'
p3169
V26!/(3!/23!)
p3170
tp3171
asg9
g1721
ssVdcgriffi
p3172
(dp3173
S'part5_correct_attempt'
p3174
(lp3175
S'0:00:00'
p3176
aV39!/(3!*36!)
p3177
asS'part5_incorrect_attempt'
p3178
(lp3179
(S'-1 day, 23:57:41'
p3180
V39*38*37
p3181
tp3182
asg9
g2448
ssVmnrahman
p3183
(dp3184
S'part5_correct_attempt'
p3185
(lp3186
S'0:03:35'
p3187
aVC(39,5-4)
p3188
asS'part5_incorrect_attempt'
p3189
(lp3190
(S'0:02:20'
p3191
V4C(13,4)C(39,5-4)
p3192
tp3193
asg9
V2015-10-15 20:01:08
p3194
ssVs6deng
p3195
(dp3196
S'part5_correct_attempt'
p3197
(lp3198
S'0:22:46'
p3199
aVC(39,1)
p3200
asS'part5_incorrect_attempt'
p3201
(lp3202
(S'0:18:59'
p3203
VC(40,3)
p3204
tp3205
asg9
g3020
ssValhung
p3206
(dp3207
S'part5_correct_attempt'
p3208
(lp3209
S'0:01:34'
p3210
aVC(39,2)
p3211
asS'part5_incorrect_attempt'
p3212
(lp3213
(S'0:00:00'
p3214
VC(50,2)
p3215
tp3216
asg9
V2015-10-15 19:54:37
p3217
ssVrraiyyan
p3218
(dp3219
S'part5_correct_attempt'
p3220
(lp3221
S'0:08:56'
p3222
aV39
p3223
asS'part5_incorrect_attempt'
p3224
(lp3225
(S'0:01:49'
p3226
V(13-6)*3
p3227
tp3228
a(S'0:04:19'
p3229
VC(52,7)-C(13,6)*4
p3230
tp3231
a(S'0:05:21'
p3232
V3*48/4
p3233
tp3234
asg9
V2015-10-14 23:50:33
p3235
ssVkew017
p3236
(dp3237
S'part5_correct_attempt'
p3238
(lp3239
S'0:09:13'
p3240
aV39!/(36!3!)
p3241
asS'part5_incorrect_attempt'
p3242
(lp3243
(S'0:00:00'
p3244
V48!/(45!3!)
p3245
tp3246
asg9
V2015-10-15 18:01:46
p3247
ssVdsmonaha
p3248
(dp3249
S'part5_correct_attempt'
p3250
(lp3251
S'0:16:47'
p3252
aVC(39,1)
p3253
asS'part5_incorrect_attempt'
p3254
(lp3255
(S'0:08:27'
p3256
VC(12,1)*4
p3257
tp3258
asg9
g1811
ssVtcuddy
p3259
(dp3260
S'part5_correct_attempt'
p3261
(lp3262
S'0:02:59'
p3263
aV39!/(2!*37!)
p3264
asS'part5_incorrect_attempt'
p3265
(lp3266
(S'0:02:35'
p3267
V26!/(2!*24!)
p3268
tp3269
a(S'0:02:46'
p3270
V39!/(2!*24!)
p3271
tp3272
asg9
g1436
ssVdjk006
p3273
(dp3274
S'part5_correct_attempt'
p3275
(lp3276
S'0:01:01'
p3277
aV39!/(6(36!))
p3278
asS'part5_incorrect_attempt'
p3279
(lp3280
(S'-1 day, 23:56:52'
p3281
V39*38*37
p3282
tp3283
asg9
g1481
ssVm4bui
p3284
(dp3285
S'part5_correct_attempt'
p3286
(lp3287
S'0:06:53'
p3288
aVC(39,4)
p3289
asS'part5_incorrect_attempt'
p3290
(lp3291
(S'0:06:26'
p3292
V39*38*37*36
p3293
tp3294
asg9
V2015-10-15 22:21:07
p3295
ssVmuy002
p3296
(dp3297
S'part5_correct_attempt'
p3298
(lp3299
S'0:02:03'
p3300
aV39!/(2!37!)
p3301
asS'part5_incorrect_attempt'
p3302
(lp3303
(S'0:00:00'
p3304
V26!(2!24!)
p3305
tp3306
asg9
g1886
ssVflhernan
p3307
(dp3308
S'part5_correct_attempt'
p3309
(lp3310
S'0:04:44'
p3311
aVC(52-13,2)
p3312
asS'part5_incorrect_attempt'
p3313
(lp3314
(S'0:04:07'
p3315
V49*48
p3316
tp3317
asg9
V2015-10-14 19:10:22
p3318
ssVlahawkin
p3319
(dp3320
S'part5_correct_attempt'
p3321
(lp3322
S'0:02:12'
p3323
aV39!/((39-3)!3!)
p3324
asS'part5_incorrect_attempt'
p3325
(lp3326
(S'0:02:05'
p3327
V39!((39-3)!3!)
p3328
tp3329
asg9
g2547
ssVqfu
p3330
(dp3331
S'part5_correct_attempt'
p3332
(lp3333
S'0:04:34'
p3334
aV13*3
p3335
asS'part5_incorrect_attempt'
p3336
(lp3337
(S'0:01:26'
p3338
V9*3
p3339
tp3340
asg9
g1939
ssVstarinia
p3341
(dp3342
S'part5_correct_attempt'
p3343
(lp3344
S'2:07:00'
p3345
aVC(39,2)
p3346
asS'part5_incorrect_attempt'
p3347
(lp3348
(S'-1 day, 23:48:19'
p3349
V39!/2!
p3350
tp3351
a(S'0:00:00'
p3352
V49!/(2!47!)
p3353
tp3354
a(S'0:17:11'
p3355
V49!/(47!)
p3356
tp3357
asg9
g1544
ssVvasharma
p3358
(dp3359
S'part5_correct_attempt'
p3360
(lp3361
S'0:58:10'
p3362
aV39!/[2!(39-2)!]
p3363
asS'part5_incorrect_attempt'
p3364
(lp3365
(S'0:30:56'
p3366
V13!/[2!(13-2)!]
p3367
tp3368
a(S'0:56:06'
p3369
V13!/[2!(13-2)!]
p3370
tp3371
asg9
g2895
ssVhsc052
p3372
(dp3373
S'part5_correct_attempt'
p3374
(lp3375
S'0:04:48'
p3376
aVC(39,3)
p3377
asS'part5_incorrect_attempt'
p3378
(lp3379
(S'0:02:15'
p3380
VC(13,3)
p3381
tp3382
asg9
V2015-10-15 05:37:46
p3383
ssVyos017
p3384
(dp3385
S'part5_correct_attempt'
p3386
(lp3387
S'0:10:31'
p3388
aV39!/(2!*37!)
p3389
asS'part5_incorrect_attempt'
p3390
(lp3391
(S'0:06:18'
p3392
V26!/(2!*24!)
p3393
tp3394
a(S'0:07:05'
p3395
V26*25
p3396
tp3397
a(S'0:09:08'
p3398
V26!/(2!*24!)
p3399
tp3400
asg9
V2015-10-14 06:44:14
p3401
ssVcagatep
p3402
(dp3403
S'part5_correct_attempt'
p3404
(lp3405
S'0:01:16'
p3406
aVC(39,3)
p3407
asS'part5_incorrect_attempt'
p3408
(lp3409
(S'-1 day, 23:58:12'
p3410
V50*49*48
p3411
tp3412
asg9
V2015-10-14 04:59:38
p3413
ssVjhp077
p3414
(dp3415
S'part5_correct_attempt'
p3416
(lp3417
S'0:08:54'
p3418
aV13*19*37
p3419
asS'part5_incorrect_attempt'
p3420
(lp3421
(S'0:00:00'
p3422
V48*44*40
p3423
tp3424
asg9
V2015-10-15 05:54:15
p3425
sssV4
p3426
(dp3427
Vdlgoldbe
p3428
(dp3429
S'part4_correct_attempt'
p3430
(lp3431
S'1 day, 23:14:11'
p3432
aV13*3
p3433
asS'part4_incorrect_attempt'
p3434
(lp3435
(S'0:08:50'
p3436
V12*3
p3437
tp3438
asg9
g2292
ssVjfalcone
p3439
(dp3440
S'part4_correct_attempt'
p3441
(lp3442
S'0:13:25'
p3443
aV39
p3444
asS'part4_incorrect_attempt'
p3445
(lp3446
(S'0:10:20'
p3447
V2*13
p3448
tp3449
asg9
g2307
ssVdis003
p3450
(dp3451
S'part4_correct_attempt'
p3452
(lp3453
S'0:04:32'
p3454
aV13*3
p3455
asS'part4_incorrect_attempt'
p3456
(lp3457
(S'0:00:41'
p3458
V52/2
p3459
tp3460
a(S'0:00:56'
p3461
V52/2 *5
p3462
tp3463
a(S'0:01:29'
p3464
V52-52/2
p3465
tp3466
a(S'0:04:21'
p3467
VC(13*3,2)
p3468
tp3469
asg9
g1757
ssVkbielawi
p3470
(dp3471
S'part4_correct_attempt'
p3472
(lp3473
S'3:05:23'
p3474
aV52-13
p3475
asS'part4_incorrect_attempt'
p3476
(lp3477
(S'0:01:18'
p3478
V4*13
p3479
tp3480
asg9
g1289
ssVdcastlem
p3481
(dp3482
S'part4_correct_attempt'
p3483
(lp3484
S'0:07:10'
p3485
aV39
p3486
asS'part4_incorrect_attempt'
p3487
(lp3488
(S'0:05:48'
p3489
V39!/((4!)(35!))
p3490
tp3491
asg9
V2015-10-15 03:21:40
p3492
ssValakamsa
p3493
(dp3494
S'part4_correct_attempt'
p3495
(lp3496
S'0:02:01'
p3497
aV52-13
p3498
asS'part4_incorrect_attempt'
p3499
(lp3500
(S'0:00:00'
p3501
V25-13
p3502
tp3503
asg9
V2015-10-10 20:39:47
p3504
ssVany027
p3505
(dp3506
S'part4_correct_attempt'
p3507
(lp3508
S'0:06:54'
p3509
aV39
p3510
asS'part4_incorrect_attempt'
p3511
(lp3512
(S'0:06:13'
p3513
V13^3
p3514
tp3515
asg9
g2361
ssVjjm019
p3516
(dp3517
S'part4_correct_attempt'
p3518
(lp3519
S'0:06:20'
p3520
aV52-13
p3521
asS'part4_incorrect_attempt'
p3522
(lp3523
(S'0:04:52'
p3524
V4(715)
p3525
tp3526
asg9
g3108
ssVdcrume
p3527
(dp3528
S'part4_incorrect_attempt'
p3529
(lp3530
(S'1 day, 2:53:43'
p3531
V13*2
p3532
tp3533
asg9
g3116
ssVt2li
p3534
(dp3535
S'part4_correct_attempt'
p3536
(lp3537
S'0:05:03'
p3538
aV39
p3539
asS'part4_incorrect_attempt'
p3540
(lp3541
(S'0:03:37'
p3542
V4C(13,2)C(39,5)
p3543
tp3544
asg9
g3041
ssVjag028
p3545
(dp3546
S'part4_correct_attempt'
p3547
(lp3548
S'16:12:44'
p3549
aV52-13
p3550
asS'part4_incorrect_attempt'
p3551
(lp3552
(S'16:09:44'
p3553
VC(13,2)
p3554
tp3555
a(S'16:09:54'
p3556
VC(13,3)
p3557
tp3558
a(S'16:10:18'
p3559
VC(52,2)
p3560
tp3561
a(S'16:11:11'
p3562
V1326-715
p3563
tp3564
asg9
g2757
ssVj5phung
p3565
(dp3566
S'part4_correct_attempt'
p3567
(lp3568
S'0:03:46'
p3569
aV39
p3570
asS'part4_incorrect_attempt'
p3571
(lp3572
(S'0:02:33'
p3573
V52-6
p3574
tp3575
asg9
V2015-10-09 18:34:23
p3576
ssVjmiclat
p3577
(dp3578
S'part4_correct_attempt'
p3579
(lp3580
S'0:09:21'
p3581
aV13*3
p3582
asS'part4_incorrect_attempt'
p3583
(lp3584
(S'0:05:41'
p3585
V3(13*12)
p3586
tp3587
a(S'0:08:25'
p3588
V13*3*2
p3589
tp3590
asg9
V2015-10-15 17:18:52
p3591
ssVgsrandha
p3592
(dp3593
S'part4_incorrect_attempt'
p3594
(lp3595
(S'0:07:41'
p3596
V125*20
p3597
tp3598
a(S'23:28:40'
p3599
VC(52,3)
p3600
tp3601
asg9
g2436
ssVhaw081
p3602
(dp3603
S'part4_correct_attempt'
p3604
(lp3605
S'0:06:24'
p3606
aV52-13
p3607
asS'part4_incorrect_attempt'
p3608
(lp3609
(S'0:00:00'
p3610
V52-6
p3611
tp3612
a(S'0:04:08'
p3613
V52-6-3
p3614
tp3615
a(S'0:04:20'
p3616
V52-6-4
p3617
tp3618
asg9
g1373
ssVmnrahman
p3619
(dp3620
S'part4_correct_attempt'
p3621
(lp3622
S'0:03:26'
p3623
aV39
p3624
asS'part4_incorrect_attempt'
p3625
(lp3626
(S'0:02:20'
p3627
VC(39,6-4)
p3628
tp3629
asg9
g3194
ssVlalacson
p3630
(dp3631
S'part4_correct_attempt'
p3632
(lp3633
S'0:07:33'
p3634
aV52-13
p3635
asS'part4_incorrect_attempt'
p3636
(lp3637
(S'0:00:00'
p3638
V52-14
p3639
tp3640
a(S'0:01:12'
p3641
V52-12
p3642
tp3643
asg9
V2015-10-11 22:18:21
p3644
ssVielouaae
p3645
(dp3646
S'part4_correct_attempt'
p3647
(lp3648
S'0:23:45'
p3649
aV39
p3650
asS'part4_incorrect_attempt'
p3651
(lp3652
(S'0:23:21'
p3653
V39!/(37!2!)
p3654
tp3655
asg9
g2187
ssVtol003
p3656
(dp3657
S'part4_correct_attempt'
p3658
(lp3659
S'0:14:11'
p3660
aV39
p3661
asS'part4_incorrect_attempt'
p3662
(lp3663
(S'0:06:02'
p3664
VC(52,3)
p3665
tp3666
a(S'0:08:25'
p3667
VC(13,3)
p3668
tp3669
a(S'0:09:08'
p3670
VC(52,1)
p3671
tp3672
a(S'0:13:13'
p3673
VC(39,3)
p3674
tp3675
asg9
V2015-10-14 00:23:54
p3676
ssVmsaguiar
p3677
(dp3678
S'part4_correct_attempt'
p3679
(lp3680
S'1 day, 22:48:19'
p3681
aV39
p3682
asS'part4_incorrect_attempt'
p3683
(lp3684
(S'1 day, 22:39:18'
p3685
VC(49,2)
p3686
tp3687
a(S'1 day, 22:47:55'
p3688
VC(39,2)
p3689
tp3690
asg9
V2015-10-12 04:07:32
p3691
ssVrraiyyan
p3692
(dp3693
S'part4_correct_attempt'
p3694
(lp3695
S'0:08:56'
p3696
aV39
p3697
asS'part4_incorrect_attempt'
p3698
(lp3699
(S'0:01:49'
p3700
V(13-6)*3
p3701
tp3702
a(S'0:05:21'
p3703
V3*48/4
p3704
tp3705
asg9
g3235
ssVjhw015
p3706
(dp3707
S'part4_correct_attempt'
p3708
(lp3709
S'1:43:48'
p3710
aV39
p3711
asS'part4_incorrect_attempt'
p3712
(lp3713
(S'1:14:35'
p3714
VC(13,2)
p3715
tp3716
a(S'1:15:00'
p3717
VC(11,2)
p3718
tp3719
a(S'1:16:56'
p3720
VC(13,4)
p3721
tp3722
a(S'1:17:25'
p3723
VC(4,2)
p3724
tp3725
a(S'1:43:15'
p3726
VC(39,2)
p3727
tp3728
asg9
g1787
ssVl8ngo
p3729
(dp3730
S'part4_correct_attempt'
p3731
(lp3732
S'3:57:51'
p3733
aV39
p3734
asS'part4_incorrect_attempt'
p3735
(lp3736
(S'-1 day, 23:56:37'
p3737
V[13!/[2!11!] ] * 3 * 3
p3738
tp3739
a(S'1:05:04'
p3740
V[3^2]*[13!/[2!11!]]
p3741
tp3742
a(S'1:05:16'
p3743
V[3^2]
p3744
tp3745
a(S'1:09:00'
p3746
V[52!/[2!50!]]-13
p3747
tp3748
a(S'1:14:14'
p3749
V13!/[2!11!]*9
p3750
tp3751
asg9
g1454
ssVeaherman
p3752
(dp3753
S'part4_correct_attempt'
p3754
(lp3755
S'0:02:18'
p3756
aV52-13
p3757
asS'part4_incorrect_attempt'
p3758
(lp3759
(S'0:01:14'
p3760
V52-3
p3761
tp3762
asg9
V2015-10-14 02:46:39
p3763
ssVedescobe
p3764
(dp3765
S'part4_correct_attempt'
p3766
(lp3767
S'0:02:20'
p3768
aV3*13
p3769
asS'part4_incorrect_attempt'
p3770
(lp3771
(S'0:00:00'
p3772
V9*13
p3773
tp3774
a(S'0:00:35'
p3775
V9*12
p3776
tp3777
asg9
g1874
ssVeyhu
p3778
(dp3779
S'part4_correct_attempt'
p3780
(lp3781
S'0:01:26'
p3782
aV3*(52/4)
p3783
asS'part4_incorrect_attempt'
p3784
(lp3785
(S'0:00:00'
p3786
V52/2
p3787
tp3788
asg9
V2015-10-09 02:59:03
p3789
ssVsmohiman
p3790
(dp3791
S'part4_correct_attempt'
p3792
(lp3793
S'0:05:46'
p3794
aV39
p3795
asS'part4_incorrect_attempt'
p3796
(lp3797
(S'0:00:00'
p3798
VC(4,3)
p3799
tp3800
asg9
V2015-10-11 22:03:15
p3801
ssVqfu
p3802
(dp3803
S'part4_correct_attempt'
p3804
(lp3805
S'0:04:34'
p3806
aV13*3
p3807
asS'part4_incorrect_attempt'
p3808
(lp3809
(S'0:01:26'
p3810
V9*3
p3811
tp3812
asg9
g1939
ssVvasharma
p3813
(dp3814
S'part4_correct_attempt'
p3815
(lp3816
S'0:57:46'
p3817
aV39
p3818
asS'part4_incorrect_attempt'
p3819
(lp3820
(S'0:38:43'
p3821
V13!/[2!(13-2)!]
p3822
tp3823
a(S'0:42:17'
p3824
V45!/[2!(45-2!)]
p3825
tp3826
a(S'0:42:22'
p3827
V45!/[2!(45-2)!]
p3828
tp3829
a(S'0:44:12'
p3830
V47!
p3831
tp3832
a(S'0:44:30'
p3833
V47!/(2![47-2]!)
p3834
tp3835
a(S'0:55:42'
p3836
V13!/[2!(13-2)!]
p3837
tp3838
a(S'0:56:52'
p3839
V47*48
p3840
tp3841
a(S'0:57:06'
p3842
V47*46
p3843
tp3844
a(S'0:57:41'
p3845
V39*38
p3846
tp3847
asg9
g2895
ssVsthapa
p3848
(dp3849
S'part4_correct_attempt'
p3850
(lp3851
S'0:05:48'
p3852
aV13*3
p3853
asS'part4_incorrect_attempt'
p3854
(lp3855
(S'0:05:33'
p3856
V13*6
p3857
tp3858
a(S'0:05:42'
p3859
V13*2
p3860
tp3861
asg9
V2015-10-15 16:05:06
p3862
ssVmjethani
p3863
(dp3864
S'part4_correct_attempt'
p3865
(lp3866
S'2 days, 10:38:26'
p3867
aV39
p3868
asS'part4_incorrect_attempt'
p3869
(lp3870
(S'2 days, 10:16:38'
p3871
V5!/((3!)(2!))
p3872
tp3873
asg9
g2805
ssVkgrozav
p3874
(dp3875
S'part4_correct_attempt'
p3876
(lp3877
S'0:09:12'
p3878
aV13*3
p3879
asS'part4_incorrect_attempt'
p3880
(lp3881
(S'0:06:17'
p3882
V4!/3!
p3883
tp3884
a(S'0:08:02'
p3885
VC(13,3)*C(4,3)
p3886
tp3887
asg9
g2676
ssVwhcombs
p3888
(dp3889
S'part4_correct_attempt'
p3890
(lp3891
S'0:26:06'
p3892
aV13*3
p3893
asS'part4_incorrect_attempt'
p3894
(lp3895
(S'0:16:19'
p3896
VC(3,1)
p3897
tp3898
a(S'0:16:27'
p3899
VC(4,1)
p3900
tp3901
a(S'0:18:18'
p3902
V52-6
p3903
tp3904
asg9
V2015-10-13 03:41:51
p3905
sssV7
p3906
(dp3907
Vk5law
p3908
(dp3909
S'part5_correct_attempt'
p3910
(lp3911
S'0:07:29'
p3912
aV39!/(37!2!)
p3913
asS'part7_correct_attempt'
p3914
(lp3915
S'2:02:52'
p3916
aV[4*(13!/(10!3!))*(39!/(37!2!))]/[52!/((52-5)!5!)]
p3917
asS'part2_correct_attempt'
p3918
(lp3919
S'0:01:47'
p3920
ag2699
asS'part6_correct_attempt'
p3921
(lp3922
S'2:01:46'
p3923
aV4*(13!/(10!3!))*(39!/(37!2!))
p3924
asS'part4_correct_attempt'
p3925
(lp3926
S'0:07:03'
p3927
aV52-13
p3928
asS'part3_correct_attempt'
p3929
(lp3930
S'2:00:06'
p3931
ag2379
asS'part1_correct_attempt'
p3932
(lp3933
S'0:00:00'
p3934
aV52!/((52-5)!5!)
p3935
asg9
g2394
sS'part7_incorrect_attempt'
p3936
(lp3937
(S'2:02:13'
p3938
V[4*(13!/(10!3!))*(39!/(37!2!))]/52!/((52-5)!5!)
p3939
tp3940
assVjtfrankl
p3941
(dp3942
S'part5_correct_attempt'
p3943
(lp3944
S'0:00:00'
p3945
aVC(39,2)
p3946
asS'part7_correct_attempt'
p3947
(lp3948
S'0:05:59'
p3949
aV(4*C(39,2)*C(13,2))/(52!/(48!4!))
p3950
asS'part2_correct_attempt'
p3951
(lp3952
S'0:00:00'
p3953
aV4
p3954
asS'part6_correct_attempt'
p3955
(lp3956
S'0:04:38'
p3957
aV4*C(39,2)*C(13,2)
p3958
asS'part4_correct_attempt'
p3959
(lp3960
S'0:00:00'
p3961
aV39
p3962
asS'part3_correct_attempt'
p3963
(lp3964
S'0:03:13'
p3965
aVC(13,2)
p3966
asS'part1_correct_attempt'
p3967
(lp3968
S'0:00:00'
p3969
ag489
asg9
V2015-10-15 21:03:16
p3970
sS'part7_incorrect_attempt'
p3971
(lp3972
(S'0:05:01'
p3973
V(C(13,2))/(C(13,2))
p3974
tp3975
assVq3wen
p3976
(dp3977
S'part5_correct_attempt'
p3978
(lp3979
S'0:10:55'
p3980
aV39
p3981
asS'part7_correct_attempt'
p3982
(lp3983
S'0:18:19'
p3984
aV44616/270725
p3985
asS'part2_correct_attempt'
p3986
(lp3987
S'0:02:33'
p3988
aV4
p3989
asS'part6_correct_attempt'
p3990
(lp3991
S'0:17:55'
p3992
aV44616
p3993
asS'part4_correct_attempt'
p3994
(lp3995
S'0:06:07'
p3996
aV39
p3997
asS'part3_correct_attempt'
p3998
(lp3999
S'0:10:55'
p4000
aV286
p4001
asS'part1_correct_attempt'
p4002
(lp4003
S'0:00:00'
p4004
aV270725
p4005
asg9
V2015-10-14 04:28:06
p4006
sS'part7_incorrect_attempt'
p4007
(lp4008
(S'0:17:55'
p4009
V1/44616
p4010
tp4011
assVabjara
p4012
(dp4013
S'part5_correct_attempt'
p4014
(lp4015
S'0:00:00'
p4016
aV39!/(2!*37!)
p4017
asS'part7_correct_attempt'
p4018
(lp4019
S'2 days, 11:52:14'
p4020
aV[4*[13!/(11!*2!)] * [39!/(37!*2!)]]/[52!/(4!*48!)]
p4021
asS'part2_correct_attempt'
p4022
(lp4023
S'0:00:00'
p4024
aV4
p4025
asS'part6_correct_attempt'
p4026
(lp4027
S'2 days, 11:50:01'
p4028
aV4*[13!/(11!*2!)] * [39!/(37!*2!)]
p4029
asS'part4_correct_attempt'
p4030
(lp4031
S'0:00:00'
p4032
aV39
p4033
asS'part3_correct_attempt'
p4034
(lp4035
S'0:13:30'
p4036
ag1664
asS'part1_correct_attempt'
p4037
(lp4038
S'0:00:00'
p4039
aV52!/(4!*48!)
p4040
asg9
g1670
sS'part7_incorrect_attempt'
p4041
(lp4042
(S'2 days, 11:51:10'
p4043
V[4*[13!/(11!*2!)] * [39!/(37!*2!)]]/52!/(4!*48!)
p4044
tp4045
a(S'2 days, 11:51:45'
p4046
V52!/(4!*48!)/[4*[13!/(11!*2!)] * [39!/(37!*2!)]]
p4047
tp4048
assVa2ahmed
p4049
(dp4050
S'part5_correct_attempt'
p4051
(lp4052
S'0:00:00'
p4053
aV39
p4054
asS'part7_correct_attempt'
p4055
(lp4056
S'0:09:53'
p4057
aV(C(13,5)*4*39)/C(52,6)
p4058
asS'part2_correct_attempt'
p4059
(lp4060
S'0:00:00'
p4061
aV4
p4062
asS'part6_correct_attempt'
p4063
(lp4064
S'0:08:46'
p4065
aVC(13,5)*4*39
p4066
asS'part4_correct_attempt'
p4067
(lp4068
S'0:00:00'
p4069
aV39
p4070
asS'part3_correct_attempt'
p4071
(lp4072
S'0:04:19'
p4073
ag1499
asS'part1_correct_attempt'
p4074
(lp4075
S'0:00:00'
p4076
aVC(52,6)
p4077
asg9
g1511
sS'part7_incorrect_attempt'
p4078
(lp4079
(S'0:09:12'
p4080
VC(52,6)/(C(13,5)*4*39)
p4081
tp4082
a(S'0:09:23'
p4083
VC(52,6)-(C(13,5)*4*39)
p4084
tp4085
assVstarinia
p4086
(dp4087
S'part5_correct_attempt'
p4088
(lp4089
S'2:07:00'
p4090
ag3346
asS'part7_correct_attempt'
p4091
(lp4092
S'2:33:14'
p4093
aV(4*C(13,2)*C(39,2))/(52!/(4!48!))
p4094
asS'part2_correct_attempt'
p4095
(lp4096
S'-1 day, 23:45:57'
p4097
aV4
p4098
asS'part6_correct_attempt'
p4099
(lp4100
S'2:32:48'
p4101
aV(4*C(13,2)*C(39,2))
p4102
asS'part4_correct_attempt'
p4103
(lp4104
S'-1 day, 23:45:57'
p4105
aV52-13
p4106
asS'part3_correct_attempt'
p4107
(lp4108
S'2:07:22'
p4109
ag1532
asS'part1_correct_attempt'
p4110
(lp4111
S'0:00:00'
p4112
ag261
asg9
g1544
sS'part7_incorrect_attempt'
p4113
(lp4114
(S'2:33:02'
p4115
V(4*C(13,2)*C(39,2))/52!/(4!48!)
p4116
tp4117
assVgsrandha
p4118
(dp4119
S'part3_correct_attempt'
p4120
(lp4121
S'23:17:29'
p4122
ag2424
asS'part2_correct_attempt'
p4123
(lp4124
S'0:03:26'
p4125
aV4
p4126
asS'part1_correct_attempt'
p4127
(lp4128
S'0:00:00'
p4129
ag984
asg9
g2436
sS'part7_incorrect_attempt'
p4130
(lp4131
(S'23:27:41'
p4132
V12/51
p4133
tp4134
assVhaw081
p4135
(dp4136
S'part5_correct_attempt'
p4137
(lp4138
S'0:06:37'
p4139
aVC(39,1)
p4140
asS'part7_correct_attempt'
p4141
(lp4142
S'2 days, 1:13:42'
p4143
aVC(4,1)*C(13,6)*C(39,1)/C(52,7)
p4144
asS'part2_correct_attempt'
p4145
(lp4146
S'0:00:00'
p4147
aV4
p4148
asS'part6_correct_attempt'
p4149
(lp4150
S'2 days, 1:13:11'
p4151
aVC(4,1)*C(13,6)*C(39,1)
p4152
asS'part4_correct_attempt'
p4153
(lp4154
S'0:06:24'
p4155
ag3607
asS'part3_correct_attempt'
p4156
(lp4157
S'0:18:08'
p4158
ag1364
asS'part1_correct_attempt'
p4159
(lp4160
S'0:00:00'
p4161
aVC(52,7)
p4162
asg9
g1373
sS'part7_incorrect_attempt'
p4163
(lp4164
(S'2 days, 1:13:30'
p4165
VC(52,7)/C(52,7)
p4166
tp4167
assVdcastlem
p4168
(dp4169
S'part5_correct_attempt'
p4170
(lp4171
S'0:07:10'
p4172
aV39!/((4!)(35!))
p4173
asS'part7_correct_attempt'
p4174
(lp4175
S'0:10:40'
p4176
aV(4!/((1!)3!)*13!/((3!)(10!))*39!/((4!)(35!)))/(52!/((7!)(45!)))
p4177
asS'part2_correct_attempt'
p4178
(lp4179
S'0:02:19'
p4180
aV4!/((1!)3!)
p4181
asS'part6_correct_attempt'
p4182
(lp4183
S'0:08:43'
p4184
aV4!/((1!)3!)*13!/((3!)(10!))*39!/((4!)(35!))
p4185
asS'part4_correct_attempt'
p4186
(lp4187
S'0:07:10'
p4188
ag3486
asS'part3_correct_attempt'
p4189
(lp4190
S'0:03:17'
p4191
aV13!/((3!)(10!))
p4192
asS'part1_correct_attempt'
p4193
(lp4194
S'0:00:00'
p4195
aV52!/((7!)(45!))
p4196
asg9
g3492
sS'part7_incorrect_attempt'
p4197
(lp4198
(S'0:09:14'
p4199
V(4!/((1!)3!)*13!/((3!)(10!))*39!/((4!)(35!)))/52!/((7!)(45!))
p4200
tp4201
assVvasharma
p4202
(dp4203
S'part5_correct_attempt'
p4204
(lp4205
S'0:58:10'
p4206
ag3363
asS'part7_correct_attempt'
p4207
(lp4208
S'1:29:43'
p4209
aV[C(13,5)*C(4,1)*C(39,2)]/[52!/[7!(52-7)!]]
p4210
asS'part2_correct_attempt'
p4211
(lp4212
S'0:06:36'
p4213
ag2894
asS'part6_correct_attempt'
p4214
(lp4215
S'1:28:55'
p4216
aVC(13,5)*C(4,1)*C(39,2)
p4217
asS'part4_correct_attempt'
p4218
(lp4219
S'0:57:46'
p4220
ag3818
asS'part3_correct_attempt'
p4221
(lp4222
S'0:25:55'
p4223
aV13!/[5!(13-5)!]
p4224
asS'part1_correct_attempt'
p4225
(lp4226
S'0:00:00'
p4227
ag1146
asg9
g2895
sS'part7_incorrect_attempt'
p4228
(lp4229
(S'1:29:27'
p4230
V[C(13,5)*C(4,1)*C(39,2)]/52!/[7!(52-7)!]
p4231
tp4232
assVffhaddad
p4233
(dp4234
S'part5_correct_attempt'
p4235
(lp4236
S'0:02:13'
p4237
aV39
p4238
asS'part7_correct_attempt'
p4239
(lp4240
S'0:03:41'
p4241
aVC(4,1)C(13,3)39/C(52,4)
p4242
asS'part2_correct_attempt'
p4243
(lp4244
S'0:00:28'
p4245
aVC(4,1)
p4246
asS'part6_correct_attempt'
p4247
(lp4248
S'0:02:49'
p4249
aVC(4,1)C(13,3)39
p4250
asS'part4_correct_attempt'
p4251
(lp4252
S'0:01:56'
p4253
aV52-13
p4254
asS'part3_correct_attempt'
p4255
(lp4256
S'0:01:32'
p4257
ag1379
asS'part1_correct_attempt'
p4258
(lp4259
S'0:00:00'
p4260
aVC(52,4)
p4261
asg9
g1385
sS'part7_incorrect_attempt'
p4262
(lp4263
(S'0:03:08'
p4264
VC(52,4)
p4265
tp4266
assVhah008
p4267
(dp4268
S'part5_correct_attempt'
p4269
(lp4270
S'0:02:20'
p4271
aV39
p4272
asS'part7_correct_attempt'
p4273
(lp4274
S'0:08:30'
p4275
aV3432/20825
p4276
asS'part2_correct_attempt'
p4277
(lp4278
S'-1 day, 23:58:46'
p4279
aV4
p4280
asS'part6_correct_attempt'
p4281
(lp4282
S'0:05:15'
p4283
aV44616
p4284
asS'part4_correct_attempt'
p4285
(lp4286
S'0:02:12'
p4287
aV39
p4288
asS'part3_correct_attempt'
p4289
(lp4290
S'0:00:31'
p4291
aVC(13, 3)
p4292
asS'part1_correct_attempt'
p4293
(lp4294
S'0:00:00'
p4295
aVC(52, 4)
p4296
asg9
V2015-10-13 06:21:21
p4297
sS'part7_incorrect_attempt'
p4298
(lp4299
(S'0:06:58'
p4300
V858/425
p4301
tp4302
assVjeqin
p4303
(dp4304
S'part5_correct_attempt'
p4305
(lp4306
S'0:00:42'
p4307
aV39
p4308
asS'part7_correct_attempt'
p4309
(lp4310
S'0:04:20'
p4311
aV(4*13!/(5!8!)*39) / (52!/(6!46!))
p4312
asS'part2_correct_attempt'
p4313
(lp4314
S'0:00:42'
p4315
aV4
p4316
asS'part6_correct_attempt'
p4317
(lp4318
S'0:03:40'
p4319
aV4*13!/(5!8!)*39
p4320
asS'part4_correct_attempt'
p4321
(lp4322
S'0:00:42'
p4323
aV39
p4324
asS'part3_correct_attempt'
p4325
(lp4326
S'0:01:49'
p4327
aV13!/(5!8!)
p4328
asS'part1_correct_attempt'
p4329
(lp4330
S'0:00:00'
p4331
ag741
asg9
V2015-10-15 12:39:23
p4332
sS'part7_incorrect_attempt'
p4333
(lp4334
(S'0:03:58'
p4335
V4*13!/(5!8!)*39 / 52!/(6!46!)
p4336
tp4337
assVjnatale
p4338
(dp4339
S'part5_correct_attempt'
p4340
(lp4341
S'0:07:51'
p4342
aVC(39,2)
p4343
asS'part7_correct_attempt'
p4344
(lp4345
S'0:17:05'
p4346
aV(4*C(13,4)*C(39,2))/C(52,6)
p4347
asS'part2_correct_attempt'
p4348
(lp4349
S'0:01:30'
p4350
aV4
p4351
asS'part6_correct_attempt'
p4352
(lp4353
S'0:10:14'
p4354
aV4*C(13,4)*C(39,2)
p4355
asS'part4_correct_attempt'
p4356
(lp4357
S'0:07:51'
p4358
aV39
p4359
asS'part3_correct_attempt'
p4360
(lp4361
S'0:07:14'
p4362
ag2154
asS'part1_correct_attempt'
p4363
(lp4364
S'0:00:00'
p4365
ag756
asg9
g2160
sS'part7_incorrect_attempt'
p4366
(lp4367
(S'0:12:21'
p4368
V4*C(13,4)*C(39,2)/(7462)/14658134400
p4369
tp4370
a(S'0:12:36'
p4371
V(4*C(13,4)*C(39,2)/(7462))/14658134400
p4372
tp4373
a(S'0:15:31'
p4374
V(4*C(13,4)*C(39,2)/(7462))/(2598960)
p4375
tp4376
assVdjk006
p4377
(dp4378
S'part5_correct_attempt'
p4379
(lp4380
S'0:01:01'
p4381
ag3278
asS'part7_correct_attempt'
p4382
(lp4383
S'0:15:54'
p4384
aV(4*13*12*11/6*39!/(6(36!)))/(52!/(6!46!))
p4385
asS'part2_correct_attempt'
p4386
(lp4387
S'-1 day, 23:56:52'
p4388
aV4
p4389
asS'part6_correct_attempt'
p4390
(lp4391
S'0:15:30'
p4392
aV4*13*12*11/6*39!/(6(36!))
p4393
asS'part4_correct_attempt'
p4394
(lp4395
S'-1 day, 23:56:52'
p4396
aV39
p4397
asS'part3_correct_attempt'
p4398
(lp4399
S'0:14:35'
p4400
ag1460
asS'part1_correct_attempt'
p4401
(lp4402
S'0:00:00'
p4403
ag171
asg9
g1481
sS'part7_incorrect_attempt'
p4404
(lp4405
(S'0:15:30'
p4406
V(4*13*12*11/6*39!/(6(36!)))/52!/(6!46!)
p4407
tp4408
assVkrau
p4409
(dp4410
S'part5_correct_attempt'
p4411
(lp4412
S'0:01:31'
p4413
aV39!/38!/1!
p4414
asS'part7_correct_attempt'
p4415
(lp4416
S'0:07:43'
p4417
aV(4 * (13!/10!/3!) * (39!/38!/1!)) / (52!/4!/48!)
p4418
asS'part2_correct_attempt'
p4419
(lp4420
S'-1 day, 23:59:48'
p4421
aV4
p4422
asS'part6_correct_attempt'
p4423
(lp4424
S'0:06:02'
p4425
aV4 * (13!/10!/3!) * (39!/38!/1!)
p4426
asS'part4_correct_attempt'
p4427
(lp4428
S'0:01:10'
p4429
aV39
p4430
asS'part3_correct_attempt'
p4431
(lp4432
S'0:02:28'
p4433
aV13!/10!/3!
p4434
asS'part1_correct_attempt'
p4435
(lp4436
S'0:00:00'
p4437
ag357
asg9
V2015-10-14 03:51:47
p4438
sS'part7_incorrect_attempt'
p4439
(lp4440
(S'0:07:13'
p4441
V(4 * (13!/10!/3!) * (39!/38!/1!)) / 52!/4!/48!
p4442
tp4443
assVm8woo
p4444
(dp4445
S'part5_correct_attempt'
p4446
(lp4447
S'0:00:46'
p4448
aVC(39,2)
p4449
asS'part7_correct_attempt'
p4450
(lp4451
S'0:02:38'
p4452
aV[4*(C(13,5) * C(39,2))]/C(52,7)
p4453
asS'part2_correct_attempt'
p4454
(lp4455
S'0:00:00'
p4456
aV4
p4457
asS'part6_correct_attempt'
p4458
(lp4459
S'0:02:24'
p4460
aV4*(C(13,5) * C(39,2))
p4461
asS'part4_correct_attempt'
p4462
(lp4463
S'0:00:46'
p4464
aV39
p4465
asS'part3_correct_attempt'
p4466
(lp4467
S'0:01:04'
p4468
ag1562
asS'part1_correct_attempt'
p4469
(lp4470
S'0:00:00'
p4471
aVC(52,7)
p4472
asg9
g1568
sS'part7_incorrect_attempt'
p4473
(lp4474
(S'0:02:24'
p4475
VC(52,7)/[4*(C(13,5) * C(39,2))]
p4476
tp4477
assVpvl001
p4478
(dp4479
S'part5_correct_attempt'
p4480
(lp4481
S'0:19:13'
p4482
aV741
p4483
asS'part7_correct_attempt'
p4484
(lp4485
S'0:22:30'
p4486
aV(741 * 78 * 4) / (52!/(4! * 48!))
p4487
asS'part2_correct_attempt'
p4488
(lp4489
S'0:00:31'
p4490
aV4
p4491
asS'part6_correct_attempt'
p4492
(lp4493
S'0:21:41'
p4494
aV741 * 78 * 4
p4495
asS'part4_correct_attempt'
p4496
(lp4497
S'0:19:02'
p4498
aV39
p4499
asS'part3_correct_attempt'
p4500
(lp4501
S'0:19:45'
p4502
ag2115
asS'part1_correct_attempt'
p4503
(lp4504
S'0:00:00'
p4505
aV52!/(4! * 48!)
p4506
asg9
g2124
sS'part7_incorrect_attempt'
p4507
(lp4508
(S'0:22:19'
p4509
V(741 * 78 * 4) / 52!/(4! * 48!)
p4510
tp4511
assVanvan
p4512
(dp4513
S'part5_correct_attempt'
p4514
(lp4515
S'0:00:00'
p4516
aV39!/(4!35!)
p4517
asS'part7_correct_attempt'
p4518
(lp4519
S'4:29:28'
p4520
aV(39!/(4!35!) * 13!/(2!11!) * 4)/ (52!/(46!6!) )
p4521
asS'part2_correct_attempt'
p4522
(lp4523
S'0:00:00'
p4524
aV4
p4525
asS'part6_correct_attempt'
p4526
(lp4527
S'2:21:51'
p4528
aV39!/(4!35!) * 13!/(2!11!) * 4
p4529
asS'part4_correct_attempt'
p4530
(lp4531
S'0:00:00'
p4532
aV39
p4533
asS'part3_correct_attempt'
p4534
(lp4535
S'0:04:58'
p4536
aV13!/(2!11!)
p4537
asS'part1_correct_attempt'
p4538
(lp4539
S'0:00:00'
p4540
aV52!/(46!6!)
p4541
asg9
V2015-10-14 22:41:56
p4542
sS'part7_incorrect_attempt'
p4543
(lp4544
(S'2:23:15'
p4545
V( 39!/(4!35!) * 13!/(2!11!) * 4 ) / 52!/(46!6!)
p4546
tp4547
a(S'2:23:40'
p4548
V2.56623E+07 / 52!/(46!6!)
p4549
tp4550
a(S'2:30:50'
p4551
V(39!/(4!35!) * 13!/(2!11!) * 4)/ 52!/(46!6!)
p4552
tp4553
a(S'4:29:00'
p4554
V(39!/(4!35!) * 13!/(2!11!) * 4)/ 52!/(46!6!)
p4555
tp4556
assVmrchin
p4557
(dp4558
S'part5_correct_attempt'
p4559
(lp4560
S'0:02:09'
p4561
aV39!/(37!*2!)
p4562
asS'part7_correct_attempt'
p4563
(lp4564
S'2 days, 19:03:47'
p4565
aV231192/[52!/(48!*4!)]
p4566
asS'part2_correct_attempt'
p4567
(lp4568
S'0:00:27'
p4569
aV4
p4570
asS'part6_correct_attempt'
p4571
(lp4572
S'2 days, 19:01:33'
p4573
aV39!/(37!*2!)*4*13!/(11!*2!)
p4574
asS'part4_correct_attempt'
p4575
(lp4576
S'0:01:57'
p4577
aV52-13
p4578
asS'part3_correct_attempt'
p4579
(lp4580
S'0:01:34'
p4581
aV13!/(11!*2!)
p4582
asS'part1_correct_attempt'
p4583
(lp4584
S'0:00:00'
p4585
ag678
asg9
V2015-10-12 03:35:43
p4586
sS'part7_incorrect_attempt'
p4587
(lp4588
(S'2 days, 19:02:59'
p4589
V[39!/(37!*2!)*4*13!/(11!*2!)]/52!/(48!*4!)
p4590
tp4591
a(S'2 days, 19:03:26'
p4592
V231192/52!/(48!*4!)
p4593
tp4594
asssV6
p4595
(dp4596
Vgthorn
p4597
(dp4598
S'part5_correct_attempt'
p4599
(lp4600
S'0:00:00'
p4601
aVC(39, 3)
p4602
asS'part6_incorrect_attempt'
p4603
(lp4604
(S'0:02:25'
p4605
VC(13, 3) * 4 * C(39, 3) * 3
p4606
tp4607
asS'part2_correct_attempt'
p4608
(lp4609
S'-3 days, 10:35:37'
p4610
aV4
p4611
asS'part6_correct_attempt'
p4612
(lp4613
S'0:04:36'
p4614
aV4 * C(13, 3) * C(39, 3)
p4615
asS'part4_correct_attempt'
p4616
(lp4617
S'-3 days, 10:35:37'
p4618
aV39
p4619
asS'part3_correct_attempt'
p4620
(lp4621
S'0:00:00'
p4622
aVC(13, 3)
p4623
asS'part1_correct_attempt'
p4624
(lp4625
S'0:00:00'
p4626
aVC(52, 6)
p4627
asg9
V2015-10-13 18:07:37
p4628
ssVapokhare
p4629
(dp4630
S'part5_correct_attempt'
p4631
(lp4632
S'0:09:05'
p4633
aV39!/(3!*(39-3)!)
p4634
asS'part6_incorrect_attempt'
p4635
(lp4636
(S'0:24:55'
p4637
V24*(13!/((13-3)!*3!))
p4638
tp4639
asS'part2_correct_attempt'
p4640
(lp4641
S'-1 day, 23:45:24'
p4642
aV4
p4643
asS'part6_correct_attempt'
p4644
(lp4645
S'0:48:39'
p4646
aV4*(13!/(3!*10!)) * (39!/(3!*36!))
p4647
asS'part4_correct_attempt'
p4648
(lp4649
S'0:09:05'
p4650
aV39
p4651
asS'part3_correct_attempt'
p4652
(lp4653
S'0:05:30'
p4654
ag1265
asS'part1_correct_attempt'
p4655
(lp4656
S'0:00:00'
p4657
ag8
asg9
g1274
ssVjguanzho
p4658
(dp4659
S'part5_correct_attempt'
p4660
(lp4661
S'-1 day, 23:55:49'
p4662
aV39
p4663
asS'part6_incorrect_attempt'
p4664
(lp4665
(S'0:00:45'
p4666
V13! * 4 / (5!*8!)
p4667
tp4668
asS'part2_correct_attempt'
p4669
(lp4670
S'-1 day, 23:55:49'
p4671
aV4
p4672
asS'part6_correct_attempt'
p4673
(lp4674
S'0:01:36'
p4675
aV13! * 4 * 39 / (5!*8!)
p4676
asS'part4_correct_attempt'
p4677
(lp4678
S'-1 day, 23:55:49'
p4679
aV52-13
p4680
asS'part3_correct_attempt'
p4681
(lp4682
S'0:00:45'
p4683
ag1295
asS'part1_correct_attempt'
p4684
(lp4685
S'0:00:00'
p4686
ag24
asg9
g1301
ssValakamsa
p4687
(dp4688
S'part5_correct_attempt'
p4689
(lp4690
S'0:02:01'
p4691
aVC(52-13,1)
p4692
asS'part6_incorrect_attempt'
p4693
(lp4694
(S'0:02:01'
p4695
VC(13,6)*4
p4696
tp4697
asS'part2_correct_attempt'
p4698
(lp4699
S'0:00:00'
p4700
aV4
p4701
asS'part6_correct_attempt'
p4702
(lp4703
S'0:02:36'
p4704
aVC(13,6)*4*C(52-13,1)
p4705
asS'part4_correct_attempt'
p4706
(lp4707
S'0:02:01'
p4708
ag3498
asS'part3_correct_attempt'
p4709
(lp4710
S'0:02:01'
p4711
aVC(13,6)
p4712
asS'part1_correct_attempt'
p4713
(lp4714
S'0:00:00'
p4715
aVC(52,7)
p4716
asg9
g3504
ssVjjm019
p4717
(dp4718
S'part5_correct_attempt'
p4719
(lp4720
S'0:06:53'
p4721
ag3102
asS'part6_incorrect_attempt'
p4722
(lp4723
(S'0:10:15'
p4724
V78*4
p4725
tp4726
asS'part2_correct_attempt'
p4727
(lp4728
S'0:00:43'
p4729
aV4
p4730
asS'part6_correct_attempt'
p4731
(lp4732
S'0:10:46'
p4733
aV78*4*82251
p4734
asS'part4_correct_attempt'
p4735
(lp4736
S'0:06:20'
p4737
ag3521
asS'part3_correct_attempt'
p4738
(lp4739
S'0:03:49'
p4740
aV78
p4741
asS'part1_correct_attempt'
p4742
(lp4743
S'0:00:00'
p4744
aV20358520
p4745
asg9
g3108
ssVmhale
p4746
(dp4747
S'part5_correct_attempt'
p4748
(lp4749
S'0:04:35'
p4750
aV39
p4751
asS'part6_incorrect_attempt'
p4752
(lp4753
(S'0:04:35'
p4754
V39 * 1287
p4755
tp4756
asS'part2_correct_attempt'
p4757
(lp4758
S'0:01:37'
p4759
aV4
p4760
asS'part6_correct_attempt'
p4761
(lp4762
S'0:04:47'
p4763
aV39 * 1287 * 4
p4764
asS'part4_correct_attempt'
p4765
(lp4766
S'0:02:36'
p4767
aV39
p4768
asS'part3_correct_attempt'
p4769
(lp4770
S'0:02:59'
p4771
aV1287
p4772
asS'part1_correct_attempt'
p4773
(lp4774
S'0:00:00'
p4775
ag54
asg9
V2015-10-14 21:59:24
p4776
ssVdkurli
p4777
(dp4778
S'part5_correct_attempt'
p4779
(lp4780
S'0:01:59'
p4781
aV39!/35!/4!
p4782
asS'part6_incorrect_attempt'
p4783
(lp4784
(S'0:03:10'
p4785
V13!/10!/3!*39!/35!/4!
p4786
tp4787
a(S'0:05:47'
p4788
V13*12*11*4!
p4789
tp4790
a(S'0:06:02'
p4791
V13*12*11*4
p4792
tp4793
a(S'0:06:28'
p4794
V13*12*11*4*39*38*37*36
p4795
tp4796
asS'part2_correct_attempt'
p4797
(lp4798
S'0:00:40'
p4799
aV4
p4800
asS'part6_correct_attempt'
p4801
(lp4802
S'0:08:26'
p4803
aV4*13!/10!/3!*39!/35!/4!
p4804
asS'part4_correct_attempt'
p4805
(lp4806
S'0:01:59'
p4807
aV39
p4808
asS'part3_correct_attempt'
p4809
(lp4810
S'0:02:13'
p4811
ag1322
asS'part1_correct_attempt'
p4812
(lp4813
S'0:00:00'
p4814
aV52!/7!/45!
p4815
asg9
g1331
ssVdkostins
p4816
(dp4817
S'part5_correct_attempt'
p4818
(lp4819
S'0:02:26'
p4820
aVC(39,3)
p4821
asS'part6_incorrect_attempt'
p4822
(lp4823
(S'0:02:26'
p4824
VC(13,4)C(39,3)*4
p4825
tp4826
a(S'0:02:35'
p4827
VC(13,4)C(39,3)*2
p4828
tp4829
asS'part2_correct_attempt'
p4830
(lp4831
S'0:00:32'
p4832
aV4
p4833
asS'part6_correct_attempt'
p4834
(lp4835
S'0:02:48'
p4836
aVC(13,2)C(39,3)*4
p4837
asS'part4_correct_attempt'
p4838
(lp4839
S'0:01:06'
p4840
aV39
p4841
asS'part3_correct_attempt'
p4842
(lp4843
S'0:01:36'
p4844
aVC(13,2)
p4845
asS'part1_correct_attempt'
p4846
(lp4847
S'0:00:00'
p4848
aVC(52,5)
p4849
asg9
V2015-10-15 18:29:41
p4850
ssVhaw081
p4851
(dp4852
S'part5_correct_attempt'
p4853
(lp4854
S'0:06:37'
p4855
ag4140
asS'part6_incorrect_attempt'
p4856
(lp4857
(S'0:30:58'
p4858
V4*C(52,6)
p4859
tp4860
a(S'0:31:32'
p4861
V4*C(13,6)
p4862
tp4863
a(S'0:31:49'
p4864
VC(4,1)*C(13,6)
p4865
tp4866
a(S'0:34:28'
p4867
VC(4,1)*C(13,1)^6
p4868
tp4869
asS'part2_correct_attempt'
p4870
(lp4871
S'0:00:00'
p4872
ag4148
asS'part6_correct_attempt'
p4873
(lp4874
S'2 days, 1:13:11'
p4875
ag4152
asS'part4_correct_attempt'
p4876
(lp4877
S'0:06:24'
p4878
ag3607
asS'part3_correct_attempt'
p4879
(lp4880
S'0:18:08'
p4881
ag1364
asS'part1_correct_attempt'
p4882
(lp4883
S'0:00:00'
p4884
ag4162
asg9
g1373
ssVffhaddad
p4885
(dp4886
S'part5_correct_attempt'
p4887
(lp4888
S'0:02:13'
p4889
ag4238
asS'part6_incorrect_attempt'
p4890
(lp4891
(S'0:02:42'
p4892
VC(4,1)C(13,3)
p4893
tp4894
asS'part2_correct_attempt'
p4895
(lp4896
S'0:00:28'
p4897
ag4246
asS'part6_correct_attempt'
p4898
(lp4899
S'0:02:49'
p4900
ag4250
asS'part4_correct_attempt'
p4901
(lp4902
S'0:01:56'
p4903
ag4254
asS'part3_correct_attempt'
p4904
(lp4905
S'0:01:32'
p4906
ag1379
asS'part1_correct_attempt'
p4907
(lp4908
S'0:00:00'
p4909
ag4261
asg9
g1385
ssVmnrahman
p4910
(dp4911
S'part5_correct_attempt'
p4912
(lp4913
S'0:03:35'
p4914
ag3188
asS'part6_incorrect_attempt'
p4915
(lp4916
(S'0:04:06'
p4917
V4C(13,4)C(39,5-4)
p4918
tp4919
a(S'0:04:29'
p4920
V4C(13,4)C(39,6-4)
p4921
tp4922
a(S'0:04:44'
p4923
V4C(13,5)C(39,6-4)
p4924
tp4925
asS'part2_correct_attempt'
p4926
(lp4927
S'0:01:06'
p4928
aV4
p4929
asS'part6_correct_attempt'
p4930
(lp4931
S'0:04:52'
p4932
aV4C(13,5)C(39,5-4)
p4933
asS'part4_correct_attempt'
p4934
(lp4935
S'0:03:26'
p4936
ag3624
asS'part3_correct_attempt'
p4937
(lp4938
S'0:00:52'
p4939
aVC(13,5)
p4940
asS'part1_correct_attempt'
p4941
(lp4942
S'0:00:00'
p4943
aVC(52,6)
p4944
asg9
g3194
ssVrlhagen
p4945
(dp4946
S'part5_correct_attempt'
p4947
(lp4948
S'0:00:00'
p4949
aV13*3
p4950
asS'part6_incorrect_attempt'
p4951
(lp4952
(S'0:06:36'
p4953
V13!/(3!(13-3)!)*13*3
p4954
tp4955
a(S'0:07:27'
p4956
V13!/(3!(13-3)!)*4
p4957
tp4958
asS'part2_correct_attempt'
p4959
(lp4960
S'0:00:00'
p4961
aV4
p4962
asS'part6_correct_attempt'
p4963
(lp4964
S'0:11:54'
p4965
aV13!/(3!(13-3)!)*4*13*3
p4966
asS'part4_correct_attempt'
p4967
(lp4968
S'0:00:00'
p4969
aV13*3
p4970
asS'part3_correct_attempt'
p4971
(lp4972
S'0:01:26'
p4973
aV13!/(3!(13-3)!)
p4974
asS'part1_correct_attempt'
p4975
(lp4976
S'0:00:00'
p4977
aV52!/(4!(52-4)!)
p4978
asg9
V2015-10-11 18:25:10
p4979
ssVbtn023
p4980
(dp4981
S'part5_correct_attempt'
p4982
(lp4983
S'0:00:00'
p4984
aVC(13*3,3)
p4985
asS'part6_incorrect_attempt'
p4986
(lp4987
(S'1 day, 0:12:27'
p4988
VC(13,2)*C(13,1)*C(13,1)*C(13,1)
p4989
tp4990
a(S'1 day, 0:15:27'
p4991
VC(4,1)*C(13,2)*C(3,1)*13*2*13*13
p4992
tp4993
asS'part2_correct_attempt'
p4994
(lp4995
S'-1 day, 23:57:47'
p4996
aV4
p4997
asS'part6_correct_attempt'
p4998
(lp4999
S'1 day, 15:30:34'
p5000
aV 4 * C(13,2) * C(13*3,3)
p5001
asS'part4_correct_attempt'
p5002
(lp5003
S'-1 day, 23:57:47'
p5004
aV13*3
p5005
asS'part3_correct_attempt'
p5006
(lp5007
S'0:00:00'
p5008
aVC(13,2)
p5009
asS'part1_correct_attempt'
p5010
(lp5011
S'0:00:00'
p5012
aVC(52,5)
p5013
asg9
V2015-10-13 07:29:10
p5014
ssVlalacson
p5015
(dp5016
S'part5_correct_attempt'
p5017
(lp5018
S'0:07:55'
p5019
aVC(52-13,1)
p5020
asS'part6_incorrect_attempt'
p5021
(lp5022
(S'0:18:00'
p5023
VC(13,3)+52-13
p5024
tp5025
a(S'0:22:10'
p5026
VC(13,3)
p5027
tp5028
a(S'0:23:05'
p5029
VC(13,3)+39
p5030
tp5031
asS'part2_correct_attempt'
p5032
(lp5033
S'0:00:00'
p5034
aV4
p5035
asS'part6_correct_attempt'
p5036
(lp5037
S'0:26:23'
p5038
aV4*C(13,3)*C(52-13,1)
p5039
asS'part4_correct_attempt'
p5040
(lp5041
S'0:07:33'
p5042
ag3635
asS'part3_correct_attempt'
p5043
(lp5044
S'0:03:38'
p5045
aVC(13,3)
p5046
asS'part1_correct_attempt'
p5047
(lp5048
S'0:00:00'
p5049
aVC(52,4)
p5050
asg9
g3644
ssVdgunawan
p5051
(dp5052
S'part4_correct_attempt'
p5053
(lp5054
S'-1 day, 23:57:16'
p5055
aV39
p5056
asS'part6_incorrect_attempt'
p5057
(lp5058
(S'22:10:56'
p5059
VC(13,1) * C(4, 4)* C(13, 1) *C(4,1)^2
p5060
tp5061
asS'part2_correct_attempt'
p5062
(lp5063
S'-1 day, 23:57:16'
p5064
aV13 * 4
p5065
asS'part1_correct_attempt'
p5066
(lp5067
S'0:00:00'
p5068
ag135
asg9
V2015-10-14 20:53:34
p5069
ssVtcuddy
p5070
(dp5071
S'part5_correct_attempt'
p5072
(lp5073
S'0:02:59'
p5074
ag3264
asS'part6_incorrect_attempt'
p5075
(lp5076
(S'0:05:27'
p5077
V(39!/(2!*37!))*(13!/(3!10!))
p5078
tp5079
asS'part2_correct_attempt'
p5080
(lp5081
S'0:00:35'
p5082
ag2993
asS'part6_correct_attempt'
p5083
(lp5084
S'0:05:49'
p5085
aV4*(39!/(2!*37!))*(13!/(3!10!))
p5086
asS'part4_correct_attempt'
p5087
(lp5088
S'0:02:35'
p5089
aV13*3
p5090
asS'part3_correct_attempt'
p5091
(lp5092
S'0:04:04'
p5093
ag1427
asS'part1_correct_attempt'
p5094
(lp5095
S'0:00:00'
p5096
aV52!/(5!47!)
p5097
asg9
g1436
ssVaysee
p5098
(dp5099
S'part5_correct_attempt'
p5100
(lp5101
S'0:00:00'
p5102
aVC(39,3)
p5103
asS'part6_incorrect_attempt'
p5104
(lp5105
(S'5:17:36'
p5106
VC(39,3)*C(13,4)
p5107
tp5108
asS'part2_correct_attempt'
p5109
(lp5110
S'0:00:00'
p5111
aV4
p5112
asS'part6_correct_attempt'
p5113
(lp5114
S'5:18:29'
p5115
aVC(4,1)*C(39,3)*C(13,4)
p5116
asS'part4_correct_attempt'
p5117
(lp5118
S'0:00:00'
p5119
aV39
p5120
asS'part3_correct_attempt'
p5121
(lp5122
S'5:17:36'
p5123
aVC(13,4)
p5124
asS'part1_correct_attempt'
p5125
(lp5126
S'0:00:00'
p5127
aVC(52,7)
p5128
asg9
V2015-10-13 17:56:45
p5129
ssVsayao
p5130
(dp5131
S'part5_correct_attempt'
p5132
(lp5133
S'0:03:33'
p5134
aV39!/(2!*37!)
p5135
asS'part6_incorrect_attempt'
p5136
(lp5137
(S'0:04:56'
p5138
V(4*13!/(11!*2!)*13*3*39!/(2!*37!))
p5139
tp5140
asS'part2_correct_attempt'
p5141
(lp5142
S'0:01:31'
p5143
ag3004
asS'part6_correct_attempt'
p5144
(lp5145
S'0:14:21'
p5146
aV(13!/(11!*2!))*(39!/(2!*37!))*4
p5147
asS'part4_correct_attempt'
p5148
(lp5149
S'0:03:33'
p5150
aV13*3
p5151
asS'part3_correct_attempt'
p5152
(lp5153
S'0:02:57'
p5154
aV13!/(11!*2!)
p5155
asS'part1_correct_attempt'
p5156
(lp5157
S'0:00:00'
p5158
aV52!/((52-4)!*4!)
p5159
asg9
g3005
ssVanvan
p5160
(dp5161
S'part5_correct_attempt'
p5162
(lp5163
S'0:00:00'
p5164
ag4517
asS'part6_incorrect_attempt'
p5165
(lp5166
(S'0:05:53'
p5167
V13!/(2!11!) * 39!/(4!35!)
p5168
tp5169
a(S'0:06:58'
p5170
V39!/(4!35!)
p5171
tp5172
asS'part2_correct_attempt'
p5173
(lp5174
S'0:00:00'
p5175
ag4525
asS'part6_correct_attempt'
p5176
(lp5177
S'2:21:51'
p5178
ag4529
asS'part4_correct_attempt'
p5179
(lp5180
S'0:00:00'
p5181
ag4533
asS'part3_correct_attempt'
p5182
(lp5183
S'0:04:58'
p5184
ag4537
asS'part1_correct_attempt'
p5185
(lp5186
S'0:00:00'
p5187
ag4541
asg9
g4542
ssVcsl030
p5188
(dp5189
S'part5_correct_attempt'
p5190
(lp5191
S'0:02:46'
p5192
aVC((13*3), 2)
p5193
asS'part6_incorrect_attempt'
p5194
(lp5195
(S'0:06:20'
p5196
VC((13*3), 2)
p5197
tp5198
asS'part2_correct_attempt'
p5199
(lp5200
S'0:00:12'
p5201
aV4
p5202
asS'part6_correct_attempt'
p5203
(lp5204
S'0:15:52'
p5205
aVC(13,3) * 4 * C(39,2)
p5206
asS'part4_correct_attempt'
p5207
(lp5208
S'0:02:32'
p5209
aV(13 * 3)
p5210
asS'part3_correct_attempt'
p5211
(lp5212
S'0:02:06'
p5213
ag2208
asS'part1_correct_attempt'
p5214
(lp5215
S'0:00:00'
p5216
aVC(52, 5)
p5217
asg9
g2217
ssVm4bui
p5218
(dp5219
S'part5_correct_attempt'
p5220
(lp5221
S'0:06:53'
p5222
ag3289
asS'part6_incorrect_attempt'
p5223
(lp5224
(S'0:07:39'
p5225
V82251*79*4
p5226
tp5227
a(S'0:07:48'
p5228
V82251*79*6
p5229
tp5230
asS'part2_correct_attempt'
p5231
(lp5232
S'-1 day, 23:44:03'
p5233
aV4
p5234
asS'part6_correct_attempt'
p5235
(lp5236
S'0:08:07'
p5237
aV82251*78*4
p5238
asS'part4_correct_attempt'
p5239
(lp5240
S'0:04:43'
p5241
aV39
p5242
asS'part3_correct_attempt'
p5243
(lp5244
S'0:03:01'
p5245
aV78
p5246
asS'part1_correct_attempt'
p5247
(lp5248
S'0:00:00'
p5249
ag210
asg9
g3295
ssVssamudra
p5250
(dp5251
S'part5_correct_attempt'
p5252
(lp5253
S'0:02:52'
p5254
aV39
p5255
asS'part6_incorrect_attempt'
p5256
(lp5257
(S'0:04:49'
p5258
V(4)13!/(9!4!)
p5259
tp5260
asS'part2_correct_attempt'
p5261
(lp5262
S'-1 day, 23:16:07'
p5263
aV4
p5264
asS'part6_correct_attempt'
p5265
(lp5266
S'0:05:45'
p5267
aV(39)(4)13!/(9!4!)
p5268
asS'part4_correct_attempt'
p5269
(lp5270
S'0:02:52'
p5271
aV39
p5272
asS'part3_correct_attempt'
p5273
(lp5274
S'0:00:00'
p5275
aV13!/(9!4!)
p5276
asS'part1_correct_attempt'
p5277
(lp5278
S'0:00:00'
p5279
ag147
asg9
V2015-10-15 04:16:31
p5280
ssVflhernan
p5281
(dp5282
S'part5_correct_attempt'
p5283
(lp5284
S'0:04:44'
p5285
ag3312
asS'part6_incorrect_attempt'
p5286
(lp5287
(S'0:16:28'
p5288
V741*286
p5289
tp5290
asS'part2_correct_attempt'
p5291
(lp5292
S'0:02:06'
p5293
aV4
p5294
asS'part6_correct_attempt'
p5295
(lp5296
S'0:17:42'
p5297
aV741*286*4
p5298
asS'part4_correct_attempt'
p5299
(lp5300
S'0:04:44'
p5301
aV52-13
p5302
asS'part3_correct_attempt'
p5303
(lp5304
S'0:03:08'
p5305
aVC(13,3)
p5306
asS'part1_correct_attempt'
p5307
(lp5308
S'0:00:00'
p5309
aVC(52,5)
p5310
asg9
g3318
ssVa2ahmed
p5311
(dp5312
S'part5_correct_attempt'
p5313
(lp5314
S'0:00:00'
p5315
ag4054
asS'part6_incorrect_attempt'
p5316
(lp5317
(S'0:07:13'
p5318
VC(52,6)-(C(13,5)*4*39)
p5319
tp5320
a(S'0:07:23'
p5321
VC(52,6)-((C(13,5)*4*39))
p5322
tp5323
asS'part2_correct_attempt'
p5324
(lp5325
S'0:00:00'
p5326
ag4062
asS'part6_correct_attempt'
p5327
(lp5328
S'0:08:46'
p5329
ag4066
asS'part4_correct_attempt'
p5330
(lp5331
S'0:00:00'
p5332
ag4070
asS'part3_correct_attempt'
p5333
(lp5334
S'0:04:19'
p5335
ag1499
asS'part1_correct_attempt'
p5336
(lp5337
S'0:00:00'
p5338
ag4077
asg9
g1511
ssVmitopete
p5339
(dp5340
S'part5_correct_attempt'
p5341
(lp5342
S'0:10:32'
p5343
aV39!/(2!37!)
p5344
asS'part6_incorrect_attempt'
p5345
(lp5346
(S'0:15:43'
p5347
V39!/(2!37!)+13!/(4!9!)
p5348
tp5349
a(S'0:19:36'
p5350
V39!/(2!37!)-13!/(4!9!)
p5351
tp5352
a(S'0:20:22'
p5353
V39!/(2!37!)+4*13!/(4!9!)
p5354
tp5355
a(S'0:20:34'
p5356
V39!/(2!37!)+4*(13!/(4!9!))
p5357
tp5358
a(S'0:20:55'
p5359
V39!/(2!37!)
p5360
tp5361
asS'part2_correct_attempt'
p5362
(lp5363
S'0:01:10'
p5364
ag2956
asS'part6_correct_attempt'
p5365
(lp5366
S'0:27:03'
p5367
aV4*(13!/(4!9!))*(39!/(2!37!))
p5368
asS'part4_correct_attempt'
p5369
(lp5370
S'0:10:10'
p5371
aV52-13
p5372
asS'part3_correct_attempt'
p5373
(lp5374
S'0:07:13'
p5375
ag1517
asS'part1_correct_attempt'
p5376
(lp5377
S'0:00:00'
p5378
aV52!/(6!46!)
p5379
asg9
g1526
ssVstarinia
p5380
(dp5381
S'part5_correct_attempt'
p5382
(lp5383
S'2:07:00'
p5384
ag3346
asS'part6_incorrect_attempt'
p5385
(lp5386
(S'2:07:55'
p5387
VC(13,2)
p5388
tp5389
asS'part2_correct_attempt'
p5390
(lp5391
S'-1 day, 23:45:57'
p5392
ag4098
asS'part6_correct_attempt'
p5393
(lp5394
S'2:32:48'
p5395
ag4102
asS'part4_correct_attempt'
p5396
(lp5397
S'-1 day, 23:45:57'
p5398
ag4106
asS'part3_correct_attempt'
p5399
(lp5400
S'2:07:22'
p5401
ag1532
asS'part1_correct_attempt'
p5402
(lp5403
S'0:00:00'
p5404
ag261
asg9
g1544
ssVtak068
p5405
(dp5406
S'part5_correct_attempt'
p5407
(lp5408
S'0:13:47'
p5409
aV13*19*37
p5410
asS'part6_incorrect_attempt'
p5411
(lp5412
(S'0:14:35'
p5413
V4*55*13*13*3*13*19*37
p5414
tp5415
asS'part2_correct_attempt'
p5416
(lp5417
S'0:08:20'
p5418
aV4
p5419
asS'part6_correct_attempt'
p5420
(lp5421
S'0:20:19'
p5422
aV4*55*13*13*19*37
p5423
asS'part4_correct_attempt'
p5424
(lp5425
S'0:12:31'
p5426
aV13*3
p5427
asS'part3_correct_attempt'
p5428
(lp5429
S'0:11:57'
p5430
ag1550
asS'part1_correct_attempt'
p5431
(lp5432
S'0:00:00'
p5433
aV52!/7!/(52-7)!
p5434
asg9
g1556
ssVm8woo
p5435
(dp5436
S'part5_correct_attempt'
p5437
(lp5438
S'0:00:46'
p5439
ag4449
asS'part6_incorrect_attempt'
p5440
(lp5441
(S'0:01:58'
p5442
V4*(C(13,5) + C(39,2))
p5443
tp5444
asS'part2_correct_attempt'
p5445
(lp5446
S'0:00:00'
p5447
ag4457
asS'part6_correct_attempt'
p5448
(lp5449
S'0:02:24'
p5450
ag4461
asS'part4_correct_attempt'
p5451
(lp5452
S'0:00:46'
p5453
ag4465
asS'part3_correct_attempt'
p5454
(lp5455
S'0:01:04'
p5456
ag1562
asS'part1_correct_attempt'
p5457
(lp5458
S'0:00:00'
p5459
ag4472
asg9
g1568
ssVjhp077
p5460
(dp5461
S'part5_correct_attempt'
p5462
(lp5463
S'0:08:54'
p5464
ag3419
asS'part6_incorrect_attempt'
p5465
(lp5466
(S'0:08:54'
p5467
V13*19*37*78
p5468
tp5469
asS'part2_correct_attempt'
p5470
(lp5471
S'0:05:54'
p5472
aV4
p5473
asS'part6_correct_attempt'
p5474
(lp5475
S'0:09:15'
p5476
aV13*19*37*78*4
p5477
asS'part4_correct_attempt'
p5478
(lp5479
S'0:08:54'
p5480
aV39
p5481
asS'part3_correct_attempt'
p5482
(lp5483
S'0:03:30'
p5484
aV78
p5485
asS'part1_correct_attempt'
p5486
(lp5487
S'0:00:00'
p5488
aV2598960
p5489
asg9
g3425
ssVlrlai
p5490
(dp5491
S'part5_correct_attempt'
p5492
(lp5493
S'0:05:03'
p5494
aV39
p5495
asS'part6_incorrect_attempt'
p5496
(lp5497
(S'0:08:10'
p5498
VC(13,3)*39
p5499
tp5500
asS'part2_correct_attempt'
p5501
(lp5502
S'0:05:03'
p5503
aV4
p5504
asS'part6_correct_attempt'
p5505
(lp5506
S'0:08:18'
p5507
aVC(13,3)*4*39
p5508
asS'part4_correct_attempt'
p5509
(lp5510
S'0:05:03'
p5511
aV39
p5512
asS'part3_correct_attempt'
p5513
(lp5514
S'0:07:35'
p5515
ag1616
asS'part1_correct_attempt'
p5516
(lp5517
S'0:00:00'
p5518
aVC(52,4)
p5519
asg9
g1631
ssVlguintu
p5520
(dp5521
S'part5_correct_attempt'
p5522
(lp5523
S'0:02:02'
p5524
aVC(39,1)
p5525
asS'part6_incorrect_attempt'
p5526
(lp5527
(S'0:06:11'
p5528
V4*C(13,4)
p5529
tp5530
a(S'0:06:20'
p5531
V5*C(13,4)
p5532
tp5533
a(S'0:06:29'
p5534
V5!*C(13,4)
p5535
tp5536
asS'part2_correct_attempt'
p5537
(lp5538
S'0:00:41'
p5539
aV4
p5540
asS'part6_correct_attempt'
p5541
(lp5542
S'0:07:16'
p5543
aV4*C(13,4)*C(39,1)
p5544
asS'part4_correct_attempt'
p5545
(lp5546
S'0:01:47'
p5547
aV52-13
p5548
asS'part3_correct_attempt'
p5549
(lp5550
S'0:05:24'
p5551
ag1637
asS'part1_correct_attempt'
p5552
(lp5553
S'0:00:00'
p5554
aVC(52,5)
p5555
asg9
g1646
ssVjjchung
p5556
(dp5557
S'part5_correct_attempt'
p5558
(lp5559
S'0:07:41'
p5560
aVC(39,1)
p5561
asS'part6_incorrect_attempt'
p5562
(lp5563
(S'0:09:12'
p5564
VC(13,3)*39
p5565
tp5566
asS'part2_correct_attempt'
p5567
(lp5568
S'0:00:29'
p5569
aV4
p5570
asS'part6_correct_attempt'
p5571
(lp5572
S'0:09:30'
p5573
aVC(13,3)*39*4
p5574
asS'part4_correct_attempt'
p5575
(lp5576
S'0:07:31'
p5577
aV39
p5578
asS'part3_correct_attempt'
p5579
(lp5580
S'0:06:47'
p5581
ag1652
asS'part1_correct_attempt'
p5582
(lp5583
S'0:00:00'
p5584
ag315
asg9
g1658
ssVabjara
p5585
(dp5586
S'part5_correct_attempt'
p5587
(lp5588
S'0:00:00'
p5589
ag4017
asS'part6_incorrect_attempt'
p5590
(lp5591
(S'0:16:38'
p5592
V13!/(2!*11!)
p5593
tp5594
a(S'2 days, 10:34:17'
p5595
V[13!/(11!)] 
p5596
tp5597
a(S'2 days, 10:34:40'
p5598
V[13!/(2!*11!)] 
p5599
tp5600
asS'part2_correct_attempt'
p5601
(lp5602
S'0:00:00'
p5603
ag4025
asS'part6_correct_attempt'
p5604
(lp5605
S'2 days, 11:50:01'
p5606
ag4029
asS'part4_correct_attempt'
p5607
(lp5608
S'0:00:00'
p5609
ag4033
asS'part3_correct_attempt'
p5610
(lp5611
S'0:13:30'
p5612
ag1664
asS'part1_correct_attempt'
p5613
(lp5614
S'0:00:00'
p5615
ag4040
asg9
g1670
ssVkrau
p5616
(dp5617
S'part5_correct_attempt'
p5618
(lp5619
S'0:01:31'
p5620
ag4414
asS'part6_incorrect_attempt'
p5621
(lp5622
(S'0:02:28'
p5623
V(39!/38!/1!)*4
p5624
tp5625
asS'part2_correct_attempt'
p5626
(lp5627
S'-1 day, 23:59:48'
p5628
ag4422
asS'part6_correct_attempt'
p5629
(lp5630
S'0:06:02'
p5631
ag4426
asS'part4_correct_attempt'
p5632
(lp5633
S'0:01:10'
p5634
ag4430
asS'part3_correct_attempt'
p5635
(lp5636
S'0:02:28'
p5637
ag4434
asS'part1_correct_attempt'
p5638
(lp5639
S'0:00:00'
p5640
ag357
asg9
g4438
ssVkthui
p5641
(dp5642
S'part5_correct_attempt'
p5643
(lp5644
S'0:06:29'
p5645
aV39!/((39-2)!2!)
p5646
asS'part6_incorrect_attempt'
p5647
(lp5648
(S'0:15:23'
p5649
V2(13!/((13-4)!4!))*(39!/((39-2)!2!))
p5650
tp5651
asS'part2_correct_attempt'
p5652
(lp5653
S'0:02:31'
p5654
aV4
p5655
asS'part6_correct_attempt'
p5656
(lp5657
S'0:17:59'
p5658
aV4(13!/((13-4)!4!))(39!/((39-2)!2!))
p5659
asS'part4_correct_attempt'
p5660
(lp5661
S'0:04:23'
p5662
aV52-13
p5663
asS'part3_correct_attempt'
p5664
(lp5665
S'0:07:44'
p5666
aV13!/((13-4)!4!)
p5667
asS'part1_correct_attempt'
p5668
(lp5669
S'0:00:00'
p5670
aV52!/((52-6)!6!)
p5671
asg9
V2015-10-11 08:32:42
p5672
ssVc2qiu
p5673
(dp5674
S'part5_correct_attempt'
p5675
(lp5676
S'0:00:00'
p5677
aV39!/(37!*2)
p5678
asS'part6_incorrect_attempt'
p5679
(lp5680
(S'0:02:16'
p5681
V(13!/(10!*3))*741*4
p5682
tp5683
asS'part2_correct_attempt'
p5684
(lp5685
S'0:01:27'
p5686
aV4
p5687
asS'part6_correct_attempt'
p5688
(lp5689
S'0:07:44'
p5690
aV847704
p5691
asS'part4_correct_attempt'
p5692
(lp5693
S'0:00:00'
p5694
aV39
p5695
asS'part3_correct_attempt'
p5696
(lp5697
S'0:00:00'
p5698
aV13!/(10!*3!)
p5699
asS'part1_correct_attempt'
p5700
(lp5701
S'0:00:00'
p5702
aV52!/(5!*47!)
p5703
asg9
V2015-10-11 09:42:51
p5704
ssVjcj006
p5705
(dp5706
S'part5_correct_attempt'
p5707
(lp5708
S'0:06:57'
p5709
aV39!/(4!35!)
p5710
asS'part6_incorrect_attempt'
p5711
(lp5712
(S'0:14:37'
p5713
V13!/(3!10!)*39!/(4!35!)
p5714
tp5715
asS'part2_correct_attempt'
p5716
(lp5717
S'-1 day, 20:49:45'
p5718
aV4
p5719
asS'part6_correct_attempt'
p5720
(lp5721
S'0:15:34'
p5722
aV4*13!/(3!10!)*(39!/(4!35!))
p5723
asS'part4_correct_attempt'
p5724
(lp5725
S'-1 day, 20:49:45'
p5726
aV39
p5727
asS'part3_correct_attempt'
p5728
(lp5729
S'0:13:56'
p5730
ag2130
asS'part1_correct_attempt'
p5731
(lp5732
S'0:00:00'
p5733
ag1065
asg9
g2136
ssVjhw015
p5734
(dp5735
S'part5_correct_attempt'
p5736
(lp5737
S'1:43:48'
p5738
aVC(39,2)
p5739
asS'part6_incorrect_attempt'
p5740
(lp5741
(S'1:44:14'
p5742
VC(52,7)*C(13,5)
p5743
tp5744
a(S'1:44:52'
p5745
V4 * C(13,5)
p5746
tp5747
asS'part2_correct_attempt'
p5748
(lp5749
S'0:00:20'
p5750
aV4
p5751
asS'part6_correct_attempt'
p5752
(lp5753
S'1:45:19'
p5754
aV4 * C(13,5) * C(39,2)
p5755
asS'part4_correct_attempt'
p5756
(lp5757
S'1:43:48'
p5758
ag3711
asS'part3_correct_attempt'
p5759
(lp5760
S'1:13:44'
p5761
ag1763
asS'part1_correct_attempt'
p5762
(lp5763
S'0:00:00'
p5764
aVC(52,7)
p5765
asg9
g1787
ssVdsmonaha
p5766
(dp5767
S'part5_correct_attempt'
p5768
(lp5769
S'0:16:47'
p5770
ag3253
asS'part6_incorrect_attempt'
p5771
(lp5772
(S'0:18:02'
p5773
V715*4*3*39
p5774
tp5775
a(S'0:19:25'
p5776
VC(13,4)C(4,1)C(3,1)C(39,1)
p5777
tp5778
asS'part2_correct_attempt'
p5779
(lp5780
S'-1 day, 23:58:01'
p5781
aV4
p5782
asS'part6_correct_attempt'
p5783
(lp5784
S'0:19:44'
p5785
aVC(13,4)C(4,1)C(39,1)
p5786
asS'part4_correct_attempt'
p5787
(lp5788
S'0:16:31'
p5789
aV13*3
p5790
asS'part3_correct_attempt'
p5791
(lp5792
S'0:14:16'
p5793
ag1793
asS'part1_correct_attempt'
p5794
(lp5795
S'0:00:00'
p5796
ag450
asg9
g1811
ssVjel075
p5797
(dp5798
S'part5_correct_attempt'
p5799
(lp5800
S'0:00:56'
p5801
aV39
p5802
asS'part6_incorrect_attempt'
p5803
(lp5804
(S'0:02:01'
p5805
V39+4+13!/(10!*3!)
p5806
tp5807
a(S'0:09:54'
p5808
V13!/(10!*3!)
p5809
tp5810
a(S'0:10:24'
p5811
V(4!/3!)*(13!/(10!*3!))
p5812
tp5813
a(S'0:12:01'
p5814
V13!/(10!*3!)*39
p5815
tp5816
asS'part2_correct_attempt'
p5817
(lp5818
S'-1 day, 23:58:10'
p5819
aV4
p5820
asS'part6_correct_attempt'
p5821
(lp5822
S'0:12:15'
p5823
aV(4!/3!)*(13!/(10!*3!))*39
p5824
asS'part4_correct_attempt'
p5825
(lp5826
S'0:00:56'
p5827
aV39
p5828
asS'part3_correct_attempt'
p5829
(lp5830
S'-1 day, 23:59:46'
p5831
ag1844
asS'part1_correct_attempt'
p5832
(lp5833
S'0:00:00'
p5834
ag462
asg9
g1850
ssVw4shin
p5835
(dp5836
S'part5_correct_attempt'
p5837
(lp5838
S'0:00:00'
p5839
aV39!/(37!2!)
p5840
asS'part6_incorrect_attempt'
p5841
(lp5842
(S'0:15:28'
p5843
V(39!/(37!2!))(50!/(48!2!))
p5844
tp5845
asS'part2_correct_attempt'
p5846
(lp5847
S'0:00:00'
p5848
aV4
p5849
asS'part6_correct_attempt'
p5850
(lp5851
S'0:19:49'
p5852
aV4*(13!/(11!2!))*(39!/(37!2!))
p5853
asS'part4_correct_attempt'
p5854
(lp5855
S'0:00:00'
p5856
aV39
p5857
asS'part3_correct_attempt'
p5858
(lp5859
S'0:15:28'
p5860
aV13!/(11!2!)
p5861
asS'part1_correct_attempt'
p5862
(lp5863
S'0:00:00'
p5864
aV52!/(48!4!)
p5865
asg9
V2015-10-14 02:52:19
p5866
ssVmuy002
p5867
(dp5868
S'part5_correct_attempt'
p5869
(lp5870
S'0:02:03'
p5871
ag3301
asS'part6_incorrect_attempt'
p5872
(lp5873
(S'0:02:52'
p5874
V13!/(2!11!)
p5875
tp5876
asS'part2_correct_attempt'
p5877
(lp5878
S'0:00:00'
p5879
aV4
p5880
asS'part6_correct_attempt'
p5881
(lp5882
S'0:13:40'
p5883
aV4*13!/(2!11!)*39!/(2!37!)
p5884
asS'part4_correct_attempt'
p5885
(lp5886
S'0:01:44'
p5887
aV13*3
p5888
asS'part3_correct_attempt'
p5889
(lp5890
S'0:00:39'
p5891
ag1880
asS'part1_correct_attempt'
p5892
(lp5893
S'0:00:00'
p5894
aV52!/(4!48!)
p5895
asg9
g1886
ssVjtfrankl
p5896
(dp5897
S'part5_correct_attempt'
p5898
(lp5899
S'0:00:00'
p5900
ag3946
asS'part6_incorrect_attempt'
p5901
(lp5902
(S'0:03:13'
p5903
VC(39,2)C(13,2)
p5904
tp5905
a(S'0:03:31'
p5906
VC(39,2)*C(13,2)
p5907
tp5908
asS'part2_correct_attempt'
p5909
(lp5910
S'0:00:00'
p5911
ag3954
asS'part6_correct_attempt'
p5912
(lp5913
S'0:04:38'
p5914
ag3958
asS'part4_correct_attempt'
p5915
(lp5916
S'0:00:00'
p5917
ag3962
asS'part3_correct_attempt'
p5918
(lp5919
S'0:03:13'
p5920
ag3966
asS'part1_correct_attempt'
p5921
(lp5922
S'0:00:00'
p5923
ag489
asg9
g3970
ssVcstringh
p5924
(dp5925
S'part5_correct_attempt'
p5926
(lp5927
S'0:04:01'
p5928
aV39!/(38!)
p5929
asS'part6_incorrect_attempt'
p5930
(lp5931
(S'0:36:55'
p5932
VC(13, 3) * 4
p5933
tp5934
a(S'0:37:31'
p5935
VC(13, 3) ^ 4
p5936
tp5937
a(S'5:21:13'
p5938
V(C(13, 3) *4 )
p5939
tp5940
asS'part2_correct_attempt'
p5941
(lp5942
S'-1 day, 23:56:44'
p5943
aV4
p5944
asS'part6_correct_attempt'
p5945
(lp5946
S'5:21:32'
p5947
aV(C(13, 3) *4 )*39
p5948
asS'part4_correct_attempt'
p5949
(lp5950
S'-1 day, 23:56:44'
p5951
aV39
p5952
asS'part3_correct_attempt'
p5953
(lp5954
S'0:32:37'
p5955
ag1909
asS'part1_correct_attempt'
p5956
(lp5957
S'0:00:00'
p5958
ag507
asg9
g1927
ssVxil109
p5959
(dp5960
S'part5_correct_attempt'
p5961
(lp5962
S'0:02:36'
p5963
aVC(39,1)
p5964
asS'part6_incorrect_attempt'
p5965
(lp5966
(S'0:03:00'
p5967
V4*C(13,3)
p5968
tp5969
a(S'0:03:22'
p5970
VC(4,1)*C(13,3)
p5971
tp5972
asS'part2_correct_attempt'
p5973
(lp5974
S'0:01:23'
p5975
aV4
p5976
asS'part6_correct_attempt'
p5977
(lp5978
S'0:04:49'
p5979
aVC(4,1)*C(13,3)*39
p5980
asS'part4_correct_attempt'
p5981
(lp5982
S'0:01:53'
p5983
aVC(3,1)*13
p5984
asS'part3_correct_attempt'
p5985
(lp5986
S'0:01:33'
p5987
aVC(13,3)
p5988
asS'part1_correct_attempt'
p5989
(lp5990
S'0:00:00'
p5991
ag576
asg9
V2015-10-10 20:32:33
p5992
ssVsghouse
p5993
(dp5994
S'part5_correct_attempt'
p5995
(lp5996
S'0:00:00'
p5997
aV39!/(3!*36!)
p5998
asS'part6_incorrect_attempt'
p5999
(lp6000
(S'0:09:54'
p6001
V13*6*39!/(3!*36!)
p6002
tp6003
asS'part2_correct_attempt'
p6004
(lp6005
S'0:00:00'
p6006
aV4
p6007
asS'part6_correct_attempt'
p6008
(lp6009
S'0:15:15'
p6010
aV13*6*4*[39!/(3!*36!)]
p6011
asS'part4_correct_attempt'
p6012
(lp6013
S'0:00:00'
p6014
aV39
p6015
asS'part3_correct_attempt'
p6016
(lp6017
S'0:09:54'
p6018
aV13*6
p6019
asS'part1_correct_attempt'
p6020
(lp6021
S'0:00:00'
p6022
aV52!/(5!*47!)
p6023
asg9
V2015-10-12 19:07:01
p6024
ssVlpettit
p6025
(dp6026
S'part5_correct_attempt'
p6027
(lp6028
S'0:02:26'
p6029
aV39!/(2!*(39-2)!)
p6030
asS'part6_incorrect_attempt'
p6031
(lp6032
(S'2:47:11'
p6033
V(13*6*11*6*3)+(39*19*9)
p6034
tp6035
a(S'2:47:27'
p6036
V(13*6*11*6*3*39*19*9)
p6037
tp6038
asS'part2_correct_attempt'
p6039
(lp6040
S'0:00:00'
p6041
aV4
p6042
asS'part6_correct_attempt'
p6043
(lp6044
S'2:54:19'
p6045
aV4*1287*741
p6046
asS'part4_correct_attempt'
p6047
(lp6048
S'0:01:54'
p6049
aV52-13
p6050
asS'part3_correct_attempt'
p6051
(lp6052
S'0:03:22'
p6053
aV13!/(5!*(13-5)!)
p6054
asS'part1_correct_attempt'
p6055
(lp6056
S'0:00:00'
p6057
aV52!/(7!*(52-7)!)
p6058
asg9
V2015-10-14 17:22:07
p6059
ssVlywong
p6060
(dp6061
S'part5_correct_attempt'
p6062
(lp6063
S'0:06:31'
p6064
aV39!/(2!(39-2)!)
p6065
asS'part6_incorrect_attempt'
p6066
(lp6067
(S'0:09:33'
p6068
V13!/(2!(13-2)!)*39!/(2!(39-2)!)
p6069
tp6070
asS'part2_correct_attempt'
p6071
(lp6072
S'0:00:31'
p6073
aV4
p6074
asS'part6_correct_attempt'
p6075
(lp6076
S'0:16:42'
p6077
aV4*78*741
p6078
asS'part4_correct_attempt'
p6079
(lp6080
S'0:04:56'
p6081
aV39
p6082
asS'part3_correct_attempt'
p6083
(lp6084
S'0:06:03'
p6085
ag2040
asS'part1_correct_attempt'
p6086
(lp6087
S'0:00:00'
p6088
ag606
asg9
g2046
ssVkebao
p6089
(dp6090
S'part5_correct_attempt'
p6091
(lp6092
S'0:56:23'
p6093
aV39!/(3!*36!)
p6094
asS'part6_incorrect_attempt'
p6095
(lp6096
(S'0:58:54'
p6097
V13!/(2!*11!)*39!/(3!*36!)
p6098
tp6099
asS'part2_correct_attempt'
p6100
(lp6101
S'0:00:24'
p6102
aV4
p6103
asS'part6_correct_attempt'
p6104
(lp6105
S'1:00:40'
p6106
aV4*(13!/(2!*11!))*(39!/(3!*36!))
p6107
asS'part4_correct_attempt'
p6108
(lp6109
S'0:51:44'
p6110
aV39
p6111
asS'part3_correct_attempt'
p6112
(lp6113
S'0:51:13'
p6114
ag2052
asS'part1_correct_attempt'
p6115
(lp6116
S'0:00:00'
p6117
ag618
asg9
g2061
ssVhkhodada
p6118
(dp6119
S'part5_correct_attempt'
p6120
(lp6121
S'0:00:00'
p6122
aV39
p6123
asS'part6_incorrect_attempt'
p6124
(lp6125
(S'1 day, 7:27:34'
p6126
V4*C(13,5)
p6127
tp6128
a(S'1 day, 7:28:14'
p6129
VC(39,1)*C(13,5)
p6130
tp6131
a(S'1 day, 7:28:30'
p6132
VC(39,1)*C(13,8)
p6133
tp6134
asS'part2_correct_attempt'
p6135
(lp6136
S'1 day, 7:27:14'
p6137
ag2843
asS'part6_correct_attempt'
p6138
(lp6139
S'1 day, 7:30:04'
p6140
aV4*C(39,1)*C(13,8)
p6141
asS'part4_correct_attempt'
p6142
(lp6143
S'0:00:00'
p6144
aVC(39,1)
p6145
asS'part3_correct_attempt'
p6146
(lp6147
S'0:00:00'
p6148
aV1287
p6149
asS'part1_correct_attempt'
p6150
(lp6151
S'0:00:00'
p6152
aVC(52,6)
p6153
asg9
g2844
ssVachava
p6154
(dp6155
S'part5_correct_attempt'
p6156
(lp6157
S'0:45:02'
p6158
aVC(39,1)
p6159
asS'part6_incorrect_attempt'
p6160
(lp6161
(S'0:46:16'
p6162
VC(52, 5) - C(13,4)
p6163
tp6164
a(S'0:47:05'
p6165
VC(13,4)
p6166
tp6167
a(S'0:47:38'
p6168
VC(13,4)*4
p6169
tp6170
a(S'0:57:05'
p6171
VC(13, 4)
p6172
tp6173
a(S'0:57:19'
p6174
VC(13, 4) * 4
p6175
tp6176
a(S'0:58:58'
p6177
VC(4,1)
p6178
tp6179
a(S'12:04:06'
p6180
VC(4,1) * C(39,1)
p6181
tp6182
a(S'12:07:56'
p6183
VC(52, 4)
p6184
tp6185
a(S'12:08:31'
p6186
VC(13, 4)
p6187
tp6188
a(S'12:10:12'
p6189
VC(52, 5) + C(13,4)
p6190
tp6191
a(S'12:34:56'
p6192
VC(4,1) * 13
p6193
tp6194
a(S'12:35:13'
p6195
VC(13,1)
p6196
tp6197
a(S'12:36:10'
p6198
VC(13,4)
p6199
tp6200
a(S'12:36:24'
p6201
VC(13,4) * 4
p6202
tp6203
asS'part2_correct_attempt'
p6204
(lp6205
S'0:00:39'
p6206
aV4
p6207
asS'part6_correct_attempt'
p6208
(lp6209
S'12:44:06'
p6210
aV(C(13,4)*4) * C(39,1)
p6211
asS'part4_correct_attempt'
p6212
(lp6213
S'0:44:48'
p6214
aV52-13
p6215
asS'part3_correct_attempt'
p6216
(lp6217
S'0:43:22'
p6218
ag2103
asS'part1_correct_attempt'
p6219
(lp6220
S'0:00:00'
p6221
aVC(52, 5)
p6222
asg9
g2109
ssVsachadal
p6223
(dp6224
S'part5_correct_attempt'
p6225
(lp6226
S'0:01:13'
p6227
aVC(39,3)
p6228
asS'part6_incorrect_attempt'
p6229
(lp6230
(S'0:02:42'
p6231
VC(52,6)*C(4,1)*C(13,3)
p6232
tp6233
a(S'0:02:54'
p6234
VC(4,1)*C(13,3)
p6235
tp6236
a(S'0:03:09'
p6237
VC(4,1)*C(52,3)
p6238
tp6239
asS'part2_correct_attempt'
p6240
(lp6241
S'0:00:24'
p6242
aVC(4,1)
p6243
asS'part6_correct_attempt'
p6244
(lp6245
S'0:04:05'
p6246
aVC(4,1)*C(13,3)*C(39,3)
p6247
asS'part4_correct_attempt'
p6248
(lp6249
S'0:01:13'
p6250
aV39
p6251
asS'part3_correct_attempt'
p6252
(lp6253
S'0:00:40'
p6254
aVC(13,3)
p6255
asS'part1_correct_attempt'
p6256
(lp6257
S'0:00:00'
p6258
aVC(52,6)
p6259
asg9
V2015-10-14 18:02:52
p6260
ssVdcrume
p6261
(dp6262
S'part6_incorrect_attempt'
p6263
(lp6264
(S'1 day, 2:53:43'
p6265
V4*C(13,2)
p6266
tp6267
asS'part3_correct_attempt'
p6268
(lp6269
S'1 day, 2:53:43'
p6270
aVC(13,2)
p6271
asS'part2_correct_attempt'
p6272
(lp6273
S'0:14:12'
p6274
aV4
p6275
asS'part1_correct_attempt'
p6276
(lp6277
S'0:00:00'
p6278
aV270725
p6279
asg9
g3116
ssVpvl001
p6280
(dp6281
S'part5_correct_attempt'
p6282
(lp6283
S'0:19:13'
p6284
ag4483
asS'part6_incorrect_attempt'
p6285
(lp6286
(S'0:20:13'
p6287
V741 * 78
p6288
tp6289
a(S'0:20:34'
p6290
V741 + 78
p6291
tp6292
a(S'0:21:17'
p6293
V52 * 12 * 39 * 38
p6294
tp6295
a(S'0:21:31'
p6296
V32 * 12 * 39 * 38
p6297
tp6298
asS'part2_correct_attempt'
p6299
(lp6300
S'0:00:31'
p6301
ag4491
asS'part6_correct_attempt'
p6302
(lp6303
S'0:21:41'
p6304
ag4495
asS'part4_correct_attempt'
p6305
(lp6306
S'0:19:02'
p6307
ag4499
asS'part3_correct_attempt'
p6308
(lp6309
S'0:19:45'
p6310
ag2115
asS'part1_correct_attempt'
p6311
(lp6312
S'0:00:00'
p6313
ag4506
asg9
g2124
ssVmrchin
p6314
(dp6315
S'part5_correct_attempt'
p6316
(lp6317
S'0:02:09'
p6318
ag4562
asS'part6_incorrect_attempt'
p6319
(lp6320
(S'0:02:36'
p6321
V52!/(48!*4!) + 52!/(48!*4!)
p6322
tp6323
a(S'0:03:00'
p6324
V[52!/(48!*4!)] * [52!/(48!*4!)]
p6325
tp6326
a(S'0:03:08'
p6327
V[52!/(48!*4!)] + [52!/(48!*4!)]
p6328
tp6329
asS'part2_correct_attempt'
p6330
(lp6331
S'0:00:27'
p6332
ag4570
asS'part6_correct_attempt'
p6333
(lp6334
S'2 days, 19:01:33'
p6335
ag4574
asS'part4_correct_attempt'
p6336
(lp6337
S'0:01:57'
p6338
ag4578
asS'part3_correct_attempt'
p6339
(lp6340
S'0:01:34'
p6341
ag4582
asS'part1_correct_attempt'
p6342
(lp6343
S'0:00:00'
p6344
ag678
asg9
g4586
ssVmbl003
p6345
(dp6346
S'part5_correct_attempt'
p6347
(lp6348
S'0:03:32'
p6349
aV39
p6350
asS'part6_incorrect_attempt'
p6351
(lp6352
(S'0:03:51'
p6353
V13!/(10!*3!)*39
p6354
tp6355
asS'part2_correct_attempt'
p6356
(lp6357
S'0:00:34'
p6358
aV4
p6359
asS'part6_correct_attempt'
p6360
(lp6361
S'0:04:57'
p6362
aV4*13!/(10!*3!)*39
p6363
asS'part4_correct_attempt'
p6364
(lp6365
S'0:03:32'
p6366
aV3*13
p6367
asS'part3_correct_attempt'
p6368
(lp6369
S'0:02:29'
p6370
aV13!/(10!*3!)
p6371
asS'part1_correct_attempt'
p6372
(lp6373
S'0:00:00'
p6374
ag702
asg9
V2015-10-15 07:11:03
p6375
ssVksmurlo
p6376
(dp6377
S'part5_correct_attempt'
p6378
(lp6379
S'0:00:43'
p6380
aVC(13*3,2)
p6381
asS'part6_incorrect_attempt'
p6382
(lp6383
(S'0:05:11'
p6384
V([4*C(13,2)]*[C(13*3,2)])/4!
p6385
tp6386
a(S'0:05:29'
p6387
V([4*C(13,2)]*[C(13*3,2)])/4
p6388
tp6389
asS'part2_correct_attempt'
p6390
(lp6391
S'0:00:15'
p6392
aV4
p6393
asS'part6_correct_attempt'
p6394
(lp6395
S'0:05:51'
p6396
aV([4*C(13,2)]*[C(13*3,2)])
p6397
asS'part4_correct_attempt'
p6398
(lp6399
S'0:00:43'
p6400
aV3*13
p6401
asS'part3_correct_attempt'
p6402
(lp6403
S'0:03:13'
p6404
aVC(13,2)
p6405
asS'part1_correct_attempt'
p6406
(lp6407
S'0:00:00'
p6408
ag729
asg9
V2015-10-13 23:19:17
p6409
ssVjnatale
p6410
(dp6411
S'part5_correct_attempt'
p6412
(lp6413
S'0:07:51'
p6414
ag4343
asS'part6_incorrect_attempt'
p6415
(lp6416
(S'0:09:06'
p6417
VC(13,4)
p6418
tp6419
asS'part2_correct_attempt'
p6420
(lp6421
S'0:01:30'
p6422
ag4351
asS'part6_correct_attempt'
p6423
(lp6424
S'0:10:14'
p6425
ag4355
asS'part4_correct_attempt'
p6426
(lp6427
S'0:07:51'
p6428
ag4359
asS'part3_correct_attempt'
p6429
(lp6430
S'0:07:14'
p6431
ag2154
asS'part1_correct_attempt'
p6432
(lp6433
S'0:00:00'
p6434
ag756
asg9
g2160
ssVakhmelni
p6435
(dp6436
S'part5_correct_attempt'
p6437
(lp6438
S'0:05:40'
p6439
aVC((13*3), 3)
p6440
asS'part6_incorrect_attempt'
p6441
(lp6442
(S'0:07:06'
p6443
VC((13*3), 3) * 4
p6444
tp6445
asS'part2_correct_attempt'
p6446
(lp6447
S'0:00:42'
p6448
ag2777
asS'part6_correct_attempt'
p6449
(lp6450
S'0:07:21'
p6451
aVC((13*3), 3) * 4 * C(13,4)
p6452
asS'part4_correct_attempt'
p6453
(lp6454
S'0:05:40'
p6455
aV13*3
p6456
asS'part3_correct_attempt'
p6457
(lp6458
S'0:05:03'
p6459
aVC(13,4)
p6460
asS'part1_correct_attempt'
p6461
(lp6462
S'0:00:00'
p6463
ag768
asg9
g2778
ssVskodigal
p6464
(dp6465
S'part5_correct_attempt'
p6466
(lp6467
S'0:08:46'
p6468
aVC(39,3)
p6469
asS'part6_incorrect_attempt'
p6470
(lp6471
(S'0:11:40'
p6472
V4 * C(13,4)
p6473
tp6474
a(S'0:15:32'
p6475
V13*4 * C(13,4)
p6476
tp6477
a(S'0:19:44'
p6478
V4 * C(13,4) 
p6479
tp6480
a(S'0:19:54'
p6481
VC(13,4) 
p6482
tp6483
a(S'0:20:28'
p6484
VC(13,4) *4
p6485
tp6486
asS'part2_correct_attempt'
p6487
(lp6488
S'0:01:50'
p6489
aV4
p6490
asS'part6_correct_attempt'
p6491
(lp6492
S'0:53:51'
p6493
aV[4 *C(13,4) * C(39,3)] 
p6494
asS'part4_correct_attempt'
p6495
(lp6496
S'0:08:46'
p6497
aV39
p6498
asS'part3_correct_attempt'
p6499
(lp6500
S'0:09:26'
p6501
aVC(13,4)
p6502
asS'part1_correct_attempt'
p6503
(lp6504
S'0:00:00'
p6505
ag780
asg9
V2015-10-15 01:04:20
p6506
ssVhachrist
p6507
(dp6508
S'part5_correct_attempt'
p6509
(lp6510
S'1:59:09'
p6511
aV39!/(37! * 2!)
p6512
asS'part6_incorrect_attempt'
p6513
(lp6514
(S'4:23:55'
p6515
V(13!/(10!*3!))*4
p6516
tp6517
a(S'4:37:25'
p6518
V741+286
p6519
tp6520
a(S'4:37:36'
p6521
V286 * 4
p6522
tp6523
a(S'7:09:13'
p6524
V741 - 286
p6525
tp6526
asS'part2_correct_attempt'
p6527
(lp6528
S'1:18:42'
p6529
aV4
p6530
asS'part6_correct_attempt'
p6531
(lp6532
S'7:16:31'
p6533
aV(39!/(37! * 2!))*4*(13!/(10!*3!))
p6534
asS'part4_correct_attempt'
p6535
(lp6536
S'1:59:09'
p6537
aV39
p6538
asS'part3_correct_attempt'
p6539
(lp6540
S'1:44:21'
p6541
aV13!/(10!*3!)
p6542
asS'part1_correct_attempt'
p6543
(lp6544
S'0:00:00'
p6545
aV52!/(47!*5!)
p6546
asg9
V2015-10-14 23:22:52
p6547
ssVq3wen
p6548
(dp6549
S'part5_correct_attempt'
p6550
(lp6551
S'0:10:55'
p6552
ag3981
asS'part6_incorrect_attempt'
p6553
(lp6554
(S'0:16:47'
p6555
V286^4
p6556
tp6557
asS'part2_correct_attempt'
p6558
(lp6559
S'0:02:33'
p6560
ag3989
asS'part6_correct_attempt'
p6561
(lp6562
S'0:17:55'
p6563
ag3993
asS'part4_correct_attempt'
p6564
(lp6565
S'0:06:07'
p6566
ag3997
asS'part3_correct_attempt'
p6567
(lp6568
S'0:10:55'
p6569
ag4001
asS'part1_correct_attempt'
p6570
(lp6571
S'0:00:00'
p6572
ag4005
asg9
g4006
ssVyeh013
p6573
(dp6574
S'part5_correct_attempt'
p6575
(lp6576
S'0:14:59'
p6577
aV39*19
p6578
asS'part6_incorrect_attempt'
p6579
(lp6580
(S'0:15:50'
p6581
V78*39*19
p6582
tp6583
asS'part2_correct_attempt'
p6584
(lp6585
S'0:08:01'
p6586
aV4
p6587
asS'part6_correct_attempt'
p6588
(lp6589
S'0:16:48'
p6590
aV78*39*19*4
p6591
asS'part4_correct_attempt'
p6592
(lp6593
S'0:14:33'
p6594
aV39
p6595
asS'part3_correct_attempt'
p6596
(lp6597
S'0:13:02'
p6598
aV78
p6599
asS'part1_correct_attempt'
p6600
(lp6601
S'0:00:00'
p6602
ag795
asg9
V2015-10-15 07:35:43
p6603
ssVeaherman
p6604
(dp6605
S'part5_correct_attempt'
p6606
(lp6607
S'0:02:55'
p6608
aV39
p6609
asS'part6_incorrect_attempt'
p6610
(lp6611
(S'0:03:24'
p6612
VC(13,3)(39)
p6613
tp6614
asS'part2_correct_attempt'
p6615
(lp6616
S'0:01:14'
p6617
aV4
p6618
asS'part6_correct_attempt'
p6619
(lp6620
S'0:03:42'
p6621
aVC(13,3)(39)4
p6622
asS'part4_correct_attempt'
p6623
(lp6624
S'0:02:18'
p6625
ag3757
asS'part3_correct_attempt'
p6626
(lp6627
S'0:02:18'
p6628
aVC(13, 3)
p6629
asS'part1_correct_attempt'
p6630
(lp6631
S'0:00:00'
p6632
ag831
asg9
g3763
ssVksrijong
p6633
(dp6634
S'part5_correct_attempt'
p6635
(lp6636
S'0:00:00'
p6637
aVC(39,2)
p6638
asS'part6_incorrect_attempt'
p6639
(lp6640
(S'0:05:49'
p6641
VC(13,2)*C(13,1)*C(13,1)
p6642
tp6643
a(S'0:07:48'
p6644
V4*C(13,2)*3*C(13,1)*2*C(13,1)
p6645
tp6646
a(S'0:08:12'
p6647
V4*C(13,1)*C(12,1)*3*C(13,1)*2*C(13,1)
p6648
tp6649
a(S'0:13:46'
p6650
V4*C(13,2)
p6651
tp6652
asS'part2_correct_attempt'
p6653
(lp6654
S'0:00:00'
p6655
aV4
p6656
asS'part6_correct_attempt'
p6657
(lp6658
S'0:14:36'
p6659
aV4*C(13,2)*C(39,2)
p6660
asS'part4_correct_attempt'
p6661
(lp6662
S'0:00:00'
p6663
aV39
p6664
asS'part3_correct_attempt'
p6665
(lp6666
S'0:03:05'
p6667
aVC(13,2)
p6668
asS'part1_correct_attempt'
p6669
(lp6670
S'0:00:00'
p6671
aVC(52,4)
p6672
asg9
V2015-10-15 05:37:18
p6673
ssVytc012
p6674
(dp6675
S'part5_correct_attempt'
p6676
(lp6677
S'0:12:02'
p6678
aV39!/(3!36!)
p6679
asS'part6_incorrect_attempt'
p6680
(lp6681
(S'0:13:37'
p6682
V(52!39!)/(3!36!7!45!)
p6683
tp6684
a(S'0:15:04'
p6685
V715*4
p6686
tp6687
a(S'0:17:05'
p6688
V7!/(4!3!)
p6689
tp6690
a(S'0:20:36'
p6691
V13!/(4!9!)
p6692
tp6693
a(S'0:20:50'
p6694
V13!4/(4!9!)
p6695
tp6696
a(S'0:21:02'
p6697
V13!4!/(3!4!9!)
p6698
tp6699
a(S'0:22:26'
p6700
V52!/(7!45!)
p6701
tp6702
a(S'0:22:32'
p6703
V52!/(4!48!)
p6704
tp6705
a(S'0:23:12'
p6706
V13!/(4!9!)
p6707
tp6708
a(S'0:23:55'
p6709
V13*12*11*10
p6710
tp6711
a(S'2:30:42'
p6712
V4*52!/(7!45!)
p6713
tp6714
asS'part2_correct_attempt'
p6715
(lp6716
S'0:11:42'
p6717
ag2973
asS'part6_correct_attempt'
p6718
(lp6719
S'2:33:18'
p6720
aV4*715*9139
p6721
asS'part4_correct_attempt'
p6722
(lp6723
S'0:08:58'
p6724
aV39
p6725
asS'part3_correct_attempt'
p6726
(lp6727
S'0:11:16'
p6728
ag1856
asS'part1_correct_attempt'
p6729
(lp6730
S'0:00:00'
p6731
aV52!/(7!45!)
p6732
asg9
g1862
ssVklala
p6733
(dp6734
S'part5_correct_attempt'
p6735
(lp6736
S'0:00:00'
p6737
aVC(39,4)
p6738
asS'part6_incorrect_attempt'
p6739
(lp6740
(S'0:01:44'
p6741
VC(39,3) + C(13,3)
p6742
tp6743
a(S'0:02:09'
p6744
VC(39,3) * C(13,3)
p6745
tp6746
a(S'0:02:36'
p6747
VC(39,4) * C(13,3)
p6748
tp6749
a(S'0:02:46'
p6750
VC(39,4) + C(13,3)
p6751
tp6752
asS'part2_correct_attempt'
p6753
(lp6754
S'0:00:00'
p6755
aV4
p6756
asS'part6_correct_attempt'
p6757
(lp6758
S'0:17:21'
p6759
aVC(4,1) * C(13,3) * C(39,4)
p6760
asS'part4_correct_attempt'
p6761
(lp6762
S'0:00:00'
p6763
aV52-13
p6764
asS'part3_correct_attempt'
p6765
(lp6766
S'0:01:44'
p6767
ag2274
asS'part1_correct_attempt'
p6768
(lp6769
S'0:00:00'
p6770
aVC(52,7)
p6771
asg9
g2280
ssVt2shin
p6772
(dp6773
S'part5_correct_attempt'
p6774
(lp6775
S'0:05:31'
p6776
aV39!/(4!35!)
p6777
asS'part6_incorrect_attempt'
p6778
(lp6779
(S'0:09:39'
p6780
V13!/(3!10!)
p6781
tp6782
a(S'0:10:35'
p6783
V4*(13!/(3!10!))
p6784
tp6785
a(S'0:17:58'
p6786
V4*13!/(3!10!) * 3*39!/(4!35!)
p6787
tp6788
asS'part2_correct_attempt'
p6789
(lp6790
S'0:00:36'
p6791
aV4
p6792
asS'part6_correct_attempt'
p6793
(lp6794
S'0:21:28'
p6795
aV(4*13!/(3!10!)) * (39!/(4!35!))
p6796
asS'part4_correct_attempt'
p6797
(lp6798
S'0:05:31'
p6799
aV39
p6800
asS'part3_correct_attempt'
p6801
(lp6802
S'0:04:38'
p6803
ag2313
asS'part1_correct_attempt'
p6804
(lp6805
S'0:00:00'
p6806
aV52!/(7!45!)
p6807
asg9
g2322
ssVvsamant
p6808
(dp6809
S'part5_correct_attempt'
p6810
(lp6811
S'0:04:27'
p6812
aVC(39,2)
p6813
asS'part6_incorrect_attempt'
p6814
(lp6815
(S'0:10:53'
p6816
VC(4,1)*C(13,3)
p6817
tp6818
asS'part2_correct_attempt'
p6819
(lp6820
S'0:04:27'
p6821
aV4
p6822
asS'part6_correct_attempt'
p6823
(lp6824
S'0:12:32'
p6825
aVC(4,1)*C(13,3)*C(39,2)
p6826
asS'part4_correct_attempt'
p6827
(lp6828
S'0:04:27'
p6829
aV39
p6830
asS'part3_correct_attempt'
p6831
(lp6832
S'0:10:01'
p6833
aVC(13,3)
p6834
asS'part1_correct_attempt'
p6835
(lp6836
S'0:00:00'
p6837
aVC(52,5)
p6838
asg9
V2015-10-10 16:50:53
p6839
ssVppanourg
p6840
(dp6841
S'part5_correct_attempt'
p6842
(lp6843
S'0:00:00'
p6844
aV13*3
p6845
asS'part6_incorrect_attempt'
p6846
(lp6847
(S'0:02:35'
p6848
VC(52,4)*13*3
p6849
tp6850
a(S'0:02:44'
p6851
VC(52,4)*4*13*3
p6852
tp6853
asS'part2_correct_attempt'
p6854
(lp6855
S'0:00:00'
p6856
aV4
p6857
asS'part6_correct_attempt'
p6858
(lp6859
S'0:03:25'
p6860
aV4*C(13,3)*13*3
p6861
asS'part4_correct_attempt'
p6862
(lp6863
S'0:01:57'
p6864
aV13*3
p6865
asS'part3_correct_attempt'
p6866
(lp6867
S'0:00:00'
p6868
aVC(13,3)
p6869
asS'part1_correct_attempt'
p6870
(lp6871
S'0:00:00'
p6872
aVC(52,4)
p6873
asg9
V2015-10-14 23:57:31
p6874
ssVewbrenna
p6875
(dp6876
S'part5_correct_attempt'
p6877
(lp6878
S'0:10:13'
p6879
aV13*3
p6880
asS'part6_incorrect_attempt'
p6881
(lp6882
(S'0:10:13'
p6883
V[(13*3)*(13!/(4!*(13-4)!))]
p6884
tp6885
asS'part2_correct_attempt'
p6886
(lp6887
S'0:02:13'
p6888
aV4
p6889
asS'part6_correct_attempt'
p6890
(lp6891
S'0:10:40'
p6892
aV[(13*3*4)*(13!/(4!*(13-4)!))]
p6893
asS'part4_correct_attempt'
p6894
(lp6895
S'0:02:13'
p6896
aV13*3
p6897
asS'part3_correct_attempt'
p6898
(lp6899
S'0:09:08'
p6900
ag2328
asS'part1_correct_attempt'
p6901
(lp6902
S'0:00:00'
p6903
ag888
asg9
g2334
ssVpcdo
p6904
(dp6905
S'part5_correct_attempt'
p6906
(lp6907
S'0:10:35'
p6908
aVC(39,1)
p6909
asS'part6_incorrect_attempt'
p6910
(lp6911
(S'1:22:20'
p6912
VC(13,4)
p6913
tp6914
a(S'1:26:13'
p6915
VC(4,1)*C(13,4)
p6916
tp6917
asS'part2_correct_attempt'
p6918
(lp6919
S'0:00:52'
p6920
aV4
p6921
asS'part6_correct_attempt'
p6922
(lp6923
S'1:26:57'
p6924
aVC(4,1)*C(13,4)*C(39,1)
p6925
asS'part4_correct_attempt'
p6926
(lp6927
S'0:03:39'
p6928
aV39
p6929
asS'part3_correct_attempt'
p6930
(lp6931
S'0:04:05'
p6932
aVC(13, 4)
p6933
asS'part1_correct_attempt'
p6934
(lp6935
S'0:00:00'
p6936
aVC(52,5)
p6937
asg9
V2015-10-13 18:42:56
p6938
ssVe9brown
p6939
(dp6940
S'part5_correct_attempt'
p6941
(lp6942
S'0:01:39'
p6943
aVC(39,2)
p6944
asS'part6_incorrect_attempt'
p6945
(lp6946
(S'0:03:31'
p6947
V4 * C(13,2)
p6948
tp6949
asS'part2_correct_attempt'
p6950
(lp6951
S'0:01:39'
p6952
aV4
p6953
asS'part6_correct_attempt'
p6954
(lp6955
S'2:39:28'
p6956
aVC(4,1) * C(13,2) * C(39,2)
p6957
asS'part4_correct_attempt'
p6958
(lp6959
S'0:01:39'
p6960
aV52-13
p6961
asS'part3_correct_attempt'
p6962
(lp6963
S'0:02:59'
p6964
aVC(13,2)
p6965
asS'part1_correct_attempt'
p6966
(lp6967
S'0:00:00'
p6968
aVC(52,4)
p6969
asg9
V2015-10-14 08:42:36
p6970
ssVb1green
p6971
(dp6972
S'part5_correct_attempt'
p6973
(lp6974
S'0:00:00'
p6975
aV13*3
p6976
asS'part6_incorrect_attempt'
p6977
(lp6978
(S'0:05:29'
p6979
VC(13,4)*13*3
p6980
tp6981
a(S'0:07:40'
p6982
VC(13,4)
p6983
tp6984
asS'part2_correct_attempt'
p6985
(lp6986
S'0:00:00'
p6987
aV4
p6988
asS'part6_correct_attempt'
p6989
(lp6990
S'0:08:57'
p6991
aV4*C(13,4)*13*3
p6992
asS'part4_correct_attempt'
p6993
(lp6994
S'0:00:00'
p6995
aV13*3
p6996
asS'part3_correct_attempt'
p6997
(lp6998
S'0:05:29'
p6999
ag2400
asS'part1_correct_attempt'
p7000
(lp7001
S'0:00:00'
p7002
aVC(52,5)
p7003
asg9
g2406
ssVp4kumar
p7004
(dp7005
S'part5_correct_attempt'
p7006
(lp7007
S'0:00:00'
p7008
aV52-13
p7009
asS'part6_incorrect_attempt'
p7010
(lp7011
(S'0:06:53'
p7012
V286 * (52 - 13)
p7013
tp7014
asS'part2_correct_attempt'
p7015
(lp7016
S'0:00:00'
p7017
aV4
p7018
asS'part6_correct_attempt'
p7019
(lp7020
S'0:12:13'
p7021
aV286 * 4 * 39
p7022
asS'part4_correct_attempt'
p7023
(lp7024
S'0:00:00'
p7025
aV52-13
p7026
asS'part3_correct_attempt'
p7027
(lp7028
S'0:00:40'
p7029
aV286
p7030
asS'part1_correct_attempt'
p7031
(lp7032
S'0:00:00'
p7033
ag942
asg9
V2015-10-15 08:57:40
p7034
ssVs2chaudh
p7035
(dp7036
S'part5_correct_attempt'
p7037
(lp7038
S'0:56:54'
p7039
aVC(39,2)
p7040
asS'part6_incorrect_attempt'
p7041
(lp7042
(S'0:57:23'
p7043
VC(13,4)*C(39,1)
p7044
tp7045
asS'part2_correct_attempt'
p7046
(lp7047
S'0:00:00'
p7048
aV4
p7049
asS'part6_correct_attempt'
p7050
(lp7051
S'17:53:51'
p7052
aV(C(4,1)*C(13,4)* C(39,2))
p7053
asS'part4_correct_attempt'
p7054
(lp7055
S'0:56:54'
p7056
aV39
p7057
asS'part3_correct_attempt'
p7058
(lp7059
S'0:08:47'
p7060
aVC(13,4)
p7061
asS'part1_correct_attempt'
p7062
(lp7063
S'0:00:00'
p7064
aVC(52,6)
p7065
asg9
V2015-10-13 01:39:30
p7066
ssVjmiclat
p7067
(dp7068
S'part5_correct_attempt'
p7069
(lp7070
S'0:09:49'
p7071
aV39!/(37!2)
p7072
asS'part6_incorrect_attempt'
p7073
(lp7074
(S'0:15:57'
p7075
V(39!/(37!2)) +(13!/(4!9!))
p7076
tp7077
asS'part2_correct_attempt'
p7078
(lp7079
S'0:00:53'
p7080
aV4
p7081
asS'part4_correct_attempt'
p7082
(lp7083
S'0:09:21'
p7084
ag3582
asS'part3_correct_attempt'
p7085
(lp7086
S'0:02:23'
p7087
aV13!/(4!9!)
p7088
asS'part1_correct_attempt'
p7089
(lp7090
S'0:00:00'
p7091
ag969
asg9
g3591
ssVcfgutier
p7092
(dp7093
S'part5_correct_attempt'
p7094
(lp7095
S'0:14:39'
p7096
aV575757
p7097
asS'part6_incorrect_attempt'
p7098
(lp7099
(S'0:32:28'
p7100
V 575757 * 78
p7101
tp7102
a(S'0:36:10'
p7103
V4 * 78
p7104
tp7105
asS'part2_correct_attempt'
p7106
(lp7107
S'0:00:19'
p7108
aV4
p7109
asS'part6_correct_attempt'
p7110
(lp7111
S'0:43:22'
p7112
aV4 * 78 * 575757
p7113
asS'part4_correct_attempt'
p7114
(lp7115
S'0:13:57'
p7116
aV52 - 13
p7117
asS'part3_correct_attempt'
p7118
(lp7119
S'0:11:58'
p7120
aV78
p7121
asS'part1_correct_attempt'
p7122
(lp7123
S'0:00:00'
p7124
ag342
asg9
V2015-10-15 21:30:31
p7125
ssVanl114
p7126
(dp7127
S'part5_correct_attempt'
p7128
(lp7129
S'0:00:00'
p7130
aV741
p7131
asS'part6_incorrect_attempt'
p7132
(lp7133
(S'0:18:36'
p7134
V1287/13
p7135
tp7136
asS'part2_correct_attempt'
p7137
(lp7138
S'-1 day, 23:53:22'
p7139
aV4
p7140
asS'part6_correct_attempt'
p7141
(lp7142
S'0:20:20'
p7143
aV1287*741*4
p7144
asS'part4_correct_attempt'
p7145
(lp7146
S'-1 day, 23:53:22'
p7147
aV39
p7148
asS'part3_correct_attempt'
p7149
(lp7150
S'0:00:00'
p7151
ag2481
asS'part1_correct_attempt'
p7152
(lp7153
S'0:00:00'
p7154
ag1023
asg9
g2490
ssVpnquach
p7155
(dp7156
S'part5_correct_attempt'
p7157
(lp7158
S'0:00:00'
p7159
aV39!/(4!*35!)
p7160
asS'part6_incorrect_attempt'
p7161
(lp7162
(S'0:03:40'
p7163
V4*(13!/(2!*11!))*3*13*39!/(4!*35!)
p7164
tp7165
asS'part2_correct_attempt'
p7166
(lp7167
S'0:00:00'
p7168
aV4
p7169
asS'part6_correct_attempt'
p7170
(lp7171
S'0:07:21'
p7172
aV4*(13!/(2!*11!))*(39!/(4!*35!))
p7173
asS'part4_correct_attempt'
p7174
(lp7175
S'0:00:00'
p7176
aV3*13
p7177
asS'part3_correct_attempt'
p7178
(lp7179
S'0:03:40'
p7180
aV13!/(2!*11!)
p7181
asS'part1_correct_attempt'
p7182
(lp7183
S'0:00:00'
p7184
aV52!/(6!*46!)
p7185
asg9
V2015-10-15 02:38:46
p7186
ssVs6deng
p7187
(dp7188
S'part5_correct_attempt'
p7189
(lp7190
S'0:22:46'
p7191
ag3200
asS'part6_incorrect_attempt'
p7192
(lp7193
(S'0:31:30'
p7194
V(4!/(1!3!))*(13!/(3!10!))
p7195
tp7196
asS'part2_correct_attempt'
p7197
(lp7198
S'0:05:11'
p7199
ag3019
asS'part6_correct_attempt'
p7200
(lp7201
S'0:43:54'
p7202
aV(4!/(1!3!))*(13!/(3!10!))*(3!/(1!2!))*(13!/(1!12!))
p7203
asS'part4_correct_attempt'
p7204
(lp7205
S'0:22:35'
p7206
aV39
p7207
asS'part3_correct_attempt'
p7208
(lp7209
S'0:14:36'
p7210
aVC(13,3)
p7211
asS'part1_correct_attempt'
p7212
(lp7213
S'0:00:00'
p7214
aVC(52,4)
p7215
asg9
g3020
ssVjcl084
p7216
(dp7217
S'part5_correct_attempt'
p7218
(lp7219
S'0:03:55'
p7220
aVC(52-13,2)
p7221
asS'part6_incorrect_attempt'
p7222
(lp7223
(S'0:07:38'
p7224
VC(52-13,2)
p7225
tp7226
asS'part2_correct_attempt'
p7227
(lp7228
S'0:02:07'
p7229
ag2724
asS'part6_correct_attempt'
p7230
(lp7231
S'0:09:45'
p7232
aVC(4,1)*C(13,4)*C(52-13,2)
p7233
asS'part4_correct_attempt'
p7234
(lp7235
S'0:03:28'
p7236
aV52-13
p7237
asS'part3_correct_attempt'
p7238
(lp7239
S'0:02:55'
p7240
aVC(13,4)
p7241
asS'part1_correct_attempt'
p7242
(lp7243
S'0:00:00'
p7244
aVC(52,6)
p7245
asg9
g2725
ssVaalhaida
p7246
(dp7247
S'part5_correct_attempt'
p7248
(lp7249
S'0:32:31'
p7250
aV13*3
p7251
asS'part6_incorrect_attempt'
p7252
(lp7253
(S'0:36:50'
p7254
V286*4
p7255
tp7256
asS'part2_correct_attempt'
p7257
(lp7258
S'0:01:34'
p7259
aV4
p7260
asS'part6_correct_attempt'
p7261
(lp7262
S'0:37:56'
p7263
aV(286*4)*13*3
p7264
asS'part4_correct_attempt'
p7265
(lp7266
S'0:31:57'
p7267
aV13*3
p7268
asS'part3_correct_attempt'
p7269
(lp7270
S'0:26:37'
p7271
aV286
p7272
asS'part1_correct_attempt'
p7273
(lp7274
S'0:00:00'
p7275
aV270725
p7276
asg9
V2015-10-15 18:14:15
p7277
ssVsippolit
p7278
(dp7279
S'part5_correct_attempt'
p7280
(lp7281
S'0:02:40'
p7282
aV741
p7283
asS'part6_incorrect_attempt'
p7284
(lp7285
(S'0:34:50'
p7286
V741*78
p7287
tp7288
a(S'0:45:49'
p7289
V741*78*4*39
p7290
tp7291
asS'part2_correct_attempt'
p7292
(lp7293
S'0:00:00'
p7294
aV4
p7295
asS'part6_correct_attempt'
p7296
(lp7297
S'0:46:04'
p7298
aV741*78*4
p7299
asS'part4_correct_attempt'
p7300
(lp7301
S'0:00:00'
p7302
aV39
p7303
asS'part3_correct_attempt'
p7304
(lp7305
S'0:09:26'
p7306
aV78
p7307
asS'part1_correct_attempt'
p7308
(lp7309
S'0:00:00'
p7310
ag546
asg9
V2015-10-12 04:25:17
p7311
ssVmcatozzi
p7312
(dp7313
S'part5_correct_attempt'
p7314
(lp7315
S'0:05:30'
p7316
aVC(39,3)
p7317
asS'part6_incorrect_attempt'
p7318
(lp7319
(S'0:07:55'
p7320
V9139+715
p7321
tp7322
asS'part2_correct_attempt'
p7323
(lp7324
S'0:01:18'
p7325
aV4
p7326
asS'part6_correct_attempt'
p7327
(lp7328
S'0:17:06'
p7329
aV(C(13,4)*C(39,3))*4
p7330
asS'part4_correct_attempt'
p7331
(lp7332
S'0:05:18'
p7333
aV39
p7334
asS'part3_correct_attempt'
p7335
(lp7336
S'0:05:52'
p7337
aVC(13,4)
p7338
asS'part1_correct_attempt'
p7339
(lp7340
S'0:00:00'
p7341
aVC(52,7)
p7342
asg9
V2015-10-14 00:22:04
p7343
ssVaadhakal
p7344
(dp7345
S'part5_correct_attempt'
p7346
(lp7347
S'0:05:47'
p7348
aV741
p7349
asS'part6_incorrect_attempt'
p7350
(lp7351
(S'0:38:33'
p7352
V936*4
p7353
tp7354
asS'part2_correct_attempt'
p7355
(lp7356
S'0:00:35'
p7357
aV4
p7358
asS'part6_correct_attempt'
p7359
(lp7360
S'0:49:59'
p7361
aV4*(13!/(2!*11!))*(39!/(2!*37!))
p7362
asS'part4_correct_attempt'
p7363
(lp7364
S'0:04:40'
p7365
aV39
p7366
asS'part3_correct_attempt'
p7367
(lp7368
S'0:02:08'
p7369
aV78
p7370
asS'part1_correct_attempt'
p7371
(lp7372
S'0:00:00'
p7373
aV52!/(4!*(52-4)!)
p7374
asg9
V2015-10-12 21:08:27
p7375
ssVhmshah
p7376
(dp7377
S'part5_correct_attempt'
p7378
(lp7379
S'0:08:13'
p7380
aVC(39,2)
p7381
asS'part6_incorrect_attempt'
p7382
(lp7383
(S'0:10:01'
p7384
VC (C(52,6), 4)
p7385
tp7386
a(S'0:13:39'
p7387
VC (52, 6)/13
p7388
tp7389
asS'part2_correct_attempt'
p7390
(lp7391
S'0:00:16'
p7392
aV4
p7393
asS'part6_correct_attempt'
p7394
(lp7395
S'0:36:49'
p7396
aV (4*C(13,4)*C(39,2)) 
p7397
asS'part4_correct_attempt'
p7398
(lp7399
S'0:07:31'
p7400
aV39
p7401
asS'part3_correct_attempt'
p7402
(lp7403
S'0:06:53'
p7404
aVC(13,4)
p7405
asS'part1_correct_attempt'
p7406
(lp7407
S'0:00:00'
p7408
aVC(52,6)
p7409
asg9
V2015-10-14 02:18:58
p7410
ssVdtea
p7411
(dp7412
S'part5_correct_attempt'
p7413
(lp7414
S'0:06:39'
p7415
aVC(39,2)
p7416
asS'part6_incorrect_attempt'
p7417
(lp7418
(S'0:09:30'
p7419
V78*39
p7420
tp7421
a(S'0:10:00'
p7422
VC(52,2)
p7423
tp7424
a(S'0:13:36'
p7425
V78*39
p7426
tp7427
asS'part2_correct_attempt'
p7428
(lp7429
S'0:00:17'
p7430
aV4
p7431
asS'part4_correct_attempt'
p7432
(lp7433
S'0:06:26'
p7434
aV13*3
p7435
asS'part3_correct_attempt'
p7436
(lp7437
S'0:04:58'
p7438
aVC(13,2)
p7439
asS'part1_correct_attempt'
p7440
(lp7441
S'0:00:00'
p7442
ag1098
asg9
V2015-10-15 23:21:52
p7443
ssVaordookh
p7444
(dp7445
S'part5_correct_attempt'
p7446
(lp7447
S'0:02:35'
p7448
aVC(39,2)
p7449
asS'part6_incorrect_attempt'
p7450
(lp7451
(S'0:10:15'
p7452
VC(39,2)
p7453
tp7454
a(S'0:10:34'
p7455
VC(39,2)-(C(13,4))
p7456
tp7457
asS'part2_correct_attempt'
p7458
(lp7459
S'0:02:35'
p7460
aV4
p7461
asS'part6_correct_attempt'
p7462
(lp7463
S'0:13:29'
p7464
aV4*C(39,2)*(C(13,4))
p7465
asS'part4_correct_attempt'
p7466
(lp7467
S'0:02:35'
p7468
aV39
p7469
asS'part3_correct_attempt'
p7470
(lp7471
S'0:02:58'
p7472
aVC(13,4)
p7473
asS'part1_correct_attempt'
p7474
(lp7475
S'0:00:00'
p7476
aVC(52,6)
p7477
asg9
V2015-10-15 20:45:30
p7478
ssVvasharma
p7479
(dp7480
S'part5_correct_attempt'
p7481
(lp7482
S'0:58:10'
p7483
ag3363
asS'part6_incorrect_attempt'
p7484
(lp7485
(S'1:01:05'
p7486
V39!/[2!(39-2)!]+13!/[5!(13-5)!]
p7487
tp7488
a(S'1:02:37'
p7489
V39!/[2!(39-2)!]
p7490
tp7491
a(S'1:11:32'
p7492
VC(4,1)*C(13,5)
p7493
tp7494
a(S'1:17:21'
p7495
V52!/[5!(52-5)!]
p7496
tp7497
a(S'1:20:56'
p7498
VC(52,5)
p7499
tp7500
a(S'1:21:36'
p7501
VC(13,1)C(52,5)
p7502
tp7503
a(S'1:22:17'
p7504
VC(13,5)C(4,1)
p7505
tp7506
asS'part2_correct_attempt'
p7507
(lp7508
S'0:06:36'
p7509
ag2894
asS'part6_correct_attempt'
p7510
(lp7511
S'1:28:55'
p7512
ag4217
asS'part4_correct_attempt'
p7513
(lp7514
S'0:57:46'
p7515
ag3818
asS'part3_correct_attempt'
p7516
(lp7517
S'0:25:55'
p7518
ag4224
asS'part1_correct_attempt'
p7519
(lp7520
S'0:00:00'
p7521
ag1146
asg9
g2895
ssVhpc001
p7522
(dp7523
S'part5_correct_attempt'
p7524
(lp7525
S'0:12:38'
p7526
aVC(13*3, 1)
p7527
asS'part6_incorrect_attempt'
p7528
(lp7529
(S'0:16:12'
p7530
V715*39
p7531
tp7532
asS'part2_correct_attempt'
p7533
(lp7534
S'0:02:19'
p7535
aV4
p7536
asS'part6_correct_attempt'
p7537
(lp7538
S'0:18:19'
p7539
aV4*715*39
p7540
asS'part4_correct_attempt'
p7541
(lp7542
S'0:02:19'
p7543
aV13*3
p7544
asS'part3_correct_attempt'
p7545
(lp7546
S'0:11:05'
p7547
aVC(13,4)
p7548
asS'part1_correct_attempt'
p7549
(lp7550
S'0:00:00'
p7551
ag1158
asg9
V2015-10-14 21:38:24
p7552
ssVsyip
p7553
(dp7554
S'part5_correct_attempt'
p7555
(lp7556
S'0:00:00'
p7557
aV39
p7558
asS'part6_incorrect_attempt'
p7559
(lp7560
(S'0:02:12'
p7561
VC(13,3)*39
p7562
tp7563
asS'part2_correct_attempt'
p7564
(lp7565
S'0:00:00'
p7566
aV4
p7567
asS'part6_correct_attempt'
p7568
(lp7569
S'0:05:26'
p7570
aV4*C(13,3)*39
p7571
asS'part4_correct_attempt'
p7572
(lp7573
S'0:00:00'
p7574
aV39
p7575
asS'part3_correct_attempt'
p7576
(lp7577
S'0:02:12'
p7578
aVC(13,3)
p7579
asS'part1_correct_attempt'
p7580
(lp7581
S'0:00:00'
p7582
aVC(52,4)
p7583
asg9
V2015-10-11 23:17:11
p7584
ssVc3chung
p7585
(dp7586
S'part5_correct_attempt'
p7587
(lp7588
S'0:01:16'
p7589
aV575757
p7590
asS'part6_incorrect_attempt'
p7591
(lp7592
(S'15:59:05'
p7593
VC(13,2)C(4,1)
p7594
tp7595
asS'part2_correct_attempt'
p7596
(lp7597
S'-1 day, 23:52:10'
p7598
aV4
p7599
asS'part6_correct_attempt'
p7600
(lp7601
S'15:59:32'
p7602
aVC(13,2)C(4,1)C(39,5)
p7603
asS'part4_correct_attempt'
p7604
(lp7605
S'-1 day, 23:52:10'
p7606
aV39
p7607
asS'part3_correct_attempt'
p7608
(lp7609
S'0:09:06'
p7610
aV78
p7611
asS'part1_correct_attempt'
p7612
(lp7613
S'0:00:00'
p7614
aV133784500
p7615
asg9
V2015-10-15 07:04:54
p7616
ssVj2phung
p7617
(dp7618
S'part5_correct_attempt'
p7619
(lp7620
S'0:04:47'
p7621
aV39!/(2!37!)
p7622
asS'part6_incorrect_attempt'
p7623
(lp7624
(S'1:14:11'
p7625
V(13!/(2!11!))(13!/(1!12!))(13!/(1!12!))
p7626
tp7627
a(S'1:23:43'
p7628
V13*6*13*(4^3)
p7629
tp7630
a(S'1:24:08'
p7631
V13*6*(4^3)
p7632
tp7633
a(S'1:25:10'
p7634
V(13!/(2!11!))*4
p7635
tp7636
asS'part2_correct_attempt'
p7637
(lp7638
S'-1 day, 23:53:39'
p7639
aV4
p7640
asS'part6_correct_attempt'
p7641
(lp7642
S'1:25:38'
p7643
aV(13!/(2!11!))(39!/(2!37!))*4
p7644
asS'part4_correct_attempt'
p7645
(lp7646
S'0:03:37'
p7647
aV39
p7648
asS'part3_correct_attempt'
p7649
(lp7650
S'0:01:28'
p7651
aV13!/(2!11!)
p7652
asS'part1_correct_attempt'
p7653
(lp7654
S'0:00:00'
p7655
ag1251
asg9
V2015-10-14 05:32:22
p7656
sss.