(dp0
V4
p1
ccollections
defaultdict
p2
(c__builtin__
list
p3
tp4
Rp5
S'Digits'
p6
(lp7
(V17!/[4!*(17-4)!]
p8
V210
p9
tp10
a(g8
V9
p11
tp12
a(g8
V10
p13
tp14
a(V17!/[4!*(17-4)!]
p15
V1
p16
tp17
a(g15
V4
p18
tp19
a(V15!/[11!*(15-11)!]
p20
V15
p21
tp22
a(g8
V12
p23
tp24
a(V18!/[2!*(18-2)!]
p25
V306
p26
tp27
a(g25
V171
p28
tp29
a(g25
V32
p30
tp31
a(g25
V171
p32
tp33
a(g25
V324
p34
tp35
a(V11!/[10!*(11-10)!]
p36
V10
p37
tp38
a(V8!/[2!*(8-2)!]
p39
V56
p40
tp41
a(V12!/[4!*(12-4)!]
p42
V990
p43
tp44
a(V5!/[2!*(5-2)!]
p45
V2
p46
tp47
a(g45
V1
p48
tp49
a(V11!/[3!*(11-3)!]
p50
V7425
p51
tp52
a(V7!/[5!*(7-5)!]
p53
V13
p54
tp55
a(V12!/[7!*(12-7)!]
p56
V1584
p57
tp58
a(V9!/[6!*(9-6)!]
p59
V30481920
p60
tp61
a(g59
V7056
p62
tp63
a(g59
V168
p64
tp65
a(g59
V78
p66
tp67
a(V19!/[18!*(19-18)!]
p68
V18
p69
tp70
a(V15!/[14!*(15-14)!]
p71
V1
p72
tp73
a(V14!/[9!*(14-9)!]
p74
V1
p75
tp76
a(g8
V5040
p77
tp78
a(V17!/[14!*(17-14)!]
p79
V462400
p80
tp81
a(g79
V247520
p82
tp83
a(V16!/[4!*(16-4)!]
p84
V5
p85
tp86
a(V15!/[10!*(15-10)!]
p87
V9018009
p88
tp89
a(V13!/[6!*(13-6)!]
p90
V3432
p91
tp92
a(g90
V78
p93
tp94
a(g90
V0
p95
tp96
a(g90
V1
p97
tp98
a(V15!/[10!*(15-10)!]
p99
V261534873600
p100
tp101
a(g99
V3628920
p102
tp103
a(V16!/[2!*(16-2)!]
p104
V35
p105
tp106
a(V6!/[2!*(6-2)!]
p107
V550
p108
tp109
a(g107
V225
p110
tp111
a(g107
V30
p112
tp113
a(g107
V60
p114
tp115
asS"['R.1.0']"
p116
(lp117
(V9!/[8!*(9-8)!]
p118
V17!/(8!9!)
p119
(lp120
(S'R.1.0'
p121
I40320
V8!
p122
V8!
p123
tp124
aVetemlock
p125
(lp126
(V$TestPoints
p127
V0
p128
tp129
a(V$R1
p130
V9
p131
tp132
a(V$R2
p133
V8
p134
tp135
a(V$F1
p136
V0
p137
tp138
a(V$F3
p139
V0
p140
tp141
a(V$F2
p142
V0
p143
tp144
a(V$TestPoints2
p145
V0
p146
tp147
a(V$TestPoints1
p148
V0
p149
tp150
a(V$TestPoints
p151
V0
p152
tp153
a(V$R1
p154
V9
p155
tp156
a(V$R2
p157
V8
p158
tp159
a(V$F1
p160
V0
p161
tp162
a(V$F3
p163
V0
p164
tp165
a(V$F2
p166
V0
p167
tp168
a(V$TestPoints2
p169
V0
p170
tp171
a(V$TestPoints1
p172
V0
p173
tp174
aV2015-10-09 21:12:05
p175
tp176
a(V7!/[6!*(7-6)!]
p177
V13!/(6!*7!)
p178
(lp179
(S'R.1.0'
p180
I720
V6!
p181
V6!
p182
tp183
aVlrlai
p184
(lp185
(V$TestPoints
p186
V0
p187
tp188
a(V$R1
p189
V7
p190
tp191
a(V$R2
p192
V6
p193
tp194
a(V$F1
p195
V0
p196
tp197
a(V$F3
p198
V0
p199
tp200
a(V$F2
p201
V0
p202
tp203
a(V$TestPoints2
p204
V0
p205
tp206
a(V$TestPoints1
p207
V0
p208
tp209
a(V$TestPoints
p210
V0
p211
tp212
a(V$R1
p213
V7
p214
tp215
a(V$R2
p216
V6
p217
tp218
a(V$F1
p219
V0
p220
tp221
a(V$F3
p222
V0
p223
tp224
a(V$F2
p225
V0
p226
tp227
a(V$TestPoints2
p228
V0
p229
tp230
a(V$TestPoints1
p231
V0
p232
tp233
aV2015-10-13 00:43:04
p234
tp235
a(V19!/[14!*(19-14)!]
p236
V16!/(14!(16-14)!)
p237
(lp238
(S'R.1.0'
p239
I87178291200
V14!
p240
V14!
p241
tp242
aVhaliew
p243
(lp244
(V$TestPoints
p245
V0
p246
tp247
a(V$R1
p248
V19
p249
tp250
a(V$R2
p251
V14
p252
tp253
a(V$F1
p254
V0
p255
tp256
a(V$F3
p257
V0
p258
tp259
a(V$F2
p260
V0
p261
tp262
a(V$TestPoints2
p263
V0
p264
tp265
a(V$TestPoints1
p266
V0
p267
tp268
a(V$TestPoints
p269
V0
p270
tp271
a(V$R1
p272
V19
p273
tp274
a(V$R2
p275
V14
p276
tp277
a(V$F1
p278
V0
p279
tp280
a(V$F3
p281
V0
p282
tp283
a(V$F2
p284
V0
p285
tp286
a(V$TestPoints2
p287
V0
p288
tp289
a(V$TestPoints1
p290
V0
p291
tp292
aV2015-10-13 23:30:02
p293
tp294
a(V18!/[13!*(18-13)!]
p295
V20!/(13!(20-13)!)
p296
(lp297
(S'R.1.0'
p298
I6227020800
V13!
p299
V13!
p300
tp301
aVkvass
p302
(lp303
(V$TestPoints
p304
V0
p305
tp306
a(V$R1
p307
V18
p308
tp309
a(V$R2
p310
V13
p311
tp312
a(V$F1
p313
V0
p314
tp315
a(V$F3
p316
V0
p317
tp318
a(V$F2
p319
V0
p320
tp321
a(V$TestPoints2
p322
V0
p323
tp324
a(V$TestPoints1
p325
V0
p326
tp327
a(V$TestPoints
p328
V0
p329
tp330
a(V$R1
p331
V18
p332
tp333
a(V$R2
p334
V13
p335
tp336
a(V$F1
p337
V0
p338
tp339
a(V$F3
p340
V0
p341
tp342
a(V$F2
p343
V0
p344
tp345
a(V$TestPoints2
p346
V0
p347
tp348
a(V$TestPoints1
p349
V0
p350
tp351
aV2015-10-13 23:44:18
p352
tp353
asS"['R.1']"
p354
(lp355
(V19!/[16!*(19-16)!]
p356
V3*[19!]/[(3!)(16!)]
p357
(lp358
(S'R.1'
p359
F125536739328000.0
V16!*(19-16)!
p360
V(3!)(16!)
p361
tp362
aVksrijong
p363
(lp364
(V$TestPoints
p365
V0
p366
tp367
a(V$R1
p368
V19
p369
tp370
a(V$R2
p371
V16
p372
tp373
a(V$F1
p374
V0
p375
tp376
a(V$F3
p377
V0
p378
tp379
a(V$F2
p380
V0
p381
tp382
a(V$TestPoints2
p383
V0
p384
tp385
a(V$TestPoints1
p386
V0
p387
tp388
a(V$TestPoints
p389
V0
p390
tp391
a(V$R1
p392
V19
p393
tp394
a(V$R2
p395
V16
p396
tp397
a(V$F1
p398
V0
p399
tp400
a(V$F3
p401
V0
p402
tp403
a(V$F2
p404
V0
p405
tp406
a(V$TestPoints2
p407
V0
p408
tp409
a(V$TestPoints1
p410
V0
p411
tp412
aV2015-10-15 05:08:48
p413
tp414
asS"['R.1.1']"
p415
(lp416
(V19!/[12!*(19-12)!]
p417
V(19!*19!)/[(19-7)!(19-12)!(12!)(7!)]
p418
(lp419
(S'R.1.1'
p420
I5040
V(19-12)!
p421
V7!
p422
tp423
aVpthsu
p424
(lp425
(V$TestPoints
p426
V0
p427
tp428
a(V$R1
p429
V19
p430
tp431
a(V$R2
p432
V12
p433
tp434
a(V$F1
p435
V0
p436
tp437
a(V$F3
p438
V0
p439
tp440
a(V$F2
p441
V0
p442
tp443
a(V$TestPoints2
p444
V0
p445
tp446
a(V$TestPoints1
p447
V0
p448
tp449
a(V$TestPoints
p450
V0
p451
tp452
a(V$R1
p453
V19
p454
tp455
a(V$R2
p456
V12
p457
tp458
a(V$F1
p459
V0
p460
tp461
a(V$F3
p462
V0
p463
tp464
a(V$F2
p465
V0
p466
tp467
a(V$TestPoints2
p468
V0
p469
tp470
a(V$TestPoints1
p471
V0
p472
tp473
aV2015-10-10 19:24:48
p474
tp475
a(V13!/[9!*(13-9)!]
p476
V(13!/9!)*(13!/4!)
p477
(lp478
(S'R.1.1'
p479
I24
V(13-9)!
p480
V4!
p481
tp482
aVyeh013
p483
(lp484
(V$TestPoints
p485
V0
p486
tp487
a(V$R1
p488
V13
p489
tp490
a(V$R2
p491
V9
p492
tp493
a(V$F1
p494
V0
p495
tp496
a(V$F3
p497
V0
p498
tp499
a(V$F2
p500
V0
p501
tp502
a(V$TestPoints2
p503
V0
p504
tp505
a(V$TestPoints1
p506
V0
p507
tp508
a(V$TestPoints
p509
V0
p510
tp511
a(V$R1
p512
V13
p513
tp514
a(V$R2
p515
V9
p516
tp517
a(V$F1
p518
V0
p519
tp520
a(V$F3
p521
V0
p522
tp523
a(V$F2
p524
V0
p525
tp526
a(V$TestPoints2
p527
V0
p528
tp529
a(V$TestPoints1
p530
V0
p531
tp532
aV2015-10-15 07:09:36
p533
tp534
asS"['R.0', 'R.1.1.0']"
p535
(lp536
(V14!/[2!*(14-2)!]
p537
V14! / (14!/12!)
p538
(lp539
(S'R.0'
p540
I87178291200
V14!
p541
V14!
p542
tp543
a(S'R.1.1.0'
p544
F12.0
V14-2
p545
V12
p546
tp547
aVjhw015
p548
(lp549
(V$TestPoints
p550
V0
p551
tp552
a(V$R1
p553
V14
p554
tp555
a(V$R2
p556
V2
p557
tp558
a(V$F1
p559
V0
p560
tp561
a(V$F3
p562
V0
p563
tp564
a(V$F2
p565
V0
p566
tp567
a(V$TestPoints2
p568
V0
p569
tp570
a(V$TestPoints1
p571
V0
p572
tp573
a(V$TestPoints
p574
V0
p575
tp576
a(V$R1
p577
V14
p578
tp579
a(V$R2
p580
V2
p581
tp582
a(V$F1
p583
V0
p584
tp585
a(V$F3
p586
V0
p587
tp588
a(V$F2
p589
V0
p590
tp591
a(V$TestPoints2
p592
V0
p593
tp594
a(V$TestPoints1
p595
V0
p596
tp597
aV2015-10-15 02:01:35
p598
tp599
asS"['R.0', 'R.1']"
p600
(lp601
(V17!/[15!*(17-15)!]
p602
V17!(15!2!)
p603
(lp604
(S'R.0'
p605
I355687428096000
V17!
p606
V17!
p607
tp608
a(S'R.1'
p609
F2615348736000.0
V15!*(17-15)!
p610
V15!2!
p611
tp612
aVmitopete
p613
(lp614
(V$TestPoints
p615
V0
p616
tp617
a(V$R1
p618
V17
p619
tp620
a(V$R2
p621
V15
p622
tp623
a(V$F1
p624
V0
p625
tp626
a(V$F3
p627
V0
p628
tp629
a(V$F2
p630
V0
p631
tp632
a(V$TestPoints2
p633
V0
p634
tp635
a(V$TestPoints1
p636
V0
p637
tp638
a(V$TestPoints
p639
V0
p640
tp641
a(V$R1
p642
V17
p643
tp644
a(V$R2
p645
V15
p646
tp647
a(V$F1
p648
V0
p649
tp650
a(V$F3
p651
V0
p652
tp653
a(V$F2
p654
V0
p655
tp656
a(V$TestPoints2
p657
V0
p658
tp659
a(V$TestPoints1
p660
V0
p661
tp662
aV2015-10-13 18:00:35
p663
tp664
a(V6!/[3!*(6-3)!]
p665
V6!(3!3!)
p666
(lp667
(S'R.0'
p668
I720
V6!
p669
V6!
p670
tp671
a(S'R.1'
p672
F36.0
V3!*(6-3)!
p673
V3!3!
p674
tp675
aVr1gu
p676
(lp677
(V$TestPoints
p678
V0
p679
tp680
a(V$R1
p681
V6
p682
tp683
a(V$R2
p684
V3
p685
tp686
a(V$F1
p687
V0
p688
tp689
a(V$F3
p690
V0
p691
tp692
a(V$F2
p693
V0
p694
tp695
a(V$TestPoints2
p696
V0
p697
tp698
a(V$TestPoints1
p699
V0
p700
tp701
a(V$TestPoints
p702
V0
p703
tp704
a(V$R1
p705
V6
p706
tp707
a(V$R2
p708
V3
p709
tp710
a(V$F1
p711
V0
p712
tp713
a(V$F3
p714
V0
p715
tp716
a(V$F2
p717
V0
p718
tp719
a(V$TestPoints2
p720
V0
p721
tp722
a(V$TestPoints1
p723
V0
p724
tp725
aV2015-10-15 11:27:14
p726
tp727
a(V13!/[2!*(13-2)!]
p728
V13!(2!11!)
p729
(lp730
(S'R.0'
p731
I6227020800
V13!
p732
V13!
p733
tp734
a(S'R.1'
p735
F79833600.0
V2!*(13-2)!
p736
V2!11!
p737
tp738
aVanislam
p739
(lp740
(V$TestPoints
p741
V0
p742
tp743
a(V$R1
p744
V13
p745
tp746
a(V$R2
p747
V2
p748
tp749
a(V$F1
p750
V0
p751
tp752
a(V$F3
p753
V0
p754
tp755
a(V$F2
p756
V0
p757
tp758
a(V$TestPoints2
p759
V0
p760
tp761
a(V$TestPoints1
p762
V0
p763
tp764
a(V$TestPoints
p765
V0
p766
tp767
a(V$R1
p768
V13
p769
tp770
a(V$R2
p771
V2
p772
tp773
a(V$F1
p774
V0
p775
tp776
a(V$F3
p777
V0
p778
tp779
a(V$F2
p780
V0
p781
tp782
a(V$TestPoints2
p783
V0
p784
tp785
a(V$TestPoints1
p786
V0
p787
tp788
aV2015-10-15 22:51:17
p789
tp790
asS"['R.0']"
p791
(lp792
(V16!/[4!*(16-4)!]
p793
V16!/(16-4)!
p794
(lp795
(S'R.0'
p796
I20922789888000
V16!
p797
V16!
p798
tp799
aVchc286
p800
(lp801
(V$TestPoints
p802
V0
p803
tp804
a(V$R1
p805
V16
p806
tp807
a(V$R2
p808
V4
p809
tp810
a(V$F1
p811
V0
p812
tp813
a(V$F3
p814
V0
p815
tp816
a(V$F2
p817
V0
p818
tp819
a(V$TestPoints2
p820
V0
p821
tp822
a(V$TestPoints1
p823
V0
p824
tp825
a(V$TestPoints
p826
V0
p827
tp828
a(V$R1
p829
V16
p830
tp831
a(V$R2
p832
V4
p833
tp834
a(V$F1
p835
V0
p836
tp837
a(V$F3
p838
V0
p839
tp840
a(V$F2
p841
V0
p842
tp843
a(V$TestPoints2
p844
V0
p845
tp846
a(V$TestPoints1
p847
V0
p848
tp849
aV2015-10-11 22:17:26
p850
tp851
a(V6!/[3!*(6-3)!]
p852
V6!/(4!2!)
p853
(lp854
(S'R.0'
p855
I720
V6!
p856
V6!
p857
tp858
aVlalacson
p859
(lp860
(V$TestPoints
p861
V0
p862
tp863
a(V$R1
p864
V6
p865
tp866
a(V$R2
p867
V3
p868
tp869
a(V$F1
p870
V0
p871
tp872
a(V$F3
p873
V0
p874
tp875
a(V$F2
p876
V0
p877
tp878
a(V$TestPoints2
p879
V0
p880
tp881
a(V$TestPoints1
p882
V0
p883
tp884
a(V$TestPoints
p885
V0
p886
tp887
a(V$R1
p888
V6
p889
tp890
a(V$R2
p891
V3
p892
tp893
a(V$F1
p894
V0
p895
tp896
a(V$F3
p897
V0
p898
tp899
a(V$F2
p900
V0
p901
tp902
a(V$TestPoints2
p903
V0
p904
tp905
a(V$TestPoints1
p906
V0
p907
tp908
aV2015-10-11 16:05:22
p909
tp910
a(g8
V17!/3!
p911
(lp912
(S'R.0'
p913
I355687428096000
V17!
p914
V17!
p915
tp916
aVhkhodada
p917
(lp918
(V$TestPoints
p919
V0
p920
tp921
a(V$R1
p922
V17
p923
tp924
a(V$R2
p925
V4
p926
tp927
a(V$F1
p928
V0
p929
tp930
a(V$F3
p931
V0
p932
tp933
a(V$F2
p934
V0
p935
tp936
a(V$TestPoints2
p937
V0
p938
tp939
a(V$TestPoints1
p940
V0
p941
tp942
a(V$TestPoints
p943
V0
p944
tp945
a(V$R1
p946
V17
p947
tp948
a(V$R2
p949
V4
p950
tp951
a(V$F1
p952
V0
p953
tp954
a(V$F3
p955
V0
p956
tp957
a(V$F2
p958
V0
p959
tp960
a(V$TestPoints2
p961
V0
p962
tp963
a(V$TestPoints1
p964
V0
p965
tp966
aV2015-10-12 03:37:38
p967
tp968
a(V15!/[2!*(15-2)!]
p969
V15!/(15!(15-15)!)
p970
(lp971
(S'R.0'
p972
I1307674368000
V15!
p973
V15!
p974
tp975
aVsippolit
p976
(lp977
(V$TestPoints
p978
V0
p979
tp980
a(V$R1
p981
V15
p982
tp983
a(V$R2
p984
V2
p985
tp986
a(V$F1
p987
V0
p988
tp989
a(V$F3
p990
V0
p991
tp992
a(V$F2
p993
V0
p994
tp995
a(V$TestPoints2
p996
V0
p997
tp998
a(V$TestPoints1
p999
V0
p1000
tp1001
a(V$TestPoints
p1002
V0
p1003
tp1004
a(V$R1
p1005
V15
p1006
tp1007
a(V$R2
p1008
V2
p1009
tp1010
a(V$F1
p1011
V0
p1012
tp1013
a(V$F3
p1014
V0
p1015
tp1016
a(V$F2
p1017
V0
p1018
tp1019
a(V$TestPoints2
p1020
V0
p1021
tp1022
a(V$TestPoints1
p1023
V0
p1024
tp1025
aV2015-10-12 03:51:54
p1026
tp1027
a(V9!/[5!*(9-5)!]
p1028
V9!/(9-5)!
p1029
(lp1030
(S'R.0'
p1031
I362880
V9!
p1032
V9!
p1033
tp1034
aVachava
p1035
(lp1036
(V$TestPoints
p1037
V0
p1038
tp1039
a(V$R1
p1040
V9
p1041
tp1042
a(V$R2
p1043
V5
p1044
tp1045
a(V$F1
p1046
V0
p1047
tp1048
a(V$F3
p1049
V0
p1050
tp1051
a(V$F2
p1052
V0
p1053
tp1054
a(V$TestPoints2
p1055
V0
p1056
tp1057
a(V$TestPoints1
p1058
V0
p1059
tp1060
a(V$TestPoints
p1061
V0
p1062
tp1063
a(V$R1
p1064
V9
p1065
tp1066
a(V$R2
p1067
V5
p1068
tp1069
a(V$F1
p1070
V0
p1071
tp1072
a(V$F3
p1073
V0
p1074
tp1075
a(V$F2
p1076
V0
p1077
tp1078
a(V$TestPoints2
p1079
V0
p1080
tp1081
a(V$TestPoints1
p1082
V0
p1083
tp1084
aV2015-10-13 07:29:35
p1085
tp1086
a(g1028
V9!/(9-4)!
p1087
(lp1088
(S'R.0'
p1089
I362880
V9!
p1090
V9!
p1091
tp1092
aVachava
p1093
g1036
V2015-10-13 07:29:44
p1094
tp1095
a(V15!/[7!*(15-7)!]
p1096
V15!/(15!)
p1097
(lp1098
(S'R.0'
p1099
I1307674368000
V15!
p1100
V15!
p1101
tp1102
aVdsmonaha
p1103
(lp1104
(V$TestPoints
p1105
V0
p1106
tp1107
a(V$R1
p1108
V15
p1109
tp1110
a(V$R2
p1111
V7
p1112
tp1113
a(V$F1
p1114
V0
p1115
tp1116
a(V$F3
p1117
V0
p1118
tp1119
a(V$F2
p1120
V0
p1121
tp1122
a(V$TestPoints2
p1123
V0
p1124
tp1125
a(V$TestPoints1
p1126
V0
p1127
tp1128
a(V$TestPoints
p1129
V0
p1130
tp1131
a(V$R1
p1132
V15
p1133
tp1134
a(V$R2
p1135
V7
p1136
tp1137
a(V$F1
p1138
V0
p1139
tp1140
a(V$F3
p1141
V0
p1142
tp1143
a(V$F2
p1144
V0
p1145
tp1146
a(V$TestPoints2
p1147
V0
p1148
tp1149
a(V$TestPoints1
p1150
V0
p1151
tp1152
aV2015-10-13 17:22:03
p1153
tp1154
a(V20!/[11!*(20-11)!]
p1155
V20!/(2!18!)
p1156
(lp1157
(S'R.0'
p1158
I2432902008176640000
V20!
p1159
V20!
p1160
tp1161
aVcsl030
p1162
(lp1163
(V$TestPoints
p1164
V0
p1165
tp1166
a(V$R1
p1167
V20
p1168
tp1169
a(V$R2
p1170
V11
p1171
tp1172
a(V$F1
p1173
V0
p1174
tp1175
a(V$F3
p1176
V0
p1177
tp1178
a(V$F2
p1179
V0
p1180
tp1181
a(V$TestPoints2
p1182
V0
p1183
tp1184
a(V$TestPoints1
p1185
V0
p1186
tp1187
a(V$TestPoints
p1188
V0
p1189
tp1190
a(V$R1
p1191
V20
p1192
tp1193
a(V$R2
p1194
V11
p1195
tp1196
a(V$F1
p1197
V0
p1198
tp1199
a(V$F3
p1200
V0
p1201
tp1202
a(V$F2
p1203
V0
p1204
tp1205
a(V$TestPoints2
p1206
V0
p1207
tp1208
a(V$TestPoints1
p1209
V0
p1210
tp1211
aV2015-10-14 01:15:43
p1212
tp1213
a(g68
V19! / 1!(19-1)!
p1214
(lp1215
(S'R.0'
p1216
I121645100408832000
V19!
p1217
V19! / 1!
p1218
tp1219
aVskodigal
p1220
(lp1221
(V$TestPoints
p1222
V0
p1223
tp1224
a(V$R1
p1225
V19
p1226
tp1227
a(V$R2
p1228
V18
p1229
tp1230
a(V$F1
p1231
V0
p1232
tp1233
a(V$F3
p1234
V0
p1235
tp1236
a(V$F2
p1237
V0
p1238
tp1239
a(V$TestPoints2
p1240
V0
p1241
tp1242
a(V$TestPoints1
p1243
V0
p1244
tp1245
a(V$TestPoints
p1246
V0
p1247
tp1248
a(V$R1
p1249
V19
p1250
tp1251
a(V$R2
p1252
V18
p1253
tp1254
a(V$F1
p1255
V0
p1256
tp1257
a(V$F3
p1258
V0
p1259
tp1260
a(V$F2
p1261
V0
p1262
tp1263
a(V$TestPoints2
p1264
V0
p1265
tp1266
a(V$TestPoints1
p1267
V0
p1268
tp1269
aV2015-10-14 05:53:07
p1270
tp1271
a(V7!/[5!*(7-5)!]
p1272
V7!/(5!)
p1273
(lp1274
(S'R.0'
p1275
I5040
V7!
p1276
V7!
p1277
tp1278
aVkalang
p1279
(lp1280
(V$TestPoints
p1281
V0
p1282
tp1283
a(V$R1
p1284
V7
p1285
tp1286
a(V$R2
p1287
V5
p1288
tp1289
a(V$F1
p1290
V0
p1291
tp1292
a(V$F3
p1293
V0
p1294
tp1295
a(V$F2
p1296
V0
p1297
tp1298
a(V$TestPoints2
p1299
V0
p1300
tp1301
a(V$TestPoints1
p1302
V0
p1303
tp1304
a(V$TestPoints
p1305
V0
p1306
tp1307
a(V$R1
p1308
V7
p1309
tp1310
a(V$R2
p1311
V5
p1312
tp1313
a(V$F1
p1314
V0
p1315
tp1316
a(V$F3
p1317
V0
p1318
tp1319
a(V$F2
p1320
V0
p1321
tp1322
a(V$TestPoints2
p1323
V0
p1324
tp1325
a(V$TestPoints1
p1326
V0
p1327
tp1328
aV2015-10-14 06:18:43
p1329
tp1330
a(V13!/[8!*(13-8)!]
p1331
V13!/((13-2)! * 2!)
p1332
(lp1333
(S'R.0'
p1334
I6227020800
V13!
p1335
V13!
p1336
tp1337
aVb3hwang
p1338
(lp1339
(V$TestPoints
p1340
V0
p1341
tp1342
a(V$R1
p1343
V13
p1344
tp1345
a(V$R2
p1346
V8
p1347
tp1348
a(V$F1
p1349
V0
p1350
tp1351
a(V$F3
p1352
V0
p1353
tp1354
a(V$F2
p1355
V0
p1356
tp1357
a(V$TestPoints2
p1358
V0
p1359
tp1360
a(V$TestPoints1
p1361
V0
p1362
tp1363
a(V$TestPoints
p1364
V0
p1365
tp1366
a(V$R1
p1367
V13
p1368
tp1369
a(V$R2
p1370
V8
p1371
tp1372
a(V$F1
p1373
V0
p1374
tp1375
a(V$F3
p1376
V0
p1377
tp1378
a(V$F2
p1379
V0
p1380
tp1381
a(V$TestPoints2
p1382
V0
p1383
tp1384
a(V$TestPoints1
p1385
V0
p1386
tp1387
aV2015-10-14 18:10:28
p1388
tp1389
a(g537
V14!/12!
p1390
(lp1391
(S'R.0'
p1392
I87178291200
V14!
p1393
V14!
p1394
tp1395
aVjhw015
p1396
g549
V2015-10-15 01:57:44
p1397
tp1398
a(g537
V14! * (14/(2!12!))
p1399
(lp1400
(S'R.0'
p1401
I87178291200
V14!
p1402
V14!
p1403
tp1404
aVjhw015
p1405
g549
V2015-10-15 01:59:42
p1406
tp1407
a(g537
V14! / P(14,2)
p1408
(lp1409
(S'R.0'
p1410
I87178291200
V14!
p1411
V14!
p1412
tp1413
aVjhw015
p1414
g549
V2015-10-15 02:01:12
p1415
tp1416
a(V15!/[9!*(15-9)!]
p1417
V15!/9!
p1418
(lp1419
(S'R.0'
p1420
I1307674368000
V15!
p1421
V15!
p1422
tp1423
aVv4zhang
p1424
(lp1425
(V$TestPoints
p1426
V0
p1427
tp1428
a(V$R1
p1429
V15
p1430
tp1431
a(V$R2
p1432
V9
p1433
tp1434
a(V$F1
p1435
V0
p1436
tp1437
a(V$F3
p1438
V0
p1439
tp1440
a(V$F2
p1441
V0
p1442
tp1443
a(V$TestPoints2
p1444
V0
p1445
tp1446
a(V$TestPoints1
p1447
V0
p1448
tp1449
a(V$TestPoints
p1450
V0
p1451
tp1452
a(V$R1
p1453
V15
p1454
tp1455
a(V$R2
p1456
V9
p1457
tp1458
a(V$F1
p1459
V0
p1460
tp1461
a(V$F3
p1462
V0
p1463
tp1464
a(V$F2
p1465
V0
p1466
tp1467
a(V$TestPoints2
p1468
V0
p1469
tp1470
a(V$TestPoints1
p1471
V0
p1472
tp1473
aV2015-10-15 06:32:05
p1474
tp1475
a(V15!/[10!*(15-10)!]
p1476
V15!/10!
p1477
(lp1478
(S'R.0'
p1479
I1307674368000
V15!
p1480
V15!
p1481
tp1482
aVasp025
p1483
(lp1484
(V$TestPoints
p1485
V0
p1486
tp1487
a(V$R1
p1488
V15
p1489
tp1490
a(V$R2
p1491
V10
p1492
tp1493
a(V$F1
p1494
V0
p1495
tp1496
a(V$F3
p1497
V0
p1498
tp1499
a(V$F2
p1500
V0
p1501
tp1502
a(V$TestPoints2
p1503
V0
p1504
tp1505
a(V$TestPoints1
p1506
V0
p1507
tp1508
a(V$TestPoints
p1509
V0
p1510
tp1511
a(V$R1
p1512
V15
p1513
tp1514
a(V$R2
p1515
V10
p1516
tp1517
a(V$F1
p1518
V0
p1519
tp1520
a(V$F3
p1521
V0
p1522
tp1523
a(V$F2
p1524
V0
p1525
tp1526
a(V$TestPoints2
p1527
V0
p1528
tp1529
a(V$TestPoints1
p1530
V0
p1531
tp1532
aV2015-10-15 06:36:38
p1533
tp1534
a(g476
V13!/4!
p1535
(lp1536
(S'R.0'
p1537
I6227020800
V13!
p1538
V13!
p1539
tp1540
aVyeh013
p1541
g484
V2015-10-15 07:07:17
p1542
tp1543
a(g476
V13!/4!
p1544
(lp1545
(S'R.0'
p1546
I6227020800
V13!
p1547
V13!
p1548
tp1549
aVyeh013
p1550
g484
V2015-10-15 07:09:08
p1551
tp1552
a(g476
V13!/9!
p1553
(lp1554
(S'R.0'
p1555
I6227020800
V13!
p1556
V13!
p1557
tp1558
aVyeh013
p1559
g484
V2015-10-15 07:09:15
p1560
tp1561
a(g665
V6!(3!)
p1562
(lp1563
(S'R.0'
p1564
I720
V6!
p1565
V6!
p1566
tp1567
aVr1gu
p1568
g677
V2015-10-15 11:30:50
p1569
tp1570
a(V11!/[6!*(11-6)!]
p1571
V11!/(2!(9!))
p1572
(lp1573
(S'R.0'
p1574
I39916800
V11!
p1575
V11!
p1576
tp1577
aVaordookh
p1578
(lp1579
(V$TestPoints
p1580
V0
p1581
tp1582
a(V$R1
p1583
V11
p1584
tp1585
a(V$R2
p1586
V6
p1587
tp1588
a(V$F1
p1589
V0
p1590
tp1591
a(V$F3
p1592
V0
p1593
tp1594
a(V$F2
p1595
V0
p1596
tp1597
a(V$TestPoints2
p1598
V0
p1599
tp1600
a(V$TestPoints1
p1601
V0
p1602
tp1603
a(V$TestPoints
p1604
V0
p1605
tp1606
a(V$R1
p1607
V11
p1608
tp1609
a(V$R2
p1610
V6
p1611
tp1612
a(V$F1
p1613
V0
p1614
tp1615
a(V$F3
p1616
V0
p1617
tp1618
a(V$F2
p1619
V0
p1620
tp1621
a(V$TestPoints2
p1622
V0
p1623
tp1624
a(V$TestPoints1
p1625
V0
p1626
tp1627
aV2015-10-15 14:40:22
p1628
tp1629
a(V13!/[4!*(13-4)!]
p1630
V13!/(11!*2!)
p1631
(lp1632
(S'R.0'
p1633
I6227020800
V13!
p1634
V13!
p1635
tp1636
aVjhc010
p1637
(lp1638
(V$TestPoints
p1639
V0
p1640
tp1641
a(V$R1
p1642
V13
p1643
tp1644
a(V$R2
p1645
V4
p1646
tp1647
a(V$F1
p1648
V0
p1649
tp1650
a(V$F3
p1651
V0
p1652
tp1653
a(V$F2
p1654
V0
p1655
tp1656
a(V$TestPoints2
p1657
V0
p1658
tp1659
a(V$TestPoints1
p1660
V0
p1661
tp1662
a(V$TestPoints
p1663
V0
p1664
tp1665
a(V$R1
p1666
V13
p1667
tp1668
a(V$R2
p1669
V4
p1670
tp1671
a(V$F1
p1672
V0
p1673
tp1674
a(V$F3
p1675
V0
p1676
tp1677
a(V$F2
p1678
V0
p1679
tp1680
a(V$TestPoints2
p1681
V0
p1682
tp1683
a(V$TestPoints1
p1684
V0
p1685
tp1686
aV2015-10-15 15:49:17
p1687
tp1688
asS"['R.0', 'R.1.1']"
p1689
(lp1690
(V19!/[16!*(19-16)!]
p1691
V19!/ (13!(3)!)
p1692
(lp1693
(S'R.0'
p1694
I121645100408832000
V19!
p1695
V19!
p1696
tp1697
a(S'R.1.1'
p1698
I6
V(19-16)!
p1699
V(3)!
p1700
tp1701
aVlywong
p1702
(lp1703
(V$TestPoints
p1704
V0
p1705
tp1706
a(V$R1
p1707
V19
p1708
tp1709
a(V$R2
p1710
V16
p1711
tp1712
a(V$F1
p1713
V0
p1714
tp1715
a(V$F3
p1716
V0
p1717
tp1718
a(V$F2
p1719
V0
p1720
tp1721
a(V$TestPoints2
p1722
V0
p1723
tp1724
a(V$TestPoints1
p1725
V0
p1726
tp1727
a(V$TestPoints
p1728
V0
p1729
tp1730
a(V$R1
p1731
V19
p1732
tp1733
a(V$R2
p1734
V16
p1735
tp1736
a(V$F1
p1737
V0
p1738
tp1739
a(V$F3
p1740
V0
p1741
tp1742
a(V$F2
p1743
V0
p1744
tp1745
a(V$TestPoints2
p1746
V0
p1747
tp1748
a(V$TestPoints1
p1749
V0
p1750
tp1751
aV2015-10-12 23:54:33
p1752
tp1753
a(g537
V14! * (14!/2!12!)
p1754
(lp1755
(S'R.0'
p1756
I87178291200
V14!
p1757
V14!
p1758
tp1759
a(S'R.1.1'
p1760
I479001600
V(14-2)!
p1761
V12!
p1762
tp1763
aVjhw015
p1764
g549
V2015-10-15 01:59:21
p1765
tp1766
a(g537
V14! * (14/(12!))
p1767
(lp1768
(S'R.0'
p1769
I87178291200
V14!
p1770
V14!
p1771
tp1772
a(S'R.1.1'
p1773
I479001600
V(14-2)!
p1774
V12!
p1775
tp1776
aVjhw015
p1777
g549
V2015-10-15 01:59:51
p1778
tp1779
asS'Wrong_Sign'
p1780
(lp1781
(V13!/[9!*(13-9)!]
p1782
V13!/((13-9!)9!)
p1783
tp1784
a(g417
V(19!*19!)/[(19-7)!(19-12!)(12!)(7!)]
p1785
tp1786
a(V18!/[16!*(18-16)!]
p1787
V(-18! + (18!/(18-16)!) + (18!/(18-2)!))
p1788
tp1789
asS'Fraction'
p1790
(lp1791
(V17!/[6!*(17-6)!]
p1792
V[22!/(11!16!)][22!/(6!16!)]
p1793
tp1794
a(V10!/[8!*(10-8)!]
p1795
V10/(2!*(8!))
p1796
tp1797
a(V11!/[2!*(11-2)!]
p1798
V11!/(2!*(11!-2!))
p1799
tp1800
a(V20!/[16!*(20-16)!]
p1801
V10!/4!/16!
p1802
tp1803
a(g1787
V(18! - (18!/(18-16)!) - (18!/(18-2)!))/(16*2)
p1804
tp1805
a(g1787
V(18! - (18!/(18-16)!) - (18!/(18-2)!))/(16!*2!)
p1806
tp1807
a(g295
VC(20,13)/13!
p1808
tp1809
a(V18!/[9!*(18-9)!]
p1810
V(9!*9!)/18!
p1811
tp1812
a(V11!/[3!*(11-3)!]
p1813
V11!/(3!9!)
p1814
tp1815
a(g1331
V13!/((13-2)! * 13!)
p1816
tp1817
a(V17!/[11!*(17-11)!]
p1818
V17!/(11!*16!)
p1819
tp1820
a(V13!/[11!*(13-11)!]
p1821
V13!/(11!*(11-2)!)
p1822
tp1823
a(g1821
V13!/(11!*(13-2)!)
p1824
tp1825
a(g1821
V(13!/(11!*(13-2)!))*2
p1826
tp1827
a(g537
V14/(2!12!)
p1828
tp1829
a(g87
V9018009/(10!5!)
p1830
tp1831
a(g99
V1.3076744^12
p1832
tp1833
a(V15!/[4!*(15-4)!]
p1834
V4!/(4!(15-4)!) + 11!/(11!(15-11)!)
p1835
tp1836
asS"['R.0', 'R.1.0']"
p1837
(lp1838
(V9!/[7!*(9-7)!]
p1839
V9! / (7! * 3!)
p1840
(lp1841
(S'R.0'
p1842
I362880
V9!
p1843
V9!
p1844
tp1845
a(S'R.1.0'
p1846
I5040
V7!
p1847
V7!
p1848
tp1849
aVdruble
p1850
(lp1851
(V$TestPoints
p1852
V0
p1853
tp1854
a(V$R1
p1855
V9
p1856
tp1857
a(V$R2
p1858
V7
p1859
tp1860
a(V$F1
p1861
V0
p1862
tp1863
a(V$F3
p1864
V0
p1865
tp1866
a(V$F2
p1867
V0
p1868
tp1869
a(V$TestPoints2
p1870
V0
p1871
tp1872
a(V$TestPoints1
p1873
V0
p1874
tp1875
aV2015-10-13 00:54:25
p1876
tp1877
a(V9!/[6!*(9-6)!]
p1878
V9!/(6!(4!))
p1879
(lp1880
(S'R.0'
p1881
I362880
V9!
p1882
V9!
p1883
tp1884
a(S'R.1.0'
p1885
I720
V6!
p1886
V6!
p1887
tp1888
aVjcj006
p1889
(lp1890
(V$TestPoints
p1891
V0
p1892
tp1893
a(V$R1
p1894
V9
p1895
tp1896
a(V$R2
p1897
V6
p1898
tp1899
a(V$F1
p1900
V0
p1901
tp1902
a(V$F3
p1903
V0
p1904
tp1905
a(V$F2
p1906
V0
p1907
tp1908
a(V$TestPoints2
p1909
V0
p1910
tp1911
a(V$TestPoints1
p1912
V0
p1913
tp1914
a(V$TestPoints
p1915
V0
p1916
tp1917
a(V$R1
p1918
V9
p1919
tp1920
a(V$R2
p1921
V6
p1922
tp1923
a(V$F1
p1924
V0
p1925
tp1926
a(V$F3
p1927
V0
p1928
tp1929
a(V$F2
p1930
V0
p1931
tp1932
a(V$TestPoints2
p1933
V0
p1934
tp1935
a(V$TestPoints1
p1936
V0
p1937
tp1938
aV2015-10-13 20:28:09
p1939
tp1940
asS"['R']"
p1941
(lp1942
(V18!/[9!*(18-9)!]
p1943
VC(18,9)
p1944
(lp1945
(S'R'
p1946
F48620.0
g1943
g1944
tp1947
aVtdurrer
p1948
(lp1949
(V$TestPoints
p1950
V0
p1951
tp1952
a(V$R1
p1953
V18
p1954
tp1955
a(V$R2
p1956
V9
p1957
tp1958
a(V$F1
p1959
V0
p1960
tp1961
a(V$F3
p1962
V0
p1963
tp1964
a(V$F2
p1965
V0
p1966
tp1967
a(V$TestPoints2
p1968
V0
p1969
tp1970
a(V$TestPoints1
p1971
V0
p1972
tp1973
a(V$TestPoints
p1974
V0
p1975
tp1976
a(V$R1
p1977
V18
p1978
tp1979
a(V$R2
p1980
V9
p1981
tp1982
a(V$F1
p1983
V0
p1984
tp1985
a(V$F3
p1986
V0
p1987
tp1988
a(V$F2
p1989
V0
p1990
tp1991
a(V$TestPoints2
p1992
V0
p1993
tp1994
a(V$TestPoints1
p1995
V0
p1996
tp1997
aV2015-10-09 04:14:32
p1998
tp1999
a(V8!/[4!*(8-4)!]
p2000
VC(8,4)
p2001
(lp2002
(g1946
F70.0
g2000
g2001
tp2003
aVzhw110
p2004
(lp2005
(V$TestPoints
p2006
V0
p2007
tp2008
a(V$R1
p2009
V8
p2010
tp2011
a(V$R2
p2012
V4
p2013
tp2014
a(V$F1
p2015
V0
p2016
tp2017
a(V$F3
p2018
V0
p2019
tp2020
a(V$F2
p2021
V0
p2022
tp2023
a(V$TestPoints2
p2024
V0
p2025
tp2026
a(V$TestPoints1
p2027
V0
p2028
tp2029
a(V$TestPoints
p2030
V0
p2031
tp2032
a(V$R1
p2033
V8
p2034
tp2035
a(V$R2
p2036
V4
p2037
tp2038
a(V$F1
p2039
V0
p2040
tp2041
a(V$F3
p2042
V0
p2043
tp2044
a(V$F2
p2045
V0
p2046
tp2047
a(V$TestPoints2
p2048
V0
p2049
tp2050
a(V$TestPoints1
p2051
V0
p2052
tp2053
aV2015-10-09 04:23:52
p2054
tp2055
a(V13!/[7!*(13-7)!]
p2056
VC(13,7)
p2057
(lp2058
(g1946
F1716.0
g2056
g2057
tp2059
aVlguintu
p2060
(lp2061
(V$TestPoints
p2062
V0
p2063
tp2064
a(V$R1
p2065
V13
p2066
tp2067
a(V$R2
p2068
V7
p2069
tp2070
a(V$F1
p2071
V0
p2072
tp2073
a(V$F3
p2074
V0
p2075
tp2076
a(V$F2
p2077
V0
p2078
tp2079
a(V$TestPoints2
p2080
V0
p2081
tp2082
a(V$TestPoints1
p2083
V0
p2084
tp2085
a(V$TestPoints
p2086
V0
p2087
tp2088
a(V$R1
p2089
V13
p2090
tp2091
a(V$R2
p2092
V7
p2093
tp2094
a(V$F1
p2095
V0
p2096
tp2097
a(V$F3
p2098
V0
p2099
tp2100
a(V$F2
p2101
V0
p2102
tp2103
a(V$TestPoints2
p2104
V0
p2105
tp2106
a(V$TestPoints1
p2107
V0
p2108
tp2109
aV2015-10-09 21:09:26
p2110
tp2111
a(V9!/[5!*(9-5)!]
p2112
VC(9,4)
p2113
(lp2114
(g1946
F126.0
g2112
g2113
tp2115
aVm8woo
p2116
(lp2117
(V$TestPoints
p2118
V0
p2119
tp2120
a(V$R1
p2121
V9
p2122
tp2123
a(V$R2
p2124
V5
p2125
tp2126
a(V$F1
p2127
V0
p2128
tp2129
a(V$F3
p2130
V0
p2131
tp2132
a(V$F2
p2133
V0
p2134
tp2135
a(V$TestPoints2
p2136
V0
p2137
tp2138
a(V$TestPoints1
p2139
V0
p2140
tp2141
a(V$TestPoints
p2142
V0
p2143
tp2144
a(V$R1
p2145
V9
p2146
tp2147
a(V$R2
p2148
V5
p2149
tp2150
a(V$F1
p2151
V0
p2152
tp2153
a(V$F3
p2154
V0
p2155
tp2156
a(V$F2
p2157
V0
p2158
tp2159
a(V$TestPoints2
p2160
V0
p2161
tp2162
a(V$TestPoints1
p2163
V0
p2164
tp2165
aV2015-10-10 00:47:43
p2166
tp2167
a(V11!/[4!*(11-4)!]
p2168
VC(11,4)
p2169
(lp2170
(g1946
F330.0
g2168
g2169
tp2171
aVvsamant
p2172
(lp2173
(V$TestPoints
p2174
V0
p2175
tp2176
a(V$R1
p2177
V11
p2178
tp2179
a(V$R2
p2180
V4
p2181
tp2182
a(V$F1
p2183
V0
p2184
tp2185
a(V$F3
p2186
V0
p2187
tp2188
a(V$F2
p2189
V0
p2190
tp2191
a(V$TestPoints2
p2192
V0
p2193
tp2194
a(V$TestPoints1
p2195
V0
p2196
tp2197
a(V$TestPoints
p2198
V0
p2199
tp2200
a(V$R1
p2201
V11
p2202
tp2203
a(V$R2
p2204
V4
p2205
tp2206
a(V$F1
p2207
V0
p2208
tp2209
a(V$F3
p2210
V0
p2211
tp2212
a(V$F2
p2213
V0
p2214
tp2215
a(V$TestPoints2
p2216
V0
p2217
tp2218
a(V$TestPoints1
p2219
V0
p2220
tp2221
aV2015-10-10 01:15:55
p2222
tp2223
a(V20!/[18!*(20-18)!]
p2224
VC(20, 2)
p2225
(lp2226
(g1946
F190.0
g2224
g2225
tp2227
aVdpereira
p2228
(lp2229
(V$TestPoints
p2230
V0
p2231
tp2232
a(V$R1
p2233
V20
p2234
tp2235
a(V$R2
p2236
V18
p2237
tp2238
a(V$F1
p2239
V0
p2240
tp2241
a(V$F3
p2242
V0
p2243
tp2244
a(V$F2
p2245
V0
p2246
tp2247
a(V$TestPoints2
p2248
V0
p2249
tp2250
a(V$TestPoints1
p2251
V0
p2252
tp2253
a(V$TestPoints
p2254
V0
p2255
tp2256
a(V$R1
p2257
V20
p2258
tp2259
a(V$R2
p2260
V18
p2261
tp2262
a(V$F1
p2263
V0
p2264
tp2265
a(V$F3
p2266
V0
p2267
tp2268
a(V$F2
p2269
V0
p2270
tp2271
a(V$TestPoints2
p2272
V0
p2273
tp2274
a(V$TestPoints1
p2275
V0
p2276
tp2277
aV2015-10-10 05:43:59
p2278
tp2279
a(V8!/[4!*(8-4)!]
p2280
VC(8,4)
p2281
(lp2282
(g1946
F70.0
g2280
g2281
tp2283
aVqfu
p2284
(lp2285
(V$TestPoints
p2286
V0
p2287
tp2288
a(V$R1
p2289
V8
p2290
tp2291
a(V$R2
p2292
V4
p2293
tp2294
a(V$F1
p2295
V0
p2296
tp2297
a(V$F3
p2298
V0
p2299
tp2300
a(V$F2
p2301
V0
p2302
tp2303
a(V$TestPoints2
p2304
V0
p2305
tp2306
a(V$TestPoints1
p2307
V0
p2308
tp2309
a(V$TestPoints
p2310
V0
p2311
tp2312
a(V$R1
p2313
V8
p2314
tp2315
a(V$R2
p2316
V4
p2317
tp2318
a(V$F1
p2319
V0
p2320
tp2321
a(V$F3
p2322
V0
p2323
tp2324
a(V$F2
p2325
V0
p2326
tp2327
a(V$TestPoints2
p2328
V0
p2329
tp2330
a(V$TestPoints1
p2331
V0
p2332
tp2333
aV2015-10-10 15:52:29
p2334
tp2335
a(V11!/[8!*(11-8)!]
p2336
VC(11,8)
p2337
(lp2338
(g1946
F165.0
g2336
g2337
tp2339
aVjdeon
p2340
(lp2341
(V$TestPoints
p2342
V0
p2343
tp2344
a(V$R1
p2345
V11
p2346
tp2347
a(V$R2
p2348
V8
p2349
tp2350
a(V$F1
p2351
V0
p2352
tp2353
a(V$F3
p2354
V0
p2355
tp2356
a(V$F2
p2357
V0
p2358
tp2359
a(V$TestPoints2
p2360
V0
p2361
tp2362
a(V$TestPoints1
p2363
V0
p2364
tp2365
a(V$TestPoints
p2366
V0
p2367
tp2368
a(V$R1
p2369
V11
p2370
tp2371
a(V$R2
p2372
V8
p2373
tp2374
a(V$F1
p2375
V0
p2376
tp2377
a(V$F3
p2378
V0
p2379
tp2380
a(V$F2
p2381
V0
p2382
tp2383
a(V$TestPoints2
p2384
V0
p2385
tp2386
a(V$TestPoints1
p2387
V0
p2388
tp2389
aV2015-10-10 18:33:48
p2390
tp2391
a(V19!/[16!*(19-16)!]
p2392
VC(19,3)
p2393
(lp2394
(g1946
F969.0
g2392
g2393
tp2395
aVsyip
p2396
(lp2397
(V$TestPoints
p2398
V0
p2399
tp2400
a(V$R1
p2401
V19
p2402
tp2403
a(V$R2
p2404
V16
p2405
tp2406
a(V$F1
p2407
V0
p2408
tp2409
a(V$F3
p2410
V0
p2411
tp2412
a(V$F2
p2413
V0
p2414
tp2415
a(V$TestPoints2
p2416
V0
p2417
tp2418
a(V$TestPoints1
p2419
V0
p2420
tp2421
a(V$TestPoints
p2422
V0
p2423
tp2424
a(V$R1
p2425
V19
p2426
tp2427
a(V$R2
p2428
V16
p2429
tp2430
a(V$F1
p2431
V0
p2432
tp2433
a(V$F3
p2434
V0
p2435
tp2436
a(V$F2
p2437
V0
p2438
tp2439
a(V$TestPoints2
p2440
V0
p2441
tp2442
a(V$TestPoints1
p2443
V0
p2444
tp2445
aV2015-10-11 00:26:21
p2446
tp2447
a(V20!/[13!*(20-13)!]
p2448
VC(20,7)
p2449
(lp2450
(g1946
F77520.0
g2448
g2449
tp2451
aVv3doan
p2452
(lp2453
(V$TestPoints
p2454
V0
p2455
tp2456
a(V$R1
p2457
V20
p2458
tp2459
a(V$R2
p2460
V13
p2461
tp2462
a(V$F1
p2463
V0
p2464
tp2465
a(V$F3
p2466
V0
p2467
tp2468
a(V$F2
p2469
V0
p2470
tp2471
a(V$TestPoints2
p2472
V0
p2473
tp2474
a(V$TestPoints1
p2475
V0
p2476
tp2477
a(V$TestPoints
p2478
V0
p2479
tp2480
a(V$R1
p2481
V20
p2482
tp2483
a(V$R2
p2484
V13
p2485
tp2486
a(V$F1
p2487
V0
p2488
tp2489
a(V$F3
p2490
V0
p2491
tp2492
a(V$F2
p2493
V0
p2494
tp2495
a(V$TestPoints2
p2496
V0
p2497
tp2498
a(V$TestPoints1
p2499
V0
p2500
tp2501
aV2015-10-11 01:16:59
p2502
tp2503
a(g793
VC(16,4)
p2504
(lp2505
(g1946
F1820.0
g793
g2504
tp2506
aVchc286
p2507
g801
V2015-10-11 22:16:31
p2508
tp2509
a(V17!/[6!*(17-6)!]
p2510
VC(17,11)
p2511
(lp2512
(g1946
F12376.0
g2510
g2511
tp2513
aVasetters
p2514
(lp2515
(V$TestPoints
p2516
V0
p2517
tp2518
a(V$R1
p2519
V17
p2520
tp2521
a(V$R2
p2522
V6
p2523
tp2524
a(V$F1
p2525
V0
p2526
tp2527
a(V$F3
p2528
V0
p2529
tp2530
a(V$F2
p2531
V0
p2532
tp2533
a(V$TestPoints2
p2534
V0
p2535
tp2536
a(V$TestPoints1
p2537
V0
p2538
tp2539
a(V$TestPoints
p2540
V0
p2541
tp2542
a(V$R1
p2543
V17
p2544
tp2545
a(V$R2
p2546
V6
p2547
tp2548
a(V$F1
p2549
V0
p2550
tp2551
a(V$F3
p2552
V0
p2553
tp2554
a(V$F2
p2555
V0
p2556
tp2557
a(V$TestPoints2
p2558
V0
p2559
tp2560
a(V$TestPoints1
p2561
V0
p2562
tp2563
aV2015-10-12 02:24:50
p2564
tp2565
a(g8
VC(17,4)
p2566
(lp2567
(g1946
F2380.0
g8
g2566
tp2568
aVhkhodada
p2569
g918
V2015-10-12 03:00:45
p2570
tp2571
a(V15!/[13!*(15-13)!]
p2572
VC(15,13)
p2573
(lp2574
(g1946
F105.0
g2572
g2573
tp2575
aVw4shin
p2576
(lp2577
(V$TestPoints
p2578
V0
p2579
tp2580
a(V$R1
p2581
V15
p2582
tp2583
a(V$R2
p2584
V13
p2585
tp2586
a(V$F1
p2587
V0
p2588
tp2589
a(V$F3
p2590
V0
p2591
tp2592
a(V$F2
p2593
V0
p2594
tp2595
a(V$TestPoints2
p2596
V0
p2597
tp2598
a(V$TestPoints1
p2599
V0
p2600
tp2601
a(V$TestPoints
p2602
V0
p2603
tp2604
a(V$R1
p2605
V15
p2606
tp2607
a(V$R2
p2608
V13
p2609
tp2610
a(V$F1
p2611
V0
p2612
tp2613
a(V$F3
p2614
V0
p2615
tp2616
a(V$F2
p2617
V0
p2618
tp2619
a(V$TestPoints2
p2620
V0
p2621
tp2622
a(V$TestPoints1
p2623
V0
p2624
tp2625
aV2015-10-12 03:30:36
p2626
tp2627
a(V18!/[14!*(18-14)!]
p2628
VC(18, 4)
p2629
(lp2630
(g1946
F3060.0
g2628
g2629
tp2631
aVahh002
p2632
(lp2633
(V$TestPoints
p2634
V0
p2635
tp2636
a(V$R1
p2637
V18
p2638
tp2639
a(V$R2
p2640
V14
p2641
tp2642
a(V$F1
p2643
V0
p2644
tp2645
a(V$F3
p2646
V0
p2647
tp2648
a(V$F2
p2649
V0
p2650
tp2651
a(V$TestPoints2
p2652
V0
p2653
tp2654
a(V$TestPoints1
p2655
V0
p2656
tp2657
aV2015-10-12 07:49:04
p2658
tp2659
a(V8!/[4!*(8-4)!]
p2660
VC(8,4)
p2661
(lp2662
(g1946
F70.0
g2660
g2661
tp2663
aVphodgson
p2664
(lp2665
(V$TestPoints
p2666
V0
p2667
tp2668
a(V$R1
p2669
V8
p2670
tp2671
a(V$R2
p2672
V4
p2673
tp2674
a(V$F1
p2675
V0
p2676
tp2677
a(V$F3
p2678
V0
p2679
tp2680
a(V$F2
p2681
V0
p2682
tp2683
a(V$TestPoints2
p2684
V0
p2685
tp2686
a(V$TestPoints1
p2687
V0
p2688
tp2689
a(V$TestPoints
p2690
V0
p2691
tp2692
a(V$R1
p2693
V8
p2694
tp2695
a(V$R2
p2696
V4
p2697
tp2698
a(V$F1
p2699
V0
p2700
tp2701
a(V$F3
p2702
V0
p2703
tp2704
a(V$F2
p2705
V0
p2706
tp2707
a(V$TestPoints2
p2708
V0
p2709
tp2710
a(V$TestPoints1
p2711
V0
p2712
tp2713
aV2015-10-13 02:13:03
p2714
tp2715
a(V20!/[9!*(20-9)!]
p2716
VC(20,9)
p2717
(lp2718
(g1946
F167960.0
g2716
g2717
tp2719
aVmsaguiar
p2720
(lp2721
(V$TestPoints
p2722
V0
p2723
tp2724
a(V$R1
p2725
V20
p2726
tp2727
a(V$R2
p2728
V9
p2729
tp2730
a(V$F1
p2731
V0
p2732
tp2733
a(V$F3
p2734
V0
p2735
tp2736
a(V$F2
p2737
V0
p2738
tp2739
a(V$TestPoints2
p2740
V0
p2741
tp2742
a(V$TestPoints1
p2743
V0
p2744
tp2745
a(V$TestPoints
p2746
V0
p2747
tp2748
a(V$R1
p2749
V20
p2750
tp2751
a(V$R2
p2752
V9
p2753
tp2754
a(V$F1
p2755
V0
p2756
tp2757
a(V$F3
p2758
V0
p2759
tp2760
a(V$F2
p2761
V0
p2762
tp2763
a(V$TestPoints2
p2764
V0
p2765
tp2766
a(V$TestPoints1
p2767
V0
p2768
tp2769
aV2015-10-13 05:23:28
p2770
tp2771
a(V16!/[4!*(16-4)!]
p2772
VC(16,4)
p2773
(lp2774
(g1946
F1820.0
g2772
g2773
tp2775
aVs2chaudh
p2776
(lp2777
(V$TestPoints
p2778
V0
p2779
tp2780
a(V$R1
p2781
V16
p2782
tp2783
a(V$R2
p2784
V4
p2785
tp2786
a(V$F1
p2787
V0
p2788
tp2789
a(V$F3
p2790
V0
p2791
tp2792
a(V$F2
p2793
V0
p2794
tp2795
a(V$TestPoints2
p2796
V0
p2797
tp2798
a(V$TestPoints1
p2799
V0
p2800
tp2801
a(V$TestPoints
p2802
V0
p2803
tp2804
a(V$R1
p2805
V16
p2806
tp2807
a(V$R2
p2808
V4
p2809
tp2810
a(V$F1
p2811
V0
p2812
tp2813
a(V$F3
p2814
V0
p2815
tp2816
a(V$F2
p2817
V0
p2818
tp2819
a(V$TestPoints2
p2820
V0
p2821
tp2822
a(V$TestPoints1
p2823
V0
p2824
tp2825
aV2015-10-13 05:47:11
p2826
tp2827
a(g602
VC(17,15)
p2828
(lp2829
(g1946
F136.0
g602
g2828
tp2830
aVmitopete
p2831
g614
V2015-10-13 17:47:29
p2832
tp2833
a(V19!/[8!*(19-8)!]
p2834
VC(19,8)
p2835
(lp2836
(g1946
F75582.0
g2834
g2835
tp2837
aVksmurlo
p2838
(lp2839
(V$TestPoints
p2840
V0
p2841
tp2842
a(V$R1
p2843
V19
p2844
tp2845
a(V$R2
p2846
V8
p2847
tp2848
a(V$F1
p2849
V0
p2850
tp2851
a(V$F3
p2852
V0
p2853
tp2854
a(V$F2
p2855
V0
p2856
tp2857
a(V$TestPoints2
p2858
V0
p2859
tp2860
a(V$TestPoints1
p2861
V0
p2862
tp2863
a(V$TestPoints
p2864
V0
p2865
tp2866
a(V$R1
p2867
V19
p2868
tp2869
a(V$R2
p2870
V8
p2871
tp2872
a(V$F1
p2873
V0
p2874
tp2875
a(V$F3
p2876
V0
p2877
tp2878
a(V$F2
p2879
V0
p2880
tp2881
a(V$TestPoints2
p2882
V0
p2883
tp2884
a(V$TestPoints1
p2885
V0
p2886
tp2887
aV2015-10-13 23:06:52
p2888
tp2889
a(V7!/[3!*(7-3)!]
p2890
VC(7,3)
p2891
(lp2892
(g1946
F35.0
g2890
g2891
tp2893
aVmcatozzi
p2894
(lp2895
(V$TestPoints
p2896
V0
p2897
tp2898
a(V$R1
p2899
V7
p2900
tp2901
a(V$R2
p2902
V3
p2903
tp2904
a(V$F1
p2905
V0
p2906
tp2907
a(V$F3
p2908
V0
p2909
tp2910
a(V$F2
p2911
V0
p2912
tp2913
a(V$TestPoints2
p2914
V0
p2915
tp2916
a(V$TestPoints1
p2917
V0
p2918
tp2919
a(V$TestPoints
p2920
V0
p2921
tp2922
a(V$R1
p2923
V7
p2924
tp2925
a(V$R2
p2926
V3
p2927
tp2928
a(V$F1
p2929
V0
p2930
tp2931
a(V$F3
p2932
V0
p2933
tp2934
a(V$F2
p2935
V0
p2936
tp2937
a(V$TestPoints2
p2938
V0
p2939
tp2940
a(V$TestPoints1
p2941
V0
p2942
tp2943
aV2015-10-13 23:37:07
p2944
tp2945
a(V19!/[9!*(19-9)!]
p2946
VC(19,9)
p2947
(lp2948
(g1946
F92378.0
g2946
g2947
tp2949
aVl5han
p2950
(lp2951
(V$TestPoints
p2952
V0
p2953
tp2954
a(V$R1
p2955
V19
p2956
tp2957
a(V$R2
p2958
V9
p2959
tp2960
a(V$F1
p2961
V0
p2962
tp2963
a(V$F3
p2964
V0
p2965
tp2966
a(V$F2
p2967
V0
p2968
tp2969
a(V$TestPoints2
p2970
V0
p2971
tp2972
a(V$TestPoints1
p2973
V0
p2974
tp2975
a(V$TestPoints
p2976
V0
p2977
tp2978
a(V$R1
p2979
V19
p2980
tp2981
a(V$R2
p2982
V9
p2983
tp2984
a(V$F1
p2985
V0
p2986
tp2987
a(V$F3
p2988
V0
p2989
tp2990
a(V$F2
p2991
V0
p2992
tp2993
a(V$TestPoints2
p2994
V0
p2995
tp2996
a(V$TestPoints1
p2997
V0
p2998
tp2999
aV2015-10-14 04:15:09
p3000
tp3001
a(g1272
VC(7,5)
p3002
(lp3003
(g1946
F21.0
g1272
g3002
tp3004
aVkalang
p3005
g1280
V2015-10-14 06:17:21
p3006
tp3007
a(V11!/[8!*(11-8)!]
p3008
VC(11,8)
p3009
(lp3010
(g1946
F165.0
g3008
g3009
tp3011
aVe9brown
p3012
(lp3013
(V$TestPoints
p3014
V0
p3015
tp3016
a(V$R1
p3017
V11
p3018
tp3019
a(V$R2
p3020
V8
p3021
tp3022
a(V$F1
p3023
V0
p3024
tp3025
a(V$F3
p3026
V0
p3027
tp3028
a(V$F2
p3029
V0
p3030
tp3031
a(V$TestPoints2
p3032
V0
p3033
tp3034
a(V$TestPoints1
p3035
V0
p3036
tp3037
a(V$TestPoints
p3038
V0
p3039
tp3040
a(V$R1
p3041
V11
p3042
tp3043
a(V$R2
p3044
V8
p3045
tp3046
a(V$F1
p3047
V0
p3048
tp3049
a(V$F3
p3050
V0
p3051
tp3052
a(V$F2
p3053
V0
p3054
tp3055
a(V$TestPoints2
p3056
V0
p3057
tp3058
a(V$TestPoints1
p3059
V0
p3060
tp3061
aV2015-10-14 08:30:00
p3062
tp3063
a(V20!/[2!*(20-2)!]
p3064
VC(20,2)
p3065
(lp3066
(g1946
F190.0
g3064
g3065
tp3067
aVtcn013
p3068
(lp3069
(V$TestPoints
p3070
V0
p3071
tp3072
a(V$R1
p3073
V20
p3074
tp3075
a(V$R2
p3076
V2
p3077
tp3078
a(V$F1
p3079
V0
p3080
tp3081
a(V$F3
p3082
V0
p3083
tp3084
a(V$F2
p3085
V0
p3086
tp3087
a(V$TestPoints2
p3088
V0
p3089
tp3090
a(V$TestPoints1
p3091
V0
p3092
tp3093
a(V$TestPoints
p3094
V0
p3095
tp3096
a(V$R1
p3097
V20
p3098
tp3099
a(V$R2
p3100
V2
p3101
tp3102
a(V$F1
p3103
V0
p3104
tp3105
a(V$F3
p3106
V0
p3107
tp3108
a(V$F2
p3109
V0
p3110
tp3111
a(V$TestPoints2
p3112
V0
p3113
tp3114
a(V$TestPoints1
p3115
V0
p3116
tp3117
aV2015-10-14 19:03:53
p3118
tp3119
a(g8
VC(17,13)
p3120
(lp3121
(g1946
F2380.0
g8
g3120
tp3122
aVhkhodada
p3123
g918
V2015-10-14 19:15:06
p3124
tp3125
a(V16!/[5!*(16-5)!]
p3126
VC(16,11)
p3127
(lp3128
(g1946
F4368.0
g3126
g3127
tp3129
aVa2ahmed
p3130
(lp3131
(V$TestPoints
p3132
V0
p3133
tp3134
a(V$R1
p3135
V16
p3136
tp3137
a(V$R2
p3138
V5
p3139
tp3140
a(V$F1
p3141
V0
p3142
tp3143
a(V$F3
p3144
V0
p3145
tp3146
a(V$F2
p3147
V0
p3148
tp3149
a(V$TestPoints2
p3150
V0
p3151
tp3152
a(V$TestPoints1
p3153
V0
p3154
tp3155
a(V$TestPoints
p3156
V0
p3157
tp3158
a(V$R1
p3159
V16
p3160
tp3161
a(V$R2
p3162
V5
p3163
tp3164
a(V$F1
p3165
V0
p3166
tp3167
a(V$F3
p3168
V0
p3169
tp3170
a(V$F2
p3171
V0
p3172
tp3173
a(V$TestPoints2
p3174
V0
p3175
tp3176
a(V$TestPoints1
p3177
V0
p3178
tp3179
aV2015-10-15 03:26:37
p3180
tp3181
a(V13!/[4!*(13-4)!]
p3182
VC(13,4)
p3183
(lp3184
(g1946
F715.0
g3182
g3183
tp3185
aValhung
p3186
(lp3187
(V$TestPoints
p3188
V0
p3189
tp3190
a(V$R1
p3191
V13
p3192
tp3193
a(V$R2
p3194
V4
p3195
tp3196
a(V$F1
p3197
V0
p3198
tp3199
a(V$F3
p3200
V0
p3201
tp3202
a(V$F2
p3203
V0
p3204
tp3205
a(V$TestPoints2
p3206
V0
p3207
tp3208
a(V$TestPoints1
p3209
V0
p3210
tp3211
a(V$TestPoints
p3212
V0
p3213
tp3214
a(V$R1
p3215
V13
p3216
tp3217
a(V$R2
p3218
V4
p3219
tp3220
a(V$F1
p3221
V0
p3222
tp3223
a(V$F3
p3224
V0
p3225
tp3226
a(V$F2
p3227
V0
p3228
tp3229
a(V$TestPoints2
p3230
V0
p3231
tp3232
a(V$TestPoints1
p3233
V0
p3234
tp3235
aV2015-10-15 19:01:37
p3236
tp3237
a(V10!/[3!*(10-3)!]
p3238
VC(10,3)
p3239
(lp3240
(g1946
F120.0
g3238
g3239
tp3241
aVdac064
p3242
(lp3243
(V$TestPoints
p3244
V0
p3245
tp3246
a(V$R1
p3247
V10
p3248
tp3249
a(V$R2
p3250
V3
p3251
tp3252
a(V$F1
p3253
V0
p3254
tp3255
a(V$F3
p3256
V0
p3257
tp3258
a(V$F2
p3259
V0
p3260
tp3261
a(V$TestPoints2
p3262
V0
p3263
tp3264
a(V$TestPoints1
p3265
V0
p3266
tp3267
a(V$TestPoints
p3268
V0
p3269
tp3270
a(V$R1
p3271
V10
p3272
tp3273
a(V$R2
p3274
V3
p3275
tp3276
a(V$F1
p3277
V0
p3278
tp3279
a(V$F3
p3280
V0
p3281
tp3282
a(V$F2
p3283
V0
p3284
tp3285
a(V$TestPoints2
p3286
V0
p3287
tp3288
a(V$TestPoints1
p3289
V0
p3290
tp3291
aV2015-10-15 19:30:45
p3292
tp3293
a(V18!/[2!*(18-2)!]
p3294
VC(18,2)
p3295
(lp3296
(g1946
F153.0
g3294
g3295
tp3297
aVb1green
p3298
(lp3299
(V$TestPoints
p3300
V0
p3301
tp3302
a(V$R1
p3303
V18
p3304
tp3305
a(V$R2
p3306
V2
p3307
tp3308
a(V$F1
p3309
V0
p3310
tp3311
a(V$F3
p3312
V0
p3313
tp3314
a(V$F2
p3315
V0
p3316
tp3317
a(V$TestPoints2
p3318
V0
p3319
tp3320
a(V$TestPoints1
p3321
V0
p3322
tp3323
a(V$TestPoints
p3324
V0
p3325
tp3326
a(V$R1
p3327
V18
p3328
tp3329
a(V$R2
p3330
V2
p3331
tp3332
a(V$F1
p3333
V0
p3334
tp3335
a(V$F3
p3336
V0
p3337
tp3338
a(V$F2
p3339
V0
p3340
tp3341
a(V$TestPoints2
p3342
V0
p3343
tp3344
a(V$TestPoints1
p3345
V0
p3346
tp3347
aV2015-10-15 20:34:38
p3348
tp3349
a(V11!/[3!*(11-3)!]
p3350
VC(11,3)
p3351
(lp3352
(g1946
F165.0
g3350
g3351
tp3353
aVjtfrankl
p3354
(lp3355
(V$TestPoints
p3356
V0
p3357
tp3358
a(V$R1
p3359
V11
p3360
tp3361
a(V$R2
p3362
V3
p3363
tp3364
a(V$F1
p3365
V0
p3366
tp3367
a(V$F3
p3368
V0
p3369
tp3370
a(V$F2
p3371
V0
p3372
tp3373
a(V$TestPoints2
p3374
V0
p3375
tp3376
a(V$TestPoints1
p3377
V0
p3378
tp3379
a(V$TestPoints
p3380
V0
p3381
tp3382
a(V$R1
p3383
V11
p3384
tp3385
a(V$R2
p3386
V3
p3387
tp3388
a(V$F1
p3389
V0
p3390
tp3391
a(V$F3
p3392
V0
p3393
tp3394
a(V$F2
p3395
V0
p3396
tp3397
a(V$TestPoints2
p3398
V0
p3399
tp3400
a(V$TestPoints1
p3401
V0
p3402
tp3403
aV2015-10-15 20:43:14
p3404
tp3405
a(g728
VC(13,2)
p3406
(lp3407
(g1946
F78.0
g728
g3406
tp3408
aVanislam
p3409
g740
V2015-10-15 22:51:00
p3410
tp3411
ass.