(dp0
V4
p1
(dp2
Vb3hwang
p3
(dp4
S'part4_correct_attempt'
p5
(lp6
S'0:07:14'
p7
aV13!/((13-8)! * 8!)
p8
asS'part4_incorrect_attempt'
p9
(lp10
(S'0:03:05'
p11
VC(13,2)
p12
tp13
asS'first_attempt'
p14
V2015-10-14 18:03:24
p15
ssVstarinia
p16
(dp17
S'part4_correct_attempt'
p18
(lp19
S'0:06:21'
p20
aV((5!)/(5-3)!)/3!
p21
asS'part4_incorrect_attempt'
p22
(lp23
(S'0:05:21'
p24
V5!/((1!)(5-1)!) + 5!/((2!)(5-2)!) + 5!/((3!)(5-3)!) + 5!/((4!)(5-4)!) + 5!/((5!)(5-5)!)
p25
tp26
asg14
V2015-10-15 01:12:06
p27
ssVjfalcone
p28
(dp29
S'part4_correct_attempt'
p30
(lp31
S'0:15:13'
p32
aV8!/(5!3!)
p33
asS'part4_incorrect_attempt'
p34
(lp35
(S'0:12:26'
p36
V8!/[5!(3)!] + 8!/[3!(5)!]
p37
tp38
a(S'0:15:04'
p39
V8!/(5!)(3!)
p40
tp41
asg14
V2015-10-14 21:51:22
p42
ssVccn001
p43
(dp44
S'part4_correct_attempt'
p45
(lp46
S'1 day, 1:56:48'
p47
aV18!/(16!*2!)
p48
asS'part4_incorrect_attempt'
p49
(lp50
(S'0:00:00'
p51
V18 * 16 * 2
p52
tp53
a(S'0:01:31'
p54
V16! * 2!
p55
tp56
a(S'0:03:13'
p57
V18!/(16!(18-16)!)+18!/(2!(18-2)!)
p58
tp59
a(S'0:03:35'
p60
V18*18!/(16!(18-16)!)+18!/(2!(18-2)!)
p61
tp62
a(S'18:38:38'
p63
V((18+18-1)!)/(18!*(18-1)!)
p64
tp65
a(S'19:11:09'
p66
V(35!)/(2*17!*(35-17)!)
p67
tp68
a(S'19:55:43'
p69
V18^18
p70
tp71
a(S'20:00:26'
p72
V18^16 + 18^2
p73
tp74
a(S'1 day, 1:49:24'
p75
V18! - (18!/(18-16)!) - (18!/(18-2)!)
p76
tp77
asg14
V2015-10-12 21:17:07
p78
ssVhkhodada
p79
(dp80
S'part4_correct_attempt'
p81
(lp82
S'4 days, 2:50:52'
p83
aV2380
p84
asS'part4_incorrect_attempt'
p85
(lp86
(S'0:38:17'
p87
V10!
p88
tp89
a(S'2:10:23'
p90
V2*4!*13!
p91
tp92
a(S'1 day, 10:15:14'
p93
V10!
p94
tp95
a(S'1 day, 10:15:21'
p96
V13!
p97
tp98
a(S'1 day, 10:36:15'
p99
VP(17,4)
p100
tp101
a(S'1 day, 10:39:05'
p102
V17!
p103
tp104
a(S'1 day, 11:11:06'
p105
V2*4!*13!
p106
tp107
a(S'1 day, 11:12:19'
p108
V4!*C(17,4)
p109
tp110
a(S'1 day, 14:42:32'
p111
V17!
p112
tp113
a(S'4 days, 2:48:51'
p114
V17!
p115
tp116
asg14
V2015-10-10 16:24:50
p117
ssVlrlai
p118
(dp119
S'part4_correct_attempt'
p120
(lp121
S'2 days, 1:23:03'
p122
aV7
p123
asS'part4_incorrect_attempt'
p124
(lp125
(S'0:02:47'
p126
VC(7+3-1, 7)
p127
tp128
a(S'0:03:18'
p129
V9!/(7!*2)
p130
tp131
a(S'2 days, 0:37:04'
p132
VC(12,6)*C(7,6)
p133
tp134
a(S'2 days, 0:40:07'
p135
V12!/(6!(6!))*6
p136
tp137
a(S'2 days, 0:40:41'
p138
V12!/(6!(6!))*7
p139
tp140
a(S'2 days, 1:22:16'
p141
VC(7,6)+C(7,1)
p142
tp143
a(S'2 days, 1:22:58'
p144
VC(7,1)
p145
tp146
asg14
V2015-10-11 00:00:50
p147
ssVaggouw
p148
(dp149
S'part4_correct_attempt'
p150
(lp151
S'0:10:41'
p152
aV9!/(7!*2!)
p153
asS'part4_incorrect_attempt'
p154
(lp155
(S'0:10:20'
p156
V9!
p157
tp158
asg14
V2015-10-15 07:41:55
p159
ssVglcohen
p160
(dp161
S'part4_correct_attempt'
p162
(lp163
S'0:00:39'
p164
aV11!/(3!8!)
p165
asS'part4_incorrect_attempt'
p166
(lp167
(S'0:00:00'
p168
V11!
p169
tp170
asg14
V2015-10-13 04:44:23
p171
ssVppanourg
p172
(dp173
S'part4_correct_attempt'
p174
(lp175
S'0:03:55'
p176
aV17!/(12!(5!))
p177
asS'part4_incorrect_attempt'
p178
(lp179
(S'0:01:38'
p180
V17!
p181
tp182
asg14
V2015-10-14 21:43:06
p183
ssVewbrenna
p184
(dp185
S'part4_correct_attempt'
p186
(lp187
S'0:01:34'
p188
aV6!/(2!*4!)
p189
asS'part4_incorrect_attempt'
p190
(lp191
(S'0:01:26'
p192
V6!/2!*4!
p193
tp194
asg14
V2015-10-12 19:41:05
p195
ssVmasaro
p196
(dp197
S'part4_correct_attempt'
p198
(lp199
S'0:27:34'
p200
aV14!/(5!*9!)+1
p201
asS'part4_incorrect_attempt'
p202
(lp203
(S'0:00:00'
p204
V14!/9!+14!/5!
p205
tp206
a(S'0:03:34'
p207
V14!/(5!*9!)+14!/(5!*9)
p208
tp209
asg14
V2015-10-10 00:23:16
p210
ssVrwthomps
p211
(dp212
S'part4_correct_attempt'
p213
(lp214
S'0:00:42'
p215
aV6!/[2! * (6 - 2)!]
p216
asS'part4_incorrect_attempt'
p217
(lp218
(S'0:00:00'
p219
V6!/2!(6 - 2)!
p220
tp221
asg14
V2015-10-11 22:09:39
p222
ssVpcdo
p223
(dp224
S'part4_correct_attempt'
p225
(lp226
S'0:09:12'
p227
aV5!/(4!(5-4)!)
p228
asS'part4_incorrect_attempt'
p229
(lp230
(S'0:08:54'
p231
VP(5,4)
p232
tp233
asg14
V2015-10-13 18:31:14
p234
ssVmroknich
p235
(dp236
S'part4_correct_attempt'
p237
(lp238
S'0:03:50'
p239
aV11!/(3!*(8!))
p240
asS'part4_incorrect_attempt'
p241
(lp242
(S'0:02:45'
p243
VC(11,3) * C(11,8)
p244
tp245
asg14
V2015-10-13 18:28:32
p246
ssVmrchin
p247
(dp248
S'part4_correct_attempt'
p249
(lp250
S'2 days, 19:11:57'
p251
aV19!/(2!*17!)
p252
asS'part4_incorrect_attempt'
p253
(lp254
(S'0:07:13'
p255
V19!/[(17)!*2!] + 19!/[(2)!*17!]
p256
tp257
a(S'0:08:34'
p258
V2^17
p259
tp260
asg14
V2015-10-12 03:22:48
p261
ssVt2li
p262
(dp263
S'part4_correct_attempt'
p264
(lp265
S'1:50:10'
p266
aV84
p267
asS'part4_incorrect_attempt'
p268
(lp269
(S'0:27:27'
p270
V9!*4*6!*3!
p271
tp272
a(S'0:29:22'
p273
V6!3!9!
p274
tp275
a(S'0:29:35'
p276
V6!3!9!/4
p277
tp278
a(S'0:44:28'
p279
VP(9,6)P(9,3)
p280
tp281
a(S'1:31:45'
p282
V7056*9!
p283
tp284
a(S'1:39:02'
p285
VC(9,6) + C(9,3)
p286
tp287
asg14
V2015-10-14 03:32:38
p288
ssVjic212
p289
(dp290
S'part4_correct_attempt'
p291
(lp292
S'0:13:09'
p293
aV17!/(4!*13!)
p294
asS'part4_incorrect_attempt'
p295
(lp296
(S'0:05:04'
p297
V4!*13!
p298
tp299
a(S'0:05:20'
p300
V(4!)*(13!)
p301
tp302
a(S'0:07:02'
p303
VC(10,4)
p304
tp305
a(S'0:09:03'
p306
V4!
p307
tp308
a(S'0:12:30'
p309
V4^4*13^13
p310
tp311
a(S'0:12:48'
p312
V4!*13!
p313
tp314
asg14
V2015-10-11 22:45:52
p315
ssVs2chaudh
p316
(dp317
S'part4_correct_attempt'
p318
(lp319
S'1 day, 21:25:09'
p320
aV(16!/(12!*4!))
p321
asS'part4_incorrect_attempt'
p322
(lp323
(S'-1 day, 23:52:13'
p324
VC(19,3)+C(27,11)
p325
tp326
a(S'0:02:13'
p327
V12!*4!
p328
tp329
a(S'11:35:19'
p330
VC(16,4)*C(16,12)
p331
tp332
a(S'14:31:01'
p333
VC(19,15)*C(27,15)
p334
tp335
a(S'1 day, 20:48:58'
p336
VP(19,15)*P(27,15)
p337
tp338
a(S'1 day, 21:00:12'
p339
V(16!/(4!*12!))*(16!/(12!*4!))
p340
tp341
a(S'1 day, 21:00:30'
p342
V(16!/(4!*12!))+(16!/(12!*4!))
p343
tp344
asg14
V2015-10-13 05:41:55
p345
ssVsyc078
p346
(dp347
S'part4_correct_attempt'
p348
(lp349
S'0:01:46'
p350
aV7! / (3! 4!)
p351
asS'part4_incorrect_attempt'
p352
(lp353
(S'-1 day, 23:22:44'
p354
V3! * 4!
p355
tp356
asg14
V2015-10-15 00:15:03
p357
ssVmnrahman
p358
(dp359
S'part4_correct_attempt'
p360
(lp361
S'0:00:47'
p362
aV6!/(3!(6-3)!)
p363
asS'part4_incorrect_attempt'
p364
(lp365
(S'0:00:00'
p366
V5!/(4!(5-4)!)
p367
tp368
a(S'0:00:21'
p369
V5!/4!(5-4)!
p370
tp371
asg14
V2015-10-15 06:57:03
p372
ssVffhaddad
p373
(dp374
S'part4_correct_attempt'
p375
(lp376
S'1:02:40'
p377
aV17!/(6!11!)
p378
asS'part4_incorrect_attempt'
p379
(lp380
(S'0:06:19'
p381
V(33 16)
p382
tp383
a(S'0:15:32'
p384
V33!/(16!17!)
p385
tp386
a(S'0:23:18'
p387
V[22!/(6!(22-6)!)][27!/(16!(27-16)!)]
p388
tp389
a(S'0:35:09'
p390
V33!/(16!17!)
p391
tp392
a(S'0:56:17'
p393
V[22!/(6!16!)][27!/(11!16!)]
p394
tp395
a(S'0:56:27'
p396
V[22!/(6!16!)]+[27!/(11!16!)]
p397
tp398
a(S'0:57:03'
p399
V[22!/(6!16!)]*[27!/(11!16!)]
p400
tp401
a(S'0:59:07'
p402
V13037895*74613
p403
tp404
a(S'0:59:16'
p405
V13037895+74613
p406
tp407
asg14
V2015-10-10 14:56:46
p408
ssVdkostins
p409
(dp410
S'part4_correct_attempt'
p411
(lp412
S'0:02:30'
p413
aV16!/((16-2)!2!)
p414
asS'part4_incorrect_attempt'
p415
(lp416
(S'0:01:14'
p417
V14!/((14-2)!2!)
p418
tp419
asg14
V2015-10-15 18:17:52
p420
ssVjnatale
p421
(dp422
S'part4_correct_attempt'
p423
(lp424
S'0:12:55'
p425
aV17!/(14!(17-14)!)
p426
asS'part4_incorrect_attempt'
p427
(lp428
(S'0:04:43'
p429
VC(17,14)*C(17,3)
p430
tp431
a(S'0:08:13'
p432
V(17!/(3)!)*(17!/(14)!)
p433
tp434
a(S'0:10:18'
p435
V17!
p436
tp437
asg14
V2015-10-15 03:20:07
p438
ssVagarango
p439
(dp440
S'part4_correct_attempt'
p441
(lp442
S'0:31:33'
p443
aV3003
p444
asS'part4_incorrect_attempt'
p445
(lp446
(S'0:16:35'
p447
V1.3076744*10^12
p448
tp449
asg14
V2015-10-15 14:48:17
p450
ssVjew037
p451
(dp452
S'part4_correct_attempt'
p453
(lp454
S'0:07:07'
p455
aV12!/(7!*5!)
p456
asS'part4_incorrect_attempt'
p457
(lp458
(S'0:05:10'
p459
VC(12,7) + C(12,5)
p460
tp461
asg14
V2015-10-14 03:53:03
p462
ssVlalacson
p463
(dp464
S'part4_correct_attempt'
p465
(lp466
S'0:02:46'
p467
aV6!/(3!3!)
p468
asS'part4_incorrect_attempt'
p469
(lp470
(S'0:02:07'
p471
VC(6,2)
p472
tp473
asg14
V2015-10-11 16:02:46
p474
ssVm4salaza
p475
(dp476
S'part4_incorrect_attempt'
p477
(lp478
(S'0:02:00'
p479
V15!
p480
tp481
asg14
V2015-10-15 23:16:26
p482
ssVagian
p483
(dp484
S'part4_correct_attempt'
p485
(lp486
S'0:00:00'
p487
aV9!/[4!*(9-4)!]
p488
asS'part4_incorrect_attempt'
p489
(lp490
(S'-1 day, 23:59:13'
p491
V11!/[7!*(11-7)!]
p492
tp493
asg14
V2015-10-15 07:17:25
p494
ssVtol003
p495
(dp496
S'part4_correct_attempt'
p497
(lp498
S'0:00:47'
p499
aV15!/[5!(15-5)!]
p500
asS'part4_incorrect_attempt'
p501
(lp502
(S'0:00:00'
p503
V15!/[5!(15-5)!]*[15!/[10!(15-10)!]]
p504
tp505
asg14
V2015-10-13 23:41:15
p506
ssVvsosnovs
p507
(dp508
S'part4_correct_attempt'
p509
(lp510
S'0:13:53'
p511
aV16!/(4!12!)
p512
asS'part4_incorrect_attempt'
p513
(lp514
(S'0:13:39'
p515
V16!/4!12!
p516
tp517
asg14
V2015-10-15 03:37:58
p518
ssVaakumar
p519
(dp520
S'part4_correct_attempt'
p521
(lp522
S'0:03:33'
p523
aV15!/[9!6!]
p524
asS'part4_incorrect_attempt'
p525
(lp526
(S'0:03:17'
p527
V15!
p528
tp529
asg14
V2015-10-11 01:14:46
p530
ssVhachrist
p531
(dp532
S'part4_correct_attempt'
p533
(lp534
S'0:12:39'
p535
aV19!/(12!*7!)
p536
asS'part4_incorrect_attempt'
p537
(lp538
(S'0:04:00'
p539
V((19!)/((7!)12!)) * ((19!)/((12!)*7!))
p540
tp541
a(S'0:04:23'
p542
V((19!)/((7!)12!)) + ((19!)/((12!)*7!))
p543
tp544
asg14
V2015-10-14 21:58:11
p545
ssVjhw015
p546
(dp547
S'part4_correct_attempt'
p548
(lp549
S'0:10:10'
p550
aV91
p551
asS'part4_incorrect_attempt'
p552
(lp553
(S'0:04:35'
p554
V14!/2!12!
p555
tp556
a(S'0:09:37'
p557
V14!
p558
tp559
asg14
V2015-10-15 01:53:15
p560
ssVdsmonaha
p561
(dp562
S'part4_correct_attempt'
p563
(lp564
S'0:04:43'
p565
aV15!/(7!(8!))
p566
asS'part4_incorrect_attempt'
p567
(lp568
(S'0:02:59'
p569
V15!
p570
tp571
asg14
V2015-10-13 17:19:29
p572
ssVyeh013
p573
(dp574
S'part4_correct_attempt'
p575
(lp576
S'0:16:46'
p577
aV13!/(4!*9!)
p578
asS'part4_incorrect_attempt'
p579
(lp580
(S'0:08:20'
p581
V12!/4!
p582
tp583
a(S'0:09:14'
p584
V12!/8!
p585
tp586
asg14
V2015-10-15 06:58:22
p587
ssVpthsu
p588
(dp589
S'part4_correct_attempt'
p590
(lp591
S'0:11:46'
p592
aV19!/(12!7!)
p593
asS'part4_incorrect_attempt'
p594
(lp595
(S'0:03:15'
p596
VC(19,12)*C(19,7)
p597
tp598
asg14
V2015-10-10 19:20:03
p599
ssVdsriniva
p600
(dp601
S'part4_correct_attempt'
p602
(lp603
S'0:00:44'
p604
aV10!/(5!*5!)
p605
asS'part4_incorrect_attempt'
p606
(lp607
(S'0:00:00'
p608
V6+5+4+3+2+1
p609
tp610
asg14
V2015-10-15 19:48:31
p611
ssVetemlock
p612
(dp613
S'part4_correct_attempt'
p614
(lp615
S'0:13:34'
p616
aV9!/(1!8!)
p617
asS'part4_incorrect_attempt'
p618
(lp619
(S'0:00:00'
p620
V9!
p621
tp622
a(S'0:00:12'
p623
VC(9,1)
p624
tp625
a(S'0:13:17'
p626
V9!/1!
p627
tp628
asg14
V2015-10-09 21:07:47
p629
ssVasp025
p630
(dp631
S'part4_correct_attempt'
p632
(lp633
S'4:43:06'
p634
aV(15!/(5!(15-5)!))
p635
asS'part4_incorrect_attempt'
p636
(lp637
(S'4:38:45'
p638
V15!
p639
tp640
a(S'4:42:46'
p641
V(15!/(10!(15-10)!))(15!/(5!(15-5)!))
p642
tp643
asg14
V2015-10-15 01:57:41
p644
ssVsthapa
p645
(dp646
S'part4_correct_attempt'
p647
(lp648
S'0:06:38'
p649
aV8!/(2!*6!)
p650
asS'part4_incorrect_attempt'
p651
(lp652
(S'0:03:57'
p653
V8!/(2!(8-2)!) + (8!/(6!(8-6)!))
p654
tp655
a(S'0:04:35'
p656
V8!/(2!(8-2)!) + (8!/(4!(8-4)!))
p657
tp658
asg14
V2015-10-15 04:26:37
p659
ssVcstringh
p660
(dp661
S'part4_correct_attempt'
p662
(lp663
S'0:08:46'
p664
aV(17!/(15!(2!)))
p665
asS'part4_incorrect_attempt'
p666
(lp667
(S'0:03:59'
p668
V(17!/(15!(2!))) + (17!/(2!(15!)))
p669
tp670
asg14
V2015-10-12 21:47:38
p671
ssVcsl030
p672
(dp673
S'part4_correct_attempt'
p674
(lp675
S'0:06:26'
p676
aV20!/(11!9!)
p677
asS'part4_incorrect_attempt'
p678
(lp679
(S'0:02:52'
p680
VC(20,2)
p681
tp682
asg14
V2015-10-14 01:12:20
p683
ssVarc013
p684
(dp685
S'part4_correct_attempt'
p686
(lp687
S'0:02:02'
p688
aV7
p689
asS'part4_incorrect_attempt'
p690
(lp691
(S'0:01:53'
p692
VC(7,1)
p693
tp694
asg14
V2015-10-13 02:56:35
p695
ssVrbdoming
p696
(dp697
S'part4_correct_attempt'
p698
(lp699
S'0:01:37'
p700
aV15
p701
asS'part4_incorrect_attempt'
p702
(lp703
(S'0:00:00'
p704
V(6 4)
p705
tp706
asg14
V2015-10-14 18:21:22
p707
ssVmitopete
p708
(dp709
S'part4_correct_attempt'
p710
(lp711
S'0:18:12'
p712
aV17!/(15!2!)
p713
asS'part4_incorrect_attempt'
p714
(lp715
(S'0:06:07'
p716
V17!/(15!(17-15)!)+17!/(2!(17-2)!)
p717
tp718
asg14
V2015-10-13 17:42:31
p719
ssVn2patil
p720
(dp721
S'part4_correct_attempt'
p722
(lp723
S'0:04:46'
p724
aV5!/(3!2!)
p725
asS'part4_incorrect_attempt'
p726
(lp727
(S'0:02:41'
p728
V5!/(5-3)!2!
p729
tp730
asg14
V2015-10-13 15:27:44
p731
ssVvasharma
p732
(dp733
S'part4_correct_attempt'
p734
(lp735
S'0:04:02'
p736
aV14!/[(14-4)!4!]
p737
asS'part4_incorrect_attempt'
p738
(lp739
(S'0:03:54'
p740
V10!/[(10-4)!4!]
p741
tp742
asg14
V2015-10-10 02:55:16
p743
ssVvolim
p744
(dp745
S'part4_correct_attempt'
p746
(lp747
S'0:00:35'
p748
aV(18!)/((2!)(16!))
p749
asS'part4_incorrect_attempt'
p750
(lp751
(S'-1 day, 23:56:36'
p752
V(18!)/(16!)(2!)
p753
tp754
a(S'0:00:00'
p755
V(18!)/(2!)(16!)
p756
tp757
asg14
V2015-10-12 22:19:18
p758
ssVajvanega
p759
(dp760
S'part4_correct_attempt'
p761
(lp762
S'0:12:54'
p763
aV(14!)/(5!9!)
p764
asS'part4_incorrect_attempt'
p765
(lp766
(S'0:09:17'
p767
V7*13
p768
tp769
a(S'0:10:00'
p770
V14!
p771
tp772
a(S'0:10:17'
p773
V9!5!
p774
tp775
asg14
V2015-10-14 17:45:17
p776
ssVaordookh
p777
(dp778
S'part4_correct_attempt'
p779
(lp780
S'0:05:40'
p781
aV(11!/(6!(5!)))
p782
asS'part4_incorrect_attempt'
p783
(lp784
(S'0:01:15'
p785
VC(11,2)
p786
tp787
asg14
V2015-10-15 14:38:24
p788
ssVakg009
p789
(dp790
S'part4_correct_attempt'
p791
(lp792
S'0:03:35'
p793
aV8! / (2! * 6!)
p794
asS'part4_incorrect_attempt'
p795
(lp796
(S'0:02:10'
p797
V8! / (8-6)!  + 8! / (8-2)!
p798
tp799
asg14
V2015-10-15 22:15:08
p800
ssVmtrafeca
p801
(dp802
S'part4_incorrect_attempt'
p803
(lp804
(S'17:49:08'
p805
V15!
p806
tp807
a(S'17:49:21'
p808
V15^15
p809
tp810
asg14
V2015-10-11 04:39:07
p811
ssVmjethani
p812
(dp813
S'part4_correct_attempt'
p814
(lp815
S'0:15:54'
p816
aV28
p817
asS'part4_incorrect_attempt'
p818
(lp819
(S'0:11:04'
p820
V8!
p821
tp822
a(S'0:14:48'
p823
V8!
p824
tp825
asg14
V2015-10-13 04:44:03
p826
ssVkosung
p827
(dp828
S'part4_correct_attempt'
p829
(lp830
S'0:00:15'
p831
aV15!/(7!8!)
p832
asS'part4_incorrect_attempt'
p833
(lp834
(S'0:00:00'
p835
V15!/7!8!
p836
tp837
asg14
V2015-10-15 05:50:43
p838
ssVjit002
p839
(dp840
S'part4_correct_attempt'
p841
(lp842
S'0:02:18'
p843
aV11!/5!/6!
p844
asS'part4_incorrect_attempt'
p845
(lp846
(S'0:00:00'
p847
V6*6!
p848
tp849
asg14
V2015-10-15 04:17:52
p850
sss.