(dp0
V1
p1
ccollections
defaultdict
p2
(c__builtin__
list
p3
tp4
Rp5
S'Digits'
p6
(lp7
(V[C(10,6)+C(10,6+1)+C(10,6+2)+C(10,6+3)+1]/(2^10)
p8
V210
p9
tp10
a(V[C(10,8)+C(10,8+1)+1]/(2^10)
p11
V80
p12
tp13
a(V[C(10,6)+C(10,6+1)+C(10,6+2)+C(10,6+3)+1]/(2^10)
p14
V1
p15
tp16
a(V[C(10,7)+C(10,7+1)+C(10,7+2)+1]/(2^10)
p17
V30
p18
tp19
a(V[C(10,6)+C(10,6+1)+C(10,6+2)+C(10,6+3)+1]/(2^10)
p20
V6
p21
tp22
asS"['R.0.0.0', 'R.1']"
p23
(lp24
(V[C(10,8)+C(10,8+1)+1]/(2^10)
p25
V(45/((1/2)^10)) + (10/((1/2)^10)) + (1/((1/2)^10))
p26
(lp27
(S'R.0.0.0'
p28
I45
VC(10,8)
p29
V45
p30
tp31
a(S'R.1'
p32
F1024.0
V2^10
p33
V1/((1/2)^10)
p34
tp35
aVsyc078
p36
(lp37
(V$p
p38
V8
p39
tp40
a(V$a
p41
V0
p42
tp43
aV2015-10-14 23:54:49
p44
tp45
asS"['R.1.0']"
p46
(lp47
(V[C(10,8)+C(10,8+1)+1]/(2^10)
p48
V10!/[2!8!]
p49
(lp50
(S'R.1.0'
p51
F2.0
V2
p52
V2!
p53
tp54
aVjmmcalex
p55
(lp56
(V$p
p57
V8
p58
tp59
a(V$a
p60
V0
p61
tp62
a(V$p
p63
V8
p64
tp65
a(V$a
p66
V0
p67
tp68
aV2015-10-12 22:57:41
p69
tp70
a(V[C(10,8)+C(10,8+1)+1]/(2^10)
p71
V10!/(2!8!)
p72
(lp73
(S'R.1.0'
p74
F2.0
g52
V2!
p75
tp76
aVspw006
p77
(lp78
(V$p
p79
V8
p80
tp81
a(V$a
p82
V0
p83
tp84
a(V$p
p85
V8
p86
tp87
a(V$a
p88
V0
p89
tp90
aV2015-10-13 17:52:38
p91
tp92
a(V[C(10,8)+C(10,8+1)+1]/(2^10)
p93
V90/2^11
p94
(lp95
(S'R.1.0'
p96
F2.0
g52
g52
tp97
aVppanourg
p98
(lp99
(V$p
p100
V8
p101
tp102
a(V$a
p103
V0
p104
tp105
a(V$p
p106
V8
p107
tp108
a(V$a
p109
V0
p110
tp111
aV2015-10-14 21:10:26
p112
tp113
asS"['R.1']"
p114
(lp115
(V[C(10,6)+C(10,6+1)+C(10,6+2)+C(10,6+3)+1]/(2^10)
p116
V((11*10*9*8*7)/(20*6))/2^10
p117
(lp118
(S'R.1'
p119
F1024.0
V2^10
p120
V2^10
p121
tp122
aVajvanega
p123
(lp124
(V$p
p125
V6
p126
tp127
a(V$a
p128
V0
p129
tp130
a(V$p
p131
V6
p132
tp133
a(V$a
p134
V0
p135
tp136
aV2015-10-09 00:25:51
p137
tp138
a(V[C(10,6)+C(10,6+1)+C(10,6+2)+C(10,6+3)+1]/(2^10)
p139
V(10!/(4!*6!))/(2**10)
p140
(lp141
(S'R.1'
p142
F1024.0
V2^10
p143
V2**10
p144
tp145
aVjguanzho
p146
(lp147
(V$p
p148
V6
p149
tp150
a(V$a
p151
V0
p152
tp153
a(V$p
p154
V6
p155
tp156
a(V$a
p157
V0
p158
tp159
aV2015-10-09 01:33:30
p160
tp161
a(V[C(10,6)+C(10,6+1)+C(10,6+2)+C(10,6+3)+1]/(2^10)
p162
V210/2^10
p163
(lp164
(S'R.1'
p165
F1024.0
V2^10
p166
V2^10
p167
tp168
aVacs008
p169
(lp170
(V$p
p171
V6
p172
tp173
a(V$a
p174
V0
p175
tp176
a(V$p
p177
V6
p178
tp179
a(V$a
p180
V0
p181
tp182
aV2015-10-09 02:12:28
p183
tp184
a(V[C(10,8)+C(10,8+1)+1]/(2^10)
p185
V45/(2^10)
p186
(lp187
(S'R.1'
p188
F1024.0
V2^10
p189
V2^10
p190
tp191
aVachinn
p192
(lp193
(V$p
p194
V8
p195
tp196
a(V$a
p197
V0
p198
tp199
a(V$p
p200
V8
p201
tp202
a(V$a
p203
V0
p204
tp205
aV2015-10-09 02:28:18
p206
tp207
a(V[C(10,7)+C(10,7+1)+C(10,7+2)+1]/(2^10)
p208
VC(10,3)/2^10
p209
(lp210
(S'R.1'
p211
F1024.0
V2^10
p212
V2^10
p213
tp214
aVqfu
p215
(lp216
(V$p
p217
V7
p218
tp219
a(V$a
p220
V0
p221
tp222
a(V$p
p223
V7
p224
tp225
a(V$a
p226
V0
p227
tp228
aV2015-10-09 03:53:30
p229
tp230
a(V[C(10,8)+C(10,8+1)+1]/(2^10)
p231
V45/(2^10)
p232
(lp233
(S'R.1'
p234
F1024.0
V2^10
p235
V2^10
p236
tp237
aVhkhodada
p238
(lp239
(V$p
p240
V8
p241
tp242
a(V$a
p243
V0
p244
tp245
a(V$p
p246
V8
p247
tp248
a(V$a
p249
V0
p250
tp251
aV2015-10-09 04:57:46
p252
tp253
a(V[C(10,6)+C(10,6+1)+C(10,6+2)+C(10,6+3)+1]/(2^10)
p254
VC(10,6)/1024
p255
(lp256
(S'R.1'
p257
F1024.0
V2^10
p258
V1024
p259
tp260
aVetemlock
p261
(lp262
(V$p
p263
V6
p264
tp265
a(V$a
p266
V0
p267
tp268
a(V$p
p269
V6
p270
tp271
a(V$a
p272
V0
p273
tp274
aV2015-10-09 18:12:19
p275
tp276
a(V[C(10,7)+C(10,7+1)+C(10,7+2)+1]/(2^10)
p277
V173/2^10
p278
(lp279
(S'R.1'
p280
F1024.0
V2^10
p281
V2^10
p282
tp283
aVmpanelo
p284
(lp285
(V$p
p286
V7
p287
tp288
a(V$a
p289
V0
p290
tp291
a(V$p
p292
V7
p293
tp294
a(V$a
p295
V0
p296
tp297
aV2015-10-09 18:17:59
p298
tp299
a(g231
V45/1024
p300
(lp301
(S'R.1'
p302
F1024.0
V2^10
p303
V1024
p304
tp305
aVhkhodada
p306
g239
V2015-10-09 19:40:52
p307
tp308
a(V[C(10,6)+C(10,6+1)+C(10,6+2)+C(10,6+3)+1]/(2^10)
p309
V210/2**10
p310
(lp311
(S'R.1'
p312
F1024.0
V2^10
p313
V2**10
p314
tp315
aVdan029
p316
(lp317
(V$p
p318
V6
p319
tp320
a(V$a
p321
V0
p322
tp323
a(V$p
p324
V6
p325
tp326
a(V$a
p327
V0
p328
tp329
aV2015-10-09 22:29:51
p330
tp331
a(V[C(10,6)+C(10,6+1)+C(10,6+2)+C(10,6+3)+1]/(2^10)
p332
VC(10,4)/2^10
p333
(lp334
(S'R.1'
p335
F1024.0
V2^10
p336
V2^10
p337
tp338
aVbmilton
p339
(lp340
(V$p
p341
V6
p342
tp343
a(V$a
p344
V0
p345
tp346
a(V$p
p347
V6
p348
tp349
a(V$a
p350
V0
p351
tp352
aV2015-10-09 22:47:41
p353
tp354
a(V[C(10,6)+C(10,6+1)+C(10,6+2)+C(10,6+3)+1]/(2^10)
p355
V[9!/(6!*3!)+ 9!/(5!*4!)]/2^10
p356
(lp357
(S'R.1'
p358
F1024.0
V2^10
p359
V2^10
p360
tp361
aVggaddi
p362
(lp363
(V$p
p364
V6
p365
tp366
a(V$a
p367
V0
p368
tp369
a(V$p
p370
V6
p371
tp372
a(V$a
p373
V0
p374
tp375
aV2015-10-10 05:23:25
p376
tp377
a(V[C(10,7)+C(10,7+1)+C(10,7+2)+1]/(2^10)
p378
V(10!/(3!*7!))/(2**10)
p379
(lp380
(S'R.1'
p381
F1024.0
V2^10
p382
V2**10
p383
tp384
aVtcuddy
p385
(lp386
(V$p
p387
V7
p388
tp389
a(V$a
p390
V0
p391
tp392
a(V$p
p393
V7
p394
tp395
a(V$a
p396
V0
p397
tp398
aV2015-10-10 18:14:06
p399
tp400
a(V[C(10,8)+C(10,8+1)+1]/(2^10)
p401
VC(10,8)/2^10
p402
(lp403
(S'R.1'
p404
F1024.0
V2^10
p405
V2^10
p406
tp407
aVxil109
p408
(lp409
(V$p
p410
V8
p411
tp412
a(V$a
p413
V0
p414
tp415
a(V$p
p416
V8
p417
tp418
a(V$a
p419
V0
p420
tp421
aV2015-10-10 18:31:58
p422
tp423
a(V[C(10,7)+C(10,7+1)+C(10,7+2)+1]/(2^10)
p424
V10!/(3!*7!)/2^10
p425
(lp426
(S'R.1'
p427
F1024.0
V2^10
p428
V2^10
p429
tp430
aVkew017
p431
(lp432
(V$p
p433
V7
p434
tp435
a(V$a
p436
V0
p437
tp438
a(V$p
p439
V7
p440
tp441
a(V$a
p442
V0
p443
tp444
aV2015-10-10 22:18:44
p445
tp446
a(V[C(10,6)+C(10,6+1)+C(10,6+2)+C(10,6+3)+1]/(2^10)
p447
VC(10,6)/(2^10)
p448
(lp449
(S'R.1'
p450
F1024.0
V2^10
p451
V2^10
p452
tp453
aVttimmons
p454
(lp455
(V$p
p456
V6
p457
tp458
a(V$a
p459
V0
p460
tp461
a(V$p
p462
V6
p463
tp464
a(V$a
p465
V0
p466
tp467
aV2015-10-11 00:32:57
p468
tp469
a(V[C(10,7)+C(10,7+1)+C(10,7+2)+1]/(2^10)
p470
VC(10,7) / 2^10
p471
(lp472
(S'R.1'
p473
F1024.0
V2^10
p474
V2^10
p475
tp476
aVv3doan
p477
(lp478
(V$p
p479
V7
p480
tp481
a(V$a
p482
V0
p483
tp484
a(V$p
p485
V7
p486
tp487
a(V$a
p488
V0
p489
tp490
aV2015-10-11 00:43:24
p491
tp492
a(V[C(10,6)+C(10,6+1)+C(10,6+2)+C(10,6+3)+1]/(2^10)
p493
V210/1024
p494
(lp495
(S'R.1'
p496
F1024.0
V2^10
p497
V1024
p498
tp499
aVabasu
p500
(lp501
(V$p
p502
V6
p503
tp504
a(V$a
p505
V0
p506
tp507
a(V$p
p508
V6
p509
tp510
a(V$a
p511
V0
p512
tp513
aV2015-10-11 01:01:59
p514
tp515
a(g493
V64/1024
p516
(lp517
(S'R.1'
p518
F1024.0
V2^10
p519
V1024
p520
tp521
aVabasu
p522
g501
V2015-10-11 01:02:42
p523
tp524
a(g493
V772/1024
p525
(lp526
(S'R.1'
p527
F1024.0
V2^10
p528
V1024
p529
tp530
aVabasu
p531
g501
V2015-10-11 01:03:13
p532
tp533
a(g493
V385/1024
p534
(lp535
(S'R.1'
p536
F1024.0
V2^10
p537
V1024
p538
tp539
aVabasu
p540
g501
V2015-10-11 01:07:59
p541
tp542
a(V[C(10,6)+C(10,6+1)+C(10,6+2)+C(10,6+3)+1]/(2^10)
p543
VC(10, 4)/2^10
p544
(lp545
(S'R.1'
p546
F1024.0
V2^10
p547
V2^10
p548
tp549
aVrwthomps
p550
(lp551
(V$p
p552
V6
p553
tp554
a(V$a
p555
V0
p556
tp557
a(V$p
p558
V6
p559
tp560
a(V$a
p561
V0
p562
tp563
aV2015-10-11 21:35:25
p564
tp565
a(V[C(10,6)+C(10,6+1)+C(10,6+2)+C(10,6+3)+1]/(2^10)
p566
V385/(2^10)
p567
(lp568
(S'R.1'
p569
F1024.0
V2^10
p570
V2^10
p571
tp572
aVtwsalim
p573
(lp574
(V$p
p575
V6
p576
tp577
a(V$a
p578
V0
p579
tp580
a(V$p
p581
V6
p582
tp583
a(V$a
p584
V0
p585
tp586
aV2015-10-11 18:33:14
p587
tp588
a(g116
V(2^6)/(2^10)
p589
(lp590
(S'R.1'
p591
F1024.0
V2^10
p592
V2^10
p593
tp594
aVajvanega
p595
g124
V2015-10-12 00:35:10
p596
tp597
a(V[C(10,7)+C(10,7+1)+C(10,7+2)+1]/(2^10)
p598
V(10!/(7!*3!))/1024
p599
(lp600
(S'R.1'
p601
F1024.0
V2^10
p602
V1024
p603
tp604
aVsippolit
p605
(lp606
(V$p
p607
V7
p608
tp609
a(V$a
p610
V0
p611
tp612
a(V$p
p613
V7
p614
tp615
a(V$a
p616
V0
p617
tp618
aV2015-10-12 00:23:00
p619
tp620
a(V[C(10,6)+C(10,6+1)+C(10,6+2)+C(10,6+3)+1]/(2^10)
p621
V10!/(6!*4!)/(2^10)
p622
(lp623
(S'R.1'
p624
F1024.0
V2^10
p625
V2^10
p626
tp627
aVr2fisher
p628
(lp629
(V$p
p630
V6
p631
tp632
a(V$a
p633
V0
p634
tp635
a(V$p
p636
V6
p637
tp638
a(V$a
p639
V0
p640
tp641
aV2015-10-12 04:30:46
p642
tp643
a(V[C(10,8)+C(10,8+1)+1]/(2^10)
p644
V(10!/(2!*8!))/(2^10)
p645
(lp646
(S'R.1'
p647
F1024.0
V2^10
p648
V2^10
p649
tp650
aVachava
p651
(lp652
(V$p
p653
V8
p654
tp655
a(V$a
p656
V0
p657
tp658
a(V$p
p659
V8
p660
tp661
a(V$a
p662
V0
p663
tp664
aV2015-10-12 05:04:07
p665
tp666
a(V[C(10,8)+C(10,8+1)+1]/(2^10)
p667
V[10!/(8!*2!)]/(2^10)
p668
(lp669
(S'R.1'
p670
F1024.0
V2^10
p671
V2^10
p672
tp673
aVewbrenna
p674
(lp675
(V$p
p676
V8
p677
tp678
a(V$a
p679
V0
p680
tp681
a(V$p
p682
V8
p683
tp684
a(V$a
p685
V0
p686
tp687
aV2015-10-12 18:46:33
p688
tp689
a(V[C(10,6)+C(10,6+1)+C(10,6+2)+C(10,6+3)+1]/(2^10)
p690
V(2^4)/(2^10)
p691
(lp692
(S'R.1'
p693
F1024.0
V2^10
p694
V2^10
p695
tp696
aVwmiao
p697
(lp698
(V$p
p699
V6
p700
tp701
a(V$a
p702
V0
p703
tp704
a(V$p
p705
V6
p706
tp707
a(V$a
p708
V0
p709
tp710
aV2015-10-12 21:29:14
p711
tp712
a(g690
V(2^6)/(2^10)
p713
(lp714
(S'R.1'
p715
F1024.0
V2^10
p716
V2^10
p717
tp718
aVwmiao
p719
g698
V2015-10-12 21:29:24
p720
tp721
a(V[C(10,6)+C(10,6+1)+C(10,6+2)+C(10,6+3)+1]/(2^10)
p722
V10!/(6!*4!)/2^10
p723
(lp724
(S'R.1'
p725
F1024.0
V2^10
p726
V2^10
p727
tp728
aVctgraves
p729
(lp730
(V$p
p731
V6
p732
tp733
a(V$a
p734
V0
p735
tp736
a(V$p
p737
V6
p738
tp739
a(V$a
p740
V0
p741
tp742
aV2015-10-13 00:15:18
p743
tp744
a(V[C(10,7)+C(10,7+1)+C(10,7+2)+1]/(2^10)
p745
V175/1024
p746
(lp747
(S'R.1'
p748
F1024.0
V2^10
p749
V1024
p750
tp751
aVn2patil
p752
(lp753
(V$p
p754
V7
p755
tp756
a(V$a
p757
V0
p758
tp759
a(V$p
p760
V7
p761
tp762
a(V$a
p763
V0
p764
tp765
aV2015-10-13 04:51:52
p766
tp767
a(g690
V(2^4+2^3+4+2+1)/(2^10)
p768
(lp769
(S'R.1'
p770
F1024.0
V2^10
p771
V2^10
p772
tp773
aVwmiao
p774
g698
V2015-10-13 15:37:27
p775
tp776
a(V[C(10,8)+C(10,8+1)+1]/(2^10)
p777
VC(10,8)/2^10
p778
(lp779
(S'R.1'
p780
F1024.0
V2^10
p781
V2^10
p782
tp783
aVdsmonaha
p784
(lp785
(V$p
p786
V8
p787
tp788
a(V$a
p789
V0
p790
tp791
a(V$p
p792
V8
p793
tp794
a(V$a
p795
V0
p796
tp797
aV2015-10-13 16:32:19
p798
tp799
a(V[C(10,7)+C(10,7+1)+C(10,7+2)+1]/(2^10)
p800
VC(10,7)/2^10
p801
(lp802
(S'R.1'
p803
F1024.0
V2^10
p804
V2^10
p805
tp806
aVpcdo
p807
(lp808
(V$p
p809
V7
p810
tp811
a(V$a
p812
V0
p813
tp814
a(V$p
p815
V7
p816
tp817
a(V$a
p818
V0
p819
tp820
aV2015-10-13 17:02:51
p821
tp822
a(V[C(10,7)+C(10,7+1)+C(10,7+2)+1]/(2^10)
p823
V120/(2^10)
p824
(lp825
(S'R.1'
p826
F1024.0
V2^10
p827
V2^10
p828
tp829
aVlpettit
p830
(lp831
(V$p
p832
V7
p833
tp834
a(V$a
p835
V0
p836
tp837
a(V$p
p838
V7
p839
tp840
a(V$a
p841
V0
p842
tp843
aV2015-10-13 17:37:27
p844
tp845
a(g71
V(10!/(2!8!))/(2^10)
p846
(lp847
(S'R.1'
p848
F1024.0
V2^10
p849
V2^10
p850
tp851
aVspw006
p852
g78
V2015-10-13 17:54:45
p853
tp854
a(V[C(10,8)+C(10,8+1)+1]/(2^10)
p855
V45/(2^10)
p856
(lp857
(S'R.1'
p858
F1024.0
V2^10
p859
V2^10
p860
tp861
aVaportuga
p862
(lp863
(V$p
p864
V8
p865
tp866
a(V$a
p867
V0
p868
tp869
a(V$p
p870
V8
p871
tp872
a(V$a
p873
V0
p874
tp875
aV2015-10-13 22:08:32
p876
tp877
a(V[C(10,6)+C(10,6+1)+C(10,6+2)+C(10,6+3)+1]/(2^10)
p878
V210/(2^10)
p879
(lp880
(S'R.1'
p881
F1024.0
V2^10
p882
V2^10
p883
tp884
aVyil035
p885
(lp886
(V$p
p887
V6
p888
tp889
a(V$a
p890
V0
p891
tp892
a(V$p
p893
V6
p894
tp895
a(V$a
p896
V0
p897
tp898
aV2015-10-13 22:37:31
p899
tp900
a(V[C(10,8)+C(10,8+1)+1]/(2^10)
p901
V[C(100,80)]/2^10
p902
(lp903
(S'R.1'
p904
F1024.0
V2^10
p905
V2^10
p906
tp907
aVtol003
p908
(lp909
(V$p
p910
V8
p911
tp912
a(V$a
p913
V0
p914
tp915
a(V$p
p916
V8
p917
tp918
a(V$a
p919
V0
p920
tp921
aV2015-10-13 22:43:53
p922
tp923
a(g901
V[C(100,80) + C(100,90) + C(100,100)]/2^10
p924
(lp925
(S'R.1'
p926
F1024.0
V2^10
p927
V2^10
p928
tp929
aVtol003
p930
g909
V2015-10-13 22:45:08
p931
tp932
a(V[C(10,7)+C(10,7+1)+C(10,7+2)+1]/(2^10)
p933
V(10!/(3!*7!))/(2^10)
p934
(lp935
(S'R.1'
p936
F1024.0
V2^10
p937
V2^10
p938
tp939
aVlahawkin
p940
(lp941
(V$p
p942
V7
p943
tp944
a(V$a
p945
V0
p946
tp947
a(V$p
p948
V7
p949
tp950
a(V$a
p951
V0
p952
tp953
aV2015-10-14 00:39:55
p954
tp955
a(V[C(10,8)+C(10,8+1)+1]/(2^10)
p956
V(10!/2!)/(2^10)
p957
(lp958
(S'R.1'
p959
F1024.0
V2^10
p960
V2^10
p961
tp962
aVwcwhite
p963
(lp964
(V$p
p965
V8
p966
tp967
a(V$a
p968
V0
p969
tp970
a(V$p
p971
V8
p972
tp973
a(V$a
p974
V0
p975
tp976
aV2015-10-14 00:51:20
p977
tp978
a(g956
V(10!/3!)/(2^10)
p979
(lp980
(S'R.1'
p981
F1024.0
V2^10
p982
V2^10
p983
tp984
aVwcwhite
p985
g964
V2015-10-14 00:51:45
p986
tp987
a(g11
VC(10,8)/(2^10)
p988
(lp989
(S'R.1'
p990
F1024.0
V2^10
p991
V2^10
p992
tp993
aVhmshah
p994
(lp995
(V$p
p996
V8
p997
tp998
a(V$a
p999
V0
p1000
tp1001
a(V$p
p1002
V8
p1003
tp1004
a(V$a
p1005
V0
p1006
tp1007
aV2015-10-14 01:32:12
p1008
tp1009
a(V[C(10,7)+C(10,7+1)+C(10,7+2)+1]/(2^10)
p1010
V120/2^10
p1011
(lp1012
(S'R.1'
p1013
F1024.0
V2^10
p1014
V2^10
p1015
tp1016
aVq3wen
p1017
(lp1018
(V$p
p1019
V7
p1020
tp1021
a(V$a
p1022
V0
p1023
tp1024
a(V$p
p1025
V7
p1026
tp1027
a(V$a
p1028
V0
p1029
tp1030
aV2015-10-14 03:09:53
p1031
tp1032
a(V[C(10,8)+C(10,8+1)+1]/(2^10)
p1033
V(C(10,2) + C(10,1)) / 2^10
p1034
(lp1035
(S'R.1'
p1036
F1024.0
V2^10
p1037
V2^10
p1038
tp1039
aVrraiyyan
p1040
(lp1041
(V$p
p1042
V8
p1043
tp1044
a(V$a
p1045
V0
p1046
tp1047
a(V$p
p1048
V8
p1049
tp1050
a(V$a
p1051
V0
p1052
tp1053
aV2015-10-14 04:31:58
p1054
tp1055
a(V[C(10,6)+C(10,6+1)+C(10,6+2)+C(10,6+3)+1]/(2^10)
p1056
V((30*7)/(2^10))
p1057
(lp1058
(S'R.1'
p1059
F1024.0
V2^10
p1060
V2^10
p1061
tp1062
aVpnquach
p1063
(lp1064
(V$p
p1065
V6
p1066
tp1067
a(V$a
p1068
V0
p1069
tp1070
a(V$p
p1071
V6
p1072
tp1073
a(V$a
p1074
V0
p1075
tp1076
aV2015-10-14 06:26:57
p1077
tp1078
a(V[C(10,8)+C(10,8+1)+1]/(2^10)
p1079
V(10!/8!2! + 10!/9! + 1)/2^10
p1080
(lp1081
(S'R.1'
p1082
F1024.0
V2^10
p1083
V2^10
p1084
tp1085
aVcprafull
p1086
(lp1087
(V$p
p1088
V8
p1089
tp1090
a(V$a
p1091
V0
p1092
tp1093
a(V$p
p1094
V8
p1095
tp1096
a(V$a
p1097
V0
p1098
tp1099
aV2015-10-14 06:33:27
p1100
tp1101
a(g116
V(10*3*7)/(2^10)
p1102
(lp1103
(S'R.1'
p1104
F1024.0
V2^10
p1105
V2^10
p1106
tp1107
aVajvanega
p1108
g124
V2015-10-14 17:27:57
p1109
tp1110
a(V[C(10,7)+C(10,7+1)+C(10,7+2)+1]/(2^10)
p1111
V10!/(7!3!) / (2)^10
p1112
(lp1113
(S'R.1'
p1114
F1024.0
V2^10
p1115
V(2)^10
p1116
tp1117
aVanvan
p1118
(lp1119
(V$p
p1120
V7
p1121
tp1122
a(V$a
p1123
V0
p1124
tp1125
a(V$p
p1126
V7
p1127
tp1128
a(V$a
p1129
V0
p1130
tp1131
aV2015-10-14 18:52:03
p1132
tp1133
a(g93
V45/2^10
p1134
(lp1135
(S'R.1'
p1136
F1024.0
V2^10
p1137
V2^10
p1138
tp1139
aVppanourg
p1140
g99
V2015-10-14 21:10:47
p1141
tp1142
a(V[C(10,8)+C(10,8+1)+1]/(2^10)
p1143
V11/2^10
p1144
(lp1145
(S'R.1'
p1146
F1024.0
V2^10
p1147
V2^10
p1148
tp1149
aVc1sorian
p1150
(lp1151
(V$p
p1152
V8
p1153
tp1154
a(V$a
p1155
V0
p1156
tp1157
a(V$p
p1158
V8
p1159
tp1160
a(V$a
p1161
V0
p1162
tp1163
aV2015-10-14 21:44:48
p1164
tp1165
a(V[C(10,6)+C(10,6+1)+C(10,6+2)+C(10,6+3)+1]/(2^10)
p1166
VC(10,6)/2^10
p1167
(lp1168
(S'R.1'
p1169
F1024.0
V2^10
p1170
V2^10
p1171
tp1172
aVksrijong
p1173
(lp1174
(V$p
p1175
V6
p1176
tp1177
a(V$a
p1178
V0
p1179
tp1180
a(V$p
p1181
V6
p1182
tp1183
a(V$a
p1184
V0
p1185
tp1186
aV2015-10-14 22:09:36
p1187
tp1188
a(V[C(10,6)+C(10,6+1)+C(10,6+2)+C(10,6+3)+1]/(2^10)
p1189
V30/2^10
p1190
(lp1191
(S'R.1'
p1192
F1024.0
V2^10
p1193
V2^10
p1194
tp1195
aVjmiclat
p1196
(lp1197
(V$p
p1198
V6
p1199
tp1200
a(V$a
p1201
V0
p1202
tp1203
a(V$p
p1204
V6
p1205
tp1206
a(V$a
p1207
V0
p1208
tp1209
aV2015-10-15 00:56:46
p1210
tp1211
a(g1189
V210/2^10
p1212
(lp1213
(S'R.1'
p1214
F1024.0
V2^10
p1215
V2^10
p1216
tp1217
aVjmiclat
p1218
g1197
V2015-10-15 00:57:05
p1219
tp1220
a(V[C(10,6)+C(10,6+1)+C(10,6+2)+C(10,6+3)+1]/(2^10)
p1221
V(6/(2^10))
p1222
(lp1223
(S'R.1'
p1224
F1024.0
V2^10
p1225
V2^10
p1226
tp1227
aVnhn018
p1228
(lp1229
(V$p
p1230
V6
p1231
tp1232
a(V$a
p1233
V0
p1234
tp1235
a(V$p
p1236
V6
p1237
tp1238
a(V$a
p1239
V0
p1240
tp1241
aV2015-10-15 01:34:48
p1242
tp1243
a(g1221
V(1/(2^10))
p1244
(lp1245
(S'R.1'
p1246
F1024.0
V2^10
p1247
V2^10
p1248
tp1249
aVnhn018
p1250
g1229
V2015-10-15 01:35:06
p1251
tp1252
a(g1221
V(6/(2^10))
p1253
(lp1254
(S'R.1'
p1255
F1024.0
V2^10
p1256
V2^10
p1257
tp1258
aVnhn018
p1259
g1229
V2015-10-15 01:35:56
p1260
tp1261
a(g1221
V6/(2^10)
p1262
(lp1263
(S'R.1'
p1264
F1024.0
V2^10
p1265
V2^10
p1266
tp1267
aVnhn018
p1268
g1229
V2015-10-15 01:36:37
p1269
tp1270
a(V[C(10,6)+C(10,6+1)+C(10,6+2)+C(10,6+3)+1]/(2^10)
p1271
V120/(2^10)
p1272
(lp1273
(S'R.1'
p1274
F1024.0
V2^10
p1275
V2^10
p1276
tp1277
aVd6he
p1278
(lp1279
(V$p
p1280
V6
p1281
tp1282
a(V$a
p1283
V0
p1284
tp1285
a(V$p
p1286
V6
p1287
tp1288
a(V$a
p1289
V0
p1290
tp1291
aV2015-10-15 02:28:31
p1292
tp1293
a(g1271
V210/(2^10)
p1294
(lp1295
(S'R.1'
p1296
F1024.0
V2^10
p1297
V2^10
p1298
tp1299
aVd6he
p1300
g1279
V2015-10-15 02:29:08
p1301
tp1302
a(g1271
V420/(2^10)
p1303
(lp1304
(S'R.1'
p1305
F1024.0
V2^10
p1306
V2^10
p1307
tp1308
aVd6he
p1309
g1279
V2015-10-15 02:30:42
p1310
tp1311
a(V[C(10,6)+C(10,6+1)+C(10,6+2)+C(10,6+3)+1]/(2^10)
p1312
V105/2^10
p1313
(lp1314
(S'R.1'
p1315
F1024.0
V2^10
p1316
V2^10
p1317
tp1318
aVkebao
p1319
(lp1320
(V$p
p1321
V6
p1322
tp1323
a(V$a
p1324
V0
p1325
tp1326
a(V$p
p1327
V6
p1328
tp1329
a(V$a
p1330
V0
p1331
tp1332
aV2015-10-15 04:06:08
p1333
tp1334
a(g933
V(10!/(8!*3!)+10!/(9!)+1)/2^10
p1335
(lp1336
(S'R.1'
p1337
F1024.0
V2^10
p1338
V2^10
p1339
tp1340
aVlahawkin
p1341
g941
V2015-10-15 04:51:51
p1342
tp1343
a(V[C(10,7)+C(10,7+1)+C(10,7+2)+1]/(2^10)
p1344
V10*9*8/6/2^10
p1345
(lp1346
(S'R.1'
p1347
F1024.0
V2^10
p1348
V2^10
p1349
tp1350
aVh4tu
p1351
(lp1352
(V$p
p1353
V7
p1354
tp1355
a(V$a
p1356
V0
p1357
tp1358
a(V$p
p1359
V7
p1360
tp1361
a(V$a
p1362
V0
p1363
tp1364
aV2015-10-15 04:54:43
p1365
tp1366
a(g1344
V(10*9*8/6+10*9/2+10)/2^10
p1367
(lp1368
(S'R.1'
p1369
F1024.0
V2^10
p1370
V2^10
p1371
tp1372
aVh4tu
p1373
g1352
V2015-10-15 04:55:29
p1374
tp1375
a(g933
V(10!/(2*8!)+(10!/9!)+1)/(2^10)
p1376
(lp1377
(S'R.1'
p1378
F1024.0
V2^10
p1379
V2^10
p1380
tp1381
aVlahawkin
p1382
g941
V2015-10-15 04:56:02
p1383
tp1384
a(g1344
V(10*9*8/3+10*9/2+10)/2^10
p1385
(lp1386
(S'R.1'
p1387
F1024.0
V2^10
p1388
V2^10
p1389
tp1390
aVh4tu
p1391
g1352
V2015-10-15 04:56:35
p1392
tp1393
a(V[C(10,6)+C(10,6+1)+C(10,6+2)+C(10,6+3)+1]/(2^10)
p1394
V[((10*9*8*7)/4!)+((10*9*8)/6)+(45)+(10)]/(2^10)
p1395
(lp1396
(S'R.1'
p1397
F1024.0
V2^10
p1398
V2^10
p1399
tp1400
aVv4zhang
p1401
(lp1402
(V$p
p1403
V6
p1404
tp1405
a(V$a
p1406
V0
p1407
tp1408
a(V$p
p1409
V6
p1410
tp1411
a(V$a
p1412
V0
p1413
tp1414
aV2015-10-15 05:16:15
p1415
tp1416
a(V[C(10,6)+C(10,6+1)+C(10,6+2)+C(10,6+3)+1]/(2^10)
p1417
V(56+210)/(2^10)
p1418
(lp1419
(S'R.1'
p1420
F1024.0
V2^10
p1421
V2^10
p1422
tp1423
aVkgrozav
p1424
(lp1425
(V$p
p1426
V6
p1427
tp1428
a(V$a
p1429
V0
p1430
tp1431
a(V$p
p1432
V6
p1433
tp1434
a(V$a
p1435
V0
p1436
tp1437
aV2015-10-15 05:48:44
p1438
tp1439
a(g20
V(1-252/2^10)/2^10
p1440
(lp1441
(S'R.1'
p1442
F1024.0
V2^10
p1443
V2^10
p1444
tp1445
aVielouaae
p1446
(lp1447
(V$p
p1448
V6
p1449
tp1450
a(V$a
p1451
V0
p1452
tp1453
a(V$p
p1454
V6
p1455
tp1456
a(V$a
p1457
V0
p1458
tp1459
aV2015-10-15 06:11:26
p1460
tp1461
a(V[C(10,6)+C(10,6+1)+C(10,6+2)+C(10,6+3)+1]/(2^10)
p1462
V210/(2^10)
p1463
(lp1464
(S'R.1'
p1465
F1024.0
V2^10
p1466
V2^10
p1467
tp1468
aVp4kumar
p1469
(lp1470
(V$p
p1471
V6
p1472
tp1473
a(V$a
p1474
V0
p1475
tp1476
a(V$p
p1477
V6
p1478
tp1479
a(V$a
p1480
V0
p1481
tp1482
aV2015-10-15 06:26:44
p1483
tp1484
a(V[C(10,7)+C(10,7+1)+C(10,7+2)+1]/(2^10)
p1485
V120/(2^10)
p1486
(lp1487
(S'R.1'
p1488
F1024.0
V2^10
p1489
V2^10
p1490
tp1491
aVyeh013
p1492
(lp1493
(V$p
p1494
V7
p1495
tp1496
a(V$a
p1497
V0
p1498
tp1499
a(V$p
p1500
V7
p1501
tp1502
a(V$a
p1503
V0
p1504
tp1505
aV2015-10-15 06:32:20
p1506
tp1507
a(V[C(10,8)+C(10,8+1)+1]/(2^10)
p1508
V[C(10,8)+C(10,8+1)+C(10,8+2)+1]/(2^10)
p1509
(lp1510
(S'R.1'
p1511
F1024.0
V2^10
p1512
V2^10
p1513
tp1514
aVagian
p1515
(lp1516
(V$p
p1517
V8
p1518
tp1519
a(V$a
p1520
V0
p1521
tp1522
a(V$p
p1523
V8
p1524
tp1525
a(V$a
p1526
V0
p1527
tp1528
aV2015-10-15 06:59:18
p1529
tp1530
a(V[C(10,6)+C(10,6+1)+C(10,6+2)+C(10,6+3)+1]/(2^10)
p1531
V210/(2^10)
p1532
(lp1533
(S'R.1'
p1534
F1024.0
V2^10
p1535
V2^10
p1536
tp1537
aVanl114
p1538
(lp1539
(V$p
p1540
V6
p1541
tp1542
a(V$a
p1543
V0
p1544
tp1545
a(V$p
p1546
V6
p1547
tp1548
a(V$a
p1549
V0
p1550
tp1551
aV2015-10-15 07:03:12
p1552
tp1553
a(V[C(10,8)+C(10,8+1)+1]/(2^10)
p1554
V7/1024
p1555
(lp1556
(S'R.1'
p1557
F1024.0
V2^10
p1558
V1024
p1559
tp1560
aVyig015
p1561
(lp1562
(V$p
p1563
V8
p1564
tp1565
a(V$a
p1566
V0
p1567
tp1568
a(V$p
p1569
V8
p1570
tp1571
a(V$a
p1572
V0
p1573
tp1574
aV2015-10-15 07:36:53
p1575
tp1576
a(V[C(10,8)+C(10,8+1)+1]/(2^10)
p1577
V(2^10-(10!/(7!3!)))/2^10
p1578
(lp1579
(S'R.1'
p1580
F1024.0
V2^10
p1581
V2^10
p1582
tp1583
aVaalhaida
p1584
(lp1585
(V$p
p1586
V8
p1587
tp1588
a(V$a
p1589
V0
p1590
tp1591
a(V$p
p1592
V8
p1593
tp1594
a(V$a
p1595
V0
p1596
tp1597
aV2015-10-15 11:38:52
p1598
tp1599
a(V[C(10,7)+C(10,7+1)+C(10,7+2)+1]/(2^10)
p1600
VC(10,7)/2^10
p1601
(lp1602
(S'R.1'
p1603
F1024.0
V2^10
p1604
V2^10
p1605
tp1606
aVsachadal
p1607
(lp1608
(V$p
p1609
V7
p1610
tp1611
a(V$a
p1612
V0
p1613
tp1614
a(V$p
p1615
V7
p1616
tp1617
a(V$a
p1618
V0
p1619
tp1620
aV2015-10-15 14:41:01
p1621
tp1622
a(V[C(10,7)+C(10,7+1)+C(10,7+2)+1]/(2^10)
p1623
V1.76/2^10
p1624
(lp1625
(S'R.1'
p1626
F1024.0
V2^10
p1627
V2^10
p1628
tp1629
aVasp025
p1630
(lp1631
(V$p
p1632
V7
p1633
tp1634
a(V$a
p1635
V0
p1636
tp1637
a(V$p
p1638
V7
p1639
tp1640
a(V$a
p1641
V0
p1642
tp1643
aV2015-10-15 17:55:02
p1644
tp1645
a(g933
V(10!/(7!)+10!/(8!)+10!/(9!)+1)/2^10
p1646
(lp1647
(S'R.1'
p1648
F1024.0
V2^10
p1649
V2^10
p1650
tp1651
aVlahawkin
p1652
g941
V2015-10-15 18:05:35
p1653
tp1654
a(g933
V((10!/(7!)+10!/(8!)+10!/(9!)+10)/2^10)
p1655
(lp1656
(S'R.1'
p1657
F1024.0
V2^10
p1658
V2^10
p1659
tp1660
aVlahawkin
p1661
g941
V2015-10-15 18:09:16
p1662
tp1663
a(V[C(10,6)+C(10,6+1)+C(10,6+2)+C(10,6+3)+1]/(2^10)
p1664
VC(10,6)/2^10
p1665
(lp1666
(S'R.1'
p1667
F1024.0
V2^10
p1668
V2^10
p1669
tp1670
aVjtfrankl
p1671
(lp1672
(V$p
p1673
V6
p1674
tp1675
a(V$a
p1676
V0
p1677
tp1678
a(V$p
p1679
V6
p1680
tp1681
a(V$a
p1682
V0
p1683
tp1684
aV2015-10-15 20:22:17
p1685
tp1686
a(g1664
VC(10,4)/2^10
p1687
(lp1688
(S'R.1'
p1689
F1024.0
V2^10
p1690
V2^10
p1691
tp1692
aVjtfrankl
p1693
g1672
V2015-10-15 20:22:29
p1694
tp1695
a(V[C(10,8)+C(10,8+1)+1]/(2^10)
p1696
V45/1024
p1697
(lp1698
(S'R.1'
p1699
F1024.0
V2^10
p1700
V1024
p1701
tp1702
aVakhmelni
p1703
(lp1704
(V$p
p1705
V8
p1706
tp1707
a(V$a
p1708
V0
p1709
tp1710
a(V$p
p1711
V8
p1712
tp1713
a(V$a
p1714
V0
p1715
tp1716
aV2015-10-15 21:50:06
p1717
tp1718
a(V[C(10,6)+C(10,6+1)+C(10,6+2)+C(10,6+3)+1]/(2^10)
p1719
VC(10,6) / 2^10
p1720
(lp1721
(S'R.1'
p1722
F1024.0
V2^10
p1723
V2^10
p1724
tp1725
aVakg009
p1726
(lp1727
(V$p
p1728
V6
p1729
tp1730
a(V$a
p1731
V0
p1732
tp1733
a(V$p
p1734
V6
p1735
tp1736
a(V$a
p1737
V0
p1738
tp1739
aV2015-10-15 22:05:20
p1740
tp1741
a(V[C(10,6)+C(10,6+1)+C(10,6+2)+C(10,6+3)+1]/(2^10)
p1742
V210/2^10
p1743
(lp1744
(S'R.1'
p1745
F1024.0
V2^10
p1746
V2^10
p1747
tp1748
aVrohan
p1749
(lp1750
(V$p
p1751
V6
p1752
tp1753
a(V$a
p1754
V0
p1755
tp1756
a(V$p
p1757
V6
p1758
tp1759
a(V$a
p1760
V0
p1761
tp1762
aV2015-10-15 22:48:06
p1763
tp1764
a(V[C(10,7)+C(10,7+1)+C(10,7+2)+1]/(2^10)
p1765
V120/(2^10)
p1766
(lp1767
(S'R.1'
p1768
F1024.0
V2^10
p1769
V2^10
p1770
tp1771
aVdcrume
p1772
(lp1773
(V$p
p1774
V7
p1775
tp1776
a(V$a
p1777
V0
p1778
tp1779
a(V$p
p1780
V7
p1781
tp1782
a(V$a
p1783
V0
p1784
tp1785
aV2015-10-15 23:11:00
p1786
tp1787
a(V[C(10,7)+C(10,7+1)+C(10,7+2)+1]/(2^10)
p1788
V120/1024
p1789
(lp1790
(S'R.1'
p1791
F1024.0
V2^10
p1792
V1024
p1793
tp1794
aVbbturner
p1795
(lp1796
(V$p
p1797
V7
p1798
tp1799
a(V$a
p1800
V0
p1801
tp1802
a(V$p
p1803
V7
p1804
tp1805
a(V$a
p1806
V0
p1807
tp1808
aV2015-10-15 23:23:58
p1809
tp1810
a(g1788
V56/1024
p1811
(lp1812
(S'R.1'
p1813
F1024.0
V2^10
p1814
V1024
p1815
tp1816
aVbbturner
p1817
g1796
V2015-10-15 23:24:55
p1818
tp1819
asS"['R.0.0.0.1']"
p1820
(lp1821
(V[C(10,6)+C(10,6+1)+C(10,6+2)+C(10,6+3)+1]/(2^10)
p1822
V((10!/(3!*7!))+ (10!/(3!*7!)) + (10!/(2!*8!))+ (10!/(1!*9!))+ (1/2)^10)/(1/2^10)
p1823
(lp1824
(S'R.0.0.0.1'
p1825
I45
VC(10,6+2)
p1826
V10!/(2!*8!)
p1827
tp1828
aVkquong
p1829
(lp1830
(V$p
p1831
V6
p1832
tp1833
a(V$a
p1834
V0
p1835
tp1836
a(V$p
p1837
V6
p1838
tp1839
a(V$a
p1840
V0
p1841
tp1842
aV2015-10-10 19:26:46
p1843
tp1844
asS"['R.0.0.0.1', 'R.1']"
p1845
(lp1846
(V[C(10,6)+C(10,6+1)+C(10,6+2)+C(10,6+3)+1]/(2^10)
p1847
V(10+90+ C(10,2) + C(10,3) + C(10,4))/2^10
p1848
(lp1849
(S'R.0.0.0.1'
p1850
I45
VC(10,6+2)
p1851
VC(10,2)
p1852
tp1853
a(S'R.1'
p1854
F1024.0
V2^10
p1855
V2^10
p1856
tp1857
aVawollner
p1858
(lp1859
(V$p
p1860
V6
p1861
tp1862
a(V$a
p1863
V0
p1864
tp1865
a(V$p
p1866
V6
p1867
tp1868
a(V$a
p1869
V0
p1870
tp1871
aV2015-10-09 13:56:34
p1872
tp1873
a(g1822
V((10!/(3!*7!))+ (10!/(3!*7!)) + (10!/(2!*8!))+ (10!/(1!*9!))+ (1/2)^10)/2^10
p1874
(lp1875
(S'R.0.0.0.1'
p1876
I45
VC(10,6+2)
p1877
V10!/(2!*8!)
p1878
tp1879
a(S'R.1'
p1880
F1024.0
V2^10
p1881
V2^10
p1882
tp1883
aVkquong
p1884
g1830
V2015-10-10 19:26:20
p1885
tp1886
a(g116
V(120+45+10+1)/(2^10)
p1887
(lp1888
(S'R.0.0.0.1'
p1889
I45
VC(10,6+2)
p1890
V45
p1891
tp1892
a(S'R.1'
p1893
F1024.0
V2^10
p1894
V2^10
p1895
tp1896
aVajvanega
p1897
g124
V2015-10-14 17:31:26
p1898
tp1899
a(g1344
V(10*9*8/3+10*9/2+10+1)/2^10
p1900
(lp1901
(S'R.0.0.0.1'
p1902
I45
VC(10,7+1)
p1903
V10*9/2
p1904
tp1905
a(S'R.1'
p1906
F1024.0
V2^10
p1907
V2^10
p1908
tp1909
aVh4tu
p1910
g1352
V2015-10-15 04:58:24
p1911
tp1912
asS"['R.0.0.0.1.1.0']"
p1913
(lp1914
(V[C(10,7)+C(10,7+1)+C(10,7+2)+1]/(2^10)
p1915
V([9!/(2! * 7!)] * .5^(10)) + ([9!/(1! * 8!)] * .5^(10)) +(.5^(10))
p1916
(lp1917
(S'R.0.0.0.1.1.0'
p1918
F7.0
V7
p1919
g1919
tp1920
aVjfalcone
p1921
(lp1922
(V$p
p1923
V7
p1924
tp1925
a(V$a
p1926
V0
p1927
tp1928
a(V$p
p1929
V7
p1930
tp1931
a(V$a
p1932
V0
p1933
tp1934
aV2015-10-14 07:00:32
p1935
tp1936
a(g1915
V([10!/(2! * 7!)] * .5^(10)) + ([10!/(1! * 8!)] * .5^(10)) +(.5^(10))
p1937
(lp1938
(S'R.0.0.0.1.1.0'
p1939
F7.0
g1919
g1919
tp1940
aVjfalcone
p1941
g1922
V2015-10-14 07:00:43
p1942
tp1943
a(g1915
V([10!/(3! * 7!)] * .5^(10)) + ([10!/(2! * 8!)] * .5^(10)) + ([10!/(1! * 9!)] * .5^(10))
p1944
(lp1945
(S'R.0.0.0.1.1.0'
p1946
F7.0
g1919
g1919
tp1947
aVjfalcone
p1948
g1922
V2015-10-14 07:01:04
p1949
tp1950
asS"['R.0.0', 'R.1']"
p1951
(lp1952
(g1394
V[((10*9*8*7)/4!)+((10*9*8)/3!)+(10*9/2!)+(10)+10]/(2^10)
p1953
(lp1954
(S'R.0.0'
p1955
F385.0
VC(10,6)+C(10,6+1)+C(10,6+2)+C(10,6+3)
p1956
V((10*9*8*7)/4!)+((10*9*8)/3!)+(10*9/2!)+(10)
p1957
tp1958
a(S'R.1'
p1959
F1024.0
V2^10
p1960
V2^10
p1961
tp1962
aVv4zhang
p1963
g1402
V2015-10-15 05:35:01
p1964
tp1965
asS"['R.0']"
p1966
(lp1967
(g20
V386/2^11
p1968
(lp1969
(S'R.0'
p1970
F386.0
VC(10,6)+C(10,6+1)+C(10,6+2)+C(10,6+3)+1
p1971
V386
p1972
tp1973
aVielouaae
p1974
g1447
V2015-10-15 06:37:18
p1975
tp1976
asS'Wrong_Sign'
p1977
(lp1978
(g1822
V1 - ((10!/(3!*7!)) + (10!/(2!*8!))+ (10!/(1!*9!))+ (1/2)^10)
p1979
tp1980
a(g1822
V1 - ((10!/(4!*6!))+(10!/(3!*7!)) + (10!/(2!*8!))+ (10!/(1!*9!))+ (1/2)^10)
p1981
tp1982
a(g1822
V1- ((10!/9!) + (10!/(2!*8!)) + (10!/(3!*7!)) + (10!/(4!*6!)) + (10!/(5!*5!)) + (1/2)^10)
p1983
tp1984
a(g71
V1-10!/(2!8!)
p1985
tp1986
a(g956
V(1-(2^10)-(10/2^10))
p1987
tp1988
a(g162
V1-((1/2)^4)*10!/6!
p1989
tp1990
a(g162
V1-((1/2)^4)*5040
p1991
tp1992
a(V[C(10,7)+C(10,7+1)+C(10,7+2)+1]/(2^10)
p1993
V1-(C(10,9) + C(10,8) + C(10,10))
p1994
tp1995
asS"['R.0.0.0.0']"
p1996
(lp1997
(V[C(10,7)+C(10,7+1)+C(10,7+2)+1]/(2^10)
p1998
V(10!/(7!*3!))*(1/2)^7*(1/2)^3+10/(2^10)+.5^10
p1999
(lp2000
(S'R.0.0.0.0'
p2001
I120
VC(10,7)
p2002
V10!/(7!*3!)
p2003
tp2004
aVjel075
p2005
(lp2006
(V$p
p2007
V7
p2008
tp2009
a(V$a
p2010
V0
p2011
tp2012
a(V$p
p2013
V7
p2014
tp2015
a(V$a
p2016
V0
p2017
tp2018
aV2015-10-15 00:18:18
p2019
tp2020
a(V[C(10,7)+C(10,7+1)+C(10,7+2)+1]/(2^10)
p2021
VC(10, 7)/10^2 + C(10, 8)/10^2 + C(10, 9)/10^2 + C(10, 10)/10^2
p2022
(lp2023
(S'R.0.0.0.0'
p2024
I120
VC(10,7)
p2025
VC(10, 7)
p2026
tp2027
aVb1green
p2028
(lp2029
(V$p
p2030
V7
p2031
tp2032
a(V$a
p2033
V0
p2034
tp2035
a(V$p
p2036
V7
p2037
tp2038
a(V$a
p2039
V0
p2040
tp2041
aV2015-10-15 19:50:04
p2042
tp2043
asS"['R.0.0.1.1', 'R.1']"
p2044
(lp2045
(V[C(10,6)+C(10,6+1)+C(10,6+2)+C(10,6+3)+1]/(2^10)
p2046
V(5*3*2*7 + 10*3*4 + 5*9 + 10)/2^10
p2047
(lp2048
(S'R.0.0.1.1'
p2049
F9.0
V6+3
p2050
V9
p2051
tp2052
a(S'R.1'
p2053
F1024.0
V2^10
p2054
V2^10
p2055
tp2056
aVsghouse
p2057
(lp2058
(V$p
p2059
V6
p2060
tp2061
a(V$a
p2062
V0
p2063
tp2064
a(V$p
p2065
V6
p2066
tp2067
a(V$a
p2068
V0
p2069
tp2070
aV2015-10-09 18:54:47
p2071
tp2072
a(g2046
V(5*3*2*7+10*3*4+5*9+10)/2^10
p2073
(lp2074
(S'R.0.0.1.1'
p2075
F9.0
V6+3
p2076
g2051
tp2077
a(S'R.1'
p2078
F1024.0
V2^10
p2079
V2^10
p2080
tp2081
aVsghouse
p2082
g2058
V2015-10-10 19:51:12
p2083
tp2084
asS"['R.0.0.0.0.0']"
p2085
(lp2086
(g355
V[9!/(6!*3!)+ 9!/(5!*4!)]/2^10 +[9!/(7!*2!)+ 9!/(6!*3!)]/2^10 +[9!/(8!*1!)+ 9!/(7!*2!)]/2^10 +[9!/(9!*0!)+ 9!/(8!*1!)]/2^10 + 1
p2087
(lp2088
(S'R.0.0.0.0.0'
p2089
I210
VC(10,6)
p2090
V9!/(6!*3!)+ 9!/(5!*4!)
p2091
tp2092
aVggaddi
p2093
g363
V2015-10-10 05:25:20
p2094
tp2095
a(g8
V210/2^10 + 10/2^10 + 45/2^10 + 120/2^10 - 1/2^2
p2096
(lp2097
(S'R.0.0.0.0.0'
p2098
I210
VC(10,6)
p2099
V210
p2100
tp2101
aVs1powers
p2102
(lp2103
(V$p
p2104
V6
p2105
tp2106
a(V$a
p2107
V0
p2108
tp2109
a(V$p
p2110
V6
p2111
tp2112
a(V$a
p2113
V0
p2114
tp2115
aV2015-10-10 23:50:29
p2116
tp2117
a(g8
V210/2^10 + 10/2^10 + 45/2^10 + 120/2^10 - 1/2^10
p2118
(lp2119
(S'R.0.0.0.0.0'
p2120
I210
VC(10,6)
p2121
V210
p2122
tp2123
aVs1powers
p2124
g2103
V2015-10-10 23:50:34
p2125
tp2126
asS"['R.0.0.0.0', 'R.1']"
p2127
(lp2128
(g933
V(10!/(7!*3!)+10!/(8!*3!)+10!/(9!)+1)/2^10
p2129
(lp2130
(S'R.0.0.0.0'
p2131
I120
VC(10,7)
p2132
V10!/(7!*3!)
p2133
tp2134
a(S'R.1'
p2135
F1024.0
V2^10
p2136
V2^10
p2137
tp2138
aVlahawkin
p2139
g941
V2015-10-15 04:50:45
p2140
tp2141
ass.