(dp0
V1
p1
ccollections
defaultdict
p2
(c__builtin__
list
p3
tp4
Rp5
S'Digits'
p6
(lp7
(V13
p8
V4
p9
tp10
a(V15
p11
V10
p12
tp13
a(g11
V150
p14
tp15
a(g11
V130
p16
tp17
a(V16
p18
V13
p19
tp20
a(V15
p21
V13
p22
tp23
a(V14
p24
V109200
p25
tp26
a(V11
p27
V84
p28
tp29
a(g27
V120
p30
tp31
a(V15
p32
V7
p33
tp34
a(g32
V8
p35
tp36
a(g32
V13
p37
tp38
a(g32
V12
p39
tp40
a(g32
V11
p41
tp42
a(g32
V14
p43
tp44
a(V16
p45
V13
p46
tp47
a(V10
p48
V4
p49
tp50
a(V10
p51
V120
p52
tp53
a(V16
p54
V15
p55
tp56
a(V10
p57
V9
p58
tp59
a(V16
p60
V52
p61
tp62
a(V15
p63
V14
p64
tp65
a(V16
p66
V15
p67
tp68
a(V12
p69
V4
p70
tp71
a(V13
p72
V4
p73
tp74
a(V16
p75
V12
p76
tp77
a(V12
p78
V240
p79
tp80
a(g78
V66
p81
tp82
a(V10
p83
V13
p84
tp85
a(V15
p86
V2744
p87
tp88
a(g86
V14
p89
tp90
a(V15
p91
V16
p92
tp93
a(V10
p94
V12
p95
tp96
a(g94
V9
p97
tp98
a(V11
p99
V100
p100
tp101
a(g99
V100
p102
tp103
a(g99
V220
p104
tp105
a(V14
p106
V364
p107
tp108
a(V14
p109
V4
p110
tp111
a(V15
p112
V13
p113
tp114
a(V10
p115
V240
p116
tp117
a(g115
V120
p118
tp119
a(V15
p120
V14
p121
tp122
a(V11
p123
V13
p124
tp125
a(V12
p126
V11
p127
tp128
asS"['R']"
p129
(lp130
(V11
p131
VC(11,1)
p132
(lp133
(S'R'
p134
F11.0
g131
g132
tp135
aVvasharma
p136
(lp137
(V$n
p138
V66
p139
tp140
a(V$ns
p141
V6
p142
tp143
a(V$nr
p144
V11
p145
tp146
a(V$n
p147
V66
p148
tp149
a(V$ns
p150
V6
p151
tp152
a(V$nr
p153
V11
p154
tp155
aV2015-10-11 06:48:01
p156
tp157
asS'Fraction'
p158
(lp159
(V15
p160
V2.1128
p161
tp162
a(g160
V0.021128
p163
tp164
a(g160
V(15)*(4!/3!)/((60*59*58)/6)
p165
tp166
assV3
p167
g2
(g3
tp168
Rp169
g6
(lp170
(VC(6,3)
p171
V6
p172
tp173
a(VC(5,3)
p174
V5
p175
tp176
a(VC(5,3)
p177
V5
p178
tp179
a(VC(5,3)
p180
V5
p181
tp182
a(VC(5,3)
p183
V5
p184
tp185
a(g183
V51
p186
tp187
a(g183
V1
p188
tp189
a(g183
V12
p190
tp191
a(g183
V122
p192
tp193
a(g183
V2
p194
tp195
a(g183
V3
p196
tp197
a(g183
V4
p198
tp199
a(g183
V5
p200
tp201
a(g183
V6
p202
tp203
a(g183
V7
p204
tp205
a(g183
V8
p206
tp207
a(g183
V9
p208
tp209
a(g183
V60
p210
tp211
a(g183
V180
p212
tp213
a(g183
V5
p214
tp215
a(g183
V4
p216
tp217
a(g183
V3
p218
tp219
a(g183
V2
p220
tp221
a(g183
V1
p222
tp223
a(g183
V163
p224
tp225
a(VC(6,3)
p226
V3
p227
tp228
a(g226
V4
p229
tp230
a(VC(6,3)
p231
V4
p232
tp233
a(VC(5,3)
p234
V5
p235
tp236
a(VC(5,3)
p237
V5
p238
tp239
a(g237
V15
p240
tp241
a(VC(5,3)
p242
V60
p243
tp244
a(g237
V5
p245
tp246
a(g237
V60
p247
tp248
a(VC(5,3)
p249
V125
p250
tp251
a(g249
V40
p252
tp253
a(VC(6,3)
p254
V4
p255
tp256
a(VC(5,3)
p257
V5
p258
tp259
a(VC(6,3)
p260
V6
p261
tp262
a(g260
V13
p263
tp264
a(VC(6,3)
p265
V4
p266
tp267
a(g265
V6
p268
tp269
a(VC(6,3)
p270
V1
p271
tp272
a(g270
V3
p273
tp274
a(g270
V6
p275
tp276
a(VC(6,3)
p277
V6
p278
tp279
a(VC(4,3)
p280
V3
p281
tp282
a(VC(5,3)
p283
V5
p284
tp285
a(VC(5,3)
p286
V5
p287
tp288
a(VC(4,3)
p289
V64
p290
tp291
a(g289
V3
p292
tp293
a(VC(5,3)
p294
V5
p295
tp296
a(g294
V4
p297
tp298
a(g294
V3
p299
tp300
a(g294
V2
p301
tp302
a(g294
V1
p303
tp304
a(g294
V6
p305
tp306
a(g294
V5
p307
tp308
a(VC(5,3)
p309
V5
p310
tp311
a(g294
V20
p312
tp313
a(g294
V19
p314
tp315
a(g294
V18
p316
tp317
a(g294
V17
p318
tp319
a(g294
V16
p320
tp321
a(g294
V15
p322
tp323
a(g294
V14
p324
tp325
a(g294
V13
p326
tp327
a(g294
V12
p328
tp329
a(g294
V11
p330
tp331
a(VC(5,3)
p332
V60
p333
tp334
a(VC(6,3)
p335
V6
p336
tp337
a(g335
V5
p338
tp339
a(VC(5,3)
p340
V20
p341
tp342
a(VC(4,3)
p343
V6
p344
tp345
a(VC(6,3)
p346
V6
p347
tp348
a(VC(5,3)
p349
V5
p350
tp351
a(VC(6,3)
p352
V6
p353
tp354
a(VC(6,3)
p355
V6
p356
tp357
a(VC(6,3)
p358
V4
p359
tp360
a(g358
V15
p361
tp362
a(VC(6,3)
p363
V6
p364
tp365
a(VC(6,3)
p366
V24
p367
tp368
a(VC(5,3)
p369
V5
p370
tp371
a(VC(5,3)
p372
V5
p373
tp374
a(VC(5,3)
p375
V5
p376
tp377
a(VC(5,3)
p378
V5
p379
tp380
a(g378
V5
p381
tp382
a(g378
V5
p383
tp384
a(VC(6,3)
p385
V6
p386
tp387
a(VC(6,3)
p388
V6
p389
tp390
a(VC(6,3)
p391
V6
p392
tp393
a(VC(6,3)
p394
V6
p395
tp396
a(VC(4,3)
p397
V16
p398
tp399
a(VC(5,3)
p400
V5
p401
tp402
a(VC(4,3)
p403
V24
p404
tp405
a(VC(6,3)
p406
V33000
p407
tp408
a(g406
V6
p409
tp410
a(VC(5,3)
p411
V5
p412
tp413
a(VC(6,3)
p414
V6
p415
tp416
a(VC(5,3)
p417
V5
p418
tp419
a(VC(6,3)
p420
V4
p421
tp422
a(g420
V6
p423
tp424
a(VC(5,3)
p425
V5
p426
tp427
a(VC(5,3)
p428
V5
p429
tp430
a(VC(5,3)
p431
V5
p432
tp433
asS"['R.1']"
p434
(lp435
(VC(6,3)
p436
VC(6,3)^3
p437
(lp438
(S'R.1'
p439
F3.0
V3
p440
g440
tp441
aVbmilton
p442
(lp443
(V$n
p444
V78
p445
tp446
a(V$ns
p447
V6
p448
tp449
a(V$nr
p450
V13
p451
tp452
a(V$n
p453
V78
p454
tp455
a(V$ns
p456
V6
p457
tp458
a(V$nr
p459
V13
p460
tp461
aV2015-10-09 23:23:45
p462
tp463
a(g183
V5*4*3
p464
(lp465
(S'R.1'
p466
F3.0
g440
g440
tp467
aVtstevens
p468
(lp469
(V$n
p470
V60
p471
tp472
a(V$ns
p473
V5
p474
tp475
a(V$nr
p476
V12
p477
tp478
a(V$n
p479
V60
p480
tp481
a(V$ns
p482
V5
p483
tp484
a(V$nr
p485
V12
p486
tp487
aV2015-10-10 10:57:52
p488
tp489
a(g226
VC(4,3)
p490
(lp491
(S'R.1'
p492
F3.0
g440
g440
tp493
aVpthsu
p494
(lp495
(V$n
p496
V78
p497
tp498
a(V$ns
p499
V6
p500
tp501
a(V$nr
p502
V13
p503
tp504
a(V$n
p505
V78
p506
tp507
a(V$ns
p508
V6
p509
tp510
a(V$nr
p511
V13
p512
tp513
aV2015-10-10 20:12:41
p514
tp515
a(g226
VP(4,3)
p516
(lp517
(S'R.1'
p518
F3.0
g440
g440
tp519
aVpthsu
p520
g495
V2015-10-10 20:14:35
p521
tp522
a(g226
V4**3
p523
(lp524
(S'R.1'
p525
F3.0
g440
g440
tp526
aVpthsu
p527
g495
V2015-10-10 20:16:49
p528
tp529
a(VC(6,3)
p530
VC(15,3)
p531
(lp532
(S'R.1'
p533
F3.0
g440
g440
tp534
aVhaw081
p535
(lp536
(V$n
p537
V90
p538
tp539
a(V$ns
p540
V6
p541
tp542
a(V$nr
p543
V15
p544
tp545
a(V$n
p546
V90
p547
tp548
a(V$ns
p549
V6
p550
tp551
a(V$nr
p552
V15
p553
tp554
aV2015-10-11 00:51:51
p555
tp556
a(g530
VC(4,3)
p557
(lp558
(S'R.1'
p559
F3.0
g440
g440
tp560
aVhaw081
p561
g536
V2015-10-11 00:53:21
p562
tp563
a(VC(6,3)
p564
VC(4,3)
p565
(lp566
(S'R.1'
p567
F3.0
g440
g440
tp568
aVetemlock
p569
(lp570
(V$n
p571
V78
p572
tp573
a(V$ns
p574
V6
p575
tp576
a(V$nr
p577
V13
p578
tp579
a(V$n
p580
V78
p581
tp582
a(V$ns
p583
V6
p584
tp585
a(V$nr
p586
V13
p587
tp588
aV2015-10-11 01:45:53
p589
tp590
a(g249
V5*4*3
p591
(lp592
(S'R.1'
p593
F3.0
g440
g440
tp594
aVc2qiu
p595
(lp596
(V$n
p597
V50
p598
tp599
a(V$ns
p600
V5
p601
tp602
a(V$nr
p603
V10
p604
tp605
a(V$n
p606
V50
p607
tp608
a(V$ns
p609
V5
p610
tp611
a(V$nr
p612
V10
p613
tp614
aV2015-10-11 20:45:51
p615
tp616
a(g257
V(5!/(3!2!))^3
p617
(lp618
(S'R.1'
p619
F3.0
g440
g440
tp620
aVskarimik
p621
(lp622
(V$n
p623
V70
p624
tp625
a(V$ns
p626
V5
p627
tp628
a(V$nr
p629
V14
p630
tp631
a(V$n
p632
V70
p633
tp634
a(V$ns
p635
V5
p636
tp637
a(V$nr
p638
V14
p639
tp640
aV2015-10-12 00:50:27
p641
tp642
a(VC(5,3)
p643
VC(12,3)
p644
(lp645
(S'R.1'
p646
F3.0
g440
g440
tp647
aVjyc018
p648
(lp649
(V$n
p650
V60
p651
tp652
a(V$ns
p653
V5
p654
tp655
a(V$nr
p656
V12
p657
tp658
a(V$n
p659
V60
p660
tp661
a(V$ns
p662
V5
p663
tp664
a(V$nr
p665
V12
p666
tp667
aV2015-10-12 02:52:43
p668
tp669
a(VC(6,3)
p670
VC(6,3)^3
p671
(lp672
(S'R.1'
p673
F3.0
g440
g440
tp674
aVs2chaudh
p675
(lp676
(V$n
p677
V84
p678
tp679
a(V$ns
p680
V6
p681
tp682
a(V$nr
p683
V14
p684
tp685
a(V$n
p686
V84
p687
tp688
a(V$ns
p689
V6
p690
tp691
a(V$nr
p692
V14
p693
tp694
aV2015-10-13 20:04:02
p695
tp696
a(g283
VC(16, 3)
p697
(lp698
(S'R.1'
p699
F3.0
g440
g440
tp700
aVpcdo
p701
(lp702
(V$n
p703
V80
p704
tp705
a(V$ns
p706
V5
p707
tp708
a(V$nr
p709
V16
p710
tp711
a(V$n
p712
V80
p713
tp714
a(V$ns
p715
V5
p716
tp717
a(V$nr
p718
V16
p719
tp720
aV2015-10-13 20:43:34
p721
tp722
a(VC(4,3)
p723
V4^4 -3
p724
(lp725
(S'R.1'
p726
F3.0
g440
g440
tp727
aVjcl084
p728
(lp729
(V$n
p730
V40
p731
tp732
a(V$ns
p733
V4
p734
tp735
a(V$nr
p736
V10
p737
tp738
a(V$n
p739
V40
p740
tp741
a(V$ns
p742
V4
p743
tp744
a(V$nr
p745
V10
p746
tp747
aV2015-10-13 21:08:35
p748
tp749
a(g286
V5*4*3
p750
(lp751
(S'R.1'
p752
F3.0
g440
g440
tp753
aVglcohen
p754
(lp755
(V$n
p756
V65
p757
tp758
a(V$ns
p759
V5
p760
tp761
a(V$nr
p762
V13
p763
tp764
a(V$n
p765
V65
p766
tp767
a(V$ns
p768
V5
p769
tp770
a(V$nr
p771
V13
p772
tp773
aV2015-10-13 21:11:22
p774
tp775
a(g335
VC(4,3)
p776
(lp777
(S'R.1'
p778
F3.0
g440
g440
tp779
aVv4sharma
p780
(lp781
(V$n
p782
V78
p783
tp784
a(V$ns
p785
V6
p786
tp787
a(V$nr
p788
V13
p789
tp790
a(V$n
p791
V78
p792
tp793
a(V$ns
p794
V6
p795
tp796
a(V$nr
p797
V13
p798
tp799
aV2015-10-14 02:12:04
p800
tp801
a(g349
V5*4*3
p802
(lp803
(S'R.1'
p804
F3.0
g440
g440
tp805
aVdcgriffi
p806
(lp807
(V$n
p808
V80
p809
tp810
a(V$ns
p811
V5
p812
tp813
a(V$nr
p814
V16
p815
tp816
a(V$n
p817
V80
p818
tp819
a(V$ns
p820
V5
p821
tp822
a(V$nr
p823
V16
p824
tp825
aV2015-10-14 07:49:51
p826
tp827
a(g355
VC(6,3)^3
p828
(lp829
(S'R.1'
p830
F3.0
g440
g440
tp831
aVachava
p832
(lp833
(V$n
p834
V60
p835
tp836
a(V$ns
p837
V6
p838
tp839
a(V$nr
p840
V10
p841
tp842
a(V$n
p843
V60
p844
tp845
a(V$ns
p846
V6
p847
tp848
a(V$nr
p849
V10
p850
tp851
aV2015-10-14 19:34:55
p852
tp853
a(g355
VC(6,3)^3
p854
(lp855
(S'R.1'
p856
F3.0
g440
g440
tp857
aVachava
p858
g833
V2015-10-14 19:38:54
p859
tp860
a(VC(5,3)
p861
V4^3
p862
(lp863
(S'R.1'
p864
F3.0
g440
g440
tp865
aVd6he
p866
(lp867
(V$n
p868
V70
p869
tp870
a(V$ns
p871
V5
p872
tp873
a(V$nr
p874
V14
p875
tp876
a(V$n
p877
V70
p878
tp879
a(V$ns
p880
V5
p881
tp882
a(V$nr
p883
V14
p884
tp885
aV2015-10-15 07:13:26
p886
tp887
a(g861
V5*4*3
p888
(lp889
(S'R.1'
p890
F3.0
g440
g440
tp891
aVd6he
p892
g867
V2015-10-15 07:14:15
p893
tp894
a(VC(6,3)
p895
V20^3
p896
(lp897
(S'R.1'
p898
F3.0
g440
g440
tp899
aVanl114
p900
(lp901
(V$n
p902
V72
p903
tp904
a(V$ns
p905
V6
p906
tp907
a(V$nr
p908
V12
p909
tp910
a(V$n
p911
V72
p912
tp913
a(V$ns
p914
V6
p915
tp916
a(V$nr
p917
V12
p918
tp919
aV2015-10-15 08:40:55
p920
tp921
a(g428
VC(5,3)^3
p922
(lp923
(S'R.1'
p924
F3.0
g440
g440
tp925
aVkalang
p926
(lp927
(V$n
p928
V80
p929
tp930
a(V$ns
p931
V5
p932
tp933
a(V$nr
p934
V16
p935
tp936
a(V$n
p937
V80
p938
tp939
a(V$ns
p940
V5
p941
tp942
a(V$nr
p943
V16
p944
tp945
aV2015-10-15 23:25:07
p946
tp947
a(g431
V5*4*3
p948
(lp949
(S'R.1'
p950
F3.0
g440
g440
tp951
aVdtea
p952
(lp953
(V$n
p954
V70
p955
tp956
a(V$ns
p957
V5
p958
tp959
a(V$nr
p960
V14
p961
tp962
a(V$n
p963
V70
p964
tp965
a(V$ns
p966
V5
p967
tp968
a(V$nr
p969
V14
p970
tp971
aV2015-10-15 23:47:21
p972
tp973
asS"['R.0']"
p974
(lp975
(g355
V6*5
p976
(lp977
(S'R.0'
p978
F6.0
V6
p979
g979
tp980
aVachava
p981
g833
V2015-10-14 19:36:41
p982
tp983
a(g378
V5 * 14
p984
(lp985
(S'R.0'
p986
F5.0
V5
p987
g987
tp988
aVanvan
p989
(lp990
(V$n
p991
V70
p992
tp993
a(V$ns
p994
V5
p995
tp996
a(V$nr
p997
V14
p998
tp999
a(V$n
p1000
V70
p1001
tp1002
a(V$ns
p1003
V5
p1004
tp1005
a(V$nr
p1006
V14
p1007
tp1008
aV2015-10-15 01:34:26
p1009
tp1010
a(g391
V6**2
p1011
(lp1012
(S'R.0'
p1013
F6.0
g979
g979
tp1014
aVhah008
p1015
(lp1016
(V$n
p1017
V60
p1018
tp1019
a(V$ns
p1020
V6
p1021
tp1022
a(V$nr
p1023
V10
p1024
tp1025
a(V$n
p1026
V60
p1027
tp1028
a(V$ns
p1029
V6
p1030
tp1031
a(V$nr
p1032
V10
p1033
tp1034
aV2015-10-15 09:20:33
p1035
tp1036
asg158
(lp1037
(VC(5,3)
p1038
V5^3/3!
p1039
tp1040
asS"['R.0', 'R.1']"
p1041
(lp1042
(g174
VC(5,1)^3
p1043
(lp1044
(S'R.0'
p1045
F5.0
g987
VC(5,1)
p1046
tp1047
a(S'R.1'
p1048
F3.0
g440
g440
tp1049
aVj5phung
p1050
(lp1051
(V$n
p1052
V55
p1053
tp1054
a(V$ns
p1055
V5
p1056
tp1057
a(V$nr
p1058
V11
p1059
tp1060
a(V$n
p1061
V55
p1062
tp1063
a(V$ns
p1064
V5
p1065
tp1066
a(V$nr
p1067
V11
p1068
tp1069
aV2015-10-09 19:13:22
p1070
tp1071
a(VC(6,3)
p1072
V6^3
p1073
(lp1074
(S'R.0'
p1075
F6.0
g979
g979
tp1076
a(S'R.1'
p1077
F3.0
g440
g440
tp1078
aValakamsa
p1079
(lp1080
(V$n
p1081
V66
p1082
tp1083
a(V$ns
p1084
V6
p1085
tp1086
a(V$nr
p1087
V11
p1088
tp1089
a(V$n
p1090
V66
p1091
tp1092
a(V$ns
p1093
V6
p1094
tp1095
a(V$nr
p1096
V11
p1097
tp1098
aV2015-10-10 21:07:31
p1099
tp1100
a(VC(5,3)
p1101
V5^3
p1102
(lp1103
(S'R.0'
p1104
F5.0
g987
g987
tp1105
a(S'R.1'
p1106
F3.0
g440
g440
tp1107
aVxil109
p1108
(lp1109
(V$n
p1110
V80
p1111
tp1112
a(V$ns
p1113
V5
p1114
tp1115
a(V$nr
p1116
V16
p1117
tp1118
a(V$n
p1119
V80
p1120
tp1121
a(V$ns
p1122
V5
p1123
tp1124
a(V$nr
p1125
V16
p1126
tp1127
aV2015-10-10 21:20:48
p1128
tp1129
a(VC(5,3)
p1130
V5^3
p1131
(lp1132
(S'R.0'
p1133
F5.0
g987
g987
tp1134
a(S'R.1'
p1135
F3.0
g440
g440
tp1136
aVspw006
p1137
(lp1138
(V$n
p1139
V50
p1140
tp1141
a(V$ns
p1142
V5
p1143
tp1144
a(V$nr
p1145
V10
p1146
tp1147
a(V$n
p1148
V50
p1149
tp1150
a(V$ns
p1151
V5
p1152
tp1153
a(V$nr
p1154
V10
p1155
tp1156
aV2015-10-13 23:05:45
p1157
tp1158
a(VC(6,3)
p1159
V6^3
p1160
(lp1161
(S'R.0'
p1162
F6.0
g979
g979
tp1163
a(S'R.1'
p1164
F3.0
g440
g440
tp1165
aVjcj006
p1166
(lp1167
(V$n
p1168
V96
p1169
tp1170
a(V$ns
p1171
V6
p1172
tp1173
a(V$nr
p1174
V16
p1175
tp1176
a(V$n
p1177
V96
p1178
tp1179
a(V$ns
p1180
V6
p1181
tp1182
a(V$nr
p1183
V16
p1184
tp1185
aV2015-10-14 00:36:34
p1186
tp1187
a(g346
V6^3
p1188
(lp1189
(S'R.0'
p1190
F6.0
g979
g979
tp1191
a(S'R.1'
p1192
F3.0
g440
g440
tp1193
aVt2li
p1194
(lp1195
(V$n
p1196
V84
p1197
tp1198
a(V$ns
p1199
V6
p1200
tp1201
a(V$nr
p1202
V14
p1203
tp1204
a(V$n
p1205
V84
p1206
tp1207
a(V$ns
p1208
V6
p1209
tp1210
a(V$nr
p1211
V14
p1212
tp1213
aV2015-10-14 07:18:33
p1214
tp1215
a(g355
VC(6,1)^3
p1216
(lp1217
(S'R.0'
p1218
F6.0
g979
VC(6,1)
p1219
tp1220
a(S'R.1'
p1221
F3.0
g440
g440
tp1222
aVachava
p1223
g833
V2015-10-14 19:34:46
p1224
tp1225
a(g1038
V5^3
p1226
(lp1227
(S'R.0'
p1228
F5.0
g987
g987
tp1229
a(S'R.1'
p1230
F3.0
g440
g440
tp1231
aVw4shin
p1232
(lp1233
(V$n
p1234
V70
p1235
tp1236
a(V$ns
p1237
V5
p1238
tp1239
a(V$nr
p1240
V14
p1241
tp1242
a(V$n
p1243
V70
p1244
tp1245
a(V$ns
p1246
V5
p1247
tp1248
a(V$nr
p1249
V14
p1250
tp1251
aV2015-10-15 00:16:10
p1252
tp1253
a(VC(4,3)
p1254
V4^3
p1255
(lp1256
(S'R.0'
p1257
F4.0
V4
p1258
g1258
tp1259
a(S'R.1'
p1260
F3.0
g440
g440
tp1261
aVkmc012
p1262
(lp1263
(V$n
p1264
V48
p1265
tp1266
a(V$ns
p1267
V4
p1268
tp1269
a(V$nr
p1270
V12
p1271
tp1272
a(V$n
p1273
V48
p1274
tp1275
a(V$ns
p1276
V4
p1277
tp1278
a(V$nr
p1279
V12
p1280
tp1281
aV2015-10-15 05:44:05
p1282
tp1283
a(VC(6,3)
p1284
V6^3
p1285
(lp1286
(S'R.0'
p1287
F6.0
g979
g979
tp1288
a(S'R.1'
p1289
F3.0
g440
g440
tp1290
aVjhp077
p1291
(lp1292
(V$n
p1293
V78
p1294
tp1295
a(V$ns
p1296
V6
p1297
tp1298
a(V$nr
p1299
V13
p1300
tp1301
aV2015-10-15 06:41:24
p1302
tp1303
a(g861
V5^3
p1304
(lp1305
(S'R.0'
p1306
F5.0
g987
g987
tp1307
a(S'R.1'
p1308
F3.0
g440
g440
tp1309
aVd6he
p1310
g867
V2015-10-15 07:13:42
p1311
tp1312
a(g397
V4^3
p1313
(lp1314
(S'R.0'
p1315
F4.0
g1258
g1258
tp1316
a(S'R.1'
p1317
F3.0
g440
g440
tp1318
aVyjshin
p1319
(lp1320
(V$n
p1321
V64
p1322
tp1323
a(V$ns
p1324
V4
p1325
tp1326
a(V$nr
p1327
V16
p1328
tp1329
a(V$n
p1330
V64
p1331
tp1332
a(V$ns
p1333
V4
p1334
tp1335
a(V$nr
p1336
V16
p1337
tp1338
aV2015-10-15 12:02:13
p1339
tp1340
a(VC(5,3)
p1341
V5^3
p1342
(lp1343
(S'R.0'
p1344
F5.0
g987
g987
tp1345
a(S'R.1'
p1346
F3.0
g440
g440
tp1347
aVr1gu
p1348
(lp1349
(V$n
p1350
V55
p1351
tp1352
a(V$ns
p1353
V5
p1354
tp1355
a(V$nr
p1356
V11
p1357
tp1358
a(V$n
p1359
V55
p1360
tp1361
a(V$ns
p1362
V5
p1363
tp1364
a(V$nr
p1365
V11
p1366
tp1367
aV2015-10-15 22:50:21
p1368
tp1369
a(VC(4,3)
p1370
V(C(4, 1))^3
p1371
(lp1372
(S'R.0'
p1373
F4.0
g1258
VC(4, 1)
p1374
tp1375
a(S'R.1'
p1376
F3.0
g440
g440
tp1377
aVv4zhang
p1378
(lp1379
(V$n
p1380
V60
p1381
tp1382
a(V$ns
p1383
V4
p1384
tp1385
a(V$nr
p1386
V15
p1387
tp1388
a(V$n
p1389
V60
p1390
tp1391
a(V$ns
p1392
V4
p1393
tp1394
a(V$nr
p1395
V15
p1396
tp1397
aV2015-10-15 23:00:54
p1398
tp1399
assV2
p1400
g2
(g3
tp1401
Rp1402
g6
(lp1403
(V11
p1404
V12
p1405
tp1406
a(V15
p1407
V14
p1408
tp1409
a(V11
p1410
V12
p1411
tp1412
a(V10
p1413
V11
p1414
tp1415
a(V14
p1416
V12
p1417
tp1418
a(V10
p1419
V11
p1420
tp1421
a(g1419
V11
p1422
tp1423
a(g1419
V8
p1424
tp1425
a(V14
p1426
V13
p1427
tp1428
a(V15
p1429
V12
p1430
tp1431
a(V9
p1432
V21
p1433
tp1434
a(V15
p1435
V14
p1436
tp1437
a(V15
p1438
V72
p1439
tp1440
a(V13
p1441
V1
p1442
tp1443
a(g1441
V2
p1444
tp1445
a(V10
p1446
V11
p1447
tp1448
a(V15
p1449
V11
p1450
tp1451
a(V10
p1452
V150
p1453
tp1454
a(V10
p1455
V8
p1456
tp1457
a(V11
p1458
V10
p1459
tp1460
a(V13
p1461
V14
p1462
tp1463
asS'redirect'
p1464
(lp1465
(V13
p1466
VC(4,2)
p1467
tp1468
a(V10
p1469
VC(6,2)
p1470
tp1471
a(g1469
VC(6,3)
p1472
tp1473
a(g1469
VC(6,3)
p1474
tp1475
a(g1469
VC(6,3)
p1476
tp1477
a(g1469
V11*C(11,2)
p1478
tp1479
a(V15
p1480
V13!(2!11!)
p1481
tp1482
a(V11
p1483
VC(11,2)
p1484
tp1485
a(V12
p1486
VC(10,2)
p1487
tp1488
a(V15
p1489
V13!/(2*11!)
p1490
tp1491
a(V10
p1492
VC(51,2)
p1493
tp1494
a(V14
p1495
V14!/[(14-2)!2!]
p1496
tp1497
a(V9
p1498
V5!/(3!*2!)
p1499
tp1500
a(V12
p1501
VC(4,1)
p1502
tp1503
a(g1501
VC(4,1)
p1504
tp1505
a(g1501
VC(4,1)
p1506
tp1507
a(V11
p1508
VC(5,2)
p1509
tp1510
a(g1508
VC(5,2)
p1511
tp1512
a(V11
p1513
V12!/(10!*2!)
p1514
tp1515
a(V12
p1516
V3*C(13,2)
p1517
tp1518
a(g1516
V4*C(13,3)
p1519
tp1520
a(g1516
VC(12,1)C(4,2)
p1521
tp1522
a(V14
p1523
VC(12, 2)
p1524
tp1525
a(V10
p1526
V8!/(2!6!)
p1527
tp1528
assV5
p1529
g2
(g3
tp1530
Rp1531
g6
(lp1532
(V10*(10-1)*C(5,3)*C(5,2)
p1533
V2250
p1534
tp1535
a(V11*(11-1)*C(5,3)*C(5,2)
p1536
V132000
p1537
tp1538
a(V10*(10-1)*C(5,3)*C(5,2)
p1539
V281250
p1540
tp1541
a(g1539
V108000
p1542
tp1543
a(g1539
V144000
p1544
tp1545
a(V10*(10-1)*C(4,3)*C(4,2)
p1546
V3744
p1547
tp1548
a(V10*(10-1)*C(6,3)*C(6,2)
p1549
V756000
p1550
tp1551
a(V12*(12-1)*C(6,3)*C(6,2)
p1552
V3960
p1553
tp1554
a(V11*(11-1)*C(5,3)*C(5,2)
p1555
V4400
p1556
tp1557
asS"['R.0.0']"
p1558
(lp1559
(V11*(11-1)*C(5,3)*C(5,2)
p1560
V11*10*5*4
p1561
(lp1562
(S'R.0.0'
p1563
F110.0
V11*(11-1)
p1564
V11*10
p1565
tp1566
aVj5phung
p1567
g1051
V2015-10-09 19:15:33
p1568
tp1569
a(V13*(13-1)*C(6,3)*C(6,2)
p1570
V13*12*3*2
p1571
(lp1572
(S'R.0.0'
p1573
F156.0
V13*(13-1)
p1574
V13*12
p1575
tp1576
aVpthsu
p1577
g495
V2015-10-10 20:13:07
p1578
tp1579
a(V12*(12-1)*C(5,3)*C(5,2)
p1580
V12*11*5*5
p1581
(lp1582
(S'R.0.0'
p1583
F132.0
V12*(12-1)
p1584
V12*11
p1585
tp1586
aVs1powers
p1587
(lp1588
(V$n
p1589
V60
p1590
tp1591
a(V$ns
p1592
V5
p1593
tp1594
a(V$nr
p1595
V12
p1596
tp1597
a(V$n
p1598
V60
p1599
tp1600
a(V$ns
p1601
V5
p1602
tp1603
a(V$nr
p1604
V12
p1605
tp1606
aV2015-10-11 00:15:01
p1607
tp1608
a(V14*(14-1)*C(5,3)*C(5,2)
p1609
V14*13*5*4
p1610
(lp1611
(S'R.0.0'
p1612
F182.0
V14*(14-1)
p1613
V14*13
p1614
tp1615
aVskarimik
p1616
g622
V2015-10-12 00:52:57
p1617
tp1618
a(V14*(14-1)*C(5,3)*C(5,2)
p1619
V14*13*5*4
p1620
(lp1621
(S'R.0.0'
p1622
F182.0
V14*(14-1)
p1623
V14*13
p1624
tp1625
aVhaliew
p1626
(lp1627
(V$n
p1628
V70
p1629
tp1630
a(V$ns
p1631
V5
p1632
tp1633
a(V$nr
p1634
V14
p1635
tp1636
a(V$n
p1637
V70
p1638
tp1639
a(V$ns
p1640
V5
p1641
tp1642
a(V$nr
p1643
V14
p1644
tp1645
aV2015-10-14 00:45:58
p1646
tp1647
a(V12*(12-1)*C(5,3)*C(5,2)
p1648
V12*11*20*20
p1649
(lp1650
(S'R.0.0'
p1651
F132.0
V12*(12-1)
p1652
V12*11
p1653
tp1654
aVyil035
p1655
(lp1656
(V$n
p1657
V60
p1658
tp1659
a(V$ns
p1660
V5
p1661
tp1662
a(V$nr
p1663
V12
p1664
tp1665
a(V$n
p1666
V60
p1667
tp1668
a(V$ns
p1669
V5
p1670
tp1671
a(V$nr
p1672
V12
p1673
tp1674
aV2015-10-14 03:15:19
p1675
tp1676
a(V13*(13-1)*C(6,3)*C(6,2)
p1677
VC(13,1) * C(12,1) * 6 * 6
p1678
(lp1679
(S'R.0.0'
p1680
F156.0
V13*(13-1)
p1681
VC(13,1) * C(12,1)
p1682
tp1683
aVcsl030
p1684
(lp1685
(V$n
p1686
V78
p1687
tp1688
a(V$ns
p1689
V6
p1690
tp1691
a(V$nr
p1692
V13
p1693
tp1694
a(V$n
p1695
V78
p1696
tp1697
a(V$ns
p1698
V6
p1699
tp1700
a(V$nr
p1701
V13
p1702
tp1703
aV2015-10-14 03:39:49
p1704
tp1705
a(V16*(16-1)*C(5,3)*C(5,2)
p1706
V16*15*5*4
p1707
(lp1708
(S'R.0.0'
p1709
F240.0
V16*(16-1)
p1710
V16*15
p1711
tp1712
aVdcgriffi
p1713
g807
V2015-10-14 07:49:35
p1714
tp1715
a(V16*(16-1)*C(5,3)*C(5,2)
p1716
V16*15*2*(5!/(3!*2!))
p1717
(lp1718
(S'R.0.0'
p1719
F240.0
V16*(16-1)
p1720
V16*15
p1721
tp1722
aVlpettit
p1723
(lp1724
(V$n
p1725
V80
p1726
tp1727
a(V$ns
p1728
V5
p1729
tp1730
a(V$nr
p1731
V16
p1732
tp1733
a(V$n
p1734
V80
p1735
tp1736
a(V$ns
p1737
V5
p1738
tp1739
a(V$nr
p1740
V16
p1741
tp1742
aV2015-10-14 21:26:00
p1743
tp1744
a(V14*(14-1)*C(5,3)*C(5,2)
p1745
V14*13*(5^3-5)*(5^2-5)
p1746
(lp1747
(S'R.0.0'
p1748
F182.0
V14*(14-1)
p1749
V14*13
p1750
tp1751
aVw4shin
p1752
g1233
V2015-10-15 00:17:49
p1753
tp1754
a(V16*(16-1)*C(5,3)*C(5,2)
p1755
V16*15*(16)*(5!/((2!)(3!)))
p1756
(lp1757
(S'R.0.0'
p1758
F240.0
V16*(16-1)
p1759
V16*15
p1760
tp1761
aVdcastlem
p1762
(lp1763
(V$n
p1764
V80
p1765
tp1766
a(V$ns
p1767
V5
p1768
tp1769
a(V$nr
p1770
V16
p1771
tp1772
a(V$n
p1773
V80
p1774
tp1775
a(V$ns
p1776
V5
p1777
tp1778
a(V$nr
p1779
V16
p1780
tp1781
aV2015-10-15 14:59:36
p1782
tp1783
a(V16*(16-1)*C(6,3)*C(6,2)
p1784
V16*15*C(6,1)*C(5,1)
p1785
(lp1786
(S'R.0.0'
p1787
F240.0
V16*(16-1)
p1788
V16*15
p1789
tp1790
aVkgrozav
p1791
(lp1792
(V$n
p1793
V96
p1794
tp1795
a(V$ns
p1796
V6
p1797
tp1798
a(V$nr
p1799
V16
p1800
tp1801
a(V$n
p1802
V96
p1803
tp1804
a(V$ns
p1805
V6
p1806
tp1807
a(V$nr
p1808
V16
p1809
tp1810
aV2015-10-15 20:23:27
p1811
tp1812
a(V12*(12-1)*C(6,3)*C(6,2)
p1813
V12*11*6*5
p1814
(lp1815
(S'R.0.0'
p1816
F132.0
V12*(12-1)
p1817
V12*11
p1818
tp1819
aVjtfrankl
p1820
(lp1821
(V$n
p1822
V72
p1823
tp1824
a(V$ns
p1825
V6
p1826
tp1827
a(V$nr
p1828
V12
p1829
tp1830
a(V$n
p1831
V72
p1832
tp1833
a(V$ns
p1834
V6
p1835
tp1836
a(V$nr
p1837
V12
p1838
tp1839
aV2015-10-15 21:38:29
p1840
tp1841
a(V13*(13-1)*C(5,3)*C(5,2)
p1842
V13 * 12 * 5 * 5
p1843
(lp1844
(S'R.0.0'
p1845
F156.0
V13*(13-1)
p1846
V13 * 12
p1847
tp1848
aVdando
p1849
(lp1850
(V$n
p1851
V65
p1852
tp1853
a(V$ns
p1854
V5
p1855
tp1856
a(V$nr
p1857
V13
p1858
tp1859
a(V$n
p1860
V65
p1861
tp1862
a(V$ns
p1863
V5
p1864
tp1865
a(V$nr
p1866
V13
p1867
tp1868
aV2015-10-15 21:43:14
p1869
tp1870
asS"['R.0.0.1', 'R.1']"
p1871
(lp1872
(V13*(13-1)*C(4,3)*C(4,2)
p1873
V C(13,1)+C(12,1)+C(4,1)+C(4,2)
p1874
(lp1875
(S'R.0.0.1'
p1876
F12.0
V13-1
p1877
VC(12,1)
p1878
tp1879
a(S'R.1'
p1880
I6
VC(4,2)
p1881
VC(4,2)
p1882
tp1883
aVhmshah
p1884
(lp1885
(V$n
p1886
V52
p1887
tp1888
a(V$ns
p1889
V4
p1890
tp1891
a(V$nr
p1892
V13
p1893
tp1894
a(V$n
p1895
V52
p1896
tp1897
a(V$ns
p1898
V4
p1899
tp1900
a(V$nr
p1901
V13
p1902
tp1903
aV2015-10-14 09:11:01
p1904
tp1905
asS"['R.0.0', 'R.0.1.1', 'R.1.1']"
p1906
(lp1907
(V13*(13-1)*C(6,3)*C(6,2)
p1908
V13 * 12 * C(6,3)^3 * C(6,2)^2
p1909
(lp1910
(S'R.0.0'
p1911
F156.0
V13*(13-1)
p1912
V13 * 12
p1913
tp1914
a(S'R.0.1.1'
p1915
F3.0
g440
g440
tp1916
a(S'R.1.1'
p1917
F2.0
V2
p1918
g1918
tp1919
aVbmilton
p1920
g443
V2015-10-09 23:23:45
p1921
tp1922
a(g1570
V13*12*C(4,3)*C(4,2)
p1923
(lp1924
(S'R.0.0'
p1925
F156.0
V13*(13-1)
p1926
V13*12
p1927
tp1928
a(S'R.0.1.1'
p1929
F3.0
g440
g440
tp1930
a(S'R.1.1'
p1931
F2.0
g1918
g1918
tp1932
aVpthsu
p1933
g495
V2015-10-10 20:12:41
p1934
tp1935
a(V15*(15-1)*C(6,3)*C(6,2)
p1936
V15*14*C(4,3)*C(4,2)
p1937
(lp1938
(S'R.0.0'
p1939
F210.0
V15*(15-1)
p1940
V15*14
p1941
tp1942
a(S'R.0.1.1'
p1943
F3.0
g440
g440
tp1944
a(S'R.1.1'
p1945
F2.0
g1918
g1918
tp1946
aVhaw081
p1947
g536
V2015-10-11 00:53:21
p1948
tp1949
a(V13*(13-1)*C(6,3)*C(6,2)
p1950
VC(13,1)*C(12,1)* C(4,3) * C(4,2)
p1951
(lp1952
(S'R.0.0'
p1953
F156.0
V13*(13-1)
p1954
VC(13,1)*C(12,1)
p1955
tp1956
a(S'R.0.1.1'
p1957
F3.0
g440
g440
tp1958
a(S'R.1.1'
p1959
F2.0
g1918
g1918
tp1960
aVetemlock
p1961
g570
V2015-10-11 01:45:53
p1962
tp1963
a(g1745
V14*13*(5^3)*(5^2)
p1964
(lp1965
(S'R.0.0'
p1966
F182.0
V14*(14-1)
p1967
V14*13
p1968
tp1969
a(S'R.0.1.1'
p1970
F3.0
g440
g440
tp1971
a(S'R.1.1'
p1972
F2.0
g1918
g1918
tp1973
aVw4shin
p1974
g1233
V2015-10-15 00:16:10
p1975
tp1976
asS"['R.0.0', 'R.1.1']"
p1977
(lp1978
(g1560
V11*10*C(5,1)*C(4,1)^2
p1979
(lp1980
(S'R.0.0'
p1981
F110.0
V11*(11-1)
p1982
V11*10
p1983
tp1984
a(S'R.1.1'
p1985
F2.0
g1918
g1918
tp1986
aVj5phung
p1987
g1051
V2015-10-09 19:13:54
p1988
tp1989
asS"['R.0']"
p1990
(lp1991
(V13*(13-1)*C(4,3)*C(4,2)
p1992
V13 * 12 * 4 * 3
p1993
(lp1994
(S'R.0'
p1995
F624.0
V13*(13-1)*C(4,3)
p1996
V13 * 12 * 4
p1997
tp1998
aVv3doan
p1999
(lp2000
(V$n
p2001
V52
p2002
tp2003
a(V$ns
p2004
V4
p2005
tp2006
a(V$nr
p2007
V13
p2008
tp2009
a(V$n
p2010
V52
p2011
tp2012
a(V$ns
p2013
V4
p2014
tp2015
a(V$nr
p2016
V13
p2017
tp2018
aV2015-10-11 03:31:09
p2019
tp2020
a(V11*(11-1)*C(5,3)*C(5,2)
p2021
V[11 * 10 * C(5, 3) * C(5, 4)]
p2022
(lp2023
(S'R.0'
p2024
F1100.0
V11*(11-1)*C(5,3)
p2025
V11 * 10 * C(5, 3)
p2026
tp2027
aVrwthomps
p2028
(lp2029
(V$n
p2030
V55
p2031
tp2032
a(V$ns
p2033
V5
p2034
tp2035
a(V$nr
p2036
V11
p2037
tp2038
a(V$n
p2039
V55
p2040
tp2041
a(V$ns
p2042
V5
p2043
tp2044
a(V$nr
p2045
V11
p2046
tp2047
aV2015-10-11 23:14:45
p2048
tp2049
a(V14*(14-1)*C(4,3)*C(4,2)
p2050
V14*13*4*3
p2051
(lp2052
(S'R.0'
p2053
F728.0
V14*(14-1)*C(4,3)
p2054
V14*13*4
p2055
tp2056
aVsachadal
p2057
(lp2058
(V$n
p2059
V56
p2060
tp2061
a(V$ns
p2062
V4
p2063
tp2064
a(V$nr
p2065
V14
p2066
tp2067
a(V$n
p2068
V56
p2069
tp2070
a(V$ns
p2071
V4
p2072
tp2073
a(V$nr
p2074
V14
p2075
tp2076
aV2015-10-14 18:22:40
p2077
tp2078
a(V14*(14-1)*C(4,3)*C(4,2)
p2079
V14*13*(4!/(3!))*(4!(2!2!))
p2080
(lp2081
(S'R.0'
p2082
F728.0
V14*(14-1)*C(4,3)
p2083
V14*13*(4!/(3!))
p2084
tp2085
aVmuy002
p2086
(lp2087
(V$n
p2088
V56
p2089
tp2090
a(V$ns
p2091
V4
p2092
tp2093
a(V$nr
p2094
V14
p2095
tp2096
a(V$n
p2097
V56
p2098
tp2099
a(V$ns
p2100
V4
p2101
tp2102
a(V$nr
p2103
V14
p2104
tp2105
aV2015-10-14 21:59:23
p2106
tp2107
a(V16*(16-1)*C(4,3)*C(4,2)
p2108
V16*15*4*3
p2109
(lp2110
(S'R.0'
p2111
F960.0
V16*(16-1)*C(4,3)
p2112
V16*15*4
p2113
tp2114
aValhung
p2115
(lp2116
(V$n
p2117
V64
p2118
tp2119
a(V$ns
p2120
V4
p2121
tp2122
a(V$nr
p2123
V16
p2124
tp2125
a(V$n
p2126
V64
p2127
tp2128
a(V$ns
p2129
V4
p2130
tp2131
a(V$nr
p2132
V16
p2133
tp2134
aV2015-10-15 20:20:10
p2135
tp2136
a(g2108
V16*15*4*4
p2137
(lp2138
(S'R.0'
p2139
F960.0
V16*(16-1)*C(4,3)
p2140
V16*15*4
p2141
tp2142
aValhung
p2143
g2116
V2015-10-15 20:20:47
p2144
tp2145
a(V12*(12-1)*C(4,3)*C(4,2)
p2146
V12*11*4*5
p2147
(lp2148
(S'R.0'
p2149
F528.0
V12*(12-1)*C(4,3)
p2150
V12*11*4
p2151
tp2152
aVaurodrig
p2153
(lp2154
(V$n
p2155
V48
p2156
tp2157
a(V$ns
p2158
V4
p2159
tp2160
a(V$nr
p2161
V12
p2162
tp2163
a(V$n
p2164
V48
p2165
tp2166
a(V$ns
p2167
V4
p2168
tp2169
a(V$nr
p2170
V12
p2171
tp2172
aV2015-10-15 21:36:10
p2173
tp2174
asS"['R.1']"
p2175
(lp2176
(V11*(11-1)*C(6,3)*C(6,2)
p2177
V20*15
p2178
(lp2179
(S'R.1'
p2180
I15
VC(6,2)
p2181
V15
p2182
tp2183
aVlywong
p2184
(lp2185
(V$n
p2186
V66
p2187
tp2188
a(V$ns
p2189
V6
p2190
tp2191
a(V$nr
p2192
V11
p2193
tp2194
a(V$n
p2195
V66
p2196
tp2197
a(V$ns
p2198
V6
p2199
tp2200
a(V$nr
p2201
V11
p2202
tp2203
aV2015-10-13 08:39:58
p2204
tp2205
asg1464
(lp2206
(V14*(14-1)*C(5,3)*C(5,2)
p2207
V14*3*(5!/4!)*(5!/3!)
p2208
tp2209
a(V15*(15-1)*C(5,3)*C(5,2)
p2210
V15*14**5*4
p2211
tp2212
a(V16*(16-1)*C(6,3)*C(6,2)
p2213
V6!/(2!4!)6!/(2!4!)6!/(2!4!)*15*16
p2214
tp2215
a(V14*(14-1)*C(4,3)*C(4,2)
p2216
V4*14*4*13
p2217
tp2218
a(V13*(13-1)*C(6,3)*C(6,2)
p2219
V13*12*24
p2220
tp2221
a(g1609
V14*13*(5!/(3!2!))^5
p2222
tp2223
a(V11*(11-1)*C(4,3)*C(4,2)
p2224
V11*4*4*10
p2225
tp2226
a(V13*(13-1)*C(6,3)*C(6,2)
p2227
V13*12*2*5*4*3*5
p2228
tp2229
a(V16*(16-1)*C(4,3)*C(4,2)
p2230
V13*12*4*3
p2231
tp2232
a(V15*(15-1)*C(5,3)*C(5,2)
p2233
V[15!/[(15-3)!3!]]*[14!/[(14-2)!2!]]*[5!/[(5-3)!3!]]*[5!/[(5-2)!2!]]
p2234
tp2235
a(g1706
V15*14*5*4
p2236
tp2237
asS"['R.1.1']"
p2238
(lp2239
(V14*(14-1)*C(6,3)*C(6,2)
p2240
V14*13*6^2*5^2*4^2
p2241
(lp2242
(S'R.1.1'
p2243
F2.0
g1918
g1918
tp2244
aVbeyounge
p2245
(lp2246
(V$n
p2247
V84
p2248
tp2249
a(V$ns
p2250
V6
p2251
tp2252
a(V$nr
p2253
V14
p2254
tp2255
a(V$n
p2256
V84
p2257
tp2258
a(V$ns
p2259
V6
p2260
tp2261
a(V$nr
p2262
V14
p2263
tp2264
aV2015-10-09 06:19:14
p2265
tp2266
a(g2240
V14*13*6^2
p2267
(lp2268
(S'R.1.1'
p2269
F2.0
g1918
g1918
tp2270
aVbeyounge
p2271
g2246
V2015-10-09 06:19:56
p2272
tp2273
a(g1936
VC(15,3)+C(14,2)
p2274
(lp2275
(S'R.1.1'
p2276
F2.0
g1918
g1918
tp2277
aVhaw081
p2278
g536
V2015-10-11 00:51:51
p2279
tp2280
asS"['R.0.1', 'R.1.1']"
p2281
(lp2282
(V15*(15-1)*C(6,3)*C(6,2)
p2283
VC(15,1)*C(14,2)*C(6,3)*C(6,1)^2
p2284
(lp2285
(S'R.0.1'
p2286
I20
VC(6,3)
p2287
VC(6,3)
p2288
tp2289
a(S'R.1.1'
p2290
F2.0
g1918
g1918
tp2291
aVdaw023
p2292
(lp2293
(V$n
p2294
V90
p2295
tp2296
a(V$ns
p2297
V6
p2298
tp2299
a(V$nr
p2300
V15
p2301
tp2302
a(V$n
p2303
V90
p2304
tp2305
a(V$ns
p2306
V6
p2307
tp2308
a(V$nr
p2309
V15
p2310
tp2311
aV2015-10-15 06:10:02
p2312
tp2313
asS"['R.0.1.0']"
p2314
(lp2315
(V14*(14-1)*C(5,3)*C(5,2)
p2316
V13 * 12 * 5!/(3!(5-3)!) * 5!/(2!(5-2)!)
p2317
(lp2318
(S'R.0.1.0'
p2319
F5.0
g987
g987
tp2320
aVkquong
p2321
(lp2322
(V$n
p2323
V70
p2324
tp2325
a(V$ns
p2326
V5
p2327
tp2328
a(V$nr
p2329
V14
p2330
tp2331
a(V$n
p2332
V70
p2333
tp2334
a(V$ns
p2335
V5
p2336
tp2337
a(V$nr
p2338
V14
p2339
tp2340
aV2015-10-11 05:44:02
p2341
tp2342
asS"['R.0.0', 'R.0.1.0', 'R.0.1.1', 'R.1.1']"
p2343
(lp2344
(g1560
V11*10*C(5,1)^3*C(4,1)^2
p2345
(lp2346
(S'R.0.0'
p2347
F110.0
V11*(11-1)
p2348
V11*10
p2349
tp2350
a(S'R.0.1.0'
p2351
F5.0
g987
VC(5,1)
p2352
tp2353
a(S'R.0.1.1'
p2354
F3.0
g440
g440
tp2355
a(S'R.1.1'
p2356
F2.0
g1918
g1918
tp2357
aVj5phung
p2358
g1051
V2015-10-09 19:13:22
p2359
tp2360
asS"['R.0', 'R.1.1']"
p2361
(lp2362
(g1619
V14*13*C(5,3)*C(4,2)
p2363
(lp2364
(S'R.0'
p2365
F1820.0
V14*(14-1)*C(5,3)
p2366
V14*13*C(5,3)
p2367
tp2368
a(S'R.1.1'
p2369
F2.0
g1918
g1918
tp2370
aVhaliew
p2371
g1627
V2015-10-14 00:46:57
p2372
tp2373
a(g1784
V16*15*C(6,3)*C(5,2)
p2374
(lp2375
(S'R.0'
p2376
F4800.0
V16*(16-1)*C(6,3)
p2377
V16*15*C(6,3)
p2378
tp2379
a(S'R.1.1'
p2380
F2.0
g1918
g1918
tp2381
aVkgrozav
p2382
g1792
V2015-10-15 20:24:34
p2383
tp2384
asg158
(lp2385
(g1546
V3744/2598960
p2386
tp2387
a(g1546
V3744/658008
p2388
tp2389
a(g2079
V14*13*(4!/(3!))*(4!(2!2!))/(52!/(5!47!))
p2390
tp2391
a(g2079
V14*13*(4!/(3!))*(4!/(2!2!))/(52!/(5!47!))
p2392
tp2393
a(g2079
V14*13*(4!/(3!))*(4!/(2!2!))/(56!/(5!51!))
p2394
tp2395
a(g2079
V56!/(5!51!)
p2396
tp2397
a(V12*(12-1)*C(5,3)*C(5,2)
p2398
V12*11 /(C(60,5))
p2399
tp2400
a(V15*(15-1)*C(4,3)*C(4,2)
p2401
V0.1441/100
p2402
tp2403
a(g2401
V0.17/100
p2404
tp2405
a(V10*(10-1)*C(6,3)*C(6,2)
p2406
V(10*9*20*15)/(5461512)
p2407
tp2408
asS"['R.0.1']"
p2409
(lp2410
(V11*(11-1)*C(6,3)*C(6,2)
p2411
V11*C(6,3)+10*C(6,2)
p2412
(lp2413
(S'R.0.1'
p2414
I20
VC(6,3)
p2415
VC(6,3)
p2416
tp2417
aVvasharma
p2418
g137
V2015-10-11 06:50:35
p2419
tp2420
asS"['R.0.1.1']"
p2421
(lp2422
(V14*(14-1)*C(4,3)*C(4,2)
p2423
V[14*C(4,3)]+[13*C(4,2)]
p2424
(lp2425
(S'R.0.1.1'
p2426
F3.0
g440
g440
tp2427
aVksmurlo
p2428
(lp2429
(V$n
p2430
V56
p2431
tp2432
a(V$ns
p2433
V4
p2434
tp2435
a(V$nr
p2436
V14
p2437
tp2438
a(V$n
p2439
V56
p2440
tp2441
a(V$ns
p2442
V4
p2443
tp2444
a(V$nr
p2445
V14
p2446
tp2447
aV2015-10-13 23:55:55
p2448
tp2449
asS"['R.0.1.0', 'R.0.1.1']"
p2450
(lp2451
(V15*(15-1)*C(4,3)*C(4,2)
p2452
V[C(15, 1)*[C(4, 1)]^3]*[C(14, 1)*[C(4, 1)]^2]
p2453
(lp2454
(S'R.0.1.0'
p2455
F4.0
g1258
VC(4, 1)
p2456
tp2457
a(S'R.0.1.1'
p2458
F3.0
g440
g440
tp2459
aVv4zhang
p2460
g1379
V2015-10-15 23:00:54
p2461
tp2462
assV4
p2463
g2
(g3
tp2464
Rp2465
g6
(lp2466
(VC(6,2)
p2467
V6
p2468
tp2469
a(VC(5,2)
p2470
V4
p2471
tp2472
a(VC(5,2)
p2473
V2
p2474
tp2475
a(VC(5,2)
p2476
V5
p2477
tp2478
a(VC(5,2)
p2479
V4
p2480
tp2481
a(VC(5,2)
p2482
V4
p2483
tp2484
a(VC(6,2)
p2485
V2
p2486
tp2487
a(VC(5,2)
p2488
V5
p2489
tp2490
a(VC(5,2)
p2491
V5
p2492
tp2493
a(VC(4,2)
p2494
V3
p2495
tp2496
a(g2494
V1
p2497
tp2498
a(g2494
V2
p2499
tp2500
a(g2494
V4
p2501
tp2502
a(VC(4,2)
p2503
V3
p2504
tp2505
a(g2503
V4
p2506
tp2507
a(VC(5,2)
p2508
V20
p2509
tp2510
a(g2491
V4
p2511
tp2512
a(VC(4,2)
p2513
V4
p2514
tp2515
a(g2513
V3
p2516
tp2517
a(VC(4,2)
p2518
V4
p2519
tp2520
a(VC(5,2)
p2521
V25
p2522
tp2523
a(g2521
V20
p2524
tp2525
a(g2521
V40
p2526
tp2527
a(VC(6,2)
p2528
V6
p2529
tp2530
a(VC(5,2)
p2531
V4
p2532
tp2533
a(VC(4,2)
p2534
V4
p2535
tp2536
a(VC(4,2)
p2537
V3
p2538
tp2539
a(g2537
V4
p2540
tp2541
a(VC(4,2)
p2542
V3
p2543
tp2544
a(g2542
V4
p2545
tp2546
a(VC(5,2)
p2547
V9
p2548
tp2549
a(VC(6,2)
p2550
V3
p2551
tp2552
a(g2550
V5
p2553
tp2554
a(VC(4,2)
p2555
V4
p2556
tp2557
a(g2555
V3
p2558
tp2559
a(VC(4,2)
p2560
V3
p2561
tp2562
a(g2560
V4
p2563
tp2564
a(g2560
V2
p2565
tp2566
a(g2560
V1
p2567
tp2568
a(g2560
V0
p2569
tp2570
a(VC(6,2)
p2571
V6
p2572
tp2573
a(VC(5,2)
p2574
V4
p2575
tp2576
a(g2574
V6
p2577
tp2578
a(VC(4,2)
p2579
V90
p2580
tp2581
a(VC(4,2)
p2582
V3
p2583
tp2584
a(g2582
V4
p2585
tp2586
a(g2582
V36
p2587
tp2588
a(VC(6,2)
p2589
V36
p2590
tp2591
a(VC(5,2)
p2592
V4
p2593
tp2594
a(VC(4,2)
p2595
V3
p2596
tp2597
a(g2595
V4
p2598
tp2599
a(g2595
V12
p2600
tp2601
a(VC(4,2)
p2602
V3
p2603
tp2604
a(VC(5,2)
p2605
V20
p2606
tp2607
a(VC(5,2)
p2608
V4
p2609
tp2610
a(VC(6,2)
p2611
V5
p2612
tp2613
a(VC(4,2)
p2614
V3
p2615
tp2616
a(g2614
V4
p2617
tp2618
a(g2614
V3
p2619
tp2620
a(g2614
V36
p2621
tp2622
a(VC(4,2)
p2623
V3
p2624
tp2625
a(VC(4,2)
p2626
V4
p2627
tp2628
a(g2626
V3
p2629
tp2630
a(g2626
V4
p2631
tp2632
a(g2626
V2
p2633
tp2634
a(g2626
V1
p2635
tp2636
a(g2626
V5
p2637
tp2638
a(VC(4,2)
p2639
V4
p2640
tp2641
a(VC(6,2)
p2642
V10
p2643
tp2644
a(VC(6,2)
p2645
V6
p2646
tp2647
a(g2645
V5
p2648
tp2649
a(g2645
V4
p2650
tp2651
a(VC(6,2)
p2652
V5
p2653
tp2654
a(VC(6,2)
p2655
V12
p2656
tp2657
a(g2655
V6
p2658
tp2659
a(VC(5,2)
p2660
V5
p2661
tp2662
a(VC(5,2)
p2663
V5
p2664
tp2665
a(g2655
V6
p2666
tp2667
a(VC(4,2)
p2668
V4
p2669
tp2670
a(g2668
V3
p2671
tp2672
a(g2668
V2
p2673
tp2674
a(g2668
V1
p2675
tp2676
a(g2668
V12
p2677
tp2678
a(VC(4,2)
p2679
V3
p2680
tp2681
a(g2679
V4
p2682
tp2683
a(g2679
V1
p2684
tp2685
a(g2679
V2
p2686
tp2687
a(g2679
V3
p2688
tp2689
a(g2679
V4
p2690
tp2691
a(g2679
V5
p2692
tp2693
a(g2679
V16
p2694
tp2695
a(VC(4,2)
p2696
V4
p2697
tp2698
a(VC(5,2)
p2699
V16
p2700
tp2701
a(g2699
V25
p2702
tp2703
a(g2699
V20
p2704
tp2705
a(VC(4,2)
p2706
V4
p2707
tp2708
a(g2706
V3
p2709
tp2710
a(g2706
V4
p2711
tp2712
a(g2706
V2
p2713
tp2714
a(g2706
V1
p2715
tp2716
a(g2706
V4
p2717
tp2718
a(VC(6,2)
p2719
V6
p2720
tp2721
a(VC(5,2)
p2722
V4
p2723
tp2724
a(VC(6,2)
p2725
V6
p2726
tp2727
a(VC(4,2)
p2728
V12
p2729
tp2730
a(VC(6,2)
p2731
V33000
p2732
tp2733
a(VC(4,2)
p2734
V4
p2735
tp2736
a(g2734
V3
p2737
tp2738
a(g2734
V2
p2739
tp2740
a(g2734
V1
p2741
tp2742
a(g2734
V4
p2743
tp2744
a(VC(4,2)
p2745
V3
p2746
tp2747
a(g2745
V4
p2748
tp2749
a(VC(6,2)
p2750
V5
p2751
tp2752
a(VC(5,2)
p2753
V5
p2754
tp2755
a(VC(4,2)
p2756
V3
p2757
tp2758
a(g2756
V4
p2759
tp2760
a(VC(4,2)
p2761
V3
p2762
tp2763
a(g2761
V4
p2764
tp2765
a(g2761
V3
p2766
tp2767
a(g2761
V2
p2768
tp2769
a(VC(6,2)
p2770
V6
p2771
tp2772
a(g2761
V3
p2773
tp2774
a(g2761
V4
p2775
tp2776
a(g2761
V1
p2777
tp2778
a(g2761
V42
p2779
tp2780
asS"['R.1']"
p2781
(lp2782
(g2470
VC(4,1)^2
p2783
(lp2784
(S'R.1'
p2785
F2.0
g1918
g1918
tp2786
aVj5phung
p2787
g1051
V2015-10-09 19:13:22
p2788
tp2789
a(VC(6,2)
p2790
VC(6,2)^2
p2791
(lp2792
(S'R.1'
p2793
F2.0
g1918
g1918
tp2794
aVbmilton
p2795
g443
V2015-10-09 23:23:45
p2796
tp2797
a(g2485
VC(4,2)
p2798
(lp2799
(S'R.1'
p2800
F2.0
g1918
g1918
tp2801
aVpthsu
p2802
g495
V2015-10-10 20:12:41
p2803
tp2804
a(VC(4,2)
p2805
VP(14,2)
p2806
(lp2807
(S'R.1'
p2808
F2.0
g1918
g1918
tp2809
aVhkhodada
p2810
(lp2811
(V$n
p2812
V56
p2813
tp2814
a(V$ns
p2815
V4
p2816
tp2817
a(V$nr
p2818
V14
p2819
tp2820
a(V$n
p2821
V56
p2822
tp2823
a(V$ns
p2824
V4
p2825
tp2826
a(V$nr
p2827
V14
p2828
tp2829
aV2015-10-10 23:47:33
p2830
tp2831
a(VC(6,2)
p2832
VC(14,2)
p2833
(lp2834
(S'R.1'
p2835
F2.0
g1918
g1918
tp2836
aVhaw081
p2837
g536
V2015-10-11 00:51:51
p2838
tp2839
a(g2832
VC(4,2)
p2840
(lp2841
(S'R.1'
p2842
F2.0
g1918
g1918
tp2843
aVhaw081
p2844
g536
V2015-10-11 00:53:21
p2845
tp2846
a(VC(6,2)
p2847
VC(4,2)
p2848
(lp2849
(S'R.1'
p2850
F2.0
g1918
g1918
tp2851
aVetemlock
p2852
g570
V2015-10-11 01:45:53
p2853
tp2854
a(g2531
V(5!/(3!2!))^2
p2855
(lp2856
(S'R.1'
p2857
F2.0
g1918
g1918
tp2858
aVskarimik
p2859
g622
V2015-10-12 00:50:27
p2860
tp2861
a(g2550
VC(5,2)
p2862
(lp2863
(S'R.1'
p2864
F2.0
g1918
g1918
tp2865
aVlrlai
p2866
(lp2867
(V$n
p2868
V90
p2869
tp2870
a(V$ns
p2871
V6
p2872
tp2873
a(V$nr
p2874
V15
p2875
tp2876
a(V$n
p2877
V90
p2878
tp2879
a(V$ns
p2880
V6
p2881
tp2882
a(V$nr
p2883
V15
p2884
tp2885
aV2015-10-13 00:20:29
p2886
tp2887
a(VC(6,2)
p2888
VC(6,2)^2
p2889
(lp2890
(S'R.1'
p2891
F2.0
g1918
g1918
tp2892
aVs2chaudh
p2893
g676
V2015-10-13 20:04:02
p2894
tp2895
a(g2592
VC(4,2)
p2896
(lp2897
(S'R.1'
p2898
F2.0
g1918
g1918
tp2899
aVhaliew
p2900
g1627
V2015-10-14 00:46:57
p2901
tp2902
a(VC(6,2)
p2903
VC(4, 2)
p2904
(lp2905
(S'R.1'
p2906
F2.0
g1918
g1918
tp2907
aVv4sharma
p2908
g781
V2015-10-14 02:12:04
p2909
tp2910
a(VC(6,2)
p2911
VC(6,2)^2
p2912
(lp2913
(S'R.1'
p2914
F2.0
g1918
g1918
tp2915
aVachava
p2916
g833
V2015-10-14 19:38:15
p2917
tp2918
a(VC(4,2)
p2919
V4!/2!
p2920
(lp2921
(S'R.1'
p2922
F2.0
g1918
V2!
p2923
tp2924
aVmrchin
p2925
(lp2926
(V$n
p2927
V40
p2928
tp2929
a(V$ns
p2930
V4
p2931
tp2932
a(V$nr
p2933
V10
p2934
tp2935
a(V$n
p2936
V40
p2937
tp2938
a(V$ns
p2939
V4
p2940
tp2941
a(V$nr
p2942
V10
p2943
tp2944
aV2015-10-14 23:05:56
p2945
tp2946
a(VC(6,2)
p2947
V6*5*4/2!
p2948
(lp2949
(S'R.1'
p2950
F2.0
g1918
V2!
p2951
tp2952
aVh4tu
p2953
(lp2954
(V$n
p2955
V96
p2956
tp2957
a(V$ns
p2958
V6
p2959
tp2960
a(V$nr
p2961
V16
p2962
tp2963
a(V$n
p2964
V96
p2965
tp2966
a(V$ns
p2967
V6
p2968
tp2969
a(V$nr
p2970
V16
p2971
tp2972
aV2015-10-15 09:41:25
p2973
tp2974
a(g2706
VC(14, 2)
p2975
(lp2976
(S'R.1'
p2977
F2.0
g1918
g1918
tp2978
aVp4kumar
p2979
(lp2980
(V$n
p2981
V60
p2982
tp2983
a(V$ns
p2984
V4
p2985
tp2986
a(V$nr
p2987
V15
p2988
tp2989
a(V$n
p2990
V60
p2991
tp2992
a(V$ns
p2993
V4
p2994
tp2995
a(V$nr
p2996
V15
p2997
tp2998
aV2015-10-15 10:33:15
p2999
tp3000
a(g2706
V4*3*2
p3001
(lp3002
(S'R.1'
p3003
F2.0
g1918
g1918
tp3004
aVp4kumar
p3005
g2980
V2015-10-15 10:47:48
p3006
tp3007
a(VC(5,2)
p3008
VC(4, 2)
p3009
(lp3010
(S'R.1'
p3011
F2.0
g1918
g1918
tp3012
aVazkong
p3013
(lp3014
(V$n
p3015
V75
p3016
tp3017
a(V$ns
p3018
V5
p3019
tp3020
a(V$nr
p3021
V15
p3022
tp3023
a(V$n
p3024
V75
p3025
tp3026
a(V$ns
p3027
V5
p3028
tp3029
a(V$nr
p3030
V15
p3031
tp3032
aV2015-10-15 18:25:20
p3033
tp3034
a(VC(6,2)
p3035
VC(5,2)
p3036
(lp3037
(S'R.1'
p3038
F2.0
g1918
g1918
tp3039
aVkgrozav
p3040
g1792
V2015-10-15 20:24:34
p3041
tp3042
a(VC(6,2)
p3043
VC(4,2)
p3044
(lp3045
(S'R.1'
p3046
F2.0
g1918
g1918
tp3047
aVb1green
p3048
(lp3049
(V$n
p3050
V78
p3051
tp3052
a(V$ns
p3053
V6
p3054
tp3055
a(V$nr
p3056
V13
p3057
tp3058
a(V$n
p3059
V78
p3060
tp3061
a(V$ns
p3062
V6
p3063
tp3064
a(V$nr
p3065
V13
p3066
tp3067
aV2015-10-15 21:55:05
p3068
tp3069
a(g3043
VC(3,2)
p3070
(lp3071
(S'R.1'
p3072
F2.0
g1918
g1918
tp3073
aVb1green
p3074
g3049
V2015-10-15 21:55:16
p3075
tp3076
a(VC(6,2)
p3077
VC(5,2)
p3078
(lp3079
(S'R.1'
p3080
F2.0
g1918
g1918
tp3081
aVa2ahmed
p3082
(lp3083
(V$n
p3084
V90
p3085
tp3086
a(V$ns
p3087
V6
p3088
tp3089
a(V$nr
p3090
V15
p3091
tp3092
a(V$n
p3093
V90
p3094
tp3095
a(V$ns
p3096
V6
p3097
tp3098
a(V$nr
p3099
V15
p3100
tp3101
aV2015-10-15 22:36:27
p3102
tp3103
a(VC(5,2)
p3104
VC(5,2)^2
p3105
(lp3106
(S'R.1'
p3107
F2.0
g1918
g1918
tp3108
aVkalang
p3109
g927
V2015-10-15 23:26:01
p3110
tp3111
asS"['R.0']"
p3112
(lp3113
(g2608
V5*4
p3114
(lp3115
(S'R.0'
p3116
F5.0
g987
g987
tp3117
aVdcgriffi
p3118
g807
V2015-10-14 07:49:51
p3119
tp3120
a(g2919
V4/2!
p3121
(lp3122
(S'R.0'
p3123
F4.0
g1258
g1258
tp3124
aVmrchin
p3125
g2926
V2015-10-14 23:05:49
p3126
tp3127
a(g2645
V6^5
p3128
(lp3129
(S'R.0'
p3130
F6.0
g979
g979
tp3131
aVc1sorian
p3132
(lp3133
(V$n
p3134
V72
p3135
tp3136
a(V$ns
p3137
V6
p3138
tp3139
a(V$nr
p3140
V12
p3141
tp3142
a(V$n
p3143
V72
p3144
tp3145
a(V$ns
p3146
V6
p3147
tp3148
a(V$nr
p3149
V12
p3150
tp3151
aV2015-10-14 23:31:04
p3152
tp3153
a(g2663
V5^5
p3154
(lp3155
(S'R.0'
p3156
F5.0
g987
g987
tp3157
aVanvan
p3158
g990
V2015-10-15 03:05:49
p3159
tp3160
a(g2663
V5*5
p3161
(lp3162
(S'R.0'
p3163
F5.0
g987
g987
tp3164
aVanvan
p3165
g990
V2015-10-15 03:05:57
p3166
tp3167
a(VC(6,2)
p3168
V6*5
p3169
(lp3170
(S'R.0'
p3171
F6.0
g979
g979
tp3172
aVjhp077
p3173
g1292
V2015-10-15 06:41:54
p3174
tp3175
a(g2706
VC(4, 1)*C(3,1)
p3176
(lp3177
(S'R.0'
p3178
F4.0
g1258
VC(4, 1)
p3179
tp3180
aVp4kumar
p3181
g2980
V2015-10-15 10:47:16
p3182
tp3183
a(g2706
V4*3
p3184
(lp3185
(S'R.0'
p3186
F4.0
g1258
g1258
tp3187
aVp4kumar
p3188
g2980
V2015-10-15 10:47:39
p3189
tp3190
a(VC(5,2)
p3191
V5*4
p3192
(lp3193
(S'R.0'
p3194
F5.0
g987
g987
tp3195
aVdtea
p3196
g953
V2015-10-15 23:47:39
p3197
tp3198
asg158
(lp3199
(VC(5,2)
p3200
V5^2/2!
p3201
tp3202
asS"['R.0', 'R.1']"
p3203
(lp3204
(g2467
V6^2
p3205
(lp3206
(S'R.0'
p3207
F6.0
g979
g979
tp3208
a(S'R.1'
p3209
F2.0
g1918
g1918
tp3210
aVbeyounge
p3211
g2246
V2015-10-09 06:22:12
p3212
tp3213
a(VC(6,2)
p3214
V6^2
p3215
(lp3216
(S'R.0'
p3217
F6.0
g979
g979
tp3218
a(S'R.1'
p3219
F2.0
g1918
g1918
tp3220
aValakamsa
p3221
g1080
V2015-10-10 21:07:31
p3222
tp3223
a(VC(5,2)
p3224
V5^2
p3225
(lp3226
(S'R.0'
p3227
F5.0
g987
g987
tp3228
a(S'R.1'
p3229
F2.0
g1918
g1918
tp3230
aVxil109
p3231
g1109
V2015-10-10 21:20:48
p3232
tp3233
a(VC(5,2)
p3234
V5^2
p3235
(lp3236
(S'R.0'
p3237
F5.0
g987
g987
tp3238
a(S'R.1'
p3239
F2.0
g1918
g1918
tp3240
aVcstringh
p3241
(lp3242
(V$n
p3243
V75
p3244
tp3245
a(V$ns
p3246
V5
p3247
tp3248
a(V$nr
p3249
V15
p3250
tp3251
a(V$n
p3252
V75
p3253
tp3254
a(V$ns
p3255
V5
p3256
tp3257
a(V$nr
p3258
V15
p3259
tp3260
aV2015-10-14 00:49:01
p3261
tp3262
a(VC(6,2)
p3263
V6^2
p3264
(lp3265
(S'R.0'
p3266
F6.0
g979
g979
tp3267
a(S'R.1'
p3268
F2.0
g1918
g1918
tp3269
aVjew037
p3270
(lp3271
(V$n
p3272
V60
p3273
tp3274
a(V$ns
p3275
V6
p3276
tp3277
a(V$nr
p3278
V10
p3279
tp3280
a(V$n
p3281
V60
p3282
tp3283
a(V$ns
p3284
V6
p3285
tp3286
a(V$nr
p3287
V10
p3288
tp3289
aV2015-10-14 04:36:33
p3290
tp3291
a(VC(6,2)
p3292
V6^2
p3293
(lp3294
(S'R.0'
p3295
F6.0
g979
g979
tp3296
a(S'R.1'
p3297
F2.0
g1918
g1918
tp3298
aVt2li
p3299
g1195
V2015-10-14 07:19:15
p3300
tp3301
a(g3200
V5^2
p3302
(lp3303
(S'R.0'
p3304
F5.0
g987
g987
tp3305
a(S'R.1'
p3306
F2.0
g1918
g1918
tp3307
aVw4shin
p3308
g1233
V2015-10-15 00:16:10
p3309
tp3310
a(VC(6,2)
p3311
VC(6,1)^2
p3312
(lp3313
(S'R.0'
p3314
F6.0
g979
VC(6,1)
p3315
tp3316
a(S'R.1'
p3317
F2.0
g1918
g1918
tp3318
aVdaw023
p3319
g2293
V2015-10-15 06:10:02
p3320
tp3321
a(VC(4,2)
p3322
V(C(4, 1))^2
p3323
(lp3324
(S'R.0'
p3325
F4.0
g1258
VC(4, 1)
p3326
tp3327
a(S'R.1'
p3328
F2.0
g1918
g1918
tp3329
aVv4zhang
p3330
g1379
V2015-10-15 23:00:54
p3331
tp3332
assV6
p3333
g2
(g3
tp3334
Rp3335
g1464
(lp3336
(V14*(14-1)*C(5,3)*C(5,2)/[C(70,5)]
p3337
V(13 * 12 * 5!/(3!(5-3)!) * 5!/(2!(5-2)!))/ 70!/(5(70-5)!)
p3338
tp3339
a(V10*(10-1)*C(4,3)*C(4,2)/[C(40,5)]
p3340
V3744/2598960
p3341
tp3342
a(V16*(16-1)*C(4,3)*C(4,2)/[C(64,5)]
p3343
V(13*12*4*3)/(52!/(5!*47!))
p3344
tp3345
a(V10*(10-1)*C(6,3)*C(6,2)/[C(60,5)]
p3346
V4500/32509
p3347
tp3348
a(V13*(13-1)*C(4,3)*C(4,2)/[C(52,5)]
p3349
V(144 * 13)/(52!/(3!49!))
p3350
tp3351
asS"['R.0', 'R.1.0', 'R.1.1']"
p3352
(lp3353
(V11*(11-1)*C(6,3)*C(6,2)/[C(66,5)]
p3354
V33000/(66^5)
p3355
(lp3356
(S'R.0'
p3357
F33000.0
V11*(11-1)*C(6,3)*C(6,2)
p3358
V33000
p3359
tp3360
a(S'R.1.0'
p3361
F66.0
V66
p3362
V66
p3363
tp3364
a(S'R.1.1'
p3365
F5.0
g987
g987
tp3366
aVlywong
p3367
g2185
V2015-10-13 08:41:20
p3368
tp3369
a(V16*(16-1)*C(6,3)*C(6,2)/[C(96,5)]
p3370
V16*15*C(6,3)*C(6,2)/(16*6*5)
p3371
(lp3372
(S'R.0'
p3373
F72000.0
V16*(16-1)*C(6,3)*C(6,2)
p3374
V16*15*C(6,3)*C(6,2)
p3375
tp3376
a(S'R.1.0'
p3377
F96.0
V96
p3378
V16*6
p3379
tp3380
a(S'R.1.1'
p3381
F5.0
g987
g987
tp3382
aVtcn013
p3383
(lp3384
(V$n
p3385
V96
p3386
tp3387
a(V$ns
p3388
V6
p3389
tp3390
a(V$nr
p3391
V16
p3392
tp3393
a(V$n
p3394
V96
p3395
tp3396
a(V$ns
p3397
V6
p3398
tp3399
a(V$nr
p3400
V16
p3401
tp3402
aV2015-10-15 04:29:19
p3403
tp3404
asS"['R.0.0.0', 'R.1']"
p3405
(lp3406
(V11*(11-1)*C(5,3)*C(5,2)/[C(55,5)]
p3407
V(11*10*C(5,1)*C(4,1))/C(55,5)
p3408
(lp3409
(S'R.0.0.0'
p3410
F110.0
V11*(11-1)
p3411
V11*10
p3412
tp3413
a(S'R.1'
p3414
I3478761
VC(55,5)
p3415
VC(55,5)
p3416
tp3417
aVj5phung
p3418
g1051
V2015-10-09 19:13:54
p3419
tp3420
a(g3407
V(11*10*5*4)/C(55,5)
p3421
(lp3422
(S'R.0.0.0'
p3423
F110.0
V11*(11-1)
p3424
V11*10
p3425
tp3426
a(S'R.1'
p3427
I3478761
VC(55,5)
p3428
VC(55,5)
p3429
tp3430
aVj5phung
p3431
g1051
V2015-10-09 19:16:42
p3432
tp3433
a(V14*(14-1)*C(5,3)*C(5,2)/[C(70,5)]
p3434
V14*13*5*4/(70!/(65!5!))
p3435
(lp3436
(S'R.0.0.0'
p3437
F182.0
V14*(14-1)
p3438
V14*13
p3439
tp3440
a(S'R.1'
p3441
I12103014
VC(70,5)
p3442
V70!/(65!5!)
p3443
tp3444
aVskarimik
p3445
g622
V2015-10-12 00:52:57
p3446
tp3447
a(V14*(14-1)*C(5,3)*C(5,2)/[C(70,5)]
p3448
V(14*13*5*4)/C(14*5,5)
p3449
(lp3450
(S'R.0.0.0'
p3451
F182.0
V14*(14-1)
p3452
V14*13
p3453
tp3454
a(S'R.1'
p3455
I12103014
VC(70,5)
p3456
VC(14*5,5)
p3457
tp3458
aVhaliew
p3459
g1627
V2015-10-14 00:45:58
p3460
tp3461
a(V12*(12-1)*C(5,3)*C(5,2)/[C(60,5)]
p3462
V12*11*20*20/5461512
p3463
(lp3464
(S'R.0.0.0'
p3465
F132.0
V12*(12-1)
p3466
V12*11
p3467
tp3468
a(S'R.1'
p3469
I5461512
VC(60,5)
p3470
V5461512
p3471
tp3472
aVyil035
p3473
g1656
V2015-10-14 03:15:19
p3474
tp3475
a(V13*(13-1)*C(6,3)*C(6,2)/[C(78,5)]
p3476
V(C(13,1) * C(12,1) * 6 * 6)/C(78,5)
p3477
(lp3478
(S'R.0.0.0'
p3479
F156.0
V13*(13-1)
p3480
VC(13,1) * C(12,1)
p3481
tp3482
a(S'R.1'
p3483
I21111090
VC(78,5)
p3484
VC(78,5)
p3485
tp3486
aVcsl030
p3487
g1685
V2015-10-14 03:39:49
p3488
tp3489
a(V16*(16-1)*C(5,3)*C(5,2)/[C(80,5)]
p3490
V(16*15*5*4)/((5*16)!/(5!(5*16-5)!))
p3491
(lp3492
(S'R.0.0.0'
p3493
F240.0
V16*(16-1)
p3494
V16*15
p3495
tp3496
a(S'R.1'
p3497
I24040016
VC(80,5)
p3498
V(5*16)!/(5!(5*16-5)!)
p3499
tp3500
aVdcgriffi
p3501
g807
V2015-10-14 07:49:35
p3502
tp3503
a(V16*(16-1)*C(5,3)*C(5,2)/[C(80,5)]
p3504
V(16*15*2*(5!/(3!*2!)))/(80!/(5!*75!))
p3505
(lp3506
(S'R.0.0.0'
p3507
F240.0
V16*(16-1)
p3508
V16*15
p3509
tp3510
a(S'R.1'
p3511
I24040016
VC(80,5)
p3512
V80!/(5!*75!)
p3513
tp3514
aVlpettit
p3515
g1724
V2015-10-14 21:26:00
p3516
tp3517
a(V16*(16-1)*C(6,3)*C(6,2)/[C(96,5)]
p3518
V(16*15*C(6,1)*C(5,1)) / C(96,5)
p3519
(lp3520
(S'R.0.0.0'
p3521
F240.0
V16*(16-1)
p3522
V16*15
p3523
tp3524
a(S'R.1'
p3525
I61124064
VC(96,5)
p3526
VC(96,5)
p3527
tp3528
aVkgrozav
p3529
g1792
V2015-10-15 20:23:27
p3530
tp3531
a(V13*(13-1)*C(5,3)*C(5,2)/[C(65,5)]
p3532
V(13 * 12 * 5 * 5)/C(13 * 5, 5)
p3533
(lp3534
(S'R.0.0.0'
p3535
F156.0
V13*(13-1)
p3536
V13 * 12
p3537
tp3538
a(S'R.1'
p3539
I8259888
VC(65,5)
p3540
VC(13 * 5, 5)
p3541
tp3542
aVdando
p3543
g1850
V2015-10-15 21:43:14
p3544
tp3545
asS"['R.1.0']"
p3546
(lp3547
(V13*(13-1)*C(6,3)*C(6,2)/[C(78,5)]
p3548
V(13*12*24)/C(78,6)
p3549
(lp3550
(S'R.1.0'
p3551
F78.0
V78
p3552
V78
p3553
tp3554
aVchc286
p3555
(lp3556
(V$n
p3557
V78
p3558
tp3559
a(V$ns
p3560
V6
p3561
tp3562
a(V$nr
p3563
V13
p3564
tp3565
a(V$n
p3566
V78
p3567
tp3568
a(V$ns
p3569
V6
p3570
tp3571
a(V$nr
p3572
V13
p3573
tp3574
aV2015-10-12 00:00:30
p3575
tp3576
asS"['R.0.0.1.0', 'R.0.0.1.1', 'R.1.1']"
p3577
(lp3578
(V15*(15-1)*C(4,3)*C(4,2)/[C(60,5)]
p3579
V[[C(15, 1)*[C(4, 1)]^3]*[C(14, 1)*[C(4, 1)]^2]]/C(50, 5)
p3580
(lp3581
(S'R.0.0.1.0'
p3582
F4.0
g1258
VC(4, 1)
p3583
tp3584
a(S'R.0.0.1.1'
p3585
F3.0
g440
g440
tp3586
a(S'R.1.1'
p3587
F5.0
g987
g987
tp3588
aVv4zhang
p3589
g1379
V2015-10-15 23:00:54
p3590
tp3591
asS"['R.1']"
p3592
(lp3593
(g3407
V(11*100000*C(5,2)*C(5,3))/C(55,5)
p3594
(lp3595
(S'R.1'
p3596
I3478761
VC(55,5)
p3597
VC(55,5)
p3598
tp3599
aVj5phung
p3600
g1051
V2015-10-09 19:17:29
p3601
tp3602
a(V14*(14-1)*C(5,3)*C(5,2)/[C(70,5)]
p3603
V(14*3*(5!/4!)*(5!/3!))/(70!/(65!*5!))
p3604
(lp3605
(S'R.1'
p3606
I12103014
VC(70,5)
p3607
V70!/(65!*5!)
p3608
tp3609
aVjguanzho
p3610
(lp3611
(V$n
p3612
V70
p3613
tp3614
a(V$ns
p3615
V5
p3616
tp3617
a(V$nr
p3618
V14
p3619
tp3620
a(V$n
p3621
V70
p3622
tp3623
a(V$ns
p3624
V5
p3625
tp3626
a(V$nr
p3627
V14
p3628
tp3629
aV2015-10-09 21:05:51
p3630
tp3631
a(V10*(10-1)*C(5,3)*C(5,2)/[C(50,5)]
p3632
V2250/C(50,5)
p3633
(lp3634
(S'R.1'
p3635
I2118760
VC(50,5)
p3636
VC(50,5)
p3637
tp3638
aVr9jiang
p3639
(lp3640
(V$n
p3641
V50
p3642
tp3643
a(V$ns
p3644
V5
p3645
tp3646
a(V$nr
p3647
V10
p3648
tp3649
a(V$n
p3650
V50
p3651
tp3652
a(V$ns
p3653
V5
p3654
tp3655
a(V$nr
p3656
V10
p3657
tp3658
aV2015-10-10 07:07:58
p3659
tp3660
a(V15*(15-1)*C(5,3)*C(5,2)/[C(75,5)]
p3661
V(15*14**5*4)/[(15*5)!/[5!(15*5-5)!]]
p3662
(lp3663
(S'R.1'
p3664
I17259390
VC(75,5)
p3665
V(15*5)!/[5!(15*5-5)!]
p3666
tp3667
aVmasaro
p3668
(lp3669
(V$n
p3670
V75
p3671
tp3672
a(V$ns
p3673
V5
p3674
tp3675
a(V$nr
p3676
V15
p3677
tp3678
a(V$n
p3679
V75
p3680
tp3681
a(V$ns
p3682
V5
p3683
tp3684
a(V$nr
p3685
V15
p3686
tp3687
aV2015-10-10 10:18:34
p3688
tp3689
a(V11*(11-1)*C(5,3)*C(5,2)/[C(55,5)]
p3690
V132000/(55!/(5!50!))
p3691
(lp3692
(S'R.1'
p3693
I3478761
VC(55,5)
p3694
V55!/(5!50!)
p3695
tp3696
aVjix029
p3697
(lp3698
(V$n
p3699
V55
p3700
tp3701
a(V$ns
p3702
V5
p3703
tp3704
a(V$nr
p3705
V11
p3706
tp3707
a(V$n
p3708
V55
p3709
tp3710
a(V$ns
p3711
V5
p3712
tp3713
a(V$nr
p3714
V11
p3715
tp3716
aV2015-10-11 04:31:33
p3717
tp3718
a(V14*(14-1)*C(4,3)*C(4,2)/[C(56,5)]
p3719
V(4*14*4*13)/(56!/(5!51!))
p3720
(lp3721
(S'R.1'
p3722
I3819816
VC(56,5)
p3723
V56!/(5!51!)
p3724
tp3725
aVdjk006
p3726
(lp3727
(V$n
p3728
V56
p3729
tp3730
a(V$ns
p3731
V4
p3732
tp3733
a(V$nr
p3734
V14
p3735
tp3736
a(V$n
p3737
V56
p3738
tp3739
a(V$ns
p3740
V4
p3741
tp3742
a(V$nr
p3743
V14
p3744
tp3745
aV2015-10-11 08:43:32
p3746
tp3747
a(V10*(10-1)*C(5,3)*C(5,2)/[C(50,5)]
p3748
V281250/2118760
p3749
(lp3750
(S'R.1'
p3751
I2118760
VC(50,5)
p3752
V2118760
p3753
tp3754
aVc2qiu
p3755
g596
V2015-10-11 20:43:38
p3756
tp3757
a(g3748
V108000/2118760
p3758
(lp3759
(S'R.1'
p3760
I2118760
VC(50,5)
p3761
V2118760
p3762
tp3763
aVc2qiu
p3764
g596
V2015-10-11 20:45:51
p3765
tp3766
a(g3748
V144000/2118760
p3767
(lp3768
(S'R.1'
p3769
I2118760
VC(50,5)
p3770
V2118760
p3771
tp3772
aVc2qiu
p3773
g596
V2015-10-11 20:48:36
p3774
tp3775
a(g3434
V14*13*(5!/(3!2!))^5/(70!/(65!5!))
p3776
(lp3777
(S'R.1'
p3778
I12103014
VC(70,5)
p3779
V70!/(65!5!)
p3780
tp3781
aVskarimik
p3782
g622
V2015-10-12 00:50:27
p3783
tp3784
a(V11*(11-1)*C(4,3)*C(4,2)/[C(44,5)]
p3785
V11*4*4*10 / C(44,5)
p3786
(lp3787
(S'R.1'
p3788
I1086008
VC(44,5)
p3789
VC(44,5)
p3790
tp3791
aVsyip
p3792
(lp3793
(V$n
p3794
V44
p3795
tp3796
a(V$ns
p3797
V4
p3798
tp3799
a(V$nr
p3800
V11
p3801
tp3802
a(V$n
p3803
V44
p3804
tp3805
a(V$ns
p3806
V4
p3807
tp3808
a(V$nr
p3809
V11
p3810
tp3811
aV2015-10-12 00:02:06
p3812
tp3813
a(V13*(13-1)*C(6,3)*C(6,2)/[C(78,5)]
p3814
V[13*12*2*5*4*3*5]/[78!/(5!*73!)]
p3815
(lp3816
(S'R.1'
p3817
I21111090
VC(78,5)
p3818
V78!/(5!*73!)
p3819
tp3820
aVsghouse
p3821
(lp3822
(V$n
p3823
V78
p3824
tp3825
a(V$ns
p3826
V6
p3827
tp3828
a(V$nr
p3829
V13
p3830
tp3831
a(V$n
p3832
V78
p3833
tp3834
a(V$ns
p3835
V6
p3836
tp3837
a(V$nr
p3838
V13
p3839
tp3840
aV2015-10-12 20:20:13
p3841
tp3842
a(V10*(10-1)*C(6,3)*C(6,2)/[C(60,5)]
p3843
V[6!/(2!(6-2)!)]/[60!/(5!(60-5)!)]
p3844
(lp3845
(S'R.1'
p3846
I5461512
VC(60,5)
p3847
V60!/(5!(60-5)!)
p3848
tp3849
aVqtluong
p3850
(lp3851
(V$n
p3852
V60
p3853
tp3854
a(V$ns
p3855
V6
p3856
tp3857
a(V$nr
p3858
V10
p3859
tp3860
a(V$n
p3861
V60
p3862
tp3863
a(V$ns
p3864
V6
p3865
tp3866
a(V$nr
p3867
V10
p3868
tp3869
aV2015-10-12 20:36:50
p3870
tp3871
a(g3340
V2160/3744/658008
p3872
(lp3873
(S'R.1'
p3874
I658008
VC(40,5)
p3875
V658008
p3876
tp3877
aVhak014
p3878
(lp3879
(V$n
p3880
V40
p3881
tp3882
a(V$ns
p3883
V4
p3884
tp3885
a(V$nr
p3886
V10
p3887
tp3888
a(V$n
p3889
V40
p3890
tp3891
a(V$ns
p3892
V4
p3893
tp3894
a(V$nr
p3895
V10
p3896
tp3897
aV2015-10-13 06:23:24
p3898
tp3899
a(V15*(15-1)*C(5,3)*C(5,2)/[C(75,5)]
p3900
V[[15!/[(15-3)!3!]]*[14!/[(14-2)!2!]]*[5!/[(5-3)!3!]]*[5!/[(5-2)!2!]]]/[75!/[70!5!]]
p3901
(lp3902
(S'R.1'
p3903
I17259390
VC(75,5)
p3904
V75!/[70!5!]
p3905
tp3906
aVdlt009
p3907
(lp3908
(V$n
p3909
V75
p3910
tp3911
a(V$ns
p3912
V5
p3913
tp3914
a(V$nr
p3915
V15
p3916
tp3917
a(V$n
p3918
V75
p3919
tp3920
a(V$ns
p3921
V5
p3922
tp3923
a(V$nr
p3924
V15
p3925
tp3926
aV2015-10-14 02:26:11
p3927
tp3928
a(V16*(16-1)*C(6,3)*C(6,2)/[C(96,5)]
p3929
V(C(6,2)*C(6,3))/C(6*16,5)
p3930
(lp3931
(S'R.1'
p3932
I61124064
VC(96,5)
p3933
VC(6*16,5)
p3934
tp3935
aVe9brown
p3936
(lp3937
(V$n
p3938
V96
p3939
tp3940
a(V$ns
p3941
V6
p3942
tp3943
a(V$nr
p3944
V16
p3945
tp3946
a(V$n
p3947
V96
p3948
tp3949
a(V$ns
p3950
V6
p3951
tp3952
a(V$nr
p3953
V16
p3954
tp3955
aV2015-10-14 11:26:03
p3956
tp3957
a(g3504
V((16^15)*100)/(80!/(5!*75!))
p3958
(lp3959
(S'R.1'
p3960
I24040016
VC(80,5)
p3961
V80!/(5!*75!)
p3962
tp3963
aVlpettit
p3964
g1724
V2015-10-14 21:32:28
p3965
tp3966
a(V11*(11-1)*C(4,3)*C(4,2)/[C(44,5)]
p3967
V[[4!/(3!)]*4!/(2!*2!)]/[44!/(5!*39!)]
p3968
(lp3969
(S'R.1'
p3970
I1086008
VC(44,5)
p3971
V44!/(5!*39!)
p3972
tp3973
aVabjara
p3974
(lp3975
(V$n
p3976
V44
p3977
tp3978
a(V$ns
p3979
V4
p3980
tp3981
a(V$nr
p3982
V11
p3983
tp3984
a(V$n
p3985
V44
p3986
tp3987
a(V$ns
p3988
V4
p3989
tp3990
a(V$nr
p3991
V11
p3992
tp3993
aV2015-10-14 23:07:35
p3994
tp3995
a(V12*(12-1)*C(6,3)*C(6,2)/[C(72,5)]
p3996
V3960/C(72,5)
p3997
(lp3998
(S'R.1'
p3999
I13991544
VC(72,5)
p4000
VC(72,5)
p4001
tp4002
aVamquinte
p4003
(lp4004
(V$n
p4005
V72
p4006
tp4007
a(V$ns
p4008
V6
p4009
tp4010
a(V$nr
p4011
V12
p4012
tp4013
a(V$n
p4014
V72
p4015
tp4016
a(V$ns
p4017
V6
p4018
tp4019
a(V$nr
p4020
V12
p4021
tp4022
aV2015-10-14 23:12:47
p4023
tp4024
a(V11*(11-1)*C(5,3)*C(5,2)/[C(55,5)]
p4025
V4400/C(55,5)
p4026
(lp4027
(S'R.1'
p4028
I3478761
VC(55,5)
p4029
VC(55,5)
p4030
tp4031
aVjjchung
p4032
(lp4033
(V$n
p4034
V55
p4035
tp4036
a(V$ns
p4037
V5
p4038
tp4039
a(V$nr
p4040
V11
p4041
tp4042
a(V$n
p4043
V55
p4044
tp4045
a(V$ns
p4046
V5
p4047
tp4048
a(V$nr
p4049
V11
p4050
tp4051
aV2015-10-15 19:22:20
p4052
tp4053
a(V13*(13-1)*C(4,3)*C(4,2)/[C(52,5)]
p4054
V(C(13,1)*C(12,1)*C(4,3)*C(4,2)*C(13,1)*C(4,3)C(12,1)C(4,2))/(C(52,5))
p4055
(lp4056
(S'R.1'
p4057
I2598960
VC(52,5)
p4058
VC(52,5)
p4059
tp4060
aVjag028
p4061
(lp4062
(V$n
p4063
V52
p4064
tp4065
a(V$ns
p4066
V4
p4067
tp4068
a(V$nr
p4069
V13
p4070
tp4071
a(V$n
p4072
V52
p4073
tp4074
a(V$ns
p4075
V4
p4076
tp4077
a(V$nr
p4078
V13
p4079
tp4080
aV2015-10-15 21:22:00
p4081
tp4082
a(V12*(12-1)*C(6,3)*C(6,2)/[C(72,5)]
p4083
VC(6,3)/C(72,5)
p4084
(lp4085
(S'R.1'
p4086
I13991544
VC(72,5)
p4087
VC(72,5)
p4088
tp4089
aVjtfrankl
p4090
g1821
V2015-10-15 21:39:34
p4091
tp4092
asS"['R.0', 'R.1']"
p4093
(lp4094
(V14*(14-1)*C(5,3)*C(5,2)/[C(70,5)]
p4095
V18200(70!/(5!65!))
p4096
(lp4097
(S'R.0'
p4098
F18200.0
V14*(14-1)*C(5,3)*C(5,2)
p4099
V18200
p4100
tp4101
a(S'R.1'
p4102
I12103014
VC(70,5)
p4103
V70!/(5!65!)
p4104
tp4105
aVd6he
p4106
g867
V2015-10-15 07:26:50
p4107
tp4108
asS"['R.0.0.0', 'R.0.0.1.1', 'R.0.1.1']"
p4109
(lp4110
(V14*(14-1)*C(5,3)*C(5,2)/[C(70,5)]
p4111
V(14*13*(5^3)*(5^2))/(70!/(65!/5!))
p4112
(lp4113
(S'R.0.0.0'
p4114
F182.0
V14*(14-1)
p4115
V14*13
p4116
tp4117
a(S'R.0.0.1.1'
p4118
F3.0
g440
g440
tp4119
a(S'R.0.1.1'
p4120
F2.0
g1918
g1918
tp4121
aVw4shin
p4122
g1233
V2015-10-15 00:16:10
p4123
tp4124
asS"['R.0.0.0']"
p4125
(lp4126
(g4111
V(14*13*(5^3-5)*(5^2-5))/(70!/(65!/5!))
p4127
(lp4128
(S'R.0.0.0'
p4129
F182.0
V14*(14-1)
p4130
V14*13
p4131
tp4132
aVw4shin
p4133
g1233
V2015-10-15 00:17:49
p4134
tp4135
asS"['R.0.0', 'R.0.1.1', 'R.1']"
p4136
(lp4137
(g3448
V(14*13*C(5,3)*C(4,2))/C(14*5,5)
p4138
(lp4139
(S'R.0.0'
p4140
F1820.0
V14*(14-1)*C(5,3)
p4141
V14*13*C(5,3)
p4142
tp4143
a(S'R.0.1.1'
p4144
F2.0
g1918
g1918
tp4145
a(S'R.1'
p4146
I12103014
VC(70,5)
p4147
VC(14*5,5)
p4148
tp4149
aVhaliew
p4150
g1627
V2015-10-14 00:46:57
p4151
tp4152
asS"['R.0.0', 'R.1']"
p4153
(lp4154
(V13*(13-1)*C(4,3)*C(4,2)/[C(52,5)]
p4155
V13 * 12 * 4 * 3 / C(52,5)
p4156
(lp4157
(S'R.0.0'
p4158
F624.0
V13*(13-1)*C(4,3)
p4159
V13 * 12 * 4
p4160
tp4161
a(S'R.1'
p4162
I2598960
VC(52,5)
p4163
VC(52,5)
p4164
tp4165
aVv3doan
p4166
g2000
V2015-10-11 03:31:09
p4167
tp4168
a(V11*(11-1)*C(5,3)*C(5,2)/[C(55,5)]
p4169
V[11 * 10 * C(5, 3) * C(5, 4)] / C(55, 5)
p4170
(lp4171
(S'R.0.0'
p4172
F1100.0
V11*(11-1)*C(5,3)
p4173
V11 * 10 * C(5, 3)
p4174
tp4175
a(S'R.1'
p4176
I3478761
VC(55,5)
p4177
VC(55, 5)
p4178
tp4179
aVrwthomps
p4180
g2029
V2015-10-11 23:14:45
p4181
tp4182
a(V14*(14-1)*C(4,3)*C(4,2)/[C(56,5)]
p4183
V(14*13*4*3)/C(56,5)
p4184
(lp4185
(S'R.0.0'
p4186
F728.0
V14*(14-1)*C(4,3)
p4187
V14*13*4
p4188
tp4189
a(S'R.1'
p4190
I3819816
VC(56,5)
p4191
VC(56,5)
p4192
tp4193
aVsachadal
p4194
g2058
V2015-10-14 18:22:40
p4195
tp4196
a(V16*(16-1)*C(4,3)*C(4,2)/[C(64,5)]
p4197
V(16*15*4*3)/C(64,5)
p4198
(lp4199
(S'R.0.0'
p4200
F960.0
V16*(16-1)*C(4,3)
p4201
V16*15*4
p4202
tp4203
a(S'R.1'
p4204
I7624512
VC(64,5)
p4205
VC(64,5)
p4206
tp4207
aValhung
p4208
g2116
V2015-10-15 20:20:10
p4209
tp4210
a(g4197
V(16*15*4*4)/C(64,5)
p4211
(lp4212
(S'R.0.0'
p4213
F960.0
V16*(16-1)*C(4,3)
p4214
V16*15*4
p4215
tp4216
a(S'R.1'
p4217
I7624512
VC(64,5)
p4218
VC(64,5)
p4219
tp4220
aValhung
p4221
g2116
V2015-10-15 20:20:47
p4222
tp4223
asS"['R.0.0.0.1', 'R.0.0.1']"
p4224
(lp4225
(V16*(16-1)*C(6,3)*C(6,2)/[C(96,5)]
p4226
V[ 15*16* ( 6!/(2!4!) ) * ( 6!/(3!3!) )] / 96!/(5!91!)
p4227
(lp4228
(S'R.0.0.0.1'
p4229
F15.0
V16-1
p4230
V6!/(2!4!)
p4231
tp4232
a(S'R.0.0.1'
p4233
I20
VC(6,3)
p4234
V6!/(3!3!)
p4235
tp4236
aVtcuddy
p4237
(lp4238
(V$n
p4239
V96
p4240
tp4241
a(V$ns
p4242
V6
p4243
tp4244
a(V$nr
p4245
V16
p4246
tp4247
a(V$n
p4248
V96
p4249
tp4250
a(V$ns
p4251
V6
p4252
tp4253
a(V$nr
p4254
V16
p4255
tp4256
aV2015-10-10 20:28:48
p4257
tp4258
asS"['R.0']"
p4259
(lp4260
(g3354
V33000/(66!/61!)
p4261
(lp4262
(S'R.0'
p4263
F33000.0
V11*(11-1)*C(6,3)*C(6,2)
p4264
V33000
p4265
tp4266
aVlywong
p4267
g2185
V2015-10-13 08:41:54
p4268
tp4269
a(g3343
V(16*15*4*6)/(52!/(5!*47!))
p4270
(lp4271
(S'R.0'
p4272
F5760.0
V16*(16-1)*C(4,3)*C(4,2)
p4273
V16*15*4*6
p4274
tp4275
aVedcole
p4276
(lp4277
(V$n
p4278
V64
p4279
tp4280
a(V$ns
p4281
V4
p4282
tp4283
a(V$nr
p4284
V16
p4285
tp4286
a(V$n
p4287
V64
p4288
tp4289
a(V$ns
p4290
V4
p4291
tp4292
a(V$nr
p4293
V16
p4294
tp4295
aV2015-10-14 02:11:22
p4296
tp4297
a(V11*(11-1)*C(4,3)*C(4,2)/[C(44,5)]
p4298
V11*10*4*6/(11!/(5!6!))
p4299
(lp4300
(S'R.0'
p4301
F2640.0
V11*(11-1)*C(4,3)*C(4,2)
p4302
V11*10*4*6
p4303
tp4304
aVmitopete
p4305
(lp4306
(V$n
p4307
V44
p4308
tp4309
a(V$ns
p4310
V4
p4311
tp4312
a(V$nr
p4313
V11
p4314
tp4315
a(V$n
p4316
V44
p4317
tp4318
a(V$ns
p4319
V4
p4320
tp4321
a(V$nr
p4322
V11
p4323
tp4324
aV2015-10-14 17:37:40
p4325
tp4326
a(V14*(14-1)*C(5,3)*C(5,2)/[C(70,5)]
p4327
V(14 * 13 *  5!/(2!3!) * 5!/(2!3!) ) / (70!5!65!)
p4328
(lp4329
(S'R.0'
p4330
F18200.0
V14*(14-1)*C(5,3)*C(5,2)
p4331
V14 * 13 *  5!/(2!3!) * 5!/(2!3!)
p4332
tp4333
aVanvan
p4334
g990
V2015-10-15 03:07:40
p4335
tp4336
a(g4327
V(14 * 13 * 5!/(2!3!) * 5!/(2!3!) ) / (70!5!/65!)
p4337
(lp4338
(S'R.0'
p4339
F18200.0
V14*(14-1)*C(5,3)*C(5,2)
p4340
V14 * 13 * 5!/(2!3!) * 5!/(2!3!)
p4341
tp4342
aVanvan
p4343
g990
V2015-10-15 03:07:47
p4344
tp4345
a(g3349
V(24 * 12 * 13)/(52!/(3!49!))
p4346
(lp4347
(S'R.0'
p4348
F3744.0
V13*(13-1)*C(4,3)*C(4,2)
p4349
V24 * 12 * 13
p4350
tp4351
aVssamudra
p4352
(lp4353
(V$n
p4354
V52
p4355
tp4356
a(V$ns
p4357
V4
p4358
tp4359
a(V$nr
p4360
V13
p4361
tp4362
a(V$n
p4363
V52
p4364
tp4365
a(V$ns
p4366
V4
p4367
tp4368
a(V$nr
p4369
V13
p4370
tp4371
aV2015-10-15 03:43:28
p4372
tp4373
a(V16*(16-1)*C(6,3)*C(6,2)/[C(96,5)]
p4374
V16*(16-1)*20*15/4560
p4375
(lp4376
(S'R.0'
p4377
F72000.0
V16*(16-1)*C(6,3)*C(6,2)
p4378
V16*(16-1)*20*15
p4379
tp4380
aVseleon
p4381
(lp4382
(V$n
p4383
V96
p4384
tp4385
a(V$ns
p4386
V6
p4387
tp4388
a(V$nr
p4389
V16
p4390
tp4391
a(V$n
p4392
V96
p4393
tp4394
a(V$ns
p4395
V6
p4396
tp4397
a(V$nr
p4398
V16
p4399
tp4400
aV2015-10-15 06:42:59
p4401
tp4402
a(V16*(16-1)*C(5,3)*C(5,2)/[C(80,5)]
p4403
V(16*(16-1)C(5,3)C(5,2))/(C(60,5))
p4404
(lp4405
(S'R.0'
p4406
F24000.0
V16*(16-1)*C(5,3)*C(5,2)
p4407
V16*(16-1)C(5,3)C(5,2)
p4408
tp4409
aVmnrahman
p4410
(lp4411
(V$n
p4412
V80
p4413
tp4414
a(V$ns
p4415
V5
p4416
tp4417
a(V$nr
p4418
V16
p4419
tp4420
a(V$n
p4421
V80
p4422
tp4423
a(V$ns
p4424
V5
p4425
tp4426
a(V$nr
p4427
V16
p4428
tp4429
aV2015-10-15 07:06:02
p4430
tp4431
a(g4403
V(16*(16-1)C(5,3)C(5,2))/(C(96,5))
p4432
(lp4433
(S'R.0'
p4434
F24000.0
V16*(16-1)*C(5,3)*C(5,2)
p4435
V16*(16-1)C(5,3)C(5,2)
p4436
tp4437
aVmnrahman
p4438
g4411
V2015-10-15 07:06:34
p4439
tp4440
a(V13*(13-1)*C(4,3)*C(4,2)/[C(52,5)]
p4441
V((4!/(3!))(4!/(2!2!))*13*12)/(52!/(5!48!))
p4442
(lp4443
(S'R.0'
p4444
F3744.0
V13*(13-1)*C(4,3)*C(4,2)
p4445
V(4!/(3!))(4!/(2!2!))*13*12
p4446
tp4447
aVj2phung
p4448
(lp4449
(V$n
p4450
V52
p4451
tp4452
a(V$ns
p4453
V4
p4454
tp4455
a(V$nr
p4456
V13
p4457
tp4458
a(V$n
p4459
V52
p4460
tp4461
a(V$ns
p4462
V4
p4463
tp4464
a(V$nr
p4465
V13
p4466
tp4467
aV2015-10-15 09:19:11
p4468
tp4469
a(V16*(16-1)*C(6,3)*C(6,2)/[C(96,5)]
p4470
V16*15*(6*5*4/3!)*(6*5/2!)/(84!/(5!79!))
p4471
(lp4472
(S'R.0'
p4473
F72000.0
V16*(16-1)*C(6,3)*C(6,2)
p4474
V16*15*(6*5*4/3!)*(6*5/2!)
p4475
tp4476
aVh4tu
p4477
g2954
V2015-10-15 09:42:37
p4478
tp4479
a(g4470
V16*15*(6*5*4/3!)*(6*5/2!)/(84!/(5!*79!))
p4480
(lp4481
(S'R.0'
p4482
F72000.0
V16*(16-1)*C(6,3)*C(6,2)
p4483
V16*15*(6*5*4/3!)*(6*5/2!)
p4484
tp4485
aVh4tu
p4486
g2954
V2015-10-15 09:42:49
p4487
tp4488
a(V11*(11-1)*C(6,3)*C(6,2)/[C(66,5)]
p4489
V33000/(66!/(5!59!))
p4490
(lp4491
(S'R.0'
p4492
F33000.0
V11*(11-1)*C(6,3)*C(6,2)
p4493
V33000
p4494
tp4495
aVjmiclat
p4496
(lp4497
(V$n
p4498
V66
p4499
tp4500
a(V$ns
p4501
V6
p4502
tp4503
a(V$nr
p4504
V11
p4505
tp4506
a(V$n
p4507
V66
p4508
tp4509
a(V$ns
p4510
V6
p4511
tp4512
a(V$nr
p4513
V11
p4514
tp4515
aV2015-10-15 19:09:08
p4516
tp4517
a(V15*(15-1)*C(4,3)*C(4,2)/[C(60,5)]
p4518
V15*(15-1)*C(4,3)*C(4,2)/[C(75,4)]
p4519
(lp4520
(S'R.0'
p4521
F5040.0
V15*(15-1)*C(4,3)*C(4,2)
p4522
V15*(15-1)*C(4,3)*C(4,2)
p4523
tp4524
aVbpandayk
p4525
(lp4526
(V$n
p4527
V60
p4528
tp4529
a(V$ns
p4530
V4
p4531
tp4532
a(V$nr
p4533
V15
p4534
tp4535
a(V$n
p4536
V60
p4537
tp4538
a(V$ns
p4539
V4
p4540
tp4541
a(V$nr
p4542
V15
p4543
tp4544
aV2015-10-15 21:55:31
p4545
tp4546
a(g4518
V((15)(14)(C(4,3))(C(4,2)))/(C(75,4))
p4547
(lp4548
(S'R.0'
p4549
F5040.0
V15*(15-1)*C(4,3)*C(4,2)
p4550
V(15)(14)(C(4,3))(C(4,2))
p4551
tp4552
aVbpandayk
p4553
g4526
V2015-10-15 22:32:42
p4554
tp4555
a(V11*(11-1)*C(5,3)*C(5,2)/[C(55,5)]
p4556
V11000/(55!(5!50!))
p4557
(lp4558
(S'R.0'
p4559
F11000.0
V11*(11-1)*C(5,3)*C(5,2)
p4560
V11000
p4561
tp4562
aVr1gu
p4563
g1349
V2015-10-15 22:52:32
p4564
tp4565
asS"['R.0', 'R.1.1']"
p4566
(lp4567
(V15*(15-1)*C(6,3)*C(6,2)/[C(90,5)]
p4568
V(15*14*C(6,3)*C(6,2))/C(15,5)
p4569
(lp4570
(S'R.0'
p4571
F63000.0
V15*(15-1)*C(6,3)*C(6,2)
p4572
V15*14*C(6,3)*C(6,2)
p4573
tp4574
a(S'R.1.1'
p4575
F5.0
g987
g987
tp4576
aVhaw081
p4577
g536
V2015-10-11 00:53:44
p4578
tp4579
a(V15*(15-1)*C(4,3)*C(4,2)/[C(60,5)]
p4580
V(C(15,1)*C(14,1)*C(4,3)*C(4,2))/C(52,5)
p4581
(lp4582
(S'R.0'
p4583
F5040.0
V15*(15-1)*C(4,3)*C(4,2)
p4584
VC(15,1)*C(14,1)*C(4,3)*C(4,2)
p4585
tp4586
a(S'R.1.1'
p4587
F5.0
g987
g987
tp4588
aVabasu
p4589
(lp4590
(V$n
p4591
V60
p4592
tp4593
a(V$ns
p4594
V4
p4595
tp4596
a(V$nr
p4597
V15
p4598
tp4599
a(V$n
p4600
V60
p4601
tp4602
a(V$ns
p4603
V4
p4604
tp4605
a(V$nr
p4606
V15
p4607
tp4608
aV2015-10-11 04:41:19
p4609
tp4610
a(V14*(14-1)*C(4,3)*C(4,2)/[C(56,5)]
p4611
VC(14,1)*C(13,1)*C(4,2)*4/[C(70,5)]
p4612
(lp4613
(S'R.0'
p4614
F4368.0
V14*(14-1)*C(4,3)*C(4,2)
p4615
VC(14,1)*C(13,1)*C(4,2)*4
p4616
tp4617
a(S'R.1.1'
p4618
F5.0
g987
g987
tp4619
aVtol003
p4620
(lp4621
(V$n
p4622
V56
p4623
tp4624
a(V$ns
p4625
V4
p4626
tp4627
a(V$nr
p4628
V14
p4629
tp4630
a(V$n
p4631
V56
p4632
tp4633
a(V$ns
p4634
V4
p4635
tp4636
a(V$nr
p4637
V14
p4638
tp4639
aV2015-10-14 01:33:47
p4640
tp4641
a(V15*(15-1)*C(6,3)*C(6,2)/[C(90,5)]
p4642
V(C(15,1)*C(14,1)*C(6,3)*C(6,2))/C(78,5)
p4643
(lp4644
(S'R.0'
p4645
F63000.0
V15*(15-1)*C(6,3)*C(6,2)
p4646
VC(15,1)*C(14,1)*C(6,3)*C(6,2)
p4647
tp4648
a(S'R.1.1'
p4649
F5.0
g987
g987
tp4650
aVdaw023
p4651
g2293
V2015-10-15 06:11:29
p4652
tp4653
a(V13*(13-1)*C(6,3)*C(6,2)/[C(78,5)]
p4654
V13*12*C(6,3)*C(6,2) / C(48,5)
p4655
(lp4656
(S'R.0'
p4657
F46800.0
V13*(13-1)*C(6,3)*C(6,2)
p4658
V13*12*C(6,3)*C(6,2)
p4659
tp4660
a(S'R.1.1'
p4661
F5.0
g987
g987
tp4662
aVjhp077
p4663
g1292
V2015-10-15 06:43:17
p4664
tp4665
a(V15*(15-1)*C(6,3)*C(6,2)/[C(90,5)]
p4666
V(15*(15-1)*C(6,3)*C(6,2))/(C(6*13,5))
p4667
(lp4668
(S'R.0'
p4669
F63000.0
V15*(15-1)*C(6,3)*C(6,2)
p4670
V15*(15-1)*C(6,3)*C(6,2)
p4671
tp4672
a(S'R.1.1'
p4673
F5.0
g987
g987
tp4674
aVsthapa
p4675
(lp4676
(V$n
p4677
V90
p4678
tp4679
a(V$ns
p4680
V6
p4681
tp4682
a(V$nr
p4683
V15
p4684
tp4685
a(V$n
p4686
V90
p4687
tp4688
a(V$ns
p4689
V6
p4690
tp4691
a(V$nr
p4692
V15
p4693
tp4694
aV2015-10-15 16:25:32
p4695
tp4696
a(g4666
V(15*(15-1)*C(6,3)*C(6,2))/(C(15*5,5))
p4697
(lp4698
(S'R.0'
p4699
F63000.0
V15*(15-1)*C(6,3)*C(6,2)
p4700
V15*(15-1)*C(6,3)*C(6,2)
p4701
tp4702
a(S'R.1.1'
p4703
F5.0
g987
g987
tp4704
aVsthapa
p4705
g4676
V2015-10-15 16:25:56
p4706
tp4707
asS"['R.0.0.0', 'R.0.0.1.1', 'R.0.1.1', 'R.1']"
p4708
(lp4709
(g3407
V(11*10*C(5,1)^3*C(4,1)^2)/C(55,5)
p4710
(lp4711
(S'R.0.0.0'
p4712
F110.0
V11*(11-1)
p4713
V11*10
p4714
tp4715
a(S'R.0.0.1.1'
p4716
F3.0
g440
g440
tp4717
a(S'R.0.1.1'
p4718
F2.0
g1918
g1918
tp4719
a(S'R.1'
p4720
I3478761
VC(55,5)
p4721
VC(55,5)
p4722
tp4723
aVj5phung
p4724
g1051
V2015-10-09 19:13:22
p4725
tp4726
asS"['R.0.1.1', 'R.1']"
p4727
(lp4728
(V14*(14-1)*C(6,3)*C(6,2)/[C(84,5)]
p4729
V[14*13*6^2*5^2*4^2] / [C(84,5)]
p4730
(lp4731
(S'R.0.1.1'
p4732
F2.0
g1918
g1918
tp4733
a(S'R.1'
p4734
I30872016
VC(84,5)
p4735
VC(84,5)
p4736
tp4737
aVbeyounge
p4738
g2246
V2015-10-09 06:19:14
p4739
tp4740
a(g4729
V[14*13*6^2] / [C(84,5)]
p4741
(lp4742
(S'R.0.1.1'
p4743
F2.0
g1918
g1918
tp4744
a(S'R.1'
p4745
I30872016
VC(84,5)
p4746
VC(84,5)
p4747
tp4748
aVbeyounge
p4749
g2246
V2015-10-09 06:19:56
p4750
tp4751
asS"['R.0.0.0', 'R.0.0.1.1', 'R.0.1.1', 'R.1.1']"
p4752
(lp4753
(g4568
V(15*14*C(4,3)*C(4,2))/C(15,5)
p4754
(lp4755
(S'R.0.0.0'
p4756
F210.0
V15*(15-1)
p4757
V15*14
p4758
tp4759
a(S'R.0.0.1.1'
p4760
F3.0
g440
g440
tp4761
a(S'R.0.1.1'
p4762
F2.0
g1918
g1918
tp4763
a(S'R.1.1'
p4764
F5.0
g987
g987
tp4765
aVhaw081
p4766
g536
V2015-10-11 00:53:21
p4767
tp4768
asS"['R.0.1.1', 'R.1.1']"
p4769
(lp4770
(g4568
V(C(15,3)+C(14,2))/C(15,5)
p4771
(lp4772
(S'R.0.1.1'
p4773
F2.0
g1918
g1918
tp4774
a(S'R.1.1'
p4775
F5.0
g987
g987
tp4776
aVhaw081
p4777
g536
V2015-10-11 00:51:51
p4778
tp4779
asS"['R.0', 'R.1.0']"
p4780
(lp4781
(V13*(13-1)*C(4,3)*C(4,2)/[C(52,5)]
p4782
V(13*12*C(4,3)*C(4,2))/C(52,4)
p4783
(lp4784
(S'R.0'
p4785
F3744.0
V13*(13-1)*C(4,3)*C(4,2)
p4786
V13*12*C(4,3)*C(4,2)
p4787
tp4788
a(S'R.1.0'
p4789
F52.0
V52
p4790
V52
p4791
tp4792
aVlalacson
p4793
(lp4794
(V$n
p4795
V52
p4796
tp4797
a(V$ns
p4798
V4
p4799
tp4800
a(V$nr
p4801
V13
p4802
tp4803
a(V$n
p4804
V52
p4805
tp4806
a(V$ns
p4807
V4
p4808
tp4809
a(V$nr
p4810
V13
p4811
tp4812
aV2015-10-11 23:38:21
p4813
tp4814
a(g3548
V(13*12*C(6,3)*C(6,2))/C(78,6)
p4815
(lp4816
(S'R.0'
p4817
F46800.0
V13*(13-1)*C(6,3)*C(6,2)
p4818
V13*12*C(6,3)*C(6,2)
p4819
tp4820
a(S'R.1.0'
p4821
F78.0
V78
p4822
V78
p4823
tp4824
aVchc286
p4825
g3556
V2015-10-12 00:01:26
p4826
tp4827
a(V10*(10-1)*C(4,3)*C(4,2)/[C(40,5)]
p4828
V2160/C(40,2)
p4829
(lp4830
(S'R.0'
p4831
F2160.0
V10*(10-1)*C(4,3)*C(4,2)
p4832
V2160
p4833
tp4834
a(S'R.1.0'
p4835
F40.0
V40
p4836
V40
p4837
tp4838
aVflhernan
p4839
(lp4840
(V$n
p4841
V40
p4842
tp4843
a(V$ns
p4844
V4
p4845
tp4846
a(V$nr
p4847
V10
p4848
tp4849
a(V$n
p4850
V40
p4851
tp4852
a(V$ns
p4853
V4
p4854
tp4855
a(V$nr
p4856
V10
p4857
tp4858
aV2015-10-14 22:23:57
p4859
tp4860
a(g4518
V15*(15-1)*C(4,3)*C(4,2)/ C(60,4)
p4861
(lp4862
(S'R.0'
p4863
F5040.0
V15*(15-1)*C(4,3)*C(4,2)
p4864
V15*(15-1)*C(4,3)*C(4,2)
p4865
tp4866
a(S'R.1.0'
p4867
F60.0
V60
p4868
V60
p4869
tp4870
aVbpandayk
p4871
g4526
V2015-10-15 21:57:44
p4872
tp4873
a(g4518
V15*(15-1)*C(4,3)*C(4,2)/ [C(60,4)]
p4874
(lp4875
(S'R.0'
p4876
F5040.0
V15*(15-1)*C(4,3)*C(4,2)
p4877
V15*(15-1)*C(4,3)*C(4,2)
p4878
tp4879
a(S'R.1.0'
p4880
F60.0
V60
p4881
V60
p4882
tp4883
aVbpandayk
p4884
g4526
V2015-10-15 21:58:38
p4885
tp4886
a(g4518
V15*(15-1)*C(4,3)* C(4,2)/ [C(60,4)]
p4887
(lp4888
(S'R.0'
p4889
F5040.0
V15*(15-1)*C(4,3)*C(4,2)
p4890
V15*(15-1)*C(4,3)* C(4,2)
p4891
tp4892
a(S'R.1.0'
p4893
F60.0
V60
p4894
V60
p4895
tp4896
aVbpandayk
p4897
g4526
V2015-10-15 21:59:53
p4898
tp4899
a(g4518
V15*(15-1)*C(4,3)*C(4,2)/[C(60,4)]
p4900
(lp4901
(S'R.0'
p4902
F5040.0
V15*(15-1)*C(4,3)*C(4,2)
p4903
V15*(15-1)*C(4,3)*C(4,2)
p4904
tp4905
a(S'R.1.0'
p4906
F60.0
V60
p4907
V60
p4908
tp4909
aVbpandayk
p4910
g4526
V2015-10-15 22:31:15
p4911
tp4912
a(g4518
V((15)(14)(C(4,3))(C(4,2)))/(C(60,4))
p4913
(lp4914
(S'R.0'
p4915
F5040.0
V15*(15-1)*C(4,3)*C(4,2)
p4916
V(15)(14)(C(4,3))(C(4,2))
p4917
tp4918
a(S'R.1.0'
p4919
F60.0
V60
p4920
V60
p4921
tp4922
aVbpandayk
p4923
g4526
V2015-10-15 22:32:31
p4924
tp4925
asS"['R.0.0.1', 'R.0.1.1', 'R.1.1']"
p4926
(lp4927
(g4642
V(C(15,1)*C(14,2)*C(6,3)*C(6,1)^2)/C(78,5)
p4928
(lp4929
(S'R.0.0.1'
p4930
I20
VC(6,3)
p4931
VC(6,3)
p4932
tp4933
a(S'R.0.1.1'
p4934
F2.0
g1918
g1918
tp4935
a(S'R.1.1'
p4936
F5.0
g987
g987
tp4937
aVdaw023
p4938
g2293
V2015-10-15 06:10:02
p4939
tp4940
ass.