(dp0
V1
p1
ccollections
defaultdict
p2
(c__builtin__
list
p3
tp4
Rp5
S'Digits'
p6
(lp7
(V12-3
p8
V11
p9
tp10
a(g8
V10
p11
tp12
a(g8
V8
p13
tp14
a(V14-3
p15
V10
p16
tp17
a(V16-3
p18
V12
p19
tp20
a(V14-3
p21
V16
p22
tp23
a(g21
V15
p24
tp25
a(g21
V14
p26
tp27
a(g21
V13
p28
tp29
a(g21
V12
p30
tp31
a(V12-3
p32
V10
p33
tp34
a(V11-3
p35
V9
p36
tp37
a(V11-3
p38
V7
p39
tp40
a(V11-3
p41
V6
p42
tp43
a(g41
V4
p44
tp45
a(g41
V5
p46
tp47
a(g41
V6
p48
tp49
a(g41
V7
p50
tp51
a(V15-3
p52
V10
p53
tp54
a(V13-3
p55
V8
p56
tp57
a(g55
V9
p58
tp59
a(V10-3
p60
V10
p61
tp62
a(g60
V11
p63
tp64
a(g60
V12
p65
tp66
a(g60
V13
p67
tp68
a(g60
V50
p69
tp70
a(g60
V10
p71
tp72
a(g60
V6
p73
tp74
a(V12-3
p75
V10
p76
tp77
a(g75
V11
p78
tp79
a(V11-3
p80
V7
p81
tp82
a(V14-3
p83
V13
p84
tp85
a(V10-3
p86
V10
p87
tp88
a(g86
V6
p89
tp90
a(V14-3
p91
V12
p92
tp93
a(g91
V13
p94
tp95
a(g91
V12
p96
tp97
a(g91
V14
p98
tp99
a(V12-3
p100
V960
p101
tp102
a(V12-3
p103
V10
p104
tp105
a(V10-3
p106
V10
p107
tp108
a(g106
V6
p109
tp110
a(V10-3
p111
V10
p112
tp113
a(g111
V6
p114
tp115
a(g111
V10
p116
tp117
a(g111
V6
p118
tp119
a(V13-3
p120
V9
p121
tp122
a(V10-3
p123
V10
p124
tp125
a(g123
V9
p126
tp127
a(g123
V11
p128
tp129
a(g123
V8
p130
tp131
a(g123
V9
p132
tp133
a(g123
V10
p134
tp135
a(V16-3
p136
V16
p137
tp138
a(g136
V15
p139
tp140
a(g136
V11
p141
tp142
a(g136
V12
p143
tp144
a(V12-3
p145
V8
p146
tp147
a(V10-3
p148
V10
p149
tp150
a(g148
V6
p151
tp152
a(V16-3
p153
V10
p154
tp155
a(V11-3
p156
V7
p157
tp158
a(g156
V9
p159
tp160
a(V12-3
p161
V10
p162
tp163
a(g145
V10
p164
tp165
a(g145
V7
p166
tp167
a(g145
V8
p168
tp169
a(V11-3
p170
V7
p171
tp172
a(g170
V11
p173
tp174
a(g170
V10
p175
tp176
a(g170
V7
p177
tp178
a(V10-3
p179
V6
p180
tp181
a(V10-3
p182
V2
p183
tp184
a(g182
V10
p185
tp186
a(g182
V10
p187
tp188
a(g182
V13
p189
tp190
a(g182
V6
p191
tp192
a(V10-3
p193
V10
p194
tp195
a(g193
V9
p196
tp197
a(g193
V5
p198
tp199
a(g193
V6
p200
tp201
a(g193
V11
p202
tp203
a(g193
V5
p204
tp205
a(g193
V6
p206
tp207
a(V13-3
p208
V9
p209
tp210
a(V16-3
p211
V12
p212
tp213
a(g100
V8
p214
tp215
a(g100
V40
p216
tp217
a(g100
V12
p218
tp219
a(g100
V60
p220
tp221
a(g100
V10
p222
tp223
a(V11-3
p224
V7
p225
tp226
a(V10-3
p227
V6
p228
tp229
a(g227
V8
p230
tp231
a(V10-3
p232
V6
p233
tp234
a(g232
V10
p235
tp236
a(V11-3
p237
V7
p238
tp239
a(g237
V9
p240
tp241
a(V16-3
p242
V10
p243
tp244
a(g242
V15
p245
tp246
a(g242
V16
p247
tp248
a(V13-3
p249
V12
p250
tp251
a(V15-3
p252
V10
p253
tp254
a(g242
V12
p255
tp256
a(V12-3
p257
V8
p258
tp259
a(V14-3
p260
V15
p261
tp262
a(g260
V14
p263
tp264
a(g260
V12
p265
tp266
a(g260
V15
p267
tp268
a(V13-3
p269
V13
p270
tp271
a(g269
V12
p272
tp273
a(g269
V11
p274
tp275
a(V10-3
p276
V10
p277
tp278
a(g276
V6
p279
tp280
a(g276
V5
p281
tp282
a(V14-3
p283
V14
p284
tp285
a(V15-3
p286
V11
p287
tp288
a(g286
V13
p289
tp290
a(g286
V11
p291
tp292
a(V10-3
p293
V6
p294
tp295
a(V10-3
p296
V6
p297
tp298
a(g296
V5
p299
tp300
a(V12-3
p301
V5
p302
tp303
a(V13-3
p304
V10,240
p305
tp306
a(g304
V10240
p307
tp308
a(V10-3
p309
V10
p310
tp311
a(g309
V6
p312
tp313
a(V11-3
p314
V5
p315
tp316
a(V16-3
p317
V10
p318
tp319
a(g317
V12
p320
tp321
a(g317
V9
p322
tp323
a(g317
V7
p324
tp325
a(V14-3
p326
V14
p327
tp328
a(V11-3
p329
V48
p330
tp331
a(g301
V12
p332
tp333
a(g301
V15
p334
tp335
a(g301
V7
p336
tp337
a(g301
V8
p338
tp339
a(g301
V13
p340
tp341
a(g301
V14
p342
tp343
a(g301
V11
p344
tp345
a(g301
V15
p346
tp347
a(g301
V16
p348
tp349
a(g301
V60
p350
tp351
a(g301
V61
p352
tp353
a(V14-3
p354
V14
p355
tp356
a(V14-3
p357
V10
p358
tp359
a(g357
V40
p360
tp361
a(V11-3
p362
V9
p363
tp364
a(g362
V10
p365
tp366
a(g362
V55
p367
tp368
a(g362
V88
p369
tp370
a(g362
V40
p371
tp372
a(V12-3
p373
V10
p374
tp375
a(V15-3
p376
V15
p377
tp378
a(g376
V10
p379
tp380
a(g376
V360
p381
tp382
a(g376
V10
p383
tp384
a(V16-3
p385
V12
p386
tp387
a(g385
V10
p388
tp389
a(V16-3
p390
V12
p391
tp392
a(g390
V60
p393
tp394
a(V11-3
p395
V6
p396
tp397
a(V14-3
p398
V14
p399
tp400
a(g362
V7
p401
tp402
a(V11-3
p403
V7
p404
tp405
a(g403
V11
p406
tp407
a(g403
V6
p408
tp409
a(g329
V62208
p410
tp411
a(g329
V48
p412
tp413
a(V15-3
p414
V11
p415
tp416
a(g414
V10
p417
tp418
a(g414
V40
p419
tp420
a(g414
V44
p421
tp422
a(V15-3
p423
V15
p424
tp425
a(g423
V11
p426
tp427
a(g423
V10
p428
tp429
a(g423
V11
p430
tp431
a(V16-3
p432
V12
p433
tp434
a(V12-3
p435
V12
p436
tp437
a(g435
V8
p438
tp439
a(V13-3
p440
V8
p441
tp442
a(g435
V13
p443
tp444
a(g440
V9
p445
tp446
a(g301
V5
p447
tp448
a(g301
V12
p449
tp450
a(V15-3
p451
V16
p452
tp453
a(g451
V15
p454
tp455
a(g451
V3003
p456
tp457
a(g451
V11
p458
tp459
a(g301
V7
p460
tp461
a(g301
V5
p462
tp463
a(g301
V6
p464
tp465
a(g301
V8
p466
tp467
a(V14-3
p468
V10
p469
tp470
a(V16-3
p471
V10
p472
tp473
a(g471
V9
p474
tp475
a(g471
V10
p476
tp477
a(g471
V12
p478
tp479
a(g471
V11
p480
tp481
a(g471
V12
p482
tp483
a(V11-3
p484
V11
p485
tp486
a(g484
V9
p487
tp488
a(V14-3
p489
V10
p490
tp491
a(V11-3
p492
V10
p493
tp494
a(V13-3
p495
V13
p496
tp497
a(g495
V15
p498
tp499
a(V16-3
p500
V12
p501
tp502
a(V14-3
p503
V10
p504
tp505
a(g503
V14
p506
tp507
a(V10-3
p508
V9
p509
tp510
a(g508
V10
p511
tp512
a(V10-3
p513
V10
p514
tp515
a(g513
V6
p516
tp517
a(g513
V5
p518
tp519
a(g508
V6
p520
tp521
a(g513
V9
p522
tp523
a(V15-3
p524
V11
p525
tp526
a(V14-3
p527
V14
p528
tp529
a(V15-3
p530
V11
p531
tp532
a(V15-3
p533
V11
p534
tp535
a(g530
V55
p536
tp537
a(g527
V10
p538
tp539
a(g527
V9
p540
tp541
a(g232
V6
p542
tp543
a(g232
V5
p544
tp545
a(V10-3
p546
V6
p547
tp548
a(V10-3
p549
V6
p550
tp551
a(g549
V5
p552
tp553
a(g549
V10
p554
tp555
a(g549
V11
p556
tp557
a(g549
V9
p558
tp559
a(g546
V10
p560
tp561
a(g546
V9
p562
tp563
a(g549
V5
p564
tp565
a(g549
V4
p566
tp567
a(g549
V6
p568
tp569
a(V16-3
p570
V11
p571
tp572
a(V14-3
p573
V12
p574
tp575
a(g573
V10
p576
tp577
a(V14-3
p578
V14
p579
tp580
a(V11-3
p581
V13
p582
tp583
a(V13-3
p584
V6
p585
tp586
a(g584
V7
p587
tp588
a(g584
V13
p589
tp590
a(g584
V12
p591
tp592
a(V10-3
p593
V6
p594
tp595
a(g581
V11
p596
tp597
a(V11-3
p598
V6
p599
tp600
a(g598
V7
p601
tp602
a(V10-3
p603
V5
p604
tp605
a(g603
V6
p606
tp607
a(g603
V4
p608
tp609
a(V14-3
p610
V55
p611
tp612
a(V15-3
p613
V10
p614
tp615
a(g613
V15
p616
tp617
a(V15-3
p618
V52
p619
tp620
a(g618
V15
p621
tp622
a(V11-3
p623
V11
p624
tp625
a(V13-3
p626
V10,200
p627
tp628
a(g626
V10200
p629
tp630
a(V13-3
p631
V11
p632
tp633
a(g631
V12
p634
tp635
a(g618
V1
p636
tp637
a(g631
V13
p638
tp639
a(V11-3
p640
V11
p641
tp642
a(g618
V15
p643
tp644
a(g618
V16
p645
tp646
a(g618
V15
p647
tp648
a(V12-3
p649
V7
p650
tp651
a(g649
V10
p652
tp653
a(V16-3
p654
V12
p655
tp656
a(V15-3
p657
V16
p658
tp659
a(g657
V15
p660
tp661
a(g657
V17
p662
tp663
a(g657
V9
p664
tp665
a(g657
V10
p666
tp667
a(g657
V11
p668
tp669
a(V13-3
p670
V13
p671
tp672
a(g670
V12
p673
tp674
a(g670
V11
p675
tp676
a(V11-3
p677
V10
p678
tp679
a(g677
V12
p680
tp681
a(g677
V7
p682
tp683
a(g677
V6
p684
tp685
a(V12-3
p686
V12
p687
tp688
a(V16-3
p689
V12
p690
tp691
a(g689
V11
p692
tp693
a(V12-3
p694
V12
p695
tp696
a(g694
V10
p697
tp698
a(V14-3
p699
V10
p700
tp701
a(V11-3
p702
V12
p703
tp704
a(V10-3
p705
V4
p706
tp707
a(g705
V10
p708
tp709
a(g705
V6
p710
tp711
a(g705
V5
p712
tp713
a(g694
V10
p714
tp715
a(V15-3
p716
V5
p717
tp718
a(V10-3
p719
V10
p720
tp721
a(g719
V12
p722
tp723
a(g719
V9
p724
tp725
a(V13-3
p726
V9
p727
tp728
a(V16-3
p729
V11
p730
tp731
a(g729
V12
p732
tp733
a(V12-3
p734
V8
p735
tp736
a(V10-3
p737
V6
p738
tp739
a(g729
V5
p740
tp741
a(g729
V16
p742
tp743
a(g729
V15
p744
tp745
a(V11-3
p746
V10
p747
tp748
a(V14-3
p749
V10
p750
tp751
a(V10-3
p752
V36
p753
tp754
a(g752
V6
p755
tp756
a(g729
V16
p757
tp758
a(V14-3
p759
V10
p760
tp761
a(V13-3
p762
V13
p763
tp764
a(V11-3
p765
V13
p766
tp767
a(g765
V11
p768
tp769
a(V10-3
p770
V6
p771
tp772
a(g770
V10
p773
tp774
a(g770
V13
p775
tp776
a(g770
V5
p777
tp778
a(g770
V9
p779
tp780
a(V15-3
p781
V11
p782
tp783
a(g781
V10
p784
tp785
a(V12-3
p786
V10
p787
tp788
a(V10-3
p789
V10
p790
tp791
a(g789
V9
p792
tp793
a(g789
V6
p794
tp795
a(V13-3
p796
V13
p797
tp798
a(V14-3
p799
V10
p800
tp801
a(V11-3
p802
V10
p803
tp804
a(V16-3
p805
V12
p806
tp807
a(V11-3
p808
V13
p809
tp810
a(g808
V12
p811
tp812
a(g808
V10
p813
tp814
a(g808
V11
p815
tp816
a(g808
V7
p817
tp818
a(g802
V11
p819
tp820
a(g802
V7
p821
tp822
a(V13-3
p823
V13
p824
tp825
a(g823
V5
p826
tp827
a(g823
V13
p828
tp829
a(V11-3
p830
V10
p831
tp832
a(g830
V9
p833
tp834
a(g830
V11
p835
tp836
a(g830
V13
p837
tp838
a(g830
V40
p839
tp840
a(g610
V2002
p841
tp842
a(V16-3
p843
V10
p844
tp845
a(g610
V10
p846
tp847
a(g843
V5
p848
tp849
a(g843
V12
p850
tp851
a(V14-3
p852
V9
p853
tp854
a(g852
V10
p855
tp856
a(V13-3
p857
V11
p858
tp859
a(g603
V5
p860
tp861
a(g603
V6
p862
tp863
a(V12-3
p864
V12
p865
tp866
a(g864
V15
p867
tp868
a(g546
V6
p869
tp870
a(V15-3
p871
V13
p872
tp873
a(g871
V8
p874
tp875
a(V12-3
p876
V8
p877
tp878
a(V16-3
p879
V18
p880
tp881
a(V11-3
p882
V7
p883
tp884
a(V16-3
p885
V16
p886
tp887
a(g885
V10
p888
tp889
a(V12-3
p890
V10
p891
tp892
a(V12-3
p893
V3975
p894
tp895
a(V13-3
p896
V16
p897
tp898
a(V14-3
p899
V10
p900
tp901
a(g893
V95040
p902
tp903
a(g893
V792
p904
tp905
a(V12-3
p906
V7
p907
tp908
a(g906
V8
p909
tp910
a(g906
V8
p911
tp912
a(g906
V11
p913
tp914
a(V15-3
p915
V15
p916
tp917
a(V13-3
p918
V10200
p919
tp920
a(V10-3
p921
V6
p922
tp923
a(g921
V5
p924
tp925
a(V11-3
p926
V11
p927
tp928
a(g918
V2598960
p929
tp930
a(g926
V12
p931
tp932
a(g926
V6
p933
tp934
a(V14-3
p935
V10
p936
tp937
a(g926
V7
p938
tp939
a(V10-3
p940
V5
p941
tp942
a(g940
V6
p943
tp944
a(g940
V10
p945
tp946
a(V14-3
p947
V10
p948
tp949
a(g940
V8
p950
tp951
a(g940
V6
p952
tp953
a(g918
V10,200
p954
tp955
a(g918
V10200
p956
tp957
a(V10-3
p958
V5
p959
tp960
a(g958
V6
p961
tp962
a(g958
V9
p963
tp964
a(V12-3
p965
V12
p966
tp967
a(g965
V72
p968
tp969
a(V14-3
p970
V15
p971
tp972
a(V13-3
p973
V466560
p974
tp975
a(g973
V2799360
p976
tp977
a(g973
V77760
p978
tp979
a(g965
V8
p980
tp981
a(V16-3
p982
V9
p983
tp984
a(V11-3
p985
V10
p986
tp987
a(V14-3
p988
V10
p989
tp990
a(V16-3
p991
V16
p992
tp993
a(g991
V11
p994
tp995
a(g991
V10
p996
tp997
a(g991
V12
p998
tp999
a(V15-3
p1000
V11
p1001
tp1002
a(g1000
V5
p1003
tp1004
a(g1000
V6
p1005
tp1006
a(V11-3
p1007
V11
p1008
tp1009
a(g1007
V10
p1010
tp1011
a(g1007
V9
p1012
tp1013
asS"['R.0']"
p1014
(lp1015
(g18
VC(16,5)
p1016
(lp1017
(S'R.0'
p1018
F16.0
V16
p1019
V16
p1020
tp1021
aVj5phung
p1022
(lp1023
(V$n
p1024
V80
p1025
tp1026
a(V$ns
p1027
V5
p1028
tp1029
a(V$nr
p1030
V16
p1031
tp1032
a(V$n
p1033
V80
p1034
tp1035
a(V$ns
p1036
V5
p1037
tp1038
a(V$nr
p1039
V16
p1040
tp1041
aV2015-10-09 18:58:26
p1042
tp1043
a(g21
VC(14,5)
p1044
(lp1045
(S'R.0'
p1046
F14.0
V14
p1047
V14
p1048
tp1049
aVlguintu
p1050
(lp1051
(V$n
p1052
V70
p1053
tp1054
a(V$ns
p1055
V5
p1056
tp1057
a(V$nr
p1058
V14
p1059
tp1060
a(V$n
p1061
V70
p1062
tp1063
a(V$ns
p1064
V5
p1065
tp1066
a(V$nr
p1067
V14
p1068
tp1069
aV2015-10-09 22:16:18
p1070
tp1071
a(g38
VC(11,5)
p1072
(lp1073
(S'R.0'
p1074
F11.0
V11
p1075
V11
p1076
tp1077
aVm8woo
p1078
(lp1079
(V$n
p1080
V66
p1081
tp1082
a(V$ns
p1083
V6
p1084
tp1085
a(V$nr
p1086
V11
p1087
tp1088
a(V$n
p1089
V66
p1090
tp1091
a(V$ns
p1092
V6
p1093
tp1094
a(V$nr
p1095
V11
p1096
tp1097
aV2015-10-10 01:22:53
p1098
tp1099
a(g41
VC(11,5)
p1100
(lp1101
(S'R.0'
p1102
F11.0
V11
p1103
V11
p1104
tp1105
aVdpereira
p1106
(lp1107
(V$n
p1108
V66
p1109
tp1110
a(V$ns
p1111
V6
p1112
tp1113
a(V$nr
p1114
V11
p1115
tp1116
a(V$n
p1117
V66
p1118
tp1119
a(V$ns
p1120
V6
p1121
tp1122
a(V$nr
p1123
V11
p1124
tp1125
aV2015-10-10 06:06:54
p1126
tp1127
a(g41
VC(11,6)
p1128
(lp1129
(S'R.0'
p1130
F11.0
V11
p1131
V11
p1132
tp1133
aVdpereira
p1134
g1107
V2015-10-10 06:07:01
p1135
tp1136
a(g80
VC(11,7)
p1137
(lp1138
(S'R.0'
p1139
F11.0
V11
p1140
V11
p1141
tp1142
aVvsamant
p1143
(lp1144
(V$n
p1145
V44
p1146
tp1147
a(V$ns
p1148
V4
p1149
tp1150
a(V$nr
p1151
V11
p1152
tp1153
a(V$n
p1154
V44
p1155
tp1156
a(V$ns
p1157
V4
p1158
tp1159
a(V$nr
p1160
V11
p1161
tp1162
aV2015-10-10 17:18:43
p1163
tp1164
a(g106
VC(10,5)
p1165
(lp1166
(S'R.0'
p1167
F10.0
V10
p1168
V10
p1169
tp1170
aVetemlock
p1171
(lp1172
(V$n
p1173
V60
p1174
tp1175
a(V$ns
p1176
V6
p1177
tp1178
a(V$nr
p1179
V10
p1180
tp1181
a(V$n
p1182
V60
p1183
tp1184
a(V$ns
p1185
V6
p1186
tp1187
a(V$nr
p1188
V10
p1189
tp1190
aV2015-10-11 01:34:58
p1191
tp1192
a(g111
V10*5!
p1193
(lp1194
(S'R.0'
p1195
F10.0
V10
p1196
V10
p1197
tp1198
aVaakumar
p1199
(lp1200
(V$n
p1201
V50
p1202
tp1203
a(V$ns
p1204
V5
p1205
tp1206
a(V$nr
p1207
V10
p1208
tp1209
a(V$n
p1210
V50
p1211
tp1212
a(V$ns
p1213
V5
p1214
tp1215
a(V$nr
p1216
V10
p1217
tp1218
aV2015-10-11 01:57:20
p1219
tp1220
a(g136
VC(16,6)
p1221
(lp1222
(S'R.0'
p1223
F16.0
V16
p1224
V16
p1225
tp1226
aVvasharma
p1227
(lp1228
(V$n
p1229
V96
p1230
tp1231
a(V$ns
p1232
V6
p1233
tp1234
a(V$nr
p1235
V16
p1236
tp1237
a(V$n
p1238
V96
p1239
tp1240
a(V$ns
p1241
V6
p1242
tp1243
a(V$nr
p1244
V16
p1245
tp1246
aV2015-10-11 03:27:29
p1247
tp1248
a(g136
V16!
p1249
(lp1250
(S'R.0'
p1251
F16.0
V16
p1252
V16
p1253
tp1254
aVvasharma
p1255
g1228
V2015-10-11 03:33:19
p1256
tp1257
a(g182
VC(10,5)
p1258
(lp1259
(S'R.0'
p1260
F10.0
V10
p1261
V10
p1262
tp1263
aVlalacson
p1264
(lp1265
(V$n
p1266
V40
p1267
tp1268
a(V$ns
p1269
V4
p1270
tp1271
a(V$nr
p1272
V10
p1273
tp1274
a(V$n
p1275
V40
p1276
tp1277
a(V$ns
p1278
V4
p1279
tp1280
a(V$nr
p1281
V10
p1282
tp1283
aV2015-10-11 22:55:14
p1284
tp1285
a(g182
V10*5
p1286
(lp1287
(S'R.0'
p1288
F10.0
V10
p1289
V10
p1290
tp1291
aVlalacson
p1292
g1265
V2015-10-11 22:55:37
p1293
tp1294
a(g182
V10*4
p1295
(lp1296
(S'R.0'
p1297
F10.0
V10
p1298
V10
p1299
tp1300
aVlalacson
p1301
g1265
V2015-10-11 22:57:08
p1302
tp1303
a(g182
VC(10,5)
p1304
(lp1305
(S'R.0'
p1306
F10.0
V10
p1307
V10
p1308
tp1309
aVlalacson
p1310
g1265
V2015-10-11 23:03:26
p1311
tp1312
a(g260
V14*(4^5-4)
p1313
(lp1314
(S'R.0'
p1315
F14.0
V14
p1316
V14
p1317
tp1318
aVsayao
p1319
(lp1320
(V$n
p1321
V56
p1322
tp1323
a(V$ns
p1324
V4
p1325
tp1326
a(V$nr
p1327
V14
p1328
tp1329
a(V$n
p1330
V56
p1331
tp1332
a(V$ns
p1333
V4
p1334
tp1335
a(V$nr
p1336
V14
p1337
tp1338
aV2015-10-12 18:48:18
p1339
tp1340
a(g654
VC(16,5)
p1341
(lp1342
(S'R.0'
p1343
F16.0
V16
p1344
V16
p1345
tp1346
aVamquinte
p1347
(lp1348
(V$n
p1349
V96
p1350
tp1351
a(V$ns
p1352
V6
p1353
tp1354
a(V$nr
p1355
V16
p1356
tp1357
a(V$n
p1358
V96
p1359
tp1360
a(V$ns
p1361
V6
p1362
tp1363
a(V$nr
p1364
V16
p1365
tp1366
aV2015-10-12 21:09:39
p1367
tp1368
a(g309
V10-5
p1369
(lp1370
(S'R.0'
p1371
F10.0
V10
p1372
V10
p1373
tp1374
aVachinn
p1375
(lp1376
(V$n
p1377
V40
p1378
tp1379
a(V$ns
p1380
V4
p1381
tp1382
a(V$nr
p1383
V10
p1384
tp1385
a(V$n
p1386
V40
p1387
tp1388
a(V$ns
p1389
V4
p1390
tp1391
a(V$nr
p1392
V10
p1393
tp1394
aV2015-10-13 00:06:27
p1395
tp1396
a(g301
VC(12, 5)
p1397
(lp1398
(S'R.0'
p1399
F12.0
V12
p1400
V12
p1401
tp1402
aVcstringh
p1403
(lp1404
(V$n
p1405
V60
p1406
tp1407
a(V$ns
p1408
V5
p1409
tp1410
a(V$nr
p1411
V12
p1412
tp1413
a(V$n
p1414
V60
p1415
tp1416
a(V$ns
p1417
V5
p1418
tp1419
a(V$nr
p1420
V12
p1421
tp1422
aV2015-10-13 04:50:07
p1423
tp1424
a(g301
V12!
p1425
(lp1426
(S'R.0'
p1427
F12.0
V12
p1428
V12
p1429
tp1430
aVcstringh
p1431
g1404
V2015-10-13 04:51:10
p1432
tp1433
a(V12-3
p1434
VC(12,5)
p1435
(lp1436
(S'R.0'
p1437
F12.0
V12
p1438
V12
p1439
tp1440
aVs2chaudh
p1441
(lp1442
(V$n
p1443
V48
p1444
tp1445
a(V$ns
p1446
V4
p1447
tp1448
a(V$nr
p1449
V12
p1450
tp1451
a(V$n
p1452
V48
p1453
tp1454
a(V$ns
p1455
V4
p1456
tp1457
a(V$nr
p1458
V12
p1459
tp1460
aV2015-10-13 05:20:36
p1461
tp1462
a(V14-3
p1463
VC(14,5)
p1464
(lp1465
(S'R.0'
p1466
F14.0
V14
p1467
V14
p1468
tp1469
aVachava
p1470
(lp1471
(V$n
p1472
V84
p1473
tp1474
a(V$ns
p1475
V6
p1476
tp1477
a(V$nr
p1478
V14
p1479
tp1480
a(V$n
p1481
V84
p1482
tp1483
a(V$ns
p1484
V6
p1485
tp1486
a(V$nr
p1487
V14
p1488
tp1489
aV2015-10-13 08:23:10
p1490
tp1491
a(V14-3
p1492
VC(14,5)
p1493
(lp1494
(S'R.0'
p1495
F14.0
V14
p1496
V14
p1497
tp1498
aVjcl084
p1499
(lp1500
(V$n
p1501
V70
p1502
tp1503
a(V$ns
p1504
V5
p1505
tp1506
a(V$nr
p1507
V14
p1508
tp1509
a(V$n
p1510
V70
p1511
tp1512
a(V$ns
p1513
V5
p1514
tp1515
a(V$nr
p1516
V14
p1517
tp1518
aV2015-10-13 20:53:02
p1519
tp1520
a(g403
VC(11,5)
p1521
(lp1522
(S'R.0'
p1523
F11.0
V11
p1524
V11
p1525
tp1526
aVlcardoso
p1527
(lp1528
(V$n
p1529
V66
p1530
tp1531
a(V$ns
p1532
V6
p1533
tp1534
a(V$nr
p1535
V11
p1536
tp1537
a(V$n
p1538
V66
p1539
tp1540
a(V$ns
p1541
V6
p1542
tp1543
a(V$nr
p1544
V11
p1545
tp1546
aV2015-10-13 21:27:43
p1547
tp1548
a(g451
V15*6
p1549
(lp1550
(S'R.0'
p1551
F15.0
V15
p1552
V15
p1553
tp1554
aVn2patil
p1555
(lp1556
(V$n
p1557
V90
p1558
tp1559
a(V$ns
p1560
V6
p1561
tp1562
a(V$nr
p1563
V15
p1564
tp1565
a(V$n
p1566
V90
p1567
tp1568
a(V$ns
p1569
V6
p1570
tp1571
a(V$nr
p1572
V15
p1573
tp1574
aV2015-10-14 00:32:46
p1575
tp1576
a(g484
VC(11,5)
p1577
(lp1578
(S'R.0'
p1579
F11.0
V11
p1580
V11
p1581
tp1582
aVtol003
p1583
(lp1584
(V$n
p1585
V44
p1586
tp1587
a(V$ns
p1588
V4
p1589
tp1590
a(V$nr
p1591
V11
p1592
tp1593
a(V$n
p1594
V44
p1595
tp1596
a(V$ns
p1597
V4
p1598
tp1599
a(V$nr
p1600
V11
p1601
tp1602
aV2015-10-14 01:06:57
p1603
tp1604
a(V10-3
p1605
V10 * 6
p1606
(lp1607
(S'R.0'
p1608
F10.0
V10
p1609
V10
p1610
tp1611
aVcsl030
p1612
(lp1613
(V$n
p1614
V60
p1615
tp1616
a(V$ns
p1617
V6
p1618
tp1619
a(V$nr
p1620
V10
p1621
tp1622
a(V$n
p1623
V60
p1624
tp1625
a(V$ns
p1626
V6
p1627
tp1628
a(V$nr
p1629
V10
p1630
tp1631
aV2015-10-14 03:12:31
p1632
tp1633
a(g527
V14*2
p1634
(lp1635
(S'R.0'
p1636
F14.0
V14
p1637
V14
p1638
tp1639
aVkrau
p1640
(lp1641
(V$n
p1642
V56
p1643
tp1644
a(V$ns
p1645
V4
p1646
tp1647
a(V$nr
p1648
V14
p1649
tp1650
a(V$n
p1651
V56
p1652
tp1653
a(V$ns
p1654
V4
p1655
tp1656
a(V$nr
p1657
V14
p1658
tp1659
aV2015-10-14 04:14:06
p1660
tp1661
a(g527
V4!/2!/2!+4+4+4
p1662
(lp1663
(S'R.0'
p1664
F14.0
V14
p1665
V4!/2!/2!+4+4
p1666
tp1667
aVkrau
p1668
g1641
V2015-10-14 04:21:00
p1669
tp1670
a(g549
VC(10,1) * (C(5,1))^4
p1671
(lp1672
(S'R.0'
p1673
F10.0
V10
p1674
VC(10,1)
p1675
tp1676
aVcagatep
p1677
(lp1678
(V$n
p1679
V50
p1680
tp1681
a(V$ns
p1682
V5
p1683
tp1684
a(V$nr
p1685
V10
p1686
tp1687
a(V$n
p1688
V50
p1689
tp1690
a(V$ns
p1691
V5
p1692
tp1693
a(V$nr
p1694
V10
p1695
tp1696
aV2015-10-14 05:21:51
p1697
tp1698
a(g549
VC(10,1)C(9,1)C(8,1)C(7,1)C(6,1)
p1699
(lp1700
(S'R.0'
p1701
F10.0
V10
p1702
VC(10,1)
p1703
tp1704
aVcagatep
p1705
g1678
V2015-10-14 05:23:17
p1706
tp1707
a(g546
V10*6
p1708
(lp1709
(S'R.0'
p1710
F10.0
V10
p1711
V10
p1712
tp1713
aVlahawkin
p1714
(lp1715
(V$n
p1716
V60
p1717
tp1718
a(V$ns
p1719
V6
p1720
tp1721
a(V$nr
p1722
V10
p1723
tp1724
a(V$n
p1725
V60
p1726
tp1727
a(V$ns
p1728
V6
p1729
tp1730
a(V$nr
p1731
V10
p1732
tp1733
aV2015-10-14 05:38:32
p1734
tp1735
a(g578
VC(14,1)C(6,1)^5
p1736
(lp1737
(S'R.0'
p1738
F14.0
V14
p1739
VC(14,1)
p1740
tp1741
aVtak068
p1742
(lp1743
(V$n
p1744
V84
p1745
tp1746
a(V$ns
p1747
V6
p1748
tp1749
a(V$nr
p1750
V14
p1751
tp1752
a(V$n
p1753
V84
p1754
tp1755
a(V$ns
p1756
V6
p1757
tp1758
a(V$nr
p1759
V14
p1760
tp1761
aV2015-10-14 07:39:23
p1762
tp1763
a(g578
V14*36
p1764
(lp1765
(S'R.0'
p1766
F14.0
V14
p1767
V14
p1768
tp1769
aVtak068
p1770
g1743
V2015-10-14 07:46:13
p1771
tp1772
a(g578
V14*6^5
p1773
(lp1774
(S'R.0'
p1775
F14.0
V14
p1776
V14
p1777
tp1778
aVtak068
p1779
g1743
V2015-10-14 07:46:22
p1780
tp1781
a(g578
VC(14,1)C(6,1)^5
p1782
(lp1783
(S'R.0'
p1784
F14.0
V14
p1785
VC(14,1)
p1786
tp1787
aVtak068
p1788
g1743
V2015-10-14 07:47:45
p1789
tp1790
a(g578
VC(14,1)C(6,1)
p1791
(lp1792
(S'R.0'
p1793
F14.0
V14
p1794
VC(14,1)
p1795
tp1796
aVtak068
p1797
g1743
V2015-10-14 07:47:56
p1798
tp1799
a(g578
VC(14,1)C(6,1)^5
p1800
(lp1801
(S'R.0'
p1802
F14.0
V14
p1803
VC(14,1)
p1804
tp1805
aVtak068
p1806
g1743
V2015-10-14 07:50:44
p1807
tp1808
a(g578
VC(14,1)*C(6,1)^5
p1809
(lp1810
(S'R.0'
p1811
F14.0
V14
p1812
VC(14,1)
p1813
tp1814
aVtak068
p1815
g1743
V2015-10-14 07:50:50
p1816
tp1817
a(g598
V11*5
p1818
(lp1819
(S'R.0'
p1820
F11.0
V11
p1821
V11
p1822
tp1823
aVsachadal
p1824
(lp1825
(V$n
p1826
V55
p1827
tp1828
a(V$ns
p1829
V5
p1830
tp1831
a(V$nr
p1832
V11
p1833
tp1834
a(V$n
p1835
V55
p1836
tp1837
a(V$ns
p1838
V5
p1839
tp1840
a(V$nr
p1841
V11
p1842
tp1843
aV2015-10-14 18:17:55
p1844
tp1845
a(g613
V15*5^4
p1846
(lp1847
(S'R.0'
p1848
F15.0
V15
p1849
V15
p1850
tp1851
aVjjchung
p1852
(lp1853
(V$n
p1854
V75
p1855
tp1856
a(V$ns
p1857
V5
p1858
tp1859
a(V$nr
p1860
V15
p1861
tp1862
a(V$n
p1863
V75
p1864
tp1865
a(V$ns
p1866
V5
p1867
tp1868
a(V$nr
p1869
V15
p1870
tp1871
aV2015-10-14 20:18:15
p1872
tp1873
a(g657
V15*2
p1874
(lp1875
(S'R.0'
p1876
F15.0
V15
p1877
V15
p1878
tp1879
aVmrchin
p1880
(lp1881
(V$n
p1882
V60
p1883
tp1884
a(V$ns
p1885
V4
p1886
tp1887
a(V$nr
p1888
V15
p1889
tp1890
a(V$n
p1891
V60
p1892
tp1893
a(V$ns
p1894
V4
p1895
tp1896
a(V$nr
p1897
V15
p1898
tp1899
aV2015-10-14 22:56:21
p1900
tp1901
a(V16-3
p1902
V16*5
p1903
(lp1904
(S'R.0'
p1905
F16.0
V16
p1906
V16
p1907
tp1908
aVabjara
p1909
(lp1910
(V$n
p1911
V64
p1912
tp1913
a(V$ns
p1914
V4
p1915
tp1916
a(V$nr
p1917
V16
p1918
tp1919
a(V$n
p1920
V64
p1921
tp1922
a(V$ns
p1923
V4
p1924
tp1925
a(V$nr
p1926
V16
p1927
tp1928
aV2015-10-14 22:58:21
p1929
tp1930
a(g1902
V16*4
p1931
(lp1932
(S'R.0'
p1933
F16.0
V16
p1934
V16
p1935
tp1936
aVabjara
p1937
g1910
V2015-10-14 22:58:31
p1938
tp1939
a(g670
V13-5
p1940
(lp1941
(S'R.0'
p1942
F13.0
V13
p1943
V13
p1944
tp1945
aVkalang
p1946
(lp1947
(V$n
p1948
V78
p1949
tp1950
a(V$ns
p1951
V6
p1952
tp1953
a(V$nr
p1954
V13
p1955
tp1956
a(V$n
p1957
V78
p1958
tp1959
a(V$ns
p1960
V6
p1961
tp1962
a(V$nr
p1963
V13
p1964
tp1965
aV2015-10-14 23:05:47
p1966
tp1967
a(V12-3
p1968
VC(12,5)
p1969
(lp1970
(S'R.0'
p1971
F12.0
V12
p1972
V12
p1973
tp1974
aVhpc001
p1975
(lp1976
(V$n
p1977
V72
p1978
tp1979
a(V$ns
p1980
V6
p1981
tp1982
a(V$nr
p1983
V12
p1984
tp1985
a(V$n
p1986
V72
p1987
tp1988
a(V$ns
p1989
V6
p1990
tp1991
a(V$nr
p1992
V12
p1993
tp1994
aV2015-10-14 23:09:51
p1995
tp1996
a(g686
VC(12,5)
p1997
(lp1998
(S'R.0'
p1999
F12.0
V12
p2000
V12
p2001
tp2002
aVmroknich
p2003
(lp2004
(V$n
p2005
V48
p2006
tp2007
a(V$ns
p2008
V4
p2009
tp2010
a(V$nr
p2011
V12
p2012
tp2013
a(V$n
p2014
V48
p2015
tp2016
a(V$ns
p2017
V4
p2018
tp2019
a(V$nr
p2020
V12
p2021
tp2022
aV2015-10-15 00:45:29
p2023
tp2024
a(g686
VP(12,5)
p2025
(lp2026
(S'R.0'
p2027
F12.0
V12
p2028
V12
p2029
tp2030
aVmroknich
p2031
g2004
V2015-10-15 00:45:44
p2032
tp2033
a(g719
VC(10,5)
p2034
(lp2035
(S'R.0'
p2036
F10.0
V10
p2037
V10
p2038
tp2039
aVjhw015
p2040
(lp2041
(V$n
p2042
V60
p2043
tp2044
a(V$ns
p2045
V6
p2046
tp2047
a(V$nr
p2048
V10
p2049
tp2050
a(V$n
p2051
V60
p2052
tp2053
a(V$ns
p2054
V6
p2055
tp2056
a(V$nr
p2057
V10
p2058
tp2059
aV2015-10-15 03:06:14
p2060
tp2061
a(g719
VC(10,6)
p2062
(lp2063
(S'R.0'
p2064
F10.0
V10
p2065
V10
p2066
tp2067
aVjhw015
p2068
g2041
V2015-10-15 03:09:39
p2069
tp2070
a(g737
VC(10,5)
p2071
(lp2072
(S'R.0'
p2073
F10.0
V10
p2074
V10
p2075
tp2076
aVk4ma
p2077
(lp2078
(V$n
p2079
V50
p2080
tp2081
a(V$ns
p2082
V5
p2083
tp2084
a(V$nr
p2085
V10
p2086
tp2087
a(V$n
p2088
V50
p2089
tp2090
a(V$ns
p2091
V5
p2092
tp2093
a(V$nr
p2094
V10
p2095
tp2096
aV2015-10-15 03:48:05
p2097
tp2098
a(V14-3
p2099
V14-4
p2100
(lp2101
(S'R.0'
p2102
F14.0
V14
p2103
V14
p2104
tp2105
aVseleon
p2106
(lp2107
(V$n
p2108
V56
p2109
tp2110
a(V$ns
p2111
V4
p2112
tp2113
a(V$nr
p2114
V14
p2115
tp2116
a(V$n
p2117
V56
p2118
tp2119
a(V$ns
p2120
V4
p2121
tp2122
a(V$nr
p2123
V14
p2124
tp2125
aV2015-10-15 06:29:00
p2126
tp2127
a(V13-3
p2128
VC(13,5)
p2129
(lp2130
(S'R.0'
p2131
F13.0
V13
p2132
V13
p2133
tp2134
aVmbl003
p2135
(lp2136
(V$n
p2137
V65
p2138
tp2139
a(V$ns
p2140
V5
p2141
tp2142
a(V$nr
p2143
V13
p2144
tp2145
a(V$n
p2146
V65
p2147
tp2148
a(V$ns
p2149
V5
p2150
tp2151
a(V$nr
p2152
V13
p2153
tp2154
aV2015-10-15 07:25:13
p2155
tp2156
a(V10-3
p2157
V10-4
p2158
(lp2159
(S'R.0'
p2160
F10.0
V10
p2161
V10
p2162
tp2163
aVagian
p2164
(lp2165
(V$n
p2166
V50
p2167
tp2168
a(V$ns
p2169
V5
p2170
tp2171
a(V$nr
p2172
V10
p2173
tp2174
a(V$n
p2175
V50
p2176
tp2177
a(V$ns
p2178
V5
p2179
tp2180
a(V$nr
p2181
V10
p2182
tp2183
aV2015-10-15 07:33:44
p2184
tp2185
a(g808
V11*5
p2186
(lp2187
(S'R.0'
p2188
F11.0
V11
p2189
V11
p2190
tp2191
aVj2phung
p2192
(lp2193
(V$n
p2194
V55
p2195
tp2196
a(V$ns
p2197
V5
p2198
tp2199
a(V$nr
p2200
V11
p2201
tp2202
a(V$n
p2203
V55
p2204
tp2205
a(V$ns
p2206
V5
p2207
tp2208
a(V$nr
p2209
V11
p2210
tp2211
aV2015-10-15 08:47:53
p2212
tp2213
a(g823
VC(13, 5)
p2214
(lp2215
(S'R.0'
p2216
F13.0
V13
p2217
V13
p2218
tp2219
aVp4kumar
p2220
(lp2221
(V$n
p2222
V65
p2223
tp2224
a(V$ns
p2225
V5
p2226
tp2227
a(V$nr
p2228
V13
p2229
tp2230
a(V$n
p2231
V65
p2232
tp2233
a(V$ns
p2234
V5
p2235
tp2236
a(V$nr
p2237
V13
p2238
tp2239
aV2015-10-15 09:28:56
p2240
tp2241
a(g843
V16*C(4,1)^5
p2242
(lp2243
(S'R.0'
p2244
F16.0
V16
p2245
V16
p2246
tp2247
aVdis003
p2248
(lp2249
(V$n
p2250
V64
p2251
tp2252
a(V$ns
p2253
V4
p2254
tp2255
a(V$nr
p2256
V16
p2257
tp2258
a(V$n
p2259
V64
p2260
tp2261
a(V$ns
p2262
V4
p2263
tp2264
a(V$nr
p2265
V16
p2266
tp2267
aV2015-10-15 11:54:05
p2268
tp2269
a(V10-3
p2270
VC(10,5)
p2271
(lp2272
(S'R.0'
p2273
F10.0
V10
p2274
V10
p2275
tp2276
aVjag028
p2277
(lp2278
(V$n
p2279
V40
p2280
tp2281
a(V$ns
p2282
V4
p2283
tp2284
a(V$nr
p2285
V10
p2286
tp2287
a(V$n
p2288
V40
p2289
tp2290
a(V$ns
p2291
V4
p2292
tp2293
a(V$nr
p2294
V10
p2295
tp2296
aV2015-10-15 14:33:16
p2297
tp2298
a(g2270
VC(10,4)
p2299
(lp2300
(S'R.0'
p2301
F10.0
V10
p2302
V10
p2303
tp2304
aVjag028
p2305
g2278
V2015-10-15 14:36:41
p2306
tp2307
a(g864
VC(12, 5)
p2308
(lp2309
(S'R.0'
p2310
F12.0
V12
p2311
V12
p2312
tp2313
aVazkong
p2314
(lp2315
(V$n
p2316
V72
p2317
tp2318
a(V$ns
p2319
V6
p2320
tp2321
a(V$nr
p2322
V12
p2323
tp2324
a(V$n
p2325
V72
p2326
tp2327
a(V$ns
p2328
V6
p2329
tp2330
a(V$nr
p2331
V12
p2332
tp2333
aV2015-10-15 18:00:32
p2334
tp2335
a(g879
V16*4
p2336
(lp2337
(S'R.0'
p2338
F16.0
V16
p2339
V16
p2340
tp2341
aVjmiclat
p2342
(lp2343
(V$n
p2344
V64
p2345
tp2346
a(V$ns
p2347
V4
p2348
tp2349
a(V$nr
p2350
V16
p2351
tp2352
a(V$n
p2353
V64
p2354
tp2355
a(V$ns
p2356
V4
p2357
tp2358
a(V$nr
p2359
V16
p2360
tp2361
aV2015-10-15 18:52:50
p2362
tp2363
a(g796
VC(13, 5)
p2364
(lp2365
(S'R.0'
p2366
F13.0
V13
p2367
V13
p2368
tp2369
aVv4zhang
p2370
(lp2371
(V$n
p2372
V52
p2373
tp2374
a(V$ns
p2375
V4
p2376
tp2377
a(V$nr
p2378
V13
p2379
tp2380
a(V$n
p2381
V52
p2382
tp2383
a(V$ns
p2384
V4
p2385
tp2386
a(V$nr
p2387
V13
p2388
tp2389
aV2015-10-15 19:59:44
p2390
tp2391
a(g796
VP(13, 5)
p2392
(lp2393
(S'R.0'
p2394
F13.0
V13
p2395
V13
p2396
tp2397
aVv4zhang
p2398
g2371
V2015-10-15 20:02:00
p2399
tp2400
a(g906
V12!
p2401
(lp2402
(S'R.0'
p2403
F12.0
V12
p2404
V12
p2405
tp2406
aVkew017
p2407
(lp2408
(V$n
p2409
V60
p2410
tp2411
a(V$ns
p2412
V5
p2413
tp2414
a(V$nr
p2415
V12
p2416
tp2417
a(V$n
p2418
V60
p2419
tp2420
a(V$ns
p2421
V5
p2422
tp2423
a(V$nr
p2424
V12
p2425
tp2426
aV2015-10-15 20:51:34
p2427
tp2428
a(g1007
VC(11,5)
p2429
(lp2430
(S'R.0'
p2431
F11.0
V11
p2432
V11
p2433
tp2434
aVdtea
p2435
(lp2436
(V$n
p2437
V55
p2438
tp2439
a(V$ns
p2440
V5
p2441
tp2442
a(V$nr
p2443
V11
p2444
tp2445
a(V$n
p2446
V55
p2447
tp2448
a(V$ns
p2449
V5
p2450
tp2451
a(V$nr
p2452
V11
p2453
tp2454
aV2015-10-15 23:43:32
p2455
tp2456
asS"['R.1']"
p2457
(lp2458
(g527
V4*3
p2459
(lp2460
(S'R.1'
p2461
F3.0
V3
p2462
g2462
tp2463
aVkrau
p2464
g1641
V2015-10-14 04:15:11
p2465
tp2466
a(V12-3
p2467
V5-3
p2468
(lp2469
(S'R.1'
p2470
F3.0
g2462
g2462
tp2471
aVvsosnovs
p2472
(lp2473
(V$n
p2474
V72
p2475
tp2476
a(V$ns
p2477
V6
p2478
tp2479
a(V$nr
p2480
V12
p2481
tp2482
a(V$n
p2483
V72
p2484
tp2485
a(V$ns
p2486
V6
p2487
tp2488
a(V$nr
p2489
V12
p2490
tp2491
aV2015-10-15 05:11:42
p2492
tp2493
asS'Wrong_Sign'
p2494
(lp2495
(g182
V0 * 45 - 4 - 36
p2496
tp2497
a(V16-3
p2498
V16!/(5!(16-5!))
p2499
tp2500
asS'Fraction'
p2501
(lp2502
(g304
V0.39
p2503
tp2504
a(g1434
V(9*4^5 - 36)/C(52,5)
p2505
tp2506
a(g1434
V(9*4^5 - 36)/C(48,5)
p2507
tp2508
a(V15-3
p2509
V5!/90!
p2510
tp2511
a(g2509
V1/6
p2512
tp2513
assV3
p2514
g2
(g3
tp2515
Rp2516
g6
(lp2517
(V(15-3)*(5^5-5)
p2518
V31210
p2519
tp2520
a(V(10-3)*(4^5-4)
p2521
V10
p2522
tp2523
a(V(16-3)*(5^5-5)
p2524
V40625
p2525
tp2526
a(V(11-3)*(4^5-4)
p2527
V10200
p2528
tp2529
a(V(12-3)*(5^5-5)
p2530
V36
p2531
tp2532
a(g2530
V60
p2533
tp2534
a(g2530
V40
p2535
tp2536
a(g2530
V45
p2537
tp2538
a(g2530
V60
p2539
tp2540
a(g2530
V55
p2541
tp2542
a(g2530
V50
p2543
tp2544
a(g2530
V45
p2545
tp2546
a(g2530
V40
p2547
tp2548
a(g2530
V35
p2549
tp2550
a(g2530
V8
p2551
tp2552
a(g2530
V9
p2553
tp2554
a(g2530
V10
p2555
tp2556
a(g2530
V7
p2557
tp2558
a(g2530
V40
p2559
tp2560
a(g2530
V60
p2561
tp2562
a(V(14-3)*(4^5-4)
p2563
V10200
p2564
tp2565
a(V(13-3)*(4^5-4)
p2566
V10230
p2567
tp2568
a(V(15-3)*(6^5-6)
p2569
V66
p2570
tp2571
a(V(11-3)*(4^5-4)
p2572
V8
p2573
tp2574
a(g2572
V32
p2575
tp2576
a(g2572
V10200
p2577
tp2578
a(V(16-3)*(6^5-6)
p2579
V77760
p2580
tp2581
a(V(14-3)*(6^5-6)
p2582
V66
p2583
tp2584
a(V(11-3)*(6^5-6)
p2585
V3060
p2586
tp2587
a(V(16-3)*(6^5-6)
p2588
V51840
p2589
tp2590
a(V(14-3)*(4^5-4)
p2591
V1020
p2592
tp2593
a(g2591
V1024
p2594
tp2595
a(V(13-3)*(4^5-4)
p2596
V10,200
p2597
tp2598
a(V(14-3)*(4^5-4)
p2599
V3520
p2600
tp2601
a(V(11-3)*(4^5-4)
p2602
V5
p2603
tp2604
a(V(11-3)*(4^5-4)
p2605
V24960
p2606
tp2607
asS"['R.0.0']"
p2608
(lp2609
(V(14-3)*(6^5-6)
p2610
VC(14,1) * (C(6,1)^4) * C(5,1)
p2611
(lp2612
(S'R.0.0'
p2613
F14.0
V14
p2614
VC(14,1)
p2615
tp2616
aVdruble
p2617
(lp2618
(V$n
p2619
V84
p2620
tp2621
a(V$ns
p2622
V6
p2623
tp2624
a(V$nr
p2625
V14
p2626
tp2627
aV2015-10-13 01:57:07
p2628
tp2629
a(V(12-3)*(4^5-4)
p2630
VC(12,5)*C(5,4)
p2631
(lp2632
(S'R.0.0'
p2633
F12.0
V12
p2634
V12
p2635
tp2636
aVs2chaudh
p2637
g1442
V2015-10-13 05:20:36
p2638
tp2639
a(V(13-3)*(5^5-5)
p2640
V13*4*3
p2641
(lp2642
(S'R.0.0'
p2643
F13.0
V13
p2644
V13
p2645
tp2646
aVedcole
p2647
(lp2648
(V$n
p2649
V65
p2650
tp2651
a(V$ns
p2652
V5
p2653
tp2654
a(V$nr
p2655
V13
p2656
tp2657
a(V$n
p2658
V65
p2659
tp2660
a(V$ns
p2661
V5
p2662
tp2663
a(V$nr
p2664
V13
p2665
tp2666
aV2015-10-14 02:15:08
p2667
tp2668
a(V(13-3)*(4^5-4)
p2669
V13*C(4, 4)*C(4, 3)*C(4, 2)
p2670
(lp2671
(S'R.0.0'
p2672
F13.0
V13
p2673
V13*C(4, 4)
p2674
tp2675
aVv4zhang
p2676
g2371
V2015-10-15 07:49:02
p2677
tp2678
a(g2669
VC(13, 5)*[C(4, 4)+C(4, 3)+C(4, 2)]
p2679
(lp2680
(S'R.0.0'
p2681
F13.0
V13
p2682
V13
p2683
tp2684
aVv4zhang
p2685
g2371
V2015-10-15 19:59:44
p2686
tp2687
a(V(10-3)*(4^5-4)
p2688
V10!/(7!4!)
p2689
(lp2690
(S'R.0.0'
p2691
F10.0
V10
p2692
V10
p2693
tp2694
aVaurodrig
p2695
(lp2696
(V$n
p2697
V40
p2698
tp2699
a(V$ns
p2700
V4
p2701
tp2702
a(V$nr
p2703
V10
p2704
tp2705
a(V$n
p2706
V40
p2707
tp2708
a(V$ns
p2709
V4
p2710
tp2711
a(V$nr
p2712
V10
p2713
tp2714
aV2015-10-15 22:51:00
p2715
tp2716
asS"['R.1.0']"
p2717
(lp2718
(V(10-3)*(4^5-4)
p2719
V6*((4^5)-1)
p2720
(lp2721
(S'R.1.0'
p2722
F1024.0
V4^5
p2723
V4^5
p2724
tp2725
aVachinn
p2726
g1376
V2015-10-13 00:07:30
p2727
tp2728
a(V(16-3)*(5^5-5)
p2729
V12(5^5-1)
p2730
(lp2731
(S'R.1.0'
p2732
F3125.0
V5^5
p2733
V5^5
p2734
tp2735
aVyil035
p2736
(lp2737
(V$n
p2738
V80
p2739
tp2740
a(V$ns
p2741
V5
p2742
tp2743
a(V$nr
p2744
V16
p2745
tp2746
a(V$n
p2747
V80
p2748
tp2749
a(V$ns
p2750
V5
p2751
tp2752
a(V$nr
p2753
V16
p2754
tp2755
aV2015-10-14 03:10:16
p2756
tp2757
a(V(11-3)*(5^5-5)
p2758
V(11!/(5!6!))*(5^5-1)
p2759
(lp2760
(S'R.1.0'
p2761
F3125.0
V5^5
p2762
V5^5
p2763
tp2764
aVw4shin
p2765
(lp2766
(V$n
p2767
V55
p2768
tp2769
a(V$ns
p2770
V5
p2771
tp2772
a(V$nr
p2773
V11
p2774
tp2775
a(V$n
p2776
V55
p2777
tp2778
a(V$ns
p2779
V5
p2780
tp2781
a(V$nr
p2782
V11
p2783
tp2784
aV2015-10-15 00:02:17
p2785
tp2786
asS'redirect'
p2787
(lp2788
(V(12-3)*(5^5-5)
p2789
V11*5^4
p2790
tp2791
a(V(13-3)*(5^5-5)
p2792
V10*(4**5)-40
p2793
tp2794
a(V(14-3)*(4^5-4)
p2795
V10*4^5
p2796
tp2797
a(V(13-3)*(4^5-4)
p2798
V10*4*4*4*4*3
p2799
tp2800
a(V(13-3)*(5^5-5)
p2801
V3120*8
p2802
tp2803
a(g2801
V3120*9
p2804
tp2805
a(V(12-3)*(6^5-6)
p2806
V(6^5-6)*10
p2807
tp2808
a(g2806
V(6^5-6)*11
p2809
tp2810
a(V(15-3)*(6^5-6)
p2811
VC(12,1)*C(6,1)*5^4
p2812
tp2813
a(g2811
VC(12,1)*C(6,1)*5^4*5
p2814
tp2815
a(V(10-3)*(5^5-5)
p2816
VC(50,5) - 35
p2817
tp2818
a(g2521
V4^5 - 4 * 10
p2819
tp2820
a(V(11-3)*(5^5-5)
p2821
V(7!/(1! * 6!)) * (5!/(1! * 4!))^5
p2822
tp2823
a(V(11-3)*(4^5-4)
p2824
V(4^5-1)*8
p2825
tp2826
a(g2824
V(5^4-1)*8
p2827
tp2828
a(g2824
V(5^4-4)*8
p2829
tp2830
a(V(10-3)*(4^5-4)
p2831
V4^5-(7*4)
p2832
tp2833
a(V(13-3)*(6^5-6)
p2834
V10*6*6*6*6*5
p2835
tp2836
a(V(12-3)*(4^5-4)
p2837
V4^4*3
p2838
tp2839
a(g2837
V9*[4^4]*3
p2840
tp2841
a(V(13-3)*(5^5-5)
p2842
V[(5^5)-5]*[15-4]
p2843
tp2844
a(g2842
V[(5^5)-5]*[13]
p2845
tp2846
a(g2842
V[(5^5)-5]*[12]
p2847
tp2848
a(g2842
V[(5^5)-5]*[C(15,5)]
p2849
tp2850
a(g2842
V[(5^5)-5]*[11]
p2851
tp2852
a(V(16-3)*(4^5-4)
p2853
V(4^5-4)*10
p2854
tp2855
a(g2853
V(4^5-4)*12
p2856
tp2857
a(g2853
V(4^5-4)*9
p2858
tp2859
a(g2853
V(4^5-4)*7
p2860
tp2861
a(g2610
V14 * C(5,1)^5
p2862
tp2863
a(V(16-3)*(5^5-5)
p2864
V(5*16)!/(75!5!)
p2865
tp2866
a(V(11-3)*(5^5-5)
p2867
V7 * (5^5) - 5
p2868
tp2869
a(g2867
V8 * (5^5) - 5
p2870
tp2871
a(V(15-3)*(5^5-5)
p2872
V5^5 * 12 - 12
p2873
tp2874
a(V(12-3)*(5^5-5)
p2875
V12*C(5,4)
p2876
tp2877
a(g2875
V13*5^5-5
p2878
tp2879
a(V(16-3)*(5^5-5)
p2880
VC(5,4)*5
p2881
tp2882
a(V(16-3)*(4^5-4)
p2883
V11*4^5
p2884
tp2885
a(g2883
V(C(4,1))^5
p2886
tp2887
a(V(12-3)*(4^5-4)
p2888
V4**5-4
p2889
tp2890
a(g2888
V4**5-3
p2891
tp2892
a(V(14-3)*(6^5-6)
p2893
V12*5*5*5*5*4
p2894
tp2895
a(g2893
V12*6*6*6*6*5
p2896
tp2897
a(g2893
V11*6*6*6*6*5
p2898
tp2899
a(V(14-3)*(6^5-6)
p2900
VC(14,1)C(6,1)^5
p2901
tp2902
a(g2900
VC(11,1)*C(6,1)^5-C(11,1)C(6,1)^5
p2903
tp2904
a(V(12-3)*(5^5-5)
p2905
V5^5 - 50
p2906
tp2907
a(g2905
V5^5 - (5*9)
p2908
tp2909
a(g2905
V5^5
p2910
tp2911
a(g2905
V5^5 - 60
p2912
tp2913
a(g2905
V5^5 - 75
p2914
tp2915
a(g2905
V5^5 - 55
p2916
tp2917
a(g2605
V11*4^(5)
p2918
tp2919
a(V(15-3)*(5^5-5)
p2920
V12*5*5*5*5*4
p2921
tp2922
a(V(16-3)*(5^5-5)
p2923
V12*5!
p2924
tp2925
a(V(15-3)*(4^5-4)
p2926
V((C(4,2))^2)*5
p2927
tp2928
a(g2926
V(4^5)12
p2929
tp2930
a(V(15-3)*(4^5-4)
p2931
V10*(6^6-4)
p2932
tp2933
a(g2931
V10*(6^6-6)
p2934
tp2935
a(V(12-3)*(4^5-4)
p2936
V(4^5-4)*8
p2937
tp2938
a(V(11-3)*(4^5-4)
p2939
V10(5^4 - 4 )
p2940
tp2941
a(g2582
V6!*11
p2942
tp2943
a(g2582
V30*11
p2944
tp2945
a(V(15-3)*(4^5-4)
p2946
V4!
p2947
tp2948
a(V(14-3)*(5^5-5)
p2949
V11*5*5*5*5*4
p2950
tp2951
a(V(12-3)*(4^5-4)
p2952
V9*4^5-1
p2953
tp2954
a(V(10-3)*(6^5-6)
p2955
V6^5*5
p2956
tp2957
a(g2955
V6*5*4*3*2*10
p2958
tp2959
a(V(15-3)*(4^5-4)
p2960
V11 * 4^5 - 4
p2961
tp2962
a(V(10-3)*(6^5-6)
p2963
V6 * 6 * 6 * 6 * 5 * 6
p2964
tp2965
a(V(11-3)*(6^5-6)
p2966
V6*5
p2967
tp2968
a(g2966
V7*5
p2969
tp2970
asS"['R.1']"
p2971
(lp2972
(g2789
V10*(5^5-5)
p2973
(lp2974
(S'R.1'
p2975
F3120.0
V5^5-5
p2976
V5^5-5
p2977
tp2978
aVtdurrer
p2979
(lp2980
(V$n
p2981
V60
p2982
tp2983
a(V$ns
p2984
V5
p2985
tp2986
a(V$nr
p2987
V12
p2988
tp2989
a(V$n
p2990
V60
p2991
tp2992
a(V$ns
p2993
V5
p2994
tp2995
a(V$nr
p2996
V12
p2997
tp2998
aV2015-10-09 04:51:55
p2999
tp3000
a(g2789
V8*(5^5-5)
p3001
(lp3002
(S'R.1'
p3003
F3120.0
V5^5-5
p3004
V5^5-5
p3005
tp3006
aVtdurrer
p3007
g2980
V2015-10-09 04:53:09
p3008
tp3009
a(g2795
V10*(4^5-4)
p3010
(lp3011
(S'R.1'
p3012
F1020.0
V4^5-4
p3013
V4^5-4
p3014
tp3015
aVhabuamar
p3016
(lp3017
(V$n
p3018
V56
p3019
tp3020
a(V$ns
p3021
V4
p3022
tp3023
a(V$nr
p3024
V14
p3025
tp3026
a(V$n
p3027
V56
p3028
tp3029
a(V$ns
p3030
V4
p3031
tp3032
a(V$nr
p3033
V14
p3034
tp3035
aV2015-10-09 06:11:56
p3036
tp3037
a(V(11-3)*(6^5-6)
p3038
V7*(6^5-6)
p3039
(lp3040
(S'R.1'
p3041
F7770.0
V6^5-6
p3042
V6^5-6
p3043
tp3044
aVm8woo
p3045
g1079
V2015-10-10 01:32:08
p3046
tp3047
a(V(11-3)*(4^5-4)
p3048
V7(4^5-4)
p3049
(lp3050
(S'R.1'
p3051
F1020.0
V4^5-4
p3052
V4^5-4
p3053
tp3054
aVvsamant
p3055
g1144
V2015-10-10 17:20:06
p3056
tp3057
a(V(16-3)*(4^5-4)
p3058
V12 * (4^5 - 4)
p3059
(lp3060
(S'R.1'
p3061
F1020.0
V4^5-4
p3062
V4^5 - 4
p3063
tp3064
aVsyip
p3065
(lp3066
(V$n
p3067
V64
p3068
tp3069
a(V$ns
p3070
V4
p3071
tp3072
a(V$nr
p3073
V16
p3074
tp3075
a(V$n
p3076
V64
p3077
tp3078
a(V$ns
p3079
V4
p3080
tp3081
a(V$nr
p3082
V16
p3083
tp3084
aV2015-10-11 23:55:53
p3085
tp3086
a(V(11-3)*(6^5-6)
p3087
V7(6^5-6)
p3088
(lp3089
(S'R.1'
p3090
F7770.0
V6^5-6
p3091
V6^5-6
p3092
tp3093
aVskarimik
p3094
(lp3095
(V$n
p3096
V66
p3097
tp3098
a(V$ns
p3099
V6
p3100
tp3101
a(V$nr
p3102
V11
p3103
tp3104
a(V$n
p3105
V66
p3106
tp3107
a(V$ns
p3108
V6
p3109
tp3110
a(V$nr
p3111
V11
p3112
tp3113
aV2015-10-12 00:35:49
p3114
tp3115
a(V(14-3)*(5^5-5)
p3116
V14 * (5^5-5)
p3117
(lp3118
(S'R.1'
p3119
F3120.0
V5^5-5
p3120
V5^5-5
p3121
tp3122
aVacvuong
p3123
(lp3124
(V$n
p3125
V70
p3126
tp3127
a(V$ns
p3128
V5
p3129
tp3130
a(V$nr
p3131
V14
p3132
tp3133
a(V$n
p3134
V70
p3135
tp3136
a(V$ns
p3137
V5
p3138
tp3139
a(V$nr
p3140
V14
p3141
tp3142
aV2015-10-13 04:58:34
p3143
tp3144
a(V(11-3)*(6^5-6)
p3145
V7*(6^5-6)
p3146
(lp3147
(S'R.1'
p3148
F7770.0
V6^5-6
p3149
V6^5-6
p3150
tp3151
aVlcardoso
p3152
g1528
V2015-10-13 21:23:30
p3153
tp3154
a(g3145
V11*(6^5-6)
p3155
(lp3156
(S'R.1'
p3157
F7770.0
V6^5-6
p3158
V6^5-6
p3159
tp3160
aVlcardoso
p3161
g1528
V2015-10-13 21:25:26
p3162
tp3163
a(g3145
V7*(6^5-6)
p3164
(lp3165
(S'R.1'
p3166
F7770.0
V6^5-6
p3167
V6^5-6
p3168
tp3169
aVlcardoso
p3170
g1528
V2015-10-13 21:36:37
p3171
tp3172
a(V(10-3)*(5^5-5)
p3173
V10 * (5^5 - 5)
p3174
(lp3175
(S'R.1'
p3176
F3120.0
V5^5-5
p3177
V5^5 - 5
p3178
tp3179
aVahh002
p3180
(lp3181
(V$n
p3182
V50
p3183
tp3184
a(V$ns
p3185
V5
p3186
tp3187
a(V$nr
p3188
V10
p3189
tp3190
aV2015-10-14 03:43:29
p3191
tp3192
a(g3173
V6 * (5^5 - 5)
p3193
(lp3194
(S'R.1'
p3195
F3120.0
V5^5-5
p3196
V5^5 - 5
p3197
tp3198
aVahh002
p3199
g3181
V2015-10-14 03:44:25
p3200
tp3201
a(g3173
V5 * (5^5 - 5)
p3202
(lp3203
(S'R.1'
p3204
F3120.0
V5^5-5
p3205
V5^5 - 5
p3206
tp3207
aVahh002
p3208
g3181
V2015-10-14 03:44:41
p3209
tp3210
a(g3173
V9 * (5^5 - 5)
p3211
(lp3212
(S'R.1'
p3213
F3120.0
V5^5-5
p3214
V5^5 - 5
p3215
tp3216
aVahh002
p3217
g3181
V2015-10-14 03:46:02
p3218
tp3219
a(V(13-3)*(5^5-5)
p3220
V11*(5^5 - 5)
p3221
(lp3222
(S'R.1'
p3223
F3120.0
V5^5-5
p3224
V5^5 - 5
p3225
tp3226
aVlpettit
p3227
(lp3228
(V$n
p3229
V65
p3230
tp3231
a(V$ns
p3232
V5
p3233
tp3234
a(V$nr
p3235
V13
p3236
tp3237
a(V$n
p3238
V65
p3239
tp3240
a(V$ns
p3241
V5
p3242
tp3243
a(V$nr
p3244
V13
p3245
tp3246
aV2015-10-14 21:00:00
p3247
tp3248
a(g3220
V12*(5^5 - 5)
p3249
(lp3250
(S'R.1'
p3251
F3120.0
V5^5-5
p3252
V5^5 - 5
p3253
tp3254
aVlpettit
p3255
g3228
V2015-10-14 21:02:38
p3256
tp3257
a(g2758
V(10)*(5^5-5)
p3258
(lp3259
(S'R.1'
p3260
F3120.0
V5^5-5
p3261
V5^5-5
p3262
tp3263
aVw4shin
p3264
g2766
V2015-10-15 00:07:38
p3265
tp3266
a(g2758
V(12)*(5^5-5)
p3267
(lp3268
(S'R.1'
p3269
F3120.0
V5^5-5
p3270
V5^5-5
p3271
tp3272
aVw4shin
p3273
g2766
V2015-10-15 00:08:25
p3274
tp3275
a(g2758
V7*(5^5-5)
p3276
(lp3277
(S'R.1'
p3278
F3120.0
V5^5-5
p3279
V5^5-5
p3280
tp3281
aVw4shin
p3282
g2766
V2015-10-15 00:12:58
p3283
tp3284
a(g2758
V6*(5^5-5)
p3285
(lp3286
(S'R.1'
p3287
F3120.0
V5^5-5
p3288
V5^5-5
p3289
tp3290
aVw4shin
p3291
g2766
V2015-10-15 00:13:30
p3292
tp3293
a(V(12-3)*(6^5-6)
p3294
V12* (6^5 - 6)
p3295
(lp3296
(S'R.1'
p3297
F7770.0
V6^5-6
p3298
V6^5 - 6
p3299
tp3300
aVvsosnovs
p3301
g2473
V2015-10-15 05:14:29
p3302
tp3303
a(V(16-3)*(6^5-6)
p3304
V(12)*((6^5) - (6))
p3305
(lp3306
(S'R.1'
p3307
F7770.0
V6^5-6
p3308
V(6^5) - (6)
p3309
tp3310
aVanl114
p3311
(lp3312
(V$n
p3313
V96
p3314
tp3315
a(V$ns
p3316
V6
p3317
tp3318
a(V$nr
p3319
V16
p3320
tp3321
a(V$n
p3322
V96
p3323
tp3324
a(V$ns
p3325
V6
p3326
tp3327
a(V$nr
p3328
V16
p3329
tp3330
aV2015-10-15 08:35:48
p3331
tp3332
a(V(11-3)*(4^5-4)
p3333
V10*[4^5-4]
p3334
(lp3335
(S'R.1'
p3336
F1020.0
V4^5-4
p3337
V4^5-4
p3338
tp3339
aVjmmcalex
p3340
(lp3341
(V$n
p3342
V44
p3343
tp3344
a(V$ns
p3345
V4
p3346
tp3347
a(V$nr
p3348
V11
p3349
tp3350
a(V$n
p3351
V44
p3352
tp3353
a(V$ns
p3354
V4
p3355
tp3356
a(V$nr
p3357
V11
p3358
tp3359
aV2015-10-15 09:38:09
p3360
tp3361
a(V(14-3)*(5^5-5)
p3362
V(10)*(5^5-5)
p3363
(lp3364
(S'R.1'
p3365
F3120.0
V5^5-5
p3366
V5^5-5
p3367
tp3368
aValhung
p3369
(lp3370
(V$n
p3371
V70
p3372
tp3373
a(V$ns
p3374
V5
p3375
tp3376
a(V$nr
p3377
V14
p3378
tp3379
a(V$n
p3380
V70
p3381
tp3382
a(V$ns
p3383
V5
p3384
tp3385
a(V$nr
p3386
V14
p3387
tp3388
aV2015-10-15 20:15:46
p3389
tp3390
asS"['R.1.0.1']"
p3391
(lp3392
(V(12-3)*(6^5-6)
p3393
V10(4^5-4)
p3394
(lp3395
(S'R.1.0.1'
p3396
F5.0
V5
p3397
g3397
tp3398
aVhaw081
p3399
(lp3400
(V$n
p3401
V72
p3402
tp3403
a(V$ns
p3404
V6
p3405
tp3406
a(V$nr
p3407
V12
p3408
tp3409
a(V$n
p3410
V72
p3411
tp3412
a(V$ns
p3413
V6
p3414
tp3415
a(V$nr
p3416
V12
p3417
tp3418
aV2015-10-11 00:45:27
p3419
tp3420
a(g2931
V(4*(C(15,5) -10))
p3421
(lp3422
(S'R.1.0.1'
p3423
F5.0
g3397
g3397
tp3424
aVstarinia
p3425
(lp3426
(V$n
p3427
V60
p3428
tp3429
a(V$ns
p3430
V4
p3431
tp3432
a(V$nr
p3433
V15
p3434
tp3435
a(V$n
p3436
V60
p3437
tp3438
a(V$ns
p3439
V4
p3440
tp3441
a(V$nr
p3442
V15
p3443
tp3444
aV2015-10-15 03:09:14
p3445
tp3446
a(V(13-3)*(5^5-5)
p3447
V9*(4^5 - 4)
p3448
(lp3449
(S'R.1.0.1'
p3450
F5.0
g3397
g3397
tp3451
aVpnquach
p3452
(lp3453
(V$n
p3454
V65
p3455
tp3456
a(V$ns
p3457
V5
p3458
tp3459
a(V$nr
p3460
V13
p3461
tp3462
a(V$n
p3463
V65
p3464
tp3465
a(V$ns
p3466
V5
p3467
tp3468
a(V$nr
p3469
V13
p3470
tp3471
aV2015-10-15 03:26:08
p3472
tp3473
a(V(14-3)*(6^5-6)
p3474
V10*(4^5-1)
p3475
(lp3476
(S'R.1.0.1'
p3477
F5.0
g3397
g3397
tp3478
aVc4du
p3479
(lp3480
(V$n
p3481
V84
p3482
tp3483
a(V$ns
p3484
V6
p3485
tp3486
a(V$nr
p3487
V14
p3488
tp3489
a(V$n
p3490
V84
p3491
tp3492
a(V$ns
p3493
V6
p3494
tp3495
a(V$nr
p3496
V14
p3497
tp3498
aV2015-10-15 08:02:08
p3499
tp3500
asS"['R.0.0', 'R.1']"
p3501
(lp3502
(g3145
VC(11,5)*(6^5-6)
p3503
(lp3504
(S'R.0.0'
p3505
F11.0
V11
p3506
V11
p3507
tp3508
a(S'R.1'
p3509
F7770.0
V6^5-6
p3510
V6^5-6
p3511
tp3512
aVlcardoso
p3513
g1528
V2015-10-13 21:27:43
p3514
tp3515
asS"['R.0']"
p3516
(lp3517
(V(16-3)*(5^5-5)
p3518
V13*5
p3519
(lp3520
(S'R.0'
p3521
F13.0
V16-3
p3522
V13
p3523
tp3524
aVj5phung
p3525
g1023
V2015-10-09 19:02:51
p3526
tp3527
a(g2816
V7*3150
p3528
(lp3529
(S'R.0'
p3530
F7.0
V10-3
p3531
V7
p3532
tp3533
aVaakumar
p3534
g1200
V2015-10-11 04:47:34
p3535
tp3536
a(V(13-3)*(4^5-4)
p3537
V10((5^4)-5)
p3538
(lp3539
(S'R.0'
p3540
F10.0
V13-3
p3541
V10
p3542
tp3543
aVabasu
p3544
(lp3545
(V$n
p3546
V52
p3547
tp3548
a(V$ns
p3549
V4
p3550
tp3551
a(V$nr
p3552
V13
p3553
tp3554
a(V$n
p3555
V52
p3556
tp3557
a(V$ns
p3558
V4
p3559
tp3560
a(V$nr
p3561
V13
p3562
tp3563
aV2015-10-11 04:48:15
p3564
tp3565
a(g3537
V10((5^4)-4)
p3566
(lp3567
(S'R.0'
p3568
F10.0
V13-3
p3569
V10
p3570
tp3571
aVabasu
p3572
g3545
V2015-10-11 04:48:29
p3573
tp3574
a(g2821
V(8!/(1! * 7!)) * (5!/(1! * 4!))^5
p3575
(lp3576
(S'R.0'
p3577
F8.0
V11-3
p3578
V8!/(1! * 7!)
p3579
tp3580
aVgthorn
p3581
(lp3582
(V$n
p3583
V55
p3584
tp3585
a(V$ns
p3586
V5
p3587
tp3588
a(V$nr
p3589
V11
p3590
tp3591
a(V$n
p3592
V55
p3593
tp3594
a(V$ns
p3595
V5
p3596
tp3597
a(V$nr
p3598
V11
p3599
tp3600
aV2015-10-11 04:53:36
p3601
tp3602
a(V(15-3)*(4^5-4)
p3603
V12(4^4)
p3604
(lp3605
(S'R.0'
p3606
F12.0
V15-3
p3607
V12
p3608
tp3609
aVvolim
p3610
(lp3611
(V$n
p3612
V60
p3613
tp3614
a(V$ns
p3615
V4
p3616
tp3617
a(V$nr
p3618
V15
p3619
tp3620
a(V$n
p3621
V60
p3622
tp3623
a(V$ns
p3624
V4
p3625
tp3626
a(V$nr
p3627
V15
p3628
tp3629
aV2015-10-12 22:55:04
p3630
tp3631
a(V(16-3)*(4^5-4)
p3632
V13*4^5
p3633
(lp3634
(S'R.0'
p3635
F13.0
V16-3
p3636
V13
p3637
tp3638
aVwhcombs
p3639
(lp3640
(V$n
p3641
V64
p3642
tp3643
a(V$ns
p3644
V4
p3645
tp3646
a(V$nr
p3647
V16
p3648
tp3649
a(V$n
p3650
V64
p3651
tp3652
a(V$ns
p3653
V4
p3654
tp3655
a(V$nr
p3656
V16
p3657
tp3658
aV2015-10-13 04:22:18
p3659
tp3660
a(V(13-3)*(4^5-4)
p3661
V(10*4^5)
p3662
(lp3663
(S'R.0'
p3664
F10.0
V13-3
p3665
V10
p3666
tp3667
aVapokhare
p3668
(lp3669
(V$n
p3670
V52
p3671
tp3672
a(V$ns
p3673
V4
p3674
tp3675
a(V$nr
p3676
V13
p3677
tp3678
a(V$n
p3679
V52
p3680
tp3681
a(V$ns
p3682
V4
p3683
tp3684
a(V$nr
p3685
V13
p3686
tp3687
aV2015-10-13 19:10:59
p3688
tp3689
a(V(12-3)*(5^5-5)
p3690
V9 * (5**4*4)
p3691
(lp3692
(S'R.0'
p3693
F9.0
V12-3
p3694
V9
p3695
tp3696
aVkrkelkar
p3697
(lp3698
(V$n
p3699
V60
p3700
tp3701
a(V$ns
p3702
V5
p3703
tp3704
a(V$nr
p3705
V12
p3706
tp3707
a(V$n
p3708
V60
p3709
tp3710
a(V$ns
p3711
V5
p3712
tp3713
a(V$nr
p3714
V12
p3715
tp3716
aV2015-10-14 04:45:04
p3717
tp3718
a(g2883
V13*4^5
p3719
(lp3720
(S'R.0'
p3721
F13.0
V16-3
p3722
V13
p3723
tp3724
aVvqt004
p3725
(lp3726
(V$n
p3727
V64
p3728
tp3729
a(V$ns
p3730
V4
p3731
tp3732
a(V$nr
p3733
V16
p3734
tp3735
a(V$n
p3736
V64
p3737
tp3738
a(V$ns
p3739
V4
p3740
tp3741
a(V$nr
p3742
V16
p3743
tp3744
aV2015-10-14 05:54:21
p3745
tp3746
a(V(11-3)*(5^5-5)
p3747
V8*5^5
p3748
(lp3749
(S'R.0'
p3750
F8.0
V11-3
p3751
V8
p3752
tp3753
aVhmnaing
p3754
(lp3755
(V$n
p3756
V55
p3757
tp3758
a(V$ns
p3759
V5
p3760
tp3761
a(V$nr
p3762
V11
p3763
tp3764
a(V$n
p3765
V55
p3766
tp3767
a(V$ns
p3768
V5
p3769
tp3770
a(V$nr
p3771
V11
p3772
tp3773
aV2015-10-14 06:39:32
p3774
tp3775
a(V(13-3)*(5^5-5)
p3776
V10*(5^5)
p3777
(lp3778
(S'R.0'
p3779
F10.0
V13-3
p3780
V10
p3781
tp3782
aVsippolit
p3783
(lp3784
(V$n
p3785
V65
p3786
tp3787
a(V$ns
p3788
V5
p3789
tp3790
a(V$nr
p3791
V13
p3792
tp3793
a(V$n
p3794
V65
p3795
tp3796
a(V$ns
p3797
V5
p3798
tp3799
a(V$nr
p3800
V13
p3801
tp3802
aV2015-10-14 23:08:54
p3803
tp3804
a(g2923
V13*5!
p3805
(lp3806
(S'R.0'
p3807
F13.0
V16-3
p3808
V13
p3809
tp3810
aVrraiyyan
p3811
(lp3812
(V$n
p3813
V80
p3814
tp3815
a(V$ns
p3816
V5
p3817
tp3818
a(V$nr
p3819
V16
p3820
tp3821
a(V$n
p3822
V80
p3823
tp3824
a(V$ns
p3825
V5
p3826
tp3827
a(V$nr
p3828
V16
p3829
tp3830
aV2015-10-15 00:54:14
p3831
tp3832
a(g2931
V12*(4^6-4)
p3833
(lp3834
(S'R.0'
p3835
F12.0
V15-3
p3836
V12
p3837
tp3838
aVstarinia
p3839
g3426
V2015-10-15 03:12:27
p3840
tp3841
a(g2939
V8(5^4 - 4 )
p3842
(lp3843
(S'R.0'
p3844
F8.0
V11-3
p3845
g3752
tp3846
aVssamudra
p3847
(lp3848
(V$n
p3849
V44
p3850
tp3851
a(V$ns
p3852
V4
p3853
tp3854
a(V$nr
p3855
V11
p3856
tp3857
a(V$n
p3858
V44
p3859
tp3860
a(V$ns
p3861
V4
p3862
tp3863
a(V$nr
p3864
V11
p3865
tp3866
aV2015-10-15 04:11:00
p3867
tp3868
a(g2949
V11*(5^4-5)
p3869
(lp3870
(S'R.0'
p3871
F11.0
V14-3
p3872
V11
p3873
tp3874
aVhsc052
p3875
(lp3876
(V$n
p3877
V70
p3878
tp3879
a(V$ns
p3880
V5
p3881
tp3882
a(V$nr
p3883
V14
p3884
tp3885
a(V$n
p3886
V70
p3887
tp3888
a(V$ns
p3889
V5
p3890
tp3891
a(V$nr
p3892
V14
p3893
tp3894
aV2015-10-15 06:09:29
p3895
tp3896
a(V(13-3)*(5^5-5)
p3897
V10 * 5
p3898
(lp3899
(S'R.0'
p3900
F10.0
V13-3
p3901
V10
p3902
tp3903
aVp4kumar
p3904
g2221
V2015-10-15 10:06:19
p3905
tp3906
a(V(16-3)*(4^5-4)
p3907
V13C(4,1)^5
p3908
(lp3909
(S'R.0'
p3910
F13.0
V16-3
p3911
V13
p3912
tp3913
aVdis003
p3914
g2249
V2015-10-15 12:04:03
p3915
tp3916
a(g2966
V8*5
p3917
(lp3918
(S'R.0'
p3919
F8.0
V11-3
p3920
g3752
tp3921
aVb1green
p3922
(lp3923
(V$n
p3924
V66
p3925
tp3926
a(V$ns
p3927
V6
p3928
tp3929
a(V$nr
p3930
V11
p3931
tp3932
a(V$n
p3933
V66
p3934
tp3935
a(V$ns
p3936
V6
p3937
tp3938
a(V$nr
p3939
V11
p3940
tp3941
aV2015-10-15 21:42:37
p3942
tp3943
asg2494
(lp3944
(g3048
VC(11,7)*(1-C(11,1)*C(4,1))
p3945
tp3946
a(V(14-3)*(4^5-4)
p3947
V11 - 4^5-4
p3948
tp3949
asg2501
(lp3950
(V(10-3)*(6^5-6)
p3951
V10*(1-[1/6^5])
p3952
tp3953
a(g2563
V10200/2598960
p3954
tp3955
a(g2630
V(10*4^5-40)/C(52,5)
p3956
tp3957
a(g2630
V(10*4^5-40)/C(48,5)
p3958
tp3959
a(V(11-3)*(6^5-6)
p3960
V8*(4^5-4)/C(66, 5)
p3961
tp3962
a(g3960
V8*(6^5 - 6)/C(66, 5)
p3963
tp3964
a(g3960
V10*(6^5 - 6)/C(66, 5)
p3965
tp3966
a(g3960
V8*(6^5 - 6)/C(66, 5)
p3967
tp3968
a(g2905
V(1* (10/74) * (10/73) * (10/72) * (10/71) )
p3969
tp3970
a(V(14-3)*(6^5-6)
p3971
VC(6,5)^5 / 11
p3972
tp3973
a(V(11-3)*(5^5-5)
p3974
V(8*(5^5-5))/(55!/(5!*50!))
p3975
tp3976
a(V(10-3)*(5^5-5)
p3977
V7*5^-1
p3978
tp3979
a(g3977
V7*(5^-1)
p3980
tp3981
a(V(14-3)*(5^5-5)
p3982
V11*(5^5-5)*55!*5!/60!
p3983
tp3984
a(V(15-3)*(6^5-6)
p3985
V(12*((6^5)-6))/(43949268)
p3986
tp3987
asS"['R.0', 'R.1.0.1']"
p3988
(lp3989
(g3447
V10*(4^5 - 1)
p3990
(lp3991
(S'R.0'
p3992
F10.0
V13-3
p3993
V10
p3994
tp3995
a(S'R.1.0.1'
p3996
F5.0
g3397
g3397
tp3997
aVpnquach
p3998
g3453
V2015-10-15 03:29:52
p3999
tp4000
asS"['R.0', 'R.1.0']"
p4001
(lp4002
(g3690
V9 * (5**5-1)
p4003
(lp4004
(S'R.0'
p4005
F9.0
V12-3
p4006
g3695
tp4007
a(S'R.1.0'
p4008
F3125.0
V5^5
p4009
V5**5
p4010
tp4011
aVkrkelkar
p4012
g3698
V2015-10-14 04:44:17
p4013
tp4014
a(g2920
V12*(5*5*5*5*5 -1)
p4015
(lp4016
(S'R.0'
p4017
F12.0
V15-3
p4018
V12
p4019
tp4020
a(S'R.1.0'
p4021
F3125.0
V5^5
p4022
V5*5*5*5*5
p4023
tp4024
aVeshung
p4025
(lp4026
(V$n
p4027
V75
p4028
tp4029
a(V$ns
p4030
V5
p4031
tp4032
a(V$nr
p4033
V15
p4034
tp4035
a(V$n
p4036
V75
p4037
tp4038
a(V$ns
p4039
V5
p4040
tp4041
a(V$nr
p4042
V15
p4043
tp4044
aV2015-10-14 22:37:25
p4045
tp4046
a(V(15-3)*(5^5-5)
p4047
V12*(5^5-1)
p4048
(lp4049
(S'R.0'
p4050
F12.0
V15-3
p4051
V12
p4052
tp4053
a(S'R.1.0'
p4054
F3125.0
V5^5
p4055
V5^5
p4056
tp4057
aVanislam
p4058
(lp4059
(V$n
p4060
V75
p4061
tp4062
a(V$ns
p4063
V5
p4064
tp4065
a(V$nr
p4066
V15
p4067
tp4068
a(V$n
p4069
V75
p4070
tp4071
a(V$ns
p4072
V5
p4073
tp4074
a(V$nr
p4075
V15
p4076
tp4077
aV2015-10-15 23:33:08
p4078
tp4079
assV2
p4080
g2
(g3
tp4081
Rp4082
g6
(lp4083
(V5^5-5
p4084
V5
p4085
tp4086
a(V5^5-5
p4087
V1
p4088
tp4089
a(g4087
V2
p4090
tp4091
a(g4087
V5
p4092
tp4093
a(g4087
V25
p4094
tp4095
a(V4^5-4
p4096
V44
p4097
tp4098
a(V5^5-5
p4099
V35
p4100
tp4101
a(g4099
V40
p4102
tp4103
a(g4099
V5
p4104
tp4105
a(V4^5-4
p4106
V3
p4107
tp4108
a(g4106
V4
p4109
tp4110
a(g4106
V3
p4111
tp4112
a(V5^5-5
p4113
V3125
p4114
tp4115
a(g4113
V1280
p4116
tp4117
a(g4113
V3124
p4118
tp4119
a(V6^5-6
p4120
V6
p4121
tp4122
a(g4120
V6
p4123
tp4124
a(V4^5-4
p4125
V8
p4126
tp4127
a(g4125
V4
p4128
tp4129
a(g4125
V3
p4130
tp4131
a(g4125
V4
p4132
tp4133
a(g4125
V32
p4134
tp4135
a(V5^5-5
p4136
V26
p4137
tp4138
a(V4^5-4
p4139
V4
p4140
tp4141
a(g4139
V3
p4142
tp4143
a(g4139
V12
p4144
tp4145
a(g4139
V11
p4146
tp4147
a(g4125
V10,200
p4148
tp4149
a(g4125
V10200
p4150
tp4151
a(g4125
V102004
p4152
tp4153
a(g4125
V4
p4154
tp4155
a(V5^5-5
p4156
V45
p4157
tp4158
a(g4156
V36
p4159
tp4160
a(g4156
V40
p4161
tp4162
a(g4156
V50
p4163
tp4164
a(g4156
V8
p4165
tp4166
a(g4156
V9
p4167
tp4168
a(g4156
V12
p4169
tp4170
a(g4156
V11
p4171
tp4172
a(g4156
V10
p4173
tp4174
a(g4156
V60
p4175
tp4176
a(g4156
V45
p4177
tp4178
a(g4156
V12
p4179
tp4180
a(V5^5-5
p4181
V5
p4182
tp4183
a(V5^5-5
p4184
V25
p4185
tp4186
a(g4184
V24
p4187
tp4188
a(g4184
V5108
p4189
tp4190
a(V6^5-6
p4191
V6
p4192
tp4193
a(V4^5-4
p4194
V3
p4195
tp4196
a(g4194
V11
p4197
tp4198
a(g4194
V3
p4199
tp4200
a(V4^5-4
p4201
V4
p4202
tp4203
a(V4^5-4
p4204
V3
p4205
tp4206
a(g4204
V3
p4207
tp4208
a(g4204
V5
p4209
tp4210
a(g4204
V4
p4211
tp4212
a(g4204
V4
p4213
tp4214
a(V6^5-6
p4215
V6
p4216
tp4217
a(V5^5-5
p4218
V20
p4219
tp4220
a(g4218
V21
p4221
tp4222
a(g4218
V26
p4223
tp4224
a(g4218
V1020
p4225
tp4226
a(V6^5-6
p4227
V5
p4228
tp4229
a(g4194
V324
p4230
tp4231
a(V5^5-5
p4232
V4
p4233
tp4234
a(g4232
V5
p4235
tp4236
a(V6^5-6
p4237
V62208
p4238
tp4239
a(g4237
V48
p4240
tp4241
a(V4^5-4
p4242
V1023
p4243
tp4244
a(V4^5-4
p4245
V4
p4246
tp4247
a(g4245
V5
p4248
tp4249
a(g4245
V6
p4250
tp4251
a(g4245
V576
p4252
tp4253
a(g4245
V4
p4254
tp4255
a(V4^5-4
p4256
V4
p4257
tp4258
a(g4245
V5
p4259
tp4260
a(g4245
V6
p4261
tp4262
a(g4245
V1
p4263
tp4264
a(g4245
V2
p4265
tp4266
a(g4245
V8
p4267
tp4268
a(g4245
V24
p4269
tp4270
a(g4245
V36
p4271
tp4272
a(g4245
V72
p4273
tp4274
a(g4245
V52
p4275
tp4276
a(V4^5-4
p4277
V352968
p4278
tp4279
a(g4277
V471240
p4280
tp4281
a(g4277
V1024
p4282
tp4283
a(g4277
V256
p4284
tp4285
a(g4277
V8160
p4286
tp4287
a(V4^5-4
p4288
V4
p4289
tp4290
a(g4288
V3
p4291
tp4292
a(V6^5-6
p4293
V5
p4294
tp4295
a(g4293
V6
p4296
tp4297
a(g4293
V6
p4298
tp4299
a(V5^5-5
p4300
V5
p4301
tp4302
a(g4245
V1287
p4303
tp4304
a(g4245
V4368
p4305
tp4306
a(g4245
V4
p4307
tp4308
a(g4245
V52
p4309
tp4310
a(g4245
V10
p4311
tp4312
a(g4245
V715
p4313
tp4314
a(V6^5-6
p4315
V6
p4316
tp4317
a(g4315
V5
p4318
tp4319
a(V4^5-4
p4320
V4
p4321
tp4322
a(g4215
V14
p4323
tp4324
a(V5^5-5
p4325
V5
p4326
tp4327
a(V6^5-6
p4328
V6
p4329
tp4330
a(g4328
V1
p4331
tp4332
a(V4^5-4
p4333
V4
p4334
tp4335
a(V4^5-4
p4336
V32
p4337
tp4338
a(g4336
V24
p4339
tp4340
a(g4336
V4
p4341
tp4342
a(g4336
V3
p4343
tp4344
a(g4336
V44
p4345
tp4346
a(g4336
V16
p4347
tp4348
a(V6^5-6
p4349
V4
p4350
tp4351
a(g4215
V6
p4352
tp4353
a(V4^5-4
p4354
V52
p4355
tp4356
a(V4^5-4
p4357
V4
p4358
tp4359
a(V5^5-5
p4360
V4
p4361
tp4362
a(g4336
V20
p4363
tp4364
a(g4336
V10200
p4365
tp4366
a(g4336
V36
p4367
tp4368
a(V6^5-6
p4369
V6
p4370
tp4371
a(g4191
V1260
p4372
tp4373
a(g4191
V6480
p4374
tp4375
a(g4191
V2592
p4376
tp4377
a(V6^5-6
p4378
V25
p4379
tp4380
a(V5^5-5
p4381
V5
p4382
tp4383
a(V5^5-5
p4384
V31
p4385
tp4386
a(V5^5-5
p4387
V5
p4388
tp4389
a(g4387
V2500
p4390
tp4391
a(V6^5-6
p4392
V1
p4393
tp4394
a(g4392
V5
p4395
tp4396
a(V6^5-6
p4397
V6
p4398
tp4399
a(g4397
V23
p4400
tp4401
a(g4397
V36
p4402
tp4403
a(g4392
V6
p4404
tp4405
a(V4^5-4
p4406
V4
p4407
tp4408
a(V6^5-6
p4409
V306
p4410
tp4411
a(V5^5-5
p4412
V4
p4413
tp4414
a(g4412
V5
p4415
tp4416
a(V5^5-5
p4417
V2500
p4418
tp4419
a(g4417
V12500
p4420
tp4421
a(g4417
V2500
p4422
tp4423
a(g4417
V39
p4424
tp4425
a(g4417
V49
p4426
tp4427
a(g4417
V115
p4428
tp4429
a(V6^5-6
p4430
V4
p4431
tp4432
a(V4^5-4
p4433
V5
p4434
tp4435
a(V4^5-4
p4436
V28
p4437
tp4438
a(g4436
V4
p4439
tp4440
a(V5^5-5
p4441
V5
p4442
tp4443
a(g4441
V10
p4444
tp4445
a(g4441
V4
p4446
tp4447
a(g4441
V6
p4448
tp4449
a(g4441
V7
p4450
tp4451
a(g4441
V8
p4452
tp4453
a(g4441
V9
p4454
tp4455
a(g4441
V11
p4456
tp4457
a(g4441
V12
p4458
tp4459
a(g4441
V13
p4460
tp4461
a(g4441
V14
p4462
tp4463
a(g4441
V15
p4464
tp4465
a(g4441
V16
p4466
tp4467
a(g4441
V17
p4468
tp4469
a(g4441
V18
p4470
tp4471
a(g4441
V19
p4472
tp4473
a(g4441
V199
p4474
tp4475
a(g4441
V198
p4476
tp4477
a(g4441
V197
p4478
tp4479
a(g4441
V196
p4480
tp4481
a(g4441
V195
p4482
tp4483
a(g4441
V194
p4484
tp4485
a(g4441
V193
p4486
tp4487
a(g4441
V192
p4488
tp4489
a(g4441
V191
p4490
tp4491
a(g4441
V190
p4492
tp4493
a(g4441
V189
p4494
tp4495
a(g4441
V188
p4496
tp4497
a(g4441
V187
p4498
tp4499
a(V6^5-6
p4500
V6
p4501
tp4502
a(g4500
V5
p4503
tp4504
a(g4500
V4
p4505
tp4506
a(g4500
V3
p4507
tp4508
a(g4500
V1
p4509
tp4510
a(V5^5-5
p4511
V1
p4512
tp4513
a(g4511
V5
p4514
tp4515
a(V6^5-6
p4516
V1287
p4517
tp4518
a(g4511
V25
p4519
tp4520
a(V4^5-4
p4521
V5
p4522
tp4523
a(g4521
V4
p4524
tp4525
a(g4521
V3
p4526
tp4527
a(g4521
V1
p4528
tp4529
a(g4511
V5
p4530
tp4531
a(g4511
V1
p4532
tp4533
a(g4516
V50
p4534
tp4535
a(g4516
V26208
p4536
tp4537
a(g4516
V72
p4538
tp4539
a(g4516
V5
p4540
tp4541
a(g4516
V6
p4542
tp4543
a(g4516
V72
p4544
tp4545
a(g4516
V78
p4546
tp4547
a(V6^5-6
p4548
V6
p4549
tp4550
a(V4^5-4
p4551
V6
p4552
tp4553
a(V6^5-6
p4554
V5
p4555
tp4556
a(V4^5-4
p4557
V16
p4558
tp4559
a(V6^5-6
p4560
V16
p4561
tp4562
a(g4560
V4
p4563
tp4564
a(g4560
V6
p4565
tp4566
a(V4^5-4
p4567
V7
p4568
tp4569
a(V5^5-5
p4570
V5
p4571
tp4572
a(V5^5-5
p4573
V3
p4574
tp4575
a(g4191
V248
p4576
tp4577
a(g4191
V246
p4578
tp4579
asS"['R.0.0']"
p4580
(lp4581
(V6^5-6
p4582
V(6^4)*5
p4583
(lp4584
(S'R.0.0'
p4585
F6.0
V6
p4586
g4586
tp4587
aVdpereira
p4588
g1107
V2015-10-10 06:10:41
p4589
tp4590
a(g4582
V(6^4)*5^2
p4591
(lp4592
(S'R.0.0'
p4593
F6.0
g4586
g4586
tp4594
aVdpereira
p4595
g1107
V2015-10-10 06:10:48
p4596
tp4597
a(V4^5-4
p4598
V(4^4)*3
p4599
(lp4600
(S'R.0.0'
p4601
F4.0
V4
p4602
g4602
tp4603
aVpthsu
p4604
(lp4605
(V$n
p4606
V40
p4607
tp4608
a(V$ns
p4609
V4
p4610
tp4611
a(V$nr
p4612
V10
p4613
tp4614
a(V$n
p4615
V40
p4616
tp4617
a(V$ns
p4618
V4
p4619
tp4620
a(V$nr
p4621
V10
p4622
tp4623
aV2015-10-10 20:40:13
p4624
tp4625
a(V6^5-6
p4626
VC(6,1)*5^4*5
p4627
(lp4628
(S'R.0.0'
p4629
F6.0
g4586
VC(6,1)
p4630
tp4631
aValakamsa
p4632
(lp4633
(V$n
p4634
V90
p4635
tp4636
a(V$ns
p4637
V6
p4638
tp4639
a(V$nr
p4640
V15
p4641
tp4642
a(V$n
p4643
V90
p4644
tp4645
a(V$ns
p4646
V6
p4647
tp4648
a(V$nr
p4649
V15
p4650
tp4651
aV2015-10-10 20:59:49
p4652
tp4653
a(g4626
V6^4*5
p4654
(lp4655
(S'R.0.0'
p4656
F6.0
g4586
g4586
tp4657
aValakamsa
p4658
g4633
V2015-10-10 21:01:17
p4659
tp4660
a(g4096
V4^4*15
p4661
(lp4662
(S'R.0.0'
p4663
F4.0
g4602
g4602
tp4664
aVffhaddad
p4665
(lp4666
(V$n
p4667
V56
p4668
tp4669
a(V$ns
p4670
V4
p4671
tp4672
a(V$nr
p4673
V14
p4674
tp4675
a(V$n
p4676
V56
p4677
tp4678
a(V$ns
p4679
V4
p4680
tp4681
a(V$nr
p4682
V14
p4683
tp4684
aV2015-10-10 21:45:30
p4685
tp4686
a(V6^5-6
p4687
VC(6,2)*6^3
p4688
(lp4689
(S'R.0.0'
p4690
F6.0
g4586
g4586
tp4691
aVjdeon
p4692
(lp4693
(V$n
p4694
V96
p4695
tp4696
a(V$ns
p4697
V6
p4698
tp4699
a(V$nr
p4700
V16
p4701
tp4702
a(V$n
p4703
V96
p4704
tp4705
a(V$ns
p4706
V6
p4707
tp4708
a(V$nr
p4709
V16
p4710
tp4711
aV2015-10-11 23:35:22
p4712
tp4713
a(V6^5-6
p4714
V6^4*5
p4715
(lp4716
(S'R.0.0'
p4717
F6.0
g4586
g4586
tp4718
aVjnn015
p4719
(lp4720
(V$n
p4721
V60
p4722
tp4723
a(V$ns
p4724
V6
p4725
tp4726
a(V$nr
p4727
V10
p4728
tp4729
a(V$n
p4730
V60
p4731
tp4732
a(V$ns
p4733
V6
p4734
tp4735
a(V$nr
p4736
V10
p4737
tp4738
aV2015-10-11 23:25:02
p4739
tp4740
a(V4^5-4
p4741
V4^4*3
p4742
(lp4743
(S'R.0.0'
p4744
F4.0
g4602
g4602
tp4745
aVasetters
p4746
(lp4747
(V$n
p4748
V60
p4749
tp4750
a(V$ns
p4751
V4
p4752
tp4753
a(V$nr
p4754
V15
p4755
tp4756
a(V$n
p4757
V60
p4758
tp4759
a(V$ns
p4760
V4
p4761
tp4762
a(V$nr
p4763
V15
p4764
tp4765
aV2015-10-12 06:43:13
p4766
tp4767
a(V4^5-4
p4768
V[4^4]*3
p4769
(lp4770
(S'R.0.0'
p4771
F4.0
g4602
g4602
tp4772
aVl8ngo
p4773
(lp4774
(V$n
p4775
V48
p4776
tp4777
a(V$ns
p4778
V4
p4779
tp4780
a(V$nr
p4781
V12
p4782
tp4783
a(V$n
p4784
V48
p4785
tp4786
a(V$ns
p4787
V4
p4788
tp4789
a(V$nr
p4790
V12
p4791
tp4792
aV2015-10-12 16:32:26
p4793
tp4794
a(g4194
V4*3+12*2*24
p4795
(lp4796
(S'R.0.0'
p4797
F4.0
g4602
g4602
tp4798
aVedescobe
p4799
(lp4800
(V$n
p4801
V40
p4802
tp4803
a(V$ns
p4804
V4
p4805
tp4806
a(V$nr
p4807
V10
p4808
tp4809
a(V$n
p4810
V40
p4811
tp4812
a(V$ns
p4813
V4
p4814
tp4815
a(V$nr
p4816
V10
p4817
tp4818
aV2015-10-12 22:46:22
p4819
tp4820
a(V6^5-6
p4821
V(C(6,1)^4) * C(5,1)
p4822
(lp4823
(S'R.0.0'
p4824
F6.0
g4586
VC(6,1)
p4825
tp4826
aVdruble
p4827
g2618
V2015-10-13 01:57:07
p4828
tp4829
a(g4201
V4^4*3
p4830
(lp4831
(S'R.0.0'
p4832
F4.0
g4602
g4602
tp4833
aVxweng
p4834
(lp4835
(V$n
p4836
V52
p4837
tp4838
a(V$ns
p4839
V4
p4840
tp4841
a(V$nr
p4842
V13
p4843
tp4844
aV2015-10-13 02:21:33
p4845
tp4846
a(V4^5-4
p4847
V4^4*3
p4848
(lp4849
(S'R.0.0'
p4850
F4.0
g4602
g4602
tp4851
aVrsmurlo
p4852
(lp4853
(V$n
p4854
V56
p4855
tp4856
a(V$ns
p4857
V4
p4858
tp4859
a(V$nr
p4860
V14
p4861
tp4862
a(V$n
p4863
V56
p4864
tp4865
a(V$ns
p4866
V4
p4867
tp4868
a(V$nr
p4869
V14
p4870
tp4871
aV2015-10-14 01:07:09
p4872
tp4873
a(g4277
V4^4*3
p4874
(lp4875
(S'R.0.0'
p4876
F4.0
g4602
g4602
tp4877
aVtol003
p4878
g1584
V2015-10-14 01:11:46
p4879
tp4880
a(V6^5-6
p4881
VC(6,2) * 6^3
p4882
(lp4883
(S'R.0.0'
p4884
F6.0
g4586
g4586
tp4885
aVcsl030
p4886
g1613
V2015-10-14 03:23:02
p4887
tp4888
a(V4^5-4
p4889
VC(4,1)*C(4,1)*C(4,1)C(3,1)
p4890
(lp4891
(S'R.0.0'
p4892
F4.0
g4602
VC(4,1)
p4893
tp4894
aVs6deng
p4895
(lp4896
(V$n
p4897
V60
p4898
tp4899
a(V$ns
p4900
V4
p4901
tp4902
a(V$nr
p4903
V15
p4904
tp4905
a(V$n
p4906
V60
p4907
tp4908
a(V$ns
p4909
V4
p4910
tp4911
a(V$nr
p4912
V15
p4913
tp4914
aV2015-10-14 04:18:47
p4915
tp4916
a(V4^5-4
p4917
V(4^4)*3
p4918
(lp4919
(S'R.0.0'
p4920
F4.0
g4602
g4602
tp4921
aVmsaguiar
p4922
(lp4923
(V$n
p4924
V40
p4925
tp4926
a(V$ns
p4927
V4
p4928
tp4929
a(V$nr
p4930
V10
p4931
tp4932
a(V$n
p4933
V40
p4934
tp4935
a(V$ns
p4936
V4
p4937
tp4938
a(V$nr
p4939
V10
p4940
tp4941
aV2015-10-14 04:55:09
p4942
tp4943
a(V4^5-4
p4944
V4**4 * 3
p4945
(lp4946
(S'R.0.0'
p4947
F4.0
g4602
g4602
tp4948
aVabjara
p4949
g1910
V2015-10-14 23:02:22
p4950
tp4951
a(V4^5-4
p4952
VC(4,1)*5 -5
p4953
(lp4954
(S'R.0.0'
p4955
F4.0
g4602
VC(4,1)
p4956
tp4957
aVhmshah
p4958
(lp4959
(V$n
p4960
V44
p4961
tp4962
a(V$ns
p4963
V4
p4964
tp4965
a(V$nr
p4966
V11
p4967
tp4968
a(V$n
p4969
V44
p4970
tp4971
a(V$ns
p4972
V4
p4973
tp4974
a(V$nr
p4975
V11
p4976
tp4977
aV2015-10-15 00:23:07
p4978
tp4979
a(V4^5-4
p4980
V(C(4,2))^2
p4981
(lp4982
(S'R.0.0'
p4983
F4.0
g4602
g4602
tp4984
aVbakang
p4985
(lp4986
(V$n
p4987
V60
p4988
tp4989
a(V$ns
p4990
V4
p4991
tp4992
a(V$nr
p4993
V15
p4994
tp4995
a(V$n
p4996
V60
p4997
tp4998
a(V$ns
p4999
V4
p5000
tp5001
a(V$nr
p5002
V15
p5003
tp5004
aV2015-10-15 02:46:18
p5005
tp5006
a(g4392
V6!*11
p5007
(lp5008
(S'R.0.0'
p5009
F6.0
g4586
g4586
tp5010
aVtcn013
p5011
(lp5012
(V$n
p5013
V84
p5014
tp5015
a(V$ns
p5016
V6
p5017
tp5018
a(V$nr
p5019
V14
p5020
tp5021
a(V$n
p5022
V84
p5023
tp5024
a(V$ns
p5025
V6
p5026
tp5027
a(V$nr
p5028
V14
p5029
tp5030
aV2015-10-15 04:21:35
p5031
tp5032
a(V6^5-6
p5033
V6!/(2!4!)
p5034
(lp5035
(S'R.0.0'
p5036
F6.0
g4586
g4586
tp5037
aVjeqin
p5038
(lp5039
(V$n
p5040
V84
p5041
tp5042
a(V$ns
p5043
V6
p5044
tp5045
a(V$nr
p5046
V14
p5047
tp5048
a(V$n
p5049
V84
p5050
tp5051
a(V$ns
p5052
V6
p5053
tp5054
a(V$nr
p5055
V14
p5056
tp5057
aV2015-10-15 13:07:09
p5058
tp5059
a(g5033
V6! - 1
p5060
(lp5061
(S'R.0.0'
p5062
F6.0
g4586
g4586
tp5063
aVjeqin
p5064
g5039
V2015-10-15 13:07:31
p5065
tp5066
a(g5033
V6! - 5
p5067
(lp5068
(S'R.0.0'
p5069
F6.0
g4586
g4586
tp5070
aVjeqin
p5071
g5039
V2015-10-15 13:12:49
p5072
tp5073
a(g4500
V6!/(6-5)!
p5074
(lp5075
(S'R.0.0'
p5076
F6.0
g4586
g4586
tp5077
aVb3hwang
p5078
(lp5079
(V$n
p5080
V60
p5081
tp5082
a(V$ns
p5083
V6
p5084
tp5085
a(V$nr
p5086
V10
p5087
tp5088
a(V$n
p5089
V60
p5090
tp5091
a(V$ns
p5092
V6
p5093
tp5094
a(V$nr
p5095
V10
p5096
tp5097
aV2015-10-15 17:45:32
p5098
tp5099
a(g4500
V6!5!
p5100
(lp5101
(S'R.0.0'
p5102
F6.0
g4586
g4586
tp5103
aVb3hwang
p5104
g5079
V2015-10-15 17:46:34
p5105
tp5106
a(g4554
V6^4*5
p5107
(lp5108
(S'R.0.0'
p5109
F6.0
g4586
g4586
tp5110
aVb1green
p5111
g3923
V2015-10-15 21:44:35
p5112
tp5113
a(V4^5-4
p5114
V4^4 * 3
p5115
(lp5116
(S'R.0.0'
p5117
F4.0
g4602
g4602
tp5118
aVcfgutier
p5119
(lp5120
(V$n
p5121
V44
p5122
tp5123
a(V$ns
p5124
V4
p5125
tp5126
a(V$nr
p5127
V11
p5128
tp5129
a(V$n
p5130
V44
p5131
tp5132
a(V$ns
p5133
V4
p5134
tp5135
a(V$nr
p5136
V11
p5137
tp5138
aV2015-10-15 22:47:05
p5139
tp5140
a(g4560
V6^4*5
p5141
(lp5142
(S'R.0.0'
p5143
F6.0
g4586
g4586
tp5144
aVr1gu
p5145
(lp5146
(V$n
p5147
V96
p5148
tp5149
a(V$ns
p5150
V6
p5151
tp5152
a(V$nr
p5153
V16
p5154
tp5155
a(V$n
p5156
V96
p5157
tp5158
a(V$ns
p5159
V6
p5160
tp5161
a(V$nr
p5162
V16
p5163
tp5164
aV2015-10-15 22:47:41
p5165
tp5166
asg2494
(lp5167
(V4^5-4
p5168
V1-C(11,7)*C(4,1)
p5169
tp5170
a(V4^5-4
p5171
V1 - 4^5
p5172
tp5173
a(V5^5-5
p5174
V15/(5!(9!)) -5
p5175
tp5176
a(g5174
V(1* (10/58) * (10/57) * (10/56) * (10/55) ) - (1 * (2/11) * (2/10) * (2/9) * (2/8) )
p5177
tp5178
a(g4336
V4^5 - (4*(13!)/[(8!)(5!)])
p5179
tp5180
a(V4^5-4
p5181
V11/ C(8,5)-1
p5182
tp5183
asS"['R.0']"
p5184
(lp5185
(V4^5-4
p5186
V4^5-11
p5187
(lp5188
(S'R.0'
p5189
F1024.0
V4^5
p5190
V4^5
p5191
tp5192
aVtcuddy
p5193
(lp5194
(V$n
p5195
V56
p5196
tp5197
a(V$ns
p5198
V4
p5199
tp5200
a(V$nr
p5201
V14
p5202
tp5203
a(V$n
p5204
V56
p5205
tp5206
a(V$ns
p5207
V4
p5208
tp5209
a(V$nr
p5210
V14
p5211
tp5212
aV2015-10-10 20:12:12
p5213
tp5214
a(g4598
V4**5 - 1
p5215
(lp5216
(S'R.0'
p5217
F1024.0
V4^5
p5218
V4**5
p5219
tp5220
aVpthsu
p5221
g4605
V2015-10-10 20:42:15
p5222
tp5223
a(g4598
V4*4*4*4*4 - 1
p5224
(lp5225
(S'R.0'
p5226
F1024.0
V4^5
p5227
V4*4*4*4*4
p5228
tp5229
aVpthsu
p5230
g4605
V2015-10-10 20:44:20
p5231
tp5232
a(g4598
V(4*4*4*4*4 )- 1
p5233
(lp5234
(S'R.0'
p5235
F1024.0
V4^5
p5236
V4*4*4*4*4
p5237
tp5238
aVpthsu
p5239
g4605
V2015-10-10 20:44:32
p5240
tp5241
a(g4096
V4^5-44
p5242
(lp5243
(S'R.0'
p5244
F1024.0
V4^5
p5245
V4^5
p5246
tp5247
aVffhaddad
p5248
g4666
V2015-10-10 21:41:37
p5249
tp5250
a(g4096
V4^5-1
p5251
(lp5252
(S'R.0'
p5253
F1024.0
V4^5
p5254
V4^5
p5255
tp5256
aVffhaddad
p5257
g4666
V2015-10-10 21:43:58
p5258
tp5259
a(g4099
V3125-35
p5260
(lp5261
(S'R.0'
p5262
F3125.0
V5^5
p5263
V3125
p5264
tp5265
aVaakumar
p5266
g1200
V2015-10-11 03:01:32
p5267
tp5268
a(g4099
V3125-35
p5269
(lp5270
(S'R.0'
p5271
F3125.0
V5^5
p5272
V3125
p5273
tp5274
aVaakumar
p5275
g1200
V2015-10-11 04:44:38
p5276
tp5277
a(V4^5-4
p5278
V4^5-1
p5279
(lp5280
(S'R.0'
p5281
F1024.0
V4^5
p5282
V4^5
p5283
tp5284
aVawollner
p5285
(lp5286
(V$n
p5287
V44
p5288
tp5289
a(V$ns
p5290
V4
p5291
tp5292
a(V$nr
p5293
V11
p5294
tp5295
a(V$n
p5296
V44
p5297
tp5298
a(V$ns
p5299
V4
p5300
tp5301
a(V$nr
p5302
V11
p5303
tp5304
aV2015-10-11 20:31:15
p5305
tp5306
a(g4136
V5^5-1
p5307
(lp5308
(S'R.0'
p5309
F3125.0
V5^5
p5310
V5^5
p5311
tp5312
aVc2qiu
p5313
(lp5314
(V$n
p5315
V70
p5316
tp5317
a(V$ns
p5318
V5
p5319
tp5320
a(V$nr
p5321
V14
p5322
tp5323
a(V$n
p5324
V70
p5325
tp5326
a(V$ns
p5327
V5
p5328
tp5329
a(V$nr
p5330
V14
p5331
tp5332
aV2015-10-11 20:41:10
p5333
tp5334
a(g4139
V4^5-(7*4)
p5335
(lp5336
(S'R.0'
p5337
F1024.0
V4^5
p5338
V4^5
p5339
tp5340
aVlalacson
p5341
g1265
V2015-10-11 23:28:56
p5342
tp5343
a(V5^5-5
p5344
V5**5-5*5
p5345
(lp5346
(S'R.0'
p5347
F3125.0
V5^5
p5348
V5**5
p5349
tp5350
aVjyc018
p5351
(lp5352
(V$n
p5353
V50
p5354
tp5355
a(V$ns
p5356
V5
p5357
tp5358
a(V$nr
p5359
V10
p5360
tp5361
a(V$n
p5362
V50
p5363
tp5364
a(V$ns
p5365
V5
p5366
tp5367
a(V$nr
p5368
V10
p5369
tp5370
aV2015-10-12 02:42:31
p5371
tp5372
a(g4181
V(5^5) - 50
p5373
(lp5374
(S'R.0'
p5375
F3125.0
V5^5
p5376
V5^5
p5377
tp5378
aVsippolit
p5379
g3784
V2015-10-12 05:19:11
p5380
tp5381
a(g4181
V(5^5) - 40
p5382
(lp5383
(S'R.0'
p5384
F3125.0
V5^5
p5385
V5^5
p5386
tp5387
aVsippolit
p5388
g3784
V2015-10-12 05:24:15
p5389
tp5390
a(g4181
V(5^5)-50
p5391
(lp5392
(S'R.0'
p5393
F3125.0
V5^5
p5394
V5^5
p5395
tp5396
aVsippolit
p5397
g3784
V2015-10-12 05:27:29
p5398
tp5399
a(g4181
V(5^5)-50
p5400
(lp5401
(S'R.0'
p5402
F3125.0
V5^5
p5403
V5^5
p5404
tp5405
aVsippolit
p5406
g3784
V2015-10-12 05:36:41
p5407
tp5408
a(g4184
V5^5-1
p5409
(lp5410
(S'R.0'
p5411
F3125.0
V5^5
p5412
V5^5
p5413
tp5414
aVk5law
p5415
(lp5416
(V$n
p5417
V80
p5418
tp5419
a(V$ns
p5420
V5
p5421
tp5422
a(V$nr
p5423
V16
p5424
tp5425
a(V$n
p5426
V80
p5427
tp5428
a(V$ns
p5429
V5
p5430
tp5431
a(V$nr
p5432
V16
p5433
tp5434
aV2015-10-12 06:43:23
p5435
tp5436
a(V5^5-5
p5437
V5^5-1
p5438
(lp5439
(S'R.0'
p5440
F3125.0
V5^5
p5441
V5^5
p5442
tp5443
aVjic212
p5444
(lp5445
(V$n
p5446
V60
p5447
tp5448
a(V$ns
p5449
V5
p5450
tp5451
a(V$nr
p5452
V12
p5453
tp5454
a(V$n
p5455
V60
p5456
tp5457
a(V$ns
p5458
V5
p5459
tp5460
a(V$nr
p5461
V12
p5462
tp5463
aV2015-10-12 09:02:35
p5464
tp5465
a(V5^5-5
p5466
V5^5-1
p5467
(lp5468
(S'R.0'
p5469
F3125.0
V5^5
p5470
V5^5
p5471
tp5472
aVyypan
p5473
(lp5474
(V$n
p5475
V50
p5476
tp5477
a(V$ns
p5478
V5
p5479
tp5480
a(V$nr
p5481
V10
p5482
tp5483
a(V$n
p5484
V50
p5485
tp5486
a(V$ns
p5487
V5
p5488
tp5489
a(V$nr
p5490
V10
p5491
tp5492
aV2015-10-12 21:05:43
p5493
tp5494
a(V4^5-4
p5495
V(4^5)-1
p5496
(lp5497
(S'R.0'
p5498
F1024.0
V4^5
p5499
V4^5
p5500
tp5501
aVachinn
p5502
g1376
V2015-10-13 00:07:30
p5503
tp5504
a(g4325
V5^5*8
p5505
(lp5506
(S'R.0'
p5507
F3125.0
V5^5
p5508
V5^5
p5509
tp5510
aVhmnaing
p5511
g3755
V2015-10-13 00:59:30
p5512
tp5513
a(g4184
V(5^5)-50
p5514
(lp5515
(S'R.0'
p5516
F3125.0
V5^5
p5517
V5^5
p5518
tp5519
aVk5law
p5520
g5416
V2015-10-13 05:13:04
p5521
tp5522
a(g4184
V(5^5)-50
p5523
(lp5524
(S'R.0'
p5525
F3125.0
V5^5
p5526
V5^5
p5527
tp5528
aVk5law
p5529
g5416
V2015-10-13 05:15:32
p5530
tp5531
a(g4184
V(5^5)-(13*5)
p5532
(lp5533
(S'R.0'
p5534
F3125.0
V5^5
p5535
V5^5
p5536
tp5537
aVk5law
p5538
g5416
V2015-10-13 05:15:42
p5539
tp5540
a(g4184
V(5^5)-(12*5)
p5541
(lp5542
(S'R.0'
p5543
F3125.0
V5^5
p5544
V5^5
p5545
tp5546
aVk5law
p5547
g5416
V2015-10-13 05:19:35
p5548
tp5549
a(g4204
V4^5-1
p5550
(lp5551
(S'R.0'
p5552
F1024.0
V4^5
p5553
V4^5
p5554
tp5555
aVewbrenna
p5556
(lp5557
(V$n
p5558
V44
p5559
tp5560
a(V$ns
p5561
V4
p5562
tp5563
a(V$nr
p5564
V11
p5565
tp5566
a(V$n
p5567
V44
p5568
tp5569
a(V$ns
p5570
V4
p5571
tp5572
a(V$nr
p5573
V11
p5574
tp5575
aV2015-10-13 05:35:40
p5576
tp5577
a(V4^5-4
p5578
V(4^5-1)
p5579
(lp5580
(S'R.0'
p5581
F1024.0
V4^5
p5582
V4^5
p5583
tp5584
aVk3tan
p5585
(lp5586
(V$n
p5587
V48
p5588
tp5589
a(V$ns
p5590
V4
p5591
tp5592
a(V$nr
p5593
V12
p5594
tp5595
a(V$n
p5596
V48
p5597
tp5598
a(V$ns
p5599
V4
p5600
tp5601
a(V$nr
p5602
V12
p5603
tp5604
aV2015-10-13 07:01:29
p5605
tp5606
a(g4245
V1024-(13*4)
p5607
(lp5608
(S'R.0'
p5609
F1024.0
V4^5
p5610
V1024
p5611
tp5612
aVaportuga
p5613
(lp5614
(V$n
p5615
V64
p5616
tp5617
a(V$ns
p5618
V4
p5619
tp5620
a(V$nr
p5621
V16
p5622
tp5623
a(V$n
p5624
V64
p5625
tp5626
a(V$ns
p5627
V4
p5628
tp5629
a(V$nr
p5630
V16
p5631
tp5632
aV2015-10-14 00:20:26
p5633
tp5634
a(g4245
V(1024*13)
p5635
(lp5636
(S'R.0'
p5637
F1024.0
V4^5
p5638
V1024
p5639
tp5640
aVaportuga
p5641
g5614
V2015-10-14 00:23:34
p5642
tp5643
a(V5^5-5
p5644
V5^5 -1
p5645
(lp5646
(S'R.0'
p5647
F3125.0
V5^5
p5648
V5^5
p5649
tp5650
aVmcatozzi
p5651
(lp5652
(V$n
p5653
V80
p5654
tp5655
a(V$ns
p5656
V5
p5657
tp5658
a(V$nr
p5659
V16
p5660
tp5661
a(V$n
p5662
V80
p5663
tp5664
a(V$ns
p5665
V5
p5666
tp5667
a(V$nr
p5668
V16
p5669
tp5670
aV2015-10-14 01:03:56
p5671
tp5672
a(g5644
V(5^5 -1)
p5673
(lp5674
(S'R.0'
p5675
F3125.0
V5^5
p5676
V5^5
p5677
tp5678
aVmcatozzi
p5679
g5652
V2015-10-14 01:12:21
p5680
tp5681
a(g4204
V4^5-1
p5682
(lp5683
(S'R.0'
p5684
F1024.0
V4^5
p5685
V4^5
p5686
tp5687
aVewbrenna
p5688
g5557
V2015-10-14 02:00:15
p5689
tp5690
a(V5^5-5
p5691
V5^5-1
p5692
(lp5693
(S'R.0'
p5694
F3125.0
V5^5
p5695
V5^5
p5696
tp5697
aVyil035
p5698
g2737
V2015-10-14 03:10:16
p5699
tp5700
a(g4881
VC(6,1)^5 - 6*5
p5701
(lp5702
(S'R.0'
p5703
F7776.0
V6^5
p5704
VC(6,1)^5
p5705
tp5706
aVcsl030
p5707
g1613
V2015-10-14 03:31:00
p5708
tp5709
a(g4881
V6^5 - (6*5)
p5710
(lp5711
(S'R.0'
p5712
F7776.0
V6^5
p5713
V6^5
p5714
tp5715
aVcsl030
p5716
g1613
V2015-10-14 03:31:44
p5717
tp5718
a(g4881
V6^5 - (6*7)
p5719
(lp5720
(S'R.0'
p5721
F7776.0
V6^5
p5722
V6^5
p5723
tp5724
aVcsl030
p5725
g1613
V2015-10-14 03:32:28
p5726
tp5727
a(g4881
V6^5 - (30)
p5728
(lp5729
(S'R.0'
p5730
F7776.0
V6^5
p5731
V6^5
p5732
tp5733
aVcsl030
p5734
g1613
V2015-10-14 03:33:29
p5735
tp5736
a(g4881
V6^5 - (42)
p5737
(lp5738
(S'R.0'
p5739
F7776.0
V6^5
p5740
V6^5
p5741
tp5742
aVcsl030
p5743
g1613
V2015-10-14 03:34:01
p5744
tp5745
a(V4^5-4
p5746
V4^5-10
p5747
(lp5748
(S'R.0'
p5749
F1024.0
V4^5
p5750
V4^5
p5751
tp5752
aVdkurli
p5753
(lp5754
(V$n
p5755
V60
p5756
tp5757
a(V$ns
p5758
V4
p5759
tp5760
a(V$nr
p5761
V15
p5762
tp5763
a(V$n
p5764
V60
p5765
tp5766
a(V$ns
p5767
V4
p5768
tp5769
a(V$nr
p5770
V15
p5771
tp5772
aV2015-10-14 04:25:00
p5773
tp5774
a(g5746
V4^5-12
p5775
(lp5776
(S'R.0'
p5777
F1024.0
V4^5
p5778
V4^5
p5779
tp5780
aVdkurli
p5781
g5754
V2015-10-14 04:25:10
p5782
tp5783
a(g5746
V4^5-1
p5784
(lp5785
(S'R.0'
p5786
F1024.0
V4^5
p5787
V4^5
p5788
tp5789
aVdkurli
p5790
g5754
V2015-10-14 04:25:57
p5791
tp5792
a(g5746
V4^5-24
p5793
(lp5794
(S'R.0'
p5795
F1024.0
V4^5
p5796
V4^5
p5797
tp5798
aVdkurli
p5799
g5754
V2015-10-14 04:26:12
p5800
tp5801
a(V6^5-6
p5802
V6^5 - 15
p5803
(lp5804
(S'R.0'
p5805
F7776.0
V6^5
p5806
V6^5
p5807
tp5808
aVjew037
p5809
(lp5810
(V$n
p5811
V90
p5812
tp5813
a(V$ns
p5814
V6
p5815
tp5816
a(V$nr
p5817
V15
p5818
tp5819
a(V$n
p5820
V90
p5821
tp5822
a(V$ns
p5823
V6
p5824
tp5825
a(V$nr
p5826
V15
p5827
tp5828
aV2015-10-14 04:34:16
p5829
tp5830
a(V5^5-5
p5831
V5**5 -1
p5832
(lp5833
(S'R.0'
p5834
F3125.0
V5^5
p5835
V5**5
p5836
tp5837
aVkrkelkar
p5838
g3698
V2015-10-14 04:44:17
p5839
tp5840
a(g5831
V5**5 -1
p5841
(lp5842
(S'R.0'
p5843
F3125.0
V5^5
p5844
V5**5
p5845
tp5846
aVkrkelkar
p5847
g3698
V2015-10-14 04:52:22
p5848
tp5849
a(g4917
V4*(4^4)*3
p5850
(lp5851
(S'R.0'
p5852
F1024.0
V4^5
p5853
V4*(4^4)
p5854
tp5855
aVmsaguiar
p5856
g4923
V2015-10-14 04:57:20
p5857
tp5858
a(g5174
V5^5 - (5*9)
p5859
(lp5860
(S'R.0'
p5861
F3125.0
V5^5
p5862
V5^5
p5863
tp5864
aVcstringh
p5865
g1404
V2015-10-14 18:56:24
p5866
tp5867
a(g5174
V5^5 -45
p5868
(lp5869
(S'R.0'
p5870
F3125.0
V5^5
p5871
V5^5
p5872
tp5873
aVcstringh
p5874
g1404
V2015-10-14 19:14:13
p5875
tp5876
a(g5174
V5^5 - 25
p5877
(lp5878
(S'R.0'
p5879
F3125.0
V5^5
p5880
V5^5
p5881
tp5882
aVcstringh
p5883
g1404
V2015-10-14 19:14:51
p5884
tp5885
a(g5174
V5^5 - 40
p5886
(lp5887
(S'R.0'
p5888
F3125.0
V5^5
p5889
V5^5
p5890
tp5891
aVcstringh
p5892
g1404
V2015-10-14 19:16:51
p5893
tp5894
a(V4^5-4
p5895
V4^5-1
p5896
(lp5897
(S'R.0'
p5898
F1024.0
V4^5
p5899
V4^5
p5900
tp5901
aVc1wei
p5902
(lp5903
(V$n
p5904
V52
p5905
tp5906
a(V$ns
p5907
V4
p5908
tp5909
a(V$nr
p5910
V13
p5911
tp5912
a(V$n
p5913
V52
p5914
tp5915
a(V$ns
p5916
V4
p5917
tp5918
a(V$nr
p5919
V13
p5920
tp5921
aV2015-10-14 20:58:45
p5922
tp5923
a(g4336
V4^5 - 36
p5924
(lp5925
(S'R.0'
p5926
F1024.0
V4^5
p5927
V4^5
p5928
tp5929
aVcprafull
p5930
(lp5931
(V$n
p5932
V44
p5933
tp5934
a(V$ns
p5935
V4
p5936
tp5937
a(V$nr
p5938
V11
p5939
tp5940
a(V$n
p5941
V44
p5942
tp5943
a(V$ns
p5944
V4
p5945
tp5946
a(V$nr
p5947
V11
p5948
tp5949
aV2015-10-14 22:21:26
p5950
tp5951
a(g4336
V([4!/((1!)(3!))]^5) - 32
p5952
(lp5953
(S'R.0'
p5954
F1024.0
V4^5
p5955
V[4!/((1!)(3!))]^5
p5956
tp5957
aVcprafull
p5958
g5931
V2015-10-14 22:22:41
p5959
tp5960
a(g4336
V([4!/((1!)(3!))]^5) - 40
p5961
(lp5962
(S'R.0'
p5963
F1024.0
V4^5
p5964
V[4!/((1!)(3!))]^5
p5965
tp5966
aVcprafull
p5967
g5931
V2015-10-14 22:23:10
p5968
tp5969
a(g4336
V(4^5) - 32
p5970
(lp5971
(S'R.0'
p5972
F1024.0
V4^5
p5973
V4^5
p5974
tp5975
aVcprafull
p5976
g5931
V2015-10-14 22:32:23
p5977
tp5978
a(V5^5-5
p5979
V5*5*5*5*5 -1
p5980
(lp5981
(S'R.0'
p5982
F3125.0
V5^5
p5983
V5*5*5*5*5
p5984
tp5985
aVeshung
p5986
g4026
V2015-10-14 22:37:25
p5987
tp5988
a(g4181
V5^5-50
p5989
(lp5990
(S'R.0'
p5991
F3125.0
V5^5
p5992
V5^5
p5993
tp5994
aVsippolit
p5995
g3784
V2015-10-14 23:09:29
p5996
tp5997
a(V5^5-5
p5998
V5^5-1
p5999
(lp6000
(S'R.0'
p6001
F3125.0
V5^5
p6002
V5^5
p6003
tp6004
aVw4shin
p6005
g2766
V2015-10-15 00:02:17
p6006
tp6007
a(V5^5-5
p6008
V5^5 - 1
p6009
(lp6010
(S'R.0'
p6011
F3125.0
V5^5
p6012
V5^5
p6013
tp6014
aVrraiyyan
p6015
g3812
V2015-10-15 00:54:14
p6016
tp6017
a(V4^5-4
p6018
V(4!/3!)^5-1
p6019
(lp6020
(S'R.0'
p6021
F1024.0
V4^5
p6022
V(4!/3!)^5
p6023
tp6024
aVjel075
p6025
(lp6026
(V$n
p6027
V40
p6028
tp6029
a(V$ns
p6030
V4
p6031
tp6032
a(V$nr
p6033
V10
p6034
tp6035
a(V$n
p6036
V40
p6037
tp6038
a(V$ns
p6039
V4
p6040
tp6041
a(V$nr
p6042
V10
p6043
tp6044
aV2015-10-15 01:54:21
p6045
tp6046
a(g6018
V4^5-1
p6047
(lp6048
(S'R.0'
p6049
F1024.0
V4^5
p6050
V4^5
p6051
tp6052
aVjel075
p6053
g6026
V2015-10-15 01:54:35
p6054
tp6055
a(g4387
V5^5-1
p6056
(lp6057
(S'R.0'
p6058
F3125.0
V5^5
p6059
V5^5
p6060
tp6061
aVk4ma
p6062
g2078
V2015-10-15 03:54:54
p6063
tp6064
a(V4^5-4
p6065
V4^5-1
p6066
(lp6067
(S'R.0'
p6068
F1024.0
V4^5
p6069
V4^5
p6070
tp6071
aVnnh002
p6072
(lp6073
(V$n
p6074
V48
p6075
tp6076
a(V$ns
p6077
V4
p6078
tp6079
a(V$nr
p6080
V12
p6081
tp6082
a(V$n
p6083
V48
p6084
tp6085
a(V$ns
p6086
V4
p6087
tp6088
a(V$nr
p6089
V12
p6090
tp6091
aV2015-10-15 06:20:28
p6092
tp6093
a(g4406
V4^5-1
p6094
(lp6095
(S'R.0'
p6096
F1024.0
V4^5
p6097
V4^5
p6098
tp6099
aVkmc012
p6100
(lp6101
(V$n
p6102
V64
p6103
tp6104
a(V$ns
p6105
V4
p6106
tp6107
a(V$nr
p6108
V16
p6109
tp6110
a(V$n
p6111
V64
p6112
tp6113
a(V$ns
p6114
V4
p6115
tp6116
a(V$nr
p6117
V16
p6118
tp6119
aV2015-10-15 06:39:19
p6120
tp6121
a(V5^5-5
p6122
V5^5-1
p6123
(lp6124
(S'R.0'
p6125
F3125.0
V5^5
p6126
V5^5
p6127
tp6128
aVyjshin
p6129
(lp6130
(V$n
p6131
V70
p6132
tp6133
a(V$ns
p6134
V5
p6135
tp6136
a(V$nr
p6137
V14
p6138
tp6139
a(V$n
p6140
V70
p6141
tp6142
a(V$ns
p6143
V5
p6144
tp6145
a(V$nr
p6146
V14
p6147
tp6148
aV2015-10-15 11:58:48
p6149
tp6150
a(V4^5-4
p6151
V(4^5) - 1
p6152
(lp6153
(S'R.0'
p6154
F1024.0
V4^5
p6155
V4^5
p6156
tp6157
aVdac064
p6158
(lp6159
(V$n
p6160
V56
p6161
tp6162
a(V$ns
p6163
V4
p6164
tp6165
a(V$nr
p6166
V14
p6167
tp6168
a(V$n
p6169
V56
p6170
tp6171
a(V$ns
p6172
V4
p6173
tp6174
a(V$nr
p6175
V14
p6176
tp6177
aV2015-10-15 21:55:37
p6178
tp6179
a(g6151
V(4^5) - 11
p6180
(lp6181
(S'R.0'
p6182
F1024.0
V4^5
p6183
V4^5
p6184
tp6185
aVdac064
p6186
g6159
V2015-10-15 21:56:16
p6187
tp6188
a(g4516
V6^5-78
p6189
(lp6190
(S'R.0'
p6191
F7776.0
V6^5
p6192
V6^5
p6193
tp6194
aVm4bui
p6195
(lp6196
(V$n
p6197
V96
p6198
tp6199
a(V$ns
p6200
V6
p6201
tp6202
a(V$nr
p6203
V16
p6204
tp6205
a(V$n
p6206
V96
p6207
tp6208
a(V$ns
p6209
V6
p6210
tp6211
a(V$nr
p6212
V16
p6213
tp6214
aV2015-10-15 21:59:49
p6215
tp6216
a(V4^5-4
p6217
V(C(4,1))^5-11*4
p6218
(lp6219
(S'R.0'
p6220
F1024.0
V4^5
p6221
V(C(4,1))^5
p6222
tp6223
aVr2fisher
p6224
(lp6225
(V$n
p6226
V56
p6227
tp6228
a(V$ns
p6229
V4
p6230
tp6231
a(V$nr
p6232
V14
p6233
tp6234
a(V$n
p6235
V56
p6236
tp6237
a(V$ns
p6238
V4
p6239
tp6240
a(V$nr
p6241
V14
p6242
tp6243
aV2015-10-15 22:37:47
p6244
tp6245
a(g6217
V4^5-11*4
p6246
(lp6247
(S'R.0'
p6248
F1024.0
V4^5
p6249
V4^5
p6250
tp6251
aVr2fisher
p6252
g6225
V2015-10-15 22:39:11
p6253
tp6254
a(g5114
V4^5 - 1
p6255
(lp6256
(S'R.0'
p6257
F1024.0
V4^5
p6258
V4^5
p6259
tp6260
aVcfgutier
p6261
g5120
V2015-10-15 22:46:47
p6262
tp6263
a(g4560
V6^5*5
p6264
(lp6265
(S'R.0'
p6266
F7776.0
V6^5
p6267
V6^5
p6268
tp6269
aVr1gu
p6270
g5146
V2015-10-15 22:47:18
p6271
tp6272
a(V5^5-5
p6273
V5^5-1
p6274
(lp6275
(S'R.0'
p6276
F3125.0
V5^5
p6277
V5^5
p6278
tp6279
aVanislam
p6280
g4059
V2015-10-15 23:33:08
p6281
tp6282
asS"['R.0.0', 'R.0.1']"
p6283
(lp6284
(g4598
V4*5 - 1
p6285
(lp6286
(S'R.0.0'
p6287
F4.0
g4602
g4602
tp6288
a(S'R.0.1'
p6289
F5.0
g3397
g3397
tp6290
aVpthsu
p6291
g4605
V2015-10-10 20:41:57
p6292
tp6293
asg2501
(lp6294
(V4^5-4
p6295
VP(5,4) / 4
p6296
tp6297
a(g4714
V(6^5)/5! - 6
p6298
tp6299
a(V4^5-4
p6300
V1-C(4,1)*5/4^5
p6301
tp6302
a(g6300
V1-4/(4^5)
p6303
tp6304
a(V6^5-6
p6305
V1-[1/6^5]
p6306
tp6307
a(g4201
V0.196
p6308
tp6309
a(g5174
V15/(5!(9!))
p6310
tp6311
a(g5174
V15/(5!(9!))
p6312
tp6313
a(V4^5-4
p6314
V.75
p6315
tp6316
a(g6314
V1-1/4^5
p6317
tp6318
a(g5174
V(1* (10/58) * (10/57) * (10/56) * (10/55) ) / (1 * (2/11) * (2/10) * (2/9) * (2/8) )
p6319
tp6320
a(g5174
V(1* (10/59) * (10/58) * (10/57) * (10/56) ) / (1 * (2/11) * (2/10) * (2/9) * (2/8) )
p6321
tp6322
a(g5174
V(1* (10/74) * (10/73) * (10/72) * (10/71) ) / (1 * (2/14) * (2/13) * (2/12) * (2/11) )
p6323
tp6324
a(g4406
V1-((1/4)^5)
p6325
tp6326
a(g4406
V1-4*((1/4)^5)
p6327
tp6328
a(g4406
V1-(4*((1/4)^5))
p6329
tp6330
a(g4406
V1-(((1/4)^5))
p6331
tp6332
a(g4406
V1-(((1/4)^5)/6)
p6333
tp6334
a(g4406
V1-(((1/4)^4)/6)
p6335
tp6336
a(g4406
V1-(((1/4)^4))
p6337
tp6338
a(g4406
V1-(4*((1/4)^4))
p6339
tp6340
a(g4406
V1-((1/4)^4)
p6341
tp6342
a(g4889
V[12*[(4^5)-4]]/(60!/(5!55!))
p6343
tp6344
a(V5^5-5
p6345
V1-(1/(5^4))
p6346
tp6347
a(g6345
V1-(4/(5^4))
p6348
tp6349
a(g6345
V1-(5/(5^5))
p6350
tp6351
a(g4441
V5*(16!/(5!11!))/(80!/(5!75!))
p6352
tp6353
a(g5181
V11/ [C(8,5)-1]
p6354
tp6355
asS"['R.0.1']"
p6356
(lp6357
(g5186
V6^5-13
p6358
(lp6359
(S'R.0.1'
p6360
F5.0
g3397
g3397
tp6361
aVtcuddy
p6362
g5194
V2015-10-10 20:10:49
p6363
tp6364
a(V6^5-6
p6365
V4^5 -4
p6366
(lp6367
(S'R.0.1'
p6368
F5.0
g3397
g3397
tp6369
aVhaw081
p6370
g3400
V2015-10-11 00:45:27
p6371
tp6372
a(g4099
VC(50,5)-35
p6373
(lp6374
(S'R.0.1'
p6375
F5.0
g3397
g3397
tp6376
aVaakumar
p6377
g1200
V2015-10-11 02:48:27
p6378
tp6379
a(g4106
VC(5,2) + C(5,3) + C(5,4) + C(5,5)
p6380
(lp6381
(S'R.0.1'
p6382
F5.0
g3397
VC(5,4)
p6383
tp6384
aVabasu
p6385
g3545
V2015-10-11 02:56:53
p6386
tp6387
a(g4120
VC(16,5)*6
p6388
(lp6389
(S'R.0.1'
p6390
F5.0
g3397
g3397
tp6391
aVvasharma
p6392
g1228
V2015-10-11 06:39:58
p6393
tp6394
a(g4714
V(6^4*5)/5!
p6395
(lp6396
(S'R.0.1'
p6397
F5.0
g3397
g3397
tp6398
aVjnn015
p6399
g4720
V2015-10-11 23:34:22
p6400
tp6401
a(g5344
V5*5*5*5*4
p6402
(lp6403
(S'R.0.1'
p6404
F5.0
g3397
g3397
tp6405
aVjyc018
p6406
g5352
V2015-10-12 02:40:26
p6407
tp6408
a(g4181
V(4^5) - 50
p6409
(lp6410
(S'R.0.1'
p6411
F5.0
g3397
g3397
tp6412
aVsippolit
p6413
g3784
V2015-10-12 05:23:57
p6414
tp6415
a(g4184
V[5*(16!/(11!5!))]-5-36
p6416
(lp6417
(S'R.0.1'
p6418
F5.0
g3397
g3397
tp6419
aVk5law
p6420
g5416
V2015-10-12 06:50:21
p6421
tp6422
a(g5466
V4^5-1
p6423
(lp6424
(S'R.0.1'
p6425
F5.0
g3397
g3397
tp6426
aVyypan
p6427
g5474
V2015-10-12 21:05:34
p6428
tp6429
a(g4218
V5*5*5*5*4
p6430
(lp6431
(S'R.0.1'
p6432
F5.0
g3397
g3397
tp6433
aVjnatale
p6434
(lp6435
(V$n
p6436
V80
p6437
tp6438
a(V$ns
p6439
V5
p6440
tp6441
a(V$nr
p6442
V16
p6443
tp6444
a(V$n
p6445
V80
p6446
tp6447
a(V$ns
p6448
V5
p6449
tp6450
a(V$nr
p6451
V16
p6452
tp6453
aV2015-10-13 16:26:27
p6454
tp6455
a(V5^5-5
p6456
V4^5 - 4
p6457
(lp6458
(S'R.0.1'
p6459
F5.0
g3397
g3397
tp6460
aVpvl001
p6461
(lp6462
(V$n
p6463
V55
p6464
tp6465
a(V$ns
p6466
V5
p6467
tp6468
a(V$nr
p6469
V11
p6470
tp6471
a(V$n
p6472
V55
p6473
tp6474
a(V$ns
p6475
V5
p6476
tp6477
a(V$nr
p6478
V11
p6479
tp6480
aV2015-10-13 20:01:52
p6481
tp6482
a(g5644
V5*5*5*5*4
p6483
(lp6484
(S'R.0.1'
p6485
F5.0
g3397
g3397
tp6486
aVmcatozzi
p6487
g5652
V2015-10-14 01:05:04
p6488
tp6489
a(g5644
V(5^5 -5)*13
p6490
(lp6491
(S'R.0.1'
p6492
F5.0
g3397
g3397
tp6493
aVmcatozzi
p6494
g5652
V2015-10-14 01:13:27
p6495
tp6496
a(g4277
VC(11,5)*4^5
p6497
(lp6498
(S'R.0.1'
p6499
F5.0
g3397
g3397
tp6500
aVtol003
p6501
g1584
V2015-10-14 01:13:58
p6502
tp6503
a(g4293
VC(66, 5)-C(11, 5)
p6504
(lp6505
(S'R.0.1'
p6506
F5.0
g3397
g3397
tp6507
aVv4sharma
p6508
(lp6509
(V$n
p6510
V66
p6511
tp6512
a(V$ns
p6513
V6
p6514
tp6515
a(V$nr
p6516
V11
p6517
tp6518
a(V$n
p6519
V66
p6520
tp6521
a(V$ns
p6522
V6
p6523
tp6524
a(V$nr
p6525
V11
p6526
tp6527
aV2015-10-14 01:55:32
p6528
tp6529
a(V5^5-5
p6530
V4^5 - 4
p6531
(lp6532
(S'R.0.1'
p6533
F5.0
g3397
g3397
tp6534
aVcagatep
p6535
g1678
V2015-10-14 05:44:03
p6536
tp6537
a(V6^5-6
p6538
V5*5*5*5*4
p6539
(lp6540
(S'R.0.1'
p6541
F5.0
g3397
g3397
tp6542
aVdcgriffi
p6543
(lp6544
(V$n
p6545
V84
p6546
tp6547
a(V$ns
p6548
V6
p6549
tp6550
a(V$nr
p6551
V14
p6552
tp6553
a(V$n
p6554
V84
p6555
tp6556
a(V$ns
p6557
V6
p6558
tp6559
a(V$nr
p6560
V14
p6561
tp6562
aV2015-10-14 07:37:13
p6563
tp6564
a(g4349
VC(6,5) - 4
p6565
(lp6566
(S'R.0.1'
p6567
F5.0
g3397
g3397
tp6568
aVe9brown
p6569
(lp6570
(V$n
p6571
V78
p6572
tp6573
a(V$ns
p6574
V6
p6575
tp6576
a(V$nr
p6577
V13
p6578
tp6579
a(V$n
p6580
V78
p6581
tp6582
a(V$ns
p6583
V6
p6584
tp6585
a(V$nr
p6586
V13
p6587
tp6588
aV2015-10-14 11:16:39
p6589
tp6590
a(g4349
VC(6,5) - 6
p6591
(lp6592
(S'R.0.1'
p6593
F5.0
g3397
g3397
tp6594
aVe9brown
p6595
g6570
V2015-10-14 11:17:06
p6596
tp6597
a(V5^5-5
p6598
V4^5-4
p6599
(lp6600
(S'R.0.1'
p6601
F5.0
g3397
g3397
tp6602
aVajabasa
p6603
(lp6604
(V$n
p6605
V55
p6606
tp6607
a(V$ns
p6608
V5
p6609
tp6610
a(V$nr
p6611
V11
p6612
tp6613
a(V$n
p6614
V55
p6615
tp6616
a(V$ns
p6617
V5
p6618
tp6619
a(V$nr
p6620
V11
p6621
tp6622
aV2015-10-14 18:15:19
p6623
tp6624
a(V4^5-4
p6625
V6^5 -6
p6626
(lp6627
(S'R.0.1'
p6628
F5.0
g3397
g3397
tp6629
aVnisharma
p6630
(lp6631
(V$n
p6632
V52
p6633
tp6634
a(V$ns
p6635
V4
p6636
tp6637
a(V$nr
p6638
V13
p6639
tp6640
a(V$n
p6641
V52
p6642
tp6643
a(V$ns
p6644
V4
p6645
tp6646
a(V$nr
p6647
V13
p6648
tp6649
aV2015-10-14 18:26:46
p6650
tp6651
a(g5174
V(9*5)^5 - 9*5
p6652
(lp6653
(S'R.0.1'
p6654
F5.0
g3397
g3397
tp6655
aVcstringh
p6656
g1404
V2015-10-14 19:02:29
p6657
tp6658
a(g5174
V(9*5)^4
p6659
(lp6660
(S'R.0.1'
p6661
F5.0
g3397
g3397
tp6662
aVcstringh
p6663
g1404
V2015-10-14 19:04:18
p6664
tp6665
a(g5174
V9^5 - 45
p6666
(lp6667
(S'R.0.1'
p6668
F5.0
g3397
g3397
tp6669
aVcstringh
p6670
g1404
V2015-10-14 19:06:58
p6671
tp6672
a(g5174
V9^5 - 9
p6673
(lp6674
(S'R.0.1'
p6675
F5.0
g3397
g3397
tp6676
aVcstringh
p6677
g1404
V2015-10-14 19:07:28
p6678
tp6679
a(g5174
V9^5 - 40
p6680
(lp6681
(S'R.0.1'
p6682
F5.0
g3397
g3397
tp6683
aVcstringh
p6684
g1404
V2015-10-14 19:08:02
p6685
tp6686
a(g5174
V9 * 5^5 - 5 - 45
p6687
(lp6688
(S'R.0.1'
p6689
F5.0
g3397
g3397
tp6690
aVcstringh
p6691
g1404
V2015-10-14 19:10:24
p6692
tp6693
a(g5174
VC(60,5) -45
p6694
(lp6695
(S'R.0.1'
p6696
F5.0
g3397
g3397
tp6697
aVcstringh
p6698
g1404
V2015-10-14 19:19:57
p6699
tp6700
a(g5174
VC(12,5) -45
p6701
(lp6702
(S'R.0.1'
p6703
F5.0
g3397
g3397
tp6704
aVcstringh
p6705
g1404
V2015-10-14 19:20:35
p6706
tp6707
a(g4215
VC(6,5)*14
p6708
(lp6709
(S'R.0.1'
p6710
F5.0
g3397
g3397
tp6711
aVachava
p6712
g1471
V2015-10-14 19:23:52
p6713
tp6714
a(g5174
VC(9,5) - 45
p6715
(lp6716
(S'R.0.1'
p6717
F5.0
g3397
g3397
tp6718
aVcstringh
p6719
g1404
V2015-10-14 19:24:15
p6720
tp6721
a(g5979
V5*5*5*5*4
p6722
(lp6723
(S'R.0.1'
p6724
F5.0
g3397
g3397
tp6725
aVeshung
p6726
g4026
V2015-10-14 22:36:18
p6727
tp6728
a(g4952
VC(4,1)*5 -4
p6729
(lp6730
(S'R.0.1'
p6731
F5.0
g3397
g3397
tp6732
aVhmshah
p6733
g4959
V2015-10-15 00:22:44
p6734
tp6735
a(V4^5-4
p6736
V6^5 - 4
p6737
(lp6738
(S'R.0.1'
p6739
F5.0
g3397
g3397
tp6740
aVstarinia
p6741
g3426
V2015-10-15 03:10:39
p6742
tp6743
a(g6736
V6^5 - 6
p6744
(lp6745
(S'R.0.1'
p6746
F5.0
g3397
g3397
tp6747
aVstarinia
p6748
g3426
V2015-10-15 03:10:57
p6749
tp6750
a(V5^5-5
p6751
V4^5 - 4
p6752
(lp6753
(S'R.0.1'
p6754
F5.0
g3397
g3397
tp6755
aVpnquach
p6756
g3453
V2015-10-15 03:26:08
p6757
tp6758
a(g6751
V4^5 - 1
p6759
(lp6760
(S'R.0.1'
p6761
F5.0
g3397
g3397
tp6762
aVpnquach
p6763
g3453
V2015-10-15 03:29:52
p6764
tp6765
a(g4387
V4^5-4
p6766
(lp6767
(S'R.0.1'
p6768
F5.0
g3397
g3397
tp6769
aVk4ma
p6770
g2078
V2015-10-15 04:01:46
p6771
tp6772
a(V5^5-5
p6773
V4^5-4
p6774
(lp6775
(S'R.0.1'
p6776
F5.0
g3397
g3397
tp6777
aVagoldsht
p6778
(lp6779
(V$n
p6780
V75
p6781
tp6782
a(V$ns
p6783
V5
p6784
tp6785
a(V$nr
p6786
V15
p6787
tp6788
a(V$n
p6789
V75
p6790
tp6791
a(V$ns
p6792
V5
p6793
tp6794
a(V$nr
p6795
V15
p6796
tp6797
aV2015-10-15 04:41:18
p6798
tp6799
a(V6^5-6
p6800
V(4^5) -4
p6801
(lp6802
(S'R.0.1'
p6803
F5.0
g3397
g3397
tp6804
aVskodigal
p6805
(lp6806
(V$n
p6807
V60
p6808
tp6809
a(V$ns
p6810
V6
p6811
tp6812
a(V$nr
p6813
V10
p6814
tp6815
a(V$n
p6816
V60
p6817
tp6818
a(V$ns
p6819
V6
p6820
tp6821
a(V$nr
p6822
V10
p6823
tp6824
aV2015-10-15 05:06:09
p6825
tp6826
a(V5^5-5
p6827
V5*5*5*5*4
p6828
(lp6829
(S'R.0.1'
p6830
F5.0
g3397
g3397
tp6831
aVhsc052
p6832
g3876
V2015-10-15 06:03:40
p6833
tp6834
a(V6^5-6
p6835
V4^5-1
p6836
(lp6837
(S'R.0.1'
p6838
F5.0
g3397
g3397
tp6839
aVc4du
p6840
g3480
V2015-10-15 08:02:08
p6841
tp6842
a(g4412
V(5!/(2!3!))+(5!/(3!2!))+(5!/(4!1!))+1
p6843
(lp6844
(S'R.0.1'
p6845
F5.0
g3397
V5!/(4!1!)
p6846
tp6847
aVj2phung
p6848
g2193
V2015-10-15 08:58:19
p6849
tp6850
a(g4412
V5*5*5*5*4
p6851
(lp6852
(S'R.0.1'
p6853
F5.0
g3397
g3397
tp6854
aVj2phung
p6855
g2193
V2015-10-15 09:01:11
p6856
tp6857
a(V6^5-6
p6858
V(6*5) - 6
p6859
(lp6860
(S'R.0.1'
p6861
F5.0
g3397
g3397
tp6862
aVhah008
p6863
(lp6864
(V$n
p6865
V90
p6866
tp6867
a(V$ns
p6868
V6
p6869
tp6870
a(V$nr
p6871
V15
p6872
tp6873
a(V$n
p6874
V90
p6875
tp6876
a(V$ns
p6877
V6
p6878
tp6879
a(V$nr
p6880
V15
p6881
tp6882
aV2015-10-15 18:03:16
p6883
tp6884
a(V6^5-6
p6885
V(4^5)-4
p6886
(lp6887
(S'R.0.1'
p6888
F5.0
g3397
g3397
tp6889
aVkgrozav
p6890
(lp6891
(V$n
p6892
V78
p6893
tp6894
a(V$ns
p6895
V6
p6896
tp6897
a(V$nr
p6898
V13
p6899
tp6900
a(V$n
p6901
V78
p6902
tp6903
a(V$ns
p6904
V6
p6905
tp6906
a(V$nr
p6907
V13
p6908
tp6909
aV2015-10-15 20:17:04
p6910
tp6911
a(V6^5-6
p6912
V(4^5) -4
p6913
(lp6914
(S'R.0.1'
p6915
F5.0
g3397
g3397
tp6916
aVralhadda
p6917
(lp6918
(V$n
p6919
V90
p6920
tp6921
a(V$ns
p6922
V6
p6923
tp6924
a(V$nr
p6925
V15
p6926
tp6927
a(V$n
p6928
V90
p6929
tp6930
a(V$ns
p6931
V6
p6932
tp6933
a(V$nr
p6934
V15
p6935
tp6936
aV2015-10-15 21:26:30
p6937
tp6938
a(g6151
VC(8,5) -4
p6939
(lp6940
(S'R.0.1'
p6941
F5.0
g3397
g3397
tp6942
aVdac064
p6943
g6159
V2015-10-15 22:00:52
p6944
tp6945
a(g6151
VC(8,5)-4
p6946
(lp6947
(S'R.0.1'
p6948
F5.0
g3397
g3397
tp6949
aVdac064
p6950
g6159
V2015-10-15 22:07:46
p6951
tp6952
a(g5181
VC(8,5)-1
p6953
(lp6954
(S'R.0.1'
p6955
F5.0
g3397
g3397
tp6956
aVakg009
p6957
(lp6958
(V$n
p6959
V56
p6960
tp6961
a(V$ns
p6962
V4
p6963
tp6964
a(V$nr
p6965
V14
p6966
tp6967
a(V$n
p6968
V56
p6969
tp6970
a(V$ns
p6971
V4
p6972
tp6973
a(V$nr
p6974
V14
p6975
tp6976
aV2015-10-15 22:46:28
p6977
tp6978
assV4
p6979
g2
(g3
tp6980
Rp6981
g6
(lp6982
(V(11-3)*(6^5-6)/[C(66,5)]
p6983
V62208
p6984
tp6985
asS"['R.0.0']"
p6986
(lp6987
(V(12-3)*(6^5-6)/[C(72,5)]
p6988
V9*C(6,1)^5 - 1/6^5/C(84,5)
p6989
(lp6990
(S'R.0.0'
p6991
F9.0
V12-3
p6992
g3695
tp6993
aVdan029
p6994
(lp6995
(V$n
p6996
V72
p6997
tp6998
a(V$ns
p6999
V6
p7000
tp7001
a(V$nr
p7002
V12
p7003
tp7004
a(V$n
p7005
V72
p7006
tp7007
a(V$ns
p7008
V6
p7009
tp7010
a(V$nr
p7011
V12
p7012
tp7013
aV2015-10-09 23:06:35
p7014
tp7015
a(g6988
V(9*C(6,1)^5)/C(84,5)
p7016
(lp7017
(S'R.0.0'
p7018
F9.0
V12-3
p7019
g3695
tp7020
aVdan029
p7021
g6995
V2015-10-09 23:08:13
p7022
tp7023
a(g6988
V(9*(6^5))/C(84,5)
p7024
(lp7025
(S'R.0.0'
p7026
F9.0
V12-3
p7027
g3695
tp7028
aVdan029
p7029
g6995
V2015-10-09 23:10:37
p7030
tp7031
a(V(10-3)*(6^5-6)/[C(60,5)]
p7032
V[C(7,1)*C(6,1)^5]/C(78,5)
p7033
(lp7034
(S'R.0.0'
p7035
F7.0
V10-3
p7036
VC(7,1)
p7037
tp7038
aVetemlock
p7039
g1172
V2015-10-11 01:44:00
p7040
tp7041
a(V(16-3)*(4^5-4)/[C(64,5)]
p7042
V13*4^5/C(16,5)
p7043
(lp7044
(S'R.0.0'
p7045
F13.0
V16-3
p7046
V13
p7047
tp7048
aVvqt004
p7049
g3726
V2015-10-14 05:54:21
p7050
tp7051
a(V(11-3)*(4^5-4)/[C(44,5)]
p7052
V8*C(4,1)^5 -5/ C(44,5)
p7053
(lp7054
(S'R.0.0'
p7055
F8.0
V11-3
p7056
g3752
tp7057
aVhmshah
p7058
g4959
V2015-10-15 00:24:35
p7059
tp7060
a(V(16-3)*(5^5-5)/[C(80,5)]
p7061
V13 * 5^5 - 4/C(16,5)
p7062
(lp7063
(S'R.0.0'
p7064
F13.0
V16-3
p7065
V13
p7066
tp7067
aVrraiyyan
p7068
g3812
V2015-10-15 00:58:38
p7069
tp7070
a(V(10-3)*(6^5-6)/[C(60,5)]
p7071
V7 * (6^5) -6   / C(60,5)
p7072
(lp7073
(S'R.0.0'
p7074
F7.0
V10-3
p7075
g3532
tp7076
aVjhw015
p7077
g2041
V2015-10-15 03:24:33
p7078
tp7079
a(V(11-3)*(4^5-4)/[C(44,5)]
p7080
V(8(5^4 - 4 ))/(52!/(47!5!))
p7081
(lp7082
(S'R.0.0'
p7083
F8.0
V11-3
p7084
g3752
tp7085
aVssamudra
p7086
g3848
V2015-10-15 04:11:00
p7087
tp7088
a(V(10-3)*(6^5-6)/[C(60,5)]
p7089
V7 * (4^5) -4/ C(60,5)
p7090
(lp7091
(S'R.0.0'
p7092
F7.0
V10-3
p7093
g3532
tp7094
aVskodigal
p7095
g6806
V2015-10-15 05:06:09
p7096
tp7097
a(g7089
V[7 * (6^5) -6/ C(60,5)]
p7098
(lp7099
(S'R.0.0'
p7100
F7.0
V10-3
p7101
g3532
tp7102
aVskodigal
p7103
g6806
V2015-10-15 05:07:05
p7104
tp7105
a(g7089
V[7 * (6^5) -4/ C(60,5)]
p7106
(lp7107
(S'R.0.0'
p7108
F7.0
V10-3
p7109
g3532
tp7110
aVskodigal
p7111
g6806
V2015-10-15 05:07:15
p7112
tp7113
a(V(16-3)*(4^5-4)/[C(64,5)]
p7114
V13*4^5-4/C(4*16,5)
p7115
(lp7116
(S'R.0.0'
p7117
F13.0
V16-3
p7118
V13
p7119
tp7120
aVdis003
p7121
g2249
V2015-10-15 17:33:21
p7122
tp7123
a(V(10-3)*(6^5-6)/[C(60,5)]
p7124
V7*7771/C(72,5)
p7125
(lp7126
(S'R.0.0'
p7127
F7.0
V10-3
p7128
g3532
tp7129
aVjtfrankl
p7130
(lp7131
(V$n
p7132
V60
p7133
tp7134
a(V$ns
p7135
V6
p7136
tp7137
a(V$nr
p7138
V10
p7139
tp7140
a(V$n
p7141
V60
p7142
tp7143
a(V$ns
p7144
V6
p7145
tp7146
a(V$nr
p7147
V10
p7148
tp7149
aV2015-10-15 21:37:01
p7150
tp7151
asS"['R.0.0', 'R.0.1.0.1', 'R.1']"
p7152
(lp7153
(V(13-3)*(5^5-5)/[C(65,5)]
p7154
V(10*(4^5 - 1))/(65!/(5!*60!))
p7155
(lp7156
(S'R.0.0'
p7157
F10.0
V13-3
p7158
V10
p7159
tp7160
a(S'R.0.1.0.1'
p7161
F5.0
g3397
g3397
tp7162
a(S'R.1'
p7163
I8259888
VC(65,5)
p7164
V65!/(5!*60!)
p7165
tp7166
aVpnquach
p7167
g3453
V2015-10-15 03:29:52
p7168
tp7169
asS"['R.0.0.0', 'R.1']"
p7170
(lp7171
(V(14-3)*(6^5-6)/[C(84,5)]
p7172
V(C(14,1) * (C(6,1)^4) * C(5,1)) / C(6*14,5)
p7173
(lp7174
(S'R.0.0.0'
p7175
F14.0
V14
p7176
VC(14,1)
p7177
tp7178
a(S'R.1'
p7179
I30872016
VC(84,5)
p7180
VC(6*14,5)
p7181
tp7182
aVdruble
p7183
g2618
V2015-10-13 01:57:07
p7184
tp7185
a(V(12-3)*(4^5-4)/[C(48,5)]
p7186
V(C(12,5)*C(5,4))/C(48,5)
p7187
(lp7188
(S'R.0.0.0'
p7189
F12.0
V12
p7190
V12
p7191
tp7192
a(S'R.1'
p7193
I1712304
VC(48,5)
p7194
VC(48,5)
p7195
tp7196
aVs2chaudh
p7197
g1442
V2015-10-13 05:20:36
p7198
tp7199
a(V(13-3)*(4^5-4)/[C(52,5)]
p7200
V[13*C(4, 4)*C(4, 3)*C(4, 2)]/C(52, 5)
p7201
(lp7202
(S'R.0.0.0'
p7203
F13.0
V13
p7204
V13*C(4, 4)
p7205
tp7206
a(S'R.1'
p7207
I2598960
VC(52,5)
p7208
VC(52, 5)
p7209
tp7210
aVv4zhang
p7211
g2371
V2015-10-15 07:49:02
p7212
tp7213
a(g7200
V[C(13, 5)*[C(4, 4)+C(4, 3)+C(4, 2)]]/C(52, 5)
p7214
(lp7215
(S'R.0.0.0'
p7216
F13.0
V13
p7217
V13
p7218
tp7219
a(S'R.1'
p7220
I2598960
VC(52,5)
p7221
VC(52, 5)
p7222
tp7223
aVv4zhang
p7224
g2371
V2015-10-15 19:59:44
p7225
tp7226
asS"['R.0.0', 'R.0.1.0', 'R.1']"
p7227
(lp7228
(V(12-3)*(5^5-5)/[C(60,5)]
p7229
V[9*(5**5-1)]/ [60!/(5!55!)]
p7230
(lp7231
(S'R.0.0'
p7232
F9.0
V12-3
p7233
g3695
tp7234
a(S'R.0.1.0'
p7235
F3125.0
V5^5
p7236
V5**5
p7237
tp7238
a(S'R.1'
p7239
I5461512
VC(60,5)
p7240
V60!/(5!55!)
p7241
tp7242
aVkrkelkar
p7243
g3698
V2015-10-14 04:44:17
p7244
tp7245
a(V(15-3)*(5^5-5)/[C(75,5)]
p7246
V(12*(5*5*5*5*5 -1))/C(75,5)
p7247
(lp7248
(S'R.0.0'
p7249
F12.0
V15-3
p7250
V12
p7251
tp7252
a(S'R.0.1.0'
p7253
F3125.0
V5^5
p7254
V5*5*5*5*5
p7255
tp7256
a(S'R.1'
p7257
I17259390
VC(75,5)
p7258
VC(75,5)
p7259
tp7260
aVeshung
p7261
g4026
V2015-10-14 22:37:25
p7262
tp7263
a(V(14-3)*(6^5-6)/[C(84,5)]
p7264
V11*(6^5-1)*C(84,5)
p7265
(lp7266
(S'R.0.0'
p7267
F11.0
V14-3
p7268
V11
p7269
tp7270
a(S'R.0.1.0'
p7271
F7776.0
V6^5
p7272
V6^5
p7273
tp7274
a(S'R.1'
p7275
I30872016
VC(84,5)
p7276
VC(84,5)
p7277
tp7278
aVjhc010
p7279
(lp7280
(V$n
p7281
V84
p7282
tp7283
a(V$ns
p7284
V6
p7285
tp7286
a(V$nr
p7287
V14
p7288
tp7289
a(V$n
p7290
V84
p7291
tp7292
a(V$ns
p7293
V6
p7294
tp7295
a(V$nr
p7296
V14
p7297
tp7298
aV2015-10-15 16:30:06
p7299
tp7300
asS"['R.0.0.0', 'R.0.1', 'R.1']"
p7301
(lp7302
(V(11-3)*(6^5-6)/[C(66,5)]
p7303
VC(11,5)*(6^5-6) / C(6*11,5)
p7304
(lp7305
(S'R.0.0.0'
p7306
F11.0
V11
p7307
V11
p7308
tp7309
a(S'R.0.1'
p7310
F7770.0
V6^5-6
p7311
V6^5-6
p7312
tp7313
a(S'R.1'
p7314
I8936928
VC(66,5)
p7315
VC(6*11,5)
p7316
tp7317
aVlcardoso
p7318
g1528
V2015-10-13 21:27:43
p7319
tp7320
asS"['R.1']"
p7321
(lp7322
(V(14-3)*(4^5-4)/[C(56,5)]
p7323
V(10*4^5)/(C(56,5))
p7324
(lp7325
(S'R.1'
p7326
I3819816
VC(56,5)
p7327
VC(56,5)
p7328
tp7329
aVhabuamar
p7330
g3017
V2015-10-09 06:11:17
p7331
tp7332
a(V(13-3)*(4^5-4)/[C(52,5)]
p7333
V10*4*4*4*4*3/C(52,5)
p7334
(lp7335
(S'R.1'
p7336
I2598960
VC(52,5)
p7337
VC(52,5)
p7338
tp7339
aVt1tran
p7340
(lp7341
(V$n
p7342
V52
p7343
tp7344
a(V$ns
p7345
V4
p7346
tp7347
a(V$nr
p7348
V13
p7349
tp7350
a(V$n
p7351
V52
p7352
tp7353
a(V$ns
p7354
V4
p7355
tp7356
a(V$nr
p7357
V13
p7358
tp7359
aV2015-10-10 06:30:51
p7360
tp7361
a(V(15-3)*(5^5-5)/[C(75,5)]
p7362
V31210/C(75,5)
p7363
(lp7364
(S'R.1'
p7365
I17259390
VC(75,5)
p7366
VC(75,5)
p7367
tp7368
aVr9jiang
p7369
(lp7370
(V$n
p7371
V75
p7372
tp7373
a(V$ns
p7374
V5
p7375
tp7376
a(V$nr
p7377
V15
p7378
tp7379
a(V$n
p7380
V75
p7381
tp7382
a(V$ns
p7383
V5
p7384
tp7385
a(V$nr
p7386
V15
p7387
tp7388
aV2015-10-10 07:04:19
p7389
tp7390
a(V(13-3)*(5^5-5)/[C(65,5)]
p7391
V(3120*8)/[65!/(5!60!)]
p7392
(lp7393
(S'R.1'
p7394
I8259888
VC(65,5)
p7395
V65!/(5!60!)
p7396
tp7397
aVmasaro
p7398
(lp7399
(V$n
p7400
V65
p7401
tp7402
a(V$ns
p7403
V5
p7404
tp7405
a(V$nr
p7406
V13
p7407
tp7408
a(V$n
p7409
V65
p7410
tp7411
a(V$ns
p7412
V5
p7413
tp7414
a(V$nr
p7415
V13
p7416
tp7417
aV2015-10-10 10:15:31
p7418
tp7419
a(g7391
V(3120*9)/[65!/(5!60!)]
p7420
(lp7421
(S'R.1'
p7422
I8259888
VC(65,5)
p7423
V65!/(5!60!)
p7424
tp7425
aVmasaro
p7426
g7399
V2015-10-10 10:15:51
p7427
tp7428
a(V(12-3)*(6^5-6)/[C(72,5)]
p7429
V(6^5-6)*10/C(72,5)
p7430
(lp7431
(S'R.1'
p7432
I13991544
VC(72,5)
p7433
VC(72,5)
p7434
tp7435
aVqfu
p7436
(lp7437
(V$n
p7438
V72
p7439
tp7440
a(V$ns
p7441
V6
p7442
tp7443
a(V$nr
p7444
V12
p7445
tp7446
a(V$n
p7447
V72
p7448
tp7449
a(V$ns
p7450
V6
p7451
tp7452
a(V$nr
p7453
V12
p7454
tp7455
aV2015-10-10 16:35:28
p7456
tp7457
a(g7429
V(6^5-6)*11/C(72,5)
p7458
(lp7459
(S'R.1'
p7460
I13991544
VC(72,5)
p7461
VC(72,5)
p7462
tp7463
aVqfu
p7464
g7437
V2015-10-10 16:35:59
p7465
tp7466
a(V(15-3)*(6^5-6)/[C(90,5)]
p7467
V[C(12,1)*C(6,1)*5^4]/C(6*15,5)
p7468
(lp7469
(S'R.1'
p7470
I43949268
VC(90,5)
p7471
VC(6*15,5)
p7472
tp7473
aValakamsa
p7474
g4633
V2015-10-10 20:57:00
p7475
tp7476
a(g7467
V[C(12,1)*5*C(6,1)*5^4]/C(6*15,5)
p7477
(lp7478
(S'R.1'
p7479
I43949268
VC(90,5)
p7480
VC(6*15,5)
p7481
tp7482
aValakamsa
p7483
g4633
V2015-10-10 20:59:49
p7484
tp7485
a(V(16-3)*(5^5-5)/[C(80,5)]
p7486
V40625/(80!/(5!*75!))
p7487
(lp7488
(S'R.1'
p7489
I24040016
VC(80,5)
p7490
V80!/(5!*75!)
p7491
tp7492
aVjix029
p7493
(lp7494
(V$n
p7495
V80
p7496
tp7497
a(V$ns
p7498
V5
p7499
tp7500
a(V$nr
p7501
V16
p7502
tp7503
a(V$n
p7504
V80
p7505
tp7506
a(V$ns
p7507
V5
p7508
tp7509
a(V$nr
p7510
V16
p7511
tp7512
aV2015-10-11 04:25:35
p7513
tp7514
a(V(11-3)*(4^5-4)/[C(44,5)]
p7515
V(5^4-1)*8/C(44,5)
p7516
(lp7517
(S'R.1'
p7518
I1086008
VC(44,5)
p7519
VC(44,5)
p7520
tp7521
aVawollner
p7522
g5286
V2015-10-11 20:32:44
p7523
tp7524
a(g7515
V(5^4-4)*8/C(44,5)
p7525
(lp7526
(S'R.1'
p7527
I1086008
VC(44,5)
p7528
VC(44,5)
p7529
tp7530
aVawollner
p7531
g5286
V2015-10-11 20:33:45
p7532
tp7533
a(V(16-3)*(4^5-4)/[C(64,5)]
p7534
V(13*4^5-4)/(64!/(5!(64-5)!))
p7535
(lp7536
(S'R.1'
p7537
I7624512
VC(64,5)
p7538
V64!/(5!(64-5)!)
p7539
tp7540
aVrlhagen
p7541
(lp7542
(V$n
p7543
V64
p7544
tp7545
a(V$ns
p7546
V4
p7547
tp7548
a(V$nr
p7549
V16
p7550
tp7551
a(V$n
p7552
V64
p7553
tp7554
a(V$ns
p7555
V4
p7556
tp7557
a(V$nr
p7558
V16
p7559
tp7560
aV2015-10-11 19:04:10
p7561
tp7562
a(V(12-3)*(5^5-5)/[C(60,5)]
p7563
V40/C(60,5)
p7564
(lp7565
(S'R.1'
p7566
I5461512
VC(60,5)
p7567
VC(60,5)
p7568
tp7569
aVhkhodada
p7570
(lp7571
(V$n
p7572
V60
p7573
tp7574
a(V$ns
p7575
V5
p7576
tp7577
a(V$nr
p7578
V12
p7579
tp7580
a(V$n
p7581
V60
p7582
tp7583
a(V$ns
p7584
V5
p7585
tp7586
a(V$nr
p7587
V12
p7588
tp7589
aV2015-10-12 01:02:00
p7590
tp7591
a(V(13-3)*(6^5-6)/[C(78,5)]
p7592
V(10*6*6*6*6*5)/C(13*6,5)
p7593
(lp7594
(S'R.1'
p7595
I21111090
VC(78,5)
p7596
VC(13*6,5)
p7597
tp7598
aVjblynch
p7599
(lp7600
(V$n
p7601
V78
p7602
tp7603
a(V$ns
p7604
V6
p7605
tp7606
a(V$nr
p7607
V13
p7608
tp7609
a(V$n
p7610
V78
p7611
tp7612
a(V$ns
p7613
V6
p7614
tp7615
a(V$nr
p7616
V13
p7617
tp7618
aV2015-10-12 07:24:23
p7619
tp7620
a(V(12-3)*(4^5-4)/[C(48,5)]
p7621
V4^5*4^4*3/[48!/[5!43!]]
p7622
(lp7623
(S'R.1'
p7624
I1712304
VC(48,5)
p7625
V48!/[5!43!]
p7626
tp7627
aVl8ngo
p7628
g4774
V2015-10-12 16:21:05
p7629
tp7630
a(g7621
V[9*[4^4]*3]/[48!/[5!43!]]
p7631
(lp7632
(S'R.1'
p7633
I1712304
VC(48,5)
p7634
V48!/[5!43!]
p7635
tp7636
aVl8ngo
p7637
g4774
V2015-10-12 16:32:26
p7638
tp7639
a(V(10-3)*(6^5-6)/[C(60,5)]
p7640
V[10*(1-[1/6^5])]/[60!/(5!*55!)]
p7641
(lp7642
(S'R.1'
p7643
I5461512
VC(60,5)
p7644
V60!/(5!*55!)
p7645
tp7646
aVsghouse
p7647
(lp7648
(V$n
p7649
V60
p7650
tp7651
a(V$ns
p7652
V6
p7653
tp7654
a(V$nr
p7655
V10
p7656
tp7657
a(V$n
p7658
V60
p7659
tp7660
a(V$ns
p7661
V6
p7662
tp7663
a(V$nr
p7664
V10
p7665
tp7666
aV2015-10-12 19:56:56
p7667
tp7668
a(V(16-3)*(4^5-4)/[C(64,5)]
p7669
V((4^5-4)*12)/(64!/(5!(64-5)!))
p7670
(lp7671
(S'R.1'
p7672
I7624512
VC(64,5)
p7673
V64!/(5!(64-5)!)
p7674
tp7675
aVccn001
p7676
(lp7677
(V$n
p7678
V64
p7679
tp7680
a(V$ns
p7681
V4
p7682
tp7683
a(V$nr
p7684
V16
p7685
tp7686
a(V$n
p7687
V64
p7688
tp7689
a(V$ns
p7690
V4
p7691
tp7692
a(V$nr
p7693
V16
p7694
tp7695
aV2015-10-13 01:22:20
p7696
tp7697
a(g7669
V((4^5-4)*9)/(64!/(5!(64-5)!))
p7698
(lp7699
(S'R.1'
p7700
I7624512
VC(64,5)
p7701
V64!/(5!(64-5)!)
p7702
tp7703
aVccn001
p7704
g7677
V2015-10-13 01:26:25
p7705
tp7706
a(g7172
V(14 * C(5,1)^5) / C(6*14,5)
p7707
(lp7708
(S'R.1'
p7709
I30872016
VC(84,5)
p7710
VC(6*14,5)
p7711
tp7712
aVdruble
p7713
g2618
V2015-10-13 01:52:53
p7714
tp7715
a(V(14-3)*(4^5-4)/[C(56,5)]
p7716
V(11 * 4^5-4) / (56!/51!/5!)
p7717
(lp7718
(S'R.1'
p7719
I3819816
VC(56,5)
p7720
V56!/51!/5!
p7721
tp7722
aVkrau
p7723
g1641
V2015-10-14 04:28:08
p7724
tp7725
a(g7246
V(12*5*5*5*5*4)/C(75,5)
p7726
(lp7727
(S'R.1'
p7728
I17259390
VC(75,5)
p7729
VC(75,5)
p7730
tp7731
aVeshung
p7732
g4026
V2015-10-14 22:36:18
p7733
tp7734
a(V(16-3)*(6^5-6)/[C(96,5)]
p7735
V77760/C(96,5)
p7736
(lp7737
(S'R.1'
p7738
I61124064
VC(96,5)
p7739
VC(96,5)
p7740
tp7741
aVamquinte
p7742
g1348
V2015-10-14 22:42:12
p7743
tp7744
a(V(15-3)*(4^5-4)/[C(60,5)]
p7745
V((4^5)12)/(C(60,5))
p7746
(lp7747
(S'R.1'
p7748
I5461512
VC(60,5)
p7749
VC(60,5)
p7750
tp7751
aVbakang
p7752
g4986
V2015-10-15 02:47:23
p7753
tp7754
a(V(15-3)*(4^5-4)/[C(60,5)]
p7755
V(4*(C(15,5) -10))/C(60,5)
p7756
(lp7757
(S'R.1'
p7758
I5461512
VC(60,5)
p7759
VC(60,5)
p7760
tp7761
aVstarinia
p7762
g3426
V2015-10-15 03:09:14
p7763
tp7764
a(g7755
V(10*(6^5-4))/C(60,5)
p7765
(lp7766
(S'R.1'
p7767
I5461512
VC(60,5)
p7768
VC(60,5)
p7769
tp7770
aVstarinia
p7771
g3426
V2015-10-15 03:10:39
p7772
tp7773
a(g7755
V(10*(6^5-6))/C(60,5)
p7774
(lp7775
(S'R.1'
p7776
I5461512
VC(60,5)
p7777
VC(60,5)
p7778
tp7779
aVstarinia
p7780
g3426
V2015-10-15 03:10:57
p7781
tp7782
a(V(12-3)*(4^5-4)/[C(48,5)]
p7783
V((4^5-4)*8)/(48!/(5!*43!))
p7784
(lp7785
(S'R.1'
p7786
I1712304
VC(48,5)
p7787
V48!/(5!*43!)
p7788
tp7789
aVz3meng
p7790
(lp7791
(V$n
p7792
V48
p7793
tp7794
a(V$ns
p7795
V4
p7796
tp7797
a(V$nr
p7798
V12
p7799
tp7800
a(V$n
p7801
V48
p7802
tp7803
a(V$ns
p7804
V4
p7805
tp7806
a(V$nr
p7807
V12
p7808
tp7809
aV2015-10-15 03:43:14
p7810
tp7811
a(V(15-3)*(5^5-5)/[C(75,5)]
p7812
V((C(10,2)*8*C(4,2)^2*4)*12)/C(75,5)
p7813
(lp7814
(S'R.1'
p7815
I17259390
VC(75,5)
p7816
VC(75,5)
p7817
tp7818
aVagoldsht
p7819
g6779
V2015-10-15 04:42:57
p7820
tp7821
a(V(14-3)*(5^5-5)/[C(70,5)]
p7822
V11*5*5*5*5*4/C(70,5)
p7823
(lp7824
(S'R.1'
p7825
I12103014
VC(70,5)
p7826
VC(70,5)
p7827
tp7828
aVhsc052
p7829
g3876
V2015-10-15 06:03:40
p7830
tp7831
a(V(12-3)*(4^5-4)/[C(48,5)]
p7832
V(9*4^5-1)/C(48,5)
p7833
(lp7834
(S'R.1'
p7835
I1712304
VC(48,5)
p7836
VC(48,5)
p7837
tp7838
aVnnh002
p7839
g6073
V2015-10-15 06:20:28
p7840
tp7841
a(g7832
V(9*4^5-4)/C(48,5)
p7842
(lp7843
(S'R.1'
p7844
I1712304
VC(48,5)
p7845
VC(48,5)
p7846
tp7847
aVnnh002
p7848
g6073
V2015-10-15 06:21:19
p7849
tp7850
a(V(10-3)*(6^5-6)/[C(60,5)]
p7851
V6^5*5/C(60,5)
p7852
(lp7853
(S'R.1'
p7854
I5461512
VC(60,5)
p7855
VC(60,5)
p7856
tp7857
aVjit002
p7858
(lp7859
(V$n
p7860
V60
p7861
tp7862
a(V$ns
p7863
V6
p7864
tp7865
a(V$nr
p7866
V10
p7867
tp7868
aV2015-10-15 06:31:28
p7869
tp7870
a(V(15-3)*(4^5-4)/[C(60,5)]
p7871
V(11 * 4^5 - 4) / C(60,5)
p7872
(lp7873
(S'R.1'
p7874
I5461512
VC(60,5)
p7875
VC(60,5)
p7876
tp7877
aVphodgson
p7878
(lp7879
(V$n
p7880
V60
p7881
tp7882
a(V$ns
p7883
V4
p7884
tp7885
a(V$nr
p7886
V15
p7887
tp7888
a(V$n
p7889
V60
p7890
tp7891
a(V$ns
p7892
V4
p7893
tp7894
a(V$nr
p7895
V15
p7896
tp7897
aV2015-10-15 06:58:52
p7898
tp7899
a(g7871
V(12 * 4^5 - 4) / C(60,5)
p7900
(lp7901
(S'R.1'
p7902
I5461512
VC(60,5)
p7903
VC(60,5)
p7904
tp7905
aVphodgson
p7906
g7879
V2015-10-15 07:00:03
p7907
tp7908
a(V(14-3)*(6^5-6)/[C(84,5)]
p7909
V10*(4^5-1)/C(14*6,5)
p7910
(lp7911
(S'R.1'
p7912
I30872016
VC(84,5)
p7913
VC(14*6,5)
p7914
tp7915
aVc4du
p7916
g3480
V2015-10-15 08:02:08
p7917
tp7918
a(V(11-3)*(6^5-6)/[C(66,5)]
p7919
V(6*5)/C(11*6,5)
p7920
(lp7921
(S'R.1'
p7922
I8936928
VC(66,5)
p7923
VC(11*6,5)
p7924
tp7925
aVb1green
p7926
g3923
V2015-10-15 21:40:39
p7927
tp7928
a(g7919
V(7*5)/C(11*6,5)
p7929
(lp7930
(S'R.1'
p7931
I8936928
VC(66,5)
p7932
VC(11*6,5)
p7933
tp7934
aVb1green
p7935
g3923
V2015-10-15 21:41:42
p7936
tp7937
a(V(13-3)*(4^5-4)/[C(52,5)]
p7938
V1020/(52!/(5!*47!))
p7939
(lp7940
(S'R.1'
p7941
I2598960
VC(52,5)
p7942
V52!/(5!*47!)
p7943
tp7944
aVagarango
p7945
(lp7946
(V$n
p7947
V52
p7948
tp7949
a(V$ns
p7950
V4
p7951
tp7952
a(V$nr
p7953
V13
p7954
tp7955
a(V$n
p7956
V52
p7957
tp7958
a(V$ns
p7959
V4
p7960
tp7961
a(V$nr
p7962
V13
p7963
tp7964
aV2015-10-15 22:03:44
p7965
tp7966
a(V(13-3)*(6^5-6)/[C(78,5)]
p7967
V(7*6^5)/21111090
p7968
(lp7969
(S'R.1'
p7970
I21111090
VC(78,5)
p7971
V21111090
p7972
tp7973
aVc3chung
p7974
(lp7975
(V$n
p7976
V78
p7977
tp7978
a(V$ns
p7979
V6
p7980
tp7981
a(V$nr
p7982
V13
p7983
tp7984
a(V$n
p7985
V78
p7986
tp7987
a(V$ns
p7988
V6
p7989
tp7990
a(V$nr
p7991
V13
p7992
tp7993
aV2015-10-15 22:50:57
p7994
tp7995
a(g7967
V(7*6^5)/(C(78,5))
p7996
(lp7997
(S'R.1'
p7998
I21111090
VC(78,5)
p7999
VC(78,5)
p8000
tp8001
aVc3chung
p8002
g7975
V2015-10-15 22:58:59
p8003
tp8004
asg2787
(lp8005
(V(12-3)*(5^5-5)/[C(60,5)]
p8006
V[11*5^4]/C(70,5)
p8007
tp8008
a(V(13-3)*(5^5-5)/[C(65,5)]
p8009
V(10*(4**5)-40)/C(52,5)
p8010
tp8011
a(g6988
V(9*C(6,1)^5 - 1/6^5)/C(84,5)
p8012
tp8013
a(g6988
V(9*C(6,1)^5-6)/C(84,5)
p8014
tp8015
a(g6988
V(9*(6^5-6))
p8016
tp8017
a(g6988
V(9*(6^5))
p8018
tp8019
a(V(11-3)*(4^5-4)/[C(44,5)]
p8020
V7(4^5-4)/(C(44,5))
p8021
tp8022
a(V(10-3)*(4^5-4)/[C(40,5)]
p8023
V1020-7 / (C(40,5))
p8024
tp8025
a(V(14-3)*(5^5-5)/[C(70,5)]
p8026
V(11*(5^5)-(5))/(C(80,5))
p8027
tp8028
a(V(12-3)*(6^5-6)/[C(72,5)]
p8029
V10(4^5-4)/C(52,5)
p8030
tp8031
a(V(10-3)*(4^5-4)/[C(40,5)]
p8032
V4^5 - 4 * 7 / C(52,5)
p8033
tp8034
a(V(11-3)*(6^5-6)/[C(66,5)]
p8035
V7(6^5-6)/(66!/(61!5!))
p8036
tp8037
a(V(13-3)*(5^5-5)/[C(65,5)]
p8038
V([(5^5)-5]*[15-4])/(C(15*5,5))
p8039
tp8040
a(g8038
V([(5^5)-5]*[13])/(C(15*5,5))
p8041
tp8042
a(g8038
V([(5^5)-5]*[12])/(C(15*5,5))
p8043
tp8044
a(g8038
V([(5^5)-5]*[C(15,5)])/(C(15*5,5))
p8045
tp8046
a(g8038
V([(5^5)-5]*[11])/(C(15*5,5))
p8047
tp8048
a(g7669
V((4^5-4)*10)/(52!/(5!(52-5)!))
p8049
tp8050
a(V(14-3)*(4^5-4)/[C(56,5)]
p8051
V10200/2598960
p8052
tp8053
a(g6983
V62208/66
p8054
tp8055
a(V(13-3)*(4^5-4)/[C(52,5)]
p8056
V10230/7624512
p8057
tp8058
a(V(12-3)*(5^5-5)/[C(60,5)]
p8059
V(12*C(5,4))/C(52,5)
p8060
tp8061
a(g8059
V(13*5^5-5)/C(52,5)
p8062
tp8063
a(g8059
V(9*5^5-5)/C(52,5)
p8064
tp8065
a(V(16-3)*(5^5-5)/[C(80,5)]
p8066
V12(5^5-1)/43949268
p8067
tp8068
a(g7042
V11*4^5/C(16,4)
p8069
tp8070
a(V(11-3)*(5^5-5)/[C(55,5)]
p8071
V8*(5^5)-4-35
p8072
tp8073
a(V(14-3)*(6^5-6)/[C(84,5)]
p8074
V(12*5*5*5*5*4)/(52!/(5!47!))
p8075
tp8076
a(g8074
V(12*6*6*6*6*5)/(52!/(5!47!))
p8077
tp8078
a(g8074
V(11*6*6*6*6*5)/(52!/(5!47!))
p8079
tp8080
a(V(14-3)*(6^5-6)/[C(84,5)]
p8081
VC(14,1)C(6,1)^5
p8082
tp8083
a(V(15-3)*(4^5-4)/[C(60,5)]
p8084
V(12*4^5-4)/(C(52,5))
p8085
tp8086
a(g7061
V12*5!/C(16,5)
p8087
tp8088
a(g7745
V(((C(4,2))^2)*5)/(C(52,5))
p8089
tp8090
a(g7080
V(10(5^4 - 4 ))/(52!/(47!5!))
p8091
tp8092
a(g7851
V6*5*4*3*2*10/C(78,5)
p8093
tp8094
a(V(11-3)*(6^5-6)/[C(66,5)]
p8095
V5/33
p8096
tp8097
a(V(14-3)*(5^5-5)/[C(70,5)]
p8098
V11*(5^5-5)*55!*5!/60!
p8099
tp8100
a(V(11-3)*(4^5-4)/[C(44,5)]
p8101
V(C(13,2)*11*C(4,2)/2*4)/C(52,5)
p8102
tp8103
asS"['R.0.0.0']"
p8104
(lp8105
(V(13-3)*(5^5-5)/[C(65,5)]
p8106
V13*4*3/(52!/(5!*47!))
p8107
(lp8108
(S'R.0.0.0'
p8109
F13.0
V13
p8110
V13
p8111
tp8112
aVedcole
p8113
g2648
V2015-10-14 02:16:48
p8114
tp8115
asS"['R.0.1', 'R.1']"
p8116
(lp8117
(V(11-3)*(6^5-6)/[C(66,5)]
p8118
V[7*(6^5-6)] / C(66,5)
p8119
(lp8120
(S'R.0.1'
p8121
F7770.0
V6^5-6
p8122
V6^5-6
p8123
tp8124
a(S'R.1'
p8125
I8936928
VC(66,5)
p8126
VC(66,5)
p8127
tp8128
aVm8woo
p8129
g1079
V2015-10-10 01:32:08
p8130
tp8131
a(V(16-3)*(4^5-4)/[C(64,5)]
p8132
V12 * (4^5 - 4) / C(4*16,5)
p8133
(lp8134
(S'R.0.1'
p8135
F1020.0
V4^5-4
p8136
V4^5 - 4
p8137
tp8138
a(S'R.1'
p8139
I7624512
VC(64,5)
p8140
VC(4*16,5)
p8141
tp8142
aVsyip
p8143
g3066
V2015-10-11 23:55:53
p8144
tp8145
a(V(14-3)*(5^5-5)/[C(70,5)]
p8146
V14 * (5^5-5)/C(70,5)
p8147
(lp8148
(S'R.0.1'
p8149
F3120.0
V5^5-5
p8150
V5^5-5
p8151
tp8152
a(S'R.1'
p8153
I12103014
VC(70,5)
p8154
VC(70,5)
p8155
tp8156
aVacvuong
p8157
g3124
V2015-10-13 04:58:34
p8158
tp8159
a(g7303
V11*(6^5-6) / C(6*11,5)
p8160
(lp8161
(S'R.0.1'
p8162
F7770.0
V6^5-6
p8163
V6^5-6
p8164
tp8165
a(S'R.1'
p8166
I8936928
VC(66,5)
p8167
VC(6*11,5)
p8168
tp8169
aVlcardoso
p8170
g1528
V2015-10-13 21:25:26
p8171
tp8172
a(g7303
V7*(6^5-6) / C(6*11,5)
p8173
(lp8174
(S'R.0.1'
p8175
F7770.0
V6^5-6
p8176
V6^5-6
p8177
tp8178
a(S'R.1'
p8179
I8936928
VC(66,5)
p8180
VC(6*11,5)
p8181
tp8182
aVlcardoso
p8183
g1528
V2015-10-13 21:36:37
p8184
tp8185
a(V(11-3)*(5^5-5)/[C(55,5)]
p8186
V((10)*(5^5-5))/(55!/(5!50!))
p8187
(lp8188
(S'R.0.1'
p8189
F3120.0
V5^5-5
p8190
V5^5-5
p8191
tp8192
a(S'R.1'
p8193
I3478761
VC(55,5)
p8194
V55!/(5!50!)
p8195
tp8196
aVw4shin
p8197
g2766
V2015-10-15 00:07:38
p8198
tp8199
a(g8186
V((12)*(5^5-5))/(55!/(5!50!))
p8200
(lp8201
(S'R.0.1'
p8202
F3120.0
V5^5-5
p8203
V5^5-5
p8204
tp8205
a(S'R.1'
p8206
I3478761
VC(55,5)
p8207
V55!/(5!50!)
p8208
tp8209
aVw4shin
p8210
g2766
V2015-10-15 00:08:25
p8211
tp8212
a(g8186
V(7*(5^5-5))/(55!/(50!5!))
p8213
(lp8214
(S'R.0.1'
p8215
F3120.0
V5^5-5
p8216
V5^5-5
p8217
tp8218
a(S'R.1'
p8219
I3478761
VC(55,5)
p8220
V55!/(50!5!)
p8221
tp8222
aVw4shin
p8223
g2766
V2015-10-15 00:12:58
p8224
tp8225
a(g8186
V(6*(5^5-5))/(55!/(50!5!))
p8226
(lp8227
(S'R.0.1'
p8228
F3120.0
V5^5-5
p8229
V5^5-5
p8230
tp8231
a(S'R.1'
p8232
I3478761
VC(55,5)
p8233
V55!/(50!5!)
p8234
tp8235
aVw4shin
p8236
g2766
V2015-10-15 00:13:30
p8237
tp8238
a(V(16-3)*(6^5-6)/[C(96,5)]
p8239
V((12)*((6^5) - (6)))/(61124064)
p8240
(lp8241
(S'R.0.1'
p8242
F7770.0
V6^5-6
p8243
V(6^5) - (6)
p8244
tp8245
a(S'R.1'
p8246
I61124064
VC(96,5)
p8247
V61124064
p8248
tp8249
aVanl114
p8250
g3312
V2015-10-15 08:35:48
p8251
tp8252
a(V(14-3)*(5^5-5)/[C(70,5)]
p8253
V[(10)*(5^5-5)]/C(70,5)
p8254
(lp8255
(S'R.0.1'
p8256
F3120.0
V5^5-5
p8257
V5^5-5
p8258
tp8259
a(S'R.1'
p8260
I12103014
VC(70,5)
p8261
VC(70,5)
p8262
tp8263
aValhung
p8264
g3370
V2015-10-15 20:15:46
p8265
tp8266
asS"['R.0.0', 'R.1']"
p8267
(lp8268
(V(16-3)*(5^5-5)/[C(80,5)]
p8269
V13*5/C(80,5)
p8270
(lp8271
(S'R.0.0'
p8272
F13.0
V16-3
p8273
V13
p8274
tp8275
a(S'R.1'
p8276
I24040016
VC(80,5)
p8277
VC(80,5)
p8278
tp8279
aVj5phung
p8280
g1023
V2015-10-09 19:02:51
p8281
tp8282
a(V(13-3)*(4^5-4)/[C(52,5)]
p8283
V(10((5^4)-5))/(C(52,5))
p8284
(lp8285
(S'R.0.0'
p8286
F10.0
V13-3
p8287
V10
p8288
tp8289
a(S'R.1'
p8290
I2598960
VC(52,5)
p8291
VC(52,5)
p8292
tp8293
aVabasu
p8294
g3545
V2015-10-11 04:48:15
p8295
tp8296
a(g8283
V(10((5^4)-4))/(C(52,5))
p8297
(lp8298
(S'R.0.0'
p8299
F10.0
V13-3
p8300
V10
p8301
tp8302
a(S'R.1'
p8303
I2598960
VC(52,5)
p8304
VC(52,5)
p8305
tp8306
aVabasu
p8307
g3545
V2015-10-11 04:48:29
p8308
tp8309
a(V(16-3)*(4^5-4)/[C(64,5)]
p8310
V13*4^5/(C(64,5))
p8311
(lp8312
(S'R.0.0'
p8313
F13.0
V16-3
p8314
V13
p8315
tp8316
a(S'R.1'
p8317
I7624512
VC(64,5)
p8318
VC(64,5)
p8319
tp8320
aVwhcombs
p8321
g3640
V2015-10-13 04:22:18
p8322
tp8323
a(V(13-3)*(4^5-4)/[C(52,5)]
p8324
V(10*4^5)/[52!/(5!*47!)]
p8325
(lp8326
(S'R.0.0'
p8327
F10.0
V13-3
p8328
V10
p8329
tp8330
a(S'R.1'
p8331
I2598960
VC(52,5)
p8332
V52!/(5!*47!)
p8333
tp8334
aVapokhare
p8335
g3669
V2015-10-13 19:10:59
p8336
tp8337
a(g7229
V[9*(5**4*4)]/ [60!/(5!55!)]
p8338
(lp8339
(S'R.0.0'
p8340
F9.0
V12-3
p8341
g3695
tp8342
a(S'R.1'
p8343
I5461512
VC(60,5)
p8344
V60!/(5!55!)
p8345
tp8346
aVkrkelkar
p8347
g3698
V2015-10-14 04:45:04
p8348
tp8349
a(V(13-3)*(6^5-6)/[C(78,5)]
p8350
V(10*6^5)C(6*13, 5)
p8351
(lp8352
(S'R.0.0'
p8353
F10.0
V13-3
p8354
V10
p8355
tp8356
a(S'R.1'
p8357
I21111090
VC(78,5)
p8358
VC(6*13, 5)
p8359
tp8360
aVkalang
p8361
g1947
V2015-10-14 23:11:25
p8362
tp8363
a(g8350
V(10*6^5)C((6*13), 5)
p8364
(lp8365
(S'R.0.0'
p8366
F10.0
V13-3
p8367
V10
p8368
tp8369
a(S'R.1'
p8370
I21111090
VC(78,5)
p8371
VC((6*13), 5)
p8372
tp8373
aVkalang
p8374
g1947
V2015-10-14 23:11:41
p8375
tp8376
a(g7822
V11*(5^4-5)/C(70,5)
p8377
(lp8378
(S'R.0.0'
p8379
F11.0
V14-3
p8380
V11
p8381
tp8382
a(S'R.1'
p8383
I12103014
VC(70,5)
p8384
VC(70,5)
p8385
tp8386
aVhsc052
p8387
g3876
V2015-10-15 06:09:29
p8388
tp8389
a(g7919
V(8*5)/C(11*6,5)
p8390
(lp8391
(S'R.0.0'
p8392
F8.0
V11-3
p8393
g3752
tp8394
a(S'R.1'
p8395
I8936928
VC(66,5)
p8396
VC(11*6,5)
p8397
tp8398
aVb1green
p8399
g3923
V2015-10-15 21:42:37
p8400
tp8401
asS"['R.0', 'R.1.0']"
p8402
(lp8403
(V(15-3)*(4^5-4)/[C(60,5)]
p8404
VC(12,1)*(4^5 - 4)/C(60,15)
p8405
(lp8406
(S'R.0'
p8407
F12240.0
V(15-3)*(4^5-4)
p8408
VC(12,1)*(4^5 - 4)
p8409
tp8410
a(S'R.1.0'
p8411
F60.0
V60
p8412
V60
p8413
tp8414
aVppanourg
p8415
(lp8416
(V$n
p8417
V60
p8418
tp8419
a(V$ns
p8420
V4
p8421
tp8422
a(V$nr
p8423
V15
p8424
tp8425
a(V$n
p8426
V60
p8427
tp8428
a(V$ns
p8429
V4
p8430
tp8431
a(V$nr
p8432
V15
p8433
tp8434
aV2015-10-15 20:01:52
p8435
tp8436
a(g8404
VC(12,1)*(4^5 - 4)/P(60,15)
p8437
(lp8438
(S'R.0'
p8439
F12240.0
V(15-3)*(4^5-4)
p8440
VC(12,1)*(4^5 - 4)
p8441
tp8442
a(S'R.1.0'
p8443
F60.0
V60
p8444
V60
p8445
tp8446
aVppanourg
p8447
g8416
V2015-10-15 20:03:11
p8448
tp8449
a(V(12-3)*(4^5-4)/[C(48,5)]
p8450
V9*(4^5-4)/C(48,4)
p8451
(lp8452
(S'R.0'
p8453
F9180.0
V(12-3)*(4^5-4)
p8454
V9*(4^5-4)
p8455
tp8456
a(S'R.1.0'
p8457
F48.0
V48
p8458
V48
p8459
tp8460
aVbpandayk
p8461
(lp8462
(V$n
p8463
V48
p8464
tp8465
a(V$ns
p8466
V4
p8467
tp8468
a(V$nr
p8469
V12
p8470
tp8471
a(V$n
p8472
V48
p8473
tp8474
a(V$ns
p8475
V4
p8476
tp8477
a(V$nr
p8478
V12
p8479
tp8480
aV2015-10-15 22:01:59
p8481
tp8482
a(g8450
V9*(4^5-4)/[C(48,4)]
p8483
(lp8484
(S'R.0'
p8485
F9180.0
V(12-3)*(4^5-4)
p8486
V9*(4^5-4)
p8487
tp8488
a(S'R.1.0'
p8489
F48.0
V48
p8490
V48
p8491
tp8492
aVbpandayk
p8493
g8462
V2015-10-15 22:02:14
p8494
tp8495
a(g8450
V(9*(4^5-4))/[C(48,4)]
p8496
(lp8497
(S'R.0'
p8498
F9180.0
V(12-3)*(4^5-4)
p8499
V9*(4^5-4)
p8500
tp8501
a(S'R.1.0'
p8502
F48.0
V48
p8503
V48
p8504
tp8505
aVbpandayk
p8506
g8462
V2015-10-15 22:02:54
p8507
tp8508
asS"['R.0']"
p8509
(lp8510
(g8006
V[9*(5^5-5)]/C(70,5)
p8511
(lp8512
(S'R.0'
p8513
F28080.0
V(12-3)*(5^5-5)
p8514
V9*(5^5-5)
p8515
tp8516
aVtdurrer
p8517
g2980
V2015-10-09 04:54:33
p8518
tp8519
a(g8009
V(10*(5**5)-50)/C(52,5)
p8520
(lp8521
(S'R.0'
p8522
F31200.0
V(13-3)*(5^5-5)
p8523
V10*(5**5)-50
p8524
tp8525
aVzhw110
p8526
(lp8527
(V$n
p8528
V65
p8529
tp8530
a(V$ns
p8531
V5
p8532
tp8533
a(V$nr
p8534
V13
p8535
tp8536
a(V$n
p8537
V65
p8538
tp8539
a(V$ns
p8540
V5
p8541
tp8542
a(V$nr
p8543
V13
p8544
tp8545
aV2015-10-09 05:16:21
p8546
tp8547
a(g6988
V(9*(6^5-6))/C(84,5)
p8548
(lp8549
(S'R.0'
p8550
F69930.0
V(12-3)*(6^5-6)
p8551
V9*(6^5-6)
p8552
tp8553
aVdan029
p8554
g6995
V2015-10-09 23:09:41
p8555
tp8556
a(g6988
V(9*(C(6,1)^5 - 6))/C(84,5)
p8557
(lp8558
(S'R.0'
p8559
F69930.0
V(12-3)*(6^5-6)
p8560
V9*(C(6,1)^5 - 6)
p8561
tp8562
aVdan029
p8563
g6995
V2015-10-09 23:13:16
p8564
tp8565
a(V(11-3)*(6^5-6)/[C(66,5)]
p8566
V8 * (6^5 - 6) / C(16*11, 5)
p8567
(lp8568
(S'R.0'
p8569
F62160.0
V(11-3)*(6^5-6)
p8570
V8 * (6^5 - 6)
p8571
tp8572
aVbmilton
p8573
(lp8574
(V$n
p8575
V66
p8576
tp8577
a(V$ns
p8578
V6
p8579
tp8580
a(V$nr
p8581
V11
p8582
tp8583
a(V$n
p8584
V66
p8585
tp8586
a(V$ns
p8587
V6
p8588
tp8589
a(V$nr
p8590
V11
p8591
tp8592
aV2015-10-09 23:21:06
p8593
tp8594
a(g8026
V(11*((5^5)-(5)))/(C(80,5))
p8595
(lp8596
(S'R.0'
p8597
F34320.0
V(14-3)*(5^5-5)
p8598
V11*((5^5)-(5))
p8599
tp8600
aVganajera
p8601
(lp8602
(V$n
p8603
V70
p8604
tp8605
a(V$ns
p8606
V5
p8607
tp8608
a(V$nr
p8609
V14
p8610
tp8611
a(V$n
p8612
V70
p8613
tp8614
a(V$ns
p8615
V5
p8616
tp8617
a(V$nr
p8618
V14
p8619
tp8620
aV2015-10-10 23:27:41
p8621
tp8622
a(V(13-3)*(5^5-5)/[C(65,5)]
p8623
V31200/((75)!/(5!(75-5)!))
p8624
(lp8625
(S'R.0'
p8626
F31200.0
V(13-3)*(5^5-5)
p8627
V31200
p8628
tp8629
aVtpmach
p8630
(lp8631
(V$n
p8632
V65
p8633
tp8634
a(V$ns
p8635
V5
p8636
tp8637
a(V$nr
p8638
V13
p8639
tp8640
a(V$n
p8641
V65
p8642
tp8643
a(V$ns
p8644
V5
p8645
tp8646
a(V$nr
p8647
V13
p8648
tp8649
aV2015-10-11 01:51:15
p8650
tp8651
a(g8032
V(4^5 - 4) * 7 / C(52,5)
p8652
(lp8653
(S'R.0'
p8654
F7140.0
V(10-3)*(4^5-4)
p8655
V(4^5 - 4) * 7
p8656
tp8657
aVv3doan
p8658
(lp8659
(V$n
p8660
V40
p8661
tp8662
a(V$ns
p8663
V4
p8664
tp8665
a(V$nr
p8666
V10
p8667
tp8668
a(V$n
p8669
V40
p8670
tp8671
a(V$ns
p8672
V4
p8673
tp8674
a(V$nr
p8675
V10
p8676
tp8677
aV2015-10-11 03:29:26
p8678
tp8679
a(V(10-3)*(4^5-4)/[C(40,5)]
p8680
V[7 * (4^5 - 4)]/[10^5]
p8681
(lp8682
(S'R.0'
p8683
F7140.0
V(10-3)*(4^5-4)
p8684
V7 * (4^5 - 4)
p8685
tp8686
aVatorr
p8687
(lp8688
(V$n
p8689
V40
p8690
tp8691
a(V$ns
p8692
V4
p8693
tp8694
a(V$nr
p8695
V10
p8696
tp8697
a(V$n
p8698
V40
p8699
tp8700
a(V$ns
p8701
V4
p8702
tp8703
a(V$nr
p8704
V10
p8705
tp8706
aV2015-10-11 03:47:21
p8707
tp8708
a(V(16-3)*(6^5-6)/[C(96,5)]
p8709
V[(6^5-6)*13]/C(52,2)
p8710
(lp8711
(S'R.0'
p8712
F101010.0
V(16-3)*(6^5-6)
p8713
V(6^5-6)*13
p8714
tp8715
aVvasharma
p8716
g1228
V2015-10-11 06:41:00
p8717
tp8718
a(g8709
V[(6^5-6)*13]/C(52,5)
p8719
(lp8720
(S'R.0'
p8721
F101010.0
V(16-3)*(6^5-6)
p8722
V(6^5-6)*13
p8723
tp8724
aVvasharma
p8725
g1228
V2015-10-11 06:41:07
p8726
tp8727
a(g8709
V[(6^5-6)*13]/C(66,5)
p8728
(lp8729
(S'R.0'
p8730
F101010.0
V(16-3)*(6^5-6)
p8731
V(6^5-6)*13
p8732
tp8733
aVvasharma
p8734
g1228
V2015-10-11 06:41:15
p8735
tp8736
a(V(12-3)*(4^5-4)/[C(48,5)]
p8737
V(9*(4^5-4))/(48!/5!43!)
p8738
(lp8739
(S'R.0'
p8740
F9180.0
V(12-3)*(4^5-4)
p8741
V9*(4^5-4)
p8742
tp8743
aVdjk006
p8744
(lp8745
(V$n
p8746
V48
p8747
tp8748
a(V$ns
p8749
V4
p8750
tp8751
a(V$nr
p8752
V12
p8753
tp8754
a(V$n
p8755
V48
p8756
tp8757
a(V$ns
p8758
V4
p8759
tp8760
a(V$nr
p8761
V12
p8762
tp8763
aV2015-10-11 08:50:59
p8764
tp8765
a(V(10-3)*(5^5-5)/[C(50,5)]
p8766
V(7*(5^5-5))/(50!/((50-5)!-5!))
p8767
(lp8768
(S'R.0'
p8769
F21840.0
V(10-3)*(5^5-5)
p8770
V7*(5^5-5)
p8771
tp8772
aVkthui
p8773
(lp8774
(V$n
p8775
V50
p8776
tp8777
a(V$ns
p8778
V5
p8779
tp8780
a(V$nr
p8781
V10
p8782
tp8783
a(V$n
p8784
V50
p8785
tp8786
a(V$ns
p8787
V5
p8788
tp8789
a(V$nr
p8790
V10
p8791
tp8792
aV2015-10-11 09:08:50
p8793
tp8794
a(V(11-3)*(4^5-4)/[C(44,5)]
p8795
V8*1020/(52!(5!*47!))
p8796
(lp8797
(S'R.0'
p8798
F8160.0
V(11-3)*(4^5-4)
p8799
V8*1020
p8800
tp8801
aVmtrafeca
p8802
(lp8803
(V$n
p8804
V44
p8805
tp8806
a(V$ns
p8807
V4
p8808
tp8809
a(V$nr
p8810
V11
p8811
tp8812
a(V$n
p8813
V44
p8814
tp8815
a(V$ns
p8816
V4
p8817
tp8818
a(V$nr
p8819
V11
p8820
tp8821
aV2015-10-11 21:46:13
p8822
tp8823
a(g8795
V8*1020/(52!/(5!*47!))
p8824
(lp8825
(S'R.0'
p8826
F8160.0
V(11-3)*(4^5-4)
p8827
V8*1020
p8828
tp8829
aVmtrafeca
p8830
g8803
V2015-10-11 21:46:26
p8831
tp8832
a(V(10-3)*(5^5-5)/[C(50,5)]
p8833
V7*(5*5*5*5*5-5)/(60!/5!/55!)
p8834
(lp8835
(S'R.0'
p8836
F21840.0
V(10-3)*(5^5-5)
p8837
V7*(5*5*5*5*5-5)
p8838
tp8839
aVs1powers
p8840
(lp8841
(V$n
p8842
V50
p8843
tp8844
a(V$ns
p8845
V5
p8846
tp8847
a(V$nr
p8848
V10
p8849
tp8850
a(V$n
p8851
V50
p8852
tp8853
a(V$ns
p8854
V5
p8855
tp8856
a(V$nr
p8857
V10
p8858
tp8859
aV2015-10-11 19:55:01
p8860
tp8861
a(g8833
V7*(5*5*5*5*5-5)/(60!/(5!55!))
p8862
(lp8863
(S'R.0'
p8864
F21840.0
V(10-3)*(5^5-5)
p8865
V7*(5*5*5*5*5-5)
p8866
tp8867
aVs1powers
p8868
g8841
V2015-10-11 19:55:17
p8869
tp8870
a(g8833
V7*(5*5*5*5*5-5)/[60!/(5!55!)]
p8871
(lp8872
(S'R.0'
p8873
F21840.0
V(10-3)*(5^5-5)
p8874
V7*(5*5*5*5*5-5)
p8875
tp8876
aVs1powers
p8877
g8841
V2015-10-11 19:57:02
p8878
tp8879
a(g8833
V21840/5461512
p8880
(lp8881
(S'R.0'
p8882
F21840.0
V(10-3)*(5^5-5)
p8883
V21840
p8884
tp8885
aVs1powers
p8886
g8841
V2015-10-11 19:57:51
p8887
tp8888
a(V(10-3)*(5^5-5)/[C(50,5)]
p8889
V7*(5**5-5)/C(60,5)
p8890
(lp8891
(S'R.0'
p8892
F21840.0
V(10-3)*(5^5-5)
p8893
V7*(5**5-5)
p8894
tp8895
aVjyc018
p8896
g5352
V2015-10-12 02:46:03
p8897
tp8898
a(g8038
V([(5^5)-5]*[10])/(C(15*5,5))
p8899
(lp8900
(S'R.0'
p8901
F31200.0
V(13-3)*(5^5-5)
p8902
V[(5^5)-5]*[10]
p8903
tp8904
aVttimmons
p8905
(lp8906
(V$n
p8907
V65
p8908
tp8909
a(V$ns
p8910
V5
p8911
tp8912
a(V$nr
p8913
V13
p8914
tp8915
a(V$n
p8916
V65
p8917
tp8918
a(V$ns
p8919
V5
p8920
tp8921
a(V$nr
p8922
V13
p8923
tp8924
aV2015-10-12 19:24:10
p8925
tp8926
a(V(14-3)*(6^5-6)/[C(84,5)]
p8927
V(7770*11)/(84!/5!79!)
p8928
(lp8929
(S'R.0'
p8930
F85470.0
V(14-3)*(6^5-6)
p8931
V7770*11
p8932
tp8933
aVzig006
p8934
(lp8935
(V$n
p8936
V84
p8937
tp8938
a(V$ns
p8939
V6
p8940
tp8941
a(V$nr
p8942
V14
p8943
tp8944
a(V$n
p8945
V84
p8946
tp8947
a(V$ns
p8948
V6
p8949
tp8950
a(V$nr
p8951
V14
p8952
tp8953
aV2015-10-12 23:48:47
p8954
tp8955
a(V(16-3)*(5^5-5)/[C(80,5)]
p8956
V[13*[(5^5)-5]]/[55!/(5!50!)]
p8957
(lp8958
(S'R.0'
p8959
F40560.0
V(16-3)*(5^5-5)
p8960
V13*[(5^5)-5]
p8961
tp8962
aVk5law
p8963
g5416
V2015-10-13 05:21:30
p8964
tp8965
a(g8056
V10200/7624512
p8966
(lp8967
(S'R.0'
p8968
F10200.0
V(13-3)*(4^5-4)
p8969
V10200
p8970
tp8971
aVwmiao
p8972
(lp8973
(V$n
p8974
V52
p8975
tp8976
a(V$ns
p8977
V4
p8978
tp8979
a(V$nr
p8980
V13
p8981
tp8982
a(V$n
p8983
V52
p8984
tp8985
a(V$ns
p8986
V4
p8987
tp8988
a(V$nr
p8989
V13
p8990
tp8991
aV2015-10-13 23:46:15
p8992
tp8993
a(g8059
V(9*(5^5-5))/C(52,5)
p8994
(lp8995
(S'R.0'
p8996
F28080.0
V(12-3)*(5^5-5)
p8997
V9*(5^5-5)
p8998
tp8999
aVhaliew
p9000
(lp9001
(V$n
p9002
V60
p9003
tp9004
a(V$ns
p9005
V5
p9006
tp9007
a(V$nr
p9008
V12
p9009
tp9010
a(V$n
p9011
V60
p9012
tp9013
a(V$ns
p9014
V5
p9015
tp9016
a(V$nr
p9017
V12
p9018
tp9019
aV2015-10-14 00:30:13
p9020
tp9021
a(V(16-3)*(5^5-5)/[C(80,5)]
p9022
V((5^5 -5)*13)/C(55,5)
p9023
(lp9024
(S'R.0'
p9025
F40560.0
V(16-3)*(5^5-5)
p9026
V(5^5 -5)*13
p9027
tp9028
aVmcatozzi
p9029
g5652
V2015-10-14 01:18:50
p9030
tp9031
a(V(12-3)*(5^5-5)/[C(60,5)]
p9032
V[(5^5 - 5)*9]/[60!/(60-5)!5!]
p9033
(lp9034
(S'R.0'
p9035
F28080.0
V(12-3)*(5^5-5)
p9036
V(5^5 - 5)*9
p9037
tp9038
aVdlt009
p9039
(lp9040
(V$n
p9041
V60
p9042
tp9043
a(V$ns
p9044
V5
p9045
tp9046
a(V$nr
p9047
V12
p9048
tp9049
a(V$n
p9050
V60
p9051
tp9052
a(V$ns
p9053
V5
p9054
tp9055
a(V$nr
p9056
V12
p9057
tp9058
aV2015-10-14 02:12:14
p9059
tp9060
a(V(10-3)*(5^5-5)/[C(50,5)]
p9061
V7 * (5^5 - 5) / 8259888
p9062
(lp9063
(S'R.0'
p9064
F21840.0
V(10-3)*(5^5-5)
p9065
V7 * (5^5 - 5)
p9066
tp9067
aVahh002
p9068
g3181
V2015-10-14 03:47:10
p9069
tp9070
a(V(15-3)*(6^5-6)/[C(90,5)]
p9071
V12*(6^5 - 6)/((6*15)!/(5!*(6*5-5)!))
p9072
(lp9073
(S'R.0'
p9074
F93240.0
V(15-3)*(6^5-6)
p9075
V12*(6^5 - 6)
p9076
tp9077
aVggaddi
p9078
(lp9079
(V$n
p9080
V90
p9081
tp9082
a(V$ns
p9083
V6
p9084
tp9085
a(V$nr
p9086
V15
p9087
tp9088
a(V$n
p9089
V90
p9090
tp9091
a(V$ns
p9092
V6
p9093
tp9094
a(V$nr
p9095
V15
p9096
tp9097
aV2015-10-14 04:23:16
p9098
tp9099
a(g9071
V[12*(6^5 - 6)]/(90!/85!)
p9100
(lp9101
(S'R.0'
p9102
F93240.0
V(15-3)*(6^5-6)
p9103
V12*(6^5 - 6)
p9104
tp9105
aVggaddi
p9106
g9079
V2015-10-14 04:24:13
p9107
tp9108
a(V(13-3)*(6^5-6)/[C(78,5)]
p9109
V77700/43949268
p9110
(lp9111
(S'R.0'
p9112
F77700.0
V(13-3)*(6^5-6)
p9113
V77700
p9114
tp9115
aVfichoi
p9116
(lp9117
(V$n
p9118
V78
p9119
tp9120
a(V$ns
p9121
V6
p9122
tp9123
a(V$nr
p9124
V13
p9125
tp9126
a(V$n
p9127
V78
p9128
tp9129
a(V$ns
p9130
V6
p9131
tp9132
a(V$nr
p9133
V13
p9134
tp9135
aV2015-10-14 04:32:39
p9136
tp9137
a(V(13-3)*(5^5-5)/[C(65,5)]
p9138
V[10*[(5^5) - 5]]/C(80,5)
p9139
(lp9140
(S'R.0'
p9141
F31200.0
V(13-3)*(5^5-5)
p9142
V10*[(5^5) - 5]
p9143
tp9144
aVl5han
p9145
(lp9146
(V$n
p9147
V65
p9148
tp9149
a(V$ns
p9150
V5
p9151
tp9152
a(V$nr
p9153
V13
p9154
tp9155
a(V$n
p9156
V65
p9157
tp9158
a(V$ns
p9159
V5
p9160
tp9161
a(V$nr
p9162
V13
p9163
tp9164
aV2015-10-14 05:00:04
p9165
tp9166
a(V(10-3)*(5^5-5)/[C(50,5)]
p9167
V(7 * (5^5 - 5))/(50*49*48*47*46)
p9168
(lp9169
(S'R.0'
p9170
F21840.0
V(10-3)*(5^5-5)
p9171
V7 * (5^5 - 5)
p9172
tp9173
aVcagatep
p9174
g1678
V2015-10-14 05:45:31
p9175
tp9176
a(V(15-3)*(5^5-5)/[C(75,5)]
p9177
V(15-3)*(5^5-5)/C(55,5)
p9178
(lp9179
(S'R.0'
p9180
F37440.0
V(15-3)*(5^5-5)
p9181
V(15-3)*(5^5-5)
p9182
tp9183
aVjjchung
p9184
g1853
V2015-10-14 20:24:49
p9185
tp9186
a(V(13-3)*(4^5-4)/[C(52,5)]
p9187
V10200/5461512
p9188
(lp9189
(S'R.0'
p9190
F10200.0
V(13-3)*(4^5-4)
p9191
V10200
p9192
tp9193
aVc1wei
p9194
g5903
V2015-10-14 21:00:05
p9195
tp9196
a(V(13-3)*(5^5-5)/[C(65,5)]
p9197
V31200/(80!/(5!*75!))
p9198
(lp9199
(S'R.0'
p9200
F31200.0
V(13-3)*(5^5-5)
p9201
V31200
p9202
tp9203
aVlpettit
p9204
g3228
V2015-10-14 21:14:43
p9205
tp9206
a(V(14-3)*(4^5-4)/[C(56,5)]
p9207
V11*(4^5-4)/C(52,5)
p9208
(lp9209
(S'R.0'
p9210
F11220.0
V(14-3)*(4^5-4)
p9211
V11*(4^5-4)
p9212
tp9213
aVbtn023
p9214
(lp9215
(V$n
p9216
V56
p9217
tp9218
a(V$ns
p9219
V4
p9220
tp9221
a(V$nr
p9222
V14
p9223
tp9224
a(V$n
p9225
V56
p9226
tp9227
a(V$ns
p9228
V4
p9229
tp9230
a(V$nr
p9231
V14
p9232
tp9233
aV2015-10-14 22:14:23
p9234
tp9235
a(g8084
V(12*(4^5-4))/(C(52,5))
p9236
(lp9237
(S'R.0'
p9238
F12240.0
V(15-3)*(4^5-4)
p9239
V12*(4^5-4)
p9240
tp9241
aVflhernan
p9242
(lp9243
(V$n
p9244
V60
p9245
tp9246
a(V$ns
p9247
V4
p9248
tp9249
a(V$nr
p9250
V15
p9251
tp9252
a(V$n
p9253
V60
p9254
tp9255
a(V$ns
p9256
V4
p9257
tp9258
a(V$nr
p9259
V15
p9260
tp9261
aV2015-10-14 22:17:24
p9262
tp9263
a(V(11-3)*(4^5-4)/[C(44,5)]
p9264
V8160/[(44!)/((40!)(4!))]
p9265
(lp9266
(S'R.0'
p9267
F8160.0
V(11-3)*(4^5-4)
p9268
V8160
p9269
tp9270
aVcprafull
p9271
g5931
V2015-10-14 22:33:46
p9272
tp9273
a(V(13-3)*(5^5-5)/[C(65,5)]
p9274
V31200/(75!/(5!*70!))
p9275
(lp9276
(S'R.0'
p9277
F31200.0
V(13-3)*(5^5-5)
p9278
V31200
p9279
tp9280
aVdlgoldbe
p9281
(lp9282
(V$n
p9283
V65
p9284
tp9285
a(V$ns
p9286
V5
p9287
tp9288
a(V$nr
p9289
V13
p9290
tp9291
a(V$n
p9292
V65
p9293
tp9294
a(V$ns
p9295
V5
p9296
tp9297
a(V$nr
p9298
V13
p9299
tp9300
aV2015-10-14 23:59:09
p9301
tp9302
a(V(14-3)*(5^5-5)/[C(70,5)]
p9303
V(11*((5^5)-5))/(70!/65!5!)
p9304
(lp9305
(S'R.0'
p9306
F34320.0
V(14-3)*(5^5-5)
p9307
V11*((5^5)-5)
p9308
tp9309
aVajvanega
p9310
(lp9311
(V$n
p9312
V70
p9313
tp9314
a(V$ns
p9315
V5
p9316
tp9317
a(V$nr
p9318
V14
p9319
tp9320
a(V$n
p9321
V70
p9322
tp9323
a(V$ns
p9324
V5
p9325
tp9326
a(V$nr
p9327
V14
p9328
tp9329
aV2015-10-15 01:40:27
p9330
tp9331
a(V(13-3)*(5^5-5)/[C(65,5)]
p9332
V(10((5^5) - 5))/((65!)/(60!)(5!))
p9333
(lp9334
(S'R.0'
p9335
F31200.0
V(13-3)*(5^5-5)
p9336
V10((5^5) - 5)
p9337
tp9338
aVsyc078
p9339
(lp9340
(V$n
p9341
V65
p9342
tp9343
a(V$ns
p9344
V5
p9345
tp9346
a(V$nr
p9347
V13
p9348
tp9349
aV2015-10-15 01:41:12
p9350
tp9351
a(V(11-3)*(4^5-4)/[C(44,5)]
p9352
V8 * ((4^5)-4)/44
p9353
(lp9354
(S'R.0'
p9355
F8160.0
V(11-3)*(4^5-4)
p9356
V8 * ((4^5)-4)
p9357
tp9358
aVmjethani
p9359
(lp9360
(V$n
p9361
V44
p9362
tp9363
a(V$ns
p9364
V4
p9365
tp9366
a(V$nr
p9367
V11
p9368
tp9369
a(V$n
p9370
V44
p9371
tp9372
a(V$ns
p9373
V4
p9374
tp9375
a(V$nr
p9376
V11
p9377
tp9378
aV2015-10-15 01:42:07
p9379
tp9380
a(V(12-3)*(5^5-5)/[C(60,5)]
p9381
V(9 * (5^5 - 5) ) / (60!/ 5!55!)
p9382
(lp9383
(S'R.0'
p9384
F28080.0
V(12-3)*(5^5-5)
p9385
V9 * (5^5 - 5)
p9386
tp9387
aVanvan
p9388
(lp9389
(V$n
p9390
V60
p9391
tp9392
a(V$ns
p9393
V5
p9394
tp9395
a(V$nr
p9396
V12
p9397
tp9398
a(V$n
p9399
V60
p9400
tp9401
a(V$ns
p9402
V5
p9403
tp9404
a(V$nr
p9405
V12
p9406
tp9407
aV2015-10-15 02:55:27
p9408
tp9409
a(g7080
V(8(4^5 - 4 ))/(52!/(47!5!))
p9410
(lp9411
(S'R.0'
p9412
F8160.0
V(11-3)*(4^5-4)
p9413
V8(4^5 - 4 )
p9414
tp9415
aVssamudra
p9416
g3848
V2015-10-15 04:11:29
p9417
tp9418
a(V(12-3)*(6^5-6)/[C(72,5)]
p9419
V(9* (6^5 - 6))/(C((6*14),6))
p9420
(lp9421
(S'R.0'
p9422
F69930.0
V(12-3)*(6^5-6)
p9423
V9* (6^5 - 6)
p9424
tp9425
aVvsosnovs
p9426
g2473
V2015-10-15 05:19:16
p9427
tp9428
a(g9419
V(9* (6^5 - 6))/(C((6*14),5))
p9429
(lp9430
(S'R.0'
p9431
F69930.0
V(12-3)*(6^5-6)
p9432
V9* (6^5 - 6)
p9433
tp9434
aVvsosnovs
p9435
g2473
V2015-10-15 05:19:36
p9436
tp9437
a(V(14-3)*(4^5-4)/[C(56,5)]
p9438
V(14-3)*(4**5-4)/5
p9439
(lp9440
(S'R.0'
p9441
F11220.0
V(14-3)*(4^5-4)
p9442
V(14-3)*(4**5-4)
p9443
tp9444
aVseleon
p9445
g2107
V2015-10-15 06:30:56
p9446
tp9447
a(g9438
V(14-3)*(4**5-4)/2002
p9448
(lp9449
(S'R.0'
p9450
F11220.0
V(14-3)*(4^5-4)
p9451
V(14-3)*(4**5-4)
p9452
tp9453
aVseleon
p9454
g2107
V2015-10-15 06:31:21
p9455
tp9456
a(V(16-3)*(6^5-6)/[C(96,5)]
p9457
V101010/(66!/(5!*61!))
p9458
(lp9459
(S'R.0'
p9460
F101010.0
V(16-3)*(6^5-6)
p9461
V101010
p9462
tp9463
aVyeh013
p9464
(lp9465
(V$n
p9466
V96
p9467
tp9468
a(V$ns
p9469
V6
p9470
tp9471
a(V$nr
p9472
V16
p9473
tp9474
a(V$n
p9475
V96
p9476
tp9477
a(V$ns
p9478
V6
p9479
tp9480
a(V$nr
p9481
V16
p9482
tp9483
aV2015-10-15 08:32:51
p9484
tp9485
a(g8101
V(8*[4^5-4])*C(52,5)
p9486
(lp9487
(S'R.0'
p9488
F8160.0
V(11-3)*(4^5-4)
p9489
V8*[4^5-4]
p9490
tp9491
aVjmmcalex
p9492
g3341
V2015-10-15 09:41:00
p9493
tp9494
a(g8101
V(8*[4^5-4])/C(52,5)
p9495
(lp9496
(S'R.0'
p9497
F8160.0
V(11-3)*(4^5-4)
p9498
V8*[4^5-4]
p9499
tp9500
aVjmmcalex
p9501
g3341
V2015-10-15 09:41:12
p9502
tp9503
a(V(11-3)*(4^5-4)/[C(44,5)]
p9504
V(8*(4^5-4))/21111090
p9505
(lp9506
(S'R.0'
p9507
F8160.0
V(11-3)*(4^5-4)
p9508
V8*(4^5-4)
p9509
tp9510
aVewbrenna
p9511
g5557
V2015-10-15 11:57:18
p9512
tp9513
a(g8404
VC(12,1)*(4^5 - 4)/658008
p9514
(lp9515
(S'R.0'
p9516
F12240.0
V(15-3)*(4^5-4)
p9517
VC(12,1)*(4^5 - 4)
p9518
tp9519
aVppanourg
p9520
g8416
V2015-10-15 20:00:57
p9521
tp9522
a(g8404
VC(12,1)*(4^5 - 4)/(60*59*58*57*56)
p9523
(lp9524
(S'R.0'
p9525
F12240.0
V(15-3)*(4^5-4)
p9526
VC(12,1)*(4^5 - 4)
p9527
tp9528
aVppanourg
p9529
g8416
V2015-10-15 20:04:30
p9530
tp9531
a(g8450
V9*(4^5-4)/C(60,5)
p9532
(lp9533
(S'R.0'
p9534
F9180.0
V(12-3)*(4^5-4)
p9535
V9*(4^5-4)
p9536
tp9537
aVbpandayk
p9538
g8462
V2015-10-15 22:01:45
p9539
tp9540
a(g8450
V9*(4^5-4)/C(60,4)
p9541
(lp9542
(S'R.0'
p9543
F9180.0
V(12-3)*(4^5-4)
p9544
V9*(4^5-4)
p9545
tp9546
aVbpandayk
p9547
g8462
V2015-10-15 22:01:50
p9548
tp9549
a(g8450
V(9*(4^5-4))/[48!/(44! * 4!)]
p9550
(lp9551
(S'R.0'
p9552
F9180.0
V(12-3)*(4^5-4)
p9553
V9*(4^5-4)
p9554
tp9555
aVbpandayk
p9556
g8462
V2015-10-15 22:03:31
p9557
tp9558
a(V(14-3)*(4^5-4)/[C(56,5)]
p9559
V(11 * ((4^5)-4)) / (C(64,5))
p9560
(lp9561
(S'R.0'
p9562
F11220.0
V(14-3)*(4^5-4)
p9563
V11 * ((4^5)-4)
p9564
tp9565
aVdac064
p9566
g6159
V2015-10-15 22:16:41
p9567
tp9568
a(g9559
V(11 * ((4^5)-4)) / (64*63*62*61*60)
p9569
(lp9570
(S'R.0'
p9571
F11220.0
V(14-3)*(4^5-4)
p9572
V11 * ((4^5)-4)
p9573
tp9574
aVdac064
p9575
g6159
V2015-10-15 22:18:14
p9576
tp9577
a(g8450
V9*(4^5-4)/C(60,5)
p9578
(lp9579
(S'R.0'
p9580
F9180.0
V(12-3)*(4^5-4)
p9581
V9*(4^5-4)
p9582
tp9583
aVbpandayk
p9584
g8462
V2015-10-15 22:33:18
p9585
tp9586
a(V(14-3)*(4^5-4)/[C(56,5)]
p9587
V11220/C(66,5)
p9588
(lp9589
(S'R.0'
p9590
F11220.0
V(14-3)*(4^5-4)
p9591
V11220
p9592
tp9593
aVr2fisher
p9594
g6225
V2015-10-15 22:57:49
p9595
tp9596
a(V(10-3)*(4^5-4)/[C(40,5)]
p9597
V(4^5-4)*7/[48!/(5!43!)]
p9598
(lp9599
(S'R.0'
p9600
F7140.0
V(10-3)*(4^5-4)
p9601
V(4^5-4)*7
p9602
tp9603
aVaurodrig
p9604
g2696
V2015-10-15 23:08:11
p9605
tp9606
a(V(16-3)*(5^5-5)/[C(80,5)]
p9607
V40560/5^5
p9608
(lp9609
(S'R.0'
p9610
F40560.0
V(16-3)*(5^5-5)
p9611
V40560
p9612
tp9613
aVt2shin
p9614
(lp9615
(V$n
p9616
V80
p9617
tp9618
a(V$ns
p9619
V5
p9620
tp9621
a(V$nr
p9622
V16
p9623
tp9624
a(V$n
p9625
V80
p9626
tp9627
a(V$ns
p9628
V5
p9629
tp9630
a(V$nr
p9631
V16
p9632
tp9633
aV2015-10-15 23:17:47
p9634
tp9635
a(g9607
V40560/(16!/11!)
p9636
(lp9637
(S'R.0'
p9638
F40560.0
V(16-3)*(5^5-5)
p9639
V40560
p9640
tp9641
aVt2shin
p9642
g9615
V2015-10-15 23:18:10
p9643
tp9644
a(g9607
V40560/(80!/75!)
p9645
(lp9646
(S'R.0'
p9647
F40560.0
V(16-3)*(5^5-5)
p9648
V40560
p9649
tp9650
aVt2shin
p9651
g9615
V2015-10-15 23:18:37
p9652
tp9653
a(V(15-3)*(5^5-5)/[C(75,5)]
p9654
V12*(5^5-5)/(5*15)
p9655
(lp9656
(S'R.0'
p9657
F37440.0
V(15-3)*(5^5-5)
p9658
V12*(5^5-5)
p9659
tp9660
aVanislam
p9661
g4059
V2015-10-15 23:35:50
p9662
tp9663
asg2494
(lp9664
(g8020
VC(11,7)*(1-C(11,1)*C(4,1))/(C(44,5))
p9665
tp9666
a(g7716
V(11 - 4^5-4) / (56!/51!/5!)
p9667
tp9668
a(V(14-3)*(5^5-5)/[C(70,5)]
p9669
V((14-3)(5^5)-5)/C(70,5)
p9670
tp9671
asS"['R.0.1']"
p9672
(lp9673
(g8006
V[11*(5^5-5)]/C(70,5)
p9674
(lp9675
(S'R.0.1'
p9676
F3120.0
V5^5-5
p9677
V5^5-5
p9678
tp9679
aVtdurrer
p9680
g2980
V2015-10-09 04:51:55
p9681
tp9682
a(g8006
V[8*(5^5-5)]/C(70,5)
p9683
(lp9684
(S'R.0.1'
p9685
F3120.0
V5^5-5
p9686
V5^5-5
p9687
tp9688
aVtdurrer
p9689
g2980
V2015-10-09 04:53:09
p9690
tp9691
a(g9061
V10 * (5^5 - 5) / 8259888
p9692
(lp9693
(S'R.0.1'
p9694
F3120.0
V5^5-5
p9695
V5^5 - 5
p9696
tp9697
aVahh002
p9698
g3181
V2015-10-14 03:43:29
p9699
tp9700
a(g9061
V6 * (5^5 - 5) / 8259888
p9701
(lp9702
(S'R.0.1'
p9703
F3120.0
V5^5-5
p9704
V5^5 - 5
p9705
tp9706
aVahh002
p9707
g3181
V2015-10-14 03:44:25
p9708
tp9709
a(g9061
V5 * (5^5 - 5) / 8259888
p9710
(lp9711
(S'R.0.1'
p9712
F3120.0
V5^5-5
p9713
V5^5 - 5
p9714
tp9715
aVahh002
p9716
g3181
V2015-10-14 03:44:41
p9717
tp9718
a(g9061
V9 * (5^5 - 5) / 8259888
p9719
(lp9720
(S'R.0.1'
p9721
F3120.0
V5^5-5
p9722
V5^5 - 5
p9723
tp9724
aVahh002
p9725
g3181
V2015-10-14 03:46:02
p9726
tp9727
asS"['R.0.1.0.1', 'R.1']"
p9728
(lp9729
(g7154
V(9*(4^5 - 4))/(65!/(5!*60!))
p9730
(lp9731
(S'R.0.1.0.1'
p9732
F5.0
g3397
g3397
tp9733
a(S'R.1'
p9734
I8259888
VC(65,5)
p9735
V65!/(5!*60!)
p9736
tp9737
aVpnquach
p9738
g3453
V2015-10-15 03:26:08
p9739
tp9740
asS"['R.0.1.0', 'R.1']"
p9741
(lp9742
(g8186
V((11!/(5!6!))*(5^5-1))/(55!/(5!50!))
p9743
(lp9744
(S'R.0.1.0'
p9745
F3125.0
V5^5
p9746
V5^5
p9747
tp9748
a(S'R.1'
p9749
I3478761
VC(55,5)
p9750
V55!/(5!50!)
p9751
tp9752
aVw4shin
p9753
g2766
V2015-10-15 00:02:17
p9754
tp9755
asS"['R.0.0', 'R.0.1.0', 'R.1.0']"
p9756
(lp9757
(g7089
V7* ((6^5) -4)/ C(60,2)
p9758
(lp9759
(S'R.0.0'
p9760
F7.0
V10-3
p9761
g3532
tp9762
a(S'R.0.1.0'
p9763
F7776.0
V6^5
p9764
V6^5
p9765
tp9766
a(S'R.1.0'
p9767
F60.0
V60
p9768
V60
p9769
tp9770
aVskodigal
p9771
g6806
V2015-10-15 05:07:54
p9772
tp9773
a(V(10-3)*(5^5-5)/[C(50,5)]
p9774
V7*(5^5-6)/[C(50,50)]
p9775
(lp9776
(S'R.0.0'
p9777
F7.0
V10-3
p9778
g3532
tp9779
a(S'R.0.1.0'
p9780
F3125.0
V5^5
p9781
V5^5
p9782
tp9783
a(S'R.1.0'
p9784
F50.0
V50
p9785
V50
p9786
tp9787
aVagian
p9788
g2165
V2015-10-15 07:35:53
p9789
tp9790
asS"['R.0.0', 'R.0.1.0']"
p9791
(lp9792
(g7640
V[7*(6^5-1)]/[78!/(5!*73!)]
p9793
(lp9794
(S'R.0.0'
p9795
F7.0
V10-3
p9796
g3532
tp9797
a(S'R.0.1.0'
p9798
F7776.0
V6^5
p9799
V6^5
p9800
tp9801
aVsghouse
p9802
g7648
V2015-10-12 20:14:14
p9803
tp9804
a(g8074
V(11*(6^5-1))/(52!/(5!47!))
p9805
(lp9806
(S'R.0.0'
p9807
F11.0
V14-3
p9808
V11
p9809
tp9810
a(S'R.0.1.0'
p9811
F7776.0
V6^5
p9812
V6^5
p9813
tp9814
aVdcgriffi
p9815
g6544
V2015-10-14 07:39:46
p9816
tp9817
a(g7061
V13 * (5^5 - 4)/C(16,5)
p9818
(lp9819
(S'R.0.0'
p9820
F13.0
V16-3
p9821
V13
p9822
tp9823
a(S'R.0.1.0'
p9824
F3125.0
V5^5
p9825
V5^5
p9826
tp9827
aVrraiyyan
p9828
g3812
V2015-10-15 00:58:59
p9829
tp9830
a(V(13-3)*(6^5-6)/[C(78,5)]
p9831
V((13-3)*(6^5 - 4))/(C(56,5))
p9832
(lp9833
(S'R.0.0'
p9834
F10.0
V13-3
p9835
V13-3
p9836
tp9837
a(S'R.0.1.0'
p9838
F7776.0
V6^5
p9839
V6^5
p9840
tp9841
aVsthapa
p9842
(lp9843
(V$n
p9844
V78
p9845
tp9846
a(V$ns
p9847
V6
p9848
tp9849
a(V$nr
p9850
V13
p9851
tp9852
a(V$n
p9853
V78
p9854
tp9855
a(V$ns
p9856
V6
p9857
tp9858
a(V$nr
p9859
V13
p9860
tp9861
aV2015-10-15 16:20:39
p9862
tp9863
a(g9831
V((13-3)*(6^5 - 4))/(C(4*13,5))
p9864
(lp9865
(S'R.0.0'
p9866
F10.0
V13-3
p9867
V13-3
p9868
tp9869
a(S'R.0.1.0'
p9870
F7776.0
V6^5
p9871
V6^5
p9872
tp9873
aVsthapa
p9874
g9843
V2015-10-15 16:21:08
p9875
tp9876
a(g9654
V12*(5^5-1)/(5*15)
p9877
(lp9878
(S'R.0.0'
p9879
F12.0
V15-3
p9880
V12
p9881
tp9882
a(S'R.0.1.0'
p9883
F3125.0
V5^5
p9884
V5^5
p9885
tp9886
aVanislam
p9887
g4059
V2015-10-15 23:33:08
p9888
tp9889
ass.