(dp0
V1
p1
ccollections
defaultdict
p2
(c__builtin__
list
p3
tp4
Rp5
S'Digits'
p6
(lp7
(V5^4
p8
V8
p9
tp10
a(g8
V16
p11
tp12
a(g8
V24
p13
tp14
a(g8
V16
p15
tp16
a(g8
V24
p17
tp18
a(g8
V4
p19
tp20
a(V4^4
p21
V4
p22
tp23
a(V7^4
p24
V4
p25
tp26
a(g24
V16
p27
tp28
a(g24
V8
p29
tp30
a(g24
V24
p31
tp32
a(g24
V840
p33
tp34
a(V5^4
p35
V4
p36
tp37
a(g35
V45
p38
tp39
a(g35
V5
p40
tp41
a(V7^4
p42
V28
p43
tp44
a(V5^4
p45
V1024
p46
tp47
a(V5^4
p48
V5
p49
tp50
a(V6^4
p51
V4
p52
tp53
a(g51
V15
p54
tp55
a(g8
V60
p56
tp57
a(g8
V16
p58
tp59
a(g8
V4
p60
tp61
a(g8
V5
p62
tp63
a(g8
V32
p64
tp65
a(g8
V120
p66
tp67
a(g8
V30
p68
tp69
a(g8
V22
p70
tp71
a(g8
V25
p72
tp73
a(V9^4
p74
V100
p75
tp76
a(g74
V210
p77
tp78
a(g74
V5040
p79
tp80
a(g74
V715
p81
tp82
a(V4^4
p83
V4
p84
tp85
a(V8^4
p86
V56
p87
tp88
a(V7^4
p89
V28
p90
tp91
a(V8^4
p92
V70
p93
tp94
a(V5^4
p95
V10
p96
tp97
a(V9^4
p98
V9
p99
tp100
a(V9^4
p101
V10
p102
tp103
a(g98
V9
p104
tp105
a(g98
V126
p106
tp107
a(g98
V3024
p108
tp109
a(V6^4
p110
V6
p111
tp112
a(g110
V4
p113
tp114
a(V7^4
p115
V4
p116
tp117
a(V5^4
p118
V4
p119
tp120
a(g118
V22
p121
tp122
a(g118
V20
p123
tp124
a(g118
V25
p125
tp126
a(V8^4
p127
V8
p128
tp129
a(V9^4
p130
V4
p131
tp132
a(V5^4
p133
V5
p134
tp135
a(g133
V4
p136
tp137
a(V8^4
p138
V8
p139
tp140
a(g138
V4
p141
tp142
a(V5^4
p143
V4
p144
tp145
a(g143
V5
p146
tp147
a(g138
V56
p148
tp149
a(g138
V64
p150
tp151
a(V6^4
p152
V15
p153
tp154
a(g152
V4
p155
tp156
a(V9^4
p157
V126
p158
tp159
a(g157
V9
p160
tp161
a(V4^4
p162
V4
p163
tp164
a(V7^4
p165
V28
p166
tp167
a(V4^4
p168
V4
p169
tp170
a(V9^4
p171
V126
p172
tp173
a(g171
V362880
p174
tp175
a(g171
V9
p176
tp177
asS"['R.1']"
p178
(lp179
(V4^4
p180
V10^4
p181
(lp182
(S'R.1'
p183
F4.0
V4
p184
g184
tp185
aVetemlock
p186
(lp187
(V$R
p188
V4
p189
tp190
a(V$A1
p191
V256
p192
tp193
a(V$R
p194
V4
p195
tp196
a(V$A1
p197
V256
p198
tp199
aV2015-10-09 18:15:47
p200
tp201
a(V7^4
p202
V2^4
p203
(lp204
(S'R.1'
p205
F4.0
g184
g184
tp206
aVc1wei
p207
(lp208
(V$R
p209
V7
p210
tp211
a(V$A1
p212
V2401
p213
tp214
a(V$R
p215
V7
p216
tp217
a(V$A1
p218
V2401
p219
tp220
aV2015-10-09 19:37:42
p221
tp222
a(g24
V2^4
p223
(lp224
(S'R.1'
p225
F4.0
g184
g184
tp226
aVsrl006
p227
(lp228
(V$R
p229
V7
p230
tp231
a(V$A1
p232
V2401
p233
tp234
a(V$R
p235
V7
p236
tp237
a(V$A1
p238
V2401
p239
tp240
aV2015-10-10 02:11:45
p241
tp242
a(V9^4
p243
V2^4
p244
(lp245
(S'R.1'
p246
F4.0
g184
g184
tp247
aVggaddi
p248
(lp249
(V$R
p250
V9
p251
tp252
a(V$A1
p253
V6561
p254
tp255
a(V$R
p256
V9
p257
tp258
a(V$A1
p259
V6561
p260
tp261
aV2015-10-10 05:27:59
p262
tp263
a(g243
V10^4
p264
(lp265
(S'R.1'
p266
F4.0
g184
g184
tp267
aVggaddi
p268
g249
V2015-10-10 05:28:26
p269
tp270
a(V4^4
p271
V2^4
p272
(lp273
(S'R.1'
p274
F4.0
g184
g184
tp275
aVhaw081
p276
(lp277
(V$R
p278
V4
p279
tp280
a(V$A1
p281
V256
p282
tp283
a(V$R
p284
V4
p285
tp286
a(V$A1
p287
V256
p288
tp289
aV2015-10-10 21:33:16
p290
tp291
a(V9^4
p292
V10^4
p293
(lp294
(S'R.1'
p295
F4.0
g184
g184
tp296
aVabasu
p297
(lp298
(V$R
p299
V9
p300
tp301
a(V$A1
p302
V6561
p303
tp304
a(V$R
p305
V9
p306
tp307
a(V$A1
p308
V6561
p309
tp310
aV2015-10-11 01:14:21
p311
tp312
a(V4^4
p313
V9^4
p314
(lp315
(S'R.1'
p316
F4.0
g184
g184
tp317
aVjic212
p318
(lp319
(V$R
p320
V4
p321
tp322
a(V$A1
p323
V256
p324
tp325
a(V$R
p326
V4
p327
tp328
a(V$A1
p329
V256
p330
tp331
aV2015-10-11 22:15:46
p332
tp333
a(V6^4
p334
V2^4
p335
(lp336
(S'R.1'
p337
F4.0
g184
g184
tp338
aVkalang
p339
(lp340
(V$R
p341
V6
p342
tp343
a(V$A1
p344
V1296
p345
tp346
a(V$R
p347
V6
p348
tp349
a(V$A1
p350
V1296
p351
tp352
aV2015-10-11 23:25:50
p353
tp354
a(V8^4
p355
V9^4
p356
(lp357
(S'R.1'
p358
F4.0
g184
g184
tp359
aVvsosnovs
p360
(lp361
(V$R
p362
V8
p363
tp364
a(V$A1
p365
V4096
p366
tp367
a(V$R
p368
V8
p369
tp370
a(V$A1
p371
V4096
p372
tp373
aV2015-10-12 01:42:21
p374
tp375
a(V7^4
p376
V2^4
p377
(lp378
(S'R.1'
p379
F4.0
g184
g184
tp380
aVsippolit
p381
(lp382
(V$R
p383
V7
p384
tp385
a(V$A1
p386
V2401
p387
tp388
a(V$R
p389
V7
p390
tp391
a(V$A1
p392
V2401
p393
tp394
aV2015-10-12 02:31:05
p395
tp396
a(V8^4
p397
V2^4
p398
(lp399
(S'R.1'
p400
F4.0
g184
g184
tp401
aVachava
p402
(lp403
(V$R
p404
V8
p405
tp406
a(V$A1
p407
V4096
p408
tp409
a(V$R
p410
V8
p411
tp412
a(V$A1
p413
V4096
p414
tp415
aV2015-10-12 03:33:08
p416
tp417
a(g74
V10^4
p418
(lp419
(S'R.1'
p420
F4.0
g184
g184
tp421
aVamquinte
p422
(lp423
(V$R
p424
V9
p425
tp426
a(V$A1
p427
V6561
p428
tp429
a(V$R
p430
V9
p431
tp432
a(V$A1
p433
V6561
p434
tp435
aV2015-10-12 19:07:04
p436
tp437
a(g74
V10^4
p438
(lp439
(S'R.1'
p440
F4.0
g184
g184
tp441
aVamquinte
p442
g423
V2015-10-12 19:21:08
p443
tp444
a(g83
V2^4
p445
(lp446
(S'R.1'
p447
F4.0
g184
g184
tp448
aVaggouw
p449
(lp450
(V$R
p451
V4
p452
tp453
a(V$A1
p454
V256
p455
tp456
a(V$R
p457
V4
p458
tp459
a(V$A1
p460
V256
p461
tp462
aV2015-10-12 21:47:30
p463
tp464
a(g83
V13^4
p465
(lp466
(S'R.1'
p467
F4.0
g184
g184
tp468
aVaggouw
p469
g450
V2015-10-12 21:47:48
p470
tp471
a(V5^4
p472
V2^4
p473
(lp474
(S'R.1'
p475
F4.0
g184
g184
tp476
aVhah008
p477
(lp478
(V$R
p479
V5
p480
tp481
a(V$A1
p482
V625
p483
tp484
a(V$R
p485
V5
p486
tp487
a(V$A1
p488
V625
p489
tp490
aV2015-10-13 01:17:26
p491
tp492
a(V4^4
p493
V10^4
p494
(lp495
(S'R.1'
p496
F4.0
g184
g184
tp497
aVn2patil
p498
(lp499
(V$R
p500
V4
p501
tp502
a(V$A1
p503
V256
p504
tp505
a(V$R
p506
V4
p507
tp508
a(V$A1
p509
V256
p510
tp511
aV2015-10-13 15:11:57
p512
tp513
a(V7^4
p514
V2^4
p515
(lp516
(S'R.1'
p517
F4.0
g184
g184
tp518
aVjcl084
p519
(lp520
(V$R
p521
V7
p522
tp523
a(V$A1
p524
V2401
p525
tp526
a(V$R
p527
V7
p528
tp529
a(V$A1
p530
V2401
p531
tp532
aV2015-10-13 18:43:39
p533
tp534
a(V7^4
p535
V2^4
p536
(lp537
(S'R.1'
p538
F4.0
g184
g184
tp539
aVaportuga
p540
(lp541
(V$R
p542
V7
p543
tp544
a(V$A1
p545
V2401
p546
tp547
a(V$R
p548
V7
p549
tp550
a(V$A1
p551
V2401
p552
tp553
aV2015-10-13 22:15:29
p554
tp555
a(V5^4
p556
V2^4
p557
(lp558
(S'R.1'
p559
F4.0
g184
g184
tp560
aVs6deng
p561
(lp562
(V$R
p563
V5
p564
tp565
a(V$A1
p566
V625
p567
tp568
a(V$R
p569
V5
p570
tp571
a(V$A1
p572
V625
p573
tp574
aV2015-10-13 22:42:46
p575
tp576
a(V9^4
p577
V8^4
p578
(lp579
(S'R.1'
p580
F4.0
g184
g184
tp581
aVdlt009
p582
(lp583
(V$R
p584
V9
p585
tp586
a(V$A1
p587
V6561
p588
tp589
a(V$R
p590
V9
p591
tp592
a(V$A1
p593
V6561
p594
tp595
aV2015-10-14 00:07:44
p596
tp597
a(V7^4
p598
V2^4
p599
(lp600
(S'R.1'
p601
F4.0
g184
g184
tp602
aVlahawkin
p603
(lp604
(V$R
p605
V7
p606
tp607
a(V$A1
p608
V2401
p609
tp610
a(V$R
p611
V7
p612
tp613
a(V$A1
p614
V2401
p615
tp616
aV2015-10-14 00:42:44
p617
tp618
a(g101
V2^4
p619
(lp620
(S'R.1'
p621
F4.0
g184
g184
tp622
aVwcwhite
p623
(lp624
(V$R
p625
V9
p626
tp627
a(V$A1
p628
V6561
p629
tp630
a(V$R
p631
V9
p632
tp633
a(V$A1
p634
V6561
p635
tp636
aV2015-10-14 01:21:54
p637
tp638
a(V4^4
p639
V2^4
p640
(lp641
(S'R.1'
p642
F4.0
g184
g184
tp643
aVtcn013
p644
(lp645
(V$R
p646
V4
p647
tp648
a(V$A1
p649
V256
p650
tp651
a(V$R
p652
V4
p653
tp654
a(V$A1
p655
V256
p656
tp657
aV2015-10-14 02:51:08
p658
tp659
a(g639
V10^4
p660
(lp661
(S'R.1'
p662
F4.0
g184
g184
tp663
aVtcn013
p664
g645
V2015-10-14 02:51:34
p665
tp666
a(g110
V2^4
p667
(lp668
(S'R.1'
p669
F4.0
g184
g184
tp670
aVhpc001
p671
(lp672
(V$R
p673
V6
p674
tp675
a(V$A1
p676
V1296
p677
tp678
a(V$R
p679
V6
p680
tp681
a(V$A1
p682
V1296
p683
tp684
aV2015-10-14 06:30:02
p685
tp686
a(g110
V3^4
p687
(lp688
(S'R.1'
p689
F4.0
g184
g184
tp690
aVhpc001
p691
g672
V2015-10-14 06:30:53
p692
tp693
a(V8^4
p694
V2^4
p695
(lp696
(S'R.1'
p697
F4.0
g184
g184
tp698
aVsyc078
p699
(lp700
(V$R
p701
V8
p702
tp703
a(V$A1
p704
V4096
p705
tp706
aV2015-10-14 14:13:48
p707
tp708
a(g143
VC(5,4)
p709
(lp710
(S'R.1'
p711
F4.0
g184
g184
tp712
aVjag028
p713
(lp714
(V$R
p715
V5
p716
tp717
a(V$A1
p718
V625
p719
tp720
a(V$R
p721
V5
p722
tp723
a(V$A1
p724
V625
p725
tp726
aV2015-10-14 22:18:19
p727
tp728
a(g143
V20*4
p729
(lp730
(S'R.1'
p731
F4.0
g184
g184
tp732
aVjag028
p733
g714
V2015-10-14 22:35:21
p734
tp735
a(g143
V2^4
p736
(lp737
(S'R.1'
p738
F4.0
g184
g184
tp739
aVjag028
p740
g714
V2015-10-14 22:54:23
p741
tp742
a(g162
V2^4
p743
(lp744
(S'R.1'
p745
F4.0
g184
g184
tp746
aVk4ma
p747
(lp748
(V$R
p749
V4
p750
tp751
a(V$A1
p752
V256
p753
tp754
a(V$R
p755
V4
p756
tp757
a(V$A1
p758
V256
p759
tp760
aV2015-10-15 02:18:11
p761
tp762
a(V6^4
p763
V8^4
p764
(lp765
(S'R.1'
p766
F4.0
g184
g184
tp767
aVagian
p768
(lp769
(V$R
p770
V6
p771
tp772
a(V$A1
p773
V1296
p774
tp775
a(V$R
p776
V6
p777
tp778
a(V$A1
p779
V1296
p780
tp781
aV2015-10-15 07:05:17
p782
tp783
a(V9^4
p784
V2^4
p785
(lp786
(S'R.1'
p787
F4.0
g184
g184
tp788
aVagarango
p789
(lp790
(V$R
p791
V9
p792
tp793
a(V$A1
p794
V6561
p795
tp796
a(V$R
p797
V9
p798
tp799
a(V$A1
p800
V6561
p801
tp802
aV2015-10-15 07:27:51
p803
tp804
a(V4^4
p805
V2^4
p806
(lp807
(S'R.1'
p808
F4.0
g184
g184
tp809
aVasrana
p810
(lp811
(V$R
p812
V4
p813
tp814
a(V$A1
p815
V256
p816
tp817
a(V$R
p818
V4
p819
tp820
a(V$A1
p821
V256
p822
tp823
aV2015-10-15 09:08:53
p824
tp825
a(V8^4
p826
V2^4
p827
(lp828
(S'R.1'
p829
F4.0
g184
g184
tp830
aValhung
p831
(lp832
(V$R
p833
V8
p834
tp835
a(V$A1
p836
V4096
p837
tp838
a(V$R
p839
V8
p840
tp841
a(V$A1
p842
V4096
p843
tp844
aV2015-10-15 17:45:06
p845
tp846
a(V9^4
p847
V10 ^ 4
p848
(lp849
(S'R.1'
p850
F4.0
g184
g184
tp851
aVdac064
p852
(lp853
(V$R
p854
V9
p855
tp856
a(V$A1
p857
V6561
p858
tp859
a(V$R
p860
V9
p861
tp862
a(V$A1
p863
V6561
p864
tp865
aV2015-10-15 17:51:55
p866
tp867
a(V9^4
p868
V10^4
p869
(lp870
(S'R.1'
p871
F4.0
g184
g184
tp872
aVjtfrankl
p873
(lp874
(V$R
p875
V9
p876
tp877
a(V$A1
p878
V6561
p879
tp880
a(V$R
p881
V9
p882
tp883
a(V$A1
p884
V6561
p885
tp886
aV2015-10-15 20:27:46
p887
tp888
asS"['R.0', 'R.1']"
p889
(lp890
(g334
VC(6,4)
p891
(lp892
(S'R.0'
p893
F6.0
V6
p894
g894
tp895
a(S'R.1'
p896
F4.0
g184
g184
tp897
aVkalang
p898
g340
V2015-10-11 23:25:18
p899
tp900
a(g48
V5*4
p901
(lp902
(S'R.0'
p903
F5.0
V5
p904
g904
tp905
a(S'R.1'
p906
F4.0
g184
g184
tp907
aVs2chaudh
p908
(lp909
(V$R
p910
V5
p911
tp912
a(V$A1
p913
V625
p914
tp915
a(V$R
p916
V5
p917
tp918
a(V$A1
p919
V625
p920
tp921
aV2015-10-11 19:57:18
p922
tp923
a(g98
VC(9,4)
p924
(lp925
(S'R.0'
p926
F9.0
V9
p927
g927
tp928
a(S'R.1'
p929
F4.0
g184
g184
tp930
aVjew037
p931
(lp932
(V$R
p933
V9
p934
tp935
a(V$A1
p936
V6561
p937
tp938
a(V$R
p939
V9
p940
tp941
a(V$A1
p942
V6561
p943
tp944
aV2015-10-14 02:54:27
p945
tp946
a(g157
VC(9,4)
p947
(lp948
(S'R.0'
p949
F9.0
g927
g927
tp950
a(S'R.1'
p951
F4.0
g184
g184
tp952
aVcfgutier
p953
(lp954
(V$R
p955
V9
p956
tp957
a(V$A1
p958
V6561
p959
tp960
a(V$R
p961
V9
p962
tp963
a(V$A1
p964
V6561
p965
tp966
aV2015-10-15 02:02:34
p967
tp968
a(g847
VC(9,4)
p969
(lp970
(S'R.0'
p971
F9.0
g927
g927
tp972
a(S'R.1'
p973
F4.0
g184
g184
tp974
aVdac064
p975
g853
V2015-10-15 17:50:03
p976
tp977
asS'Fraction'
p978
(lp979
(g397
V(1/8)*(1/7)*(1/8)*(1/7)
p980
tp981
a(g694
V(8/8) * (7/8) * (1/8) * (1/8)
p982
tp983
a(g143
V(1/5)^4
p984
tp985
a(g143
V(1/4)^5
p986
tp987
a(g143
V1/([5!/(4!(5-4)!)])
p988
tp989
asS"['R.0']"
p990
(lp991
(V5^4
p992
V5^2
p993
(lp994
(S'R.0'
p995
F5.0
g904
g904
tp996
aVchc286
p997
(lp998
(V$R
p999
V5
p1000
tp1001
a(V$A1
p1002
V625
p1003
tp1004
a(V$R
p1005
V5
p1006
tp1007
a(V$A1
p1008
V625
p1009
tp1010
aV2015-10-11 21:51:33
p1011
tp1012
a(V7^4
p1013
V7^2
p1014
(lp1015
(S'R.0'
p1016
F7.0
V7
p1017
g1017
tp1018
aVsmohiman
p1019
(lp1020
(V$R
p1021
V7
p1022
tp1023
a(V$A1
p1024
V2401
p1025
tp1026
a(V$R
p1027
V7
p1028
tp1029
a(V$A1
p1030
V2401
p1031
tp1032
aV2015-10-11 16:42:39
p1033
tp1034
a(V5^4
p1035
V5!
p1036
(lp1037
(S'R.0'
p1038
F5.0
g904
g904
tp1039
aVstarinia
p1040
(lp1041
(V$R
p1042
V5
p1043
tp1044
a(V$A1
p1045
V625
p1046
tp1047
a(V$R
p1048
V5
p1049
tp1050
a(V$A1
p1051
V625
p1052
tp1053
aV2015-10-13 05:15:47
p1054
tp1055
a(g556
V5!
p1056
(lp1057
(S'R.0'
p1058
F5.0
g904
g904
tp1059
aVs6deng
p1060
g562
V2015-10-13 22:44:15
p1061
tp1062
a(g101
V9^3
p1063
(lp1064
(S'R.0'
p1065
F9.0
g927
g927
tp1066
aVwcwhite
p1067
g624
V2015-10-14 01:22:38
p1068
tp1069
a(g694
V(8)(7)
p1070
(lp1071
(S'R.0'
p1072
F8.0
V8
p1073
g1073
tp1074
aVsyc078
p1075
g700
V2015-10-14 14:14:15
p1076
tp1077
a(g138
V8!
p1078
(lp1079
(S'R.0'
p1080
F8.0
g1073
g1073
tp1081
aVc1sorian
p1082
(lp1083
(V$R
p1084
V8
p1085
tp1086
a(V$A1
p1087
V4096
p1088
tp1089
a(V$R
p1090
V8
p1091
tp1092
a(V$A1
p1093
V4096
p1094
tp1095
aV2015-10-14 22:37:13
p1096
tp1097
a(g784
V9*8
p1098
(lp1099
(S'R.0'
p1100
F9.0
g927
g927
tp1101
aVagarango
p1102
g790
V2015-10-15 07:26:24
p1103
tp1104
a(g826
V8*7
p1105
(lp1106
(S'R.0'
p1107
F8.0
g1073
g1073
tp1108
aValhung
p1109
g832
V2015-10-15 17:49:01
p1110
tp1111
a(g826
VC(8,2)
p1112
(lp1113
(S'R.0'
p1114
F8.0
g1073
g1073
tp1115
aValhung
p1116
g832
V2015-10-15 17:49:17
p1117
tp1118
assV3
p1119
g2
(g3
tp1120
Rp1121
g6
(lp1122
(V(4-1)*4
p1123
V2
p1124
tp1125
a(V(6-1)*6
p1126
V6,5
p1127
tp1128
a(V(8-1)*8
p1129
V7
p1130
tp1131
a(V(4-1)*4
p1132
V3
p1133
tp1134
a(g1132
V6
p1135
tp1136
a(g1132
V4
p1137
tp1138
a(V(9-1)*9
p1139
V8
p1140
tp1141
a(V(6-1)*6
p1142
V24
p1143
tp1144
a(V(8-1)*8
p1145
V7
p1146
tp1147
a(g1145
V49
p1148
tp1149
a(V(5-1)*5
p1150
V120
p1151
tp1152
a(V(7-1)*7
p1153
V2
p1154
tp1155
a(g1153
V12
p1156
tp1157
a(V(6-1)*6
p1158
V5,6
p1159
tp1160
a(g1158
V6
p1161
tp1162
a(V(5-1)*5
p1163
V4
p1164
tp1165
a(V(9-1)*9
p1166
V42
p1167
tp1168
a(V(8-1)*8
p1169
V42
p1170
tp1171
a(V(5-1)*5
p1172
V16
p1173
tp1174
a(g1172
V25
p1175
tp1176
asS"['R.0.0']"
p1177
(lp1178
(V(5-1)*5
p1179
V(5!/(2!3!))
p1180
(lp1181
(S'R.0.0'
p1182
F5.0
g904
g904
tp1183
aVtcuddy
p1184
(lp1185
(V$R
p1186
V5
p1187
tp1188
a(V$A1
p1189
V625
p1190
tp1191
a(V$R
p1192
V5
p1193
tp1194
a(V$A1
p1195
V625
p1196
tp1197
aV2015-10-10 18:19:49
p1198
tp1199
a(V(7-1)*7
p1200
V7!/(3!*4!)
p1201
(lp1202
(S'R.0.0'
p1203
F7.0
g1017
g1017
tp1204
aVmtrafeca
p1205
(lp1206
(V$R
p1207
V7
p1208
tp1209
a(V$A1
p1210
V2401
p1211
tp1212
a(V$R
p1213
V7
p1214
tp1215
a(V$A1
p1216
V2401
p1217
tp1218
aV2015-10-10 19:32:47
p1219
tp1220
a(V(7-1)*7
p1221
V7^4 + 6^4
p1222
(lp1223
(S'R.0.0'
p1224
F7.0
g1017
g1017
tp1225
aVany027
p1226
(lp1227
(V$R
p1228
V7
p1229
tp1230
a(V$A1
p1231
V2401
p1232
tp1233
a(V$R
p1234
V7
p1235
tp1236
a(V$A1
p1237
V2401
p1238
tp1239
aV2015-10-12 19:23:39
p1240
tp1241
a(g1221
V7^4 * 6^4
p1242
(lp1243
(S'R.0.0'
p1244
F7.0
g1017
g1017
tp1245
aVany027
p1246
g1227
V2015-10-12 19:23:50
p1247
tp1248
a(V(9-1)*9
p1249
V9!*8!
p1250
(lp1251
(S'R.0.0'
p1252
F9.0
g927
g927
tp1253
aVjew037
p1254
g932
V2015-10-14 02:56:52
p1255
tp1256
a(V(8-1)*8
p1257
V8! / ( (6!) (2!) )
p1258
(lp1259
(S'R.0.0'
p1260
F8.0
g1073
g1073
tp1261
aVsyc078
p1262
g700
V2015-10-14 14:13:38
p1263
tp1264
a(g1153
V7^2 * 6^2
p1265
(lp1266
(S'R.0.0'
p1267
F7.0
g1017
g1017
tp1268
aVytc012
p1269
(lp1270
(V$R
p1271
V7
p1272
tp1273
a(V$A1
p1274
V2401
p1275
tp1276
a(V$R
p1277
V7
p1278
tp1279
a(V$A1
p1280
V2401
p1281
tp1282
aV2015-10-14 21:46:40
p1283
tp1284
a(V(8-1)*8
p1285
V8!7!
p1286
(lp1287
(S'R.0.0'
p1288
F8.0
g1073
g1073
tp1289
aValhung
p1290
g832
V2015-10-15 17:45:06
p1291
tp1292
asS"['R.0.1']"
p1293
(lp1294
(V(8-1)*8
p1295
VC(8,1)+C(7,1)
p1296
(lp1297
(S'R.0.1'
p1298
F1.0
V1
p1299
g1299
tp1300
aVkew060
p1301
(lp1302
(V$R
p1303
V8
p1304
tp1305
a(V$A1
p1306
V4096
p1307
tp1308
a(V$R
p1309
V8
p1310
tp1311
a(V$A1
p1312
V4096
p1313
tp1314
aV2015-10-14 00:54:24
p1315
tp1316
asS"['R']"
p1317
(lp1318
(V(4-1)*4
p1319
VP(4,2)
p1320
(lp1321
(S'R'
p1322
F12.0
g1319
g1320
tp1323
aVhabuamar
p1324
(lp1325
(V$R
p1326
V4
p1327
tp1328
a(V$A1
p1329
V256
p1330
tp1331
a(V$R
p1332
V4
p1333
tp1334
a(V$A1
p1335
V256
p1336
tp1337
aV2015-10-09 05:12:32
p1338
tp1339
a(V(7-1)*7
p1340
VP(7,2)
p1341
(lp1342
(g1322
F42.0
g1340
g1341
tp1343
aVsmohiman
p1344
g1020
V2015-10-11 16:51:04
p1345
tp1346
a(g1295
VC(8,1)*C(7,1)
p1347
(lp1348
(g1322
F56.0
g1295
g1347
tp1349
aVkew060
p1350
g1302
V2015-10-14 00:56:23
p1351
tp1352
a(g1285
VP(8,2)
p1353
(lp1354
(g1322
F56.0
g1285
g1353
tp1355
aValhung
p1356
g832
V2015-10-15 17:50:44
p1357
tp1358
a(g1285
VP(8,2)
p1359
(lp1360
(g1322
F56.0
g1285
g1359
tp1361
aValhung
p1362
g832
V2015-10-15 17:53:47
p1363
tp1364
asS"['R.0']"
p1365
(lp1366
(V(5-1)*5
p1367
V4*3
p1368
(lp1369
(S'R.0'
p1370
F4.0
V5-1
p1371
g184
tp1372
aVdlgoldbe
p1373
(lp1374
(V$R
p1375
V5
p1376
tp1377
a(V$A1
p1378
V625
p1379
tp1380
a(V$R
p1381
V5
p1382
tp1383
a(V$A1
p1384
V625
p1385
tp1386
aV2015-10-13 00:27:43
p1387
tp1388
a(V(9-1)*9
p1389
V8*7
p1390
(lp1391
(S'R.0'
p1392
F8.0
V9-1
p1393
g1073
tp1394
aVdlt009
p1395
g583
V2015-10-14 00:07:44
p1396
tp1397
assV2
p1398
g2
(g3
tp1399
Rp1400
g6
(lp1401
(V4
p1402
V7
p1403
tp1404
a(g1402
V6
p1405
tp1406
a(g1402
V9
p1407
tp1408
a(g1402
V8
p1409
tp1410
a(g1402
V3
p1411
tp1412
a(g1402
V1
p1413
tp1414
a(V4
p1415
V7
p1416
tp1417
a(V4
p1418
V2
p1419
tp1420
a(V4
p1421
V1
p1422
tp1423
a(V4
p1424
V2
p1425
tp1426
a(V4
p1427
V6
p1428
tp1429
a(V4
p1430
V7
p1431
tp1432
a(V4
p1433
V6
p1434
tp1435
a(g1433
V12
p1436
tp1437
a(V4
p1438
V1
p1439
tp1440
a(V4
p1441
V3
p1442
tp1443
a(V4
p1444
V1
p1445
tp1446
a(g1444
V2
p1447
tp1448
a(V4
p1449
V1
p1450
tp1451
a(V4
p1452
V12
p1453
tp1454
a(V4
p1455
V8
p1456
tp1457
assV5
p1458
g2
(g3
tp1459
Rp1460
g6
(lp1461
(V4^4
p1462
V10000
p1463
tp1464
a(V4^4
p1465
V12
p1466
tp1467
a(V5^4
p1468
V32
p1469
tp1470
a(g1468
V25
p1471
tp1472
a(V5^4
p1473
V5
p1474
tp1475
a(V4^4
p1476
V16
p1477
tp1478
a(V5^4
p1479
V22
p1480
tp1481
a(V9^4
p1482
V10000
p1483
tp1484
a(g1482
V1024
p1485
tp1486
a(g1482
V100
p1487
tp1488
a(g1482
V210
p1489
tp1490
a(g1482
V5040
p1491
tp1492
a(g1482
V715
p1493
tp1494
a(V8^4
p1495
V1680
p1496
tp1497
a(g1495
V70
p1498
tp1499
a(V7^4
p1500
V42
p1501
tp1502
a(V7^4
p1503
V4
p1504
tp1505
a(V5^4
p1506
V25
p1507
tp1508
a(V9^4
p1509
V4
p1510
tp1511
a(V7^4
p1512
V42
p1513
tp1514
a(V4^4
p1515
V16
p1516
tp1517
a(V9^4
p1518
V8
p1519
tp1520
asS"['R.0']"
p1521
(lp1522
(V8^4
p1523
V8^7
p1524
(lp1525
(S'R.0'
p1526
F8.0
g1073
g1073
tp1527
aVthwan
p1528
(lp1529
(V$R
p1530
V8
p1531
tp1532
a(V$A1
p1533
V4096
p1534
tp1535
a(V$R
p1536
V8
p1537
tp1538
a(V$A1
p1539
V4096
p1540
tp1541
aV2015-10-09 23:13:24
p1542
tp1543
a(V7^4
p1544
V7*6
p1545
(lp1546
(S'R.0'
p1547
F7.0
g1017
g1017
tp1548
aVmsaguiar
p1549
(lp1550
(V$R
p1551
V7
p1552
tp1553
a(V$A1
p1554
V2401
p1555
tp1556
a(V$R
p1557
V7
p1558
tp1559
a(V$A1
p1560
V2401
p1561
tp1562
aV2015-10-12 03:22:23
p1563
tp1564
a(V5^4
p1565
V5!
p1566
(lp1567
(S'R.0'
p1568
F5.0
g904
g904
tp1569
aVstarinia
p1570
g1041
V2015-10-13 05:15:47
p1571
tp1572
asS"['R.1']"
p1573
(lp1574
(V9^4
p1575
V8^4
p1576
(lp1577
(S'R.1'
p1578
F4.0
g184
g184
tp1579
aVdlt009
p1580
g583
V2015-10-14 00:07:44
p1581
tp1582
a(V7^4
p1583
V2^4
p1584
(lp1585
(S'R.1'
p1586
F4.0
g184
g184
tp1587
aVlahawkin
p1588
g604
V2015-10-14 00:42:44
p1589
tp1590
a(V8^4
p1591
V2^4
p1592
(lp1593
(S'R.1'
p1594
F4.0
g184
g184
tp1595
aValhung
p1596
g832
V2015-10-15 17:45:06
p1597
tp1598
asS'redirect'
p1599
(lp1600
(V9^4
p1601
V9*9*8*8
p1602
tp1603
a(V8^4
p1604
V4**8
p1605
tp1606
a(V6^4
p1607
V4^6
p1608
tp1609
a(V5^4
p1610
V4**5
p1611
tp1612
a(V9^4
p1613
V4^9
p1614
tp1615
a(V6^4
p1616
V2^6
p1617
tp1618
a(V8^4
p1619
V4^8
p1620
tp1621
a(g1565
V4^5
p1622
tp1623
a(V8^4
p1624
V2^8
p1625
tp1626
a(V8^4
p1627
V(6!)(2!)
p1628
tp1629
a(V7^4
p1630
V4^7
p1631
tp1632
a(V6^4
p1633
V6*5*4*3*2*1
p1634
tp1635
a(g1633
V6*5*4*3
p1636
tp1637
a(V6^4
p1638
V6!/2!
p1639
tp1640
a(V6^4
p1641
V4^6
p1642
tp1643
a(V5^4
p1644
V4^5
p1645
tp1646
assV4
p1647
g2
(g3
tp1648
Rp1649
g6
(lp1650
(V4*(4-1)
p1651
V4
p1652
tp1653
a(V6*(6-1)
p1654
V360
p1655
tp1656
a(V5*(5-1)
p1657
V4
p1658
tp1659
a(V7*(7-1)
p1660
V128
p1661
tp1662
a(V6*(6-1)
p1663
V120
p1664
tp1665
a(V9*(9-1)
p1666
V42
p1667
tp1668
a(V9*(9-1)
p1669
V9
p1670
tp1671
a(V5*(5-1)
p1672
V16
p1673
tp1674
a(g1672
V25
p1675
tp1676
asS"['R.1']"
p1677
(lp1678
(V8*(8-1)
p1679
VC(8,1)+C(7,1)
p1680
(lp1681
(S'R.1'
p1682
F7.0
V8-1
p1683
VC(7,1)
p1684
tp1685
aVkew060
p1686
g1302
V2015-10-14 00:54:24
p1687
tp1688
a(V4*(4-1)
p1689
V4*3*4*3
p1690
(lp1691
(S'R.1'
p1692
F3.0
V4-1
p1693
V3
p1694
tp1695
aVjel075
p1696
(lp1697
(V$R
p1698
V4
p1699
tp1700
a(V$A1
p1701
V256
p1702
tp1703
a(V$R
p1704
V4
p1705
tp1706
a(V$A1
p1707
V256
p1708
tp1709
aV2015-10-15 00:28:05
p1710
tp1711
asS"['R']"
p1712
(lp1713
(V4*(4-1)
p1714
VP(4,2)
p1715
(lp1716
(g1322
F12.0
g1714
g1715
tp1717
aVhabuamar
p1718
g1325
V2015-10-09 05:12:32
p1719
tp1720
asg1599
(lp1721
(V4*(4-1)
p1722
V2^4
p1723
tp1724
a(g1722
V4^2
p1725
tp1726
a(V5*(5-1)
p1727
V(5!/(2!3!))
p1728
tp1729
a(V4*(4-1)
p1730
V4!
p1731
tp1732
a(V8*(8-1)
p1733
VP(8,4)
p1734
tp1735
a(g1733
VC(8,4)
p1736
tp1737
a(V9*(9-1)
p1738
V8*7
p1739
tp1740
a(g1738
V9*7
p1741
tp1742
a(V8*(8-1)
p1743
V8!
p1744
tp1745
a(V6*(6-1)
p1746
V6!
p1747
tp1748
a(V8*(8-1)
p1749
V8!7!
p1750
tp1751
a(g1666
V9^4
p1752
tp1753
assV6
p1754
g2
(g3
tp1755
Rp1756
g6
(lp1757
(V5*(5-1)/(5^4)
p1758
V30
p1759
tp1760
a(V5*(5-1)/(5^4)
p1761
V4
p1762
tp1763
a(V6*(6-1)/(6^4)
p1764
V02778
p1765
tp1766
a(V7*(7-1)/(7^4)
p1767
V100842
p1768
tp1769
asS"['R.0']"
p1770
(lp1771
(V4*(4-1)/(4^4)
p1772
V12/10000
p1773
(lp1774
(S'R.0'
p1775
F12.0
V4*(4-1)
p1776
V12
p1777
tp1778
aVetemlock
p1779
g187
V2015-10-09 18:15:47
p1780
tp1781
a(V8*(8-1)/(8^4)
p1782
V56/4**8
p1783
(lp1784
(S'R.0'
p1785
F56.0
V8*(8-1)
p1786
V56
p1787
tp1788
aVjguanzho
p1789
(lp1790
(V$R
p1791
V8
p1792
tp1793
a(V$A1
p1794
V4096
p1795
tp1796
a(V$R
p1797
V8
p1798
tp1799
a(V$A1
p1800
V4096
p1801
tp1802
aV2015-10-09 19:45:28
p1803
tp1804
a(V8*(8-1)/(8^4)
p1805
V8*7/(8^7)
p1806
(lp1807
(S'R.0'
p1808
F56.0
V8*(8-1)
p1809
V8*7
p1810
tp1811
aVthwan
p1812
g1529
V2015-10-09 23:13:24
p1813
tp1814
a(V6*(6-1)/(6^4)
p1815
V30/4096
p1816
(lp1817
(S'R.0'
p1818
F30.0
V6*(6-1)
p1819
V30
p1820
tp1821
aVt1tran
p1822
(lp1823
(V$R
p1824
V6
p1825
tp1826
a(V$A1
p1827
V1296
p1828
tp1829
a(V$R
p1830
V6
p1831
tp1832
a(V$A1
p1833
V1296
p1834
tp1835
aV2015-10-10 05:18:05
p1836
tp1837
a(V9*(9-1)/(9^4)
p1838
V[9*8]/[4^9]
p1839
(lp1840
(S'R.0'
p1841
F72.0
V9*(9-1)
p1842
V9*8
p1843
tp1844
aVttimmons
p1845
(lp1846
(V$R
p1847
V9
p1848
tp1849
a(V$A1
p1850
V6561
p1851
tp1852
a(V$R
p1853
V9
p1854
tp1855
a(V$A1
p1856
V6561
p1857
tp1858
aV2015-10-11 00:39:00
p1859
tp1860
a(V6*(6-1)/(6^4)
p1861
V30/2^6
p1862
(lp1863
(S'R.0'
p1864
F30.0
V6*(6-1)
p1865
V30
p1866
tp1867
aVgthorn
p1868
(lp1869
(V$R
p1870
V6
p1871
tp1872
a(V$A1
p1873
V1296
p1874
tp1875
a(V$R
p1876
V6
p1877
tp1878
a(V$A1
p1879
V1296
p1880
tp1881
aV2015-10-11 04:02:42
p1882
tp1883
a(V4*(4-1)/(4^4)
p1884
V12/16
p1885
(lp1886
(S'R.0'
p1887
F12.0
V4*(4-1)
p1888
V12
p1889
tp1890
aVjyc018
p1891
(lp1892
(V$R
p1893
V4
p1894
tp1895
a(V$A1
p1896
V256
p1897
tp1898
a(V$R
p1899
V4
p1900
tp1901
a(V$A1
p1902
V256
p1903
tp1904
aV2015-10-12 01:37:26
p1905
tp1906
a(V8*(8-1)/(8^4)
p1907
V(8*7)/(4^8)
p1908
(lp1909
(S'R.0'
p1910
F56.0
V8*(8-1)
p1911
V8*7
p1912
tp1913
aVjblynch
p1914
(lp1915
(V$R
p1916
V8
p1917
tp1918
a(V$A1
p1919
V4096
p1920
tp1921
a(V$R
p1922
V8
p1923
tp1924
a(V$A1
p1925
V4096
p1926
tp1927
aV2015-10-12 06:36:29
p1928
tp1929
a(V5*(5-1)/(5^4)
p1930
V5*4/4^5
p1931
(lp1932
(S'R.0'
p1933
F20.0
V5*(5-1)
p1934
V5*4
p1935
tp1936
aVstarinia
p1937
g1041
V2015-10-13 05:12:51
p1938
tp1939
a(g1930
V5*4/5!
p1940
(lp1941
(S'R.0'
p1942
F20.0
V5*(5-1)
p1943
V5*4
p1944
tp1945
aVstarinia
p1946
g1041
V2015-10-13 05:15:47
p1947
tp1948
a(V4*(4-1)/(4^4)
p1949
V12/32
p1950
(lp1951
(S'R.0'
p1952
F12.0
V4*(4-1)
p1953
V12
p1954
tp1955
aVeaherman
p1956
(lp1957
(V$R
p1958
V4
p1959
tp1960
a(V$A1
p1961
V256
p1962
tp1963
a(V$R
p1964
V4
p1965
tp1966
a(V$A1
p1967
V256
p1968
tp1969
aV2015-10-13 18:25:25
p1970
tp1971
a(V4*(4-1)/(4^4)
p1972
V12/16
p1973
(lp1974
(S'R.0'
p1975
F12.0
V4*(4-1)
p1976
V12
p1977
tp1978
aVtcn013
p1979
g645
V2015-10-14 02:53:15
p1980
tp1981
a(g1972
V12/64
p1982
(lp1983
(S'R.0'
p1984
F12.0
V4*(4-1)
p1985
V12
p1986
tp1987
aVtcn013
p1988
g645
V2015-10-14 02:53:21
p1989
tp1990
a(V7*(7-1)/(7^4)
p1991
V(7 * 6)/4
p1992
(lp1993
(S'R.0'
p1994
F42.0
V7*(7-1)
p1995
V7 * 6
p1996
tp1997
aVjfalcone
p1998
(lp1999
(V$R
p2000
V7
p2001
tp2002
a(V$A1
p2003
V2401
p2004
tp2005
a(V$R
p2006
V7
p2007
tp2008
a(V$A1
p2009
V2401
p2010
tp2011
aV2015-10-14 08:03:47
p2012
tp2013
a(V7*(7-1)/(7^4)
p2014
V(7*6)/(4^7)
p2015
(lp2016
(S'R.0'
p2017
F42.0
V7*(7-1)
p2018
V7*6
p2019
tp2020
aVr2fisher
p2021
(lp2022
(V$R
p2023
V7
p2024
tp2025
a(V$A1
p2026
V2401
p2027
tp2028
a(V$R
p2029
V7
p2030
tp2031
a(V$A1
p2032
V2401
p2033
tp2034
aV2015-10-14 22:29:50
p2035
tp2036
asS"['R.1']"
p2037
(lp2038
(V5*(5-1)/(5^4)
p2039
V(5!3!)/5^4
p2040
(lp2041
(S'R.1'
p2042
F625.0
V5^4
p2043
V5^4
p2044
tp2045
aVlalacson
p2046
(lp2047
(V$R
p2048
V5
p2049
tp2050
a(V$A1
p2051
V625
p2052
tp2053
a(V$R
p2054
V5
p2055
tp2056
a(V$A1
p2057
V625
p2058
tp2059
aV2015-10-11 15:10:42
p2060
tp2061
a(V4*(4-1)/(4^4)
p2062
V24/256
p2063
(lp2064
(S'R.1'
p2065
F256.0
V4^4
p2066
V256
p2067
tp2068
aVwhcombs
p2069
(lp2070
(V$R
p2071
V4
p2072
tp2073
a(V$A1
p2074
V256
p2075
tp2076
a(V$R
p2077
V4
p2078
tp2079
a(V$A1
p2080
V256
p2081
tp2082
aV2015-10-12 23:14:06
p2083
tp2084
a(V8*(8-1)/(8^4)
p2085
VP(8,4)/8^4
p2086
(lp2087
(S'R.1'
p2088
F4096.0
V8^4
p2089
V8^4
p2090
tp2091
aVhaliew
p2092
(lp2093
(V$R
p2094
V8
p2095
tp2096
a(V$A1
p2097
V4096
p2098
tp2099
a(V$R
p2100
V8
p2101
tp2102
a(V$A1
p2103
V4096
p2104
tp2105
aV2015-10-13 17:07:54
p2106
tp2107
a(g2085
VC(8,4)/8^4
p2108
(lp2109
(S'R.1'
p2110
F4096.0
V8^4
p2111
V8^4
p2112
tp2113
aVhaliew
p2114
g2093
V2015-10-13 17:08:14
p2115
tp2116
a(V5*(5-1)/(5^4)
p2117
V4/ (5^4)
p2118
(lp2119
(S'R.1'
p2120
F625.0
V5^4
p2121
V5^4
p2122
tp2123
aVe9brown
p2124
(lp2125
(V$R
p2126
V5
p2127
tp2128
a(V$A1
p2129
V625
p2130
tp2131
a(V$R
p2132
V5
p2133
tp2134
a(V$A1
p2135
V625
p2136
tp2137
aV2015-10-14 06:52:56
p2138
tp2139
a(V9*(9-1)/(9^4)
p2140
V(9*7)/ (9^4)
p2141
(lp2142
(S'R.1'
p2143
F6561.0
V9^4
p2144
V9^4
p2145
tp2146
aVyhhan
p2147
(lp2148
(V$R
p2149
V9
p2150
tp2151
a(V$A1
p2152
V6561
p2153
tp2154
a(V$R
p2155
V9
p2156
tp2157
a(V$A1
p2158
V6561
p2159
tp2160
aV2015-10-15 04:45:46
p2161
tp2162
a(V6*(6-1)/(6^4)
p2163
V120/6^4
p2164
(lp2165
(S'R.1'
p2166
F1296.0
V6^4
p2167
V6^4
p2168
tp2169
aVyig015
p2170
(lp2171
(V$R
p2172
V6
p2173
tp2174
a(V$A1
p2175
V1296
p2176
tp2177
a(V$R
p2178
V6
p2179
tp2180
a(V$A1
p2181
V1296
p2182
tp2183
aV2015-10-15 08:46:03
p2184
tp2185
a(V8*(8-1)/(8^4)
p2186
V(8*7!)/(8^4)
p2187
(lp2188
(S'R.1'
p2189
F4096.0
V8^4
p2190
V8^4
p2191
tp2192
aValhung
p2193
g832
V2015-10-15 17:56:15
p2194
tp2195
asS"['R.1.1']"
p2196
(lp2197
(g2186
V(8!7!)/(2^4)
p2198
(lp2199
(S'R.1.1'
p2200
F4.0
g184
g184
tp2201
aValhung
p2202
g832
V2015-10-15 17:45:06
p2203
tp2204
asg1599
(lp2205
(V9*(9-1)/(9^4)
p2206
V1/72
p2207
tp2208
a(V4*(4-1)/(4^4)
p2209
V1/16
p2210
tp2211
a(V5*(5-1)/(5^4)
p2212
V[ (5!/(2!3!)) / 4**5 ]
p2213
tp2214
a(V5*(5-1)/(5^4)
p2215
V5/8
p2216
tp2217
a(g2215
V4/5
p2218
tp2219
a(V5*(5-1)/(5^4)
p2220
V0.5
p2221
tp2222
a(V9*(9-1)/(9^4)
p2223
V0.0072
p2224
tp2225
a(g2223
V0.0703
p2226
tp2227
a(g2223
V0.72
p2228
tp2229
a(g2223
V0.3429
p2230
tp2231
a(g2223
V0.0143
p2232
tp2233
a(g2223
V0.1007
p2234
tp2235
a(V8*(8-1)/(8^4)
p2236
V.033333
p2237
tp2238
a(g2236
V.8
p2239
tp2240
a(V9*(9-1)/(9^4)
p2241
V7/(8^3)
p2242
tp2243
a(g2241
V7/(9^3)
p2244
tp2245
a(V5*(5-1)/(5^4)
p2246
V4/5
p2247
tp2248
a(V6*(6-1)/(6^4)
p2249
V1/(4*3*2*1)
p2250
tp2251
a(g2249
V1/(4*3)
p2252
tp2253
a(V6*(6-1)/(6^4)
p2254
V1/12
p2255
tp2256
a(V4*(4-1)/(4^4)
p2257
V0.75
p2258
tp2259
a(V6*(6-1)/(6^4)
p2260
V6!/4^6
p2261
tp2262
a(V5*(5-1)/(5^4)
p2263
V1/64
p2264
tp2265
a(g2263
V1/25
p2266
tp2267
ass.