(dp0
V1
p1
(dp2
Vb3hwang
p3
(dp4
S'part1_correct_attempt'
p5
(lp6
S'0:07:18'
p7
aVC(65,5)
p8
asS'first_attempt'
p9
V2015-10-14 18:31:35
p10
sS'part1_incorrect_attempt'
p11
(lp12
(S'0:00:00'
p13
V65!/(65-5)*5!
p14
tp15
a(S'0:00:07'
p16
V65!/((65-5)*5!)
p17
tp18
a(S'0:06:32'
p19
V65*64*63*62*61
p20
tp21
a(S'0:07:07'
p22
V65!/((65-5)*5!)
p23
tp24
assVkew017
p25
(dp26
S'part1_correct_attempt'
p27
(lp28
S'0:00:24'
p29
aV75!/(5!70!)
p30
asg9
V2015-10-15 18:20:30
p31
sS'part1_incorrect_attempt'
p32
(lp33
(S'0:00:00'
p34
V45!/(5!40!)
p35
tp36
assVhaw081
p37
(dp38
S'part1_correct_attempt'
p39
(lp40
S'0:00:22'
p41
aVC(6*15,5)
p42
asg9
V2015-10-11 00:17:24
p43
sS'part1_incorrect_attempt'
p44
(lp45
(S'0:00:00'
p46
V6*15
p47
tp48
assVlpettit
p49
(dp50
S'part1_correct_attempt'
p51
(lp52
S'0:01:55'
p53
aV80!/(5!*75!)
p54
asg9
V2015-10-14 20:22:25
p55
sS'part1_incorrect_attempt'
p56
(lp57
(S'0:00:00'
p58
V16!/(5!*11!)
p59
tp60
a(S'0:01:05'
p61
V16!/11!
p62
tp63
assVh4tu
p64
(dp65
S'part1_correct_attempt'
p66
(lp67
S'0:00:09'
p68
aV96!/(91!5!)
p69
asg9
V2015-10-15 07:13:31
p70
sS'part1_incorrect_attempt'
p71
(lp72
(S'0:00:00'
p73
V96!/91!5!
p74
tp75
assVlywong
p76
(dp77
S'part1_correct_attempt'
p78
(lp79
S'0:00:04'
p80
aV66!/(5!(61!))
p81
asg9
V2015-10-13 00:47:35
p82
sS'part1_incorrect_attempt'
p83
(lp84
(S'0:00:00'
p85
V66!(5!(61!))
p86
tp87
assVsrl006
p88
(dp89
S'part1_correct_attempt'
p90
(lp91
S'0:03:31'
p92
aV1086008
p93
asg9
V2015-10-10 05:52:41
p94
sS'part1_incorrect_attempt'
p95
(lp96
(S'0:00:00'
p97
V5^11
p98
tp99
assVjguanzho
p100
(dp101
S'part1_correct_attempt'
p102
(lp103
S'0:00:48'
p104
aV70!/(65!*5!)
p105
asg9
V2015-10-09 20:09:36
p106
sS'part1_incorrect_attempt'
p107
(lp108
(S'0:00:00'
p109
V70!/65!
p110
tp111
assVqtluong
p112
(dp113
S'part1_correct_attempt'
p114
(lp115
S'0:00:06'
p116
aV60!/(5!(60-5)!)
p117
asg9
V2015-10-12 20:17:18
p118
sS'part1_incorrect_attempt'
p119
(lp120
(S'0:00:00'
p121
V60!(5!(60-5)!)
p122
tp123
assVspw006
p124
(dp125
S'part1_correct_attempt'
p126
(lp127
S'0:00:31'
p128
aV50!/(45!5!)
p129
asg9
V2015-10-13 21:33:56
p130
sS'part1_incorrect_attempt'
p131
(lp132
(S'0:00:00'
p133
V50!/45!
p134
tp135
a(S'0:00:24'
p136
V50!/45!5!
p137
tp138
assVany027
p139
(dp140
S'part1_correct_attempt'
p141
(lp142
S'0:00:26'
p143
aVC(96,5)
p144
asg9
V2015-10-12 20:22:36
p145
sS'part1_incorrect_attempt'
p146
(lp147
(S'0:00:00'
p148
V16^6
p149
tp150
a(S'0:00:04'
p151
V16*6
p152
tp153
assVthk002
p154
(dp155
S'part1_correct_attempt'
p156
(lp157
S'0:00:09'
p158
aVC(84,5)
p159
asg9
V2015-10-12 03:43:55
p160
sS'part1_incorrect_attempt'
p161
(lp162
(S'0:00:00'
p163
V14*6
p164
tp165
assVs1powers
p166
(dp167
S'part1_correct_attempt'
p168
(lp169
S'0:00:33'
p170
aV60!/((60-5)!*5!)
p171
asg9
V2015-10-11 00:16:07
p172
sS'part1_incorrect_attempt'
p173
(lp174
(S'0:00:00'
p175
V60*59*58*57*56
p176
tp177
assVr1gu
p178
(dp179
S'part1_correct_attempt'
p180
(lp181
S'0:00:05'
p182
aV55!/(5!50!)
p183
asg9
V2015-10-15 12:21:43
p184
sS'part1_incorrect_attempt'
p185
(lp186
(S'0:00:00'
p187
V55!(5!50!)
p188
tp189
assVmrchin
p190
(dp191
S'part1_correct_attempt'
p192
(lp193
S'3:14:43'
p194
aV40!/(5!*35!)
p195
asg9
V2015-10-14 19:19:28
p196
sS'part1_incorrect_attempt'
p197
(lp198
(S'0:00:00'
p199
V40*39*38*37*36
p200
tp201
a(S'0:02:08'
p202
V40*39*38*37*36
p203
tp204
assVdlt009
p205
(dp206
S'part1_correct_attempt'
p207
(lp208
S'0:02:42'
p209
aV75!/[(75-5)!5!]
p210
asg9
V2015-10-14 01:55:59
p211
sS'part1_incorrect_attempt'
p212
(lp213
(S'0:00:00'
p214
V5*[(15!/[(15-5)!5!])]
p215
tp216
a(S'0:00:51'
p217
V[(15!/[(15-5)!5!])]
p218
tp219
assVttimmons
p220
(dp221
S'part1_correct_attempt'
p222
(lp223
S'0:00:12'
p224
aVC(5*15,5)
p225
asg9
V2015-10-12 18:59:40
p226
sS'part1_incorrect_attempt'
p227
(lp228
(S'0:00:00'
p229
V5*15
p230
tp231
assVdcgriffi
p232
(dp233
S'part1_correct_attempt'
p234
(lp235
S'0:00:31'
p236
aV(16*5)!/((16*5-5)!*5!)
p237
asg9
V2015-10-14 07:23:43
p238
sS'part1_incorrect_attempt'
p239
(lp240
(S'0:00:00'
p241
V(16*5)!/(16*5-5)!
p242
tp243
assVrsmurlo
p244
(dp245
S'part1_correct_attempt'
p246
(lp247
S'0:02:29'
p248
aV96!/(91!5!)
p249
asg9
V2015-10-13 17:44:01
p250
sS'part1_incorrect_attempt'
p251
(lp252
(S'0:00:00'
p253
V96*95*94*93*92
p254
tp255
assVjeqin
p256
(dp257
S'part1_correct_attempt'
p258
(lp259
S'0:01:00'
p260
aV96!/(5!91!)
p261
asg9
V2015-10-15 12:44:15
p262
sS'part1_incorrect_attempt'
p263
(lp264
(S'0:00:00'
p265
V96!/(5!/91!)
p266
tp267
assVhak014
p268
(dp269
S'part1_correct_attempt'
p270
(lp271
S'0:01:38'
p272
aV40!/(35!5!)
p273
asg9
V2015-10-13 05:20:15
p274
sS'part1_incorrect_attempt'
p275
(lp276
(S'0:00:00'
p277
V40*39*38*37*36
p278
tp279
assVjnatale
p280
(dp281
S'part1_correct_attempt'
p282
(lp283
S'0:00:13'
p284
aVC(48,5)
p285
asg9
V2015-10-13 01:34:18
p286
sS'part1_incorrect_attempt'
p287
(lp288
(S'0:00:00'
p289
VC(52,6)
p290
tp291
assVr2fisher
p292
(dp293
S'part1_correct_attempt'
p294
(lp295
S'0:00:42'
p296
aV60!/(5!*55!)
p297
asg9
V2015-10-14 23:16:19
p298
sS'part1_incorrect_attempt'
p299
(lp300
(S'0:00:00'
p301
V6^10
p302
tp303
a(S'0:00:06'
p304
V10^6
p305
tp306
a(S'0:00:21'
p307
V10!/(6!*4!)
p308
tp309
assVagian
p310
(dp311
S'part1_correct_attempt'
p312
(lp313
S'0:01:27'
p314
aVC(65,5)
p315
asg9
V2015-10-15 07:28:54
p316
sS'part1_incorrect_attempt'
p317
(lp318
(S'0:00:00'
p319
VC(78,4)
p320
tp321
a(S'0:00:20'
p322
VC(78,4)
p323
tp324
assVppanourg
p325
(dp326
S'part1_correct_attempt'
p327
(lp328
S'6:47:07'
p329
aV(40*39*38*37*36)/(5!)
p330
asg9
V2015-10-15 00:13:28
p331
sS'part1_incorrect_attempt'
p332
(lp333
(S'0:00:00'
p334
V40*39*38*37
p335
tp336
a(S'0:00:34'
p337
V40*39*38*37*36
p338
tp339
a(S'0:03:19'
p340
V14*13*12*11*10
p341
tp342
a(S'0:00:00'
p343
V4*(10!/5!)
p344
tp345
a(S'0:03:12'
p346
V40*39*38*37*36
p347
tp348
a(S'0:00:00'
p349
V40*39*38*37
p350
tp351
assVdgunawan
p352
(dp353
S'part1_correct_attempt'
p354
(lp355
S'0:00:34'
p356
aVC(44,5)
p357
asg9
V2015-10-15 19:06:32
p358
sS'part1_incorrect_attempt'
p359
(lp360
(S'0:00:00'
p361
VC(13,1)*C(4,1)^5
p362
tp363
a(S'0:00:05'
p364
VC(11,1)*C(4,1)^5
p365
tp366
assVarvenega
p367
(dp368
S'part1_correct_attempt'
p369
(lp370
S'0:01:09'
p371
aV(40!)/((5!)*(35!))
p372
asg9
V2015-10-14 20:48:30
p373
sS'part1_incorrect_attempt'
p374
(lp375
(S'0:00:00'
p376
V4^10
p377
tp378
a(S'0:00:08'
p379
V10^4
p380
tp381
assVdtea
p382
(dp383
S'part1_correct_attempt'
p384
(lp385
S'0:00:19'
p386
aVC(70,5)
p387
asg9
V2015-10-15 23:37:29
p388
sS'part1_incorrect_attempt'
p389
(lp390
(S'0:00:00'
p391
V5*14
p392
tp393
assVhah008
p394
(dp395
S'part1_correct_attempt'
p396
(lp397
S'0:03:10'
p398
aVC(60, 5)
p399
asg9
V2015-10-13 06:32:32
p400
sS'part1_incorrect_attempt'
p401
(lp402
(S'0:00:00'
p403
V6*10
p404
tp405
a(S'0:02:11'
p406
V6^10
p407
tp408
assVcprafull
p409
(dp410
S'part1_correct_attempt'
p411
(lp412
S'0:00:50'
p413
aV84!/((5!)(79!))
p414
asg9
V2015-10-14 08:26:04
p415
sS'part1_incorrect_attempt'
p416
(lp417
(S'0:00:00'
p418
V52!/((47!)(5!))
p419
tp420
assVl8ngo
p421
(dp422
S'part1_correct_attempt'
p423
(lp424
S'0:01:37'
p425
aV56!/[5!51!]
p426
asg9
V2015-10-12 16:04:33
p427
sS'part1_incorrect_attempt'
p428
(lp429
(S'0:00:00'
p430
V52!/[5!47!]
p431
tp432
assVajabasa
p433
(dp434
S'part1_correct_attempt'
p435
(lp436
S'0:00:22'
p437
aV52!/(5!*47!)
p438
asg9
V2015-10-14 07:05:31
p439
sS'part1_incorrect_attempt'
p440
(lp441
(S'0:00:00'
p442
V52!/(6!*46!)
p443
tp444
assVdjk006
p445
(dp446
S'part1_correct_attempt'
p447
(lp448
S'0:00:14'
p449
aV56*55*54*53*52/5!
p450
asg9
V2015-10-11 02:46:57
p451
sS'part1_incorrect_attempt'
p452
(lp453
(S'0:00:00'
p454
V56*55*54*53*52
p455
tp456
assVhmnaing
p457
(dp458
S'part1_correct_attempt'
p459
(lp460
S'0:00:14'
p461
aVC(5*14, 5)
p462
asg9
V2015-10-13 00:41:13
p463
sS'part1_incorrect_attempt'
p464
(lp465
(S'0:00:00'
p466
VC(5*14, 1)
p467
tp468
assVaadhakal
p469
(dp470
S'part1_correct_attempt'
p471
(lp472
S'0:00:12'
p473
aV84!/(5!*(84-5)!)
p474
asg9
V2015-10-12 22:17:03
p475
sS'part1_incorrect_attempt'
p476
(lp477
(S'0:00:00'
p478
V84!(5!*(84-5)!)
p479
tp480
assVeyhu
p481
(dp482
S'part1_correct_attempt'
p483
(lp484
S'0:00:31'
p485
aV(6*15)!/(((6*15)-5)!*5!)
p486
asg9
V2015-10-09 03:01:03
p487
sS'part1_incorrect_attempt'
p488
(lp489
(S'0:00:00'
p490
V6*15
p491
tp492
assVsayao
p493
(dp494
S'part1_correct_attempt'
p495
(lp496
S'0:00:19'
p497
aV(4*16)!/(64-5)!/5!
p498
asg9
V2015-10-12 16:13:41
p499
sS'part1_incorrect_attempt'
p500
(lp501
(S'0:00:00'
p502
V(4*16)!/(52-5)!/5!
p503
tp504
assVanvan
p505
(dp506
S'part1_correct_attempt'
p507
(lp508
S'0:22:55'
p509
aV70! / (65!5!)
p510
asg9
V2015-10-15 00:55:14
p511
sS'part1_incorrect_attempt'
p512
(lp513
(S'0:00:00'
p514
V14!/(9!5!)
p515
tp516
a(S'0:04:14'
p517
V5(14*13*12*11*10)
p518
tp519
a(S'0:04:28'
p520
V5(14! / 5! 9!)
p521
tp522
a(S'0:04:44'
p523
V5 * 14! / (5! 9!)
p524
tp525
a(S'0:21:32'
p526
V5*(14!4!10!)
p527
tp528
a(S'0:21:38'
p529
V5*(14!/4!10!)
p530
tp531
a(S'0:21:47'
p532
V5*14!/(4!10!)
p533
tp534
assVsmohiman
p535
(dp536
S'part1_correct_attempt'
p537
(lp538
S'0:00:36'
p539
aVC(96,5)
p540
asg9
V2015-10-11 22:21:22
p541
sS'part1_incorrect_attempt'
p542
(lp543
(S'0:00:00'
p544
V16*6
p545
tp546
assVm4bui
p547
(dp548
S'part1_correct_attempt'
p549
(lp550
S'0:01:04'
p551
aV(66!/61!)/5!
p552
asg9
V2015-10-15 18:56:20
p553
sS'part1_incorrect_attempt'
p554
(lp555
(S'0:00:00'
p556
V66*65*64*63*62
p557
tp558
assVjjchung
p559
(dp560
S'part1_correct_attempt'
p561
(lp562
S'0:00:12'
p563
aVC(55,5)
p564
asg9
V2015-10-14 20:03:14
p565
sS'part1_incorrect_attempt'
p566
(lp567
(S'0:00:00'
p568
V55*54*53*52*51
p569
tp570
assVwcwhite
p571
(dp572
S'part1_correct_attempt'
p573
(lp574
S'0:10:33'
p575
aVC(11*4, 5)
p576
asg9
V2015-10-15 22:11:14
p577
sS'part1_incorrect_attempt'
p578
(lp579
(S'0:00:00'
p580
V44*43*42*41*40
p581
tp582
a(S'0:01:07'
p583
V(11^4)(11^4-1)(11^4-2)(11^4-3)
p584
tp585
a(S'0:01:47'
p586
V(11^4-4)(11^4)(11^4-1)(11^4-2)(11^4-3)
p587
tp588
assVcstringh
p589
(dp590
S'part1_correct_attempt'
p591
(lp592
S'0:37:01'
p593
aVC(75, 5)
p594
asg9
V2015-10-12 22:37:16
p595
sS'part1_incorrect_attempt'
p596
(lp597
(S'0:00:00'
p598
V5^15
p599
tp600
a(S'0:02:20'
p601
V60!
p602
tp603
a(S'0:03:50'
p604
VC(60, 4)
p605
tp606
a(S'0:35:20'
p607
V60*59*58*57*56*55
p608
tp609
a(S'0:35:28'
p610
V60*59*58*57*56
p611
tp612
assVcsl030
p613
(dp614
S'part1_correct_attempt'
p615
(lp616
S'0:01:57'
p617
aVC(78, 5)
p618
asg9
V2015-10-14 02:03:58
p619
sS'part1_incorrect_attempt'
p620
(lp621
(S'0:00:00'
p622
V78 * 77 * 76 * 75 * 74
p623
tp624
assVw4shin
p625
(dp626
S'part1_correct_attempt'
p627
(lp628
S'0:00:04'
p629
aV70!/(65!5!)
p630
asg9
V2015-10-14 03:14:46
p631
sS'part1_incorrect_attempt'
p632
(lp633
(S'0:00:00'
p634
V70!(65!5!)
p635
tp636
assVmitopete
p637
(dp638
S'part1_correct_attempt'
p639
(lp640
S'0:00:48'
p641
aV44!/(5!39!)
p642
asg9
V2015-10-13 20:48:03
p643
sS'part1_incorrect_attempt'
p644
(lp645
(S'0:00:00'
p646
V4!11!
p647
tp648
assVkquong
p649
(dp650
S'part1_correct_attempt'
p651
(lp652
S'0:01:01'
p653
aV70!/(5! *(70-5)!)
p654
asg9
V2015-10-11 05:02:45
p655
sS'part1_incorrect_attempt'
p656
(lp657
(S'0:00:00'
p658
V14!/(5! *(14-5)!)
p659
tp660
assVdcastlem
p661
(dp662
S'part1_correct_attempt'
p663
(lp664
S'0:01:07'
p665
aV80!/((5!)(75!))
p666
asg9
V2015-10-15 03:33:04
p667
sS'part1_incorrect_attempt'
p668
(lp669
(S'0:00:00'
p670
V5^16
p671
tp672
assVytc012
p673
(dp674
S'part1_correct_attempt'
p675
(lp676
S'0:01:06'
p677
aV90!/(5!85!)
p678
asg9
V2015-10-15 09:00:58
p679
sS'part1_incorrect_attempt'
p680
(lp681
(S'0:00:00'
p682
V90*89*88*87*86
p683
tp684
assVbkoli
p685
(dp686
S'part1_correct_attempt'
p687
(lp688
S'0:00:24'
p689
aV50!/(5!45!)
p690
asg9
V2015-10-15 19:16:09
p691
sS'part1_incorrect_attempt'
p692
(lp693
(S'0:00:00'
p694
V50!/(2!48!)
p695
tp696
assVhsc052
p697
(dp698
S'part1_correct_attempt'
p699
(lp700
S'0:00:32'
p701
aVC(50,5)
p702
asg9
V2015-10-15 05:43:06
p703
sS'part1_incorrect_attempt'
p704
(lp705
(S'0:00:00'
p706
V5*10
p707
tp708
assVabjara
p709
(dp710
S'part1_correct_attempt'
p711
(lp712
S'0:00:20'
p713
aV44!/(5!*39!)
p714
asg9
V2015-10-14 21:07:34
p715
sS'part1_incorrect_attempt'
p716
(lp717
(S'0:00:00'
p718
V44!/(39!)
p719
tp720
assVzig006
p721
(dp722
S'part1_correct_attempt'
p723
(lp724
S'0:02:00'
p725
aV80!/(5!*75!)
p726
asg9
V2015-10-12 23:22:34
p727
sS'part1_incorrect_attempt'
p728
(lp729
(S'0:00:00'
p730
V80!/76!
p731
tp732
a(S'0:00:06'
p733
V80!/75!
p734
tp735
a(S'0:00:23'
p736
V80*79*78*77*76
p737
tp738
assVaurodrig
p739
(dp740
S'part1_correct_attempt'
p741
(lp742
S'0:12:27'
p743
aV48!/(5!43!)
p744
asg9
V2015-10-15 20:09:40
p745
sS'part1_incorrect_attempt'
p746
(lp747
(S'0:00:00'
p748
VC(52,4)*C(12,5)
p749
tp750
a(S'0:11:41'
p751
V48!/5!43!
p752
tp753
assVsghouse
p754
(dp755
S'part1_correct_attempt'
p756
(lp757
S'0:01:08'
p758
aV78!/(5!*(73!))
p759
asg9
V2015-10-12 19:31:29
p760
sS'part1_incorrect_attempt'
p761
(lp762
(S'0:00:00'
p763
V78*77*76*75*74
p764
tp765
assVasp025
p766
(dp767
S'part1_correct_attempt'
p768
(lp769
S'2 days, 0:31:58'
p770
aV90!/(5!(90-5)!)
p771
asg9
V2015-10-13 06:57:54
p772
sS'part1_incorrect_attempt'
p773
(lp774
(S'0:00:00'
p775
V21!/(21-5)!5!
p776
tp777
a(S'0:00:39'
p778
V21!/((21-5)!5!)
p779
tp780
asss.