(dp0
S'11'
p1
(dp2
S'zkvick'
p3
(dp4
S'first_attempt'
p5
V2016-11-11 22:59:50
p6
sS'part11_correct_attempt'
p7
(lp8
S'0:00:00'
p9
aV(.2+2.4)*(.5+1.5)
p10
asS'part11_incorrect_attempt'
p11
(lp12
(S'-1 day, 23:53:03'
p13
V(2+2.4)*(5+1.5)
p14
tp15
assS'ctetreau'
p16
(dp17
g5
V2016-11-10 19:50:34
p18
sS'part11_correct_attempt'
p19
(lp20
S'0:00:00'
p21
aV5.2
p22
asS'part11_incorrect_attempt'
p23
(lp24
(S'-1 day, 23:53:56'
p25
V4.6
p26
tp27
assS'j2chang'
p28
(dp29
g5
V2016-11-11 22:30:03
p30
sS'part11_correct_attempt'
p31
(lp32
S'0:00:00'
p33
aV5.2
p34
asS'part11_incorrect_attempt'
p35
(lp36
(S'-1 day, 23:56:43'
p37
V8.2
p38
tp39
assS'PaulWall43'
p40
(dp41
g5
V2016-11-08 21:56:24
p42
sS'part11_correct_attempt'
p43
(lp44
S'0:00:00'
p45
aV5.2
p46
asS'part11_incorrect_attempt'
p47
(lp48
(S'-1 day, 23:31:25'
p49
V5.3
p50
tp51
a(S'-1 day, 23:39:03'
p52
V4.25
p53
tp54
a(S'-1 day, 23:41:23'
p55
V1.325
p56
tp57
a(S'-1 day, 23:46:46'
p58
V5.3
p59
tp60
a(S'-1 day, 23:49:05'
p61
V5.3
p62
tp63
a(S'-1 day, 23:50:13'
p64
V5.3
p65
tp66
assS'AndyYeung'
p67
(dp68
g5
V2016-11-13 00:12:16
p69
sS'part11_correct_attempt'
p70
(lp71
S'0:00:00'
p72
aV(.2*1+.8*3)*(.5*1+.5*3)
p73
asS'part11_incorrect_attempt'
p74
(lp75
(S'-1 day, 23:57:43'
p76
V(.2*1+.8*3)*(.5*1+.5*3)**2
p77
tp78
assS'nguyenbui'
p79
(dp80
g5
V2016-11-12 00:40:12
p81
sS'part11_correct_attempt'
p82
(lp83
S'0:00:00'
p84
aV(1*0.1 + 3*0.4  + 3*0.1 + 9*0.4)
p85
asS'part11_incorrect_attempt'
p86
(lp87
(S'-1 day, 23:53:54'
p88
V5.4
p89
tp90
assS'anMihaly'
p91
(dp92
g5
V2016-11-11 18:07:56
p93
sS'part11_correct_attempt'
p94
(lp95
S'0:00:00'
p96
aV2.6 * 2
p97
asS'part11_incorrect_attempt'
p98
(lp99
(S'-2 days, 10:40:21'
p100
V1.3
p101
tp102
assS'thartopu'
p103
(dp104
g5
V2016-11-12 07:47:06
p105
sS'part11_correct_attempt'
p106
(lp107
S'0:00:00'
p108
aV5.2
p109
asS'part11_incorrect_attempt'
p110
(lp111
(S'-1 day, 23:51:16'
p112
V0.5+9.6
p113
tp114
assS'mtashman'
p115
(dp116
g5
V2016-11-08 20:22:37
p117
sS'part11_correct_attempt'
p118
(lp119
S'0:00:00'
p120
aV2*(1*(.5) + 2*(0)+3*(.5))
p121
asS'part11_incorrect_attempt'
p122
(lp123
(S'0:00:00'
p124
V2*(1*(.5) + 2*(0)+3*(.5))
p125
tp126
assS'aliceh'
p127
(dp128
g5
V2016-11-10 01:18:40
p129
sS'part11_correct_attempt'
p130
(lp131
S'0:00:00'
p132
aV5.2
p133
asS'part11_incorrect_attempt'
p134
(lp135
(S'-1 day, 23:57:49'
p136
V6.4
p137
tp138
assS'pgupta'
p139
(dp140
g5
V2016-11-12 01:43:39
p141
sS'part11_correct_attempt'
p142
(lp143
S'0:00:00'
p144
aV5.2
p145
asS'part11_incorrect_attempt'
p146
(lp147
(S'-1 day, 23:55:32'
p148
V3.2
p149
tp150
assS'kevin'
p151
(dp152
g5
V2016-11-12 07:51:02
p153
sS'part11_correct_attempt'
p154
(lp155
S'0:00:00'
p156
aV5.2
p157
asS'part11_incorrect_attempt'
p158
(lp159
(S'-1 day, 16:35:48'
p160
V6.1
p161
tp162
assS'tommyt1109'
p163
(dp164
g5
V2016-11-09 06:23:51
p165
sS'part11_correct_attempt'
p166
(lp167
S'0:00:00'
p168
aV((.2)+(3*.8))((.5)+(3*.5))
p169
asS'part11_incorrect_attempt'
p170
(lp171
(S'-1 day, 23:52:57'
p172
V(1*.2)+(0)+(3*.8)^2
p173
tp174
a(S'-1 day, 23:56:03'
p175
V((1*.2)+(0)+(3*.8))^2
p176
tp177
asssS'10'
p178
(dp179
S'rdabir'
p180
(dp181
S'part10_incorrect_attempt'
p182
(lp183
(S'0:00:00'
p184
V5-2^2
p185
tp186
asg5
V2016-11-08 08:21:44
p187
sS'part10_correct_attempt'
p188
(lp189
S'0:00:00'
p190
aV5-2^2
p191
assS'HaoDong'
p192
(dp193
S'part10_incorrect_attempt'
p194
(lp195
(S'-4 days, 23:10:55'
p196
V0.5+9*0.5
p197
tp198
a(S'-4 days, 23:15:17'
p199
V0.5+9*0.5-(0.5+3*0.5)^2
p200
tp201
a(S'-1 day, 23:51:52'
p202
V0.5+9*0.5-(0.5+3*0.5)^2
p203
tp204
a(S'0:00:00'
p205
V0.5+9*0.5-(0.5+3*0.5)^2
p206
tp207
asg5
V2016-11-12 07:29:06
p208
sS'part10_correct_attempt'
p209
(lp210
S'0:00:00'
p211
aV0.5+9*0.5-(0.5+3*0.5)^2
p212
assS'Ian'
p213
(dp214
S'part10_incorrect_attempt'
p215
(lp216
(S'-1 day, 23:55:30'
p217
V(.5 + 0 + 9*.5) - (.5 + 0 + 3*.5)^2
p218
tp219
a(S'0:00:00'
p220
V(.5 + 0 + 9*.5)- (.5 + 0 + 3*.5)^2
p221
tp222
asg5
V2016-11-11 21:32:49
p223
sS'part10_correct_attempt'
p224
(lp225
S'0:00:00'
p226
aV(.5 + 0 + 9*.5)- (.5 + 0 + 3*.5)^2
p227
assS'piamsiri'
p228
(dp229
S'part10_incorrect_attempt'
p230
(lp231
(S'-1 day, 23:51:40'
p232
V(1*0.5 + 9*0.5) - (1*0.5 + 3*0.5)^2
p233
tp234
a(S'0:00:00'
p235
V(1*0.5 + 9*0.5) - (1*0.5 + 3*0.5)^2
p236
tp237
asg5
V2016-11-08 01:47:09
p238
sS'part10_correct_attempt'
p239
(lp240
S'0:00:00'
p241
aV(1*0.5 + 9*0.5) - (1*0.5 + 3*0.5)^2
p242
assS'evahuynh'
p243
(dp244
S'part10_incorrect_attempt'
p245
(lp246
(S'0:00:00'
p247
V(1*0.5+9*0.5)-(1*0.5+2*0+3*0.5)^2
p248
tp249
asg5
V2016-11-07 20:45:59
p250
sS'part10_correct_attempt'
p251
(lp252
S'0:00:00'
p253
aV(1*0.5+9*0.5)-(1*0.5+2*0+3*0.5)^2
p254
assS'ReneSanchez'
p255
(dp256
S'part10_incorrect_attempt'
p257
(lp258
(S'-1 day, 23:53:35'
p259
V(0.5*(1^2) + 0.5*(3^2) ) - (0.5*1 + 0.5*3)^2
p260
tp261
a(S'0:00:00'
p262
V (0.5*(1^2) + 0.5*(3^2) ) - (0.5*1 + 0.5*3)^2
p263
tp264
asg5
V2016-11-10 04:43:26
p265
sS'part10_correct_attempt'
p266
(lp267
S'0:00:00'
p268
aV (0.5*(1^2) + 0.5*(3^2) ) - (0.5*1 + 0.5*3)^2
p269
assS'jzhao156'
p270
(dp271
S'part10_incorrect_attempt'
p272
(lp273
(S'0:00:00'
p274
V0.5 + 4.5
p275
tp276
asg5
V2016-11-10 04:31:23
p277
sS'part10_correct_attempt'
p278
(lp279
S'0:00:00'
p280
aV0.5 + 4.5
p281
assS'KabirGogia'
p282
(dp283
S'part10_incorrect_attempt'
p284
(lp285
(S'0:00:00'
p286
V.5 + .5*9 - (.5 + .5*3)^2
p287
tp288
asg5
V2016-11-12 01:45:13
p289
sS'part10_correct_attempt'
p290
(lp291
S'0:00:00'
p292
aV.5 + .5*9 - (.5 + .5*3)^2
p293
assS'rsamuail'
p294
(dp295
S'part10_incorrect_attempt'
p296
(lp297
(S'0:00:00'
p298
V(.5+4.5)-((.5+1.5)^2)
p299
tp300
asg5
V2016-11-09 19:48:41
p301
sS'part10_correct_attempt'
p302
(lp303
S'0:00:00'
p304
aV(.5+4.5)-((.5+1.5)^2)
p305
assS'Ryan_Yi'
p306
(dp307
S'part10_incorrect_attempt'
p308
(lp309
(S'-4 days, 4:07:23'
p310
V((1-((1 * 0.5) + (2 * 0) + (3 * 0.5)))^2 * 0.5) + ((2-((1 * 0.5) + (2 * 0) + (3 * 0.5)))^2 * 0) + ((3-((1 * 0.5) + (2 * 0) + (3 * 0.5)))^2 * 0.5)
p311
tp312
a(S'-1 day, 23:53:18'
p313
V((1-((1 * 0.5) + (2 * 0) + (3 * 0.5)))^2 * 0.5) + ((2-((1 * 0.5) + (2 * 0) + (3 * 0.5)))^2 * 0) + ((3-((1 * 0.5) + (2 * 0) + (3 * 0.5)))^2 * 0.5)
p314
tp315
a(S'-1 day, 23:54:41'
p316
V((1-((1 * 0.5) + (2 * 0) + (3 * 0.5)))^2 * 0.5) + ((2-((1 * 0.5) + (2 * 0) + (3 * 0.5)))^2 * 0) + ((3-((1 * 0.5) + (2 * 0) + (3 * 0.5)))^2 * 0.5)
p317
tp318
a(S'0:00:00'
p319
V((1-((1 * 0.5) + (2 * 0) + (3 * 0.5)))^2 * 0.5) + ((2-((1 * 0.5) + (2 * 0) + (3 * 0.5)))^2 * 0) + ((3-((1 * 0.5) + (2 * 0) + (3 * 0.5)))^2 * 0.5)
p320
tp321
asg5
V2016-11-10 21:43:26
p322
sS'part10_correct_attempt'
p323
(lp324
S'0:00:00'
p325
aV((1-((1 * 0.5) + (2 * 0) + (3 * 0.5)))^2 * 0.5) + ((2-((1 * 0.5) + (2 * 0) + (3 * 0.5)))^2 * 0) + ((3-((1 * 0.5) + (2 * 0) + (3 * 0.5)))^2 * 0.5)
p326
assS'chenboy3'
p327
(dp328
S'part10_incorrect_attempt'
p329
(lp330
(S'0:00:00'
p331
V1 * 0.5 + 1 * 0.5
p332
tp333
asg5
V2016-11-10 06:30:12
p334
sS'part10_correct_attempt'
p335
(lp336
S'0:00:00'
p337
aV1 * 0.5 + 1 * 0.5
p338
assS'jih089'
p339
(dp340
S'part10_incorrect_attempt'
p341
(lp342
(S'0:00:00'
p343
V0.5*1+0.5*1
p344
tp345
asg5
V2016-11-08 22:42:55
p346
sS'part10_correct_attempt'
p347
(lp348
S'0:00:00'
p349
aV0.5*1+0.5*1
p350
assS'Jyrodgers'
p351
(dp352
S'part10_incorrect_attempt'
p353
(lp354
(S'-1 day, 23:48:01'
p355
V((1^2*.5)+(3^2*.5))-((1*.5)+(3*.5))^2
p356
tp357
a(S'-1 day, 23:56:52'
p358
V((1^2*.5)+(3^2*.5))-((1*.5)+(3*.5))^2
p359
tp360
a(S'0:00:00'
p361
V((1^2*.5)+(3^2*.5))-((1*.5)+(3*.5))^2
p362
tp363
asg5
V2016-11-12 01:01:21
p364
sS'part10_correct_attempt'
p365
(lp366
S'0:00:00'
p367
aV((1^2*.5)+(3^2*.5))-((1*.5)+(3*.5))^2
p368
assS'JonDo'
p369
(dp370
S'part10_incorrect_attempt'
p371
(lp372
(S'-1 day, 23:55:49'
p373
V(1*(0.1+0+0.4))+(4*(0+0+0))+(9*(0.1+0+0.4))-((1*(0.1+0+0.4))+(2*(0+0+0))+(3*(0.1+0+0.4)))^2
p374
tp375
a(S'0:00:00'
p376
V(1*(0.1+0+0.4))+(4*(0+0+0))+(9*(0.1+0+0.4))-((1*(0.1+0+0.4))+(2*(0+0+0))+(3*(0.1+0+0.4)))^2
p377
tp378
asg5
V2016-11-11 01:10:14
p379
sS'part10_correct_attempt'
p380
(lp381
S'0:00:00'
p382
aV(1*(0.1+0+0.4))+(4*(0+0+0))+(9*(0.1+0+0.4))-((1*(0.1+0+0.4))+(2*(0+0+0))+(3*(0.1+0+0.4)))^2
p383
assS'Steven_Natalius'
p384
(dp385
S'part10_incorrect_attempt'
p386
(lp387
(S'-1 day, 23:48:22'
p388
V0.5 + 0 + 9 * 0.5 - (0.5 + 0 + 1.5)^2
p389
tp390
a(S'-1 day, 23:52:04'
p391
V0.5 + 0 + 9 * 0.5 - (0.5 + 1.5)^2
p392
tp393
a(S'0:00:00'
p394
V0.5 + 0 + 9 * 0.5 - (0.5 + 0 + 1.5)^2
p395
tp396
asg5
V2016-11-08 04:56:01
p397
sS'part10_correct_attempt'
p398
(lp399
S'0:00:00'
p400
aV0.5 + 0 + 9 * 0.5 - (0.5 + 0 + 1.5)^2
p401
assS'tsy'
p402
(dp403
S'part10_incorrect_attempt'
p404
(lp405
(S'-1 day, 23:55:21'
p406
V(0.5+9*0.5)-4
p407
tp408
asg5
V2016-11-10 08:03:40
p409
sS'part10_correct_attempt'
p410
(lp411
S'0:00:00'
p412
aV1
p413
assg163
(dp414
S'part10_incorrect_attempt'
p415
(lp416
(S'-1 day, 23:52:57'
p417
V((1*.5)+(0)+(9*.5))-((1*.5)+(0)+(3*.5))^2
p418
tp419
a(S'-1 day, 23:56:03'
p420
V((.5)+(9*.5))-((.5)+(1.5))^2
p421
tp422
a(S'-1 day, 23:58:34'
p423
V((.5)+(9*.5))-((.5)+(3*.5))^2
p424
tp425
a(S'0:00:00'
p426
V((.5)+(9*.5))-((.5)+(3*.5))^2
p427
tp428
asg5
g165
sS'part10_correct_attempt'
p429
(lp430
S'0:00:00'
p431
aV((.5)+(9*.5))-((.5)+(3*.5))^2
p432
assS'bfalk'
p433
(dp434
S'part10_incorrect_attempt'
p435
(lp436
(S'0:00:00'
p437
V(0.5 + 0.5*9) - (0.5 + 3*0.5)^2
p438
tp439
asg5
V2016-11-10 22:37:51
p440
sS'part10_correct_attempt'
p441
(lp442
S'0:00:00'
p443
aV(0.5 + 0.5*9) - (0.5 + 3*0.5)^2
p444
assS'ddantas'
p445
(dp446
S'part10_incorrect_attempt'
p447
(lp448
(S'-1 day, 23:48:27'
p449
V(1*(.1 + 0 + .4) + 2*(0) + 3*3*(.1 + 0 + .4)) - 1*(.1 + 0 + .4) + 2*(0) + 3*(.1 + 0 + .4)
p450
tp451
a(S'-1 day, 23:57:06'
p452
V(1*((.1)+0+(.4)) + 2*0 + (3*3)*(.1+0+.4)) - ((1*((.1)+0+(.4)) + 2*0 + 3*(.1+0+.4))*(1*((.1)+0+(.4)) + 2*0 + 3*(.1+0+.4)))
p453
tp454
a(S'0:00:00'
p455
V(1*((.1)+0+(.4)) + 2*0 + (3*3)*(.1+0+.4)) - ((1*((.1)+0+(.4)) + 2*0 + 3*(.1+0+.4))*(1*((.1)+0+(.4)) + 2*0 + 3*(.1+0+.4)))
p456
tp457
asg5
V2016-11-10 08:12:12
p458
sS'part10_correct_attempt'
p459
(lp460
S'0:00:00'
p461
aV(1*((.1)+0+(.4)) + 2*0 + (3*3)*(.1+0+.4)) - ((1*((.1)+0+(.4)) + 2*0 + 3*(.1+0+.4))*(1*((.1)+0+(.4)) + 2*0 + 3*(.1+0+.4)))
p462
assS'jhfan'
p463
(dp464
S'part10_incorrect_attempt'
p465
(lp466
(S'0:00:00'
p467
V(0.5+4.5)-(4)
p468
tp469
asg5
V2016-11-11 11:03:44
p470
sS'part10_correct_attempt'
p471
(lp472
S'0:00:00'
p473
aV(0.5+4.5)-(4)
p474
assS'nanguian'
p475
(dp476
S'part10_incorrect_attempt'
p477
(lp478
(S'0:00:00'
p479
V(1*.5+9*.5)-(1*.5+3*.5)^2
p480
tp481
asg5
V2016-11-12 07:05:07
p482
sS'part10_correct_attempt'
p483
(lp484
S'0:00:00'
p485
aV(1*.5+9*.5)-(1*.5+3*.5)^2
p486
assS'dillonliu'
p487
(dp488
S'part10_incorrect_attempt'
p489
(lp490
(S'-1 day, 23:58:36'
p491
V5 - 4
p492
tp493
asg5
V2016-11-08 02:38:12
p494
sS'part10_correct_attempt'
p495
(lp496
S'0:00:00'
p497
aV1
p498
assS'TianhaoQiu'
p499
(dp500
S'part10_incorrect_attempt'
p501
(lp502
(S'-1 day, 23:55:27'
p503
V(0.5+0.5*9)-(0.5+0.5*3)^2
p504
tp505
a(S'0:00:00'
p506
V (0.5+0.5*9)-(0.5+0.5*3)^2
p507
tp508
asg5
V2016-11-09 23:50:05
p509
sS'part10_correct_attempt'
p510
(lp511
S'0:00:00'
p512
aV (0.5+0.5*9)-(0.5+0.5*3)^2
p513
assS'URajkumar'
p514
(dp515
S'part10_incorrect_attempt'
p516
(lp517
(S'-1 day, 23:57:16'
p518
V(0.5 + 9*0.5) - (0.5 + 3*0.5)^2
p519
tp520
a(S'0:00:00'
p521
V(0.5 + 9*0.5) - (0.5 + 3*0.5)^2
p522
tp523
asg5
V2016-11-11 20:58:51
p524
sS'part10_correct_attempt'
p525
(lp526
S'0:00:00'
p527
aV(0.5 + 9*0.5) - (0.5 + 3*0.5)^2
p528
assS'brandon_vo'
p529
(dp530
S'part10_incorrect_attempt'
p531
(lp532
(S'0:00:00'
p533
V(0.5+9*0.5)-(0.5+3*0.5)^2
p534
tp535
asg5
V2016-11-10 07:50:41
p536
sS'part10_correct_attempt'
p537
(lp538
S'0:00:00'
p539
aV(0.5+9*0.5)-(0.5+3*0.5)^2
p540
assS'NickWong'
p541
(dp542
S'part10_incorrect_attempt'
p543
(lp544
(S'0:00:00'
p545
V.5+4.5-4
p546
tp547
asg5
V2016-11-10 08:24:37
p548
sS'part10_correct_attempt'
p549
(lp550
S'0:00:00'
p551
aV.5+4.5-4
p552
assS'kkhuong'
p553
(dp554
S'part10_incorrect_attempt'
p555
(lp556
(S'-1 day, 23:57:50'
p557
V5-4
p558
tp559
asg5
V2016-11-11 15:28:50
p560
sS'part10_correct_attempt'
p561
(lp562
S'0:00:00'
p563
aV1
p564
assS'jar045'
p565
(dp566
S'part10_incorrect_attempt'
p567
(lp568
(S'0:00:00'
p569
V(0.5 + 4.5) - (4)
p570
tp571
asg5
V2016-11-10 04:50:16
p572
sS'part10_correct_attempt'
p573
(lp574
S'0:00:00'
p575
aV(0.5 + 4.5) - (4)
p576
assS'Byung'
p577
(dp578
S'part10_incorrect_attempt'
p579
(lp580
(S'-1 day, 23:48:54'
p581
V0.5 + 4.5 - 2
p582
tp583
a(S'-1 day, 23:50:41'
p584
V5-2
p585
tp586
a(S'0:00:00'
p587
V5-4
p588
tp589
asg5
V2016-11-08 02:27:28
p590
sS'part10_correct_attempt'
p591
(lp592
S'0:00:00'
p593
aV5-4
p594
assS'KevinCao'
p595
(dp596
S'part10_incorrect_attempt'
p597
(lp598
(S'-1 day, 23:58:26'
p599
V(0.5+4.5)-4
p600
tp601
a(S'0:00:00'
p602
V(0.5+4.5)-4
p603
tp604
asg5
V2016-11-11 08:02:06
p605
sS'part10_correct_attempt'
p606
(lp607
S'0:00:00'
p608
aV(0.5+4.5)-4
p609
assS'gurkiratsingh'
p610
(dp611
S'part10_incorrect_attempt'
p612
(lp613
(S'0:00:00'
p614
V(1*0.5 + 4*0 + 9*0.5) - 4
p615
tp616
asg5
V2016-11-12 23:50:20
p617
sS'part10_correct_attempt'
p618
(lp619
S'0:00:00'
p620
aV(1*0.5 + 4*0 + 9*0.5) - 4
p621
assS'kmesic'
p622
(dp623
S'part10_incorrect_attempt'
p624
(lp625
(S'0:00:00'
p626
V(0.1 +0.4 + 9*(0.1 + 0.4)) - 4
p627
tp628
asg5
V2016-11-09 23:32:38
p629
sS'part10_correct_attempt'
p630
(lp631
S'0:00:00'
p632
aV(0.1 +0.4 + 9*(0.1 + 0.4)) - 4
p633
assS'djku'
p634
(dp635
S'part10_incorrect_attempt'
p636
(lp637
(S'-1 day, 23:54:05'
p638
V(.5+9*.5) - (.5+3*.5)^2
p639
tp640
a(S'0:00:00'
p641
V(.5+9*.5) - (.5+3*.5)^2
p642
tp643
asg5
V2016-11-10 09:33:25
p644
sS'part10_correct_attempt'
p645
(lp646
S'0:00:00'
p647
aV(.5+9*.5) - (.5+3*.5)^2
p648
assS'alvinyho'
p649
(dp650
S'part10_incorrect_attempt'
p651
(lp652
(S'-1 day, 23:39:52'
p653
V(1*.5+9*.5) - (1*.5+3*.5)^2
p654
tp655
asg5
V2016-11-11 10:51:07
p656
sS'part10_correct_attempt'
p657
(lp658
S'0:00:00'
p659
aV1
p660
assS'GNajera'
p661
(dp662
S'part10_incorrect_attempt'
p663
(lp664
(S'0:00:00'
p665
V(.5 + 9*.5) - (.5 + 3*(1/2))
p666
tp667
asg5
V2016-11-08 00:38:57
p668
sS'part10_correct_attempt'
p669
(lp670
S'0:00:00'
p671
aV(.5 + 9*.5) - (.5 + 3*(1/2))
p672
assS'rleaton'
p673
(dp674
S'part10_incorrect_attempt'
p675
(lp676
(S'-1 day, 23:51:40'
p677
V5-2^2
p678
tp679
a(S'-1 day, 23:57:49'
p680
V5- 4
p681
tp682
a(S'0:00:00'
p683
V5-4
p684
tp685
asg5
V2016-11-12 00:03:25
p686
sS'part10_correct_attempt'
p687
(lp688
S'0:00:00'
p689
aV5-4
p690
assS'alidding'
p691
(dp692
S'part10_incorrect_attempt'
p693
(lp694
(S'-1 day, 23:42:22'
p695
V1*.5+3*3*.5-1*.5+3*.5
p696
tp697
a(S'-1 day, 23:47:02'
p698
V1*.5+3*3*.5-(1*.5+3*.5)
p699
tp700
a(S'-1 day, 23:56:02'
p701
V1*.5+3*3*.5-(1*.5+3*.5)^2
p702
tp703
a(S'0:00:00'
p704
V1*.5+3*3*.5-(1*.5+3*.5)^2
p705
tp706
asg5
V2016-11-10 18:37:15
p707
sS'part10_correct_attempt'
p708
(lp709
S'0:00:00'
p710
aV1*.5+3*3*.5-(1*.5+3*.5)^2
p711
assS'njcrow'
p712
(dp713
S'part10_incorrect_attempt'
p714
(lp715
(S'-1 day, 23:54:01'
p716
V1*.5 + 0 + .5
p717
tp718
a(S'0:00:00'
p719
V1*.5 + 0 + .5
p720
tp721
asg5
V2016-11-11 06:23:11
p722
sS'part10_correct_attempt'
p723
(lp724
S'0:00:00'
p725
aV1*.5 + 0 + .5
p726
assS'srrozen'
p727
(dp728
S'part10_incorrect_attempt'
p729
(lp730
(S'-1 day, 23:57:02'
p731
V10*0.5
p732
tp733
a(S'0:00:00'
p734
V(10*0.5)-4
p735
tp736
asg5
V2016-11-07 06:39:31
p737
sS'part10_correct_attempt'
p738
(lp739
S'0:00:00'
p740
aV(10*0.5)-4
p741
assS'danFlorencio'
p742
(dp743
S'part10_incorrect_attempt'
p744
(lp745
(S'0:00:00'
p746
V5 - 4
p747
tp748
asg5
V2016-11-11 17:54:01
p749
sS'part10_correct_attempt'
p750
(lp751
S'0:00:00'
p752
aV5 - 4
p753
assS'gpagliar'
p754
(dp755
S'part10_incorrect_attempt'
p756
(lp757
(S'-1 day, 23:47:22'
p758
V(1*0.5+2*0+3^2*0.5)-(1*0.5+2*0+3*0.5)^2
p759
tp760
a(S'0:00:00'
p761
V(1*0.5+2*0+3^2*0.5)-(1*0.5+2*0+3*0.5)^2
p762
tp763
asg5
V2016-11-10 22:10:09
p764
sS'part10_correct_attempt'
p765
(lp766
S'0:00:00'
p767
aV(1*0.5+2*0+3^2*0.5)-(1*0.5+2*0+3*0.5)^2
p768
assS'AndyYeung'
p769
(dp770
S'part10_incorrect_attempt'
p771
(lp772
(S'-1 day, 23:46:28'
p773
V(1*.5+9*.5) - (.5*1+.5*3)
p774
tp775
a(S'-1 day, 23:57:43'
p776
V(1*.5+9*.5) - (.5*1+.5*3)**2
p777
tp778
a(S'0:00:00'
p779
V(1*.5+9*.5) - (.5*1+.5*3)**2
p780
tp781
asg5
g69
sS'part10_correct_attempt'
p782
(lp783
S'0:00:00'
p784
aV(1*.5+9*.5) - (.5*1+.5*3)**2
p785
assS'SidneyNguyen'
p786
(dp787
S'part10_incorrect_attempt'
p788
(lp789
(S'0:00:00'
p790
V0.5+4.5-(0.5+1.5)^2
p791
tp792
asg5
V2016-11-12 00:10:30
p793
sS'part10_correct_attempt'
p794
(lp795
S'0:00:00'
p796
aV0.5+4.5-(0.5+1.5)^2
p797
assS'vicorhe'
p798
(dp799
S'part10_incorrect_attempt'
p800
(lp801
(S'0:00:00'
p802
V5-4
p803
tp804
asg5
V2016-11-11 12:34:15
p805
sS'part10_correct_attempt'
p806
(lp807
S'0:00:00'
p808
aV5-4
p809
assS'RodrigoM'
p810
(dp811
S'part10_incorrect_attempt'
p812
(lp813
(S'-1 day, 23:30:42'
p814
V(1-2)^(2)+(2-2)^(2)+(3-2)^(2)
p815
tp816
asg5
V2016-11-10 08:26:34
p817
sS'part10_correct_attempt'
p818
(lp819
S'0:00:00'
p820
aV1
p821
assS'hunguyen'
p822
(dp823
S'part10_incorrect_attempt'
p824
(lp825
(S'-1 day, 23:27:13'
p826
V.5 + .5*9 - (.5 + .5*3)^2
p827
tp828
a(S'0:00:00'
p829
V.5 + .5*9 - (.5 + .5*3)^2
p830
tp831
asg5
V2016-11-11 06:07:27
p832
sS'part10_correct_attempt'
p833
(lp834
S'0:00:00'
p835
aV.5 + .5*9 - (.5 + .5*3)^2
p836
assS'mhatch'
p837
(dp838
S'part10_incorrect_attempt'
p839
(lp840
(S'0:00:00'
p841
V.5 * 1 + .5 * 9 - (.5 + 1.5)^2
p842
tp843
asg5
V2016-11-09 05:58:11
p844
sS'part10_correct_attempt'
p845
(lp846
S'0:00:00'
p847
aV.5 * 1 + .5 * 9 - (.5 + 1.5)^2
p848
assS'wtchiu'
p849
(dp850
S'part10_incorrect_attempt'
p851
(lp852
(S'0:00:00'
p853
V(1*.5+3*3*.5)-((1*.5+3*.5)^(2))
p854
tp855
asg5
V2016-11-11 18:57:19
p856
sS'part10_correct_attempt'
p857
(lp858
S'0:00:00'
p859
aV(1*.5+3*3*.5)-((1*.5+3*.5)^(2))
p860
assS'Derrick'
p861
(dp862
S'part10_incorrect_attempt'
p863
(lp864
(S'-1 day, 23:46:21'
p865
V0.5+3^2*0.5-(0.5+3*0.5)^2
p866
tp867
a(S'-1 day, 23:53:37'
p868
V0.5+9*0.5
p869
tp870
a(S'-1 day, 23:56:45'
p871
V0.5+9*0.5-(0.5+3*0.5)^2
p872
tp873
a(S'0:00:00'
p874
V(0.5+9*0.5)-(0.5+3*0.5)^2
p875
tp876
asg5
V2016-11-10 06:33:34
p877
sS'part10_correct_attempt'
p878
(lp879
S'0:00:00'
p880
aV(0.5+9*0.5)-(0.5+3*0.5)^2
p881
assS'Alix'
p882
(dp883
S'part10_incorrect_attempt'
p884
(lp885
(S'-1 day, 23:29:32'
p886
V.5+9*.5-(.5+3*.5)^2
p887
tp888
a(S'-1 day, 23:44:08'
p889
V.5+9*.5 - (.5+3*.5)^2
p890
tp891
a(S'0:00:00'
p892
V.5+9*.5 - (.5+3*.5)^2
p893
tp894
asg5
V2016-11-10 06:47:34
p895
sS'part10_correct_attempt'
p896
(lp897
S'0:00:00'
p898
aV.5+9*.5 - (.5+3*.5)^2
p899
assS'ccaine'
p900
(dp901
S'part10_incorrect_attempt'
p902
(lp903
(S'0:00:00'
p904
V(1^2*0.5+2^2*0+3^2*0.5)-((0.5+3*0.5)^2)
p905
tp906
asg5
V2016-11-12 20:17:30
p907
sS'part10_correct_attempt'
p908
(lp909
S'0:00:00'
p910
aV(1^2*0.5+2^2*0+3^2*0.5)-((0.5+3*0.5)^2)
p911
assS'm2olsen'
p912
(dp913
S'part10_incorrect_attempt'
p914
(lp915
(S'0:00:00'
p916
V.5*(1-2)^2 + .5*(3-2)^2
p917
tp918
asg5
V2016-11-11 21:02:14
p919
sS'part10_correct_attempt'
p920
(lp921
S'0:00:00'
p922
aV.5*(1-2)^2 + .5*(3-2)^2
p923
assS'djmoreno'
p924
(dp925
S'part10_incorrect_attempt'
p926
(lp927
(S'-1 day, 23:38:14'
p928
V((1*0.5)+(4*0)+(9*0.5))-((1*0.5)+(2*0)+(3*0.5))^2
p929
tp930
a(S'-1 day, 23:46:57'
p931
V((1*0.5)+(4*0)+(9*0.5))-((1*0.5)+(2*0)+(3*0.5))^2
p932
tp933
a(S'-1 day, 23:53:02'
p934
V((1*0.5)+(4*0)+(9*0.5))-((1*0.5)+(2*0)+(3*0.5))^2
p935
tp936
a(S'0:00:00'
p937
V((1*0.5)+(4*0)+(9*0.5))-((1*0.5)+(2*0)+(3*0.5))^2
p938
tp939
asg5
V2016-11-11 05:41:56
p940
sS'part10_correct_attempt'
p941
(lp942
S'0:00:00'
p943
aV((1*0.5)+(4*0)+(9*0.5))-((1*0.5)+(2*0)+(3*0.5))^2
p944
assS'Marshalls'
p945
(dp946
S'part10_incorrect_attempt'
p947
(lp948
(S'0:00:00'
p949
V0.5+0.5*9-4
p950
tp951
asg5
V2016-11-12 23:52:40
p952
sS'part10_correct_attempt'
p953
(lp954
S'0:00:00'
p955
aV0.5+0.5*9-4
p956
assS'wesokuhara'
p957
(dp958
S'part10_incorrect_attempt'
p959
(lp960
(S'-1 day, 23:45:40'
p961
V(1*0.5 + 9*0.5) - (1*0.5 + 3*0.5)^2
p962
tp963
a(S'0:00:00'
p964
V(1*0.5 + 9*0.5) - (1*0.5 + 3*0.5)^2
p965
tp966
asg5
V2016-11-10 06:37:19
p967
sS'part10_correct_attempt'
p968
(lp969
S'0:00:00'
p970
aV(1*0.5 + 9*0.5) - (1*0.5 + 3*0.5)^2
p971
assS'nguyenbui'
p972
(dp973
S'part10_incorrect_attempt'
p974
(lp975
(S'-1 day, 23:36:57'
p976
V((1*0.5+9*0.5)-(1*0.5+3*0.5)*(1*0.5+3*0.5))
p977
tp978
a(S'-1 day, 23:48:41'
p979
V((1*0.5+9*0.5)-(1*0.5+3*0.5)*(1*0.5+3*0.5))
p980
tp981
a(S'0:00:00'
p982
V((1*0.5+9*0.5)-(1*0.5+3*0.5)*(1*0.5+3*0.5))
p983
tp984
asg5
g81
sS'part10_correct_attempt'
p985
(lp986
S'0:00:00'
p987
aV((1*0.5+9*0.5)-(1*0.5+3*0.5)*(1*0.5+3*0.5))
p988
assS'ray003'
p989
(dp990
S'part10_incorrect_attempt'
p991
(lp992
(S'-1 day, 23:53:48'
p993
V((1-2)^2*(0.5))+((3-2)^2*(0.5))
p994
tp995
a(S'-1 day, 23:57:39'
p996
V((1-2)^2*0.5)+((3-2)^2*0.5)
p997
tp998
a(S'0:00:00'
p999
V((1-2)^2*(0.5))+((3-2)^2*(0.5))
p1000
tp1001
asg5
V2016-11-07 19:08:09
p1002
sS'part10_correct_attempt'
p1003
(lp1004
S'0:00:00'
p1005
aV((1-2)^2*(0.5))+((3-2)^2*(0.5))
p1006
assS'JunnelReboquio'
p1007
(dp1008
S'part10_incorrect_attempt'
p1009
(lp1010
(S'0:00:00'
p1011
V(1^2 * 0.5 + 3^2 * 0.5) - (1* 0.5 + 3* 0.5)^2
p1012
tp1013
asg5
V2016-11-12 03:30:30
p1014
sS'part10_correct_attempt'
p1015
(lp1016
S'0:00:00'
p1017
aV(1^2 * 0.5 + 3^2 * 0.5) - (1* 0.5 + 3* 0.5)^2
p1018
assS'christhoperbernard'
p1019
(dp1020
S'part10_incorrect_attempt'
p1021
(lp1022
(S'-1 day, 23:48:33'
p1023
V(0.5+9*0.5)-(0.5+3*0.5)^2
p1024
tp1025
a(S'0:00:00'
p1026
V0.5+9*0.5-4
p1027
tp1028
asg5
V2016-11-08 04:57:37
p1029
sS'part10_correct_attempt'
p1030
(lp1031
S'0:00:00'
p1032
aV0.5+9*0.5-4
p1033
assS'Sync'
p1034
(dp1035
S'part10_incorrect_attempt'
p1036
(lp1037
(S'-1 day, 23:58:32'
p1038
V(.5+4.5)-(.5+1.5)^2
p1039
tp1040
a(S'0:00:00'
p1041
V(.5+4.5)-(.5+1.5)^2
p1042
tp1043
asg5
V2016-11-12 23:55:46
p1044
sS'part10_correct_attempt'
p1045
(lp1046
S'0:00:00'
p1047
aV(.5+4.5)-(.5+1.5)^2
p1048
assS'jefferyw'
p1049
(dp1050
S'part10_incorrect_attempt'
p1051
(lp1052
(S'0:00:00'
p1053
V0.5+0.5
p1054
tp1055
asg5
V2016-11-12 20:00:15
p1056
sS'part10_correct_attempt'
p1057
(lp1058
S'0:00:00'
p1059
aV0.5+0.5
p1060
assS'adejesus'
p1061
(dp1062
S'part10_incorrect_attempt'
p1063
(lp1064
(S'0:00:00'
p1065
V(0.5 +9*0.5) - (1*0.5 + 3*0.5)^2
p1066
tp1067
asg5
V2016-11-11 04:41:00
p1068
sS'part10_correct_attempt'
p1069
(lp1070
S'0:00:00'
p1071
aV(0.5 +9*0.5) - (1*0.5 + 3*0.5)^2
p1072
assS'yash'
p1073
(dp1074
S'part10_incorrect_attempt'
p1075
(lp1076
(S'-1 day, 23:54:14'
p1077
V(.5 + 9*.5) - (.5 + 3*.5)^2
p1078
tp1079
a(S'-1 day, 23:57:39'
p1080
V(.5 + 9*.5) - (.5 + 3*.5)^2
p1081
tp1082
a(S'-1 day, 23:59:08'
p1083
V(.5 + 9*.5) - (.5 + 3*.5)^2
p1084
tp1085
a(S'0:00:00'
p1086
V(.5 + 9*.5) - (.5 + 3*.5)^2
p1087
tp1088
asg5
V2016-11-11 08:18:46
p1089
sS'part10_correct_attempt'
p1090
(lp1091
S'0:00:00'
p1092
aV(.5 + 9*.5) - (.5 + 3*.5)^2
p1093
assS'Punderful'
p1094
(dp1095
S'part10_incorrect_attempt'
p1096
(lp1097
(S'0:00:00'
p1098
V(0.5 + 4.5) - (0.5 + 1.5)^2
p1099
tp1100
asg5
V2016-11-11 13:02:51
p1101
sS'part10_correct_attempt'
p1102
(lp1103
S'0:00:00'
p1104
aV(0.5 + 4.5) - (0.5 + 1.5)^2
p1105
assS'rjanowit'
p1106
(dp1107
S'part10_incorrect_attempt'
p1108
(lp1109
(S'-1 day, 23:55:19'
p1110
V(0.5+9+0.5)-(0.5+3*(0.5))^2
p1111
tp1112
a(S'-1 day, 23:58:26'
p1113
V(0.5+9*0.5)-(0.5+3*(0.5))^2
p1114
tp1115
a(S'0:00:00'
p1116
V(0.5+9*0.5)-(0.5+3*(0.5))^2
p1117
tp1118
asg5
V2016-11-11 04:51:01
p1119
sS'part10_correct_attempt'
p1120
(lp1121
S'0:00:00'
p1122
aV(0.5+9*0.5)-(0.5+3*(0.5))^2
p1123
assS'zpreeces'
p1124
(dp1125
S'part10_incorrect_attempt'
p1126
(lp1127
(S'-4 days, 23:06:24'
p1128
V0.5+9*(0.5)-((0.5+3*(0.5))^2)
p1129
tp1130
a(S'-4 days, 23:17:42'
p1131
V0.5+9*(0.5)-((0.5+3*(0.5))^2)
p1132
tp1133
a(S'-4 days, 23:54:35'
p1134
V0.5+9*(0.5)-((0.5+3*(0.5))^2)
p1135
tp1136
a(S'-1 day, 23:34:48'
p1137
V0.5+9*(0.5)-((0.5+3*(0.5))^2)
p1138
tp1139
a(S'0:00:00'
p1140
V0.5+9*(0.5)-((0.5+3*(0.5))^2)
p1141
tp1142
asg5
V2016-11-12 20:08:03
p1143
sS'part10_correct_attempt'
p1144
(lp1145
S'0:00:00'
p1146
aV0.5+9*(0.5)-((0.5+3*(0.5))^2)
p1147
assS'cshmerli'
p1148
(dp1149
S'part10_incorrect_attempt'
p1150
(lp1151
(S'-1 day, 23:48:02'
p1152
V.5+9*.5-4
p1153
tp1154
a(S'-1 day, 23:58:42'
p1155
V.5+9*.5-4
p1156
tp1157
a(S'0:00:00'
p1158
V.5+9*.5-4
p1159
tp1160
asg5
V2016-11-12 23:43:30
p1161
sS'part10_correct_attempt'
p1162
(lp1163
S'0:00:00'
p1164
aV.5+9*.5-4
p1165
assS'shadams'
p1166
(dp1167
S'part10_incorrect_attempt'
p1168
(lp1169
(S'0:00:00'
p1170
V1^2*(.1+.4) + 3^2*(.1+.4) - (1*(.1+.4) + 3*(.1+.4))^2
p1171
tp1172
asg5
V2016-11-10 03:41:20
p1173
sS'part10_correct_attempt'
p1174
(lp1175
S'0:00:00'
p1176
aV1^2*(.1+.4) + 3^2*(.1+.4) - (1*(.1+.4) + 3*(.1+.4))^2
p1177
assS'shravangrandhi'
p1178
(dp1179
S'part10_incorrect_attempt'
p1180
(lp1181
(S'-1 day, 23:55:21'
p1182
V.5 + 4.5 - 4
p1183
tp1184
asg5
V2016-11-12 21:46:45
p1185
sS'part10_correct_attempt'
p1186
(lp1187
S'0:00:00'
p1188
aV1
p1189
assS'StefanWooding'
p1190
(dp1191
S'part10_incorrect_attempt'
p1192
(lp1193
(S'-1 day, 23:49:57'
p1194
V0.5+9*0.5
p1195
tp1196
a(S'0:00:00'
p1197
V(0.5+9*0.5)-4
p1198
tp1199
asg5
V2016-11-11 05:32:33
p1200
sS'part10_correct_attempt'
p1201
(lp1202
S'0:00:00'
p1203
aV(0.5+9*0.5)-4
p1204
assS'Austin_Han'
p1205
(dp1206
S'part10_incorrect_attempt'
p1207
(lp1208
(S'0:00:00'
p1209
V1.0
p1210
tp1211
asg5
V2016-11-13 00:10:24
p1212
sS'part10_correct_attempt'
p1213
(lp1214
S'0:00:00'
p1215
aV1.0
p1216
assS'Shiyuc'
p1217
(dp1218
S'part10_incorrect_attempt'
p1219
(lp1220
(S'-1 day, 23:53:06'
p1221
V(1*0.5+9*0.5) - (1*0.5+3*0.5)^2
p1222
tp1223
a(S'-1 day, 23:56:34'
p1224
V(1*0.5+9*0.5) - (1*0.5+3*0.5)^2
p1225
tp1226
a(S'0:00:00'
p1227
V(1*0.5+9*0.5) - (1*0.5+3*0.5)^2
p1228
tp1229
asg5
V2016-11-09 06:11:23
p1230
sS'part10_correct_attempt'
p1231
(lp1232
S'0:00:00'
p1233
aV(1*0.5+9*0.5) - (1*0.5+3*0.5)^2
p1234
assS'A4chau'
p1235
(dp1236
S'part10_incorrect_attempt'
p1237
(lp1238
(S'-1 day, 23:58:37'
p1239
V5-4
p1240
tp1241
asg5
V2016-11-09 22:48:52
p1242
sS'part10_correct_attempt'
p1243
(lp1244
S'0:00:00'
p1245
aV1
p1246
assS'mbland'
p1247
(dp1248
S'part10_incorrect_attempt'
p1249
(lp1250
(S'0:00:00'
p1251
V(0.5+4.5)-(0.5+1.5)^2
p1252
tp1253
asg5
V2016-11-10 01:50:50
p1254
sS'part10_correct_attempt'
p1255
(lp1256
S'0:00:00'
p1257
aV(0.5+4.5)-(0.5+1.5)^2
p1258
assS'kballew00'
p1259
(dp1260
S'part10_incorrect_attempt'
p1261
(lp1262
(S'-1 day, 23:50:15'
p1263
V1*0.5+4*0+9*0.5-(1*0.5+2*0+3*0.5)^2
p1264
tp1265
a(S'-1 day, 23:56:29'
p1266
V(0.5+9*0.5)-(0.5+3*0.5)^2
p1267
tp1268
a(S'0:00:00'
p1269
V0.5+9*0.5-(0.5+3*0.5)^2
p1270
tp1271
asg5
V2016-11-11 20:01:41
p1272
sS'part10_correct_attempt'
p1273
(lp1274
S'0:00:00'
p1275
aV0.5+9*0.5-(0.5+3*0.5)^2
p1276
assS'aahmadi'
p1277
(dp1278
S'part10_incorrect_attempt'
p1279
(lp1280
(S'-1 day, 23:53:28'
p1281
V0.5 + 9*0.5 - (0.5 + 3*0.5)^2
p1282
tp1283
a(S'0:00:00'
p1284
V0.5 + 9*0.5 - (0.5 + 3*0.5)^2
p1285
tp1286
asg5
V2016-11-12 22:40:09
p1287
sS'part10_correct_attempt'
p1288
(lp1289
S'0:00:00'
p1290
aV0.5 + 9*0.5 - (0.5 + 3*0.5)^2
p1291
assS'christywong'
p1292
(dp1293
S'part10_incorrect_attempt'
p1294
(lp1295
(S'-1 day, 23:03:05'
p1296
V(1*0.5+(2^2)*0+(3^2)*0.5)-((1*0.5+2*0+3*0.5)^2)
p1297
tp1298
a(S'0:00:00'
p1299
V(1*0.5+(2^2)*0+(3^2)*0.5)-((1*0.5+2*0+3*0.5)^2)
p1300
tp1301
asg5
V2016-11-08 20:18:27
p1302
sS'part10_correct_attempt'
p1303
(lp1304
S'0:00:00'
p1305
aV(1*0.5+(2^2)*0+(3^2)*0.5)-((1*0.5+2*0+3*0.5)^2)
p1306
assS'msp'
p1307
(dp1308
S'part10_incorrect_attempt'
p1309
(lp1310
(S'0:00:00'
p1311
V(0.5+3*3*0.5)-((0.5+3*0.5)^2)
p1312
tp1313
asg5
V2016-11-11 21:56:48
p1314
sS'part10_correct_attempt'
p1315
(lp1316
S'0:00:00'
p1317
aV(0.5+3*3*0.5)-((0.5+3*0.5)^2)
p1318
assS'safarsi'
p1319
(dp1320
S'part10_incorrect_attempt'
p1321
(lp1322
(S'-1 day, 23:56:39'
p1323
V(0.5+(9*0.5))-((0.5+(3*0.5))^2)
p1324
tp1325
a(S'0:00:00'
p1326
V(0.5+(9*0.5))-((0.5+(3*0.5))^2)
p1327
tp1328
asg5
V2016-11-10 03:27:18
p1329
sS'part10_correct_attempt'
p1330
(lp1331
S'0:00:00'
p1332
aV(0.5+(9*0.5))-((0.5+(3*0.5))^2)
p1333
assS'john_wishon'
p1334
(dp1335
S'part10_incorrect_attempt'
p1336
(lp1337
(S'0:00:00'
p1338
V((1*.5)+(9*.5))-((1*.5)+(3*.5))^2
p1339
tp1340
asg5
V2016-11-10 22:06:24
p1341
sS'part10_correct_attempt'
p1342
(lp1343
S'0:00:00'
p1344
aV((1*.5)+(9*.5))-((1*.5)+(3*.5))^2
p1345
assS'MarianCrofts'
p1346
(dp1347
S'part10_incorrect_attempt'
p1348
(lp1349
(S'-1 day, 23:55:34'
p1350
V.5*0 + 0 + .5*((3-1)^2)
p1351
tp1352
asg5
V2016-11-12 21:14:55
p1353
sS'part10_correct_attempt'
p1354
(lp1355
S'0:00:00'
p1356
aV.5*((1-2)^2) + 0 + .5*((3-2)^2)
p1357
assS'Melvinw'
p1358
(dp1359
S'part10_incorrect_attempt'
p1360
(lp1361
(S'-1 day, 23:57:04'
p1362
V0.5+4.5-4
p1363
tp1364
a(S'0:00:00'
p1365
V0.5+4.5-4
p1366
tp1367
asg5
V2016-11-10 05:21:11
p1368
sS'part10_correct_attempt'
p1369
(lp1370
S'0:00:00'
p1371
aV0.5+4.5-4
p1372
assS'DannyDelCerro'
p1373
(dp1374
S'part10_incorrect_attempt'
p1375
(lp1376
(S'-2 days, 4:58:13'
p1377
V(.5+9*.5)-(.5+3*.5)
p1378
tp1379
a(S'-2 days, 5:05:26'
p1380
V(.5+9*(.5))-4
p1381
tp1382
a(S'0:00:00'
p1383
V(.5+9*(.5))-4
p1384
tp1385
asg5
V2016-11-09 18:13:53
p1386
sS'part10_correct_attempt'
p1387
(lp1388
S'0:00:00'
p1389
aV(.5+9*(.5))-4
p1390
assS'maddymanu'
p1391
(dp1392
S'part10_incorrect_attempt'
p1393
(lp1394
(S'0:00:00'
p1395
V5-4
p1396
tp1397
asg5
V2016-11-09 18:58:23
p1398
sS'part10_correct_attempt'
p1399
(lp1400
S'0:00:00'
p1401
aV5-4
p1402
assS'oganguli'
p1403
(dp1404
S'part10_incorrect_attempt'
p1405
(lp1406
(S'0:00:00'
p1407
V(.5+9*.5)-(.5+3*.5)^2
p1408
tp1409
asg5
V2016-11-11 16:47:04
p1410
sS'part10_correct_attempt'
p1411
(lp1412
S'0:00:00'
p1413
aV(.5+9*.5)-(.5+3*.5)^2
p1414
assS'Von'
p1415
(dp1416
S'part10_incorrect_attempt'
p1417
(lp1418
(S'0:00:00'
p1419
V(1/2 + 9/2) - 4
p1420
tp1421
asg5
V2016-11-11 04:57:54
p1422
sS'part10_correct_attempt'
p1423
(lp1424
S'0:00:00'
p1425
aV(1/2 + 9/2) - 4
p1426
assS't2xu'
p1427
(dp1428
S'part10_incorrect_attempt'
p1429
(lp1430
(S'0:00:00'
p1431
V(1/2+0+9/2)-(1/2+0+3/2)^2
p1432
tp1433
asg5
V2016-11-11 05:26:39
p1434
sS'part10_correct_attempt'
p1435
(lp1436
S'0:00:00'
p1437
aV(1/2+0+9/2)-(1/2+0+3/2)^2
p1438
assS'jarninfang'
p1439
(dp1440
S'part10_incorrect_attempt'
p1441
(lp1442
(S'-1 day, 21:32:01'
p1443
V(.5 + 9 * .5) - 4
p1444
tp1445
a(S'-1 day, 22:48:47'
p1446
V(.5 + 9 * .5) - 4
p1447
tp1448
a(S'-1 day, 23:57:34'
p1449
V.5 + .5 * 9
p1450
tp1451
a(S'0:00:00'
p1452
V(.5 + 9 * .5) - 4
p1453
tp1454
asg5
V2016-11-12 00:26:01
p1455
sS'part10_correct_attempt'
p1456
(lp1457
S'0:00:00'
p1458
aV(.5 + 9 * .5) - 4
p1459
assS'Ankush_Sarow'
p1460
(dp1461
S'part10_incorrect_attempt'
p1462
(lp1463
(S'0:00:00'
p1464
V(1^2 * 0.5 + 2^2 * 0 + 3^2 * 0.5)- (4*0.5)^2
p1465
tp1466
asg5
V2016-11-08 20:04:51
p1467
sS'part10_correct_attempt'
p1468
(lp1469
S'0:00:00'
p1470
aV(1^2 * 0.5 + 2^2 * 0 + 3^2 * 0.5)- (4*0.5)^2
p1471
assS'Guillermo'
p1472
(dp1473
S'part10_incorrect_attempt'
p1474
(lp1475
(S'0:00:00'
p1476
V(.5+4.5)-((.5+1.5))^2
p1477
tp1478
asg5
V2016-11-06 21:58:33
p1479
sS'part10_correct_attempt'
p1480
(lp1481
S'0:00:00'
p1482
aV(.5+4.5)-((.5+1.5))^2
p1483
assS'zkvick'
p1484
(dp1485
S'part10_incorrect_attempt'
p1486
(lp1487
(S'-1 day, 23:41:55'
p1488
V.5+(9*.5)-((.5+1.5)^2)
p1489
tp1490
a(S'-1 day, 23:50:21'
p1491
V.5+(9*1.5)-((.5+1.5)^2)
p1492
tp1493
a(S'-1 day, 23:53:03'
p1494
V.5+4.5-(2^2)
p1495
tp1496
a(S'-1 day, 23:54:50'
p1497
V.5+(1.5*9)-((.5+1.5)^2)
p1498
tp1499
a(S'-1 day, 23:56:56'
p1500
V.5+(.5*9)-((.5+(.5*3))^2)
p1501
tp1502
a(S'0:00:00'
p1503
V.5+(.5*9)-((.5+(.5*3))^2)
p1504
tp1505
asg5
g6
sS'part10_correct_attempt'
p1506
(lp1507
S'0:00:00'
p1508
aV.5+(.5*9)-((.5+(.5*3))^2)
p1509
assS'd1vo'
p1510
(dp1511
S'part10_incorrect_attempt'
p1512
(lp1513
(S'0:00:00'
p1514
V5-4
p1515
tp1516
asg5
V2016-11-10 00:51:49
p1517
sS'part10_correct_attempt'
p1518
(lp1519
S'0:00:00'
p1520
aV5-4
p1521
assS'cpence'
p1522
(dp1523
S'part10_incorrect_attempt'
p1524
(lp1525
(S'0:00:00'
p1526
V0.5 + 9*0.5 - (0.5 + 3*0.5)^2
p1527
tp1528
asg5
V2016-11-11 12:48:37
p1529
sS'part10_correct_attempt'
p1530
(lp1531
S'0:00:00'
p1532
aV0.5 + 9*0.5 - (0.5 + 3*0.5)^2
p1533
assS'pesca'
p1534
(dp1535
S'part10_incorrect_attempt'
p1536
(lp1537
(S'-1 day, 23:52:26'
p1538
V1*.5+4*0+9*.5 - (1*.5+2*0+3*.5)^2
p1539
tp1540
a(S'-1 day, 23:55:54'
p1541
V1*.5+4*0+9*.5 - (1*.5+2*0+3*.5)^2
p1542
tp1543
a(S'0:00:00'
p1544
V1*.5+4*0+9*.5 - (1*.5+2*0+3*.5)^2
p1545
tp1546
asg5
V2016-11-11 20:47:32
p1547
sS'part10_correct_attempt'
p1548
(lp1549
S'0:00:00'
p1550
aV1*.5+4*0+9*.5 - (1*.5+2*0+3*.5)^2
p1551
assS'woguan'
p1552
(dp1553
S'part10_incorrect_attempt'
p1554
(lp1555
(S'-1 day, 22:58:11'
p1556
V(1*(0.1+0+0.4)+4*(0+0+0)+9*(0.1+0+0.4))-(1*(0.1+0+0.4)+2*(0+0+0)+3*(0.1+0+0.4))^2
p1557
tp1558
a(S'-1 day, 23:02:25'
p1559
V(1*(0.1+0+0.4)+4*(0+0+0)+9*(0.1+0+0.4))-(1*(0.1+0+0.4)+2*(0+0+0)+3*(0.1+0+0.4))^2
p1560
tp1561
a(S'-1 day, 23:56:41'
p1562
V1.0
p1563
tp1564
a(S'0:00:00'
p1565
V1.0
p1566
tp1567
asg5
V2016-11-10 19:40:19
p1568
sS'part10_correct_attempt'
p1569
(lp1570
S'0:00:00'
p1571
aV1.0
p1572
assS'kevin'
p1573
(dp1574
S'part10_incorrect_attempt'
p1575
(lp1576
(S'-1 day, 16:40:08'
p1577
V1*1*1+1*1*3
p1578
tp1579
a(S'-1 day, 17:00:09'
p1580
V1*1+1*3
p1581
tp1582
a(S'0:00:00'
p1583
V1*0.5+1*0.5
p1584
tp1585
asg5
g153
sS'part10_correct_attempt'
p1586
(lp1587
S'0:00:00'
p1588
aV1*0.5+1*0.5
p1589
assS'Yangc'
p1590
(dp1591
S'part10_incorrect_attempt'
p1592
(lp1593
(S'-1 day, 23:52:47'
p1594
V((.1+.4)+9*(.1+.4))-((.1+.4)+3*(.1+.4))^2
p1595
tp1596
a(S'0:00:00'
p1597
V((.1+.4)+9*(.1+.4))-((.1+.4)+3*(.1+.4))^2
p1598
tp1599
asg5
V2016-11-12 22:58:13
p1600
sS'part10_correct_attempt'
p1601
(lp1602
S'0:00:00'
p1603
aV((.1+.4)+9*(.1+.4))-((.1+.4)+3*(.1+.4))^2
p1604
assS'heitorschueroff'
p1605
(dp1606
S'part10_incorrect_attempt'
p1607
(lp1608
(S'0:00:00'
p1609
V(1*0.5+9*0.5) - (1*0.5 + 3*0.5)^2
p1610
tp1611
asg5
V2016-11-13 00:26:59
p1612
sS'part10_correct_attempt'
p1613
(lp1614
S'0:00:00'
p1615
aV(1*0.5+9*0.5) - (1*0.5 + 3*0.5)^2
p1616
assS'g5park'
p1617
(dp1618
S'part10_incorrect_attempt'
p1619
(lp1620
(S'-1 day, 23:57:07'
p1621
V(0.5+9*0.5)-(0.5+3*0.5)^2
p1622
tp1623
a(S'0:00:00'
p1624
V(0.5+9*0.5)-(0.5+3*0.5)^2
p1625
tp1626
asg5
V2016-11-11 22:51:08
p1627
sS'part10_correct_attempt'
p1628
(lp1629
S'0:00:00'
p1630
aV(0.5+9*0.5)-(0.5+3*0.5)^2
p1631
assS'axl004'
p1632
(dp1633
S'part10_incorrect_attempt'
p1634
(lp1635
(S'-1 day, 23:57:37'
p1636
V0.5 + 4.5 - 4
p1637
tp1638
a(S'0:00:00'
p1639
V0.5 + 4.5 - 4
p1640
tp1641
asg5
V2016-11-11 20:46:30
p1642
sS'part10_correct_attempt'
p1643
(lp1644
S'0:00:00'
p1645
aV0.5 + 4.5 - 4
p1646
assS'ottojursch'
p1647
(dp1648
S'part10_incorrect_attempt'
p1649
(lp1650
(S'-1 day, 23:51:42'
p1651
V(.5+4.5)-4
p1652
tp1653
a(S'-1 day, 23:57:40'
p1654
V(.5+4.5)-4
p1655
tp1656
a(S'0:00:00'
p1657
V(.5+4.5)-4
p1658
tp1659
asg5
V2016-11-07 07:28:48
p1660
sS'part10_correct_attempt'
p1661
(lp1662
S'0:00:00'
p1663
aV(.5+4.5)-4
p1664
assS'dzech'
p1665
(dp1666
S'part10_incorrect_attempt'
p1667
(lp1668
(S'-1 day, 23:56:04'
p1669
V0.5 + 0.5*9 - (0.5 + 0.5*3)^2
p1670
tp1671
a(S'0:00:00'
p1672
V0.5 + 0.5*9 - (0.5 + 0.5*3)^2
p1673
tp1674
asg5
V2016-11-11 09:36:34
p1675
sS'part10_correct_attempt'
p1676
(lp1677
S'0:00:00'
p1678
aV0.5 + 0.5*9 - (0.5 + 0.5*3)^2
p1679
assS'Jisu'
p1680
(dp1681
S'part10_incorrect_attempt'
p1682
(lp1683
(S'0:00:00'
p1684
V((1-((1 * 0.5) + (2 * 0) + (3 * 0.5)))^2 * 0.5) + ((2-((1 * 0.5) + (2 * 0) + (3 * 0.5)))^2 * 0) + ((3-((1 * 0.5) + (2 * 0) + (3 * 0.5)))^2 * 0.5)
p1685
tp1686
asg5
V2016-11-11 04:38:39
p1687
sS'part10_correct_attempt'
p1688
(lp1689
S'0:00:00'
p1690
aV((1-((1 * 0.5) + (2 * 0) + (3 * 0.5)))^2 * 0.5) + ((2-((1 * 0.5) + (2 * 0) + (3 * 0.5)))^2 * 0) + ((3-((1 * 0.5) + (2 * 0) + (3 * 0.5)))^2 * 0.5)
p1691
assS'dkeirouz'
p1692
(dp1693
S'part10_incorrect_attempt'
p1694
(lp1695
(S'-1 day, 23:58:22'
p1696
V0.5+0.5*9-4
p1697
tp1698
a(S'0:00:00'
p1699
V0.5+0.5*9-4
p1700
tp1701
asg5
V2016-11-11 04:42:13
p1702
sS'part10_correct_attempt'
p1703
(lp1704
S'0:00:00'
p1705
aV0.5+0.5*9-4
p1706
assS'ShannonWang'
p1707
(dp1708
S'part10_incorrect_attempt'
p1709
(lp1710
(S'0:00:00'
p1711
V5-4
p1712
tp1713
asg5
V2016-11-07 18:14:52
p1714
sS'part10_correct_attempt'
p1715
(lp1716
S'0:00:00'
p1717
aV5-4
p1718
assS'scottychen'
p1719
(dp1720
S'part10_incorrect_attempt'
p1721
(lp1722
(S'0:00:00'
p1723
V5-4
p1724
tp1725
asg5
V2016-11-12 06:02:13
p1726
sS'part10_correct_attempt'
p1727
(lp1728
S'0:00:00'
p1729
aV5-4
p1730
assS'nolin'
p1731
(dp1732
S'part10_incorrect_attempt'
p1733
(lp1734
(S'-1 day, 23:55:58'
p1735
V5-4
p1736
tp1737
asg5
V2016-11-08 07:59:12
p1738
sS'part10_correct_attempt'
p1739
(lp1740
S'0:00:00'
p1741
aV1
p1742
assS'Joonhan'
p1743
(dp1744
S'part10_incorrect_attempt'
p1745
(lp1746
(S'0:00:00'
p1747
V((1*0.5)+(9*0.5))-(((1*0.5)+(3*0.5))^2)
p1748
tp1749
asg5
V2016-11-11 03:59:52
p1750
sS'part10_correct_attempt'
p1751
(lp1752
S'0:00:00'
p1753
aV((1*0.5)+(9*0.5))-(((1*0.5)+(3*0.5))^2)
p1754
assS'ETDuong'
p1755
(dp1756
S'part10_incorrect_attempt'
p1757
(lp1758
(S'0:00:00'
p1759
V1.0
p1760
tp1761
asg5
V2016-11-11 19:47:37
p1762
sS'part10_correct_attempt'
p1763
(lp1764
S'0:00:00'
p1765
aV1.0
p1766
assS'tzc007'
p1767
(dp1768
S'part10_incorrect_attempt'
p1769
(lp1770
(S'-1 day, 23:41:06'
p1771
V(1*0.5+9*0.5)-(1*0.5+3*0.5)^2
p1772
tp1773
a(S'-1 day, 23:55:47'
p1774
V(1*0.5+9*0.5)-(1*0.5+3*0.5)^2
p1775
tp1776
a(S'-1 day, 23:57:50'
p1777
V(1*0.5+9*0.5)-(1*0.5+3*0.5)^2
p1778
tp1779
a(S'0:00:00'
p1780
V(1*0.5+9*0.5)-(1*0.5+3*0.5)^2
p1781
tp1782
asg5
V2016-11-11 07:32:27
p1783
sS'part10_correct_attempt'
p1784
(lp1785
S'0:00:00'
p1786
aV(1*0.5+9*0.5)-(1*0.5+3*0.5)^2
p1787
assS'JonahCruz'
p1788
(dp1789
S'part10_incorrect_attempt'
p1790
(lp1791
(S'0:00:00'
p1792
V(1*.5+9*.5)-(1*.5+3*.5)^2
p1793
tp1794
asg5
V2016-11-09 19:26:04
p1795
sS'part10_correct_attempt'
p1796
(lp1797
S'0:00:00'
p1798
aV(1*.5+9*.5)-(1*.5+3*.5)^2
p1799
assS'ssdai'
p1800
(dp1801
S'part10_incorrect_attempt'
p1802
(lp1803
(S'0:00:00'
p1804
V(1*0.5+9*0.5)-(1*0.5+3*0.5)^2
p1805
tp1806
asg5
V2016-11-11 11:51:23
p1807
sS'part10_correct_attempt'
p1808
(lp1809
S'0:00:00'
p1810
aV(1*0.5+9*0.5)-(1*0.5+3*0.5)^2
p1811
assS'KevinKlein'
p1812
(dp1813
S'part10_incorrect_attempt'
p1814
(lp1815
(S'0:00:00'
p1816
V5-4
p1817
tp1818
asg5
V2016-11-08 04:51:50
p1819
sS'part10_correct_attempt'
p1820
(lp1821
S'0:00:00'
p1822
aV5-4
p1823
assS'maxcjx'
p1824
(dp1825
S'part10_incorrect_attempt'
p1826
(lp1827
(S'0:00:00'
p1828
V(0.5+0.5*9)-(0.5+0.5*3)^2
p1829
tp1830
asg5
V2016-11-07 05:35:50
p1831
sS'part10_correct_attempt'
p1832
(lp1833
S'0:00:00'
p1834
aV(0.5+0.5*9)-(0.5+0.5*3)^2
p1835
assS'kirkkw'
p1836
(dp1837
S'part10_incorrect_attempt'
p1838
(lp1839
(S'-1 day, 16:38:14'
p1840
V((1^2)*0.5+(3^2)*0.5)-((1*0.5+3*0.5)^2)
p1841
tp1842
a(S'-1 day, 16:40:47'
p1843
V((1^2)*0.5+(3^2)*0.5)-((1*0.5+3*0.5)^2)
p1844
tp1845
a(S'-1 day, 16:44:35'
p1846
V((1^2)*0.5+(3^2)*0.5)-((1*0.5+3*0.5)^2)
p1847
tp1848
a(S'0:00:00'
p1849
V((1^2)*0.5+(3^2)*0.5)-((1*0.5+3*0.5)^2)
p1850
tp1851
asg5
V2016-11-12 21:25:50
p1852
sS'part10_correct_attempt'
p1853
(lp1854
S'0:00:00'
p1855
aV((1^2)*0.5+(3^2)*0.5)-((1*0.5+3*0.5)^2)
p1856
assS'malloryishaya'
p1857
(dp1858
S'part10_incorrect_attempt'
p1859
(lp1860
(S'0:00:00'
p1861
V(.5+4.5)-((.5+1.5))^2
p1862
tp1863
asg5
V2016-11-11 22:39:04
p1864
sS'part10_correct_attempt'
p1865
(lp1866
S'0:00:00'
p1867
aV(.5+4.5)-((.5+1.5))^2
p1868
assS'k1siu'
p1869
(dp1870
S'part10_incorrect_attempt'
p1871
(lp1872
(S'-1 day, 23:55:51'
p1873
V(1*0.5) + 0 + (9*0.5)
p1874
tp1875
a(S'0:00:00'
p1876
V(1*0.5) + 0 + (9*0.5) - (2)^2
p1877
tp1878
asg5
V2016-11-11 19:13:26
p1879
sS'part10_correct_attempt'
p1880
(lp1881
S'0:00:00'
p1882
aV(1*0.5) + 0 + (9*0.5) - (2)^2
p1883
assS'denniskim'
p1884
(dp1885
S'part10_incorrect_attempt'
p1886
(lp1887
(S'0:00:00'
p1888
V(0.5+9*0.5)-(0.5 + 3*0.5)^2
p1889
tp1890
asg5
V2016-11-08 21:30:51
p1891
sS'part10_correct_attempt'
p1892
(lp1893
S'0:00:00'
p1894
aV(0.5+9*0.5)-(0.5 + 3*0.5)^2
p1895
assS'zjteoh'
p1896
(dp1897
S'part10_incorrect_attempt'
p1898
(lp1899
(S'-1 day, 23:58:37'
p1900
V1.0
p1901
tp1902
asg5
V2016-11-11 00:10:34
p1903
sS'part10_correct_attempt'
p1904
(lp1905
S'0:00:00'
p1906
aV1
p1907
assS'PizzaPolice'
p1908
(dp1909
S'part10_incorrect_attempt'
p1910
(lp1911
(S'-1 day, 23:57:57'
p1912
V5 - 4
p1913
tp1914
a(S'0:00:00'
p1915
V5-4
p1916
tp1917
asg5
V2016-11-11 07:24:04
p1918
sS'part10_correct_attempt'
p1919
(lp1920
S'0:00:00'
p1921
aV5-4
p1922
assS'rshroyer'
p1923
(dp1924
S'part10_incorrect_attempt'
p1925
(lp1926
(S'-1 day, 23:42:14'
p1927
V(1*0.5+9*0.5)-(1*0.5+3*0.5)^2
p1928
tp1929
a(S'-1 day, 23:58:06'
p1930
V(1*0.5+9*0.5)-(1*0.5+3*0.5)^2
p1931
tp1932
a(S'0:00:00'
p1933
V(1*0.5+9*0.5)-(1*0.5+3*0.5)^2
p1934
tp1935
asg5
V2016-11-11 18:46:52
p1936
sS'part10_correct_attempt'
p1937
(lp1938
S'0:00:00'
p1939
aV(1*0.5+9*0.5)-(1*0.5+3*0.5)^2
p1940
asssS'13'
p1941
(dp1942
S'RobinO'
p1943
(dp1944
S'part13_correct_attempt'
p1945
(lp1946
S'0:00:00'
p1947
aV((.1*1+.5*3+.4*9)-(2.6*2))/((.2+9*.8)-(2.6^2))
p1948
asS'part13_incorrect_attempt'
p1949
(lp1950
(S'0:00:00'
p1951
V((.1*1+.5*3+.4*9)-(2.6*2))/((.2+9*.8)-(2.6^2))
p1952
tp1953
asg5
V2016-11-06 22:38:52
p1954
ssg282
(dp1955
S'part13_correct_attempt'
p1956
(lp1957
S'0:00:00'
p1958
aV((.1 + .4*3 + 3 * .1 + .4*9) - ((2.6)*(2)))/((sqrt(.2 + 9*.8 - (.2 + .8*3)^2))*(sqrt(.5 + .5*9 - (.5 + .5*3)^2)))
p1959
asS'part13_incorrect_attempt'
p1960
(lp1961
(S'0:00:00'
p1962
V((.1 + .4*3 + 3 * .1 + .4*9) - ((2.6)*(2)))/((sqrt(.2 + 9*.8 - (.2 + .8*3)^2))*(sqrt(.5 + .5*9 - (.5 + .5*3)^2)))
p1963
tp1964
asg5
g289
ssS'hunguyen'
p1965
(dp1966
S'part13_correct_attempt'
p1967
(lp1968
S'0:00:00'
p1969
aV((.1 + .4*3 + 3 * .1 + .4*9) - ((2.6)*(2)))/((sqrt(.2 + 9*.8 - (.2 + .8*3)^2))*(sqrt(.5 + .5*9 - (.5 + .5*3)^2)))
p1970
asS'part13_incorrect_attempt'
p1971
(lp1972
(S'-1 day, 23:58:35'
p1973
V((.1 + .4*3 + 3 * .1 + .4*9) - ((2.6)*(2)))/((sqrt(.2 + 9*.8 - (.2 + .8*3)^2))*(sqrt(.5 + .5*9 - (.5 + .5*3)^2)))
p1974
tp1975
a(S'0:00:00'
p1976
V((.1 + .4*3 + 3 * .1 + .4*9) - ((2.6)*(2)))/((sqrt(.2 + 9*.8 - (.2 + .8*3)^2))*(sqrt(.5 + .5*9 - (.5 + .5*3)^2)))
p1977
tp1978
asg5
g832
ssS'SothyrakSrey'
p1979
(dp1980
S'part13_correct_attempt'
p1981
(lp1982
S'0:00:00'
p1983
aV((0.1+1.2+0.3+3.6)-(2*2.6))/(2.56^0.5)
p1984
asS'part13_incorrect_attempt'
p1985
(lp1986
(S'-1 day, 23:53:09'
p1987
V((0.1+1.2+0.3+3.6)-(2*2.6))/(2.56^0.5)
p1988
tp1989
a(S'-1 day, 23:56:37'
p1990
V((0.1+1.2+0.3+3.6)-(2*2.6))/(2.56^0.5)
p1991
tp1992
a(S'0:00:00'
p1993
V((0.1+1.2+0.3+3.6)-(2*2.6))/(2.56^0.5)
p1994
tp1995
asg5
V2016-11-11 07:26:33
p1996
ssg1427
(dp1997
S'part13_correct_attempt'
p1998
(lp1999
S'0:00:00'
p2000
aV((1*(1/10)+3*(2/5)+3*(1/10)+9*(2/5)) - ((1/5+0+12/5)*(1/2+0+3/2)))/(sqrt((1/5+0+36/5)-(1/5+0+12/5)^2)*sqrt((1/2+0+9/2)-(1/2+0+3/2)^2))
p2001
asS'part13_incorrect_attempt'
p2002
(lp2003
(S'0:00:00'
p2004
V((1*(1/10)+3*(2/5)+3*(1/10)+9*(2/5)) - ((1/5+0+12/5)*(1/2+0+3/2)))/(sqrt((1/5+0+36/5)-(1/5+0+12/5)^2)*sqrt((1/2+0+9/2)-(1/2+0+3/2)^2))
p2005
tp2006
asg5
g1434
ssg529
(dp2007
S'part13_correct_attempt'
p2008
(lp2009
S'0:00:00'
p2010
aV((4*0.1+12*0.4)-((0.2+3*0.8)*(0.5+3*0.5)))/(sqrt((0.2+9*0.8)-(0.2+3*0.8)^2)*sqrt((0.5+9*0.5)-(0.5+3*0.5)^2))
p2011
asS'part13_incorrect_attempt'
p2012
(lp2013
(S'0:00:00'
p2014
V((4*0.1+12*0.4)-((0.2+3*0.8)*(0.5+3*0.5)))/(sqrt((0.2+9*0.8)-(0.2+3*0.8)^2)*sqrt((0.5+9*0.5)-(0.5+3*0.5)^2))
p2015
tp2016
asg5
g536
ssS'Benaisha'
p2017
(dp2018
S'part13_correct_attempt'
p2019
(lp2020
S'0:00:00'
p2021
aV((.1+.3+1.2+(9*.4))-(2.6*2))/.64
p2022
asS'part13_incorrect_attempt'
p2023
(lp2024
(S'0:00:00'
p2025
V((.1+.3+1.2+(9*.4))-(2.6*2))/.64
p2026
tp2027
asg5
V2016-11-13 00:25:12
p2028
ssS'MarianCrofts'
p2029
(dp2030
S'part13_correct_attempt'
p2031
(lp2032
S'0:00:00'
p2033
aV(1*.1 + 2*0 + 3*.4 + (2*1)*0 + (2*2)*0 + (2*3)*0 + (3*1)*.1 + (3*2)*0 + (3*3)*.4 - 2.6*2) / sqrt(.2*((1-2.6)^2) + 0 + .8*((3-2.6)^2)) * sqrt(.5*((1-2)^2) + 0 + .5*((3-2)^2))
p2034
asS'part13_incorrect_attempt'
p2035
(lp2036
(S'0:00:00'
p2037
V(1*.1 + 2*0 + 3*.4 + (2*1)*0 + (2*2)*0 + (2*3)*0 + (3*1)*.1 + (3*2)*0 + (3*3)*.4 - 2.6*2) / sqrt(.2*((1-2.6)^2) + 0 + .8*((3-2.6)^2)) * sqrt(.5*((1-2)^2) + 0 + .5*((3-2)^2))
p2038
tp2039
asg5
g1353
ssg610
(dp2040
S'part13_correct_attempt'
p2041
(lp2042
S'0:00:00'
p2043
aV((0.1+(3*0.4) + (0.1*3*1) + (3*3*0.4)) - (2.6* 2))/ (sqrt((1*0.2 + 4*0 + 9*0.8) - (2.6^2)) * sqrt((1*0.5 + 4*0 + 9*0.5) - 4))
p2044
asS'part13_incorrect_attempt'
p2045
(lp2046
(S'0:00:00'
p2047
V((0.1+(3*0.4) + (0.1*3*1) + (3*3*0.4)) - (2.6* 2))/ (sqrt((1*0.2 + 4*0 + 9*0.8) - (2.6^2)) * sqrt((1*0.5 + 4*0 + 9*0.5) - 4))
p2048
tp2049
asg5
g617
ssS'ankannan'
p2050
(dp2051
S'part13_correct_attempt'
p2052
(lp2053
S'0:00:00'
p2054
aV((.1 + 3* .4 + 3* .1 + 9 * .4) - 5.2)/ .8/1
p2055
asS'part13_incorrect_attempt'
p2056
(lp2057
(S'0:00:00'
p2058
V((.1 + 3* .4 + 3* .1 + 9 * .4) - 5.2)/ .8/1
p2059
tp2060
asg5
V2016-11-10 08:11:18
p2061
ssg1692
(dp2062
S'part13_correct_attempt'
p2063
(lp2064
S'0:00:00'
p2065
aV(0.1+0.5*3+0.4*9-2.6*2)/(sqrt(0.2+0.8*9-2.6^2)*sqrt(0.5+0.5*9-4))
p2066
asS'part13_incorrect_attempt'
p2067
(lp2068
(S'-1 day, 23:58:22'
p2069
V(0.1+0.5*3+0.4*9-2.6*2)/(sqrt(0.2+0.8*9-2.6^2)*sqrt(0.5+0.5*9-4))
p2070
tp2071
a(S'0:00:00'
p2072
V(0.1+0.5*3+0.4*9-2.6*2)/(sqrt(0.2+0.8*9-2.6^2)*sqrt(0.5+0.5*9-4))
p2073
tp2074
asg5
g1702
ssg1094
(dp2075
S'part13_correct_attempt'
p2076
(lp2077
S'0:00:00'
p2078
aV((0.1 + 1.2 + 0.3 + 3.6) - (0.5 + 1.5)*(0.2 + 2.4))/(sqrt((0.2 + 7.2) - (0.2 + 2.4)^2)*sqrt((0.5 + 4.5) - (0.5 + 1.5)^2))
p2079
asS'part13_incorrect_attempt'
p2080
(lp2081
(S'0:00:00'
p2082
V((0.1 + 1.2 + 0.3 + 3.6) - (0.5 + 1.5)*(0.2 + 2.4))/(sqrt((0.2 + 7.2) - (0.2 + 2.4)^2)*sqrt((0.5 + 4.5) - (0.5 + 1.5)^2))
p2083
tp2084
asg5
g1101
ssg810
(dp2085
S'part13_correct_attempt'
p2086
(lp2087
S'0:00:00'
p2088
aV(5.2-(2*2.6))/sqrt(((1-2)^(2)+(2-2)^(2)+(3-2)^(2))((1-2.6)^(2)+(2-2.6)^(2)+(3-2.6)^(2)))
p2089
asS'part13_incorrect_attempt'
p2090
(lp2091
(S'-1 day, 23:30:42'
p2092
V(5.2-(2*2.6))/sqrt(((1-2)^(2)+(2-2)^(2)+(3-2)^(2))((1-2.6)^(2)+(2-2.6)^(2)+(3-2.6)^(2)))
p2093
tp2094
a(S'0:00:00'
p2095
V(5.2-(2*2.6))/sqrt(((1-2)^(2)+(2-2)^(2)+(3-2)^(2))((1-2.6)^(2)+(2-2.6)^(2)+(3-2.6)^(2)))
p2096
tp2097
asg5
g817
ssS'axl004'
p2098
(dp2099
S'part13_correct_attempt'
p2100
(lp2101
S'0:00:00'
p2102
aV(0.1 + 1.2 + 0.3 + 3.6 - (0.5 + 1.5)*(0.2 +2.4))/(((0.2 + 7.2 - (0.2 +2.4)^2)^1/2)*((0.5 + 4.5 - 4)^(1/2)))
p2103
asS'part13_incorrect_attempt'
p2104
(lp2105
(S'0:00:00'
p2106
V(0.1 + 1.2 + 0.3 + 3.6 - (0.5 + 1.5)*(0.2 +2.4))/(((0.2 + 7.2 - (0.2 +2.4)^2)^1/2)*((0.5 + 4.5 - 4)^(1/2)))
p2107
tp2108
asg5
g1642
ssg661
(dp2109
S'part13_correct_attempt'
p2110
(lp2111
S'0:00:00'
p2112
aV((.1 + 3*.4 + 3*.1 + 9*.4) - (.2 + 2.4)*(.5 + 3*(1/2)))/ sqrt(((.5 + 9*.5) - (.5 + 3*(1/2))) * ((.2 + 9*.8) - (.2 + 2.4)^2))
p2113
asS'part13_incorrect_attempt'
p2114
(lp2115
(S'0:00:00'
p2116
V((.1 + 3*.4 + 3*.1 + 9*.4) - (.2 + 2.4)*(.5 + 3*(1/2)))/ sqrt(((.5 + 9*.5) - (.5 + 3*(1/2))) * ((.2 + 9*.8) - (.2 + 2.4)^2))
p2117
tp2118
asg5
g668
sssS'12'
p2119
(dp2120
S'zkvick'
p2121
(dp2122
S'part12_correct_attempt'
p2123
(lp2124
S'0:00:00'
p2125
aV(.1*(-1)*(-1))+(.1*1*(-1))+(.4*(-1)*1)+(.4*1*1)
p2126
asS'part12_incorrect_attempt'
p2127
(lp2128
(S'-1 day, 23:50:21'
p2129
V(.1*(-1)*(-1))+(.1*1*(-1))+(.4*(-1)*1)+(.4*1*1)
p2130
tp2131
a(S'-1 day, 23:53:03'
p2132
V(.1*(-1)*(-1))+(.1*1*(-1))+(.4*(-1)*1)+(.4*1*1)
p2133
tp2134
a(S'-1 day, 23:54:50'
p2135
V(.1*(-1)*(-1))+(.1*1*(-1))+(.4*(-1)*1)+(.4*1*1)
p2136
tp2137
a(S'-1 day, 23:56:56'
p2138
V(.1*(-1)*(-1))+(.1*1*(-1))+(.4*(-1)*1)+(.4*1*1)
p2139
tp2140
a(S'0:00:00'
p2141
V(.1*(-1)*(-1))+(.1*1*(-1))+(.4*(-1)*1)+(.4*1*1)
p2142
tp2143
asg5
g6
ssg1148
(dp2144
S'part12_correct_attempt'
p2145
(lp2146
S'0:00:00'
p2147
aV0
p2148
asS'part12_incorrect_attempt'
p2149
(lp2150
(S'-1 day, 23:48:02'
p2151
V.1+3*.4+3*.1+9*.4-(2*(.2+2.4))
p2152
tp2153
a(S'-1 day, 23:58:42'
p2154
V(.1 + 3*.4+3*.1+9*.4)-(2*(.2+2.4))
p2155
tp2156
asg5
g1161
ssS'zow006'
p2157
(dp2158
S'part12_correct_attempt'
p2159
(lp2160
S'0:00:00'
p2161
aV5.2-5.2
p2162
asS'part12_incorrect_attempt'
p2163
(lp2164
(S'0:00:00'
p2165
V5.2-5.2
p2166
tp2167
asg5
V2016-11-07 23:05:46
p2168
ssg487
(dp2169
S'part12_correct_attempt'
p2170
(lp2171
S'0:00:00'
p2172
aV0
p2173
asS'part12_incorrect_attempt'
p2174
(lp2175
(S'-1 day, 23:58:36'
p2176
V5.2 - 5.2
p2177
tp2178
asg5
g494
ssg1522
(dp2179
S'part12_correct_attempt'
p2180
(lp2181
S'0:00:00'
p2182
aV0.1 + 3*0.4 + 3*0.1 + 9*0.4 - (2*2.6)
p2183
asS'part12_incorrect_attempt'
p2184
(lp2185
(S'0:00:00'
p2186
V0.1 + 3*0.4 + 3*0.1 + 9*0.4 - (2*2.6)
p2187
tp2188
asg5
g1529
ssS'kevinmc'
p2189
(dp2190
S'part12_correct_attempt'
p2191
(lp2192
S'0:00:00'
p2193
aV(52/10)-(5.2)
p2194
asS'part12_incorrect_attempt'
p2195
(lp2196
(S'0:00:00'
p2197
V(52/10)-(5.2)
p2198
tp2199
asg5
V2016-11-11 06:33:04
p2200
ssS'lmfink'
p2201
(dp2202
S'part12_correct_attempt'
p2203
(lp2204
S'0:00:00'
p2205
aV.1+3*.1+3*.4+9*.4-2*2.6
p2206
asS'part12_incorrect_attempt'
p2207
(lp2208
(S'-1 day, 23:58:34'
p2209
V.1+3*.1+3*.4+9*.4-2*2.6
p2210
tp2211
a(S'0:00:00'
p2212
V.1+3*.1+3*.4+9*.4-2*2.6
p2213
tp2214
asg5
V2016-11-07 23:15:01
p2215
ssg270
(dp2216
S'part12_correct_attempt'
p2217
(lp2218
S'0:00:00'
p2219
aV5.2 - 2*2.6
p2220
asS'part12_incorrect_attempt'
p2221
(lp2222
(S'0:00:00'
p2223
V5.2 - 2*2.6
p2224
tp2225
asg5
g277
ssS'Ryan_Yi'
p2226
(dp2227
S'part12_correct_attempt'
p2228
(lp2229
S'0:00:00'
p2230
aV(((1-((1 * 0.2) + (2 * 0) + (3 * 0.8))) * 0.2) + ((2-((1 * 0.2) + (2 * 0) + (3 * 0.8))) * 0) + ((3-((1 * 0.2) + (2 * 0) + (3 * 0.8))) * 0.8)) * (((1-((1 * 0.5) + (2 * 0) + (3 * 0.5))) * 0.5) + ((2-((1 * 0.5) + (2 * 0) + (3 * 0.5))) * 0) + ((3-((1 * 0.5) + (2 * 0) + (3 * 0.5))) * 0.5))
p2231
asS'part12_incorrect_attempt'
p2232
(lp2233
(S'-1 day, 23:51:20'
p2234
V(((1-((1 * 0.2) + (2 * 0) + (3 * 0.8))) * 0.2) + ((2-((1 * 0.2) + (2 * 0) + (3 * 0.8))) * 0) + ((3-((1 * 0.2) + (2 * 0) + (3 * 0.8))) * 0.8)) * (((1-((1 * 0.5) + (2 * 0) + (3 * 0.5))) * 0.5) + ((2-((1 * 0.5) + (2 * 0) + (3 * 0.5))) * 0) + ((3-((1 * 0.5) + (2 * 0) + (3 * 0.5))) * 0.5))
p2235
tp2236
a(S'-1 day, 23:53:18'
p2237
V(((1-((1 * 0.2) + (2 * 0) + (3 * 0.8))) * 0.2) + ((2-((1 * 0.2) + (2 * 0) + (3 * 0.8))) * 0) + ((3-((1 * 0.2) + (2 * 0) + (3 * 0.8))) * 0.8)) * (((1-((1 * 0.5) + (2 * 0) + (3 * 0.5))) * 0.5) + ((2-((1 * 0.5) + (2 * 0) + (3 * 0.5))) * 0) + ((3-((1 * 0.5) + (2 * 0) + (3 * 0.5))) * 0.5))
p2238
tp2239
a(S'-1 day, 23:54:41'
p2240
V(((1-((1 * 0.2) + (2 * 0) + (3 * 0.8))) * 0.2) + ((2-((1 * 0.2) + (2 * 0) + (3 * 0.8))) * 0) + ((3-((1 * 0.2) + (2 * 0) + (3 * 0.8))) * 0.8)) * (((1-((1 * 0.5) + (2 * 0) + (3 * 0.5))) * 0.5) + ((2-((1 * 0.5) + (2 * 0) + (3 * 0.5))) * 0) + ((3-((1 * 0.5) + (2 * 0) + (3 * 0.5))) * 0.5))
p2241
tp2242
a(S'0:00:00'
p2243
V(((1-((1 * 0.2) + (2 * 0) + (3 * 0.8))) * 0.2) + ((2-((1 * 0.2) + (2 * 0) + (3 * 0.8))) * 0) + ((3-((1 * 0.2) + (2 * 0) + (3 * 0.8))) * 0.8)) * (((1-((1 * 0.5) + (2 * 0) + (3 * 0.5))) * 0.5) + ((2-((1 * 0.5) + (2 * 0) + (3 * 0.5))) * 0) + ((3-((1 * 0.5) + (2 * 0) + (3 * 0.5))) * 0.5))
p2244
tp2245
asg5
g322
ssS'axlwu'
p2246
(dp2247
S'part12_correct_attempt'
p2248
(lp2249
S'0:00:00'
p2250
aV5.2-5.2
p2251
asS'part12_incorrect_attempt'
p2252
(lp2253
(S'0:00:00'
p2254
V5.2-5.2
p2255
tp2256
asg5
V2016-11-13 00:20:39
p2257
ssS'Yangc'
p2258
(dp2259
S'part12_correct_attempt'
p2260
(lp2261
S'0:00:00'
p2262
aV(.1+3*(.4)+3*(.1)+9*(.4))-5.2
p2263
asS'part12_incorrect_attempt'
p2264
(lp2265
(S'-1 day, 23:58:13'
p2266
V(.1+3*(.4)+3*(.1)+9*(.4))-5.2
p2267
tp2268
a(S'0:00:00'
p2269
V(.1+3*(.4)+3*(.1)+9*(.4))-5.2
p2270
tp2271
asg5
g1600
ssS'JasonHuang'
p2272
(dp2273
S'part12_correct_attempt'
p2274
(lp2275
S'0:00:00'
p2276
aV(1*0.1+3*0.4+3*0.1+9*0.4) - 2*2.6
p2277
asS'part12_incorrect_attempt'
p2278
(lp2279
(S'0:00:00'
p2280
V(1*0.1+3*0.4+3*0.1+9*0.4) - 2*2.6
p2281
tp2282
asg5
V2016-11-10 00:05:43
p2283
ssS'ottojursch'
p2284
(dp2285
S'part12_correct_attempt'
p2286
(lp2287
S'0:00:00'
p2288
aV(.1+1.2+.3+3.6)-2*2.6
p2289
asS'part12_incorrect_attempt'
p2290
(lp2291
(S'-1 day, 23:57:40'
p2292
V(.1+1.2+.3+3.6)-2*2.6
p2293
tp2294
a(S'0:00:00'
p2295
V(.1+1.2+.3+3.6)-2*2.6
p2296
tp2297
asg5
g1660
ssg1166
(dp2298
S'part12_correct_attempt'
p2299
(lp2300
S'0:00:00'
p2301
aV(1*.2 + 3*.8)*(1*(.1+.4) + 3*(.1+.4)) - (1*.2 + 3*.8)*(1*(.1+.4) + 3*(.1+.4))
p2302
asS'part12_incorrect_attempt'
p2303
(lp2304
(S'0:00:00'
p2305
V(1*.2 + 3*.8)*(1*(.1+.4) + 3*(.1+.4)) - (1*.2 + 3*.8)*(1*(.1+.4) + 3*(.1+.4))
p2306
tp2307
asg5
g1173
ssg1307
(dp2308
S'part12_correct_attempt'
p2309
(lp2310
S'0:00:00'
p2311
aV((0.2+3*0.8)*(0.5+3*0.5))-((0.2+3*0.8)*(0.5+3*0.5))
p2312
asS'part12_incorrect_attempt'
p2313
(lp2314
(S'0:00:00'
p2315
V((0.2+3*0.8)*(0.5+3*0.5))-((0.2+3*0.8)*(0.5+3*0.5))
p2316
tp2317
asg5
g1314
ssg742
(dp2318
S'part12_correct_attempt'
p2319
(lp2320
S'0:00:00'
p2321
aV5.2 - 5.2
p2322
asS'part12_incorrect_attempt'
p2323
(lp2324
(S'0:00:00'
p2325
V5.2 - 5.2
p2326
tp2327
asg5
g749
ssS'gpagliar'
p2328
(dp2329
S'part12_correct_attempt'
p2330
(lp2331
S'0:00:00'
p2332
aV(1*0.2+2*0+3*0.8)*(1*0.5+2*0+3*0.5)-(1*0.2+2*0+3*0.8)*(1*0.5+2*0+3*0.5 )
p2333
asS'part12_incorrect_attempt'
p2334
(lp2335
(S'-1 day, 23:51:40'
p2336
V(1*0.2+2*0+3*0.8)*(1*0.5+2*0+3*0.5)-(1*0.2+2*0+3*0.8)*(1*0.5+2*0+3*0.5 )
p2337
tp2338
a(S'0:00:00'
p2339
V(1*0.2+2*0+3*0.8)*(1*0.5+2*0+3*0.5)-(1*0.2+2*0+3*0.8)*(1*0.5+2*0+3*0.5 )
p2340
tp2341
asg5
g764
ssg1680
(dp2342
S'part12_correct_attempt'
p2343
(lp2344
S'0:00:00'
p2345
aV(((1-((1 * 0.2) + (2 * 0) + (3 * 0.8))) * 0.2) + ((2-((1 * 0.2) + (2 * 0) + (3 * 0.8))) * 0) + ((3-((1 * 0.2) + (2 * 0) + (3 * 0.8))) * 0.8)) * (((1-((1 * 0.5) + (2 * 0) + (3 * 0.5))) * 0.5) + ((2-((1 * 0.5) + (2 * 0) + (3 * 0.5))) * 0) + ((3-((1 * 0.5) + (2 * 0) + (3 * 0.5))) * 0.5))
p2346
asS'part12_incorrect_attempt'
p2347
(lp2348
(S'0:00:00'
p2349
V(((1-((1 * 0.2) + (2 * 0) + (3 * 0.8))) * 0.2) + ((2-((1 * 0.2) + (2 * 0) + (3 * 0.8))) * 0) + ((3-((1 * 0.2) + (2 * 0) + (3 * 0.8))) * 0.8)) * (((1-((1 * 0.5) + (2 * 0) + (3 * 0.5))) * 0.5) + ((2-((1 * 0.5) + (2 * 0) + (3 * 0.5))) * 0) + ((3-((1 * 0.5) + (2 * 0) + (3 * 0.5))) * 0.5))
p2350
tp2351
asg5
g1687
ssg786
(dp2352
S'part12_correct_attempt'
p2353
(lp2354
S'0:00:00'
p2355
aV0.1+1.2+0.3+3.6-(0.5+1.5)*(0.2+2.4)
p2356
asS'part12_incorrect_attempt'
p2357
(lp2358
(S'0:00:00'
p2359
V0.1+1.2+0.3+3.6-(0.5+1.5)*(0.2+2.4)
p2360
tp2361
asg5
g793
ssS'vicorhe'
p2362
(dp2363
S'part12_correct_attempt'
p2364
(lp2365
S'0:00:00'
p2366
aV0
p2367
asS'part12_incorrect_attempt'
p2368
(lp2369
(S'-1 day, 23:49:35'
p2370
V5.2-(5.2)
p2371
tp2372
asg5
g805
ssg810
(dp2373
S'part12_correct_attempt'
p2374
(lp2375
S'0:00:00'
p2376
aV5.2-(2*2.6)
p2377
asS'part12_incorrect_attempt'
p2378
(lp2379
(S'-1 day, 23:30:42'
p2380
V5.2-(2*2.6)
p2381
tp2382
a(S'0:00:00'
p2383
V5.2-(2*2.6)
p2384
tp2385
asg5
g817
ssg1247
(dp2386
S'part12_correct_attempt'
p2387
(lp2388
S'0:00:00'
p2389
aV(0.1+1.2+ 0.3 + 3.6) - (0.5+1.5)*(0.2+2.4)
p2390
asS'part12_incorrect_attempt'
p2391
(lp2392
(S'0:00:00'
p2393
V(0.1+1.2+ 0.3 + 3.6) - (0.5+1.5)*(0.2+2.4)
p2394
tp2395
asg5
g1254
ssg1358
(dp2396
S'part12_correct_attempt'
p2397
(lp2398
S'0:00:00'
p2399
aV0
p2400
asS'part12_incorrect_attempt'
p2401
(lp2402
(S'-1 day, 23:57:04'
p2403
V(0.1+0.3+1.2+3.6)-5.2
p2404
tp2405
asg5
g1368
ssS'DongyoonHan'
p2406
(dp2407
S'part12_correct_attempt'
p2408
(lp2409
S'0:00:00'
p2410
aV5.2-5.2
p2411
asS'part12_incorrect_attempt'
p2412
(lp2413
(S'0:00:00'
p2414
V5.2-5.2
p2415
tp2416
asg5
V2016-11-10 20:10:48
p2417
ssg1979
(dp2418
S'part12_correct_attempt'
p2419
(lp2420
S'0:00:00'
p2421
aV((0.1+1.2+0.3+3.6)-(2*2.6))
p2422
asS'part12_incorrect_attempt'
p2423
(lp2424
(S'-1 day, 23:53:09'
p2425
V(0.1+1.2+0.3+3.6)-(2*2.6)
p2426
tp2427
a(S'-1 day, 23:56:37'
p2428
V((0.1+1.2+0.3+3.6)-(2*2.6))
p2429
tp2430
a(S'0:00:00'
p2431
V((0.1+1.2+0.3+3.6)-(2*2.6))
p2432
tp2433
asg5
g1996
ssg849
(dp2434
S'part12_correct_attempt'
p2435
(lp2436
S'0:00:00'
p2437
aV(1-2.6)*(1-2)*(.1)+(3-2.6)*(1-2)*(.4)+(1-2.6)*(3-2)*(.1)+(3-2.6)*(3-2)*(.4)
p2438
asS'part12_incorrect_attempt'
p2439
(lp2440
(S'0:00:00'
p2441
V(1-2.6)*(1-2)*(.1)+(3-2.6)*(1-2)*(.4)+(1-2.6)*(3-2)*(.1)+(3-2.6)*(3-2)*(.4)
p2442
tp2443
asg5
g856
ssg243
(dp2444
S'part12_correct_attempt'
p2445
(lp2446
S'0:00:00'
p2447
aV((1*0.2+2*0+3*0.8)*(1*0.5+2*0+3*0.5))-((1*0.5+2*0+3*0.5)*(1*0.2+2*0+3*0.8))
p2448
asS'part12_incorrect_attempt'
p2449
(lp2450
(S'0:00:00'
p2451
V((1*0.2+2*0+3*0.8)*(1*0.5+2*0+3*0.5))-((1*0.5+2*0+3*0.5)*(1*0.2+2*0+3*0.8))
p2452
tp2453
asg5
g250
ssg1755
(dp2454
S'part12_correct_attempt'
p2455
(lp2456
S'0:00:00'
p2457
aV5.2-5.2
p2458
asS'part12_incorrect_attempt'
p2459
(lp2460
(S'0:00:00'
p2461
V5.2-5.2
p2462
tp2463
asg5
g1762
ssg2098
(dp2464
S'part12_correct_attempt'
p2465
(lp2466
S'0:00:00'
p2467
aV0.1 + 1.2 + 0.3 + 3.6 - (0.5 + 1.5)*(0.2 +2.4)
p2468
asS'part12_incorrect_attempt'
p2469
(lp2470
(S'0:00:00'
p2471
V0.1 + 1.2 + 0.3 + 3.6 - (0.5 + 1.5)*(0.2 +2.4)
p2472
tp2473
asg5
g1642
ssg1178
(dp2474
S'part12_correct_attempt'
p2475
(lp2476
S'0:00:00'
p2477
aV1*.1 + 3*.4 + 3*.1 + 9*.4 - 5.2
p2478
asS'part12_incorrect_attempt'
p2479
(lp2480
(S'-1 day, 23:55:21'
p2481
V1*.1 + 3*.4 + 3*.1 + 9*.4 - 5.2
p2482
tp2483
a(S'0:00:00'
p2484
V1*.1 + 3*.4 + 3*.1 + 9*.4 - 5.2
p2485
tp2486
asg5
g1185
ssS'FrankHuang'
p2487
(dp2488
S'part12_correct_attempt'
p2489
(lp2490
S'0:00:00'
p2491
aV0
p2492
asS'part12_incorrect_attempt'
p2493
(lp2494
(S'-1 day, 23:56:07'
p2495
V5.2-5.2
p2496
tp2497
asg5
V2016-11-12 07:04:15
p2498
ssS'ray003'
p2499
(dp2500
S'part12_correct_attempt'
p2501
(lp2502
S'0:00:00'
p2503
aV0
p2504
asS'part12_incorrect_attempt'
p2505
(lp2506
(S'-1 day, 23:57:39'
p2507
V(1*(0.1)+3*0.1+3*0.4+9*0.4)-(2*2.6)
p2508
tp2509
asg5
g1002
ssS'zhc047'
p2510
(dp2511
S'part12_correct_attempt'
p2512
(lp2513
S'0:00:00'
p2514
aV5.2 - 2*2.6
p2515
asS'part12_incorrect_attempt'
p2516
(lp2517
(S'0:00:00'
p2518
V5.2 - 2*2.6
p2519
tp2520
asg5
V2016-11-09 07:03:58
p2521
ssg1824
(dp2522
S'part12_correct_attempt'
p2523
(lp2524
S'0:00:00'
p2525
aV5.2-2*2.6
p2526
asS'part12_incorrect_attempt'
p2527
(lp2528
(S'0:00:00'
p2529
V5.2-2*2.6
p2530
tp2531
asg5
g1831
ssg1415
(dp2532
S'part12_correct_attempt'
p2533
(lp2534
S'0:00:00'
p2535
aV52/10 - 52/10
p2536
asS'part12_incorrect_attempt'
p2537
(lp2538
(S'0:00:00'
p2539
V52/10 - 52/10
p2540
tp2541
asg5
g1422
ssg622
(dp2542
S'part12_correct_attempt'
p2543
(lp2544
S'0:00:00'
p2545
aV5.2 - (2*2.6)
p2546
asS'part12_incorrect_attempt'
p2547
(lp2548
(S'0:00:00'
p2549
V5.2 - (2*2.6)
p2550
tp2551
asg5
g629
ssS'pyae'
p2552
(dp2553
S'part12_correct_attempt'
p2554
(lp2555
S'0:00:00'
p2556
aV(4*0.1 + (12*0.4))-(2*(0.2*1+(0.8*3)))
p2557
asS'part12_incorrect_attempt'
p2558
(lp2559
(S'0:00:00'
p2560
V(4*0.1 + (12*0.4))-(2*(0.2*1+(0.8*3)))
p2561
tp2562
asg5
V2016-11-13 00:59:48
p2563
ssg2050
(dp2564
S'part12_correct_attempt'
p2565
(lp2566
S'0:00:00'
p2567
aV(.1 + 3* .4 + 3* .1 + 9 * .4) - 5.2
p2568
asS'part12_incorrect_attempt'
p2569
(lp2570
(S'0:00:00'
p2571
V(.1 + 3* .4 + 3* .1 + 9 * .4) - 5.2
p2572
tp2573
asg5
g2061
ssg1908
(dp2574
S'part12_correct_attempt'
p2575
(lp2576
S'0:00:00'
p2577
aV(.1 + 1.5 + 3.6) - (2*(.2 + 2.4))
p2578
asS'part12_incorrect_attempt'
p2579
(lp2580
(S'-1 day, 23:57:57'
p2581
V(.1 + 1.5 + 3.6) - (2*(.2 + 2.4))
p2582
tp2583
a(S'0:00:00'
p2584
V(.1 + 1.5 + 3.6) - (2*(.2 + 2.4))
p2585
tp2586
asg5
g1918
ssg1094
(dp2587
S'part12_correct_attempt'
p2588
(lp2589
S'0:00:00'
p2590
aV(0.1 + 1.2 + 0.3 + 3.6) - (0.5 + 1.5)*(0.2 + 2.4)
p2591
asS'part12_incorrect_attempt'
p2592
(lp2593
(S'0:00:00'
p2594
V(0.1 + 1.2 + 0.3 + 3.6) - (0.5 + 1.5)*(0.2 + 2.4)
p2595
tp2596
asg5
g1101
ssg565
(dp2597
S'part12_correct_attempt'
p2598
(lp2599
S'0:00:00'
p2600
aV5.2 - 2*2.6
p2601
asS'part12_incorrect_attempt'
p2602
(lp2603
(S'0:00:00'
p2604
V5.2 - 2*2.6
p2605
tp2606
asg5
g572
ssS'wheilson'
p2607
(dp2608
S'part12_correct_attempt'
p2609
(lp2610
S'0:00:00'
p2611
aV5.2-5.2
p2612
asS'part12_incorrect_attempt'
p2613
(lp2614
(S'0:00:00'
p2615
V5.2-5.2
p2616
tp2617
asg5
V2016-11-11 07:14:22
p2618
sssS'14'
p2619
(dp2620
sS'1'
p2621
(dp2622
S'rleaton'
p2623
(dp2624
S'part1_correct_attempt'
p2625
(lp2626
S'0:02:11'
p2627
aV.2
p2628
asg5
V2016-11-12 00:01:14
p2629
sS'part1_incorrect_attempt'
p2630
(lp2631
(S'0:00:00'
p2632
V.5
p2633
tp2634
assS'christywong'
p2635
(dp2636
S'part1_correct_attempt'
p2637
(lp2638
S'1:03:03'
p2639
aV0.2
p2640
asg5
V2016-11-08 19:15:24
p2641
sS'part1_incorrect_attempt'
p2642
(lp2643
(S'0:00:00'
p2644
V0.1+0+0.4
p2645
tp2646
assS'Alix'
p2647
(dp2648
S'part1_correct_attempt'
p2649
(lp2650
S'0:35:03'
p2651
aV.2
p2652
asg5
V2016-11-10 06:12:31
p2653
sS'part1_incorrect_attempt'
p2654
(lp2655
(S'0:00:00'
p2656
V.5
p2657
tp2658
assS'zjteoh'
p2659
(dp2660
S'part1_correct_attempt'
p2661
(lp2662
S'0:04:39'
p2663
aV0.2
p2664
asg5
V2016-11-11 00:05:55
p2665
sS'part1_incorrect_attempt'
p2666
(lp2667
(S'0:00:00'
p2668
V0.5
p2669
tp2670
assg139
(dp2671
S'part1_correct_attempt'
p2672
(lp2673
S'0:04:28'
p2674
aV0.2
p2675
asg5
V2016-11-12 01:39:11
p2676
sS'part1_incorrect_attempt'
p2677
(lp2678
(S'0:00:00'
p2679
V0.5
p2680
tp2681
assS'nguyenbui'
p2682
(dp2683
S'part1_correct_attempt'
p2684
(lp2685
S'0:18:01'
p2686
aV0.2
p2687
asg5
V2016-11-12 00:22:11
p2688
sS'part1_incorrect_attempt'
p2689
(lp2690
(S'0:00:00'
p2691
V0.5
p2692
tp2693
asssS'3'
p2694
(dp2695
S'PriyankaK'
p2696
(dp2697
S'part3_correct_attempt'
p2698
(lp2699
S'0:00:00'
p2700
aV0.8
p2701
asS'part3_incorrect_attempt'
p2702
(lp2703
(S'-1 day, 23:58:52'
p2704
V0.5
p2705
tp2706
asg5
V2016-11-06 21:03:21
p2707
ssS'FrankHuang'
p2708
(dp2709
S'part3_correct_attempt'
p2710
(lp2711
S'0:00:00'
p2712
aV0.8
p2713
asS'part3_incorrect_attempt'
p2714
(lp2715
(S'-1 day, 23:53:33'
p2716
V0.5
p2717
tp2718
asg5
g2498
ssg769
(dp2719
S'part3_correct_attempt'
p2720
(lp2721
S'0:00:00'
p2722
aV.8
p2723
asS'part3_incorrect_attempt'
p2724
(lp2725
(S'-1 day, 23:46:28'
p2726
V.4
p2727
tp2728
a(S'-1 day, 23:57:43'
p2729
V.4
p2730
tp2731
asg5
g69
ssg2623
(dp2732
S'part3_correct_attempt'
p2733
(lp2734
S'0:00:00'
p2735
aV.8
p2736
asS'part3_incorrect_attempt'
p2737
(lp2738
(S'-1 day, 23:57:49'
p2739
V.5
p2740
tp2741
asg5
g686
ssg2635
(dp2742
S'part3_correct_attempt'
p2743
(lp2744
S'0:00:00'
p2745
aV0.8
p2746
asS'part3_incorrect_attempt'
p2747
(lp2748
(S'-1 day, 22:56:57'
p2749
V0.1+0+0.4
p2750
tp2751
asg5
g1302
ssg2647
(dp2752
S'part3_correct_attempt'
p2753
(lp2754
S'0:00:00'
p2755
aV.8
p2756
asS'part3_incorrect_attempt'
p2757
(lp2758
(S'-1 day, 23:24:57'
p2759
V.5
p2760
tp2761
asg5
g895
ssS'CharlesCruz'
p2762
(dp2763
S'part3_correct_attempt'
p2764
(lp2765
S'0:00:00'
p2766
aV0.8
p2767
asS'part3_incorrect_attempt'
p2768
(lp2769
(S'-1 day, 23:57:09'
p2770
V0.4
p2771
tp2772
asg5
V2016-11-08 05:02:41
p2773
ssS'Derrick'
p2774
(dp2775
S'part3_correct_attempt'
p2776
(lp2777
S'0:00:00'
p2778
aV0.8
p2779
asS'part3_incorrect_attempt'
p2780
(lp2781
(S'-1 day, 23:56:45'
p2782
V0.5
p2783
tp2784
asg5
g877
ssg2659
(dp2785
S'part3_correct_attempt'
p2786
(lp2787
S'0:00:00'
p2788
aV0.8
p2789
asS'part3_incorrect_attempt'
p2790
(lp2791
(S'-1 day, 23:55:21'
p2792
V0.5
p2793
tp2794
asg5
g1903
ssS'DannyChan'
p2795
(dp2796
S'part3_correct_attempt'
p2797
(lp2798
S'0:00:00'
p2799
aV0.8
p2800
asS'part3_incorrect_attempt'
p2801
(lp2802
(S'-1 day, 23:58:42'
p2803
V.2
p2804
tp2805
asg5
V2016-11-11 08:10:58
p2806
ssS'rshroyer'
p2807
(dp2808
S'part3_correct_attempt'
p2809
(lp2810
S'0:00:00'
p2811
aV0.8
p2812
asS'part3_incorrect_attempt'
p2813
(lp2814
(S'-1 day, 23:58:06'
p2815
V0.5
p2816
tp2817
asg5
g1936
ssg139
(dp2818
S'part3_correct_attempt'
p2819
(lp2820
S'0:00:00'
p2821
aV0.8
p2822
asS'part3_incorrect_attempt'
p2823
(lp2824
(S'-1 day, 23:55:32'
p2825
V0.5
p2826
tp2827
asg5
g141
ssg2682
(dp2828
S'part3_correct_attempt'
p2829
(lp2830
S'0:00:00'
p2831
aV0.8
p2832
asS'part3_incorrect_attempt'
p2833
(lp2834
(S'-1 day, 23:41:59'
p2835
V0.5
p2836
tp2837
asg5
g81
sssS'2'
p2838
(dp2839
S'ddantas'
p2840
(dp2841
S'part2_correct_attempt'
p2842
(lp2843
S'0:00:00'
p2844
aV0+0+0
p2845
asg5
g458
sS'part2_incorrect_attempt'
p2846
(lp2847
(S'-1 day, 23:44:04'
p2848
V0+0+0
p2849
tp2850
a(S'-1 day, 23:48:27'
p2851
V0+0+0
p2852
tp2853
a(S'-1 day, 23:54:40'
p2854
V0+0+0
p2855
tp2856
a(S'-1 day, 23:57:06'
p2857
V0+0+0
p2858
tp2859
a(S'0:00:00'
p2860
V0+0+0
p2861
tp2862
assg1552
(dp2863
S'part2_correct_attempt'
p2864
(lp2865
S'0:00:00'
p2866
aV0
p2867
asg5
g1568
sS'part2_incorrect_attempt'
p2868
(lp2869
(S'-1 day, 22:58:11'
p2870
V0+0+0
p2871
tp2872
a(S'-1 day, 23:02:25'
p2873
V0+0+0
p2874
tp2875
assg369
(dp2876
S'part2_correct_attempt'
p2877
(lp2878
S'0:00:00'
p2879
aV(0+0+0)
p2880
asg5
g379
sS'part2_incorrect_attempt'
p2881
(lp2882
(S'-1 day, 23:55:49'
p2883
V(0+0+0)
p2884
tp2885
a(S'0:00:00'
p2886
V(0+0+0)
p2887
tp2888
assg2635
(dp2889
S'part2_correct_attempt'
p2890
(lp2891
S'0:00:00'
p2892
aV0
p2893
asg5
g1302
sS'part2_incorrect_attempt'
p2894
(lp2895
(S'-1 day, 22:56:57'
p2896
V0+0+0
p2897
tp2898
assg1427
(dp2899
S'part2_correct_attempt'
p2900
(lp2901
S'0:00:00'
p2902
aV0 + 0 + 0
p2903
asg5
g1434
sS'part2_incorrect_attempt'
p2904
(lp2905
(S'0:00:00'
p2906
V0 + 0 + 0
p2907
tp2908
asssS'5'
p2909
(dp2910
g577
(dp2911
S'part5_correct_attempt'
p2912
(lp2913
S'0:00:00'
p2914
aV(0.2+7.2)-2.6^2
p2915
asS'part5_incorrect_attempt'
p2916
(lp2917
(S'-1 day, 23:48:54'
p2918
V0.2 + 7.2 - 0.2 + 2.4 
p2919
tp2920
a(S'-1 day, 23:50:41'
p2921
V(0.2 + 2.4)-2.6
p2922
tp2923
a(S'-1 day, 23:58:21'
p2924
V7.4-2.6
p2925
tp2926
asg5
g590
ssg192
(dp2927
S'part5_correct_attempt'
p2928
(lp2929
S'0:00:00'
p2930
aV0.2+9*0.8-(0.2+3*0.8)^2
p2931
asS'part5_incorrect_attempt'
p2932
(lp2933
(S'-4 days, 23:10:55'
p2934
V0.2+9*0.8
p2935
tp2936
asg5
g208
ssg1124
(dp2937
S'part5_correct_attempt'
p2938
(lp2939
S'0:00:00'
p2940
aV0.2+9*(0.8)-(0.2+3*(0.8))^2
p2941
asS'part5_incorrect_attempt'
p2942
(lp2943
(S'-4 days, 23:06:24'
p2944
V0.2+9*(0.8)-(0.2+3*(0.8)*(0.2+3*(0.8)))
p2945
tp2946
asg5
g1143
ssS'CheyennePayne'
p2947
(dp2948
S'part5_correct_attempt'
p2949
(lp2950
S'0:00:00'
p2951
aV0.64
p2952
asS'part5_incorrect_attempt'
p2953
(lp2954
(S'-1 day, 23:56:31'
p2955
V0.44
p2956
tp2957
asg5
V2016-11-12 20:03:14
p2958
ssS'jjgallaw'
p2959
(dp2960
S'part5_correct_attempt'
p2961
(lp2962
S'0:00:00'
p2963
aV0.64
p2964
asS'part5_incorrect_attempt'
p2965
(lp2966
(S'-1 day, 23:23:01'
p2967
V6.76
p2968
tp2969
asg5
V2016-11-12 17:16:39
p2970
ssS'vincebai'
p2971
(dp2972
S'part5_correct_attempt'
p2973
(lp2974
S'0:00:00'
p2975
aV7.4-(2.6)^2
p2976
asS'part5_incorrect_attempt'
p2977
(lp2978
(S'-1 day, 23:58:20'
p2979
V7.2-(2.6)^2
p2980
tp2981
asg5
V2016-11-08 04:25:48
p2982
ssS'PhillipJo'
p2983
(dp2984
S'part5_correct_attempt'
p2985
(lp2986
S'0:00:00'
p2987
aV0.64
p2988
asS'part5_incorrect_attempt'
p2989
(lp2990
(S'-1 day, 23:55:44'
p2991
V0.52
p2992
tp2993
asg5
V2016-11-11 02:47:41
p2994
ssg673
(dp2995
S'part5_correct_attempt'
p2996
(lp2997
S'0:00:00'
p2998
aV7.4 - (2.6^2)
p2999
asS'part5_incorrect_attempt'
p3000
(lp3001
(S'-1 day, 23:51:40'
p3002
V          74/10 -26/10^2
p3003
tp3004
asg5
g686
ssS'rrivasfe'
p3005
(dp3006
S'part5_correct_attempt'
p3007
(lp3008
S'0:00:00'
p3009
aV0.64
p3010
asS'part5_incorrect_attempt'
p3011
(lp3012
(S'-1 day, 23:49:04'
p3013
V7.4
p3014
tp3015
a(S'-1 day, 23:53:36'
p3016
V0.84
p3017
tp3018
asg5
V2016-11-11 22:23:00
p3019
ssS'anMihaly'
p3020
(dp3021
S'part5_correct_attempt'
p3022
(lp3023
S'0:00:00'
p3024
aV0.64
p3025
asS'part5_incorrect_attempt'
p3026
(lp3027
(S'-1 day, 8:43:17'
p3028
V3.4
p3029
tp3030
asg5
g93
ssg1190
(dp3031
S'part5_correct_attempt'
p3032
(lp3033
S'0:00:00'
p3034
aV(0.2+9*0.8) - (0.2+3*0.8)^2
p3035
asS'part5_incorrect_attempt'
p3036
(lp3037
(S'-1 day, 23:49:57'
p3038
V0.2+9*0.8
p3039
tp3040
asg5
g1200
ssg1205
(dp3041
S'part5_correct_attempt'
p3042
(lp3043
S'0:00:00'
p3044
aV1.0
p3045
asS'part5_incorrect_attempt'
p3046
(lp3047
(S'0:00:00'
p3048
V1.0
p3049
tp3050
asg5
g1212
ssS'JiaqiHuang'
p3051
(dp3052
S'part5_correct_attempt'
p3053
(lp3054
S'0:00:00'
p3055
aV7.4-2.6*2.6
p3056
asS'part5_incorrect_attempt'
p3057
(lp3058
(S'-1 day, 23:51:22'
p3059
V7.2-2.6
p3060
tp3061
a(S'-1 day, 23:57:15'
p3062
V7.2-2.6*2.6
p3063
tp3064
asg5
V2016-11-11 06:14:01
p3065
ssg151
(dp3066
S'part5_correct_attempt'
p3067
(lp3068
S'0:00:00'
p3069
aV2.56*0.2+0+0.16*0.8
p3070
asS'part5_incorrect_attempt'
p3071
(lp3072
(S'-1 day, 16:35:48'
p3073
V3.04
p3074
tp3075
a(S'-1 day, 16:40:08'
p3076
V1.6*1.6*1+0.4*0.4*3
p3077
tp3078
a(S'-1 day, 17:00:09'
p3079
V2.56+0.16*3
p3080
tp3081
a(S'-1 day, 23:56:32'
p3082
V(2.56*1+0*2+0.16*3)/3
p3083
tp3084
asg5
g153
ssS'JaceLu'
p3085
(dp3086
S'part5_correct_attempt'
p3087
(lp3088
S'0:00:00'
p3089
aV0.64
p3090
asS'part5_incorrect_attempt'
p3091
(lp3092
(S'-1 day, 12:26:36'
p3093
V0.630
p3094
tp3095
asg5
V2016-11-11 21:18:07
p3096
ssS'chenboy3'
p3097
(dp3098
S'part5_correct_attempt'
p3099
(lp3100
S'0:00:00'
p3101
aV1.6 * 0.2 + 0.8 * 0.4
p3102
asS'part5_incorrect_attempt'
p3103
(lp3104
(S'-1 day, 23:52:43'
p3105
V2.72
p3106
tp3107
asg5
g334
ssS'jwdavies'
p3108
(dp3109
S'part5_correct_attempt'
p3110
(lp3111
S'0:00:00'
p3112
aV(1*.2+9*.8)-((1*.2+3*.8)^2)
p3113
asS'part5_incorrect_attempt'
p3114
(lp3115
(S'-1 day, 23:49:35'
p3116
V(1*.2+9*.8)-(1*.2+3*.8)
p3117
tp3118
asg5
V2016-11-12 23:04:05
p3119
ssg691
(dp3120
S'part5_correct_attempt'
p3121
(lp3122
S'0:00:00'
p3123
aV1*.2+3*3*.8-(1*.2+3*.8)^2
p3124
asS'part5_incorrect_attempt'
p3125
(lp3126
(S'-1 day, 23:42:22'
p3127
V1*.2+3*3*.8-1*.2+3*.8
p3128
tp3129
a(S'-1 day, 23:47:02'
p3130
V1*.2+3*3*.8-(1*.2+3*.8)
p3131
tp3132
asg5
g707
ssS'jih089'
p3133
(dp3134
S'part5_correct_attempt'
p3135
(lp3136
S'0:00:00'
p3137
aV0.2*1.6^2+0.8*0.4^2
p3138
asS'part5_incorrect_attempt'
p3139
(lp3140
(S'-1 day, 23:52:08'
p3141
V(1.6^2+0.4^2)/3
p3142
tp3143
asg5
g346
ssS'Max'
p3144
(dp3145
S'part5_correct_attempt'
p3146
(lp3147
S'0:00:00'
p3148
aV.64
p3149
asS'part5_incorrect_attempt'
p3150
(lp3151
(S'-1 day, 23:58:32'
p3152
V.44
p3153
tp3154
asg5
V2016-11-11 07:09:45
p3155
ssg2635
(dp3156
S'part5_correct_attempt'
p3157
(lp3158
S'0:00:00'
p3159
aV(1*0.2+(2^2)*0+(3^2)*0.8)-((1*0.2+2*0+3*0.8)^2)
p3160
asS'part5_incorrect_attempt'
p3161
(lp3162
(S'-1 day, 22:56:57'
p3163
V(1*0.5+(2^2)*(0)+(3^2)*0.5)-((1*(0.1+0+0.4)+2*0+3*(0.1+0+0.4))^2)
p3164
tp3165
asg5
g1302
ssS'yazin-yousif'
p3166
(dp3167
S'part5_correct_attempt'
p3168
(lp3169
S'0:00:00'
p3170
aV0.64
p3171
asS'part5_incorrect_attempt'
p3172
(lp3173
(S'-1 day, 23:50:22'
p3174
V4.8
p3175
tp3176
asg5
V2016-11-09 01:03:03
p3177
ssg2762
(dp3178
S'part5_correct_attempt'
p3179
(lp3180
S'0:00:00'
p3181
aV0.64
p3182
asS'part5_incorrect_attempt'
p3183
(lp3184
(S'-1 day, 23:57:09'
p3185
V4.8
p3186
tp3187
asg5
g2773
ssS'rdrabik'
p3188
(dp3189
S'part5_correct_attempt'
p3190
(lp3191
S'0:00:00'
p3192
aV.64
p3193
asS'part5_incorrect_attempt'
p3194
(lp3195
(S'-1 day, 23:56:12'
p3196
V7.4
p3197
tp3198
asg5
V2016-11-09 22:18:33
p3199
ssS'DannyChan'
p3200
(dp3201
S'part5_correct_attempt'
p3202
(lp3203
S'0:00:00'
p3204
aV0.64
p3205
asS'part5_incorrect_attempt'
p3206
(lp3207
(S'-1 day, 23:57:51'
p3208
V0.84
p3209
tp3210
asg5
g2806
ssg2682
(dp3211
S'part5_correct_attempt'
p3212
(lp3213
S'0:00:00'
p3214
aV((1*0.2+9*0.8)-(1*0.2+3*0.8)*(1*0.2+3*0.8))
p3215
asS'part5_incorrect_attempt'
p3216
(lp3217
(S'-1 day, 23:41:59'
p3218
V(5-0.04)
p3219
tp3220
asg5
g81
ssS'Ken_Truong'
p3221
(dp3222
S'part5_correct_attempt'
p3223
(lp3224
S'0:00:00'
p3225
aV.64
p3226
asS'part5_incorrect_attempt'
p3227
(lp3228
(S'-1 day, 23:58:20'
p3229
V0.928
p3230
tp3231
asg5
V2016-11-10 10:57:16
p3232
ssS'ThuanNguyen'
p3233
(dp3234
S'part5_correct_attempt'
p3235
(lp3236
S'0:00:00'
p3237
aV37/5-169/25
p3238
asS'part5_incorrect_attempt'
p3239
(lp3240
(S'-1 day, 23:54:07'
p3241
V37/5-49/25
p3242
tp3243
asg5
V2016-11-10 20:46:44
p3244
ssg810
(dp3245
S'part5_correct_attempt'
p3246
(lp3247
S'0:00:00'
p3248
aV.64
p3249
asS'part5_incorrect_attempt'
p3250
(lp3251
(S'-1 day, 23:30:42'
p3252
V(1-2.6)^(2)+(2-2.6)^(2)+(3-2.6)^(2)
p3253
tp3254
asg5
g817
ssS'RobinO'
p3255
(dp3256
S'part5_correct_attempt'
p3257
(lp3258
S'0:00:00'
p3259
aV(.2+9*.8)-(2.6^2)
p3260
asS'part5_incorrect_attempt'
p3261
(lp3262
(S'-1 day, 23:56:53'
p3263
V((1-2.6)^2 + (3-2.6)^2)/3
p3264
tp3265
a(S'-1 day, 23:57:37'
p3266
V((1-2.6)^2+(3-2.6)^2)/2
p3267
tp3268
asg5
g1954
ssS'cameronEllis'
p3269
(dp3270
S'part5_correct_attempt'
p3271
(lp3272
S'0:00:00'
p3273
aV0.64
p3274
asS'part5_incorrect_attempt'
p3275
(lp3276
(S'-1 day, 23:41:00'
p3277
V6.76
p3278
tp3279
a(S'-1 day, 23:57:18'
p3280
V7.4
p3281
tp3282
asg5
V2016-11-07 21:56:54
p3283
ssg1358
(dp3284
S'part5_correct_attempt'
p3285
(lp3286
S'0:00:00'
p3287
aV0.2+9*0.8-(0.2+3*0.8)^2
p3288
asS'part5_incorrect_attempt'
p3289
(lp3290
(S'-1 day, 23:57:04'
p3291
V0.1+7.2-(2.6)^2
p3292
tp3293
asg5
g1368
ssS'kkhuong'
p3294
(dp3295
S'part5_correct_attempt'
p3296
(lp3297
S'0:00:00'
p3298
aV.2+9*.8-2.6^2
p3299
asS'part5_incorrect_attempt'
p3300
(lp3301
(S'-1 day, 19:35:26'
p3302
V.2+9*.8
p3303
tp3304
asg5
g560
ssg1979
(dp3305
S'part5_correct_attempt'
p3306
(lp3307
S'0:00:00'
p3308
aV(1*0.2+9*0.8)-(2.6*2.6)
p3309
asS'part5_incorrect_attempt'
p3310
(lp3311
(S'-1 day, 23:53:09'
p3312
V2.56
p3313
tp3314
asg5
g1996
ssg1731
(dp3315
S'part5_correct_attempt'
p3316
(lp3317
S'0:00:00'
p3318
aV0.64
p3319
asS'part5_incorrect_attempt'
p3320
(lp3321
(S'-1 day, 23:55:58'
p3322
V4.8
p3323
tp3324
a(S'-1 day, 23:57:17'
p3325
V0.54
p3326
tp3327
asg5
g1738
ssS'Ryan'
p3328
(dp3329
S'part5_correct_attempt'
p3330
(lp3331
S'0:00:00'
p3332
aV0.64
p3333
asS'part5_incorrect_attempt'
p3334
(lp3335
(S'-1 day, 23:47:31'
p3336
V4.8
p3337
tp3338
a(S'-1 day, 23:49:04'
p3339
V4.8
p3340
tp3341
asg5
V2016-11-11 11:07:38
p3342
ssg2774
(dp3343
S'part5_correct_attempt'
p3344
(lp3345
S'0:00:00'
p3346
aV(0.2+9*0.8)-(0.2+3*0.8)^2
p3347
asS'part5_incorrect_attempt'
p3348
(lp3349
(S'-1 day, 23:56:45'
p3350
V0.2+9*0.5-(0.2+3*0.5)^2
p3351
tp3352
asg5
g877
ssg1373
(dp3353
S'part5_correct_attempt'
p3354
(lp3355
S'0:00:00'
p3356
aV(.2+9*(.8))-((.2+1.2+1.2)*(.2+1.2+1.2))
p3357
asS'part5_incorrect_attempt'
p3358
(lp3359
(S'-2 days, 4:58:13'
p3360
V(.2+9*(.8))-(.2+3*(.8))
p3361
tp3362
asg5
g1386
ssS'Kevin_Pansawira'
p3363
(dp3364
S'part5_correct_attempt'
p3365
(lp3366
S'0:00:00'
p3367
aV16/25
p3368
asS'part5_incorrect_attempt'
p3369
(lp3370
(S'-1 day, 23:49:37'
p3371
V0.3
p3372
tp3373
asg5
V2016-11-11 10:12:01
p3374
ssS'JonahCruz'
p3375
(dp3376
S'part5_correct_attempt'
p3377
(lp3378
S'0:00:00'
p3379
aV(1*.2+9*.8)-(1*.2+3*.8)^2
p3380
asS'part5_incorrect_attempt'
p3381
(lp3382
(S'-1 day, 23:54:14'
p3383
V(1*.1+9*.8)-(1*.1+3*.8)^2
p3384
tp3385
asg5
g1795
ssS'a9zhao'
p3386
(dp3387
S'part5_correct_attempt'
p3388
(lp3389
S'0:00:00'
p3390
aV.64
p3391
asS'part5_incorrect_attempt'
p3392
(lp3393
(S'-1 day, 23:56:47'
p3394
V.44
p3395
tp3396
asg5
V2016-11-11 23:34:43
p3397
ssS'Lpascual'
p3398
(dp3399
S'part5_correct_attempt'
p3400
(lp3401
S'0:00:00'
p3402
aV.64
p3403
asS'part5_incorrect_attempt'
p3404
(lp3405
(S'-1 day, 23:51:43'
p3406
V7.3
p3407
tp3408
a(S'-1 day, 23:56:22'
p3409
V1.15
p3410
tp3411
asg5
V2016-11-08 05:17:08
p3412
ssS'tbenari'
p3413
(dp3414
S'part5_correct_attempt'
p3415
(lp3416
S'0:00:00'
p3417
aV0.64
p3418
asS'part5_incorrect_attempt'
p3419
(lp3420
(S'-1 day, 23:56:56'
p3421
V4.8
p3422
tp3423
asg5
V2016-11-11 07:52:03
p3424
ssS'kevinpham'
p3425
(dp3426
S'part5_correct_attempt'
p3427
(lp3428
S'0:00:00'
p3429
aV3.2/5
p3430
asS'part5_incorrect_attempt'
p3431
(lp3432
(S'-1 day, 23:53:33'
p3433
V4/5
p3434
tp3435
asg5
V2016-11-11 12:39:27
p3436
ssS'Aidan'
p3437
(dp3438
S'part5_correct_attempt'
p3439
(lp3440
S'0:00:00'
p3441
aV.2 * .2 * .8 + 2.4 * 2.4 * .2
p3442
asS'part5_incorrect_attempt'
p3443
(lp3444
(S'0:00:00'
p3445
V.2 * .2 * .8 + 2.4 * 2.4 * .2
p3446
tp3447
asg5
V2016-11-10 01:31:34
p3448
ssS'JunnelReboquio'
p3449
(dp3450
S'part5_correct_attempt'
p3451
(lp3452
S'0:00:00'
p3453
aV((1^2*0.2)+(3^2*0.8)) - (1*0.2+3*0.8)^2
p3454
asS'part5_incorrect_attempt'
p3455
(lp3456
(S'-2 days, 17:43:08'
p3457
V4.16
p3458
tp3459
asg5
g1014
ssS'RyanJHill'
p3460
(dp3461
S'part5_correct_attempt'
p3462
(lp3463
S'0:00:00'
p3464
aV(0.2 + (9*0.8)) - (2.6^2)
p3465
asS'part5_incorrect_attempt'
p3466
(lp3467
(S'-1 day, 23:45:58'
p3468
V7.3
p3469
tp3470
a(S'-1 day, 23:55:05'
p3471
V7.4
p3472
tp3473
asg5
V2016-11-12 23:52:03
p3474
ssS'mninette'
p3475
(dp3476
S'part5_correct_attempt'
p3477
(lp3478
S'0:00:00'
p3479
aV.64
p3480
asS'part5_incorrect_attempt'
p3481
(lp3482
(S'-1 day, 23:56:16'
p3483
V14.16
p3484
tp3485
asg5
V2016-11-10 16:18:18
p3486
ssS'smkurtz'
p3487
(dp3488
S'part5_correct_attempt'
p3489
(lp3490
S'0:00:00'
p3491
aV0.16
p3492
asS'part5_incorrect_attempt'
p3493
(lp3494
(S'0:00:00'
p3495
V0.16
p3496
tp3497
asg5
V2016-11-12 00:57:53
p3498
ssS'jarninfang'
p3499
(dp3500
S'part5_correct_attempt'
p3501
(lp3502
S'0:00:00'
p3503
aV(.2 + 9 * .8) - 2.6^2
p3504
asS'part5_incorrect_attempt'
p3505
(lp3506
(S'-1 day, 23:57:34'
p3507
V.1 + 9 * .8
p3508
tp3509
asg5
g1455
ssg1869
(dp3510
S'part5_correct_attempt'
p3511
(lp3512
S'0:00:00'
p3513
aV(1*0.2) + 0 + (9*0.8) - (2.6)^2
p3514
asS'part5_incorrect_attempt'
p3515
(lp3516
(S'-1 day, 23:55:51'
p3517
V(1*0.2) + 0 + (9*0.8) 
p3518
tp3519
asg5
g1879
ssS'QIQIWU'
p3520
(dp3521
S'part5_correct_attempt'
p3522
(lp3523
S'0:00:00'
p3524
aV.64
p3525
asS'part5_incorrect_attempt'
p3526
(lp3527
(S'-1 day, 23:53:08'
p3528
V.11
p3529
tp3530
asg5
V2016-11-09 22:21:25
p3531
ssS'JoshuaKomala'
p3532
(dp3533
S'part5_correct_attempt'
p3534
(lp3535
S'0:00:00'
p3536
aV0.64
p3537
asS'part5_incorrect_attempt'
p3538
(lp3539
(S'-1 day, 23:56:21'
p3540
V4.8
p3541
tp3542
asg5
V2016-11-11 22:17:56
p3543
ssg2659
(dp3544
S'part5_correct_attempt'
p3545
(lp3546
S'0:00:00'
p3547
aV0.64
p3548
asS'part5_incorrect_attempt'
p3549
(lp3550
(S'-1 day, 23:55:21'
p3551
V3.0
p3552
tp3553
asg5
g1903
ssg270
(dp3554
S'part5_correct_attempt'
p3555
(lp3556
S'0:00:00'
p3557
aV0.2 + 7.2
p3558
asS'part5_incorrect_attempt'
p3559
(lp3560
(S'0:00:00'
p3561
V0.2 + 7.2
p3562
tp3563
asg5
g277
ssS'pgupta'
p3564
(dp3565
S'part5_correct_attempt'
p3566
(lp3567
S'0:00:00'
p3568
aV2.6
p3569
asS'part5_incorrect_attempt'
p3570
(lp3571
(S'0:00:00'
p3572
V2.6
p3573
tp3574
asg5
g141
ssS'tommyt1109'
p3575
(dp3576
S'part5_correct_attempt'
p3577
(lp3578
S'0:00:00'
p3579
aV((.2)+(9*.8))-((.2)+(3*.8))^2
p3580
asS'part5_incorrect_attempt'
p3581
(lp3582
(S'-1 day, 23:58:34'
p3583
V((.2)+(9*.8))-((.2)+(3*.8))
p3584
tp3585
asg5
g165
ssS'shh176'
p3586
(dp3587
S'part5_correct_attempt'
p3588
(lp3589
S'0:00:00'
p3590
aV0.64
p3591
asS'part5_incorrect_attempt'
p3592
(lp3593
(S'-1 day, 23:56:49'
p3594
V0.576
p3595
tp3596
asg5
V2016-11-07 23:59:43
p3597
sssS'4'
p3598
(dp3599
g2647
(dp3600
S'part4_correct_attempt'
p3601
(lp3602
S'0:00:00'
p3603
aV.2+3*.8
p3604
asS'part4_incorrect_attempt'
p3605
(lp3606
(S'-1 day, 23:24:57'
p3607
V.5 + 2*.5 + 3*.5
p3608
tp3609
asg5
g895
ssS'jwdavies'
p3610
(dp3611
S'part4_correct_attempt'
p3612
(lp3613
S'0:00:00'
p3614
aV2.6
p3615
asS'part4_incorrect_attempt'
p3616
(lp3617
(S'-1 day, 23:37:01'
p3618
V.26
p3619
tp3620
asg5
g3119
ssg3425
(dp3621
S'part4_correct_attempt'
p3622
(lp3623
S'0:00:00'
p3624
aV2.6
p3625
asS'part4_incorrect_attempt'
p3626
(lp3627
(S'-1 day, 23:53:33'
p3628
V1.3
p3629
tp3630
asg5
g3436
ssg2708
(dp3631
S'part4_correct_attempt'
p3632
(lp3633
S'0:00:00'
p3634
aV2.6
p3635
asS'part4_incorrect_attempt'
p3636
(lp3637
(S'-1 day, 23:53:33'
p3638
V1.7
p3639
tp3640
asg5
g2498
ssg91
(dp3641
S'part4_correct_attempt'
p3642
(lp3643
S'0:00:00'
p3644
aV2.6
p3645
asS'part4_incorrect_attempt'
p3646
(lp3647
(S'-2 days, 10:40:21'
p3648
V1.3
p3649
tp3650
asg5
g93
ssg2635
(dp3651
S'part4_correct_attempt'
p3652
(lp3653
S'0:00:00'
p3654
aV1*0.2+2*0+3*0.8
p3655
asS'part4_incorrect_attempt'
p3656
(lp3657
(S'-1 day, 22:56:57'
p3658
V1*(0.1+0+0.4)+2*0+3*(0.1+0+0.4)
p3659
tp3660
asg5
g1302
ssg2682
(dp3661
S'part4_correct_attempt'
p3662
(lp3663
S'0:00:00'
p3664
aV(1*0.2+3*0.8)
p3665
asS'part4_incorrect_attempt'
p3666
(lp3667
(S'-1 day, 23:41:59'
p3668
V0.2
p3669
tp3670
asg5
g81
ssS'k1siu'
p3671
(dp3672
S'part4_correct_attempt'
p3673
(lp3674
S'0:00:00'
p3675
aV(0.2*1)+0+(0.8*3)
p3676
asS'part4_incorrect_attempt'
p3677
(lp3678
(S'-1 day, 21:01:40'
p3679
V(0.2+0.8)/3
p3680
tp3681
asg5
g1879
ssg3520
(dp3682
S'part4_correct_attempt'
p3683
(lp3684
S'0:00:00'
p3685
aV2.6
p3686
asS'part4_incorrect_attempt'
p3687
(lp3688
(S'-1 day, 23:53:08'
p3689
V2.7
p3690
tp3691
asg5
g3531
ssg2774
(dp3692
S'part4_correct_attempt'
p3693
(lp3694
S'0:00:00'
p3695
aV0.2+3*0.8
p3696
asS'part4_incorrect_attempt'
p3697
(lp3698
(S'-1 day, 23:56:45'
p3699
V0.2+3*0.5
p3700
tp3701
asg5
g877
ssg1205
(dp3702
S'part4_correct_attempt'
p3703
(lp3704
S'0:00:00'
p3705
aV1.0
p3706
asS'part4_incorrect_attempt'
p3707
(lp3708
(S'0:00:00'
p3709
V1.0
p3710
tp3711
asg5
g1212
ssg2659
(dp3712
S'part4_correct_attempt'
p3713
(lp3714
S'0:00:00'
p3715
aV2.6
p3716
asS'part4_incorrect_attempt'
p3717
(lp3718
(S'-1 day, 23:55:21'
p3719
V2.0
p3720
tp3721
asg5
g1903
ssS'rshroyer'
p3722
(dp3723
S'part4_correct_attempt'
p3724
(lp3725
S'0:00:00'
p3726
aV0.2+3*0.8
p3727
asS'part4_incorrect_attempt'
p3728
(lp3729
(S'-1 day, 23:47:49'
p3730
V0.2+0.8
p3731
tp3732
asg5
g1936
ssg3363
(dp3733
S'part4_correct_attempt'
p3734
(lp3735
S'0:00:00'
p3736
aV13/5
p3737
asS'part4_incorrect_attempt'
p3738
(lp3739
(S'-1 day, 23:49:37'
p3740
V1 * 0.1 + 3  * 0.1
p3741
tp3742
asg5
g3374
ssg3460
(dp3743
S'part4_correct_attempt'
p3744
(lp3745
S'0:00:00'
p3746
aV2.6
p3747
asS'part4_incorrect_attempt'
p3748
(lp3749
(S'-1 day, 23:45:58'
p3750
V2.5
p3751
tp3752
asg5
g3474
ssg3398
(dp3753
S'part4_correct_attempt'
p3754
(lp3755
S'0:00:00'
p3756
aV2.6
p3757
asS'part4_incorrect_attempt'
p3758
(lp3759
(S'-1 day, 23:51:43'
p3760
V2.5
p3761
tp3762
asg5
g3412
sssS'7'
p3763
(dp3764
g2840
(dp3765
g5
g458
sS'part7_correct_attempt'
p3766
(lp3767
S'0:00:00'
p3768
aV0+0+0
p3769
asS'part7_incorrect_attempt'
p3770
(lp3771
(S'-1 day, 23:44:04'
p3772
V0+0+0
p3773
tp3774
a(S'-1 day, 23:48:27'
p3775
V0+0+0
p3776
tp3777
a(S'-1 day, 23:54:40'
p3778
V0+0+0
p3779
tp3780
a(S'-1 day, 23:57:06'
p3781
V0+0+0
p3782
tp3783
a(S'0:00:00'
p3784
V0+0+0
p3785
tp3786
assg1427
(dp3787
g5
g1434
sS'part7_correct_attempt'
p3788
(lp3789
S'0:00:00'
p3790
aV0 + 0 + 0
p3791
asS'part7_incorrect_attempt'
p3792
(lp3793
(S'0:00:00'
p3794
V0 + 0 + 0
p3795
tp3796
assS'gstamp'
p3797
(dp3798
g5
V2016-11-13 00:14:16
p3799
sS'part7_correct_attempt'
p3800
(lp3801
S'0:00:00'
p3802
aV.0
p3803
asS'part7_incorrect_attempt'
p3804
(lp3805
(S'0:00:00'
p3806
V.0
p3807
tp3808
assg91
(dp3809
g5
g93
sS'part7_correct_attempt'
p3810
(lp3811
S'0:00:00'
p3812
aV0
p3813
asS'part7_incorrect_attempt'
p3814
(lp3815
(S'-2 days, 10:40:21'
p3816
V0 
p3817
tp3818
a(S'-1 day, 8:43:17'
p3819
V0 
p3820
tp3821
assg369
(dp3822
g5
g379
sS'part7_correct_attempt'
p3823
(lp3824
S'0:00:00'
p3825
aV(0+0+0)
p3826
asS'part7_incorrect_attempt'
p3827
(lp3828
(S'-1 day, 23:55:49'
p3829
V(0+0+0)
p3830
tp3831
a(S'0:00:00'
p3832
V(0+0+0)
p3833
tp3834
assg1552
(dp3835
g5
g1568
sS'part7_correct_attempt'
p3836
(lp3837
S'0:00:00'
p3838
aV0
p3839
asS'part7_incorrect_attempt'
p3840
(lp3841
(S'-1 day, 22:58:11'
p3842
V0+0+0
p3843
tp3844
a(S'-1 day, 23:02:25'
p3845
V0+0+0
p3846
tp3847
asssS'6'
p3848
(dp3849
g2647
(dp3850
S'part6_incorrect_attempt'
p3851
(lp3852
(S'-1 day, 23:24:57'
p3853
V.2
p3854
tp3855
asg5
g895
sS'part6_correct_attempt'
p3856
(lp3857
S'0:00:00'
p3858
aV.5
p3859
assg2840
(dp3860
S'part6_incorrect_attempt'
p3861
(lp3862
(S'-1 day, 23:44:04'
p3863
V(.1)+0+(.1)
p3864
tp3865
asg5
g458
sS'part6_correct_attempt'
p3866
(lp3867
S'0:00:00'
p3868
aV.1 + 0 + .4
p3869
assS'sunilraiyani'
p3870
(dp3871
S'part6_incorrect_attempt'
p3872
(lp3873
(S'-1 day, 23:57:24'
p3874
V0.2
p3875
tp3876
asg5
V2016-11-07 09:06:54
p3877
sS'part6_correct_attempt'
p3878
(lp3879
S'0:00:00'
p3880
aV0.5
p3881
assg2635
(dp3882
S'part6_incorrect_attempt'
p3883
(lp3884
(S'-1 day, 22:56:57'
p3885
V0.1+0+0.1
p3886
tp3887
asg5
g1302
sS'part6_correct_attempt'
p3888
(lp3889
S'0:00:00'
p3890
aV0.5
p3891
assg3051
(dp3892
S'part6_incorrect_attempt'
p3893
(lp3894
(S'-1 day, 23:51:22'
p3895
V0.2
p3896
tp3897
asg5
g3065
sS'part6_correct_attempt'
p3898
(lp3899
S'0:00:00'
p3900
aV0.5
p3901
assS'danFlorencio'
p3902
(dp3903
S'part6_incorrect_attempt'
p3904
(lp3905
(S'-1 day, 23:43:45'
p3906
V.2
p3907
tp3908
asg5
g749
sS'part6_correct_attempt'
p3909
(lp3910
S'0:00:00'
p3911
aV.5
p3912
assg2659
(dp3913
S'part6_incorrect_attempt'
p3914
(lp3915
(S'-1 day, 23:55:21'
p3916
V0.2
p3917
tp3918
asg5
g1903
sS'part6_correct_attempt'
p3919
(lp3920
S'0:00:00'
p3921
aV0.5
p3922
assg139
(dp3923
S'part6_incorrect_attempt'
p3924
(lp3925
(S'-1 day, 23:55:32'
p3926
V0.2
p3927
tp3928
asg5
g141
sS'part6_correct_attempt'
p3929
(lp3930
S'0:00:00'
p3931
aV0.5
p3932
assg3375
(dp3933
S'part6_incorrect_attempt'
p3934
(lp3935
(S'-1 day, 23:54:14'
p3936
V.2
p3937
tp3938
asg5
g1795
sS'part6_correct_attempt'
p3939
(lp3940
S'0:00:00'
p3941
aV.5
p3942
asssS'9'
p3943
(dp3944
g3475
(dp3945
S'part9_correct_attempt'
p3946
(lp3947
S'0:00:00'
p3948
aV2.0
p3949
asg5
g3486
sS'part9_incorrect_attempt'
p3950
(lp3951
(S'-1 day, 23:56:16'
p3952
V2.0
p3953
tp3954
a(S'0:00:00'
p3955
V2.0
p3956
tp3957
assg727
(dp3958
S'part9_correct_attempt'
p3959
(lp3960
S'0:00:00'
p3961
aV4*0.5
p3962
asg5
g737
sS'part9_incorrect_attempt'
p3963
(lp3964
(S'-1 day, 23:57:02'
p3965
V4*0.5
p3966
tp3967
a(S'0:00:00'
p3968
V4*0.5
p3969
tp3970
assg1460
(dp3971
S'part9_correct_attempt'
p3972
(lp3973
S'0:00:00'
p3974
aV4*0.5
p3975
asg5
g1467
sS'part9_incorrect_attempt'
p3976
(lp3977
(S'0:00:00'
p3978
V4*0.5
p3979
tp3980
assg1205
(dp3981
S'part9_correct_attempt'
p3982
(lp3983
S'0:00:00'
p3984
aV1.0
p3985
asg5
g1212
sS'part9_incorrect_attempt'
p3986
(lp3987
(S'0:00:00'
p3988
V1.0
p3989
tp3990
assg1896
(dp3991
S'part9_correct_attempt'
p3992
(lp3993
S'0:00:00'
p3994
aV2
p3995
asg5
g1903
sS'part9_incorrect_attempt'
p3996
(lp3997
(S'-1 day, 23:58:37'
p3998
V2.0
p3999
tp4000
assg1755
(dp4001
S'part9_correct_attempt'
p4002
(lp4003
S'0:00:00'
p4004
aV2.0
p4005
asg5
g1762
sS'part9_incorrect_attempt'
p4006
(lp4007
(S'0:00:00'
p4008
V2.0
p4009
tp4010
assS'woguan'
p4011
(dp4012
S'part9_correct_attempt'
p4013
(lp4014
S'0:00:00'
p4015
aV2.0
p4016
asg5
g1568
sS'part9_incorrect_attempt'
p4017
(lp4018
(S'-1 day, 23:56:41'
p4019
V2.0
p4020
tp4021
a(S'0:00:00'
p4022
V2.0
p4023
tp4024
assS'Riyang'
p4025
(dp4026
S'part9_correct_attempt'
p4027
(lp4028
S'0:00:00'
p4029
aV2.0
p4030
asg5
V2016-11-09 05:26:11
p4031
sS'part9_incorrect_attempt'
p4032
(lp4033
(S'0:00:00'
p4034
V2.0
p4035
tp4036
assS'RodrigoM'
p4037
(dp4038
S'part9_correct_attempt'
p4039
(lp4040
S'0:00:00'
p4041
aV2 
p4042
asg5
g817
sS'part9_incorrect_attempt'
p4043
(lp4044
(S'0:00:00'
p4045
V2 
p4046
tp4047
asssS'8'
p4048
(dp4049
g2647
(dp4050
S'part8_incorrect_attempt'
p4051
(lp4052
(S'-1 day, 23:24:57'
p4053
V.8
p4054
tp4055
asg5
g895
sS'part8_correct_attempt'
p4056
(lp4057
S'0:00:00'
p4058
aV.5
p4059
assS'PaulWall43'
p4060
(dp4061
S'part8_incorrect_attempt'
p4062
(lp4063
(S'-1 day, 9:21:29'
p4064
V1.2
p4065
tp4066
a(S'-1 day, 23:31:25'
p4067
V1.2
p4068
tp4069
a(S'-1 day, 23:49:05'
p4070
V1.2
p4071
tp4072
asg5
g42
sS'part8_correct_attempt'
p4073
(lp4074
S'0:00:00'
p4075
aV1/2
p4076
assg2840
(dp4077
S'part8_incorrect_attempt'
p4078
(lp4079
(S'-1 day, 23:44:04'
p4080
V.4+0+.4
p4081
tp4082
asg5
g458
sS'part8_correct_attempt'
p4083
(lp4084
S'0:00:00'
p4085
aV.1 + 0 + .4
p4086
assg3870
(dp4087
S'part8_incorrect_attempt'
p4088
(lp4089
(S'-1 day, 23:57:24'
p4090
V0.8
p4091
tp4092
asg5
g3877
sS'part8_correct_attempt'
p4093
(lp4094
S'0:00:00'
p4095
aV0.5
p4096
assg2635
(dp4097
S'part8_incorrect_attempt'
p4098
(lp4099
(S'-1 day, 22:56:57'
p4100
V0.4+0+0.4
p4101
tp4102
asg5
g1302
sS'part8_correct_attempt'
p4103
(lp4104
S'0:00:00'
p4105
aV0.5
p4106
assg3051
(dp4107
S'part8_incorrect_attempt'
p4108
(lp4109
(S'-1 day, 23:51:22'
p4110
V0.8
p4111
tp4112
asg5
g3065
sS'part8_correct_attempt'
p4113
(lp4114
S'0:00:00'
p4115
aV0.5
p4116
assg3902
(dp4117
S'part8_incorrect_attempt'
p4118
(lp4119
(S'-1 day, 23:43:45'
p4120
V.8
p4121
tp4122
asg5
g749
sS'part8_correct_attempt'
p4123
(lp4124
S'0:00:00'
p4125
aV.5
p4126
assg2659
(dp4127
S'part8_incorrect_attempt'
p4128
(lp4129
(S'-1 day, 23:55:21'
p4130
V0.8
p4131
tp4132
asg5
g1903
sS'part8_correct_attempt'
p4133
(lp4134
S'0:00:00'
p4135
aV0.5
p4136
assg139
(dp4137
S'part8_incorrect_attempt'
p4138
(lp4139
(S'-1 day, 23:55:32'
p4140
V0.8
p4141
tp4142
asg5
g141
sS'part8_correct_attempt'
p4143
(lp4144
S'0:00:00'
p4145
aV0.5
p4146
assg3375
(dp4147
S'part8_incorrect_attempt'
p4148
(lp4149
(S'-1 day, 23:54:14'
p4150
V.8
p4151
tp4152
asg5
g1795
sS'part8_correct_attempt'
p4153
(lp4154
S'0:00:00'
p4155
aV.5
p4156
asss.