(dp0
S'6'
p1
ccollections
defaultdict
p2
(c__builtin__
list
p3
tp4
Rp5
S'Digits'
p6
(lp7
(S'0'
p8
V0
p9
tp10
a(g8
V0
p11
tp12
a(g8
V0
p13
tp14
a(g8
V0
p15
tp16
a(g8
V0
p17
tp18
a(g8
V0
p19
tp20
a(g8
V0
p21
tp22
a(g8
V0
p23
tp24
a(g8
V0
p25
tp26
a(g8
V0
p27
tp28
a(g8
V0
p29
tp30
a(g8
V0
p31
tp32
a(g8
V0
p33
tp34
a(g8
V0
p35
tp36
a(g8
V0
p37
tp38
a(g8
V0
p39
tp40
a(g8
V0
p41
tp42
a(g8
V0
p43
tp44
a(g8
V0
p45
tp46
a(g8
V0
p47
tp48
a(g8
V0
p49
tp50
a(g8
V0
p51
tp52
a(g8
V0
p53
tp54
a(g8
V0
p55
tp56
a(g8
V0
p57
tp58
a(g8
V0
p59
tp60
a(g8
V0
p61
tp62
a(g8
V0
p63
tp64
a(g8
V0
p65
tp66
a(g8
V0
p67
tp68
a(g8
V0
p69
tp70
a(g8
V0
p71
tp72
a(g8
V0
p73
tp74
a(g8
V0
p75
tp76
a(g8
V0
p77
tp78
a(g8
V0
p79
tp80
a(g8
V0
p81
tp82
a(g8
V0
p83
tp84
a(g8
V0
p85
tp86
a(g8
V0
p87
tp88
a(g8
V0
p89
tp90
a(g8
V0
p91
tp92
a(g8
V0
p93
tp94
a(g8
V0
p95
tp96
a(g8
V0
p97
tp98
a(g8
V0
p99
tp100
a(g8
V0
p101
tp102
a(g8
V0
p103
tp104
a(g8
V0
p105
tp106
a(g8
V0
p107
tp108
a(g8
V0
p109
tp110
a(g8
V0
p111
tp112
a(g8
V0
p113
tp114
a(g8
V0
p115
tp116
a(g8
V0
p117
tp118
a(g8
V0
p119
tp120
a(g8
V0
p121
tp122
a(g8
V0
p123
tp124
a(g8
V0
p125
tp126
a(g8
V0
p127
tp128
a(g8
V0
p129
tp130
a(g8
V0
p131
tp132
a(g8
V0
p133
tp134
a(g8
V0
p135
tp136
a(g8
V0
p137
tp138
a(g8
V0
p139
tp140
a(g8
V0
p141
tp142
a(g8
V0
p143
tp144
a(g8
V0
p145
tp146
a(g8
V0
p147
tp148
a(g8
V0
p149
tp150
a(g8
V0
p151
tp152
a(g8
V0
p153
tp154
a(g8
V0
p155
tp156
a(g8
V0
p157
tp158
a(g8
V0
p159
tp160
a(g8
V0
p161
tp162
a(g8
V0
p163
tp164
a(g8
V0
p165
tp166
a(g8
V0
p167
tp168
a(g8
V0
p169
tp170
a(g8
V0
p171
tp172
a(g8
V0
p173
tp174
a(g8
V0
p175
tp176
a(g8
V0
p177
tp178
a(g8
V0
p179
tp180
a(g8
V0
p181
tp182
a(g8
V0
p183
tp184
a(g8
V0
p185
tp186
a(g8
V0
p187
tp188
a(g8
V0
p189
tp190
a(g8
V0
p191
tp192
a(g8
V0
p193
tp194
a(g8
V0
p195
tp196
a(g8
V0
p197
tp198
a(g8
V0
p199
tp200
a(g8
V0
p201
tp202
a(g8
V0
p203
tp204
a(g8
V0
p205
tp206
a(g8
V0
p207
tp208
a(g8
V0
p209
tp210
a(g8
V0
p211
tp212
a(g8
V0
p213
tp214
a(g8
V0
p215
tp216
a(g8
V0
p217
tp218
a(g8
V0
p219
tp220
a(g8
V0
p221
tp222
a(g8
V0
p223
tp224
a(g8
V0
p225
tp226
a(g8
V0
p227
tp228
a(g8
V0
p229
tp230
a(g8
V0
p231
tp232
a(g8
V0
p233
tp234
a(g8
V1
p235
tp236
a(g8
V0
p237
tp238
a(g8
V0
p239
tp240
a(g8
V0
p241
tp242
a(g8
V0
p243
tp244
a(g8
V0
p245
tp246
a(g8
V0
p247
tp248
a(g8
V0
p249
tp250
a(g8
V0
p251
tp252
a(g8
V0
p253
tp254
a(g8
V0
p255
tp256
a(g8
V0
p257
tp258
a(g8
V0
p259
tp260
a(g8
V0
p261
tp262
a(g8
V0
p263
tp264
a(g8
V0
p265
tp266
a(g8
V0
p267
tp268
a(g8
V0
p269
tp270
a(g8
V0
p271
tp272
a(g8
V0
p273
tp274
a(g8
V0
p275
tp276
a(g8
V0
p277
tp278
a(g8
V0
p279
tp280
a(g8
V0
p281
tp282
a(g8
V0
p283
tp284
a(g8
V0
p285
tp286
a(g8
V0
p287
tp288
a(g8
V0
p289
tp290
a(g8
V0
p291
tp292
a(g8
V0
p293
tp294
a(g8
V0
p295
tp296
a(g8
V0
p297
tp298
a(g8
V0
p299
tp300
a(g8
V0
p301
tp302
a(g8
V0
p303
tp304
a(g8
V0
p305
tp306
a(g8
V0
p307
tp308
a(g8
V0
p309
tp310
a(g8
V0
p311
tp312
a(g8
V0
p313
tp314
a(g8
V0
p315
tp316
a(g8
V0
p317
tp318
a(g8
V0
p319
tp320
a(g8
V0
p321
tp322
a(g8
V0
p323
tp324
a(g8
V0
p325
tp326
a(g8
V0
p327
tp328
a(g8
V0
p329
tp330
a(g8
V0
p331
tp332
a(g8
V0
p333
tp334
a(g8
V0
p335
tp336
a(g8
V0
p337
tp338
a(g8
V0
p339
tp340
a(g8
V0
p341
tp342
a(g8
V0
p343
tp344
a(g8
V0
p345
tp346
a(g8
V0
p347
tp348
a(g8
V0
p349
tp350
a(g8
V0
p351
tp352
a(g8
V0
p353
tp354
a(g8
V0
p355
tp356
a(g8
V0
p357
tp358
a(g8
V0
p359
tp360
a(g8
V0
p361
tp362
a(g8
V0
p363
tp364
a(g8
V0
p365
tp366
a(g8
V0
p367
tp368
a(g8
V0
p369
tp370
a(g8
V0
p371
tp372
a(g8
V0
p373
tp374
a(g8
V0
p375
tp376
a(g8
V0
p377
tp378
a(g8
V0
p379
tp380
a(g8
V0
p381
tp382
a(g8
V0
p383
tp384
a(g8
V0
p385
tp386
a(g8
V0
p387
tp388
a(g8
V0
p389
tp390
a(g8
V0
p391
tp392
a(g8
V0
p393
tp394
a(g8
V0
p395
tp396
a(g8
V0
p397
tp398
a(g8
V0
p399
tp400
a(g8
V0
p401
tp402
a(g8
V0
p403
tp404
a(g8
V0
p405
tp406
a(g8
V0
p407
tp408
a(g8
V0
p409
tp410
a(g8
V0
p411
tp412
a(g8
V0
p413
tp414
a(g8
V0
p415
tp416
a(g8
V0
p417
tp418
a(g8
V0
p419
tp420
a(g8
V0
p421
tp422
a(g8
V0
p423
tp424
a(g8
V0
p425
tp426
a(g8
V0
p427
tp428
a(g8
V0
p429
tp430
a(g8
V0
p431
tp432
a(g8
V0
p433
tp434
a(g8
V0
p435
tp436
a(g8
V0
p437
tp438
a(g8
V0
p439
tp440
a(g8
V0
p441
tp442
a(g8
V0
p443
tp444
a(g8
V0
p445
tp446
a(g8
V0
p447
tp448
a(g8
V0
p449
tp450
a(g8
V0
p451
tp452
a(g8
V0
p453
tp454
a(g8
V0
p455
tp456
a(g8
V0
p457
tp458
a(g8
V0
p459
tp460
a(g8
V0
p461
tp462
a(g8
V0
p463
tp464
a(g8
V0
p465
tp466
a(g8
V0
p467
tp468
a(g8
V0
p469
tp470
a(g8
V0
p471
tp472
a(g8
V0
p473
tp474
a(g8
V0
p475
tp476
a(g8
V0
p477
tp478
a(g8
V0
p479
tp480
a(g8
V0
p481
tp482
a(g8
V0
p483
tp484
a(g8
V0
p485
tp486
a(g8
V0
p487
tp488
a(g8
V0
p489
tp490
a(g8
V0
p491
tp492
a(g8
V0
p493
tp494
a(g8
V0
p495
tp496
a(g8
V0
p497
tp498
a(g8
V0
p499
tp500
a(g8
V0
p501
tp502
a(g8
V0
p503
tp504
a(g8
V0
p505
tp506
a(g8
V0
p507
tp508
a(g8
V0
p509
tp510
a(g8
V0
p511
tp512
a(g8
V0
p513
tp514
a(g8
V0
p515
tp516
a(g8
V0
p517
tp518
a(g8
V0
p519
tp520
a(g8
V0
p521
tp522
a(g8
V0
p523
tp524
a(g8
V0
p525
tp526
a(g8
V0
p527
tp528
a(g8
V0
p529
tp530
a(g8
V0
p531
tp532
a(g8
V0
p533
tp534
a(g8
V0
p535
tp536
a(g8
V0
p537
tp538
a(g8
V0
p539
tp540
a(g8
V0
p541
tp542
a(g8
V0
p543
tp544
a(g8
V0
p545
tp546
a(g8
V0
p547
tp548
a(g8
V0
p549
tp550
a(g8
V0
p551
tp552
a(g8
V0
p553
tp554
a(g8
V0
p555
tp556
a(g8
V0
p557
tp558
a(g8
V0
p559
tp560
a(g8
V0
p561
tp562
a(g8
V0
p563
tp564
a(g8
V0
p565
tp566
a(g8
V0
p567
tp568
a(g8
V0
p569
tp570
a(g8
V0
p571
tp572
a(g8
V0
p573
tp574
a(g8
V0
p575
tp576
a(g8
V0
p577
tp578
a(g8
V0
p579
tp580
a(g8
V0
p581
tp582
a(g8
V0
p583
tp584
a(g8
V0
p585
tp586
a(g8
V0
p587
tp588
a(g8
V9
p589
tp590
a(g8
V0
p591
tp592
a(g8
V0
p593
tp594
a(g8
V0
p595
tp596
a(g8
V0
p597
tp598
a(g8
V0
p599
tp600
a(g8
V0
p601
tp602
a(g8
V0
p603
tp604
a(g8
V0
p605
tp606
a(g8
V0
p607
tp608
a(g8
V0
p609
tp610
a(g8
V0
p611
tp612
a(g8
V0
p613
tp614
a(g8
V0
p615
tp616
a(g8
V0
p617
tp618
a(g8
V0
p619
tp620
a(g8
V0
p621
tp622
a(g8
V0
p623
tp624
a(g8
V0
p625
tp626
a(g8
V0
p627
tp628
a(g8
V0
p629
tp630
a(g8
V0
p631
tp632
a(g8
V0
p633
tp634
a(g8
V0
p635
tp636
a(g8
V0
p637
tp638
a(g8
V0
p639
tp640
a(g8
V0
p641
tp642
a(g8
V0
p643
tp644
a(g8
V0
p645
tp646
a(g8
V0
p647
tp648
a(g8
V0
p649
tp650
a(g8
V0
p651
tp652
a(g8
V0
p653
tp654
a(g8
V0
p655
tp656
a(g8
V0
p657
tp658
a(g8
V0
p659
tp660
a(g8
V0
p661
tp662
a(g8
V0
p663
tp664
a(g8
V0
p665
tp666
a(g8
V0
p667
tp668
a(g8
V0
p669
tp670
a(g8
V0
p671
tp672
a(g8
V0
p673
tp674
a(g8
V0
p675
tp676
a(g8
V0
p677
tp678
a(g8
V0
p679
tp680
a(g8
V0
p681
tp682
a(g8
V0
p683
tp684
a(g8
V0
p685
tp686
a(g8
V0
p687
tp688
a(g8
V0
p689
tp690
a(g8
V0
p691
tp692
a(g8
V0
p693
tp694
a(g8
V0
p695
tp696
a(g8
V1
p697
tp698
a(g8
V0
p699
tp700
a(g8
V0
p701
tp702
a(g8
V0
p703
tp704
a(g8
V0
p705
tp706
a(g8
V0
p707
tp708
a(g8
V0
p709
tp710
a(g8
V0
p711
tp712
a(g8
V0
p713
tp714
a(g8
V0
p715
tp716
a(g8
V0
p717
tp718
a(g8
V0
p719
tp720
a(g8
V0
p721
tp722
a(g8
V0
p723
tp724
a(g8
V0
p725
tp726
a(g8
V0
p727
tp728
a(g8
V0
p729
tp730
a(g8
V0
p731
tp732
a(g8
V0
p733
tp734
a(g8
V0
p735
tp736
a(g8
V0
p737
tp738
a(g8
V0
p739
tp740
a(g8
V0
p741
tp742
a(g8
V0
p743
tp744
a(g8
V0
p745
tp746
a(g8
V0
p747
tp748
a(g8
V0
p749
tp750
a(g8
V0
p751
tp752
a(g8
V0
p753
tp754
a(g8
V0
p755
tp756
a(g8
V0
p757
tp758
a(g8
V0
p759
tp760
a(g8
V0
p761
tp762
a(g8
V0
p763
tp764
a(g8
V0
p765
tp766
a(g8
V0
p767
tp768
a(g8
V0
p769
tp770
a(g8
V0
p771
tp772
a(g8
V0
p773
tp774
a(g8
V0
p775
tp776
a(g8
V0
p777
tp778
a(g8
V0
p779
tp780
a(g8
V0
p781
tp782
a(g8
V0
p783
tp784
a(g8
V0
p785
tp786
a(g8
V0
p787
tp788
a(g8
V0
p789
tp790
a(g8
V0
p791
tp792
a(g8
V0
p793
tp794
a(g8
V0
p795
tp796
a(g8
V0
p797
tp798
a(g8
V0
p799
tp800
a(g8
V0
p801
tp802
a(g8
V0
p803
tp804
a(g8
V0
p805
tp806
a(g8
V0
p807
tp808
a(g8
V0
p809
tp810
a(g8
V0
p811
tp812
a(g8
V0
p813
tp814
a(g8
V0
p815
tp816
a(g8
V0
p817
tp818
a(g8
V0
p819
tp820
a(g8
V0
p821
tp822
a(g8
V0
p823
tp824
a(g8
V0
p825
tp826
a(g8
V0
p827
tp828
a(g8
V0
p829
tp830
a(g8
V0
p831
tp832
a(g8
V0
p833
tp834
a(g8
V0
p835
tp836
a(g8
V0
p837
tp838
a(g8
V0
p839
tp840
a(g8
V1
p841
tp842
a(g8
V0
p843
tp844
a(g8
V0
p845
tp846
a(g8
V1
p847
tp848
a(g8
V0
p849
tp850
a(g8
V0
p851
tp852
a(g8
V0
p853
tp854
a(g8
V0
p855
tp856
a(g8
V0
p857
tp858
a(g8
V0
p859
tp860
a(g8
V0
p861
tp862
a(g8
V0
p863
tp864
a(g8
V0
p865
tp866
a(g8
V0
p867
tp868
a(g8
V0
p869
tp870
a(g8
V0
p871
tp872
a(g8
V0
p873
tp874
a(g8
V0
p875
tp876
a(g8
V0
p877
tp878
a(g8
V0
p879
tp880
a(g8
V0
p881
tp882
a(g8
V0
p883
tp884
a(g8
V0
p885
tp886
a(g8
V0
p887
tp888
a(g8
V0
p889
tp890
a(g8
V0
p891
tp892
a(g8
V0
p893
tp894
a(g8
V0
p895
tp896
a(g8
V0
p897
tp898
a(g8
V0
p899
tp900
a(g8
V0
p901
tp902
a(g8
V0
p903
tp904
a(g8
V0
p905
tp906
a(g8
V0
p907
tp908
a(g8
V0
p909
tp910
a(g8
V0
p911
tp912
a(g8
V0
p913
tp914
a(g8
V0
p915
tp916
a(g8
V0
p917
tp918
a(g8
V0
p919
tp920
a(g8
V0
p921
tp922
a(g8
V0
p923
tp924
a(g8
V0
p925
tp926
a(g8
V0
p927
tp928
a(g8
V0
p929
tp930
a(g8
V0
p931
tp932
a(g8
V0
p933
tp934
a(g8
V0
p935
tp936
a(g8
V0
p937
tp938
a(g8
V0
p939
tp940
a(g8
V0
p941
tp942
a(g8
V0
p943
tp944
a(g8
V0
p945
tp946
a(g8
V0
p947
tp948
a(g8
V0
p949
tp950
a(g8
V0
p951
tp952
a(g8
V0
p953
tp954
a(g8
V0
p955
tp956
a(g8
V0
p957
tp958
a(g8
V0
p959
tp960
a(g8
V0
p961
tp962
a(g8
V0
p963
tp964
a(g8
V0
p965
tp966
a(g8
V0
p967
tp968
a(g8
V0
p969
tp970
a(g8
V0
p971
tp972
a(g8
V0
p973
tp974
a(g8
V0
p975
tp976
a(g8
V0
p977
tp978
a(g8
V0
p979
tp980
a(g8
V1
p981
tp982
a(g8
V0
p983
tp984
a(g8
V0
p985
tp986
a(g8
V0
p987
tp988
a(g8
V0
p989
tp990
a(g8
V0
p991
tp992
a(g8
V0
p993
tp994
a(g8
V0
p995
tp996
a(g8
V0
p997
tp998
a(g8
V0
p999
tp1000
a(g8
V0
p1001
tp1002
a(g8
V0
p1003
tp1004
a(g8
V0
p1005
tp1006
a(g8
V0
p1007
tp1008
a(g8
V0
p1009
tp1010
a(g8
V0
p1011
tp1012
a(g8
V0
p1013
tp1014
a(g8
V0
p1015
tp1016
a(g8
V0
p1017
tp1018
a(g8
V0
p1019
tp1020
a(g8
V0
p1021
tp1022
a(g8
V0
p1023
tp1024
a(g8
V0
p1025
tp1026
a(g8
V0
p1027
tp1028
a(g8
V0
p1029
tp1030
a(g8
V0
p1031
tp1032
a(g8
V0
p1033
tp1034
a(g8
V0
p1035
tp1036
a(g8
V0
p1037
tp1038
a(g8
V0
p1039
tp1040
a(g8
V0
p1041
tp1042
a(g8
V0
p1043
tp1044
a(g8
V0
p1045
tp1046
a(g8
V0
p1047
tp1048
a(g8
V0
p1049
tp1050
a(g8
V0
p1051
tp1052
a(g8
V0
p1053
tp1054
a(g8
V0
p1055
tp1056
a(g8
V0
p1057
tp1058
a(g8
V0
p1059
tp1060
a(g8
V0
p1061
tp1062
a(g8
V0
p1063
tp1064
a(g8
V0
p1065
tp1066
a(g8
V0
p1067
tp1068
a(g8
V0
p1069
tp1070
a(g8
V0
p1071
tp1072
a(g8
V0
p1073
tp1074
a(g8
V0
p1075
tp1076
a(g8
V0
p1077
tp1078
a(g8
V0
p1079
tp1080
a(g8
V0
p1081
tp1082
a(g8
V0
p1083
tp1084
a(g8
V0
p1085
tp1086
a(g8
V0
p1087
tp1088
a(g8
V0
p1089
tp1090
a(g8
V0
p1091
tp1092
a(g8
V0
p1093
tp1094
a(g8
V0
p1095
tp1096
a(g8
V0
p1097
tp1098
a(g8
V0
p1099
tp1100
a(g8
V0
p1101
tp1102
a(g8
V0
p1103
tp1104
a(g8
V0
p1105
tp1106
a(g8
V0
p1107
tp1108
a(g8
V0
p1109
tp1110
a(g8
V0
p1111
tp1112
a(g8
V0
p1113
tp1114
a(g8
V0
p1115
tp1116
a(g8
V0
p1117
tp1118
a(g8
V0
p1119
tp1120
a(g8
V0
p1121
tp1122
a(g8
V0
p1123
tp1124
a(g8
V0
p1125
tp1126
a(g8
V0
p1127
tp1128
a(g8
V0
p1129
tp1130
a(g8
V0
p1131
tp1132
a(g8
V0
p1133
tp1134
a(g8
V0
p1135
tp1136
a(g8
V0
p1137
tp1138
a(g8
V0
p1139
tp1140
a(g8
V0
p1141
tp1142
a(g8
V0
p1143
tp1144
a(g8
V0
p1145
tp1146
a(g8
V0
p1147
tp1148
a(g8
V0
p1149
tp1150
a(g8
V0
p1151
tp1152
a(g8
V0
p1153
tp1154
a(g8
V0
p1155
tp1156
a(g8
V0
p1157
tp1158
a(g8
V0
p1159
tp1160
a(g8
V0
p1161
tp1162
a(g8
V0
p1163
tp1164
a(g8
V0
p1165
tp1166
a(g8
V0
p1167
tp1168
a(g8
V0
p1169
tp1170
a(g8
V0
p1171
tp1172
a(g8
V0
p1173
tp1174
a(g8
V0
p1175
tp1176
a(g8
V0
p1177
tp1178
a(g8
V0
p1179
tp1180
a(g8
V0
p1181
tp1182
a(g8
V0
p1183
tp1184
a(g8
V0
p1185
tp1186
a(g8
V0
p1187
tp1188
a(g8
V0
p1189
tp1190
a(g8
V5
p1191
tp1192
a(g8
V0
p1193
tp1194
a(g8
V0
p1195
tp1196
a(g8
V0
p1197
tp1198
a(g8
V0
p1199
tp1200
a(g8
V0
p1201
tp1202
a(g8
V0
p1203
tp1204
a(g8
V0
p1205
tp1206
a(g8
V0
p1207
tp1208
a(g8
V0
p1209
tp1210
a(g8
V0
p1211
tp1212
a(g8
V0
p1213
tp1214
a(g8
V0
p1215
tp1216
a(g8
V0
p1217
tp1218
a(g8
V0
p1219
tp1220
a(g8
V0
p1221
tp1222
a(g8
V0
p1223
tp1224
a(g8
V0
p1225
tp1226
a(g8
V0
p1227
tp1228
a(g8
V0
p1229
tp1230
a(g8
V0
p1231
tp1232
a(g8
V0
p1233
tp1234
a(g8
V0
p1235
tp1236
a(g8
V0
p1237
tp1238
a(g8
V0
p1239
tp1240
a(g8
V0
p1241
tp1242
a(g8
V0
p1243
tp1244
a(g8
V0
p1245
tp1246
a(g8
V0
p1247
tp1248
a(g8
V0
p1249
tp1250
a(g8
V0
p1251
tp1252
a(g8
V0
p1253
tp1254
a(g8
V0
p1255
tp1256
a(g8
V0
p1257
tp1258
a(g8
V0
p1259
tp1260
a(g8
V0
p1261
tp1262
a(g8
V0
p1263
tp1264
a(g8
V0
p1265
tp1266
a(g8
V0
p1267
tp1268
a(g8
V0
p1269
tp1270
a(g8
V0
p1271
tp1272
a(g8
V0
p1273
tp1274
a(g8
V0
p1275
tp1276
a(g8
V0
p1277
tp1278
a(g8
V0
p1279
tp1280
a(g8
V0
p1281
tp1282
a(g8
V0
p1283
tp1284
a(g8
V0
p1285
tp1286
a(g8
V0
p1287
tp1288
a(g8
V0
p1289
tp1290
a(g8
V0
p1291
tp1292
a(g8
V0
p1293
tp1294
a(g8
V0
p1295
tp1296
a(g8
V0
p1297
tp1298
a(g8
V0
p1299
tp1300
a(g8
V0
p1301
tp1302
a(g8
V0
p1303
tp1304
a(g8
V0
p1305
tp1306
a(g8
V0
p1307
tp1308
a(g8
V0
p1309
tp1310
a(g8
V0
p1311
tp1312
a(g8
V0
p1313
tp1314
a(g8
V0
p1315
tp1316
a(g8
V0
p1317
tp1318
a(g8
V0
p1319
tp1320
a(g8
V0
p1321
tp1322
a(g8
V0
p1323
tp1324
a(g8
V0
p1325
tp1326
a(g8
V0
p1327
tp1328
a(g8
V0
p1329
tp1330
a(g8
V0
p1331
tp1332
a(g8
V0
p1333
tp1334
a(g8
V0
p1335
tp1336
a(g8
V0
p1337
tp1338
a(g8
V0
p1339
tp1340
a(g8
V0
p1341
tp1342
a(g8
V0
p1343
tp1344
a(g8
V0
p1345
tp1346
a(g8
V0
p1347
tp1348
ass.