(dp0
S'1'
p1
(dp2
S'wtchiu'
p3
(dp4
S'part1_correct_attempt'
p5
(lp6
S'0:10:30'
p7
aV(1/2)/(0.5*0.5)
p8
asS'first_attempt'
p9
V2016-11-11 08:22:59
p10
sS'part1_incorrect_attempt'
p11
(lp12
(S'0:00:00'
p13
V(1/2)/(1/2)
p14
tp15
assS'Ryan_Yi'
p16
(dp17
S'part1_correct_attempt'
p18
(lp19
S'0:15:42'
p20
aV(1/2)/(1-(1/2))^2
p21
asg9
V2016-11-10 21:03:55
p22
sS'part1_incorrect_attempt'
p23
(lp24
(S'0:00:00'
p25
V(1/2)/(1-(1/2))
p26
tp27
assS'ctetreau'
p28
(dp29
S'part1_correct_attempt'
p30
(lp31
S'0:27:16'
p32
aV2
p33
asg9
V2016-11-10 17:27:01
p34
sS'part1_incorrect_attempt'
p35
(lp36
(S'0:00:00'
p37
V(1/(1/6))
p38
tp39
assS'Benaisha'
p40
(dp41
S'part1_correct_attempt'
p42
(lp43
S'0:01:05'
p44
aV(1/2)/(1-(1/2))^2
p45
asg9
V2016-11-09 02:28:33
p46
sS'part1_incorrect_attempt'
p47
(lp48
(S'0:00:00'
p49
V(1/2)/1-(1/2)
p50
tp51
assS'cshmerli'
p52
(dp53
S'part1_correct_attempt'
p54
(lp55
S'0:01:05'
p56
aV(1/2)/(1-(1/2))^2
p57
asg9
V2016-11-12 23:09:31
p58
sS'part1_incorrect_attempt'
p59
(lp60
(S'0:00:00'
p61
V(1/2)/(1-(1/2))
p62
tp63
asss.