(dp0
S'1'
p1
ccollections
defaultdict
p2
(c__builtin__
list
p3
tp4
Rp5
S'Digits'
p6
(lp7
(S'C(32,5) - C(20,5)'
p8
V0
p9
tp10
a(g8
V156979
p11
tp12
a(g8
V93912
p13
tp14
a(g8
V0
p15
tp16
a(g8
V1
p17
tp18
a(g8
V1
p19
tp20
a(g8
V2
p21
tp22
a(g8
V1
p23
tp24
a(g8
V1
p25
tp26
a(g8
V1
p27
tp28
a(g8
V1
p29
tp30
asS"['R.1']"
p31
(lp32
(g8
VC(52,5)-C(20,5)
p33
(lp34
(S'R.1'
p35
I15504
S'C(20,5)'
p36
VC(20,5)
p37
tp38
aS'PriyankaK'
p39
(lp40
V2016-10-17 02:32:01
p41
tp42
a(g8
VC(52,5)-C(20,5)
p43
(lp44
(S'R.1'
p45
I15504
S'C(20,5)'
p46
VC(20,5)
p47
tp48
aS'alebedev'
p49
(lp50
V2016-10-18 00:13:54
p51
tp52
a(g8
VC(52,5)-C(52-32,5)
p53
(lp54
(S'R.1'
p55
I15504
S'C(20,5)'
p56
VC(52-32,5)
p57
tp58
aS'yuhan'
p59
(lp60
V2016-10-18 04:11:50
p61
tp62
a(g8
V(C(52,5)-C(40,5))-C(20,5)
p63
(lp64
(S'R.1'
p65
I15504
S'C(20,5)'
p66
VC(20,5)
p67
tp68
aS'Ian'
p69
(lp70
V2016-10-19 19:05:20
p71
tp72
a(g8
VC(52,5) - C(40, 5) - C(20,5)
p73
(lp74
(S'R.1'
p75
I15504
S'C(20,5)'
p76
VC(20,5)
p77
tp78
aS'kmesic'
p79
(lp80
V2016-10-17 22:58:08
p81
tp82
a(g8
VC(52,5) - C(52-(3*4),5) - C(5*4,5)
p83
(lp84
(S'R.1'
p85
I15504
S'C(20,5)'
p86
VC(5*4,5)
p87
tp88
aS'bfalk'
p89
(lp90
V2016-10-17 23:30:19
p91
tp92
a(g8
VC(52,5) - C(5*4,5)
p93
(lp94
(S'R.1'
p95
I15504
S'C(20,5)'
p96
VC(5*4,5)
p97
tp98
aS'bfalk'
p99
(lp100
V2016-10-17 23:31:44
p101
tp102
asS"['R.1.1']"
p103
(lp104
(g8
VC(16,4)*C(12,1)+C(16,3)*C(12,2)+C(16,2)*C(12,3)+C(16,1)*C(12,4)+C(12,5)
p105
(lp106
(S'R.1.1'
p107
F5.0
S'5'
p108
V5
p109
tp110
aS'alvinyho'
p111
(lp112
V2016-10-19 05:21:09
p113
tp114
a(g8
V(C(52,5)-C(36,5)+C(32,5))
p115
(lp116
(S'R.1.1'
p117
F5.0
g108
g109
tp118
aS'KevinKlein'
p119
(lp120
V2016-10-18 03:36:53
p121
tp122
a(g8
VC(52,5)-C(40,5)+C(28,5)
p123
(lp124
(S'R.1.1'
p125
F5.0
g108
g109
tp126
aS'KevinKlein'
p127
(lp128
V2016-10-18 03:39:30
p129
tp130
a(g8
VC(52,5)-C(40,5)+C(16,5)
p131
(lp132
(S'R.1.1'
p133
F5.0
g108
g109
tp134
aS'KevinKlein'
p135
(lp136
V2016-10-18 03:43:36
p137
tp138
a(g8
VC(47,5) + C(52,5)-C(40,5)
p139
(lp140
(S'R.1.1'
p141
F5.0
g108
g109
tp142
aS'dillonliu'
p143
(lp144
V2016-10-18 04:22:52
p145
tp146
a(g8
VC(52,5)-C(20,5)-C(40,5)
p147
(lp148
(S'R.1.1'
p149
F5.0
g108
g109
tp150
aS'ottojursch'
p151
(lp152
V2016-10-19 08:01:28
p153
tp154
a(g8
V(C(52,5)-C(40,5))-C(32,5)
p155
(lp156
(S'R.1.1'
p157
F5.0
g108
g109
tp158
aS'Ian'
p159
(lp160
V2016-10-19 19:01:12
p161
tp162
a(g8
V(C(12, 1) * C(28, 4)) + (C(12,2) * C(28,3)) + (C(12,3) * C(12,2)) + (C(12,4)* C(12,1)) + (C(12,5))
p163
(lp164
(S'R.1.1'
p165
F5.0
g108
g109
tp166
aS'kmesic'
p167
(lp168
V2016-10-17 22:53:50
p169
tp170
asS"['R.0']"
p171
(lp172
(g8
VC(32,5)-C(16,5)
p173
(lp174
(S'R.0'
p175
I201376
S'C(32,5)'
p176
VC(32,5)
p177
tp178
aS'alvinyho'
p179
(lp180
V2016-10-19 05:27:51
p181
tp182
a(g8
VC(32, 5)-C(16, 5)
p183
(lp184
(S'R.0'
p185
I201376
S'C(32,5)'
p186
VC(32, 5)
p187
tp188
aS'YuqinWu'
p189
(lp190
V2016-10-16 21:41:10
p191
tp192
a(g8
VC(32,5)-C(18,5)
p193
(lp194
(S'R.0'
p195
I201376
S'C(32,5)'
p196
VC(32,5)
p197
tp198
aS'evahuynh'
p199
(lp200
V2016-10-18 16:04:27
p201
tp202
a(g8
VC(32,5)-C(16,5)
p203
(lp204
(S'R.0'
p205
I201376
S'C(32,5)'
p206
VC(32,5)
p207
tp208
aS'Ian'
p209
(lp210
V2016-10-19 19:09:43
p211
tp212
a(g8
VC(32,5)-C(16,5)
p213
(lp214
(S'R.0'
p215
I201376
S'C(32,5)'
p216
VC(32,5)
p217
tp218
aS'yphilip'
p219
(lp220
V2016-10-18 18:56:37
p221
tp222
a(g8
VC(32,5)-C(16,5)
p223
(lp224
(S'R.0'
p225
I201376
S'C(32,5)'
p226
VC(32,5)
p227
tp228
aS'yphilip'
p229
(lp230
V2016-10-18 18:58:58
p231
tp232
a(g8
VC(32,5)-C(16,5)
p233
(lp234
(S'R.0'
p235
I201376
S'C(32,5)'
p236
VC(32,5)
p237
tp238
aS'jih089'
p239
(lp240
V2016-10-16 05:46:20
p241
tp242
a(g8
VC(32,5)-C(16,5)
p243
(lp244
(S'R.0'
p245
I201376
S'C(32,5)'
p246
VC(32,5)
p247
tp248
aS'Guillermo'
p249
(lp250
V2016-10-16 20:23:49
p251
tp252
a(g8
VC(32, 5) - C(24,5)
p253
(lp254
(S'R.0'
p255
I201376
S'C(32,5)'
p256
VC(32, 5)
p257
tp258
aS'zhc047'
p259
(lp260
V2016-10-19 04:44:23
p261
tp262
a(g8
VC(32,5)-C(16,5)
p263
(lp264
(S'R.0'
p265
I201376
S'C(32,5)'
p266
VC(32,5)
p267
tp268
aS'JoshuaKomala'
p269
(lp270
V2016-10-19 00:39:25
p271
tp272
a(g8
V(C(32,5))-(C(16,5))
p273
(lp274
(S'R.0'
p275
I201376
S'C(32,5)'
p276
VC(32,5)
p277
tp278
aS'Sync'
p279
(lp280
V2016-10-18 23:00:09
p281
tp282
asS'Wrong_Sign'
p283
(lp284
(g8
VC(28,5) - (C(52,5)-C(40,5))
p285
tp286
a(g8
V4*C(52-6,7)*(1-(4*C(52-12,5)))
p287
tp288
a(g8
VC(32,5)-C(40,5)
p289
tp290
a(g8
VC(52-5*4,5)-C(52-3*4,5)
p291
tp292
a(g8
VC(52-20,5)-C(52-12,5)
p293
tp294
a(g8
VC(32,5)-C(40,5)
p295
tp296
a(g8
V(C(52,5)-C(52,40))(C(28,5))
p297
tp298
a(g8
V1 - C(52-(3*4),5) - C(5*4,5)
p299
tp300
asS'Fraction'
p301
(lp302
(g8
V(32!/(27!5!))-(20!/(5!15!))
p303
tp304
a(g8
V(32!/(27!5!))-(20!/(5!15!))
p305
tp306
a(g8
VC(47,5) + (1-(12^5)/(52*51*50*49*48))*C(52,5)
p307
tp308
a(g8
V(C(32,7)-C(20,7))/C(52,7)
p309
tp310
asS"['R.0', 'R.1.0']"
p311
(lp312
(g8
VC(32,5) - C(20,4)
p313
(lp314
(S'R.0'
p315
I201376
S'C(32,5)'
p316
VC(32,5)
p317
tp318
a(S'R.1.0'
p319
F20.0
S'20'
p320
V20
p321
tp322
aS'ThuanNguyen'
p323
(lp324
V2016-10-19 04:31:24
p325
tp326
asS"['R']"
p327
(lp328
(g8
V185872
p329
(lp330
(S'R'
p331
F185872.0
g8
g329
tp332
aS'yazin-yousif'
p333
(lp334
V2016-10-19 05:28:26
p335
tp336
a(g8
VC(32, 5) - C(20, 5)
p337
(lp338
(g331
F185872.0
g8
g337
tp339
aS'mvkrishn'
p340
(lp341
V2016-10-18 00:18:30
p342
tp343
a(g8
V(C(20,4) * C(12,1)) + (C(20,3) * C(12,2)) + (C(20,2) * C(12,3)) + (C(20,1) * C(12,4)) + (C(12,5))
p344
(lp345
(g331
F185872.0
g8
g344
tp346
aS'Jisu'
p347
(lp348
V2016-10-16 06:38:31
p349
tp350
a(g8
VC(32,5)-C(20,5)
p351
(lp352
(g331
F185872.0
g8
g351
tp353
aS'ray003'
p354
(lp355
V2016-10-16 09:15:19
p356
tp357
a(g8
VC(32,5)-C(20,5)
p358
(lp359
(g331
F185872.0
g8
g358
tp360
aS'ray003'
p361
(lp362
V2016-10-16 09:16:22
p363
tp364
a(g8
VC(32, 5) - C(20,5) 
p365
(lp366
(g331
F185872.0
g8
VC(32, 5) - C(20,5)
p367
tp368
aS'ReneSanchez'
p369
(lp370
V2016-10-17 22:30:54
p371
tp372
a(g8
VC(32, 5) - C(20,5) 
p373
(lp374
(g331
F185872.0
g8
VC(32, 5) - C(20,5)
p375
tp376
aS'ReneSanchez'
p377
(lp378
V2016-10-17 22:31:58
p379
tp380
a(g8
VC(32, 5) - C(20,5)
p381
(lp382
(g331
F185872.0
g8
g381
tp383
aS'ReneSanchez'
p384
(lp385
V2016-10-17 22:33:06
p386
tp387
a(g8
VC(32, 5) - C(20,5) 
p388
(lp389
(g331
F185872.0
g8
VC(32, 5) - C(20,5)
p390
tp391
aS'ReneSanchez'
p392
(lp393
V2016-10-17 22:33:43
p394
tp395
a(g8
VC(32,5)-C(20,5)
p396
(lp397
(g331
F185872.0
g8
g396
tp398
aS'jar045'
p399
(lp400
V2016-10-19 06:46:05
p401
tp402
a(g8
VC(32,5)-C(20,5)
p403
(lp404
(g331
F185872.0
g8
g403
tp405
aS'ThucPhan'
p406
(lp407
V2016-10-18 23:41:50
p408
tp409
a(g8
VC(32,5)-C(20,5)
p410
(lp411
(g331
F185872.0
g8
g410
tp412
aS'alvinyho'
p413
(lp414
V2016-10-19 05:34:50
p415
tp416
a(g8
VC(32,5)-C(20,5)
p417
(lp418
(g331
F185872.0
g8
g417
tp419
aS'alvinyho'
p420
(lp421
V2016-10-19 05:35:46
p422
tp423
a(g8
V185872
p424
(lp425
(g331
F185872.0
g8
g424
tp426
aS'lmfink'
p427
(lp428
V2016-10-17 19:50:51
p429
tp430
a(g8
VC(32,5) - C(20,5)
p431
(lp432
(g331
F185872.0
g8
g431
tp433
aS'chenboy3'
p434
(lp435
V2016-10-16 16:39:44
p436
tp437
a(g8
VC(32,5)-C(20,5)
p438
(lp439
(g331
F185872.0
g8
g438
tp440
aS'sunilraiyani'
p441
(lp442
V2016-10-16 21:22:46
p443
tp444
a(g8
VC(32, 5) - C(20 , 5)
p445
(lp446
(g331
F185872.0
g8
g445
tp447
aS'cpence'
p448
(lp449
V2016-10-19 06:11:47
p450
tp451
a(g8
VC(32,5)-C(20,5)
p452
(lp453
(g331
F185872.0
g8
g452
tp454
aS'PriyankaK'
p455
(lp456
V2016-10-17 02:35:42
p457
tp458
a(g8
VC(32,5)-C(20,5)
p459
(lp460
(g331
F185872.0
g8
g459
tp461
aS'Riyang'
p462
(lp463
V2016-10-18 21:17:04
p464
tp465
a(g8
VC(32,5)-C(20,5)
p466
(lp467
(g331
F185872.0
g8
g466
tp468
aS'Riyang'
p469
(lp470
V2016-10-18 21:18:52
p471
tp472
a(g8
VC(32,5)-C(20,5)
p473
(lp474
(g331
F185872.0
g8
g473
tp475
aS'woguan'
p476
(lp477
V2016-10-19 05:53:29
p478
tp479
a(g8
VC(32, 5)-C(20, 5)
p480
(lp481
(g331
F185872.0
g8
g480
tp482
aS'YuqinWu'
p483
(lp484
V2016-10-16 21:43:36
p485
tp486
a(g8
VC(32,5)-C(20,5)
p487
(lp488
(g331
F185872.0
g8
g487
tp489
aS'rsamuail'
p490
(lp491
V2016-10-19 19:20:08
p492
tp493
a(g8
VC(32,5) - C(20,5)
p494
(lp495
(g331
F185872.0
g8
g494
tp496
aS'codyndoan'
p497
(lp498
V2016-10-18 19:39:43
p499
tp500
a(g8
VC(32,5) - C(20,5)
p501
(lp502
(g331
F185872.0
g8
g501
tp503
aS'codyndoan'
p504
(lp505
V2016-10-18 19:41:40
p506
tp507
a(g8
VC(52 - 5*4, 5) - C(52 - 8*4, 5)
p508
(lp509
(g331
F185872.0
g8
g508
tp510
aS'heitorschueroff'
p511
(lp512
V2016-10-19 01:28:57
p513
tp514
a(g8
VC(52 - 5*4, 5) - C(52 - 8*4, 5)
p515
(lp516
(g331
F185872.0
g8
g515
tp517
aS'heitorschueroff'
p518
(lp519
V2016-10-19 01:29:30
p520
tp521
a(g8
VC(32,5)-C(20,5)
p522
(lp523
(g331
F185872.0
g8
g522
tp524
aS'QIQIWU'
p525
(lp526
V2016-10-18 00:50:16
p527
tp528
a(g8
VC(32,5)-C(20,5)
p529
(lp530
(g331
F185872.0
g8
g529
tp531
aS'alebedev'
p532
(lp533
V2016-10-18 00:19:32
p534
tp535
a(g8
V(C(20,4) * C(12,1)) + (C(20,3) * C(12,2)) + (C(20,2) * C(12,3)) + (C(20,1) * C(12,4)) + (C(12,5))
p536
(lp537
(g331
F185872.0
g8
g536
tp538
aS'Ryan_Yi'
p539
(lp540
V2016-10-16 05:20:17
p541
tp542
a(g8
V(C(20,4) * C(12,1)) + (C(20,3) * C(12,2)) + (C(20,2) * C(12,3)) + (C(20,1) * C(12,4)) + (C(12,5))
p543
(lp544
(g331
F185872.0
g8
g543
tp545
aS'Ryan_Yi'
p546
(lp547
V2016-10-16 05:21:29
p548
tp549
a(g8
VC(32,5)-C(20,5)
p550
(lp551
(g331
F185872.0
g8
g550
tp552
aS't2xu'
p553
(lp554
V2016-10-18 08:19:21
p555
tp556
a(g8
VC(32, 5) - C(20, 5)
p557
(lp558
(g331
F185872.0
g8
g557
tp559
aS'JasonHuang'
p560
(lp561
V2016-10-18 23:53:51
p562
tp563
a(g8
VC(32,5)-C(20,5)
p564
(lp565
(g331
F185872.0
g8
g564
tp566
aS'evahuynh'
p567
(lp568
V2016-10-18 16:14:36
p569
tp570
a(g8
VC(32,5)-C(20,5)
p571
(lp572
(g331
F185872.0
g8
g571
tp573
aS'evahuynh'
p574
(lp575
V2016-10-18 16:27:17
p576
tp577
a(g8
VC(32,5)-C(20,5)
p578
(lp579
(g331
F185872.0
g8
g578
tp580
aS'evahuynh'
p581
(lp582
V2016-10-18 16:32:31
p583
tp584
a(g8
VC(32,5) - C(20,5)
p585
(lp586
(g331
F185872.0
g8
g585
tp587
aS'aives'
p588
(lp589
V2016-10-19 01:37:32
p590
tp591
a(g8
VC(52-20,5)-C(52-32,5)
p592
(lp593
(g331
F185872.0
g8
g592
tp594
aS'yuhan'
p595
(lp596
V2016-10-18 04:23:47
p597
tp598
a(g8
VC(32,5)-C(20,5)
p599
(lp600
(g331
F185872.0
g8
g599
tp601
aS'Zeyi'
p602
(lp603
V2016-10-18 20:11:25
p604
tp605
a(g8
VC(32,5)-C(20,5)
p606
(lp607
(g331
F185872.0
g8
g606
tp608
aS'KevinKlein'
p609
(lp610
V2016-10-18 03:47:59
p611
tp612
a(g8
VC(32,5) - C(20,5)
p613
(lp614
(g331
F185872.0
g8
g613
tp615
aS'JiangfengYin'
p616
(lp617
V2016-10-19 10:07:14
p618
tp619
a(g8
VC(32,5)-C(20,5) 
p620
(lp621
(g331
F185872.0
g8
VC(32,5)-C(20,5)
p622
tp623
aS'dillonliu'
p624
(lp625
V2016-10-18 04:40:43
p626
tp627
a(g8
VC(32,5) - C(20,5)
p628
(lp629
(g331
F185872.0
g8
g628
tp630
aS'URajkumar'
p631
(lp632
V2016-10-18 21:52:27
p633
tp634
a(g8
V(C(32,5) - C(20,5))
p635
(lp636
(g331
F185872.0
g8
VC(32,5) - C(20,5)
p637
tp638
aS'URajkumar'
p639
(lp640
V2016-10-18 21:54:40
p641
tp642
a(g8
V(C(32,5) - C(20,5))
p643
(lp644
(g331
F185872.0
g8
VC(32,5) - C(20,5)
p645
tp646
aS'URajkumar'
p647
(lp648
V2016-10-18 21:55:38
p649
tp650
a(g8
VC(32,5)-C(20,5)
p651
(lp652
(g331
F185872.0
g8
g651
tp653
aS'ShannonWang'
p654
(lp655
V2016-10-17 06:15:28
p656
tp657
a(g8
VC(32,5)-C(20,5)
p658
(lp659
(g331
F185872.0
g8
g658
tp660
aS'maddymanu'
p661
(lp662
V2016-10-17 21:31:56
p663
tp664
a(g8
VC(32,5)-C(20,5)
p665
(lp666
(g331
F185872.0
g8
g665
tp667
aS'ThuanNguyen'
p668
(lp669
V2016-10-19 04:44:17
p670
tp671
a(g8
VC(32,5) - C(20,5)
p672
(lp673
(g331
F185872.0
g8
g672
tp674
aS'piamsiri'
p675
(lp676
V2016-10-18 06:32:09
p677
tp678
a(g8
VC(32,5)-C(32-12,5)
p679
(lp680
(g331
F185872.0
g8
g679
tp681
aS'christywong'
p682
(lp683
V2016-10-18 17:58:52
p684
tp685
a(g8
VC(32,5)-C(20,5)
p686
(lp687
(g331
F185872.0
g8
g686
tp688
aS'DannyDelCerro'
p689
(lp690
V2016-10-16 22:22:59
p691
tp692
a(g8
VC(32,5)-C(20,5)
p693
(lp694
(g331
F185872.0
g8
g693
tp695
aS'k1siu'
p696
(lp697
V2016-10-16 05:17:45
p698
tp699
a(g8
VC(32,5)- C(20,5)
p700
(lp701
(g331
F185872.0
g8
g700
tp702
aS'wheilson'
p703
(lp704
V2016-10-18 22:09:42
p705
tp706
a(g8
VC(32,5)-C(20,5)
p707
(lp708
(g331
F185872.0
g8
g707
tp709
aS'wheilson'
p710
(lp711
V2016-10-18 22:10:38
p712
tp713
a(g8
VC(32,5)-C(20,5)
p714
(lp715
(g331
F185872.0
g8
g714
tp716
aS'wheilson'
p717
(lp718
V2016-10-18 22:12:48
p719
tp720
a(g8
VC(32,5)-C(20,5)
p721
(lp722
(g331
F185872.0
g8
g721
tp723
aS'til005'
p724
(lp725
V2016-10-18 03:38:59
p726
tp727
a(g8
VC(32,5) - C(20,5)
p728
(lp729
(g331
F185872.0
g8
g728
tp730
aS'KimberlyLy'
p731
(lp732
V2016-10-18 21:47:50
p733
tp734
a(g8
VC(32,5) - C(20,5)
p735
(lp736
(g331
F185872.0
g8
g735
tp737
aS'KimberlyLy'
p738
(lp739
V2016-10-18 21:50:23
p740
tp741
a(g8
VC(32,5)-C(20,5)
p742
(lp743
(g331
F185872.0
g8
g742
tp744
aS'yphilip'
p745
(lp746
V2016-10-18 19:04:08
p747
tp748
a(g8
VC(32,5)-C(20,5)
p749
(lp750
(g331
F185872.0
g8
g749
tp751
aS'Zhongting'
p752
(lp753
V2016-10-16 07:15:17
p754
tp755
a(g8
VC(4*8, 5) - C(4*5, 5)
p756
(lp757
(g331
F185872.0
g8
g756
tp758
aS'mbland'
p759
(lp760
V2016-10-17 22:34:13
p761
tp762
a(g8
VC(4*8, 5) - C(4*5, 5)
p763
(lp764
(g331
F185872.0
g8
g763
tp765
aS'mbland'
p766
(lp767
V2016-10-17 22:35:15
p768
tp769
a(g8
VC(32,5) - C(20,5)
p770
(lp771
(g331
F185872.0
g8
g770
tp772
aS'Ryan'
p773
(lp774
V2016-10-19 08:34:35
p775
tp776
a(g8
VC(32,5) - C(20,5)
p777
(lp778
(g331
F185872.0
g8
g777
tp779
aS'Ryan'
p780
(lp781
V2016-10-19 08:37:54
p782
tp783
a(g8
VC(32,5) - C(20,5)
p784
(lp785
(g331
F185872.0
g8
g784
tp786
aS'Ryan'
p787
(lp788
V2016-10-19 08:38:17
p789
tp790
a(g8
VC(32,5) - C(20,5)
p791
(lp792
(g331
F185872.0
g8
g791
tp793
aS'Ryan'
p794
(lp795
V2016-10-19 08:39:01
p796
tp797
a(g8
VC(32,5)-C(20,5)
p798
(lp799
(g331
F185872.0
g8
g798
tp800
aS'jih089'
p801
(lp802
V2016-10-16 05:46:44
p803
tp804
a(g8
VC(32,5)-C(20,5)
p805
(lp806
(g331
F185872.0
g8
g805
tp807
aS'jih089'
p808
(lp809
V2016-10-16 05:47:14
p810
tp811
a(g8
VC(32,5)-C(20,5)
p812
(lp813
(g331
F185872.0
g8
g812
tp814
aS'jih089'
p815
(lp816
V2016-10-16 05:48:43
p817
tp818
a(g8
VC(32,5) - C(20,5)
p819
(lp820
(g331
F185872.0
g8
g819
tp821
aS'Ken_Truong'
p822
(lp823
V2016-10-16 13:19:24
p824
tp825
a(g8
VC(32,5)-C(20,5)
p826
(lp827
(g331
F185872.0
g8
g826
tp828
aS'Guillermo'
p829
(lp830
V2016-10-16 20:27:16
p831
tp832
a(g8
VC(32,5)-C(20,5)
p833
(lp834
(g331
F185872.0
g8
g833
tp835
aS'Guillermo'
p836
(lp837
V2016-10-16 20:30:21
p838
tp839
a(g8
VC(52-20,5)-C(20,5)
p840
(lp841
(g331
F185872.0
g8
g840
tp842
aS'zow006'
p843
(lp844
V2016-10-18 00:00:07
p845
tp846
a(g8
VC(32, 5) - C(20,5)
p847
(lp848
(g331
F185872.0
g8
g847
tp849
aS'kmesic'
p850
(lp851
V2016-10-17 23:20:14
p852
tp853
a(g8
VC(32,5) - C(20,5)
p854
(lp855
(g331
F185872.0
g8
g854
tp856
aS'zhc047'
p857
(lp858
V2016-10-19 04:48:06
p859
tp860
a(g8
VC(32,5)-C(20,5)
p861
(lp862
(g331
F185872.0
g8
g861
tp863
aS'kballew00'
p864
(lp865
V2016-10-19 15:12:43
p866
tp867
a(g8
VC(32,5)-C(20,5)
p868
(lp869
(g331
F185872.0
g8
g868
tp870
aS'kballew00'
p871
(lp872
V2016-10-19 15:15:20
p873
tp874
a(g8
VC(32,5)-C(20,5)
p875
(lp876
(g331
F185872.0
g8
g875
tp877
aS'thartopu'
p878
(lp879
V2016-10-19 11:58:04
p880
tp881
a(g8
V201376-15504
p882
(lp883
(g331
F185872.0
g8
g882
tp884
aS'maxcjx'
p885
(lp886
V2016-10-18 04:10:30
p887
tp888
a(g8
VC(32,5) - C(20,5)
p889
(lp890
(g331
F185872.0
g8
g889
tp891
aS'PizzaPolice'
p892
(lp893
V2016-10-17 08:32:45
p894
tp895
a(g8
VC(32,5) - C(20,5)
p896
(lp897
(g331
F185872.0
g8
g896
tp898
aS'PizzaPolice'
p899
(lp900
V2016-10-17 08:33:20
p901
tp902
a(g8
VC(8*4,5)-C(5*4,5)
p903
(lp904
(g331
F185872.0
g8
g903
tp905
aS'HaoDong'
p906
(lp907
V2016-10-16 06:28:38
p908
tp909
a(g8
VC(8*4,5)-C(5*4,5)
p910
(lp911
(g331
F185872.0
g8
g910
tp912
aS'HaoDong'
p913
(lp914
V2016-10-16 06:29:06
p915
tp916
a(g8
VC(8*4,5)-C(5*4,5)
p917
(lp918
(g331
F185872.0
g8
g917
tp919
aS'HaoDong'
p920
(lp921
V2016-10-16 06:29:35
p922
tp923
a(g8
VC(32, 5) - C(20, 5)
p924
(lp925
(g331
F185872.0
g8
g924
tp926
aS'mhatch'
p927
(lp928
V2016-10-19 05:14:30
p929
tp930
a(g8
V(C(32,5))-(C(20,5))
p931
(lp932
(g331
F185872.0
g8
g931
tp933
aS'Sync'
p934
(lp935
V2016-10-18 23:00:30
p936
tp937
a(g8
V(C(32,5))-(C(20,5))
p938
(lp939
(g331
F185872.0
g8
g938
tp940
aS'Sync'
p941
(lp942
V2016-10-18 23:01:08
p943
tp944
a(g8
VC(32,5)-C(20,5)
p945
(lp946
(g331
F185872.0
g8
g945
tp947
aS'DarrenYang'
p948
(lp949
V2016-10-17 03:00:39
p950
tp951
a(g8
VC(32,5)-C(20,5)
p952
(lp953
(g331
F185872.0
g8
g952
tp954
aS'nicoleyfq'
p955
(lp956
V2016-10-19 18:16:38
p957
tp958
assS'3'
p959
g2
(g3
tp960
Rp961
g6
(lp962
(S'(C(32,5) - C(20,5))/(C(52,5) - C(40,5))'
p963
V1081
p964
tp965
a(g963
V0
p966
tp967
a(g963
V1
p968
tp969
a(g963
V1
p970
tp971
a(g963
V1
p972
tp973
a(g963
V1
p974
tp975
a(g963
V2
p976
tp977
a(g963
V1
p978
tp979
a(g963
V1
p980
tp981
a(g963
V1
p982
tp983
a(g963
V1
p984
tp985
asS"['R.0.0']"
p986
(lp987
(g963
V(C(52-5*4,5)-C(52-3*4,5))/(1-C(52-3*4,5))
p988
(lp989
(S'R.0.0'
p990
I201376
S'C(32,5)'
p991
VC(52-5*4,5)
p992
tp993
aS'christywong'
p994
(lp995
V2016-10-18 17:43:27
p996
tp997
asS"['R.1.0']"
p998
(lp999
(g963
V(12*C(16,4))/(C(52,5)-C(52-16,5))
p1000
(lp1001
(S'R.1.0'
p1002
I2598960
S'C(52,5)'
p1003
VC(52,5)
p1004
tp1005
aS'kyle'
p1006
(lp1007
V2016-10-19 19:46:19
p1008
tp1009
a(g963
V(C(12,1)*C(31,4))/(C(52,5)-C(30,5))
p1010
(lp1011
(S'R.1.0'
p1012
I2598960
S'C(52,5)'
p1013
VC(52,5)
p1014
tp1015
aS'sunilraiyani'
p1016
(lp1017
V2016-10-16 21:19:29
p1018
tp1019
a(g963
V(C(52,5)-C(36,5)+C(32,5))/(C(52,5)-C(36,5))
p1020
(lp1021
(S'R.1.0'
p1022
I2598960
S'C(52,5)'
p1023
VC(52,5)
p1024
tp1025
ag119
(lp1026
V2016-10-18 03:36:53
p1027
tp1028
a(g963
VC(12,1)*C(31,4)/(C(52,5)-C(12,5))
p1029
(lp1030
(S'R.1.0'
p1031
I2598960
S'C(52,5)'
p1032
VC(52,5)
p1033
tp1034
aS'ShannonWang'
p1035
(lp1036
V2016-10-17 05:37:19
p1037
tp1038
a(g963
V((C(52,5)-C(52,40))(C(28,5)))/(C(52,5)-C(52,40))
p1039
(lp1040
(S'R.1.0'
p1041
I2598960
S'C(52,5)'
p1042
VC(52,5)
p1043
tp1044
aS'DannyDelCerro'
p1045
(lp1046
V2016-10-16 22:20:07
p1047
tp1048
a(g963
V(C(28,5) - C(12,5)) / (C(52,5) - C(12,5))
p1049
(lp1050
(S'R.1.0'
p1051
I2598960
S'C(52,5)'
p1052
VC(52,5)
p1053
tp1054
aS'JoshuaKomala'
p1055
(lp1056
V2016-10-19 19:34:17
p1057
tp1058
a(g963
V(7^5-4^5)/(C(52,5)-10^5)
p1059
(lp1060
(S'R.1.0'
p1061
I2598960
S'C(52,5)'
p1062
VC(52,5)
p1063
tp1064
aS'HaoDong'
p1065
(lp1066
V2016-10-16 06:20:11
p1067
tp1068
asS"['R.0.0', 'R.1.0']"
p1069
(lp1070
(g963
V(C(32,5)-C(16,5))/(C(52,5)-C(36,5))
p1071
(lp1072
(S'R.0.0'
p1073
I201376
S'C(32,5)'
p1074
VC(32,5)
p1075
tp1076
a(S'R.1.0'
p1077
I2598960
S'C(52,5)'
p1078
VC(52,5)
p1079
tp1080
ag269
(lp1081
V2016-10-19 00:39:25
p1082
tp1083
asS"['R.1']"
p1084
(lp1085
(g963
V(12*C(32,4))/(C(52,5)-C(40,5))
p1086
(lp1087
(S'R.1'
p1088
F1940952.0
S'C(52,5) - C(40,5)'
p1089
VC(52,5)-C(40,5)
p1090
tp1091
aS'kyle'
p1092
(lp1093
V2016-10-19 20:05:49
p1094
tp1095
a(g963
V(C(28,5)-C(16,5))/(C(52,5)-C(40,5))
p1096
(lp1097
(S'R.1'
p1098
F1940952.0
S'C(52,5) - C(40,5)'
p1099
VC(52,5)-C(40,5)
p1100
tp1101
aS'alvinyho'
p1102
(lp1103
V2016-10-19 03:55:11
p1104
tp1105
a(g963
V(C(28,5)-(C(28,5)-C(16,5)))/(C(52,5)-C(40,5))
p1106
(lp1107
(S'R.1'
p1108
F1940952.0
S'C(52,5) - C(40,5)'
p1109
VC(52,5)-C(40,5)
p1110
tp1111
aS'alvinyho'
p1112
(lp1113
V2016-10-19 05:09:32
p1114
tp1115
a(g963
V(C(16,4)*C(12,1)+C(16,3)*C(12,2)+C(16,2)*C(12,3)+C(16,1)*C(12,4)+C(12,5))/(C(52,5)-C(40,5))
p1116
(lp1117
(S'R.1'
p1118
F1940952.0
S'C(52,5) - C(40,5)'
p1119
VC(52,5)-C(40,5)
p1120
tp1121
ag111
(lp1122
V2016-10-19 05:21:09
p1123
tp1124
a(g963
V156979/1940952
p1125
(lp1126
(S'R.1'
p1127
F1940952.0
S'C(52,5) - C(40,5)'
p1128
V1940952
p1129
tp1130
aS'shuang'
p1131
(lp1132
V2016-10-19 20:02:13
p1133
tp1134
a(g963
V(C(28,5) - C(12,5))/(C(52,5) - C(40,5))
p1135
(lp1136
(S'R.1'
p1137
F1940952.0
S'C(52,5) - C(40,5)'
p1138
VC(52,5) - C(40,5)
p1139
tp1140
aS'chenboy3'
p1141
(lp1142
V2016-10-16 16:38:12
p1143
tp1144
a(g963
V(C(28,5) - C(16,5))/(C(52,5) - C(40,5))
p1145
(lp1146
(S'R.1'
p1147
F1940952.0
S'C(52,5) - C(40,5)'
p1148
VC(52,5) - C(40,5)
p1149
tp1150
aS'chenboy3'
p1151
(lp1152
V2016-10-16 16:38:57
p1153
tp1154
a(g963
V12*C(4*8 - 1, 4)/(C(52, 5) - C(40, 5))
p1155
(lp1156
(S'R.1'
p1157
F1940952.0
S'C(52,5) - C(40,5)'
p1158
VC(52, 5) - C(40, 5)
p1159
tp1160
aS'cpence'
p1161
(lp1162
V2016-10-18 04:25:13
p1163
tp1164
a(g963
V12*C(31, 4)/(C(52, 5) - C(40, 5))
p1165
(lp1166
(S'R.1'
p1167
F1940952.0
S'C(52,5) - C(40,5)'
p1168
VC(52, 5) - C(40, 5)
p1169
tp1170
aS'cpence'
p1171
(lp1172
V2016-10-18 04:38:17
p1173
tp1174
a(g963
V( C(28,5) - C(16,5) ) / ( C(52,5) - C(52 - 3*4,5) )
p1175
(lp1176
(S'R.1'
p1177
F1940952.0
S'C(52,5) - C(40,5)'
p1178
VC(52,5) - C(52 - 3*4,5)
p1179
tp1180
aS'twsalim'
p1181
(lp1182
V2016-10-17 23:20:27
p1183
tp1184
a(g963
V(C(52,5)-C(24,5))/(C(52,5)-C(40,5))
p1185
(lp1186
(S'R.1'
p1187
F1940952.0
S'C(52,5) - C(40,5)'
p1188
VC(52,5)-C(40,5)
p1189
tp1190
aS'alebedev'
p1191
(lp1192
V2016-10-18 00:15:02
p1193
tp1194
a(g963
V(C(28, 5) - C(16, 5))/(C(52, 5) - C(40, 5))
p1195
(lp1196
(S'R.1'
p1197
F1940952.0
S'C(52,5) - C(40,5)'
p1198
VC(52, 5) - C(40, 5)
p1199
tp1200
aS'JasonHuang'
p1201
(lp1202
V2016-10-18 23:51:35
p1203
tp1204
a(g963
V93912/((52!/(5!47!))-((40!)/(5!35!)))
p1205
(lp1206
(S'R.1'
p1207
F1940952.0
S'C(52,5) - C(40,5)'
p1208
V(52!/(5!47!))-((40!)/(5!35!))
p1209
tp1210
aS'VanessaC'
p1211
(lp1212
V2016-10-18 19:39:44
p1213
tp1214
a(g963
V(C(52,5)-C(52-20,5))/(C(52,5)-C(52-12,5))
p1215
(lp1216
(S'R.1'
p1217
F1940952.0
S'C(52,5) - C(40,5)'
p1218
VC(52,5)-C(52-12,5)
p1219
tp1220
aS'yuhan'
p1221
(lp1222
V2016-10-18 04:06:41
p1223
tp1224
a(g963
V(C(52,5)-C(52-20,5))/(C(52,5)-C(52-12,5))
p1225
(lp1226
(S'R.1'
p1227
F1940952.0
S'C(52,5) - C(40,5)'
p1228
VC(52,5)-C(52-12,5)
p1229
tp1230
aS'yuhan'
p1231
(lp1232
V2016-10-18 04:08:22
p1233
tp1234
a(g963
V(C(52,5)-C(40,5)+C(28,5))/(C(52,5)-C(40,5))
p1235
(lp1236
(S'R.1'
p1237
F1940952.0
S'C(52,5) - C(40,5)'
p1238
VC(52,5)-C(40,5)
p1239
tp1240
ag127
(lp1241
V2016-10-18 03:39:30
p1242
tp1243
a(g963
V(12 * C(31,4))/(C(52,5)-C(40,5))
p1244
(lp1245
(S'R.1'
p1246
F1940952.0
S'C(52,5) - C(40,5)'
p1247
VC(52,5)-C(40,5)
p1248
tp1249
aS'ottojursch'
p1250
(lp1251
V2016-10-19 07:59:48
p1252
tp1253
a(g963
V(C(52,5)-C(20,5)-C(40,5))/(C(52,5)-C(40,5))
p1254
(lp1255
(S'R.1'
p1256
F1940952.0
S'C(52,5) - C(40,5)'
p1257
VC(52,5)-C(40,5)
p1258
tp1259
ag151
(lp1260
V2016-10-19 08:01:28
p1261
tp1262
a(g963
V(C(40,5)-C(32,5))/(C(52,5)-C(40,5))
p1263
(lp1264
(S'R.1'
p1265
F1940952.0
S'C(52,5) - C(40,5)'
p1266
VC(52,5)-C(40,5)
p1267
tp1268
aS'christywong'
p1269
(lp1270
V2016-10-18 17:51:57
p1271
tp1272
a(g963
VC(32,5)/(C(52,5)-C(40,5))
p1273
(lp1274
(S'R.1'
p1275
F1940952.0
S'C(52,5) - C(40,5)'
p1276
VC(52,5)-C(40,5)
p1277
tp1278
aS'til005'
p1279
(lp1280
V2016-10-18 03:38:08
p1281
tp1282
a(g963
V(C( 4*7, 5 ) - C(4*4, 5 )) / (C(52,5) - C(52 - 4*3,5) )
p1283
(lp1284
(S'R.1'
p1285
F1940952.0
S'C(52,5) - C(40,5)'
p1286
VC(52,5) - C(52 - 4*3,5)
p1287
tp1288
aS'mbland'
p1289
(lp1290
V2016-10-17 22:28:54
p1291
tp1292
a(g963
V((C(12, 1) * C(28, 4)) + (C(12,2) * C(28,3)) + (C(12,3) * C(12,2)) + (C(12,4)* C(12,1)) + (C(12,5)))/(C(52, 5) - (C(40,5)))
p1293
(lp1294
(S'R.1'
p1295
F1940952.0
S'C(52,5) - C(40,5)'
p1296
VC(52, 5) - (C(40,5))
p1297
tp1298
ag167
(lp1299
V2016-10-17 22:53:50
p1300
tp1301
a(g963
V(C(52,5) - (2*C(5*4, 5))) / (C(52,5) - C(52-(3*4),5))
p1302
(lp1303
(S'R.1'
p1304
F1940952.0
S'C(52,5) - C(40,5)'
p1305
VC(52,5) - C(52-(3*4),5)
p1306
tp1307
aS'bfalk'
p1308
(lp1309
V2016-10-17 23:43:46
p1310
tp1311
a(g963
V(C(28,5) - C(16,4)) / (C(52,5) - C(40,5))
p1312
(lp1313
(S'R.1'
p1314
F1940952.0
S'C(52,5) - C(40,5)'
p1315
VC(52,5) - C(40,5)
p1316
tp1317
aS'JoshuaKomala'
p1318
(lp1319
V2016-10-19 19:37:56
p1320
tp1321
a(g963
V(C(28,5) - C(16,5)) / (C(52,5) - C(40,5))
p1322
(lp1323
(S'R.1'
p1324
F1940952.0
S'C(52,5) - C(40,5)'
p1325
VC(52,5) - C(40,5)
p1326
tp1327
aS'JoshuaKomala'
p1328
(lp1329
V2016-10-19 19:38:43
p1330
tp1331
a(g963
V(C(7*4,5)-C(4*4,5))/(C(52,5)-C(40,5))
p1332
(lp1333
(S'R.1'
p1334
F1940952.0
S'C(52,5) - C(40,5)'
p1335
VC(52,5)-C(40,5)
p1336
tp1337
aS'HaoDong'
p1338
(lp1339
V2016-10-16 06:23:52
p1340
tp1341
a(g963
V(12 * C(27, 4))/(C(52,5) - C(40, 5))
p1342
(lp1343
(S'R.1'
p1344
F1940952.0
S'C(52,5) - C(40,5)'
p1345
VC(52,5) - C(40, 5)
p1346
tp1347
aS'mhatch'
p1348
(lp1349
V2016-10-19 04:55:54
p1350
tp1351
a(g963
V(12 * C(31, 4))/(C(52, 5) - C(40, 5))
p1352
(lp1353
(S'R.1'
p1354
F1940952.0
S'C(52,5) - C(40,5)'
p1355
VC(52, 5) - C(40, 5)
p1356
tp1357
aS'mhatch'
p1358
(lp1359
V2016-10-19 04:56:53
p1360
tp1361
a(g963
V(12 * C(31,4))/(C(52,5) - C(40,5))
p1362
(lp1363
(S'R.1'
p1364
F1940952.0
S'C(52,5) - C(40,5)'
p1365
VC(52,5) - C(40,5)
p1366
tp1367
aS'mhatch'
p1368
(lp1369
V2016-10-19 05:06:48
p1370
tp1371
a(g963
V(C(28,5)-C(16,5))/((C(52,5))-(C(40,5)))
p1372
(lp1373
(S'R.1'
p1374
F1940952.0
S'C(52,5) - C(40,5)'
p1375
V(C(52,5))-(C(40,5))
p1376
tp1377
aS'Sync'
p1378
(lp1379
V2016-10-18 22:36:08
p1380
tp1381
a(g963
V(C(28,5)-C(16,5))/(C(52,5)-C(40,5))
p1382
(lp1383
(S'R.1'
p1384
F1940952.0
S'C(52,5) - C(40,5)'
p1385
VC(52,5)-C(40,5)
p1386
tp1387
aS'DarrenYang'
p1388
(lp1389
V2016-10-17 02:17:57
p1390
tp1391
asS"['R.0.1', 'R.1.1']"
p1392
(lp1393
(g963
V(1 - C(52-(3*4),5) - C(5*4,5)) / (1 - C(52-(3*4),5))
p1394
(lp1395
(S'R.0.1'
p1396
I15504
S'C(20,5)'
p1397
VC(5*4,5)
p1398
tp1399
a(S'R.1.1'
p1400
I658008
S'C(40,5)'
p1401
VC(52-(3*4),5)
p1402
tp1403
aS'bfalk'
p1404
(lp1405
V2016-10-17 23:28:48
p1406
tp1407
asS"['R.0.0', 'R.1']"
p1408
(lp1409
(g963
V(C(32, 5)-C(16, 5))/(C(52,5)-C(40,5))
p1410
(lp1411
(S'R.0.0'
p1412
I201376
S'C(32,5)'
p1413
VC(32, 5)
p1414
tp1415
a(S'R.1'
p1416
F1940952.0
S'C(52,5) - C(40,5)'
p1417
VC(52,5)-C(40,5)
p1418
tp1419
ag189
(lp1420
V2016-10-16 21:41:10
p1421
tp1422
a(g963
V(C(32,5)-C(16,5))/(C(52,5)-C(40,5))
p1423
(lp1424
(S'R.0.0'
p1425
I201376
S'C(32,5)'
p1426
VC(32,5)
p1427
tp1428
a(S'R.1'
p1429
F1940952.0
S'C(52,5) - C(40,5)'
p1430
VC(52,5)-C(40,5)
p1431
tp1432
ag209
(lp1433
V2016-10-19 19:09:43
p1434
tp1435
a(g963
V(C(32, 5) - C(24,5))/(C(52,5) - C(40,5))
p1436
(lp1437
(S'R.0.0'
p1438
I201376
S'C(32,5)'
p1439
VC(32, 5)
p1440
tp1441
a(S'R.1'
p1442
F1940952.0
S'C(52,5) - C(40,5)'
p1443
VC(52,5) - C(40,5)
p1444
tp1445
ag259
(lp1446
V2016-10-19 04:44:23
p1447
tp1448
asS"['R.0']"
p1449
(lp1450
(g963
V(C(32,5)-C(20,5))/(C(52,5))
p1451
(lp1452
(S'R.0'
p1453
F185872.0
S'C(32,5) - C(20,5)'
p1454
VC(32,5)-C(20,5)
p1455
tp1456
ag462
(lp1457
V2016-10-18 21:17:04
p1458
tp1459
a(g963
V(C(32,5) - C(20,5))/((C(32,5) - C(20,5))/C(32,5))
p1460
(lp1461
(S'R.0'
p1462
F185872.0
S'C(32,5) - C(20,5)'
p1463
VC(32,5) - C(20,5)
p1464
tp1465
ag631
(lp1466
V2016-10-18 21:52:27
p1467
tp1468
asg283
(lp1469
(g963
V(C(32,5)-C(20,5))/C(52,5)-C(40,5)
p1470
tp1471
a(g963
VC(28,5)-C(16,5)/C(52,5)-C(40,5)
p1472
tp1473
a(g963
VC(20,5)/(1-C(40,5))
p1474
tp1475
a(g963
V((C(20,4) * C(12,1)) + (C(20,3) * C(12,2)) + (C(20,2) * C(12,3)) + (C(20,1) * C(12,4)) + (C(12,5)))/(1 - C(40,5))
p1476
tp1477
a(g963
V(C(52-20,5)-C(52-12,5))/(C(52,5)-C(40,5))
p1478
tp1479
a(g963
V(C(32,5)-C(40,5))/(C(52,5)-C(40,5))
p1480
tp1481
a(g963
VC(32,7)/(1-C(40,7))
p1482
tp1483
a(g963
V( C(4*6, 5) - C(4*3,5) ) / C(52,5) - C(52 - 4*3,5) 
p1484
tp1485
a(g963
VC(32,5) - C(20,5) / C(52,5) - C(40,5)
p1486
tp1487
a(g963
VC(32,5) - C(20,5) / C(52,5) - C(40,5)
p1488
tp1489
a(g963
V(C(8*4,5)-C(5*4,5))/C(52,5)-C(40,5)
p1490
tp1491
asS"['R.0.1', 'R.1']"
p1492
(lp1493
(g963
V(C(52,5)-C(20,5))/(C(52,5)-C(40,5))
p1494
(lp1495
(S'R.0.1'
p1496
I15504
S'C(20,5)'
p1497
VC(20,5)
p1498
tp1499
a(S'R.1'
p1500
F1940952.0
S'C(52,5) - C(40,5)'
p1501
VC(52,5)-C(40,5)
p1502
tp1503
ag49
(lp1504
V2016-10-18 00:13:54
p1505
tp1506
a(g963
V(C(52,5)-C(52-32,5))/(C(52,5)-C(52-12,5))
p1507
(lp1508
(S'R.0.1'
p1509
I15504
S'C(20,5)'
p1510
VC(52-32,5)
p1511
tp1512
a(S'R.1'
p1513
F1940952.0
S'C(52,5) - C(40,5)'
p1514
VC(52,5)-C(52-12,5)
p1515
tp1516
ag59
(lp1517
V2016-10-18 04:11:50
p1518
tp1519
a(g963
V((C(52,5)-C(40,5))-C(20,5))/(C(52,5)-C(40,5))
p1520
(lp1521
(S'R.0.1'
p1522
I15504
S'C(20,5)'
p1523
VC(20,5)
p1524
tp1525
a(S'R.1'
p1526
F1940952.0
S'C(52,5) - C(40,5)'
p1527
VC(52,5)-C(40,5)
p1528
tp1529
ag69
(lp1530
V2016-10-19 19:05:20
p1531
tp1532
a(g963
V(C(52,5) - C(40, 5) - C(20,5))/(C(52,5) - C(40, 5))
p1533
(lp1534
(S'R.0.1'
p1535
I15504
S'C(20,5)'
p1536
VC(20,5)
p1537
tp1538
a(S'R.1'
p1539
F1940952.0
S'C(52,5) - C(40,5)'
p1540
VC(52,5) - C(40, 5)
p1541
tp1542
ag79
(lp1543
V2016-10-17 22:58:08
p1544
tp1545
a(g963
V(C(52,5) - C(52-(3*4),5) - C(5*4,5)) / (C(52,5) - C(52-(3*4),5))
p1546
(lp1547
(S'R.0.1'
p1548
I15504
S'C(20,5)'
p1549
VC(5*4,5)
p1550
tp1551
a(S'R.1'
p1552
F1940952.0
S'C(52,5) - C(40,5)'
p1553
VC(52,5) - C(52-(3*4),5)
p1554
tp1555
ag89
(lp1556
V2016-10-17 23:30:19
p1557
tp1558
a(g963
V(C(52,5) - C(5*4,5)) / (C(52,5) - C(52-(3*4),5))
p1559
(lp1560
(S'R.0.1'
p1561
I15504
S'C(20,5)'
p1562
VC(5*4,5)
p1563
tp1564
a(S'R.1'
p1565
F1940952.0
S'C(52,5) - C(40,5)'
p1566
VC(52,5) - C(52-(3*4),5)
p1567
tp1568
ag99
(lp1569
V2016-10-17 23:31:44
p1570
tp1571
asS"['R.0', 'R.1.0']"
p1572
(lp1573
(g963
V(C(32,5) - C(20,5)) / (C(52,5) - C(47,5))
p1574
(lp1575
(S'R.0'
p1576
F185872.0
S'C(32,5) - C(20,5)'
p1577
VC(32,5) - C(20,5)
p1578
tp1579
a(S'R.1.0'
p1580
I2598960
S'C(52,5)'
p1581
VC(52,5)
p1582
tp1583
ag731
(lp1584
V2016-10-18 21:47:50
p1585
tp1586
asS"['R']"
p1587
(lp1588
(g963
V185872/1940952
p1589
(lp1590
(g331
F0.0957633161458913
g963
g1589
tp1591
ag333
(lp1592
V2016-10-19 05:28:26
p1593
tp1594
a(g963
V(C(32, 5) - C(20, 5))/(C(52, 5) - C(40, 5))
p1595
(lp1596
(g331
F0.0957633161458913
g963
g1595
tp1597
ag340
(lp1598
V2016-10-18 00:18:30
p1599
tp1600
a(g963
V((C(20,4) * C(12,1)) + (C(20,3) * C(12,2)) + (C(20,2) * C(12,3)) + (C(20,1) * C(12,4)) + (C(12,5)))/(C(52,5) - C(40,5))
p1601
(lp1602
(g331
F0.0957633161458913
g963
g1601
tp1603
ag347
(lp1604
V2016-10-16 06:38:31
p1605
tp1606
a(g963
V(C(32,5)-C(20,5))/(C(52,5)-C(40,5))
p1607
(lp1608
(g331
F0.0957633161458913
g963
g1607
tp1609
ag361
(lp1610
V2016-10-16 09:16:22
p1611
tp1612
a(g963
V(C(32,5) - C(20,5))/(C(52,5) - C(40,5) )
p1613
(lp1614
(g331
F0.0957633161458913
g963
g1613
tp1615
ag392
(lp1616
V2016-10-17 22:33:43
p1617
tp1618
a(g963
V(C(32,5)-C(20,5))/(C(52,5)-C(40,5))
p1619
(lp1620
(g331
F0.0957633161458913
g963
g1619
tp1621
ag399
(lp1622
V2016-10-19 06:46:05
p1623
tp1624
a(g963
V(C(32,5)-C(20,5))/(C(52,5)-C(40,5))
p1625
(lp1626
(g331
F0.0957633161458913
g963
g1625
tp1627
ag406
(lp1628
V2016-10-18 23:41:50
p1629
tp1630
a(g963
V(C(32,5)-C(20,5))/(C(52,5)-C(40,5))
p1631
(lp1632
(g331
F0.0957633161458913
g963
g1631
tp1633
ag420
(lp1634
V2016-10-19 05:35:46
p1635
tp1636
a(g963
V185872 / 1940952
p1637
(lp1638
(g331
F0.0957633161458913
g963
g1637
tp1639
ag427
(lp1640
V2016-10-17 19:50:51
p1641
tp1642
a(g963
V(C(32,5) - C(20,5))/(C(52,5) - C(40,5))
p1643
(lp1644
(g331
F0.0957633161458913
g963
g1643
tp1645
ag434
(lp1646
V2016-10-16 16:39:44
p1647
tp1648
a(g963
V(C(32,5)-C(20,5))/(C(52,5)-C(40,5))
p1649
(lp1650
(g331
F0.0957633161458913
g963
g1649
tp1651
ag441
(lp1652
V2016-10-16 21:22:46
p1653
tp1654
a(g963
V(C(32, 5) - C(20 , 5))/(C(52, 5) - C(40, 5))
p1655
(lp1656
(g331
F0.0957633161458913
g963
g1655
tp1657
ag448
(lp1658
V2016-10-19 06:11:47
p1659
tp1660
a(g963
V(C(32,5)-C(20,5))/(C(52,5)-C(40,5))
p1661
(lp1662
(g331
F0.0957633161458913
g963
g1661
tp1663
ag455
(lp1664
V2016-10-17 02:35:42
p1665
tp1666
a(g963
V(C(32,5)-C(20,5))/(C(52,5)-C(40,5))
p1667
(lp1668
(g331
F0.0957633161458913
g963
g1667
tp1669
ag469
(lp1670
V2016-10-18 21:18:52
p1671
tp1672
a(g963
V(C(32,5)-C(20,5))/(C(52,5)-C(40,5))
p1673
(lp1674
(g331
F0.0957633161458913
g963
g1673
tp1675
ag476
(lp1676
V2016-10-19 05:53:29
p1677
tp1678
a(g963
V(C(32, 5)-C(20, 5))/(C(52, 5)-C(40, 5))
p1679
(lp1680
(g331
F0.0957633161458913
g963
g1679
tp1681
ag483
(lp1682
V2016-10-16 21:43:36
p1683
tp1684
a(g963
V(C(32,5)-C(20,5))/(C(52,5)-C(40,5))
p1685
(lp1686
(g331
F0.0957633161458913
g963
g1685
tp1687
ag490
(lp1688
V2016-10-19 19:20:08
p1689
tp1690
a(g963
V(C(32,5) - C(20,5))/(C(52,5) - C(40,5))
p1691
(lp1692
(g331
F0.0957633161458913
g963
g1691
tp1693
ag504
(lp1694
V2016-10-18 19:41:40
p1695
tp1696
a(g963
V(C(52 - 5*4, 5) - C(52 - 8*4, 5)) / (C(52,5) - C(52 - 3*4, 5))
p1697
(lp1698
(g331
F0.0957633161458913
g963
g1697
tp1699
ag518
(lp1700
V2016-10-19 01:29:30
p1701
tp1702
a(g963
V(C(32,5)-C(20,5))/(C(52,5)-C(40,5))
p1703
(lp1704
(g331
F0.0957633161458913
g963
g1703
tp1705
ag525
(lp1706
V2016-10-18 00:50:16
p1707
tp1708
a(g963
V(C(32,5)-C(20,5))/(C(52,5)-C(40,5))
p1709
(lp1710
(g331
F0.0957633161458913
g963
g1709
tp1711
ag532
(lp1712
V2016-10-18 00:19:32
p1713
tp1714
a(g963
V((C(20,4) * C(12,1)) + (C(20,3) * C(12,2)) + (C(20,2) * C(12,3)) + (C(20,1) * C(12,4)) + (C(12,5)))/(C(52,5) - C(40,5))
p1715
(lp1716
(g331
F0.0957633161458913
g963
g1715
tp1717
ag546
(lp1718
V2016-10-16 05:21:29
p1719
tp1720
a(g963
V(C(32,5)-C(20,5))/(C(52,5)-C(40,5))
p1721
(lp1722
(g331
F0.0957633161458913
g963
g1721
tp1723
ag553
(lp1724
V2016-10-18 08:19:21
p1725
tp1726
a(g963
V(C(32, 5) - C(20, 5))/(C(52, 5) - C(40, 5))
p1727
(lp1728
(g331
F0.0957633161458913
g963
g1727
tp1729
ag560
(lp1730
V2016-10-18 23:53:51
p1731
tp1732
a(g963
V((32!/(27!5!))-(20!/(5!15!)))/((52!/(5!47!))-((40!)/(5!35!)))
p1733
(lp1734
(g331
F0.0957633161458913
g963
g1733
tp1735
aS'VanessaC'
p1736
(lp1737
V2016-10-18 20:52:22
p1738
tp1739
a(g963
V(C(32,5)-C(20,5))/(C(52,5)-C(40,5))
p1740
(lp1741
(g331
F0.0957633161458913
g963
g1740
tp1742
ag581
(lp1743
V2016-10-18 16:32:31
p1744
tp1745
a(g963
V(C(32,5) - C(20,5))/(C(52,5) - C(40,5))
p1746
(lp1747
(g331
F0.0957633161458913
g963
g1746
tp1748
ag588
(lp1749
V2016-10-19 01:37:32
p1750
tp1751
a(g963
V(C(52-20,5)-C(52-32,5))/(C(52,5)-C(52-12,5))
p1752
(lp1753
(g331
F0.0957633161458913
g963
g1752
tp1754
ag595
(lp1755
V2016-10-18 04:23:47
p1756
tp1757
a(g963
V(C(32,5)-C(20,5))/(C(52,5)-C(40,5))
p1758
(lp1759
(g331
F0.0957633161458913
g963
g1758
tp1760
ag602
(lp1761
V2016-10-18 20:11:25
p1762
tp1763
a(g963
V(C(32,5)-C(20,5))/(C(52,5)-C(40,5))
p1764
(lp1765
(g331
F0.0957633161458913
g963
g1764
tp1766
ag609
(lp1767
V2016-10-18 03:47:59
p1768
tp1769
a(g963
V(C(32,5) - C(20,5))/(C(52,5) - C(40,5))
p1770
(lp1771
(g331
F0.0957633161458913
g963
g1770
tp1772
ag616
(lp1773
V2016-10-19 10:07:14
p1774
tp1775
a(g963
V(C(32,5)-C(20,5) )/(C(52,5)-C(40,5) )
p1776
(lp1777
(g331
F0.0957633161458913
g963
g1776
tp1778
ag624
(lp1779
V2016-10-18 04:40:43
p1780
tp1781
a(g963
V(C(32,5) - C(20,5))/(C(52,5) - C(40,5))
p1782
(lp1783
(g331
F0.0957633161458913
g963
g1782
tp1784
ag647
(lp1785
V2016-10-18 21:55:38
p1786
tp1787
a(g963
V(C(32,5)-C(20,5))/(C(52,5)-C(40,5))
p1788
(lp1789
(g331
F0.0957633161458913
g963
g1788
tp1790
ag654
(lp1791
V2016-10-17 06:15:28
p1792
tp1793
a(g963
V(C(32,5)-C(20,5))/(C(52,5)-C(40,5))
p1794
(lp1795
(g331
F0.0957633161458913
g963
g1794
tp1796
ag661
(lp1797
V2016-10-17 21:31:56
p1798
tp1799
a(g963
V(C(32,5)-C(20,5))/(C(52,5) - C(40,5))
p1800
(lp1801
(g331
F0.0957633161458913
g963
g1800
tp1802
ag668
(lp1803
V2016-10-19 04:44:17
p1804
tp1805
a(g963
V(C(32,5) - C(20,5)) / (C(52,5) - C(40,5))
p1806
(lp1807
(g331
F0.0957633161458913
g963
g1806
tp1808
ag675
(lp1809
V2016-10-18 06:32:09
p1810
tp1811
a(g963
V(C(32,5)-C(32-12,5))/(C(52,5)-C(40,5))
p1812
(lp1813
(g331
F0.0957633161458913
g963
g1812
tp1814
ag682
(lp1815
V2016-10-18 17:58:52
p1816
tp1817
a(g963
V(C(32,5)-C(20,5))/(C(52,5)-C(40,5))
p1818
(lp1819
(g331
F0.0957633161458913
g963
g1818
tp1820
ag689
(lp1821
V2016-10-16 22:22:59
p1822
tp1823
a(g963
V(C(32,5)-C(20,5))/(C(52,5)-C(40,5))
p1824
(lp1825
(g331
F0.0957633161458913
g963
g1824
tp1826
ag696
(lp1827
V2016-10-16 05:17:45
p1828
tp1829
a(g963
V(C(32,5)-C(20,5))/(C(52,5)-C(40,5))
p1830
(lp1831
(g331
F0.0957633161458913
g963
g1830
tp1832
ag717
(lp1833
V2016-10-18 22:12:48
p1834
tp1835
a(g963
V(C(32,5)-C(20,5))/(C(52,5)-C(40,5))
p1836
(lp1837
(g331
F0.0957633161458913
g963
g1836
tp1838
ag724
(lp1839
V2016-10-18 03:38:59
p1840
tp1841
a(g963
V(C(32,5) - C(20,5)) / (C(52,5) - C(40,5))
p1842
(lp1843
(g331
F0.0957633161458913
g963
g1842
tp1844
ag738
(lp1845
V2016-10-18 21:50:23
p1846
tp1847
a(g963
V(C(32,5)-C(20,5))/(C(52,5)-C(40,5))
p1848
(lp1849
(g331
F0.0957633161458913
g963
g1848
tp1850
ag745
(lp1851
V2016-10-18 19:04:08
p1852
tp1853
a(g963
V(C(32,5)-C(20,5))/(C(52,5)-C(40,5))
p1854
(lp1855
(g331
F0.0957633161458913
g963
g1854
tp1856
ag752
(lp1857
V2016-10-16 07:15:17
p1858
tp1859
a(g963
V(C(4*8, 5) - C(4*5, 5))/(C(52,5) - C(52 - 4*3,5) )
p1860
(lp1861
(g331
F0.0957633161458913
g963
g1860
tp1862
ag766
(lp1863
V2016-10-17 22:35:15
p1864
tp1865
a(g963
V(C(32,5) - C(20,5) )/( C(52,5) - C(40,5))
p1866
(lp1867
(g331
F0.0957633161458913
g963
g1866
tp1868
ag794
(lp1869
V2016-10-19 08:39:01
p1870
tp1871
a(g963
V185872/1940952
p1872
(lp1873
(g331
F0.0957633161458913
g963
g1872
tp1874
ag815
(lp1875
V2016-10-16 05:48:43
p1876
tp1877
a(g963
V(C(32,5) - C(20,5)) / (C(52,5) - C(40,5))
p1878
(lp1879
(g331
F0.0957633161458913
g963
g1878
tp1880
ag822
(lp1881
V2016-10-16 13:19:24
p1882
tp1883
a(g963
V(185872)/(1940952)
p1884
(lp1885
(g331
F0.0957633161458913
g963
g1884
tp1886
ag836
(lp1887
V2016-10-16 20:30:21
p1888
tp1889
a(g963
V(C(52-20,5)-C(20,5))/(C(52,5)-C(52-12,5))
p1890
(lp1891
(g331
F0.0957633161458913
g963
g1890
tp1892
ag843
(lp1893
V2016-10-18 00:00:07
p1894
tp1895
a(g963
V(C(32, 5) - C(20,5))/(C(52,5) - C(40, 5))
p1896
(lp1897
(g331
F0.0957633161458913
g963
g1896
tp1898
ag850
(lp1899
V2016-10-17 23:20:14
p1900
tp1901
a(g963
V(C(32, 5) - C(20,5))/(C(52,5) - C(40,5))
p1902
(lp1903
(g331
F0.0957633161458913
g963
g1902
tp1904
ag857
(lp1905
V2016-10-19 04:48:06
p1906
tp1907
a(g963
V(C(32,5)-C(20,5))/(C(52,5)-C(40,5))
p1908
(lp1909
(g331
F0.0957633161458913
g963
g1908
tp1910
ag871
(lp1911
V2016-10-19 15:15:20
p1912
tp1913
a(g963
V(C(32,5)-C(20,5))/(C(52,5)-C(40,5))
p1914
(lp1915
(g331
F0.0957633161458913
g963
g1914
tp1916
ag878
(lp1917
V2016-10-19 11:58:04
p1918
tp1919
a(g963
V(201376-15504)/1940952
p1920
(lp1921
(g331
F0.0957633161458913
g963
g1920
tp1922
ag885
(lp1923
V2016-10-18 04:10:30
p1924
tp1925
a(g963
V(C(32,5) - C(20,5)) / (C(52,5) - C(40,5))
p1926
(lp1927
(g331
F0.0957633161458913
g963
g1926
tp1928
ag899
(lp1929
V2016-10-17 08:33:20
p1930
tp1931
a(g963
V(C(8*4,5)-C(5*4,5))/(C(52,5)-C(40,5))
p1932
(lp1933
(g331
F0.0957633161458913
g963
g1932
tp1934
ag920
(lp1935
V2016-10-16 06:29:35
p1936
tp1937
a(g963
V(C(32, 5) - C(20, 5))/(C(52,5) - C(40,5))
p1938
(lp1939
(g331
F0.0957633161458913
g963
g1938
tp1940
ag927
(lp1941
V2016-10-19 05:14:30
p1942
tp1943
a(g963
V((C(32,5))-(C(20,5)))/((C(52,5))-(C(40,5)))
p1944
(lp1945
(g331
F0.0957633161458913
g963
g1944
tp1946
ag941
(lp1947
V2016-10-18 23:01:08
p1948
tp1949
a(g963
V(C(32,5)-C(20,5))/(C(52,5)-C(40,5))
p1950
(lp1951
(g331
F0.0957633161458913
g963
g1950
tp1952
ag948
(lp1953
V2016-10-17 03:00:39
p1954
tp1955
a(g963
V(C(32,5)-C(20,5))/(C(52,5)-C(40,5))
p1956
(lp1957
(g331
F0.0957633161458913
g963
g1956
tp1958
ag955
(lp1959
V2016-10-19 18:16:38
p1960
tp1961
asS"['R.0.0', 'R.0.1.0']"
p1962
(lp1963
(g963
V(C(32,5) - C(20,4))/C(12,1)
p1964
(lp1965
(S'R.0.0'
p1966
I201376
S'C(32,5)'
p1967
VC(32,5)
p1968
tp1969
a(S'R.0.1.0'
p1970
F20.0
S'20'
p1971
V20
p1972
tp1973
ag323
(lp1974
V2016-10-19 04:31:24
p1975
tp1976
assS'2'
p1977
g2
(g3
tp1978
Rp1979
g6
(lp1980
(S'C(52,5) - C(40,5)'
p1981
V60
p1982
tp1983
a(g1981
V12
p1984
tp1985
a(g1981
V1326
p1986
tp1987
a(g1981
V12
p1988
tp1989
a(g1981
V232914240
p1990
tp1991
asS"['R.0.0']"
p1992
(lp1993
(g1981
V52!-100000
p1994
(lp1995
(S'R.0.0'
p1996
F52.0
S'52'
p1997
V52
p1998
tp1999
aS'VanessaC'
p2000
(lp2001
V2016-10-18 18:55:09
p2002
tp2003
asS"['R.0.0', 'R.1.0']"
p2004
(lp2005
(g1981
VC(52,7)-C(40,7)
p2006
(lp2007
(S'R.0.0'
p2008
F52.0
S'52'
p2009
V52
p2010
tp2011
a(S'R.1.0'
p2012
F40.0
S'40'
p2013
V40
p2014
tp2015
aS'ray003'
p2016
(lp2017
V2016-10-16 09:10:00
p2018
tp2019
a(g1981
VC(52,7)-C(40,7)
p2020
(lp2021
(S'R.0.0'
p2022
F52.0
S'52'
p2023
V52
p2024
tp2025
a(S'R.1.0'
p2026
F40.0
S'40'
p2027
V40
p2028
tp2029
aS'ottojursch'
p2030
(lp2031
V2016-10-19 07:51:49
p2032
tp2033
asS"['R.0']"
p2034
(lp2035
(g1981
VC(52,5)-C(52-16,5)
p2036
(lp2037
(S'R.0'
p2038
I2598960
S'C(52,5)'
p2039
VC(52,5)
p2040
tp2041
ag1006
(lp2042
V2016-10-19 19:46:19
p2043
tp2044
a(g1981
VC(52,5)-C(30,5)
p2045
(lp2046
(S'R.0'
p2047
I2598960
S'C(52,5)'
p2048
VC(52,5)
p2049
tp2050
ag1016
(lp2051
V2016-10-16 21:19:29
p2052
tp2053
a(g1981
VC(52,5)-C(36,5)
p2054
(lp2055
(S'R.0'
p2056
I2598960
S'C(52,5)'
p2057
VC(52,5)
p2058
tp2059
ag119
(lp2060
V2016-10-18 03:36:53
p2061
tp2062
a(g1981
VC(52,5)-C(12,5)
p2063
(lp2064
(S'R.0'
p2065
I2598960
S'C(52,5)'
p2066
VC(52,5)
p2067
tp2068
ag1035
(lp2069
V2016-10-17 05:37:19
p2070
tp2071
a(g1981
VC(52,5) - C(12,5)
p2072
(lp2073
(S'R.0'
p2074
I2598960
S'C(52,5)'
p2075
VC(52,5)
p2076
tp2077
aS'ThuanNguyen'
p2078
(lp2079
V2016-10-19 04:33:50
p2080
tp2081
a(g1981
VC(52,5) - C(20,5)
p2082
(lp2083
(S'R.0'
p2084
I2598960
S'C(52,5)'
p2085
VC(52,5)
p2086
tp2087
aS'ThuanNguyen'
p2088
(lp2089
V2016-10-19 04:36:46
p2090
tp2091
a(g1981
VC(52,5) - C(47,5)
p2092
(lp2093
(S'R.0'
p2094
I2598960
S'C(52,5)'
p2095
VC(52,5)
p2096
tp2097
ag731
(lp2098
V2016-10-18 21:47:50
p2099
tp2100
a(g1981
VC(52,5)-C(36,5)
p2101
(lp2102
(S'R.0'
p2103
I2598960
S'C(52,5)'
p2104
VC(52,5)
p2105
tp2106
ag269
(lp2107
V2016-10-19 00:39:25
p2108
tp2109
a(g1981
VC(52,5) - C(12,5)
p2110
(lp2111
(S'R.0'
p2112
I2598960
S'C(52,5)'
p2113
VC(52,5)
p2114
tp2115
ag1055
(lp2116
V2016-10-19 19:34:17
p2117
tp2118
a(g1981
VC(52,5) - C(43,3)
p2119
(lp2120
(S'R.0'
p2121
I2598960
S'C(52,5)'
p2122
VC(52,5)
p2123
tp2124
aS'PizzaPolice'
p2125
(lp2126
V2016-10-17 08:26:53
p2127
tp2128
a(g1981
VC(52,5)-10^5
p2129
(lp2130
(S'R.0'
p2131
I2598960
S'C(52,5)'
p2132
VC(52,5)
p2133
tp2134
ag1065
(lp2135
V2016-10-16 06:20:11
p2136
tp2137
asg283
(lp2138
(g1981
V1-C(40,5)
p2139
tp2140
a(g1981
V1 - C(40,5)
p2141
tp2142
a(g1981
V1-C(52-3*4,5)
p2143
tp2144
a(g1981
V(C(52,5)-C(52,40))
p2145
tp2146
a(g1981
V1-C(40,7)
p2147
tp2148
a(g1981
V1 - C(40,5)
p2149
tp2150
a(g1981
V1-C(40,5)
p2151
tp2152
a(g1981
V1 - C(52-(3*4),5)
p2153
tp2154
asg301
(lp2155
(g1981
V(C(32,5) - C(20,5))/(C(52,5) - C(40,5) )
p2156
tp2157
a(g1981
V(C(32,5) - C(20,5))/C(32,5)
p2158
tp2159
a(g1981
VC(12,1)/C(52,5)
p2160
tp2161
a(g1981
V(C(52,7)-C(40,7))/C(52,7)
p2162
tp2163
asS"['R.0', 'R.1.0']"
p2164
(lp2165
(g1981
VC(52,5) - C(40,2)
p2166
(lp2167
(S'R.0'
p2168
I2598960
S'C(52,5)'
p2169
VC(52,5)
p2170
tp2171
a(S'R.1.0'
p2172
F40.0
S'40'
p2173
V40
p2174
tp2175
aS'Ken_Truong'
p2176
(lp2177
V2016-10-16 13:16:06
p2178
tp2179
asS"['R']"
p2180
(lp2181
(g1981
V1940952
p2182
(lp2183
(g331
F1940952.0
g1981
g2182
tp2184
ag333
(lp2185
V2016-10-19 05:28:26
p2186
tp2187
a(g1981
VC(52, 5) - C(40, 5)
p2188
(lp2189
(g331
F1940952.0
g1981
g2188
tp2190
ag340
(lp2191
V2016-10-18 00:18:30
p2192
tp2193
a(g1981
VC(52,5) - C(40,5)
p2194
(lp2195
(g331
F1940952.0
g1981
g2194
tp2196
ag347
(lp2197
V2016-10-16 06:38:31
p2198
tp2199
a(g1981
VC(52,5)-C(40,5)
p2200
(lp2201
(g331
F1940952.0
g1981
g2200
tp2202
ag354
(lp2203
V2016-10-16 09:15:19
p2204
tp2205
a(g1981
VC(52,5)-C(40,5)
p2206
(lp2207
(g331
F1940952.0
g1981
g2206
tp2208
ag361
(lp2209
V2016-10-16 09:16:22
p2210
tp2211
a(g1981
VC(52,5) - C(40,5)
p2212
(lp2213
(g331
F1940952.0
g1981
g2212
tp2214
ag384
(lp2215
V2016-10-17 22:33:06
p2216
tp2217
a(g1981
VC(52,5) - C(40,5)
p2218
(lp2219
(g331
F1940952.0
g1981
g2218
tp2220
ag392
(lp2221
V2016-10-17 22:33:43
p2222
tp2223
a(g1981
VC(52,5)-C(40,5)
p2224
(lp2225
(g331
F1940952.0
g1981
g2224
tp2226
ag399
(lp2227
V2016-10-19 06:46:05
p2228
tp2229
a(g1981
VC(52,5)-C(40,5)
p2230
(lp2231
(g331
F1940952.0
g1981
g2230
tp2232
ag1092
(lp2233
V2016-10-19 20:05:49
p2234
tp2235
a(g1981
VC(52,5)-C(40,5)
p2236
(lp2237
(g331
F1940952.0
g1981
g2236
tp2238
ag406
(lp2239
V2016-10-18 23:41:50
p2240
tp2241
a(g1981
VC(52,5)-C(40,5)
p2242
(lp2243
(g331
F1940952.0
g1981
g2242
tp2244
aS'alvinyho'
p2245
(lp2246
V2016-10-19 03:42:48
p2247
tp2248
a(g1981
VC(52,5)-C(40,5)
p2249
(lp2250
(g331
F1940952.0
g1981
g2249
tp2251
aS'alvinyho'
p2252
(lp2253
V2016-10-19 03:46:50
p2254
tp2255
a(g1981
VC(52,5)-C(40,5)
p2256
(lp2257
(g331
F1940952.0
g1981
g2256
tp2258
ag1102
(lp2259
V2016-10-19 03:55:11
p2260
tp2261
a(g1981
V(C(52,5)-C(40,5))
p2262
(lp2263
(g331
F1940952.0
g1981
VC(52,5)-C(40,5)
p2264
tp2265
aS'alvinyho'
p2266
(lp2267
V2016-10-19 04:00:35
p2268
tp2269
a(g1981
V(C(52,5)-C(40,5))
p2270
(lp2271
(g331
F1940952.0
g1981
VC(52,5)-C(40,5)
p2272
tp2273
ag1112
(lp2274
V2016-10-19 05:09:32
p2275
tp2276
a(g1981
V(C(52,5)-C(40,5))
p2277
(lp2278
(g331
F1940952.0
g1981
VC(52,5)-C(40,5)
p2279
tp2280
ag111
(lp2281
V2016-10-19 05:21:09
p2282
tp2283
a(g1981
V(C(52,5)-C(40,5))
p2284
(lp2285
(g331
F1940952.0
g1981
VC(52,5)-C(40,5)
p2286
tp2287
ag413
(lp2288
V2016-10-19 05:34:50
p2289
tp2290
a(g1981
V(C(52,5)-C(40,5))
p2291
(lp2292
(g331
F1940952.0
g1981
VC(52,5)-C(40,5)
p2293
tp2294
ag420
(lp2295
V2016-10-19 05:35:46
p2296
tp2297
a(g1981
V1940952
p2298
(lp2299
(g331
F1940952.0
g1981
g2298
tp2300
ag1131
(lp2301
V2016-10-19 20:02:13
p2302
tp2303
a(g1981
V1940952
p2304
(lp2305
(g331
F1940952.0
g1981
g2304
tp2306
ag427
(lp2307
V2016-10-17 19:50:51
p2308
tp2309
a(g1981
VC(52,5) - C(40,5)
p2310
(lp2311
(g331
F1940952.0
g1981
g2310
tp2312
ag1141
(lp2313
V2016-10-16 16:38:12
p2314
tp2315
a(g1981
VC(52,5) - C(40,5)
p2316
(lp2317
(g331
F1940952.0
g1981
g2316
tp2318
ag1151
(lp2319
V2016-10-16 16:38:57
p2320
tp2321
a(g1981
VC(52,5) - C(40,5)
p2322
(lp2323
(g331
F1940952.0
g1981
g2322
tp2324
ag434
(lp2325
V2016-10-16 16:39:44
p2326
tp2327
a(g1981
VC(52,5)-C(40,5)
p2328
(lp2329
(g331
F1940952.0
g1981
g2328
tp2330
ag441
(lp2331
V2016-10-16 21:22:46
p2332
tp2333
a(g1981
VC(52, 5) - C(40, 5)
p2334
(lp2335
(g331
F1940952.0
g1981
g2334
tp2336
ag1161
(lp2337
V2016-10-18 04:25:13
p2338
tp2339
a(g1981
VC(52, 5) - C(40, 5)
p2340
(lp2341
(g331
F1940952.0
g1981
g2340
tp2342
ag1171
(lp2343
V2016-10-18 04:38:17
p2344
tp2345
a(g1981
VC(52, 5) - C(40, 5)
p2346
(lp2347
(g331
F1940952.0
g1981
g2346
tp2348
ag448
(lp2349
V2016-10-19 06:11:47
p2350
tp2351
a(g1981
VC(52,5)-C(40,5)
p2352
(lp2353
(g331
F1940952.0
g1981
g2352
tp2354
ag39
(lp2355
V2016-10-17 02:32:01
p2356
tp2357
a(g1981
VC(52,5)-C(40,5)
p2358
(lp2359
(g331
F1940952.0
g1981
g2358
tp2360
ag455
(lp2361
V2016-10-17 02:35:42
p2362
tp2363
a(g1981
VC(52,5) - C(52 - 3*4,5)
p2364
(lp2365
(g331
F1940952.0
g1981
g2364
tp2366
ag1181
(lp2367
V2016-10-17 23:20:27
p2368
tp2369
a(g1981
VC(52,5)-C(40,5)
p2370
(lp2371
(g331
F1940952.0
g1981
g2370
tp2372
ag469
(lp2373
V2016-10-18 21:18:52
p2374
tp2375
a(g1981
VC(52,5)-C(40,5)
p2376
(lp2377
(g331
F1940952.0
g1981
g2376
tp2378
ag476
(lp2379
V2016-10-19 05:53:29
p2380
tp2381
a(g1981
VC(52,5)-C(40,5)
p2382
(lp2383
(g331
F1940952.0
g1981
g2382
tp2384
ag189
(lp2385
V2016-10-16 21:41:10
p2386
tp2387
a(g1981
VC(52, 5)-C(40, 5)
p2388
(lp2389
(g331
F1940952.0
g1981
g2388
tp2390
ag483
(lp2391
V2016-10-16 21:43:36
p2392
tp2393
a(g1981
VC(52,5)-C(40,5)
p2394
(lp2395
(g331
F1940952.0
g1981
g2394
tp2396
ag490
(lp2397
V2016-10-19 19:20:08
p2398
tp2399
a(g1981
VC(52,5) - C(40,5)
p2400
(lp2401
(g331
F1940952.0
g1981
g2400
tp2402
ag504
(lp2403
V2016-10-18 19:41:40
p2404
tp2405
a(g1981
VC(52,5) - C(52 - 3*4, 5)
p2406
(lp2407
(g331
F1940952.0
g1981
g2406
tp2408
ag518
(lp2409
V2016-10-19 01:29:30
p2410
tp2411
a(g1981
VC(52,5)-C(40,5)
p2412
(lp2413
(g331
F1940952.0
g1981
g2412
tp2414
ag525
(lp2415
V2016-10-18 00:50:16
p2416
tp2417
a(g1981
VC(52,5)-C(40,5)
p2418
(lp2419
(g331
F1940952.0
g1981
g2418
tp2420
ag49
(lp2421
V2016-10-18 00:13:54
p2422
tp2423
a(g1981
VC(52,5)-C(40,5)
p2424
(lp2425
(g331
F1940952.0
g1981
g2424
tp2426
ag1191
(lp2427
V2016-10-18 00:15:02
p2428
tp2429
a(g1981
VC(52,5)-C(40,5)
p2430
(lp2431
(g331
F1940952.0
g1981
g2430
tp2432
ag532
(lp2433
V2016-10-18 00:19:32
p2434
tp2435
a(g1981
VC(52,5) - C(40,5)
p2436
(lp2437
(g331
F1940952.0
g1981
g2436
tp2438
ag546
(lp2439
V2016-10-16 05:21:29
p2440
tp2441
a(g1981
VC(52,5)-C(40,5)
p2442
(lp2443
(g331
F1940952.0
g1981
g2442
tp2444
ag553
(lp2445
V2016-10-18 08:19:21
p2446
tp2447
a(g1981
VC(52, 5) - C(40, 5)
p2448
(lp2449
(g331
F1940952.0
g1981
g2448
tp2450
ag1201
(lp2451
V2016-10-18 23:51:35
p2452
tp2453
a(g1981
VC(52, 5) - C(40, 5)
p2454
(lp2455
(g331
F1940952.0
g1981
g2454
tp2456
ag560
(lp2457
V2016-10-18 23:53:51
p2458
tp2459
a(g1981
V(52!/(5!47!))-((40!)/(5!35!))
p2460
(lp2461
(g331
F1940952.0
g1981
g2460
tp2462
aS'VanessaC'
p2463
(lp2464
V2016-10-18 18:59:34
p2465
tp2466
a(g1981
V(52!/(5!47!))-((40!)/(5!35!))
p2467
(lp2468
(g331
F1940952.0
g1981
g2467
tp2469
ag1211
(lp2470
V2016-10-18 19:39:44
p2471
tp2472
a(g1981
V(52!/(5!47!))-((40!)/(5!35!))
p2473
(lp2474
(g331
F1940952.0
g1981
g2473
tp2475
ag1736
(lp2476
V2016-10-18 20:52:22
p2477
tp2478
a(g1981
VC(52,5)-C(40,5)
p2479
(lp2480
(g331
F1940952.0
g1981
g2479
tp2481
ag574
(lp2482
V2016-10-18 16:27:17
p2483
tp2484
a(g1981
VC(52,5)-C(40,5)
p2485
(lp2486
(g331
F1940952.0
g1981
g2485
tp2487
ag581
(lp2488
V2016-10-18 16:32:31
p2489
tp2490
a(g1981
VC(52,5)-C(40,5)
p2491
(lp2492
(g331
F1940952.0
g1981
g2491
tp2493
aS'aives'
p2494
(lp2495
V2016-10-19 01:34:10
p2496
tp2497
a(g1981
VC(52,5) - C(40,5)
p2498
(lp2499
(g331
F1940952.0
g1981
g2498
tp2500
ag588
(lp2501
V2016-10-19 01:37:32
p2502
tp2503
a(g1981
VC(52,5) - C(52-12,5)
p2504
(lp2505
(g331
F1940952.0
g1981
g2504
tp2506
aS'yuhan'
p2507
(lp2508
V2016-10-18 04:05:12
p2509
tp2510
a(g1981
VC(52,5)-C(52-12,5)
p2511
(lp2512
(g331
F1940952.0
g1981
g2511
tp2513
ag1221
(lp2514
V2016-10-18 04:06:41
p2515
tp2516
a(g1981
VC(52,5)-C(52-12,5)
p2517
(lp2518
(g331
F1940952.0
g1981
g2517
tp2519
ag1231
(lp2520
V2016-10-18 04:08:22
p2521
tp2522
a(g1981
VC(52,5)-C(52-12,5)
p2523
(lp2524
(g331
F1940952.0
g1981
g2523
tp2525
aS'yuhan'
p2526
(lp2527
V2016-10-18 04:08:45
p2528
tp2529
a(g1981
VC(52,5)-C(52-12,5)
p2530
(lp2531
(g331
F1940952.0
g1981
g2530
tp2532
aS'yuhan'
p2533
(lp2534
V2016-10-18 04:09:31
p2535
tp2536
a(g1981
VC(52,5)-C(52-12,5)
p2537
(lp2538
(g331
F1940952.0
g1981
g2537
tp2539
ag59
(lp2540
V2016-10-18 04:11:50
p2541
tp2542
a(g1981
VC(52,5)-C(52-12,5)
p2543
(lp2544
(g331
F1940952.0
g1981
g2543
tp2545
ag595
(lp2546
V2016-10-18 04:23:47
p2547
tp2548
a(g1981
VC(52,5)-C(40,5)
p2549
(lp2550
(g331
F1940952.0
g1981
g2549
tp2551
ag602
(lp2552
V2016-10-18 20:11:25
p2553
tp2554
a(g1981
VC(52,5)-C(40,5)
p2555
(lp2556
(g331
F1940952.0
g1981
g2555
tp2557
ag127
(lp2558
V2016-10-18 03:39:30
p2559
tp2560
a(g1981
VC(52,5)-C(40,5)
p2561
(lp2562
(g331
F1940952.0
g1981
g2561
tp2563
ag135
(lp2564
V2016-10-18 03:43:36
p2565
tp2566
a(g1981
VC(52,5)-C(40,5)
p2567
(lp2568
(g331
F1940952.0
g1981
g2567
tp2569
ag609
(lp2570
V2016-10-18 03:47:59
p2571
tp2572
a(g1981
VC(52,5)-C(40,5)
p2573
(lp2574
(g331
F1940952.0
g1981
g2573
tp2575
aS'JiangfengYin'
p2576
(lp2577
V2016-10-19 10:02:31
p2578
tp2579
a(g1981
VC(52,5)-C(40,5)
p2580
(lp2581
(g331
F1940952.0
g1981
g2580
tp2582
aS'JiangfengYin'
p2583
(lp2584
V2016-10-19 10:04:24
p2585
tp2586
a(g1981
VC(52,5) - C(40,5)
p2587
(lp2588
(g331
F1940952.0
g1981
g2587
tp2589
ag616
(lp2590
V2016-10-19 10:07:14
p2591
tp2592
a(g1981
VC(52,5)-C(40,5)
p2593
(lp2594
(g331
F1940952.0
g1981
g2593
tp2595
aS'dillonliu'
p2596
(lp2597
V2016-10-18 04:26:53
p2598
tp2599
a(g1981
VC(52,5)-C(40,5) 
p2600
(lp2601
(g331
F1940952.0
g1981
VC(52,5)-C(40,5)
p2602
tp2603
aS'dillonliu'
p2604
(lp2605
V2016-10-18 04:33:24
p2606
tp2607
a(g1981
VC(52,5)-C(40,5) 
p2608
(lp2609
(g331
F1940952.0
g1981
VC(52,5)-C(40,5)
p2610
tp2611
ag624
(lp2612
V2016-10-18 04:40:43
p2613
tp2614
a(g1981
VC(52,5) - C(40,5)
p2615
(lp2616
(g331
F1940952.0
g1981
g2615
tp2617
ag639
(lp2618
V2016-10-18 21:54:40
p2619
tp2620
a(g1981
VC(52,5) - C(40,5)
p2621
(lp2622
(g331
F1940952.0
g1981
g2621
tp2623
ag647
(lp2624
V2016-10-18 21:55:38
p2625
tp2626
a(g1981
VC(52,5)-C(40,5)
p2627
(lp2628
(g331
F1940952.0
g1981
g2627
tp2629
ag654
(lp2630
V2016-10-17 06:15:28
p2631
tp2632
a(g1981
VC(52,5)-C(40,5)
p2633
(lp2634
(g331
F1940952.0
g1981
g2633
tp2635
ag1250
(lp2636
V2016-10-19 07:59:48
p2637
tp2638
a(g1981
VC(52,5)-C(40,5)
p2639
(lp2640
(g331
F1940952.0
g1981
g2639
tp2641
ag151
(lp2642
V2016-10-19 08:01:28
p2643
tp2644
a(g1981
VC(52,5)-C(40,5)
p2645
(lp2646
(g331
F1940952.0
g1981
g2645
tp2647
ag661
(lp2648
V2016-10-17 21:31:56
p2649
tp2650
a(g1981
VC(52,5) - C(40,5)
p2651
(lp2652
(g331
F1940952.0
g1981
g2651
tp2653
aS'ThuanNguyen'
p2654
(lp2655
V2016-10-19 04:37:49
p2656
tp2657
a(g1981
VC(52,5) - C(40,5)
p2658
(lp2659
(g331
F1940952.0
g1981
g2658
tp2660
ag668
(lp2661
V2016-10-19 04:44:17
p2662
tp2663
a(g1981
VC(52,5) - C(40,5)
p2664
(lp2665
(g331
F1940952.0
g1981
g2664
tp2666
ag675
(lp2667
V2016-10-18 06:32:09
p2668
tp2669
a(g1981
VC(52,5)-C(40,5)
p2670
(lp2671
(g331
F1940952.0
g1981
g2670
tp2672
aS'christywong'
p2673
(lp2674
V2016-10-18 17:47:31
p2675
tp2676
a(g1981
VC(52,5)-C(40,5)
p2677
(lp2678
(g331
F1940952.0
g1981
g2677
tp2679
aS'christywong'
p2680
(lp2681
V2016-10-18 17:51:04
p2682
tp2683
a(g1981
VC(52,5)-C(40,5)
p2684
(lp2685
(g331
F1940952.0
g1981
g2684
tp2686
ag1269
(lp2687
V2016-10-18 17:51:57
p2688
tp2689
a(g1981
VC(52,5)-C(40,5)
p2690
(lp2691
(g331
F1940952.0
g1981
g2690
tp2692
ag682
(lp2693
V2016-10-18 17:58:52
p2694
tp2695
a(g1981
VC(52,5)-C(40,5)
p2696
(lp2697
(g331
F1940952.0
g1981
g2696
tp2698
ag689
(lp2699
V2016-10-16 22:22:59
p2700
tp2701
a(g1981
VC(52,5)-C(40,5)
p2702
(lp2703
(g331
F1940952.0
g1981
g2702
tp2704
ag696
(lp2705
V2016-10-16 05:17:45
p2706
tp2707
a(g1981
VC(52,5)-C(40,5)
p2708
(lp2709
(g331
F1940952.0
g1981
g2708
tp2710
ag717
(lp2711
V2016-10-18 22:12:48
p2712
tp2713
a(g1981
VC(52,5)-C(40,5)
p2714
(lp2715
(g331
F1940952.0
g1981
g2714
tp2716
aS'Ian'
p2717
(lp2718
V2016-10-19 18:58:13
p2719
tp2720
a(g1981
VC(52,5)-C(40,5)
p2721
(lp2722
(g331
F1940952.0
g1981
g2721
tp2723
ag159
(lp2724
V2016-10-19 19:01:12
p2725
tp2726
a(g1981
VC(52,5)-C(40,5)
p2727
(lp2728
(g331
F1940952.0
g1981
g2727
tp2729
ag69
(lp2730
V2016-10-19 19:05:20
p2731
tp2732
a(g1981
VC(52,5)-C(40,5)
p2733
(lp2734
(g331
F1940952.0
g1981
g2733
tp2735
ag209
(lp2736
V2016-10-19 19:09:43
p2737
tp2738
a(g1981
VC(52,5)-C(40,5)
p2739
(lp2740
(g331
F1940952.0
g1981
g2739
tp2741
ag1279
(lp2742
V2016-10-18 03:38:08
p2743
tp2744
a(g1981
VC(52,5)-C(40,5)
p2745
(lp2746
(g331
F1940952.0
g1981
g2745
tp2747
ag724
(lp2748
V2016-10-18 03:38:59
p2749
tp2750
a(g1981
VC(52,5) - C(40,5)
p2751
(lp2752
(g331
F1940952.0
g1981
g2751
tp2753
ag738
(lp2754
V2016-10-18 21:50:23
p2755
tp2756
a(g1981
VC(52,5)-C(40,5)
p2757
(lp2758
(g331
F1940952.0
g1981
g2757
tp2759
ag229
(lp2760
V2016-10-18 18:58:58
p2761
tp2762
a(g1981
VC(52,5)-C(40,5)
p2763
(lp2764
(g331
F1940952.0
g1981
g2763
tp2765
ag745
(lp2766
V2016-10-18 19:04:08
p2767
tp2768
a(g1981
VC(52,5)-C(40,5)
p2769
(lp2770
(g331
F1940952.0
g1981
g2769
tp2771
ag752
(lp2772
V2016-10-16 07:15:17
p2773
tp2774
a(g1981
VC(52,5) - C(52 - 4*3,5) 
p2775
(lp2776
(g331
F1940952.0
g1981
VC(52,5) - C(52 - 4*3,5)
p2777
tp2778
aS'mbland'
p2779
(lp2780
V2016-10-17 22:26:58
p2781
tp2782
a(g1981
VC(52,5) - C(52 - 4*3,5) 
p2783
(lp2784
(g331
F1940952.0
g1981
VC(52,5) - C(52 - 4*3,5)
p2785
tp2786
ag1289
(lp2787
V2016-10-17 22:28:54
p2788
tp2789
a(g1981
VC(52,5) - C(52 - 4*3,5) 
p2790
(lp2791
(g331
F1940952.0
g1981
VC(52,5) - C(52 - 4*3,5)
p2792
tp2793
ag759
(lp2794
V2016-10-17 22:34:13
p2795
tp2796
a(g1981
VC(52,5) - C(52 - 4*3,5) 
p2797
(lp2798
(g331
F1940952.0
g1981
VC(52,5) - C(52 - 4*3,5)
p2799
tp2800
ag766
(lp2801
V2016-10-17 22:35:15
p2802
tp2803
a(g1981
VC(52,5) - C(40,5)
p2804
(lp2805
(g331
F1940952.0
g1981
g2804
tp2806
ag780
(lp2807
V2016-10-19 08:37:54
p2808
tp2809
a(g1981
VC(52,5) - C(40,5)
p2810
(lp2811
(g331
F1940952.0
g1981
g2810
tp2812
ag787
(lp2813
V2016-10-19 08:38:17
p2814
tp2815
a(g1981
VC(52,5) - C(40,5)
p2816
(lp2817
(g331
F1940952.0
g1981
g2816
tp2818
ag794
(lp2819
V2016-10-19 08:39:01
p2820
tp2821
a(g1981
VC(52,5)-C(40,5)
p2822
(lp2823
(g331
F1940952.0
g1981
g2822
tp2824
aS'jih089'
p2825
(lp2826
V2016-10-16 05:39:34
p2827
tp2828
a(g1981
VC(52,5)-C(40,5)
p2829
(lp2830
(g331
F1940952.0
g1981
g2829
tp2831
aS'jih089'
p2832
(lp2833
V2016-10-16 05:41:23
p2834
tp2835
a(g1981
VC(52,5)-C(40,5)
p2836
(lp2837
(g331
F1940952.0
g1981
g2836
tp2838
aS'jih089'
p2839
(lp2840
V2016-10-16 05:43:59
p2841
tp2842
a(g1981
VC(52,5)-C(40,5)
p2843
(lp2844
(g331
F1940952.0
g1981
g2843
tp2845
ag239
(lp2846
V2016-10-16 05:46:20
p2847
tp2848
a(g1981
VC(52,5)-C(40,5)
p2849
(lp2850
(g331
F1940952.0
g1981
g2849
tp2851
ag808
(lp2852
V2016-10-16 05:47:14
p2853
tp2854
a(g1981
VC(52,5)-C(40,5)
p2855
(lp2856
(g331
F1940952.0
g1981
g2855
tp2857
ag815
(lp2858
V2016-10-16 05:48:43
p2859
tp2860
a(g1981
VC(52,5) - C(40,5)
p2861
(lp2862
(g331
F1940952.0
g1981
g2861
tp2863
ag822
(lp2864
V2016-10-16 13:19:24
p2865
tp2866
a(g1981
VC(52,5)-C(40,5)
p2867
(lp2868
(g331
F1940952.0
g1981
g2867
tp2869
ag836
(lp2870
V2016-10-16 20:30:21
p2871
tp2872
a(g1981
VC(52,5)-C(52-12,5)
p2873
(lp2874
(g331
F1940952.0
g1981
g2873
tp2875
ag843
(lp2876
V2016-10-18 00:00:07
p2877
tp2878
a(g1981
VC(52, 5) - (C(40,5))
p2879
(lp2880
(g331
F1940952.0
g1981
g2879
tp2881
ag167
(lp2882
V2016-10-17 22:53:50
p2883
tp2884
a(g1981
VC(52,5) - C(40, 5)
p2885
(lp2886
(g331
F1940952.0
g1981
g2885
tp2887
ag79
(lp2888
V2016-10-17 22:58:08
p2889
tp2890
a(g1981
VC(52,5) - C(40, 5)
p2891
(lp2892
(g331
F1940952.0
g1981
g2891
tp2893
ag850
(lp2894
V2016-10-17 23:20:14
p2895
tp2896
a(g1981
VC(52,5) - C(40,5)
p2897
(lp2898
(g331
F1940952.0
g1981
g2897
tp2899
ag259
(lp2900
V2016-10-19 04:44:23
p2901
tp2902
a(g1981
VC(52,5) - C(40,5)
p2903
(lp2904
(g331
F1940952.0
g1981
g2903
tp2905
ag857
(lp2906
V2016-10-19 04:48:06
p2907
tp2908
a(g1981
VC(52,5) - C(52-(3*4),5)
p2909
(lp2910
(g331
F1940952.0
g1981
g2909
tp2911
ag89
(lp2912
V2016-10-17 23:30:19
p2913
tp2914
a(g1981
VC(52,5) - C(52-(3*4),5)
p2915
(lp2916
(g331
F1940952.0
g1981
g2915
tp2917
ag99
(lp2918
V2016-10-17 23:31:44
p2919
tp2920
a(g1981
VC(52,5) - C(52-(3*4),5)
p2921
(lp2922
(g331
F1940952.0
g1981
g2921
tp2923
ag1308
(lp2924
V2016-10-17 23:43:46
p2925
tp2926
a(g1981
VC(52,5) - C(40,5)
p2927
(lp2928
(g331
F1940952.0
g1981
g2927
tp2929
ag1318
(lp2930
V2016-10-19 19:37:56
p2931
tp2932
a(g1981
VC(52,5) - C(40,5)
p2933
(lp2934
(g331
F1940952.0
g1981
g2933
tp2935
ag1328
(lp2936
V2016-10-19 19:38:43
p2937
tp2938
a(g1981
VC(52,5)-C(40,5)
p2939
(lp2940
(g331
F1940952.0
g1981
g2939
tp2941
ag871
(lp2942
V2016-10-19 15:15:20
p2943
tp2944
a(g1981
VC(52,5)-C(40,5)
p2945
(lp2946
(g331
F1940952.0
g1981
g2945
tp2947
ag878
(lp2948
V2016-10-19 11:58:04
p2949
tp2950
a(g1981
V1940952
p2951
(lp2952
(g331
F1940952.0
g1981
g2951
tp2953
ag885
(lp2954
V2016-10-18 04:10:30
p2955
tp2956
a(g1981
VC(52,5) - C(40,5)
p2957
(lp2958
(g331
F1940952.0
g1981
g2957
tp2959
ag899
(lp2960
V2016-10-17 08:33:20
p2961
tp2962
a(g1981
VC(52,5)-C(40,5)
p2963
(lp2964
(g331
F1940952.0
g1981
g2963
tp2965
aS'HaoDong'
p2966
(lp2967
V2016-10-16 06:23:14
p2968
tp2969
a(g1981
VC(52,5)-C(40,5)
p2970
(lp2971
(g331
F1940952.0
g1981
g2970
tp2972
ag1338
(lp2973
V2016-10-16 06:23:52
p2974
tp2975
a(g1981
VC(52,5)-C(40,5)
p2976
(lp2977
(g331
F1940952.0
g1981
g2976
tp2978
ag906
(lp2979
V2016-10-16 06:28:38
p2980
tp2981
a(g1981
VC(52,5)-C(40,5)
p2982
(lp2983
(g331
F1940952.0
g1981
g2982
tp2984
ag913
(lp2985
V2016-10-16 06:29:06
p2986
tp2987
a(g1981
VC(52,5)-C(40,5)
p2988
(lp2989
(g331
F1940952.0
g1981
g2988
tp2990
ag920
(lp2991
V2016-10-16 06:29:35
p2992
tp2993
a(g1981
VC(52,5) - C(40, 5)
p2994
(lp2995
(g331
F1940952.0
g1981
g2994
tp2996
ag1348
(lp2997
V2016-10-19 04:55:54
p2998
tp2999
a(g1981
VC(52, 5) - C(40, 5)
p3000
(lp3001
(g331
F1940952.0
g1981
g3000
tp3002
ag1358
(lp3003
V2016-10-19 04:56:53
p3004
tp3005
a(g1981
VC(52,5) - C(40,5)
p3006
(lp3007
(g331
F1940952.0
g1981
g3006
tp3008
ag1368
(lp3009
V2016-10-19 05:06:48
p3010
tp3011
a(g1981
VC(52,5) - C(40,5)
p3012
(lp3013
(g331
F1940952.0
g1981
g3012
tp3014
ag927
(lp3015
V2016-10-19 05:14:30
p3016
tp3017
a(g1981
V(C(52,5))-(C(40,5))
p3018
(lp3019
(g331
F1940952.0
g1981
g3018
tp3020
aS'Sync'
p3021
(lp3022
V2016-10-18 21:36:04
p3023
tp3024
a(g1981
V(C(52,5))-(C(40,5))
p3025
(lp3026
(g331
F1940952.0
g1981
g3025
tp3027
ag1378
(lp3028
V2016-10-18 22:36:08
p3029
tp3030
a(g1981
V(C(52,5))-(C(40,5))
p3031
(lp3032
(g331
F1940952.0
g1981
g3031
tp3033
ag941
(lp3034
V2016-10-18 23:01:08
p3035
tp3036
a(g1981
VC(52,5)-C(40,5)
p3037
(lp3038
(g331
F1940952.0
g1981
g3037
tp3039
ag1388
(lp3040
V2016-10-17 02:17:57
p3041
tp3042
a(g1981
VC(52,5)-C(40,5)
p3043
(lp3044
(g331
F1940952.0
g1981
g3043
tp3045
ag948
(lp3046
V2016-10-17 03:00:39
p3047
tp3048
a(g1981
VC(52,5)-C(40,5)
p3049
(lp3050
(g331
F1940952.0
g1981
g3049
tp3051
ag955
(lp3052
V2016-10-19 18:16:38
p3053
tp3054
ass.