(dp0
S'1'
p1
(dp2
S'Ryan_Yi'
p3
(dp4
S'part1_correct_attempt'
p5
(lp6
S'0:16:38'
p7
aV13 - 1
p8
asS'first_attempt'
p9
V2016-10-16 05:44:58
p10
sS'part1_incorrect_attempt'
p11
(lp12
(S'0:00:00'
p13
V13 - 3
p14
tp15
a(S'0:03:41'
p16
V15 - 4
p17
tp18
assS'chenboy3'
p19
(dp20
S'part1_correct_attempt'
p21
(lp22
S'0:02:05'
p23
aV14
p24
asg9
V2016-10-16 16:51:03
p25
sS'part1_incorrect_attempt'
p26
(lp27
(S'0:00:00'
p28
V14 - 7
p29
tp30
assS'KevinKlein'
p31
(dp32
S'part1_correct_attempt'
p33
(lp34
S'0:07:46'
p35
aV13
p36
asg9
V2016-10-18 06:04:08
p37
sS'part1_incorrect_attempt'
p38
(lp39
(S'0:00:00'
p40
V15-8
p41
tp42
assS'heitorschueroff'
p43
(dp44
S'part1_correct_attempt'
p45
(lp46
S'0:26:45'
p47
aV15 - 1
p48
asg9
V2016-10-19 01:15:52
p49
sS'part1_incorrect_attempt'
p50
(lp51
(S'0:00:00'
p52
V13-7
p53
tp54
a(S'0:21:15'
p55
V12 - 6
p56
tp57
assS't2xu'
p58
(dp59
S'part1_correct_attempt'
p60
(lp61
S'0:06:13'
p62
aV12
p63
asg9
V2016-10-18 08:45:13
p64
sS'part1_incorrect_attempt'
p65
(lp66
(S'0:00:00'
p67
VC(13,9)
p68
tp69
assS'ReneSanchez'
p70
(dp71
S'part1_correct_attempt'
p72
(lp73
S'0:13:34'
p74
aV13
p75
asg9
V2016-10-17 23:11:52
p76
sS'part1_incorrect_attempt'
p77
(lp78
(S'0:00:00'
p79
V15 - 4
p80
tp81
assS'piamsiri'
p82
(dp83
S'part1_correct_attempt'
p84
(lp85
S'0:06:24'
p86
aV14
p87
asg9
V2016-10-18 06:45:54
p88
sS'part1_incorrect_attempt'
p89
(lp90
(S'0:00:00'
p91
V7*6
p92
tp93
assS'Guillermo'
p94
(dp95
S'part1_correct_attempt'
p96
(lp97
S'0:44:23'
p98
aV14-1
p99
asg9
V2016-10-16 20:41:13
p100
sS'part1_incorrect_attempt'
p101
(lp102
(S'0:00:00'
p103
V(15-1)*(15-2)
p104
tp105
assS'woguan'
p106
(dp107
S'part1_correct_attempt'
p108
(lp109
S'0:02:28'
p110
aV13-1
p111
asg9
V2016-10-19 06:11:09
p112
sS'part1_incorrect_attempt'
p113
(lp114
(S'0:00:00'
p115
V13-2
p116
tp117
assS'jar045'
p118
(dp119
S'part1_correct_attempt'
p120
(lp121
S'0:30:31'
p122
aV13
p123
asg9
V2016-10-19 07:00:40
p124
sS'part1_incorrect_attempt'
p125
(lp126
(S'0:00:00'
p127
V(13-1)*(13-2)
p128
tp129
a(S'0:02:06'
p130
V(13-1)*(13-2)
p131
tp132
a(S'0:10:41'
p133
V(15-1)*(15-2)
p134
tp135
assS'ThucPhan'
p136
(dp137
S'part1_correct_attempt'
p138
(lp139
S'2:45:37'
p140
aV13
p141
asg9
V2016-10-19 00:16:48
p142
sS'part1_incorrect_attempt'
p143
(lp144
(S'0:00:00'
p145
V(14-1)*(14-2)
p146
tp147
asssS'3'
p148
(dp149
S'codyndoan'
p150
(dp151
S'part3_correct_attempt'
p152
(lp153
S'0:00:00'
p154
aV13*12
p155
asS'part3_incorrect_attempt'
p156
(lp157
(S'-1 day, 23:51:44'
p158
V13*12
p159
tp160
a(S'-1 day, 23:57:37'
p161
V14*13
p162
tp163
a(S'0:00:00'
p164
V13*12
p165
tp166
asg9
V2016-10-18 20:09:38
p167
ssS'HaoDong'
p168
(dp169
S'part3_correct_attempt'
p170
(lp171
S'0:00:00'
p172
aV13*12
p173
asS'part3_incorrect_attempt'
p174
(lp175
(S'-1 day, 23:58:28'
p176
V13*12
p177
tp178
asg9
V2016-10-16 06:44:32
p179
ssS'piamsiri'
p180
(dp181
S'part3_correct_attempt'
p182
(lp183
S'0:00:00'
p184
aV14*13
p185
asS'part3_incorrect_attempt'
p186
(lp187
(S'-1 day, 23:54:33'
p188
V14*13
p189
tp190
a(S'0:00:00'
p191
V14*13
p192
tp193
asg9
V2016-10-18 06:52:18
p194
ssS'RobinO'
p195
(dp196
S'part3_correct_attempt'
p197
(lp198
S'0:00:00'
p199
aV12*11
p200
asS'part3_incorrect_attempt'
p201
(lp202
(S'0:00:00'
p203
V12*11
p204
tp205
asg9
V2016-10-18 03:53:51
p206
ssS'zow006'
p207
(dp208
S'part3_correct_attempt'
p209
(lp210
S'0:00:00'
p211
aV13*12
p212
asS'part3_incorrect_attempt'
p213
(lp214
(S'0:00:00'
p215
V13*12
p216
tp217
asg9
V2016-10-18 00:16:47
p218
ssS'dillonliu'
p219
(dp220
S'part3_correct_attempt'
p221
(lp222
S'0:00:00'
p223
aV14*13
p224
asS'part3_incorrect_attempt'
p225
(lp226
(S'-1 day, 23:42:52'
p227
V5!
p228
tp229
a(S'0:00:00'
p230
V14*13
p231
tp232
asg9
V2016-10-18 05:05:26
p233
ssS'cpence'
p234
(dp235
S'part3_correct_attempt'
p236
(lp237
S'0:00:00'
p238
aVP(13, 2)
p239
asS'part3_incorrect_attempt'
p240
(lp241
(S'0:00:00'
p242
VP(13, 2)
p243
tp244
asg9
V2016-10-19 06:53:22
p245
ssS'Sync'
p246
(dp247
S'part3_correct_attempt'
p248
(lp249
S'0:00:00'
p250
aV11*12
p251
asS'part3_incorrect_attempt'
p252
(lp253
(S'-1 day, 23:41:11'
p254
V14*13
p255
tp256
a(S'-1 day, 23:56:58'
p257
V12*11
p258
tp259
a(S'0:00:00'
p260
V11*12
p261
tp262
asg9
V2016-10-19 01:03:20
p263
ssS'lmfink'
p264
(dp265
S'part3_correct_attempt'
p266
(lp267
S'0:00:00'
p268
aV13 * 12
p269
asS'part3_incorrect_attempt'
p270
(lp271
(S'-1 day, 23:52:51'
p272
V12 * 11
p273
tp274
a(S'-1 day, 23:54:06'
p275
V12 * 11
p276
tp277
asg9
V2016-10-17 20:16:26
p278
ssS'zhc047'
p279
(dp280
S'part3_correct_attempt'
p281
(lp282
S'0:00:00'
p283
aV14*13
p284
asS'part3_incorrect_attempt'
p285
(lp286
(S'0:00:00'
p287
V14*13
p288
tp289
asg9
V2016-10-19 05:03:08
p290
ssS'alvinyho'
p291
(dp292
S'part3_correct_attempt'
p293
(lp294
S'0:00:00'
p295
aV13*12
p296
asS'part3_incorrect_attempt'
p297
(lp298
(S'-1 day, 23:50:49'
p299
V13*12
p300
tp301
asg9
V2016-10-19 06:16:33
p302
ssS'ShannonWang'
p303
(dp304
S'part3_correct_attempt'
p305
(lp306
S'0:00:00'
p307
aV12*13
p308
asS'part3_incorrect_attempt'
p309
(lp310
(S'-1 day, 23:57:55'
p311
V14*13
p312
tp313
asg9
V2016-10-17 05:50:01
p314
ssS'Ryan_Yi'
p315
(dp316
S'part3_correct_attempt'
p317
(lp318
S'0:00:00'
p319
aV12 * 11
p320
asS'part3_incorrect_attempt'
p321
(lp322
(S'-1 day, 23:54:24'
p323
V13 * 12
p324
tp325
a(S'0:00:00'
p326
V12 * 11
p327
tp328
asg9
V2016-10-16 06:01:36
p329
ssS'chenboy3'
p330
(dp331
S'part3_correct_attempt'
p332
(lp333
S'0:00:00'
p334
aV14*13
p335
asS'part3_incorrect_attempt'
p336
(lp337
(S'0:00:00'
p338
V14*13
p339
tp340
asg9
V2016-10-16 16:53:08
p341
ssg43
(dp342
S'part3_correct_attempt'
p343
(lp344
S'0:00:00'
p345
aV14*13
p346
asS'part3_incorrect_attempt'
p347
(lp348
(S'-1 day, 23:33:15'
p349
V5!
p350
tp351
a(S'-1 day, 23:54:30'
p352
V12*11
p353
tp354
asg9
V2016-10-19 01:42:37
p355
ssS'JasonHuang'
p356
(dp357
S'part3_correct_attempt'
p358
(lp359
S'0:00:00'
p360
aV14*13
p361
asS'part3_incorrect_attempt'
p362
(lp363
(S'-1 day, 23:57:37'
p364
V7*6
p365
tp366
a(S'0:00:00'
p367
V14*13
p368
tp369
asg9
V2016-10-19 04:37:52
p370
ssS'jih089'
p371
(dp372
S'part3_correct_attempt'
p373
(lp374
S'0:00:00'
p375
aVP(13,2)
p376
asS'part3_incorrect_attempt'
p377
(lp378
(S'-1 day, 23:54:26'
p379
VC(15,2)
p380
tp381
a(S'-1 day, 23:54:51'
p382
VC(14,3)
p383
tp384
a(S'-1 day, 23:55:15'
p385
VC(13,2)
p386
tp387
a(S'-1 day, 23:56:20'
p388
VP(13,2)
p389
tp390
asg9
V2016-10-16 05:33:07
p391
ssS'christywong'
p392
(dp393
S'part3_correct_attempt'
p394
(lp395
S'0:00:00'
p396
aV1*13*12
p397
asS'part3_incorrect_attempt'
p398
(lp399
(S'-1 day, 1:21:39'
p400
V1*14*13
p401
tp402
a(S'-1 day, 1:23:59'
p403
V1*14*13
p404
tp405
a(S'-1 day, 1:28:31'
p406
V1*13*12
p407
tp408
a(S'-1 day, 1:29:50'
p409
V1*12*11
p410
tp411
a(S'-1 day, 23:57:46'
p412
V1*14*13
p413
tp414
a(S'0:00:00'
p415
V1*13*12
p416
tp417
asg9
V2016-10-19 03:10:25
p418
ssS'yphilip'
p419
(dp420
S'part3_correct_attempt'
p421
(lp422
S'0:00:00'
p423
aV13*12
p424
asS'part3_incorrect_attempt'
p425
(lp426
(S'0:00:00'
p427
V13*12
p428
tp429
asg9
V2016-10-18 20:34:37
p430
ssS'Jisu'
p431
(dp432
S'part3_correct_attempt'
p433
(lp434
S'0:00:00'
p435
aV14*13
p436
asS'part3_incorrect_attempt'
p437
(lp438
(S'0:00:00'
p439
V14*13
p440
tp441
asg9
V2016-10-16 06:41:15
p442
ssS'mbland'
p443
(dp444
S'part3_correct_attempt'
p445
(lp446
S'0:00:00'
p447
aV12*11
p448
asS'part3_incorrect_attempt'
p449
(lp450
(S'-1 day, 23:53:44'
p451
V7*7
p452
tp453
a(S'0:00:00'
p454
V12*11
p455
tp456
asg9
V2016-10-18 02:41:00
p457
ssS'Ken_Truong'
p458
(dp459
S'part3_correct_attempt'
p460
(lp461
S'0:00:00'
p462
aV182
p463
asS'part3_incorrect_attempt'
p464
(lp465
(S'-1 day, 23:56:53'
p466
V13 * 12
p467
tp468
asg9
V2016-10-16 13:13:05
p469
ssS'ThuanNguyen'
p470
(dp471
S'part3_correct_attempt'
p472
(lp473
S'0:00:00'
p474
aV14*13
p475
asS'part3_incorrect_attempt'
p476
(lp477
(S'-1 day, 23:48:16'
p478
V13*12
p479
tp480
a(S'-1 day, 23:52:33'
p481
V14*13
p482
tp483
a(S'-1 day, 23:57:32'
p484
V13*11
p485
tp486
a(S'0:00:00'
p487
V14*13
p488
tp489
asg9
V2016-10-19 18:47:59
p490
ssS'PriyankaK'
p491
(dp492
S'part3_correct_attempt'
p493
(lp494
S'0:00:00'
p495
aV13*12
p496
asS'part3_incorrect_attempt'
p497
(lp498
(S'0:00:00'
p499
V13*12
p500
tp501
asg9
V2016-10-18 04:05:50
p502
ssS'NicoleStone'
p503
(dp504
S'part3_correct_attempt'
p505
(lp506
S'0:00:00'
p507
aV14*13
p508
asS'part3_incorrect_attempt'
p509
(lp510
(S'-1 day, 23:54:52'
p511
V7*6
p512
tp513
asg9
V2016-10-16 04:39:47
p514
ssS'ThucPhan'
p515
(dp516
S'part3_correct_attempt'
p517
(lp518
S'0:00:00'
p519
aV(14-1)*(14-2)
p520
asS'part3_incorrect_attempt'
p521
(lp522
(S'-1 day, 23:57:23'
p523
VC(15,3)
p524
tp525
asg9
V2016-10-19 03:02:25
p526
ssS'aives'
p527
(dp528
S'part3_correct_attempt'
p529
(lp530
S'0:00:00'
p531
aVP(14,2)
p532
asS'part3_incorrect_attempt'
p533
(lp534
(S'-1 day, 23:59:00'
p535
VP(14,2)
p536
tp537
a(S'0:00:00'
p538
VP(14,2)
p539
tp540
asg9
V2016-10-19 01:47:25
p541
ssS'KimberlyLy'
p542
(dp543
S'part3_correct_attempt'
p544
(lp545
S'0:00:00'
p546
aV12 * 11
p547
asS'part3_incorrect_attempt'
p548
(lp549
(S'0:00:00'
p550
V12 * 11
p551
tp552
asg9
V2016-10-18 22:07:58
p553
ssS'Ryan'
p554
(dp555
S'part3_correct_attempt'
p556
(lp557
S'0:00:00'
p558
aV14 * 13
p559
asS'part3_incorrect_attempt'
p560
(lp561
(S'-1 day, 23:49:06'
p562
V12 * 11
p563
tp564
a(S'-1 day, 23:52:09'
p565
V12 * 11
p566
tp567
a(S'-1 day, 23:57:33'
p568
V13 * 12
p569
tp570
a(S'0:00:00'
p571
V14 * 13
p572
tp573
asg9
V2016-10-19 08:52:11
p574
ssS'ReneSanchez'
p575
(dp576
S'part3_correct_attempt'
p577
(lp578
S'0:00:00'
p579
aV13*12
p580
asS'part3_incorrect_attempt'
p581
(lp582
(S'-1 day, 23:47:21'
p583
VP(15,3)
p584
tp585
a(S'-1 day, 23:48:13'
p586
V13*12
p587
tp588
a(S'0:00:00'
p589
V13*12
p590
tp591
asg9
V2016-10-17 23:25:26
p592
ssS'evahuynh'
p593
(dp594
S'part3_correct_attempt'
p595
(lp596
S'0:00:00'
p597
aV14*13
p598
asS'part3_incorrect_attempt'
p599
(lp600
(S'-1 day, 23:55:30'
p601
V13*12
p602
tp603
a(S'0:00:00'
p604
V14*13
p605
tp606
asg9
V2016-10-19 17:53:33
p607
ssS'maddymanu'
p608
(dp609
S'part3_correct_attempt'
p610
(lp611
S'0:00:00'
p612
aV14*13
p613
asS'part3_incorrect_attempt'
p614
(lp615
(S'-2 days, 21:51:43'
p616
V14*13
p617
tp618
a(S'0:00:00'
p619
V14*13
p620
tp621
asg9
V2016-10-18 23:49:05
p622
ssS'URajkumar'
p623
(dp624
S'part3_correct_attempt'
p625
(lp626
S'0:00:00'
p627
aV11*12
p628
asS'part3_incorrect_attempt'
p629
(lp630
(S'-1 day, 23:58:30'
p631
V13*12
p632
tp633
asg9
V2016-10-19 07:42:01
p634
ssS'sunilraiyani'
p635
(dp636
S'part3_correct_attempt'
p637
(lp638
S'0:00:00'
p639
aV12*11
p640
asS'part3_incorrect_attempt'
p641
(lp642
(S'-2 days, 18:09:01'
p643
V13*12
p644
tp645
a(S'-2 days, 18:11:56'
p646
V14*13
p647
tp648
a(S'0:00:00'
p649
V12*11
p650
tp651
asg9
V2016-10-18 03:30:28
p652
ssS't2xu'
p653
(dp654
S'part3_correct_attempt'
p655
(lp656
S'0:00:00'
p657
aV12*11
p658
asS'part3_incorrect_attempt'
p659
(lp660
(S'-1 day, 23:52:14'
p661
V13*12
p662
tp663
a(S'-1 day, 23:57:44'
p664
V12*11
p665
tp666
asg9
V2016-10-18 08:51:26
p667
ssS'maxcjx'
p668
(dp669
S'part3_correct_attempt'
p670
(lp671
S'0:00:00'
p672
aV12*11
p673
asS'part3_incorrect_attempt'
p674
(lp675
(S'0:00:00'
p676
V12*11
p677
tp678
asg9
V2016-10-18 04:33:04
p679
ssS'YuqinWu'
p680
(dp681
S'part3_correct_attempt'
p682
(lp683
S'0:00:00'
p684
aV13*12
p685
asS'part3_incorrect_attempt'
p686
(lp687
(S'-1 day, 23:58:36'
p688
V14*13
p689
tp690
a(S'0:00:00'
p691
V13*12
p692
tp693
asg9
V2016-10-16 21:59:48
p694
ssS'kmesic'
p695
(dp696
S'part3_correct_attempt'
p697
(lp698
S'0:00:00'
p699
aV12*11
p700
asS'part3_incorrect_attempt'
p701
(lp702
(S'0:00:00'
p703
V12*11
p704
tp705
asg9
V2016-10-18 02:48:15
p706
ssS'QIQIWU'
p707
(dp708
S'part3_correct_attempt'
p709
(lp710
S'0:00:00'
p711
aV12*11
p712
asS'part3_incorrect_attempt'
p713
(lp714
(S'-1 day, 23:56:59'
p715
V13*12
p716
tp717
a(S'0:00:00'
p718
V12*11
p719
tp720
asg9
V2016-10-18 02:44:45
p721
ssS'PizzaPolice'
p722
(dp723
S'part3_correct_attempt'
p724
(lp725
S'0:00:00'
p726
aV14 * 13
p727
asS'part3_incorrect_attempt'
p728
(lp729
(S'-1 day, 23:55:20'
p730
V12 * 11
p731
tp732
a(S'-1 day, 23:57:26'
p733
V14 * 13
p734
tp735
asg9
V2016-10-17 08:41:58
p736
ssS'wheilson'
p737
(dp738
S'part3_correct_attempt'
p739
(lp740
S'0:00:00'
p741
aV14*13
p742
asS'part3_incorrect_attempt'
p743
(lp744
(S'-1 day, 23:56:39'
p745
V12*11
p746
tp747
a(S'-1 day, 23:58:45'
p748
V12*11
p749
tp750
asg9
V2016-10-18 22:41:08
p751
ssS'DannyDelCerro'
p752
(dp753
S'part3_correct_attempt'
p754
(lp755
S'0:00:00'
p756
aV13*12
p757
asS'part3_incorrect_attempt'
p758
(lp759
(S'-1 day, 23:57:31'
p760
V9*8
p761
tp762
a(S'0:00:00'
p763
V13*12
p764
tp765
asg9
V2016-10-16 23:05:06
p766
sssS'2'
p767
(dp768
g3
(dp769
S'part2_correct_attempt'
p770
(lp771
S'0:00:00'
p772
aV13 - 2
p773
asg9
g329
sS'part2_incorrect_attempt'
p774
(lp775
(S'-1 day, 23:43:22'
p776
V13 - 4
p777
tp778
assg58
(dp779
S'part2_correct_attempt'
p780
(lp781
S'0:00:00'
p782
aV11
p783
asg9
g667
sS'part2_incorrect_attempt'
p784
(lp785
(S'-1 day, 23:53:47'
p786
VC(13,10)
p787
tp788
asssS'5'
p789
(dp790
S'RobinO'
p791
(dp792
S'part5_correct_attempt'
p793
(lp794
S'0:00:00'
p795
aV1+2+3+4+5+6
p796
asS'part5_incorrect_attempt'
p797
(lp798
(S'-1 day, 23:56:49'
p799
V13*10
p800
tp801
a(S'0:00:00'
p802
V1+2+3+4+5+6
p803
tp804
asg9
g206
ssg207
(dp805
S'part5_correct_attempt'
p806
(lp807
S'0:00:00'
p808
aV1+2+3+4+5+6+7+8
p809
asS'part5_incorrect_attempt'
p810
(lp811
(S'0:00:00'
p812
V1+2+3+4+5+6+7+8
p813
tp814
asg9
g218
ssS'dillonliu'
p815
(dp816
S'part5_correct_attempt'
p817
(lp818
S'0:00:00'
p819
aV7+6+5+4+3+2+1
p820
asS'part5_incorrect_attempt'
p821
(lp822
(S'0:00:00'
p823
V7+6+5+4+3+2+1
p824
tp825
asg9
g233
ssS'evahuynh'
p826
(dp827
S'part5_correct_attempt'
p828
(lp829
S'0:00:00'
p830
aV1+2+3+4+5+6+7+8+9
p831
asS'part5_incorrect_attempt'
p832
(lp833
(S'0:00:00'
p834
V1+2+3+4+5+6+7+8+9
p835
tp836
asg9
g607
ssS'Sync'
p837
(dp838
S'part5_correct_attempt'
p839
(lp840
S'0:00:00'
p841
aV21
p842
asS'part5_incorrect_attempt'
p843
(lp844
(S'-1 day, 23:56:58'
p845
V(7*6)/2
p846
tp847
asg9
g263
ssS'alvinyho'
p848
(dp849
S'part5_correct_attempt'
p850
(lp851
S'0:00:00'
p852
aV1+2+3+4+5+6+7+8+9+10
p853
asS'part5_incorrect_attempt'
p854
(lp855
(S'-1 day, 23:56:00'
p856
V1+2+3+4+5+6+7+8
p857
tp858
a(S'-1 day, 23:58:02'
p859
V1+2+3+4+5
p860
tp861
a(S'0:00:00'
p862
V1+2+3+4+5+6+7+8+9+10
p863
tp864
asg9
g302
ssg443
(dp865
S'part5_correct_attempt'
p866
(lp867
S'0:00:00'
p868
aV1+2+3+4
p869
asS'part5_incorrect_attempt'
p870
(lp871
(S'-1 day, 23:53:44'
p872
V1+2+3+4+5+6
p873
tp874
a(S'0:00:00'
p875
V1+2+3+4
p876
tp877
asg9
g457
ssS'chenboy3'
p878
(dp879
S'part5_correct_attempt'
p880
(lp881
S'0:00:00'
p882
aV78
p883
asS'part5_incorrect_attempt'
p884
(lp885
(S'-1 day, 23:57:05'
p886
VC(14,3)
p887
tp888
asg9
g341
ssS'heitorschueroff'
p889
(dp890
S'part5_correct_attempt'
p891
(lp892
S'0:00:00'
p893
aV1+2+3+4+5+6+7+8+9+10 
p894
asS'part5_incorrect_attempt'
p895
(lp896
(S'-1 day, 23:54:30'
p897
V6!
p898
tp899
a(S'0:00:00'
p900
V1+2+3+4+5+6+7+8+9+10 
p901
tp902
asg9
g355
ssg279
(dp903
S'part5_correct_attempt'
p904
(lp905
S'0:00:00'
p906
aV1+2+3+4+5+6+7+8+9
p907
asS'part5_incorrect_attempt'
p908
(lp909
(S'0:00:00'
p910
V1+2+3+4+5+6+7+8+9
p911
tp912
asg9
g290
ssS'christywong'
p913
(dp914
S'part5_correct_attempt'
p915
(lp916
S'0:00:00'
p917
aV1+2+3+4+5+6+7+8
p918
asS'part5_incorrect_attempt'
p919
(lp920
(S'-1 day, 23:57:46'
p921
V1+2+3+4+5+6+7+8+9+10+11+12
p922
tp923
a(S'0:00:00'
p924
V1+2+3+4+5+6+7+8
p925
tp926
asg9
g418
ssg431
(dp927
S'part5_correct_attempt'
p928
(lp929
S'0:00:00'
p930
aV1+2+3+4+5+6
p931
asS'part5_incorrect_attempt'
p932
(lp933
(S'0:00:00'
p934
V1+2+3+4+5+6
p935
tp936
asg9
g442
ssS'twsalim'
p937
(dp938
S'part5_correct_attempt'
p939
(lp940
S'0:00:00'
p941
aV1 + 2 + 3 + 4 + 5
p942
asS'part5_incorrect_attempt'
p943
(lp944
(S'0:00:00'
p945
V1 + 2 + 3 + 4 + 5
p946
tp947
asg9
V2016-10-18 00:06:38
p948
ssg491
(dp949
S'part5_correct_attempt'
p950
(lp951
S'0:00:00'
p952
aV1+2+3+4+5+6+7+8+9+10
p953
asS'part5_incorrect_attempt'
p954
(lp955
(S'0:00:00'
p956
V1+2+3+4+5+6+7+8+9+10
p957
tp958
asg9
g502
ssS'NicoleStone'
p959
(dp960
S'part5_correct_attempt'
p961
(lp962
S'0:00:00'
p963
aV(12+11+10+9+8+7+6+5+4+3+2+1)
p964
asS'part5_incorrect_attempt'
p965
(lp966
(S'0:00:00'
p967
V(12+11+10+9+8+7+6+5+4+3+2+1)
p968
tp969
asg9
g514
ssS'kballew00'
p970
(dp971
S'part5_correct_attempt'
p972
(lp973
S'0:00:00'
p974
aV1+2+3+4+5+6
p975
asS'part5_incorrect_attempt'
p976
(lp977
(S'0:00:00'
p978
V1+2+3+4+5+6
p979
tp980
asg9
V2016-10-19 16:33:29
p981
ssg752
(dp982
S'part5_correct_attempt'
p983
(lp984
S'0:00:00'
p985
aV(14-7)(14-7-1)/2
p986
asS'part5_incorrect_attempt'
p987
(lp988
(S'-1 day, 23:57:31'
p989
V(13-3)(13-3-1)/2
p990
tp991
a(S'0:00:00'
p992
V(14-7)(14-7-1)/2
p993
tp994
asg9
g766
ssS'KevinKlein'
p995
(dp996
S'part5_correct_attempt'
p997
(lp998
S'0:00:00'
p999
aV9+8+7+6+5+4+3+2+1
p1000
asS'part5_incorrect_attempt'
p1001
(lp1002
(S'0:00:00'
p1003
V9+8+7+6+5+4+3+2+1
p1004
tp1005
asg9
V2016-10-18 06:11:54
p1006
ssg623
(dp1007
S'part5_correct_attempt'
p1008
(lp1009
S'0:00:00'
p1010
aV1+2+3+4+5
p1011
asS'part5_incorrect_attempt'
p1012
(lp1013
(S'-1 day, 23:58:30'
p1014
V1+2+3
p1015
tp1016
a(S'0:00:00'
p1017
V1+2+3+4+5
p1018
tp1019
asg9
g634
ssS't2xu'
p1020
(dp1021
S'part5_correct_attempt'
p1022
(lp1023
S'0:00:00'
p1024
aV6*5/2
p1025
asS'part5_incorrect_attempt'
p1026
(lp1027
(S'0:00:00'
p1028
V6*5/2
p1029
tp1030
asg9
g667
ssg668
(dp1031
S'part5_correct_attempt'
p1032
(lp1033
S'0:00:00'
p1034
aV1+2+3+4+5+6+7+8+9
p1035
asS'part5_incorrect_attempt'
p1036
(lp1037
(S'0:00:00'
p1038
V1+2+3+4+5+6+7+8+9
p1039
tp1040
asg9
g679
ssg680
(dp1041
S'part5_correct_attempt'
p1042
(lp1043
S'0:00:00'
p1044
aV4*7
p1045
asS'part5_incorrect_attempt'
p1046
(lp1047
(S'-1 day, 23:58:36'
p1048
V6*11
p1049
tp1050
a(S'0:00:00'
p1051
V4*7
p1052
tp1053
asg9
g694
ssg695
(dp1054
S'part5_correct_attempt'
p1055
(lp1056
S'0:00:00'
p1057
aV1 + 2 + 3 + 4 + 5 + 6
p1058
asS'part5_incorrect_attempt'
p1059
(lp1060
(S'0:00:00'
p1061
V1 + 2 + 3 + 4 + 5 + 6
p1062
tp1063
asg9
g706
ssS'PizzaPolice'
p1064
(dp1065
S'part5_correct_attempt'
p1066
(lp1067
S'0:00:00'
p1068
aV1 + 2 + 3 +4 + 5 + 6 + 7
p1069
asS'part5_incorrect_attempt'
p1070
(lp1071
(S'-1 day, 23:57:26'
p1072
V1 + 2 + 3 + 4 + 5 + 6 + 7 + 8 + 9
p1073
tp1074
a(S'0:00:00'
p1075
V1 + 2 + 3 +4 + 5 + 6 + 7
p1076
tp1077
asg9
g736
sssS'4'
p1078
(dp1079
g1020
(dp1080
S'part4_correct_attempt'
p1081
(lp1082
S'0:00:00'
p1083
aV9-7-1
p1084
asS'part4_incorrect_attempt'
p1085
(lp1086
(S'0:00:00'
p1087
V9-7-1
p1088
tp1089
asg9
g667
ssS'christywong'
p1090
(dp1091
S'part4_correct_attempt'
p1092
(lp1093
S'0:00:00'
p1094
aV5
p1095
asS'part4_incorrect_attempt'
p1096
(lp1097
(S'-1 day, 15:24:47'
p1098
V1*1*1
p1099
tp1100
asg9
g418
ssS'ThucPhan'
p1101
(dp1102
S'part4_correct_attempt'
p1103
(lp1104
S'0:00:00'
p1105
aV9-5-1
p1106
asS'part4_incorrect_attempt'
p1107
(lp1108
(S'-1 day, 23:52:12'
p1109
V8-6-1
p1110
tp1111
asg9
g526
ssS'heitorschueroff'
p1112
(dp1113
S'part4_correct_attempt'
p1114
(lp1115
S'0:00:00'
p1116
aV10 - 5
p1117
asS'part4_incorrect_attempt'
p1118
(lp1119
(S'0:00:00'
p1120
V10 - 5
p1121
tp1122
asg9
g355
sssS'6'
p1123
(dp1124
g150
(dp1125
S'part6_incorrect_attempt'
p1126
(lp1127
(S'-1 day, 23:51:44'
p1128
V66/13*12
p1129
tp1130
a(S'-1 day, 23:53:16'
p1131
V21/(13*14)
p1132
tp1133
asg9
g167
sS'part6_correct_attempt'
p1134
(lp1135
S'0:00:00'
p1136
aV55/(13*12)
p1137
assS'Zhongting'
p1138
(dp1139
S'part6_incorrect_attempt'
p1140
(lp1141
(S'0:00:00'
p1142
V21/(13*12)
p1143
tp1144
asg9
V2016-10-16 07:30:34
p1145
sS'part6_correct_attempt'
p1146
(lp1147
S'0:00:00'
p1148
aV21/(13*12)
p1149
assg168
(dp1150
S'part6_incorrect_attempt'
p1151
(lp1152
(S'-1 day, 23:58:28'
p1153
V45/13*12
p1154
tp1155
asg9
g179
sS'part6_correct_attempt'
p1156
(lp1157
S'0:00:00'
p1158
aV15/(13*12)
p1159
assg207
(dp1160
S'part6_incorrect_attempt'
p1161
(lp1162
(S'0:00:00'
p1163
V36/(13*12)
p1164
tp1165
asg9
g218
sS'part6_correct_attempt'
p1166
(lp1167
S'0:00:00'
p1168
aV36/(13*12)
p1169
assg815
(dp1170
S'part6_incorrect_attempt'
p1171
(lp1172
(S'0:00:00'
p1173
V(7+6+5+4+3+2+1)/(14*13)
p1174
tp1175
asg9
g233
sS'part6_correct_attempt'
p1176
(lp1177
S'0:00:00'
p1178
aV(7+6+5+4+3+2+1)/(14*13)
p1179
assg826
(dp1180
S'part6_incorrect_attempt'
p1181
(lp1182
(S'0:00:00'
p1183
V(1+2+3+4+5+6+7+8+9)/(14*13)
p1184
tp1185
asg9
g607
sS'part6_correct_attempt'
p1186
(lp1187
S'0:00:00'
p1188
aV(1+2+3+4+5+6+7+8+9)/(14*13)
p1189
assS'Sync'
p1190
(dp1191
S'part6_incorrect_attempt'
p1192
(lp1193
(S'0:00:00'
p1194
V21/132
p1195
tp1196
asg9
g263
sS'part6_correct_attempt'
p1197
(lp1198
S'0:00:00'
p1199
aV21/132
p1200
assg264
(dp1201
S'part6_incorrect_attempt'
p1202
(lp1203
(S'-1 day, 23:52:51'
p1204
V45/132
p1205
tp1206
asg9
g278
sS'part6_correct_attempt'
p1207
(lp1208
S'0:00:00'
p1209
aV15 / (13*12)
p1210
assS'til005'
p1211
(dp1212
S'part6_incorrect_attempt'
p1213
(lp1214
(S'0:00:00'
p1215
V55/(14*13)
p1216
tp1217
asg9
V2016-10-18 03:47:55
p1218
sS'part6_correct_attempt'
p1219
(lp1220
S'0:00:00'
p1221
aV55/(14*13)
p1222
assg279
(dp1223
S'part6_incorrect_attempt'
p1224
(lp1225
(S'0:00:00'
p1226
V(1+2+3+4+5+6+7+8+9) / (14*13) 
p1227
tp1228
asg9
g290
sS'part6_correct_attempt'
p1229
(lp1230
S'0:00:00'
p1231
aV(1+2+3+4+5+6+7+8+9) / (14*13) 
p1232
assg106
(dp1233
S'part6_incorrect_attempt'
p1234
(lp1235
(S'-1 day, 23:57:32'
p1236
V((13-6)*(13-6-1)/2)/((13-1)*(13-2))
p1237
tp1238
asg9
V2016-10-19 06:13:37
p1239
sS'part6_correct_attempt'
p1240
(lp1241
S'0:00:00'
p1242
aV((13-8)*(13-8-1)/2)/((13-1)*(13-2))
p1243
assS'rsamuail'
p1244
(dp1245
S'part6_incorrect_attempt'
p1246
(lp1247
(S'0:00:00'
p1248
V((14-8)*(14-8-1)/2)/((14-1)*(14-2))
p1249
tp1250
asg9
V2016-10-19 19:30:49
p1251
sS'part6_correct_attempt'
p1252
(lp1253
S'0:00:00'
p1254
aV((14-8)*(14-8-1)/2)/((14-1)*(14-2))
p1255
assS'alvinyho'
p1256
(dp1257
S'part6_incorrect_attempt'
p1258
(lp1259
(S'-1 day, 23:58:02'
p1260
V(1+2+3+4+5)/30
p1261
tp1262
asg9
g302
sS'part6_correct_attempt'
p1263
(lp1264
S'0:00:00'
p1265
aV(1+2+3+4+5+6+7+8+9+10)/(13*12)
p1266
assg303
(dp1267
S'part6_incorrect_attempt'
p1268
(lp1269
(S'-1 day, 23:57:55'
p1270
V55/13*14
p1271
tp1272
asg9
g314
sS'part6_correct_attempt'
p1273
(lp1274
S'0:00:00'
p1275
aV55/(12*13)
p1276
assg878
(dp1277
S'part6_incorrect_attempt'
p1278
(lp1279
(S'-1 day, 23:57:05'
p1280
VC(14,3)/21
p1281
tp1282
a(S'0:00:00'
p1283
V78/(14*13)
p1284
tp1285
asg9
g341
sS'part6_correct_attempt'
p1286
(lp1287
S'0:00:00'
p1288
aV78/(14*13)
p1289
assg889
(dp1290
S'part6_incorrect_attempt'
p1291
(lp1292
(S'-1 day, 23:54:30'
p1293
V6!/(12*11)
p1294
tp1295
a(S'0:00:00'
p1296
V(1+2+3+4+5+6+7+8+9+10) / (14*13)
p1297
tp1298
asg9
g355
sS'part6_correct_attempt'
p1299
(lp1300
S'0:00:00'
p1301
aV(1+2+3+4+5+6+7+8+9+10) / (14*13)
p1302
assg356
(dp1303
S'part6_incorrect_attempt'
p1304
(lp1305
(S'-1 day, 23:57:37'
p1306
V21/42
p1307
tp1308
a(S'0:00:00'
p1309
V66/(14*13)
p1310
tp1311
asg9
g370
sS'part6_correct_attempt'
p1312
(lp1313
S'0:00:00'
p1314
aV66/(14*13)
p1315
assS'jih089'
p1316
(dp1317
S'part6_incorrect_attempt'
p1318
(lp1319
(S'-1 day, 23:58:49'
p1320
V7/39
p1321
tp1322
a(S'0:00:00'
p1323
V5/52
p1324
tp1325
asg9
g391
sS'part6_correct_attempt'
p1326
(lp1327
S'0:00:00'
p1328
aV5/52
p1329
assg913
(dp1330
S'part6_incorrect_attempt'
p1331
(lp1332
(S'-1 day, 23:57:46'
p1333
V(1+2+3+4+5+6+7+8+9+10+11+12)/(1*14*13)
p1334
tp1335
asg9
g418
sS'part6_correct_attempt'
p1336
(lp1337
S'0:00:00'
p1338
aV(1+2+3+4+5+6+7+8)/(1*13*12)
p1339
assg431
(dp1340
S'part6_incorrect_attempt'
p1341
(lp1342
(S'0:00:00'
p1343
V(1+2+3+4+5+6)/(14*13)
p1344
tp1345
asg9
g442
sS'part6_correct_attempt'
p1346
(lp1347
S'0:00:00'
p1348
aV(1+2+3+4+5+6)/(14*13)
p1349
assS'JiangfengYin'
p1350
(dp1351
S'part6_incorrect_attempt'
p1352
(lp1353
(S'-1 day, 23:57:06'
p1354
V7/52
p1355
tp1356
a(S'0:00:00'
p1357
V33/91
p1358
tp1359
asg9
V2016-10-19 10:23:15
p1360
sS'part6_correct_attempt'
p1361
(lp1362
S'0:00:00'
p1363
aV33/91
p1364
assS'vicorhe'
p1365
(dp1366
S'part6_incorrect_attempt'
p1367
(lp1368
(S'0:00:00'
p1369
V10/132
p1370
tp1371
asg9
V2016-10-19 19:00:18
p1372
sS'part6_correct_attempt'
p1373
(lp1374
S'0:00:00'
p1375
aV10/132
p1376
assg937
(dp1377
S'part6_incorrect_attempt'
p1378
(lp1379
(S'0:00:00'
p1380
V15/ ( 13*12)
p1381
tp1382
asg9
g948
sS'part6_correct_attempt'
p1383
(lp1384
S'0:00:00'
p1385
aV15/ ( 13*12)
p1386
assS'ThuanNguyen'
p1387
(dp1388
S'part6_incorrect_attempt'
p1389
(lp1390
(S'-1 day, 23:52:33'
p1391
V28/14*13
p1392
tp1393
a(S'-1 day, 23:57:32'
p1394
V28/13*11
p1395
tp1396
asg9
g490
sS'part6_correct_attempt'
p1397
(lp1398
S'0:00:00'
p1399
aV36/(14*13)
p1400
assg791
(dp1401
S'part6_incorrect_attempt'
p1402
(lp1403
(S'-1 day, 23:56:49'
p1404
V(13*12)/(13*10)
p1405
tp1406
asg9
g206
sS'part6_correct_attempt'
p1407
(lp1408
S'0:00:00'
p1409
aV(1+2+3+4+5+6)/(12*11)
p1410
assg503
(dp1411
S'part6_incorrect_attempt'
p1412
(lp1413
(S'-1 day, 23:54:52'
p1414
V21/42
p1415
tp1416
asg9
g514
sS'part6_correct_attempt'
p1417
(lp1418
S'0:00:00'
p1419
aV(12+11+10+9+8+7+6+5+4+3+2+1)/(14*13)
p1420
assg1101
(dp1421
S'part6_incorrect_attempt'
p1422
(lp1423
(S'-1 day, 23:52:12'
p1424
V((14-8)*(14-8-1)/2)/((14-1)*(14-2))
p1425
tp1426
a(S'-1 day, 23:57:23'
p1427
V((15-7)*(15-7-1)/2)/((15-1)*(15-2))
p1428
tp1429
a(S'0:00:00'
p1430
V((14-5)*(14-5-1)/2)/((14-1)*(14-2))
p1431
tp1432
asg9
g526
sS'part6_correct_attempt'
p1433
(lp1434
S'0:00:00'
p1435
aV((14-5)*(14-5-1)/2)/((14-1)*(14-2))
p1436
assS'aives'
p1437
(dp1438
S'part6_incorrect_attempt'
p1439
(lp1440
(S'-1 day, 23:57:28'
p1441
V45/C(12,2)
p1442
tp1443
a(S'-1 day, 23:59:00'
p1444
V35/P(14,2)
p1445
tp1446
a(S'0:00:00'
p1447
V55/P(14,2)
p1448
tp1449
asg9
g541
sS'part6_correct_attempt'
p1450
(lp1451
S'0:00:00'
p1452
aV55/P(14,2)
p1453
assg1064
(dp1454
S'part6_incorrect_attempt'
p1455
(lp1456
(S'-1 day, 23:57:26'
p1457
V(1 + 2 + 3 + 4 + 5 + 6 + 7 + 8 + 9) / (14 * 13)
p1458
tp1459
a(S'-1 day, 23:58:47'
p1460
V(1 + 2 + 3 + 4 + 5) / (13 * 12)
p1461
tp1462
a(S'0:00:00'
p1463
V(1 + 2 + 3 +4 + 5 + 6 + 7) / (14 * 13)
p1464
tp1465
asg9
g736
sS'part6_correct_attempt'
p1466
(lp1467
S'0:00:00'
p1468
aV(1 + 2 + 3 +4 + 5 + 6 + 7) / (14 * 13)
p1469
assS'Ryan'
p1470
(dp1471
S'part6_incorrect_attempt'
p1472
(lp1473
(S'-1 day, 23:57:33'
p1474
V(28 / 13) * 12
p1475
tp1476
a(S'0:00:00'
p1477
V45/(14*13)
p1478
tp1479
asg9
g574
sS'part6_correct_attempt'
p1480
(lp1481
S'0:00:00'
p1482
aV45/(14*13)
p1483
assg752
(dp1484
S'part6_incorrect_attempt'
p1485
(lp1486
(S'-1 day, 23:57:31'
p1487
V((13-3)(13-3-1)/2)/(12*11)
p1488
tp1489
asg9
g766
sS'part6_correct_attempt'
p1490
(lp1491
S'0:00:00'
p1492
aV((14-7)(14-7-1)/2)/(13*12)
p1493
assS'maddymanu'
p1494
(dp1495
S'part6_incorrect_attempt'
p1496
(lp1497
(S'-1 day, 23:59:03'
p1498
V(15-5)*(15-5-1)/2/((15-1)*(15-2))
p1499
tp1500
a(S'0:00:00'
p1501
V(15-3)*(15-3-1)/2/((15-1)*(15-2))
p1502
tp1503
asg9
g622
sS'part6_correct_attempt'
p1504
(lp1505
S'0:00:00'
p1506
aV(15-3)*(15-3-1)/2/((15-1)*(15-2))
p1507
assg995
(dp1508
S'part6_incorrect_attempt'
p1509
(lp1510
(S'0:00:00'
p1511
V(9+8+7+6+5+4+3+2+1)/156
p1512
tp1513
asg9
g1006
sS'part6_correct_attempt'
p1514
(lp1515
S'0:00:00'
p1516
aV(9+8+7+6+5+4+3+2+1)/156
p1517
assg542
(dp1518
S'part6_incorrect_attempt'
p1519
(lp1520
(S'0:00:00'
p1521
V21/(12 * 11)
p1522
tp1523
asg9
g553
sS'part6_correct_attempt'
p1524
(lp1525
S'0:00:00'
p1526
aV21/(12 * 11)
p1527
assg635
(dp1528
S'part6_incorrect_attempt'
p1529
(lp1530
(S'-2 days, 18:09:01'
p1531
V28/(13*12)
p1532
tp1533
a(S'0:00:00'
p1534
V21/(12*11)
p1535
tp1536
asg9
g652
sS'part6_correct_attempt'
p1537
(lp1538
S'0:00:00'
p1539
aV21/(12*11)
p1540
assg653
(dp1541
S'part6_incorrect_attempt'
p1542
(lp1543
(S'-1 day, 23:52:14'
p1544
V(7*6/2)/(13*12)
p1545
tp1546
a(S'-1 day, 23:57:44'
p1547
V(5*4/2)/(11*12)
p1548
tp1549
asg9
g667
sS'part6_correct_attempt'
p1550
(lp1551
S'0:00:00'
p1552
aV(6*5/2)/(11*12)
p1553
assS'Ken_Truong'
p1554
(dp1555
S'part6_incorrect_attempt'
p1556
(lp1557
(S'-1 day, 23:52:30'
p1558
V28 / 56
p1559
tp1560
a(S'-1 day, 23:56:53'
p1561
V99 / 156
p1562
tp1563
asg9
g469
sS'part6_correct_attempt'
p1564
(lp1565
S'0:00:00'
p1566
aV28/182
p1567
assg680
(dp1568
S'part6_incorrect_attempt'
p1569
(lp1570
(S'-1 day, 23:58:36'
p1571
V66/14*13
p1572
tp1573
asg9
g694
sS'part6_correct_attempt'
p1574
(lp1575
S'0:00:00'
p1576
aV28/(13*12)
p1577
assg707
(dp1578
S'part6_incorrect_attempt'
p1579
(lp1580
(S'-1 day, 23:56:59'
p1581
V(8*7/2)/(13*12)
p1582
tp1583
asg9
g721
sS'part6_correct_attempt'
p1584
(lp1585
S'0:00:00'
p1586
aV(6*5/2)/(12*11)
p1587
assg668
(dp1588
S'part6_incorrect_attempt'
p1589
(lp1590
(S'0:00:00'
p1591
V45/(12*11)
p1592
tp1593
asg9
g679
sS'part6_correct_attempt'
p1594
(lp1595
S'0:00:00'
p1596
aV45/(12*11)
p1597
assS'Guillermo'
p1598
(dp1599
S'part6_incorrect_attempt'
p1600
(lp1601
(S'-1 day, 23:45:22'
p1602
V(15-7)*(15-7-1)/2/((15-1)*(15-2))
p1603
tp1604
a(S'0:00:00'
p1605
V(14-5)*(14-5-1)/2/((14-1)*(14-2))
p1606
tp1607
asg9
V2016-10-16 21:25:36
p1608
sS'part6_correct_attempt'
p1609
(lp1610
S'0:00:00'
p1611
aV(14-5)*(14-5-1)/2/((14-1)*(14-2))
p1612
assg737
(dp1613
S'part6_incorrect_attempt'
p1614
(lp1615
(S'-1 day, 23:56:39'
p1616
V11*10/2/12*11
p1617
tp1618
a(S'-1 day, 23:58:45'
p1619
V(13*8/2)/(12*11)
p1620
tp1621
a(S'0:00:00'
p1622
V21/(14*13)
p1623
tp1624
asg9
g751
sS'part6_correct_attempt'
p1625
(lp1626
S'0:00:00'
p1627
aV21/(14*13)
p1628
asss.