(dp0
S'1'
p1
ccollections
defaultdict
p2
(c__builtin__
list
p3
tp4
Rp5
S'Digits'
p6
(lp7
(S'4*8'
p8
V8
p9
tp10
a(g8
V8
p11
tp12
a(g8
V8
p13
tp14
a(g8
V2
p15
tp16
a(g8
V16
p17
tp18
a(g8
V8
p19
tp20
a(g8
V16
p21
tp22
a(g8
V8
p23
tp24
a(g8
V8
p25
tp26
a(g8
V14
p27
tp28
a(g8
V2
p29
tp30
a(g8
V2
p31
tp32
asS"['R.1']"
p33
(lp34
(g8
V1*C(4,1)*4*8
p35
(lp36
(S'R.1'
p37
F8.0
S'8'
p38
V8
p39
tp40
aS'Guillermo'
p41
(lp42
V2016-10-16 18:00:31
p43
tp44
asS"['R.0', 'R.1']"
p45
(lp46
(g8
VC(4,1) + C(8,1)
p47
(lp48
(S'R.0'
p49
F4.0
S'4'
p50
VC(4,1)
p51
tp52
a(S'R.1'
p53
F8.0
g38
VC(8,1)
p54
tp55
aS'v2chang'
p56
(lp57
V2016-10-19 09:14:45
p58
tp59
asS"['R.0']"
p60
(lp61
(g8
V4*4
p62
(lp63
(S'R.0'
p64
F4.0
g50
V4
p65
tp66
aS'ReneSanchez'
p67
(lp68
V2016-10-17 22:47:43
p69
tp70
a(g8
V4^3
p71
(lp72
(S'R.0'
p73
F4.0
g50
g65
tp74
aS'cpence'
p75
(lp76
V2016-10-18 03:45:25
p77
tp78
a(g8
V2* 2 * C(4, 1)
p79
(lp80
(S'R.0'
p81
F4.0
g50
V2* 2
p82
tp83
aS'JasonHuang'
p84
(lp85
V2016-10-18 23:47:10
p86
tp87
a(g8
V4*2
p88
(lp89
(S'R.0'
p90
F4.0
g50
g65
tp91
aS'URajkumar'
p92
(lp93
V2016-10-18 21:44:29
p94
tp95
a(g8
V4*C(8,2)
p96
(lp97
(S'R.0'
p98
F4.0
g50
g65
tp99
aS'ottojursch'
p100
(lp101
V2016-10-19 06:59:22
p102
tp103
a(g8
V4*C(8,2)
p104
(lp105
(S'R.0'
p106
F4.0
g50
g65
tp107
aS'ottojursch'
p108
(lp109
V2016-10-19 07:02:37
p110
tp111
a(g8
VC(4,1)*16
p112
(lp113
(S'R.0'
p114
F4.0
g50
VC(4,1)
p115
tp116
aS'Guillermo'
p117
(lp118
V2016-10-16 20:07:17
p119
tp120
a(g8
V(4)*(C(43,1)-C(27,1))
p121
(lp122
(S'R.0'
p123
F4.0
g50
g65
tp124
aS'Guillermo'
p125
(lp126
V2016-10-16 20:09:37
p127
tp128
a(g8
V4^3
p129
(lp130
(S'R.0'
p131
F4.0
g50
g65
tp132
aS'Guillermo'
p133
(lp134
V2016-10-16 20:10:17
p135
tp136
a(g8
V4*4
p137
(lp138
(S'R.0'
p139
F4.0
g50
g65
tp140
aS'RobinO'
p141
(lp142
V2016-10-18 03:41:59
p143
tp144
a(g8
V4 * C(8, 2)
p145
(lp146
(S'R.0'
p147
F4.0
g50
g65
tp148
aS'mhatch'
p149
(lp150
V2016-10-19 04:49:36
p151
tp152
asS'Fraction'
p153
(lp154
(g8
VC(47,4)*C(47,8)/2
p155
tp156
asS"['R']"
p157
(lp158
(g8
V32
p159
(lp160
(S'R'
p161
F32.0
g8
g159
tp162
aS'yazin-yousif'
p163
(lp164
V2016-10-19 07:34:19
p165
tp166
a(g8
V32
p167
(lp168
(g161
F32.0
g8
g167
tp169
aS'mvkrishn'
p170
(lp171
V2016-10-17 23:56:18
p172
tp173
a(g8
V32
p174
(lp175
(g161
F32.0
g8
g174
tp176
aS'NicoleStone'
p177
(lp178
V2016-10-16 04:23:02
p179
tp180
a(g8
V(C(4,1) * C(4,1)) + (C(4,1) * C(4,1))
p181
(lp182
(g161
F32.0
g8
g181
tp183
aS'Jisu'
p184
(lp185
V2016-10-16 06:37:50
p186
tp187
a(g8
V32
p188
(lp189
(g161
F32.0
g8
g188
tp190
aS'ray003'
p191
(lp192
V2016-10-16 09:02:00
p193
tp194
a(g8
V32
p195
(lp196
(g161
F32.0
g8
g195
tp197
aS'ray003'
p198
(lp199
V2016-10-16 09:02:29
p200
tp201
a(g8
VC(4,1)*(C(4,1) + C(4,1))
p202
(lp203
(g161
F32.0
g8
g202
tp204
aS'ReneSanchez'
p205
(lp206
V2016-10-17 21:54:07
p207
tp208
a(g8
VC(4,1)*(C(4,1) + C(4,1))
p209
(lp210
(g161
F32.0
g8
g209
tp211
aS'ReneSanchez'
p212
(lp213
V2016-10-17 21:55:51
p214
tp215
a(g8
VC(4,1)*(C(4,1) + C(4,1))
p216
(lp217
(g161
F32.0
g8
g216
tp218
aS'ReneSanchez'
p219
(lp220
V2016-10-17 21:57:29
p221
tp222
a(g8
VC(4,1)*(C(4,1) + C(4,1))
p223
(lp224
(g161
F32.0
g8
g223
tp225
aS'ReneSanchez'
p226
(lp227
V2016-10-17 22:02:28
p228
tp229
a(g8
VC(4,1)*(C(4,1) + C(4,1))
p230
(lp231
(g161
F32.0
g8
g230
tp232
aS'ReneSanchez'
p233
(lp234
V2016-10-17 22:06:52
p235
tp236
a(g8
V C(4,1)*(C(4,1) + C(4,1))
p237
(lp238
(g161
F32.0
g8
VC(4,1)*(C(4,1) + C(4,1))
p239
tp240
aS'ReneSanchez'
p241
(lp242
V2016-10-17 22:21:04
p243
tp244
a(g8
VC(4,1)*(C(4,1) + C(4,1))
p245
(lp246
(g161
F32.0
g8
g245
tp247
aS'ReneSanchez'
p248
(lp249
V2016-10-17 22:24:15
p250
tp251
a(g8
VC(4,1)*(C(4,1) + C(4,1))
p252
(lp253
(g161
F32.0
g8
g252
tp254
aS'ReneSanchez'
p255
(lp256
V2016-10-17 22:25:09
p257
tp258
a(g8
VC(4,1)*(C(4,1) + C(4,1))
p259
(lp260
(g161
F32.0
g8
g259
tp261
aS'ReneSanchez'
p262
(lp263
V2016-10-17 22:48:56
p264
tp265
a(g8
VC(4,1)*(C(4,1) + C(4,1))
p266
(lp267
(g161
F32.0
g8
g266
tp268
aS'ReneSanchez'
p269
(lp270
V2016-10-17 22:51:14
p271
tp272
a(g8
V C(4,1)*(C(4,1) + C(4,1))
p273
(lp274
(g161
F32.0
g8
VC(4,1)*(C(4,1) + C(4,1))
p275
tp276
aS'ReneSanchez'
p277
(lp278
V2016-10-17 22:51:58
p279
tp280
a(g8
V C(4,1)*(C(4,1) + C(4,1))
p281
(lp282
(g161
F32.0
g8
VC(4,1)*(C(4,1) + C(4,1))
p283
tp284
aS'ReneSanchez'
p285
(lp286
V2016-10-17 22:58:36
p287
tp288
a(g8
VC(4,1)*(C(4,1) + C(4,1))
p289
(lp290
(g161
F32.0
g8
g289
tp291
aS'ReneSanchez'
p292
(lp293
V2016-10-17 22:59:15
p294
tp295
a(g8
VC(4,1)*(C(4,1) + C(4,1))
p296
(lp297
(g161
F32.0
g8
g296
tp298
aS'ReneSanchez'
p299
(lp300
V2016-10-17 23:25:48
p301
tp302
a(g8
VC(4,1)*(C(4,1) + C(4,1))
p303
(lp304
(g161
F32.0
g8
g303
tp305
aS'ReneSanchez'
p306
(lp307
V2016-10-17 23:45:36
p308
tp309
a(g8
VC(4,1)*(C(4,1) + C(4,1))
p310
(lp311
(g161
F32.0
g8
g310
tp312
aS'ReneSanchez'
p313
(lp314
V2016-10-17 23:48:03
p315
tp316
a(g8
VC(4,1)*(C(4,1) + C(4,1))
p317
(lp318
(g161
F32.0
g8
g317
tp319
aS'ReneSanchez'
p320
(lp321
V2016-10-17 23:48:31
p322
tp323
a(g8
V4*8
p324
(lp325
(g161
F32.0
g8
g324
tp326
aS'jar045'
p327
(lp328
V2016-10-19 06:38:18
p329
tp330
a(g8
V32
p331
(lp332
(g161
F32.0
g8
g331
tp333
aS'kyle'
p334
(lp335
V2016-10-19 19:25:00
p336
tp337
a(g8
V4*8
p338
(lp339
(g161
F32.0
g8
g338
tp340
aS'ThucPhan'
p341
(lp342
V2016-10-18 23:40:46
p343
tp344
a(g8
V4*8
p345
(lp346
(g161
F32.0
g8
g345
tp347
aS'alvinyho'
p348
(lp349
V2016-10-19 03:22:58
p350
tp351
a(g8
V32
p352
(lp353
(g161
F32.0
g8
g352
tp354
aS'shuang'
p355
(lp356
V2016-10-19 19:51:42
p357
tp358
a(g8
V4 * 8
p359
(lp360
(g161
F32.0
g8
g359
tp361
aS'lmfink'
p362
(lp363
V2016-10-17 19:45:10
p364
tp365
a(g8
V8*4
p366
(lp367
(g161
F32.0
g8
g366
tp368
aS'chenboy3'
p369
(lp370
V2016-10-16 16:36:19
p371
tp372
a(g8
V4*8
p373
(lp374
(g161
F32.0
g8
g373
tp375
aS'sunilraiyani'
p376
(lp377
V2016-10-16 21:14:58
p378
tp379
a(g8
V2*4^2
p380
(lp381
(g161
F32.0
g8
g380
tp382
aS'cpence'
p383
(lp384
V2016-10-18 03:46:26
p385
tp386
a(g8
VC(4,1)*C(8,1)
p387
(lp388
(g161
F32.0
g8
g387
tp389
aS'PriyankaK'
p390
(lp391
V2016-10-17 02:19:12
p392
tp393
a(g8
VC(4,1)*C(8,1)
p394
(lp395
(g161
F32.0
g8
g394
tp396
aS'PriyankaK'
p397
(lp398
V2016-10-17 02:21:24
p399
tp400
a(g8
V4*8
p401
(lp402
(g161
F32.0
g8
g401
tp403
aS'twsalim'
p404
(lp405
V2016-10-17 22:48:46
p406
tp407
a(g8
V32
p408
(lp409
(g161
F32.0
g8
g408
tp410
aS'Riyang'
p411
(lp412
V2016-10-18 21:08:35
p413
tp414
a(g8
V4*8
p415
(lp416
(g161
F32.0
g8
g415
tp417
aS'woguan'
p418
(lp419
V2016-10-19 05:50:34
p420
tp421
a(g8
V4*8
p422
(lp423
(g161
F32.0
g8
g422
tp424
aS'YuqinWu'
p425
(lp426
V2016-10-16 21:29:07
p427
tp428
a(g8
V16+16
p429
(lp430
(g161
F32.0
g8
g429
tp431
aS'rsamuail'
p432
(lp433
V2016-10-19 19:14:39
p434
tp435
a(g8
V4*4 + 4*4
p436
(lp437
(g161
F32.0
g8
g436
tp438
aS'codyndoan'
p439
(lp440
V2016-10-18 19:30:29
p441
tp442
a(g8
V4*4 + 4*4
p443
(lp444
(g161
F32.0
g8
g443
tp445
aS'codyndoan'
p446
(lp447
V2016-10-18 19:31:39
p448
tp449
a(g8
V4^2 * 2
p450
(lp451
(g161
F32.0
g8
g450
tp452
aS'heitorschueroff'
p453
(lp454
V2016-10-19 00:48:13
p455
tp456
a(g8
V4^2 * 2
p457
(lp458
(g161
F32.0
g8
g457
tp459
aS'heitorschueroff'
p460
(lp461
V2016-10-19 00:51:47
p462
tp463
a(g8
V4^2 * 2
p464
(lp465
(g161
F32.0
g8
g464
tp466
aS'heitorschueroff'
p467
(lp468
V2016-10-19 00:54:37
p469
tp470
a(g8
V4*4*2
p471
(lp472
(g161
F32.0
g8
g471
tp473
aS'QIQIWU'
p474
(lp475
V2016-10-18 00:39:57
p476
tp477
a(g8
V4*4*2
p478
(lp479
(g161
F32.0
g8
g478
tp480
aS'QIQIWU'
p481
(lp482
V2016-10-18 00:43:27
p483
tp484
a(g8
V(4*4*2)
p485
(lp486
(g161
F32.0
g8
V4*4*2
p487
tp488
aS'QIQIWU'
p489
(lp490
V2016-10-18 00:43:48
p491
tp492
a(g8
V(4*4*2)
p493
(lp494
(g161
F32.0
g8
V4*4*2
p495
tp496
aS'QIQIWU'
p497
(lp498
V2016-10-18 00:45:09
p499
tp500
a(g8
V32
p501
(lp502
(g161
F32.0
g8
g501
tp503
aS'alebedev'
p504
(lp505
V2016-10-18 00:02:26
p506
tp507
a(g8
V(C(4,1) * C(4,1)) + (C(4,1) * C(4,1))
p508
(lp509
(g161
F32.0
g8
g508
tp510
aS'Ryan_Yi'
p511
(lp512
V2016-10-16 05:07:06
p513
tp514
a(g8
V(C(4,1) * C(4,1)) + (C(4,1) * C(4,1))
p515
(lp516
(g161
F32.0
g8
g515
tp517
aS'Ryan_Yi'
p518
(lp519
V2016-10-16 05:11:33
p520
tp521
a(g8
V32
p522
(lp523
(g161
F32.0
g8
g522
tp524
aS't2xu'
p525
(lp526
V2016-10-18 08:16:51
p527
tp528
a(g8
V(C(4, 1) * C(4, 1)) * 2
p529
(lp530
(g161
F32.0
g8
g529
tp531
aS'JasonHuang'
p532
(lp533
V2016-10-18 23:48:00
p534
tp535
a(g8
V(4*4)+(4*4)
p536
(lp537
(g161
F32.0
g8
g536
tp538
aS'evahuynh'
p539
(lp540
V2016-10-18 02:13:30
p541
tp542
a(g8
V(4*4)+(4*4)
p543
(lp544
(g161
F32.0
g8
g543
tp545
aS'evahuynh'
p546
(lp547
V2016-10-18 02:18:59
p548
tp549
a(g8
V16+16
p550
(lp551
(g161
F32.0
g8
g550
tp552
aS'evahuynh'
p553
(lp554
V2016-10-18 02:36:36
p555
tp556
a(g8
V16+16
p557
(lp558
(g161
F32.0
g8
g557
tp559
aS'evahuynh'
p560
(lp561
V2016-10-18 02:40:36
p562
tp563
a(g8
V32
p564
(lp565
(g161
F32.0
g8
g564
tp566
aS'evahuynh'
p567
(lp568
V2016-10-18 02:41:04
p569
tp570
a(g8
V32
p571
(lp572
(g161
F32.0
g8
g571
tp573
aS'evahuynh'
p574
(lp575
V2016-10-18 02:44:38
p576
tp577
a(g8
V32
p578
(lp579
(g161
F32.0
g8
g578
tp580
aS'evahuynh'
p581
(lp582
V2016-10-18 03:03:26
p583
tp584
a(g8
VC(4,1)*(C(4,1)+C(4,1))
p585
(lp586
(g161
F32.0
g8
g585
tp587
aS'aives'
p588
(lp589
V2016-10-19 00:53:45
p590
tp591
a(g8
VC(4,1)*(2*C(4,1))
p592
(lp593
(g161
F32.0
g8
g592
tp594
aS'aives'
p595
(lp596
V2016-10-19 01:00:27
p597
tp598
a(g8
VC(4,1)*C(8,1)
p599
(lp600
(g161
F32.0
g8
g599
tp601
aS'yuhan'
p602
(lp603
V2016-10-18 04:01:35
p604
tp605
a(g8
V32
p606
(lp607
(g161
F32.0
g8
g606
tp608
aS'Zeyi'
p609
(lp610
V2016-10-18 19:40:28
p611
tp612
a(g8
V4*8
p613
(lp614
(g161
F32.0
g8
g613
tp615
aS'KevinKlein'
p616
(lp617
V2016-10-18 03:24:00
p618
tp619
a(g8
V32
p620
(lp621
(g161
F32.0
g8
g620
tp622
aS'JiangfengYin'
p623
(lp624
V2016-10-19 06:59:33
p625
tp626
a(g8
V4*4 + 4*4
p627
(lp628
(g161
F32.0
g8
g627
tp629
aS'dillonliu'
p630
(lp631
V2016-10-18 03:52:06
p632
tp633
a(g8
V4*4 + 4*4
p634
(lp635
(g161
F32.0
g8
g634
tp636
aS'dillonliu'
p637
(lp638
V2016-10-18 03:54:27
p639
tp640
a(g8
V4*4 + 4*4
p641
(lp642
(g161
F32.0
g8
g641
tp643
aS'dillonliu'
p644
(lp645
V2016-10-18 03:57:29
p646
tp647
a(g8
V4*8
p648
(lp649
(g161
F32.0
g8
g648
tp650
aS'URajkumar'
p651
(lp652
V2016-10-18 21:43:53
p653
tp654
a(g8
V4*8
p655
(lp656
(g161
F32.0
g8
g655
tp657
aS'URajkumar'
p658
(lp659
V2016-10-18 21:44:52
p660
tp661
a(g8
V4*8
p662
(lp663
(g161
F32.0
g8
g662
tp664
aS'URajkumar'
p665
(lp666
V2016-10-18 21:45:14
p667
tp668
a(g8
VC(4,1)C(8,1)
p669
(lp670
(g161
F32.0
g8
g669
tp671
aS'ShannonWang'
p672
(lp673
V2016-10-17 06:05:20
p674
tp675
a(g8
V4*C(8,1)
p676
(lp677
(g161
F32.0
g8
g676
tp678
aS'ottojursch'
p679
(lp680
V2016-10-19 07:03:12
p681
tp682
a(g8
V32
p683
(lp684
(g161
F32.0
g8
g683
tp685
aS'maddymanu'
p686
(lp687
V2016-10-16 19:46:56
p688
tp689
a(g8
V32
p690
(lp691
(g161
F32.0
g8
g690
tp692
aS'maddymanu'
p693
(lp694
V2016-10-16 19:48:38
p695
tp696
a(g8
VC(4,1)*C(4,1) + C(4,1)*C(4,1)
p697
(lp698
(g161
F32.0
g8
g697
tp699
aS'ThuanNguyen'
p700
(lp701
V2016-10-19 04:08:16
p702
tp703
a(g8
VC(4,1)*C(4,1) + C(4,1)*C(4,1)
p704
(lp705
(g161
F32.0
g8
g704
tp706
aS'ThuanNguyen'
p707
(lp708
V2016-10-19 04:09:24
p709
tp710
a(g8
V8*4
p711
(lp712
(g161
F32.0
g8
g711
tp713
aS'piamsiri'
p714
(lp715
V2016-10-18 04:57:44
p716
tp717
a(g8
V32
p718
(lp719
(g161
F32.0
g8
g718
tp720
aS'piamsiri'
p721
(lp722
V2016-10-18 04:59:24
p723
tp724
a(g8
V32
p725
(lp726
(g161
F32.0
g8
g725
tp727
aS'piamsiri'
p728
(lp729
V2016-10-18 04:59:47
p730
tp731
a(g8
V32
p732
(lp733
(g161
F32.0
g8
g732
tp734
aS'piamsiri'
p735
(lp736
V2016-10-18 05:00:56
p737
tp738
a(g8
V32
p739
(lp740
(g161
F32.0
g8
g739
tp741
aS'piamsiri'
p742
(lp743
V2016-10-18 05:01:33
p744
tp745
a(g8
V32
p746
(lp747
(g161
F32.0
g8
g746
tp748
aS'piamsiri'
p749
(lp750
V2016-10-18 05:01:55
p751
tp752
a(g8
V32
p753
(lp754
(g161
F32.0
g8
g753
tp755
aS'piamsiri'
p756
(lp757
V2016-10-18 05:06:49
p758
tp759
a(g8
V32
p760
(lp761
(g161
F32.0
g8
g760
tp762
aS'piamsiri'
p763
(lp764
V2016-10-18 05:38:59
p765
tp766
a(g8
V32
p767
(lp768
(g161
F32.0
g8
g767
tp769
aS'piamsiri'
p770
(lp771
V2016-10-18 05:39:53
p772
tp773
a(g8
V32
p774
(lp775
(g161
F32.0
g8
g774
tp776
aS'piamsiri'
p777
(lp778
V2016-10-18 05:47:13
p779
tp780
a(g8
V32
p781
(lp782
(g161
F32.0
g8
g781
tp783
aS'piamsiri'
p784
(lp785
V2016-10-18 05:47:45
p786
tp787
a(g8
V32
p788
(lp789
(g161
F32.0
g8
g788
tp790
aS'piamsiri'
p791
(lp792
V2016-10-18 06:05:23
p793
tp794
a(g8
V32
p795
(lp796
(g161
F32.0
g8
g795
tp797
aS'piamsiri'
p798
(lp799
V2016-10-18 06:05:49
p800
tp801
a(g8
V32
p802
(lp803
(g161
F32.0
g8
g802
tp804
aS'piamsiri'
p805
(lp806
V2016-10-18 06:07:01
p807
tp808
a(g8
V32
p809
(lp810
(g161
F32.0
g8
g809
tp811
aS'piamsiri'
p812
(lp813
V2016-10-18 06:12:40
p814
tp815
a(g8
V32
p816
(lp817
(g161
F32.0
g8
g816
tp818
aS'piamsiri'
p819
(lp820
V2016-10-18 06:16:46
p821
tp822
a(g8
V32
p823
(lp824
(g161
F32.0
g8
g823
tp825
aS'piamsiri'
p826
(lp827
V2016-10-18 06:20:42
p828
tp829
a(g8
V32
p830
(lp831
(g161
F32.0
g8
g830
tp832
aS'piamsiri'
p833
(lp834
V2016-10-18 06:22:17
p835
tp836
a(g8
VC(4,1)*C(8,1)
p837
(lp838
(g161
F32.0
g8
g837
tp839
aS'christywong'
p840
(lp841
V2016-10-18 17:31:53
p842
tp843
a(g8
V(C(4,1)+C(4,1))C(4,1)
p844
(lp845
(g161
F32.0
g8
g844
tp846
aS'DannyDelCerro'
p847
(lp848
V2016-10-16 22:11:02
p849
tp850
a(g8
V(C(4,1)+C(4,1))C(4,1)
p851
(lp852
(g161
F32.0
g8
g851
tp853
aS'DannyDelCerro'
p854
(lp855
V2016-10-16 22:12:56
p856
tp857
a(g8
V4*8
p858
(lp859
(g161
F32.0
g8
g858
tp860
aS'k1siu'
p861
(lp862
V2016-10-16 05:17:09
p863
tp864
a(g8
V4*4*2
p865
(lp866
(g161
F32.0
g8
g865
tp867
aS'wheilson'
p868
(lp869
V2016-10-18 22:03:21
p870
tp871
a(g8
V4*4*2
p872
(lp873
(g161
F32.0
g8
g872
tp874
aS'wheilson'
p875
(lp876
V2016-10-18 22:04:03
p877
tp878
a(g8
V32
p879
(lp880
(g161
F32.0
g8
g879
tp881
aS'Ian'
p882
(lp883
V2016-10-19 18:43:02
p884
tp885
a(g8
V32
p886
(lp887
(g161
F32.0
g8
g886
tp888
aS'til005'
p889
(lp890
V2016-10-18 04:04:23
p891
tp892
a(g8
V32
p893
(lp894
(g161
F32.0
g8
g893
tp895
aS'til005'
p896
(lp897
V2016-10-18 04:06:05
p898
tp899
a(g8
V32
p900
(lp901
(g161
F32.0
g8
g900
tp902
aS'KimberlyLy'
p903
(lp904
V2016-10-18 21:39:00
p905
tp906
a(g8
V4*(4+4)
p907
(lp908
(g161
F32.0
g8
g907
tp909
aS'yphilip'
p910
(lp911
V2016-10-18 18:51:37
p912
tp913
a(g8
V32
p914
(lp915
(g161
F32.0
g8
g914
tp916
aS'yphilip'
p917
(lp918
V2016-10-18 18:53:06
p919
tp920
a(g8
V4*4*2
p921
(lp922
(g161
F32.0
g8
g921
tp923
aS'Zhongting'
p924
(lp925
V2016-10-16 07:01:06
p926
tp927
a(g8
V(4*8)
p928
(lp929
(g161
F32.0
g8
V4*8
p930
tp931
aS'mbland'
p932
(lp933
V2016-10-17 22:19:49
p934
tp935
a(g8
V32
p936
(lp937
(g161
F32.0
g8
g936
tp938
aS'Ryan'
p939
(lp940
V2016-10-19 08:56:10
p941
tp942
a(g8
V32
p943
(lp944
(g161
F32.0
g8
g943
tp945
aS'Ryan'
p946
(lp947
V2016-10-19 08:56:42
p948
tp949
a(g8
V32
p950
(lp951
(g161
F32.0
g8
g950
tp952
aS'Ryan'
p953
(lp954
V2016-10-19 09:01:54
p955
tp956
a(g8
V32
p957
(lp958
(g161
F32.0
g8
g957
tp959
aS'Ryan'
p960
(lp961
V2016-10-19 09:03:24
p962
tp963
a(g8
V32
p964
(lp965
(g161
F32.0
g8
g964
tp966
aS'Ryan'
p967
(lp968
V2016-10-19 09:07:41
p969
tp970
a(g8
V32
p971
(lp972
(g161
F32.0
g8
g971
tp973
aS'Ryan'
p974
(lp975
V2016-10-19 09:08:03
p976
tp977
a(g8
V32
p978
(lp979
(g161
F32.0
g8
g978
tp980
aS'Ryan'
p981
(lp982
V2016-10-19 09:09:02
p983
tp984
a(g8
V32
p985
(lp986
(g161
F32.0
g8
g985
tp987
aS'jih089'
p988
(lp989
V2016-10-16 07:51:24
p990
tp991
a(g8
V32
p992
(lp993
(g161
F32.0
g8
g992
tp994
aS'jih089'
p995
(lp996
V2016-10-16 07:51:49
p997
tp998
a(g8
V32
p999
(lp1000
(g161
F32.0
g8
g999
tp1001
aS'Ken_Truong'
p1002
(lp1003
V2016-10-16 10:14:44
p1004
tp1005
a(g8
V32
p1006
(lp1007
(g161
F32.0
g8
g1006
tp1008
aS'Ken_Truong'
p1009
(lp1010
V2016-10-16 10:17:17
p1011
tp1012
a(g8
V32
p1013
(lp1014
(g161
F32.0
g8
g1013
tp1015
aS'Ken_Truong'
p1016
(lp1017
V2016-10-16 10:17:50
p1018
tp1019
a(g8
V32
p1020
(lp1021
(g161
F32.0
g8
g1020
tp1022
aS'Ken_Truong'
p1023
(lp1024
V2016-10-16 10:25:10
p1025
tp1026
a(g8
V32
p1027
(lp1028
(g161
F32.0
g8
g1027
tp1029
aS'Ken_Truong'
p1030
(lp1031
V2016-10-16 10:31:10
p1032
tp1033
a(g8
V16+16
p1034
(lp1035
(g161
F32.0
g8
g1034
tp1036
aS'Guillermo'
p1037
(lp1038
V2016-10-16 20:13:04
p1039
tp1040
a(g8
V16+16
p1041
(lp1042
(g161
F32.0
g8
g1041
tp1043
aS'Guillermo'
p1044
(lp1045
V2016-10-16 20:13:30
p1046
tp1047
a(g8
V4*8
p1048
(lp1049
(g161
F32.0
g8
g1048
tp1050
aS'RobinO'
p1051
(lp1052
V2016-10-18 03:42:25
p1053
tp1054
a(g8
VC(4,1)*C(8,1)
p1055
(lp1056
(g161
F32.0
g8
g1055
tp1057
aS'srrozen'
p1058
(lp1059
V2016-10-18 07:36:16
p1060
tp1061
a(g8
V4*8
p1062
(lp1063
(g161
F32.0
g8
g1062
tp1064
aS'zow006'
p1065
(lp1066
V2016-10-17 22:48:58
p1067
tp1068
a(g8
V4*8
p1069
(lp1070
(g161
F32.0
g8
g1069
tp1071
aS'kmesic'
p1072
(lp1073
V2016-10-17 22:44:34
p1074
tp1075
a(g8
V4*8
p1076
(lp1077
(g161
F32.0
g8
g1076
tp1078
aS'kmesic'
p1079
(lp1080
V2016-10-17 22:46:03
p1081
tp1082
a(g8
V4*4 + 4 * 4
p1083
(lp1084
(g161
F32.0
g8
g1083
tp1085
aS'zhc047'
p1086
(lp1087
V2016-10-19 04:37:51
p1088
tp1089
a(g8
V4*4 + 4*4
p1090
(lp1091
(g161
F32.0
g8
g1090
tp1092
aS'zhc047'
p1093
(lp1094
V2016-10-19 04:38:32
p1095
tp1096
a(g8
VC(4,1) * C(8,1)
p1097
(lp1098
(g161
F32.0
g8
g1097
tp1099
aS'bfalk'
p1100
(lp1101
V2016-10-17 22:19:41
p1102
tp1103
a(g8
V32
p1104
(lp1105
(g161
F32.0
g8
g1104
tp1106
aS'JoshuaKomala'
p1107
(lp1108
V2016-10-19 00:28:28
p1109
tp1110
a(g8
V4*8
p1111
(lp1112
(g161
F32.0
g8
g1111
tp1113
aS'kballew00'
p1114
(lp1115
V2016-10-19 15:02:16
p1116
tp1117
a(g8
V4*8
p1118
(lp1119
(g161
F32.0
g8
g1118
tp1120
aS'kballew00'
p1121
(lp1122
V2016-10-19 15:04:04
p1123
tp1124
a(g8
V32
p1125
(lp1126
(g161
F32.0
g8
g1125
tp1127
aS'thartopu'
p1128
(lp1129
V2016-10-19 11:56:31
p1130
tp1131
a(g8
V4*2*4
p1132
(lp1133
(g161
F32.0
g8
g1132
tp1134
aS'maxcjx'
p1135
(lp1136
V2016-10-18 03:40:37
p1137
tp1138
a(g8
V4 * 8
p1139
(lp1140
(g161
F32.0
g8
g1139
tp1141
aS'PizzaPolice'
p1142
(lp1143
V2016-10-17 08:21:09
p1144
tp1145
a(g8
V4^2+4^2
p1146
(lp1147
(g161
F32.0
g8
g1146
tp1148
aS'HaoDong'
p1149
(lp1150
V2016-10-16 06:11:52
p1151
tp1152
a(g8
V4 * 8
p1153
(lp1154
(g161
F32.0
g8
g1153
tp1155
aS'mhatch'
p1156
(lp1157
V2016-10-19 04:51:09
p1158
tp1159
a(g8
V4*8
p1160
(lp1161
(g161
F32.0
g8
g1160
tp1162
aS'Sync'
p1163
(lp1164
V2016-10-18 20:45:15
p1165
tp1166
a(g8
V4*8
p1167
(lp1168
(g161
F32.0
g8
g1167
tp1169
aS'Sync'
p1170
(lp1171
V2016-10-18 20:46:18
p1172
tp1173
a(g8
V32
p1174
(lp1175
(g161
F32.0
g8
g1174
tp1176
aS'DarrenYang'
p1177
(lp1178
V2016-10-17 02:13:24
p1179
tp1180
a(g8
V4*8
p1181
(lp1182
(g161
F32.0
g8
g1181
tp1183
aS'nicoleyfq'
p1184
(lp1185
V2016-10-19 18:13:06
p1186
tp1187
assS'2'
p1188
g2
(g3
tp1189
Rp1190
g6
(lp1191
(S'(4 * 8) / C(52-5, 2)'
p1192
V32
p1193
tp1194
a(g1192
V32
p1195
tp1196
a(g1192
V1
p1197
tp1198
asS"['R.0.0']"
p1199
(lp1200
(g1192
V4*2 / (C(52,5))
p1201
(lp1202
(S'R.0.0'
p1203
F4.0
g50
g65
tp1204
ag92
(lp1205
V2016-10-18 21:44:29
p1206
tp1207
asS"['R.0', 'R.1.0.0']"
p1208
(lp1209
(g1192
V32/(C(52,2)*C(50,3))
p1210
(lp1211
(S'R.0'
p1212
F32.0
S'4 * 8'
p1213
V32
p1214
tp1215
a(S'R.1.0.0'
p1216
F52.0
S'52'
p1217
V52
p1218
tp1219
ag805
(lp1220
V2016-10-18 06:07:01
p1221
tp1222
asS"['R.1']"
p1223
(lp1224
(g1192
V(16+178)/(1081)
p1225
(lp1226
(S'R.1'
p1227
I1081
S'C(52-5, 2)'
p1228
V1081
p1229
tp1230
aS'yazin-yousif'
p1231
(lp1232
V2016-10-19 05:34:30
p1233
tp1234
a(g1192
V(4!+4!)/C(47,2)
p1235
(lp1236
(S'R.1'
p1237
I1081
S'C(52-5, 2)'
p1238
VC(47,2)
p1239
tp1240
aS'NicoleStone'
p1241
(lp1242
V2016-10-16 04:21:53
p1243
tp1244
a(g1192
V8/C(47, 2)
p1245
(lp1246
(S'R.1'
p1247
I1081
S'C(52-5, 2)'
p1248
VC(47, 2)
p1249
tp1250
aS'YuqinWu'
p1251
(lp1252
V2016-10-16 21:28:30
p1253
tp1254
a(g1192
VC(8,2)/C(47,2)
p1255
(lp1256
(S'R.1'
p1257
I1081
S'C(52-5, 2)'
p1258
VC(47,2)
p1259
tp1260
aS'ottojursch'
p1261
(lp1262
V2016-10-19 06:58:46
p1263
tp1264
a(g1192
V8/C(47,2)
p1265
(lp1266
(S'R.1'
p1267
I1081
S'C(52-5, 2)'
p1268
VC(47,2)
p1269
tp1270
aS'Ryan'
p1271
(lp1272
V2016-10-18 17:26:21
p1273
tp1274
a(g1192
V16/C(47,2)
p1275
(lp1276
(S'R.1'
p1277
I1081
S'C(52-5, 2)'
p1278
VC(47,2)
p1279
tp1280
aS'Ryan'
p1281
(lp1282
V2016-10-18 17:27:09
p1283
tp1284
a(g1192
V2/1081
p1285
(lp1286
(S'R.1'
p1287
I1081
S'C(52-5, 2)'
p1288
V1081
p1289
tp1290
aS'Safai'
p1291
(lp1292
V2016-10-19 01:47:22
p1293
tp1294
a(g1192
V(4*8-2)/C(47,2)
p1295
(lp1296
(S'R.1'
p1297
I1081
S'C(52-5, 2)'
p1298
VC(47,2)
p1299
tp1300
aS'kballew00'
p1301
(lp1302
V2016-10-18 20:25:51
p1303
tp1304
a(g1192
V(3*4**2)/C(52-5,2)
p1305
(lp1306
(S'R.1'
p1307
I1081
S'C(52-5, 2)'
p1308
VC(52-5,2)
p1309
tp1310
aS'thartopu'
p1311
(lp1312
V2016-10-19 11:55:59
p1313
tp1314
asS"['R.0.0', 'R.1']"
p1315
(lp1316
(g1192
V4^3/C(47, 2)
p1317
(lp1318
(S'R.0.0'
p1319
F4.0
g50
g65
tp1320
a(S'R.1'
p1321
I1081
S'C(52-5, 2)'
p1322
VC(47, 2)
p1323
tp1324
ag75
(lp1325
V2016-10-18 03:45:25
p1326
tp1327
a(g1192
V2* 2 * C(4, 1) / C(47, 2)
p1328
(lp1329
(S'R.0.0'
p1330
F4.0
g50
V2* 2
p1331
tp1332
a(S'R.1'
p1333
I1081
S'C(52-5, 2)'
p1334
VC(47, 2)
p1335
tp1336
ag84
(lp1337
V2016-10-18 23:47:10
p1338
tp1339
a(g1192
V4*C(8,2)/C(47,2)
p1340
(lp1341
(S'R.0.0'
p1342
F4.0
g50
g65
tp1343
a(S'R.1'
p1344
I1081
S'C(52-5, 2)'
p1345
VC(47,2)
p1346
tp1347
ag100
(lp1348
V2016-10-19 06:59:22
p1349
tp1350
a(g1192
V(4*C(8,2))/C(47,2)
p1351
(lp1352
(S'R.0.0'
p1353
F4.0
g50
g65
tp1354
a(S'R.1'
p1355
I1081
S'C(52-5, 2)'
p1356
VC(47,2)
p1357
tp1358
ag108
(lp1359
V2016-10-19 07:02:37
p1360
tp1361
a(g1192
V(4*4)/(47!/(2!*45!))
p1362
(lp1363
(S'R.0.0'
p1364
F4.0
g50
g65
tp1365
a(S'R.1'
p1366
I1081
S'C(52-5, 2)'
p1367
V47!/(2!*45!)
p1368
tp1369
ag141
(lp1370
V2016-10-18 03:41:59
p1371
tp1372
a(g1192
V(4 * C(8, 2))/C(47,2)
p1373
(lp1374
(S'R.0.0'
p1375
F4.0
g50
g65
tp1376
a(S'R.1'
p1377
I1081
S'C(52-5, 2)'
p1378
VC(47,2)
p1379
tp1380
ag149
(lp1381
V2016-10-19 04:49:36
p1382
tp1383
asS"['R.0', 'R.1.0', 'R.1.1']"
p1384
(lp1385
(g1192
V32/P(47,2)
p1386
(lp1387
(S'R.0'
p1388
F32.0
S'4 * 8'
p1389
V32
p1390
tp1391
a(S'R.1.0'
p1392
F47.0
S'52-5'
p1393
V47
p1394
tp1395
a(S'R.1.1'
p1396
F2.0
S'2'
p1397
V2
p1398
tp1399
ag1086
(lp1400
V2016-10-19 04:37:51
p1401
tp1402
asS"['R.0']"
p1403
(lp1404
(g1192
V(C(4,1)*(C(4,1) + C(4,1)))/P(52,5)
p1405
(lp1406
(S'R.0'
p1407
F32.0
S'4 * 8'
p1408
VC(4,1)*(C(4,1) + C(4,1))
p1409
tp1410
ag212
(lp1411
V2016-10-17 21:55:51
p1412
tp1413
a(g1192
V(C(4,1)*(C(4,1) + C(4,1)))/P(52,5)
p1414
(lp1415
(S'R.0'
p1416
F32.0
S'4 * 8'
p1417
VC(4,1)*(C(4,1) + C(4,1))
p1418
tp1419
ag219
(lp1420
V2016-10-17 21:57:29
p1421
tp1422
a(g1192
V(C(4,1)*(C(4,1) + C(4,1)))/(1/C(52,5))
p1423
(lp1424
(S'R.0'
p1425
F32.0
S'4 * 8'
p1426
VC(4,1)*(C(4,1) + C(4,1))
p1427
tp1428
ag226
(lp1429
V2016-10-17 22:02:28
p1430
tp1431
a(g1192
V( C(4,1)*(C(4,1) + C(4,1)))/P(52,5)
p1432
(lp1433
(S'R.0'
p1434
F32.0
S'4 * 8'
p1435
VC(4,1)*(C(4,1) + C(4,1))
p1436
tp1437
ag241
(lp1438
V2016-10-17 22:21:04
p1439
tp1440
a(g1192
V(C(4,1)*(C(4,1) + C(4,1)))/(1/P(52,5))
p1441
(lp1442
(S'R.0'
p1443
F32.0
S'4 * 8'
p1444
VC(4,1)*(C(4,1) + C(4,1))
p1445
tp1446
ag248
(lp1447
V2016-10-17 22:24:15
p1448
tp1449
a(g1192
V(C(4,1)*(C(4,1) + C(4,1)))/( C(52,5)*C(47,2)/C(52,7) )
p1450
(lp1451
(S'R.0'
p1452
F32.0
S'4 * 8'
p1453
VC(4,1)*(C(4,1) + C(4,1))
p1454
tp1455
ag292
(lp1456
V2016-10-17 22:59:15
p1457
tp1458
a(g1192
V(C(4,1)*C(8,1))/C(52,5)
p1459
(lp1460
(S'R.0'
p1461
F32.0
S'4 * 8'
p1462
VC(4,1)*C(8,1)
p1463
tp1464
ag390
(lp1465
V2016-10-17 02:19:12
p1466
tp1467
a(g1192
V(4^2 * 2) / (1 / C(52, 5))
p1468
(lp1469
(S'R.0'
p1470
F32.0
S'4 * 8'
p1471
V4^2 * 2
p1472
tp1473
ag460
(lp1474
V2016-10-19 00:51:47
p1475
tp1476
a(g1192
V4*4*2/C(50,3)
p1477
(lp1478
(S'R.0'
p1479
F32.0
S'4 * 8'
p1480
V4*4*2
p1481
tp1482
ag481
(lp1483
V2016-10-18 00:43:27
p1484
tp1485
a(g1192
V(4*4*2)/C(50,3)
p1486
(lp1487
(S'R.0'
p1488
F32.0
S'4 * 8'
p1489
V4*4*2
p1490
tp1491
ag489
(lp1492
V2016-10-18 00:43:48
p1493
tp1494
a(g1192
V((C(4,1) * C(4,1)) + (C(4,1) * C(4,1)))/(C(52,7))
p1495
(lp1496
(S'R.0'
p1497
F32.0
S'4 * 8'
p1498
V(C(4,1) * C(4,1)) + (C(4,1) * C(4,1))
p1499
tp1500
ag511
(lp1501
V2016-10-16 05:07:06
p1502
tp1503
a(g1192
V32/ C(52,5)
p1504
(lp1505
(S'R.0'
p1506
F32.0
S'4 * 8'
p1507
V32
p1508
tp1509
ag567
(lp1510
V2016-10-18 02:41:04
p1511
tp1512
a(g1192
VC(4,1)*(C(4,1)+C(4,1))/C(52,5)
p1513
(lp1514
(S'R.0'
p1515
F32.0
S'4 * 8'
p1516
VC(4,1)*(C(4,1)+C(4,1))
p1517
tp1518
ag588
(lp1519
V2016-10-19 00:53:45
p1520
tp1521
a(g1192
V4*8 / C(52,5)
p1522
(lp1523
(S'R.0'
p1524
F32.0
S'4 * 8'
p1525
V4*8
p1526
tp1527
ag658
(lp1528
V2016-10-18 21:44:52
p1529
tp1530
a(g1192
V32/(C(52,5))
p1531
(lp1532
(S'R.0'
p1533
F32.0
S'4 * 8'
p1534
V32
p1535
tp1536
ag728
(lp1537
V2016-10-18 04:59:47
p1538
tp1539
a(g1192
V32/3125
p1540
(lp1541
(S'R.0'
p1542
F32.0
S'4 * 8'
p1543
V32
p1544
tp1545
ag735
(lp1546
V2016-10-18 05:00:56
p1547
tp1548
a(g1192
V32/5!
p1549
(lp1550
(S'R.0'
p1551
F32.0
S'4 * 8'
p1552
V32
p1553
tp1554
ag742
(lp1555
V2016-10-18 05:01:33
p1556
tp1557
a(g1192
V32 / (5!)
p1558
(lp1559
(S'R.0'
p1560
F32.0
S'4 * 8'
p1561
V32
p1562
tp1563
ag749
(lp1564
V2016-10-18 05:01:55
p1565
tp1566
a(g1192
V32/(52*51*50*49*48)
p1567
(lp1568
(S'R.0'
p1569
F32.0
S'4 * 8'
p1570
V32
p1571
tp1572
ag756
(lp1573
V2016-10-18 05:06:49
p1574
tp1575
a(g1192
V32/(C(52,5))
p1576
(lp1577
(S'R.0'
p1578
F32.0
S'4 * 8'
p1579
V32
p1580
tp1581
ag763
(lp1582
V2016-10-18 05:38:59
p1583
tp1584
a(g1192
V32 / (C(52,5))
p1585
(lp1586
(S'R.0'
p1587
F32.0
S'4 * 8'
p1588
V32
p1589
tp1590
ag770
(lp1591
V2016-10-18 05:39:53
p1592
tp1593
a(g1192
V32 / C(52,5)
p1594
(lp1595
(S'R.0'
p1596
F32.0
S'4 * 8'
p1597
V32
p1598
tp1599
ag784
(lp1600
V2016-10-18 05:47:45
p1601
tp1602
a(g1192
V32 / C(13,5)
p1603
(lp1604
(S'R.0'
p1605
F32.0
S'4 * 8'
p1606
V32
p1607
tp1608
aS'piamsiri'
p1609
(lp1610
V2016-10-18 05:48:09
p1611
tp1612
a(g1192
V32 / 5
p1613
(lp1614
(S'R.0'
p1615
F32.0
S'4 * 8'
p1616
V32
p1617
tp1618
aS'piamsiri'
p1619
(lp1620
V2016-10-18 05:49:22
p1621
tp1622
a(g1192
V32 / (1/(C(52,5)))
p1623
(lp1624
(S'R.0'
p1625
F32.0
S'4 * 8'
p1626
V32
p1627
tp1628
aS'piamsiri'
p1629
(lp1630
V2016-10-18 06:15:08
p1631
tp1632
a(g1192
V32/100
p1633
(lp1634
(S'R.0'
p1635
F32.0
S'4 * 8'
p1636
V32
p1637
tp1638
ag826
(lp1639
V2016-10-18 06:20:42
p1640
tp1641
a(g1192
V32/C(52,5)
p1642
(lp1643
(S'R.0'
p1644
F32.0
S'4 * 8'
p1645
V32
p1646
tp1647
ag946
(lp1648
V2016-10-19 08:56:42
p1649
tp1650
a(g1192
V32/C(52,5)
p1651
(lp1652
(S'R.0'
p1653
F32.0
S'4 * 8'
p1654
V32
p1655
tp1656
ag960
(lp1657
V2016-10-19 09:03:24
p1658
tp1659
a(g1192
V32 / C(52,5)
p1660
(lp1661
(S'R.0'
p1662
F32.0
S'4 * 8'
p1663
V32
p1664
tp1665
ag1016
(lp1666
V2016-10-16 10:17:50
p1667
tp1668
a(g1192
V32 / 2598960
p1669
(lp1670
(S'R.0'
p1671
F32.0
S'4 * 8'
p1672
V32
p1673
tp1674
ag1023
(lp1675
V2016-10-16 10:25:10
p1676
tp1677
a(g1192
V32/C(52,5)
p1678
(lp1679
(S'R.0'
p1680
F32.0
S'4 * 8'
p1681
V32
p1682
tp1683
ag1072
(lp1684
V2016-10-17 22:44:34
p1685
tp1686
asS"['R.0', 'R.1.1']"
p1687
(lp1688
(g1192
V((4*4)+(4*4))/(C(52,2))
p1689
(lp1690
(S'R.0'
p1691
F32.0
S'4 * 8'
p1692
V(4*4)+(4*4)
p1693
tp1694
a(S'R.1.1'
p1695
F2.0
g1397
g1398
tp1696
ag546
(lp1697
V2016-10-18 02:18:59
p1698
tp1699
a(g1192
V32/ (C(52,2))
p1700
(lp1701
(S'R.0'
p1702
F32.0
S'4 * 8'
p1703
V32
p1704
tp1705
a(S'R.1.1'
p1706
F2.0
g1397
g1398
tp1707
ag553
(lp1708
V2016-10-18 02:36:36
p1709
tp1710
a(g1192
V32/C(52,2)
p1711
(lp1712
(S'R.0'
p1713
F32.0
S'4 * 8'
p1714
V32
p1715
tp1716
a(S'R.1.1'
p1717
F2.0
g1397
g1398
tp1718
ag560
(lp1719
V2016-10-18 02:40:36
p1720
tp1721
a(g1192
V(4*(4+4))/C(52,2)
p1722
(lp1723
(S'R.0'
p1724
F32.0
S'4 * 8'
p1725
V4*(4+4)
p1726
tp1727
a(S'R.1.1'
p1728
F2.0
g1397
g1398
tp1729
ag574
(lp1730
V2016-10-18 02:44:38
p1731
tp1732
a(g1192
V32/C(52,2)
p1733
(lp1734
(S'R.0'
p1735
F32.0
S'4 * 8'
p1736
V32
p1737
tp1738
a(S'R.1.1'
p1739
F2.0
g1397
g1398
tp1740
ag967
(lp1741
V2016-10-19 09:07:41
p1742
tp1743
asS"['R.0.0', 'R.0.1']"
p1744
(lp1745
(g1192
V(C(4,1) + C(8,1))/1
p1746
(lp1747
(S'R.0.0'
p1748
F4.0
g50
VC(4,1)
p1749
tp1750
a(S'R.0.1'
p1751
F8.0
g38
VC(8,1)
p1752
tp1753
ag56
(lp1754
V2016-10-19 09:14:45
p1755
tp1756
asS"['R.1.0.0']"
p1757
(lp1758
(g1192
V(C(32,5)-C(20,5))/(C(52,5)-C(40,5))
p1759
(lp1760
(S'R.1.0.0'
p1761
F52.0
S'52'
p1762
V52
p1763
tp1764
aS'thartopu'
p1765
(lp1766
V2016-10-19 11:54:28
p1767
tp1768
asS"['R.1.0.0', 'R.1.0.1']"
p1769
(lp1770
(g1192
V16/(C(52,5)-C(47,5))
p1771
(lp1772
(S'R.1.0.0'
p1773
F52.0
S'52'
p1774
V52
p1775
tp1776
a(S'R.1.0.1'
p1777
F5.0
S'5'
p1778
V5
p1779
tp1780
aS'til005'
p1781
(lp1782
V2016-10-18 04:03:32
p1783
tp1784
asS"['R.0', 'R.1.0.1']"
p1785
(lp1786
(g1192
V(C(4,1)*(C(4,1) + C(4,1)))/((C(4,1)^5)/C(52,5))
p1787
(lp1788
(S'R.0'
p1789
F32.0
S'4 * 8'
p1790
VC(4,1)*(C(4,1) + C(4,1))
p1791
tp1792
a(S'R.1.0.1'
p1793
F5.0
g1778
g1779
tp1794
ag233
(lp1795
V2016-10-17 22:06:52
p1796
tp1797
a(g1192
V(C(4,1)*(C(4,1) + C(4,1)))/((C(4,1)^5)/P(52,5))
p1798
(lp1799
(S'R.0'
p1800
F32.0
S'4 * 8'
p1801
VC(4,1)*(C(4,1) + C(4,1))
p1802
tp1803
a(S'R.1.0.1'
p1804
F5.0
g1778
g1779
tp1805
ag255
(lp1806
V2016-10-17 22:25:09
p1807
tp1808
a(g1192
V(C(4,1)*(C(4,1) + C(4,1)))/( C(4,1)^5/C(52,7) )
p1809
(lp1810
(S'R.0'
p1811
F32.0
S'4 * 8'
p1812
VC(4,1)*(C(4,1) + C(4,1))
p1813
tp1814
a(S'R.1.0.1'
p1815
F5.0
g1778
g1779
tp1816
ag277
(lp1817
V2016-10-17 22:51:58
p1818
tp1819
asS"['R.0', 'R.1.0']"
p1820
(lp1821
(g1192
V(4*4+4*4)/(47*46)
p1822
(lp1823
(S'R.0'
p1824
F32.0
S'4 * 8'
p1825
V4*4+4*4
p1826
tp1827
a(S'R.1.0'
p1828
F47.0
S'52-5'
p1829
V47
p1830
tp1831
ag630
(lp1832
V2016-10-18 03:52:06
p1833
tp1834
a(g1192
V(4*4+4*4)/(47*46)
p1835
(lp1836
(S'R.0'
p1837
F32.0
S'4 * 8'
p1838
V4*4+4*4
p1839
tp1840
a(S'R.1.0'
p1841
F47.0
S'52-5'
p1842
V47
p1843
tp1844
ag637
(lp1845
V2016-10-18 03:54:27
p1846
tp1847
a(g1192
V32/C(47,5)
p1848
(lp1849
(S'R.0'
p1850
F32.0
S'4 * 8'
p1851
V32
p1852
tp1853
a(S'R.1.0'
p1854
F47.0
S'52-5'
p1855
V47
p1856
tp1857
ag953
(lp1858
V2016-10-19 09:01:54
p1859
tp1860
asS"['R.0', 'R.1.0.0', 'R.1.0.1']"
p1861
(lp1862
(g1192
V(C(4,1)*(C(4,1) + C(4,1)))/( C(52,5)/C(52,7) )
p1863
(lp1864
(S'R.0'
p1865
F32.0
S'4 * 8'
p1866
VC(4,1)*(C(4,1) + C(4,1))
p1867
tp1868
a(S'R.1.0.0'
p1869
F52.0
S'52'
p1870
V52
p1871
tp1872
a(S'R.1.0.1'
p1873
F5.0
g1778
g1779
tp1874
ag269
(lp1875
V2016-10-17 22:51:14
p1876
tp1877
a(g1192
V(C(4,1)*(C(4,1) + C(4,1)))/( C(52,5)/C(52,7) )
p1878
(lp1879
(S'R.0'
p1880
F32.0
S'4 * 8'
p1881
VC(4,1)*(C(4,1) + C(4,1))
p1882
tp1883
a(S'R.1.0.0'
p1884
F52.0
S'52'
p1885
V52
p1886
tp1887
a(S'R.1.0.1'
p1888
F5.0
g1778
g1779
tp1889
ag285
(lp1890
V2016-10-17 22:58:36
p1891
tp1892
a(g1192
V(C(4,1)*(C(4,1) + C(4,1)))/( C(52,5)/C(52,7) )
p1893
(lp1894
(S'R.0'
p1895
F32.0
S'4 * 8'
p1896
VC(4,1)*(C(4,1) + C(4,1))
p1897
tp1898
a(S'R.1.0.0'
p1899
F52.0
S'52'
p1900
V52
p1901
tp1902
a(S'R.1.0.1'
p1903
F5.0
g1778
g1779
tp1904
ag306
(lp1905
V2016-10-17 23:45:36
p1906
tp1907
a(g1192
V(C(4,1)*(C(4,1) + C(4,1)))/( C(52,5)*C(47,2) )
p1908
(lp1909
(S'R.0'
p1910
F32.0
S'4 * 8'
p1911
VC(4,1)*(C(4,1) + C(4,1))
p1912
tp1913
a(S'R.1.0.0'
p1914
F52.0
S'52'
p1915
V52
p1916
tp1917
a(S'R.1.0.1'
p1918
F5.0
g1778
g1779
tp1919
ag313
(lp1920
V2016-10-17 23:48:03
p1921
tp1922
a(g1192
V32/(C(52,5)-C(47,5))
p1923
(lp1924
(S'R.0'
p1925
F32.0
S'4 * 8'
p1926
V32
p1927
tp1928
a(S'R.1.0.0'
p1929
F52.0
S'52'
p1930
V52
p1931
tp1932
a(S'R.1.0.1'
p1933
F5.0
g1778
g1779
tp1934
ag889
(lp1935
V2016-10-18 04:04:23
p1936
tp1937
asS"['R']"
p1938
(lp1939
(g1192
V32/1081
p1940
(lp1941
(g161
F0.02960222016651249
g1192
g1940
tp1942
ag163
(lp1943
V2016-10-19 07:34:19
p1944
tp1945
a(g1192
V32/C(47,2)
p1946
(lp1947
(g161
F0.02960222016651249
g1192
g1946
tp1948
ag170
(lp1949
V2016-10-17 23:56:18
p1950
tp1951
a(g1192
V32/C(47,2)
p1952
(lp1953
(g161
F0.02960222016651249
g1192
g1952
tp1954
ag177
(lp1955
V2016-10-16 04:23:02
p1956
tp1957
a(g1192
V((C(4,1) * C(4,1)) + (C(4,1) * C(4,1)))/(C(47,2))
p1958
(lp1959
(g161
F0.02960222016651249
g1192
g1958
tp1960
ag184
(lp1961
V2016-10-16 06:37:50
p1962
tp1963
a(g1192
V32/C(47,2)
p1964
(lp1965
(g161
F0.02960222016651249
g1192
g1964
tp1966
ag198
(lp1967
V2016-10-16 09:02:29
p1968
tp1969
a(g1192
V(C(4,1)*(C(4,1) + C(4,1)))/(C(47,2) )
p1970
(lp1971
(g161
F0.02960222016651249
g1192
g1970
tp1972
ag320
(lp1973
V2016-10-17 23:48:31
p1974
tp1975
a(g1192
V4*8/C(52-5,2)
p1976
(lp1977
(g161
F0.02960222016651249
g1192
g1976
tp1978
ag327
(lp1979
V2016-10-19 06:38:18
p1980
tp1981
a(g1192
V32/C(47,2)
p1982
(lp1983
(g161
F0.02960222016651249
g1192
g1982
tp1984
ag334
(lp1985
V2016-10-19 19:25:00
p1986
tp1987
a(g1192
V(4*8)/(C(52-5,2))
p1988
(lp1989
(g161
F0.02960222016651249
g1192
g1988
tp1990
ag341
(lp1991
V2016-10-18 23:40:46
p1992
tp1993
a(g1192
V32/C(47,2)
p1994
(lp1995
(g161
F0.02960222016651249
g1192
g1994
tp1996
ag348
(lp1997
V2016-10-19 03:22:58
p1998
tp1999
a(g1192
V32/C(47, 2)
p2000
(lp2001
(g161
F0.02960222016651249
g1192
g2000
tp2002
ag355
(lp2003
V2016-10-19 19:51:42
p2004
tp2005
a(g1192
V4*8 / 1081
p2006
(lp2007
(g161
F0.02960222016651249
g1192
g2006
tp2008
ag362
(lp2009
V2016-10-17 19:45:10
p2010
tp2011
a(g1192
V32/(47*46/2)
p2012
(lp2013
(g161
F0.02960222016651249
g1192
g2012
tp2014
ag369
(lp2015
V2016-10-16 16:36:19
p2016
tp2017
a(g1192
V(4*8)/(C(47,2))
p2018
(lp2019
(g161
F0.02960222016651249
g1192
g2018
tp2020
ag376
(lp2021
V2016-10-16 21:14:58
p2022
tp2023
a(g1192
V(2*4^2)/C(47, 2)
p2024
(lp2025
(g161
F0.02960222016651249
g1192
g2024
tp2026
ag383
(lp2027
V2016-10-18 03:46:26
p2028
tp2029
a(g1192
V(C(4,1)*C(8,1))/C(47,2)
p2030
(lp2031
(g161
F0.02960222016651249
g1192
g2030
tp2032
ag397
(lp2033
V2016-10-17 02:21:24
p2034
tp2035
a(g1192
V32 / C(47,2)
p2036
(lp2037
(g161
F0.02960222016651249
g1192
g2036
tp2038
ag404
(lp2039
V2016-10-17 22:48:46
p2040
tp2041
a(g1192
V(32)/(C(47,2))
p2042
(lp2043
(g161
F0.02960222016651249
g1192
g2042
tp2044
ag411
(lp2045
V2016-10-18 21:08:35
p2046
tp2047
a(g1192
V4*8/C(52-5,2)
p2048
(lp2049
(g161
F0.02960222016651249
g1192
g2048
tp2050
ag418
(lp2051
V2016-10-19 05:50:34
p2052
tp2053
a(g1192
V32/C(47,2)
p2054
(lp2055
(g161
F0.02960222016651249
g1192
g2054
tp2056
ag425
(lp2057
V2016-10-16 21:29:07
p2058
tp2059
a(g1192
V(16+16)/(C(47,2))
p2060
(lp2061
(g161
F0.02960222016651249
g1192
g2060
tp2062
ag432
(lp2063
V2016-10-19 19:14:39
p2064
tp2065
a(g1192
V32/C(47,2)
p2066
(lp2067
(g161
F0.02960222016651249
g1192
g2066
tp2068
ag446
(lp2069
V2016-10-18 19:31:39
p2070
tp2071
a(g1192
V(4^2 * 2) / (C(52 - 5, 2))
p2072
(lp2073
(g161
F0.02960222016651249
g1192
g2072
tp2074
ag467
(lp2075
V2016-10-19 00:54:37
p2076
tp2077
a(g1192
V(4*4*2)/C(52-5,2)
p2078
(lp2079
(g161
F0.02960222016651249
g1192
g2078
tp2080
ag497
(lp2081
V2016-10-18 00:45:09
p2082
tp2083
a(g1192
V32/C(47,2)
p2084
(lp2085
(g161
F0.02960222016651249
g1192
g2084
tp2086
ag504
(lp2087
V2016-10-18 00:02:26
p2088
tp2089
a(g1192
V((C(4,1) * C(4,1)) + (C(4,1) * C(4,1)))/(C(47,2))
p2090
(lp2091
(g161
F0.02960222016651249
g1192
g2090
tp2092
ag518
(lp2093
V2016-10-16 05:11:33
p2094
tp2095
a(g1192
V32/C(47,2)
p2096
(lp2097
(g161
F0.02960222016651249
g1192
g2096
tp2098
ag525
(lp2099
V2016-10-18 08:16:51
p2100
tp2101
a(g1192
V(C(4, 1) * C(4, 1)) * 2 / (C(47, 2))
p2102
(lp2103
(g161
F0.02960222016651249
g1192
g2102
tp2104
ag532
(lp2105
V2016-10-18 23:48:00
p2106
tp2107
a(g1192
V32/C(52-5,2)
p2108
(lp2109
(g161
F0.02960222016651249
g1192
g2108
tp2110
ag581
(lp2111
V2016-10-18 03:03:26
p2112
tp2113
a(g1192
VC(4,1)*(2*C(4,1))/C(47,2)
p2114
(lp2115
(g161
F0.02960222016651249
g1192
g2114
tp2116
ag595
(lp2117
V2016-10-19 01:00:27
p2118
tp2119
a(g1192
VC(4,1)*C(8,1)/C(47,2)
p2120
(lp2121
(g161
F0.02960222016651249
g1192
g2120
tp2122
ag602
(lp2123
V2016-10-18 04:01:35
p2124
tp2125
a(g1192
V32/C(47,2)
p2126
(lp2127
(g161
F0.02960222016651249
g1192
g2126
tp2128
ag609
(lp2129
V2016-10-18 19:40:28
p2130
tp2131
a(g1192
V4*8/C(47,2)
p2132
(lp2133
(g161
F0.02960222016651249
g1192
g2132
tp2134
ag616
(lp2135
V2016-10-18 03:24:00
p2136
tp2137
a(g1192
V32/1081
p2138
(lp2139
(g161
F0.02960222016651249
g1192
g2138
tp2140
ag623
(lp2141
V2016-10-19 06:59:33
p2142
tp2143
a(g1192
V(4*4 + 4*4)/C(47,2)
p2144
(lp2145
(g161
F0.02960222016651249
g1192
g2144
tp2146
ag644
(lp2147
V2016-10-18 03:57:29
p2148
tp2149
a(g1192
V4*8 / C(47,2)
p2150
(lp2151
(g161
F0.02960222016651249
g1192
g2150
tp2152
ag665
(lp2153
V2016-10-18 21:45:14
p2154
tp2155
a(g1192
V32/C(47,2)
p2156
(lp2157
(g161
F0.02960222016651249
g1192
g2156
tp2158
ag672
(lp2159
V2016-10-17 06:05:20
p2160
tp2161
a(g1192
V4*C(8,1)/C(47,2)
p2162
(lp2163
(g161
F0.02960222016651249
g1192
g2162
tp2164
ag679
(lp2165
V2016-10-19 07:03:12
p2166
tp2167
a(g1192
V32/C(47,2)
p2168
(lp2169
(g161
F0.02960222016651249
g1192
g2168
tp2170
ag693
(lp2171
V2016-10-16 19:48:38
p2172
tp2173
a(g1192
V(C(4,1)*C(4,1) + C(4,1)*C(4,1))/(C(47,2))
p2174
(lp2175
(g161
F0.02960222016651249
g1192
g2174
tp2176
ag707
(lp2177
V2016-10-19 04:09:24
p2178
tp2179
a(g1192
V32/C(47,2)
p2180
(lp2181
(g161
F0.02960222016651249
g1192
g2180
tp2182
ag833
(lp2183
V2016-10-18 06:22:17
p2184
tp2185
a(g1192
V(C(4,1)*C(8,1))/C(47,2)
p2186
(lp2187
(g161
F0.02960222016651249
g1192
g2186
tp2188
ag840
(lp2189
V2016-10-18 17:31:53
p2190
tp2191
a(g1192
V((C(4,1)+C(4,1))C(4,1))/C(47,2)
p2192
(lp2193
(g161
F0.02960222016651249
g1192
g2192
tp2194
ag854
(lp2195
V2016-10-16 22:12:56
p2196
tp2197
a(g1192
V4*8/C(52-5,2)
p2198
(lp2199
(g161
F0.02960222016651249
g1192
g2198
tp2200
ag861
(lp2201
V2016-10-16 05:17:09
p2202
tp2203
a(g1192
V4*4*2/C(47,2)
p2204
(lp2205
(g161
F0.02960222016651249
g1192
g2204
tp2206
ag875
(lp2207
V2016-10-18 22:04:03
p2208
tp2209
a(g1192
V32/C(47,2)
p2210
(lp2211
(g161
F0.02960222016651249
g1192
g2210
tp2212
ag882
(lp2213
V2016-10-19 18:43:02
p2214
tp2215
a(g1192
V32/(C(47,2))
p2216
(lp2217
(g161
F0.02960222016651249
g1192
g2216
tp2218
ag896
(lp2219
V2016-10-18 04:06:05
p2220
tp2221
a(g1192
V32/C(47,2)
p2222
(lp2223
(g161
F0.02960222016651249
g1192
g2222
tp2224
ag903
(lp2225
V2016-10-18 21:39:00
p2226
tp2227
a(g1192
V32/C(47,2)
p2228
(lp2229
(g161
F0.02960222016651249
g1192
g2228
tp2230
ag917
(lp2231
V2016-10-18 18:53:06
p2232
tp2233
a(g1192
V4*4*2/C(47,2)
p2234
(lp2235
(g161
F0.02960222016651249
g1192
g2234
tp2236
ag924
(lp2237
V2016-10-16 07:01:06
p2238
tp2239
a(g1192
V(4*8)/C(47,2)
p2240
(lp2241
(g161
F0.02960222016651249
g1192
g2240
tp2242
ag932
(lp2243
V2016-10-17 22:19:49
p2244
tp2245
a(g1192
V32/C(47,2)
p2246
(lp2247
(g161
F0.02960222016651249
g1192
g2246
tp2248
ag981
(lp2249
V2016-10-19 09:09:02
p2250
tp2251
a(g1192
V32/C(47,2)
p2252
(lp2253
(g161
F0.02960222016651249
g1192
g2252
tp2254
ag995
(lp2255
V2016-10-16 07:51:49
p2256
tp2257
a(g1192
V32 / C(47,2)
p2258
(lp2259
(g161
F0.02960222016651249
g1192
g2258
tp2260
ag1030
(lp2261
V2016-10-16 10:31:10
p2262
tp2263
a(g1192
V(16+16)/C(47,2)
p2264
(lp2265
(g161
F0.02960222016651249
g1192
g2264
tp2266
ag1044
(lp2267
V2016-10-16 20:13:30
p2268
tp2269
a(g1192
V(4*8)/(47!/(2!*45!))
p2270
(lp2271
(g161
F0.02960222016651249
g1192
g2270
tp2272
ag1051
(lp2273
V2016-10-18 03:42:25
p2274
tp2275
a(g1192
V(C(4,1)*C(8,1))/C(47,2)
p2276
(lp2277
(g161
F0.02960222016651249
g1192
g2276
tp2278
ag1058
(lp2279
V2016-10-18 07:36:16
p2280
tp2281
a(g1192
V4*8/C(47,2)
p2282
(lp2283
(g161
F0.02960222016651249
g1192
g2282
tp2284
ag1065
(lp2285
V2016-10-17 22:48:58
p2286
tp2287
a(g1192
V32/C(47, 2)
p2288
(lp2289
(g161
F0.02960222016651249
g1192
g2288
tp2290
ag1079
(lp2291
V2016-10-17 22:46:03
p2292
tp2293
a(g1192
V32/ C(47,2)
p2294
(lp2295
(g161
F0.02960222016651249
g1192
g2294
tp2296
ag1093
(lp2297
V2016-10-19 04:38:32
p2298
tp2299
a(g1192
V(C(4,1) * C(8,1)) / (C(52-5,2))
p2300
(lp2301
(g161
F0.02960222016651249
g1192
g2300
tp2302
ag1100
(lp2303
V2016-10-17 22:19:41
p2304
tp2305
a(g1192
V32/C(47,2)
p2306
(lp2307
(g161
F0.02960222016651249
g1192
g2306
tp2308
ag1107
(lp2309
V2016-10-19 00:28:28
p2310
tp2311
a(g1192
V4*8/C(47,2)
p2312
(lp2313
(g161
F0.02960222016651249
g1192
g2312
tp2314
ag1121
(lp2315
V2016-10-19 15:04:04
p2316
tp2317
a(g1192
V4*8/C(52-5,2)
p2318
(lp2319
(g161
F0.02960222016651249
g1192
g2318
tp2320
ag1128
(lp2321
V2016-10-19 11:56:31
p2322
tp2323
a(g1192
V32/1081
p2324
(lp2325
(g161
F0.02960222016651249
g1192
g2324
tp2326
ag1135
(lp2327
V2016-10-18 03:40:37
p2328
tp2329
a(g1192
V32 / (C(47,2))
p2330
(lp2331
(g161
F0.02960222016651249
g1192
g2330
tp2332
ag1142
(lp2333
V2016-10-17 08:21:09
p2334
tp2335
a(g1192
V(4^2+4^2)/C(47,2)
p2336
(lp2337
(g161
F0.02960222016651249
g1192
g2336
tp2338
ag1149
(lp2339
V2016-10-16 06:11:52
p2340
tp2341
a(g1192
V(4 * 8)/C(47,2)
p2342
(lp2343
(g161
F0.02960222016651249
g1192
g2342
tp2344
ag1156
(lp2345
V2016-10-19 04:51:09
p2346
tp2347
a(g1192
V(32)/(C(47,2))
p2348
(lp2349
(g161
F0.02960222016651249
g1192
g2348
tp2350
ag1170
(lp2351
V2016-10-18 20:46:18
p2352
tp2353
a(g1192
V32/(47*23)
p2354
(lp2355
(g161
F0.02960222016651249
g1192
g2354
tp2356
ag1177
(lp2357
V2016-10-17 02:13:24
p2358
tp2359
a(g1192
V4*8/C(52-5,2)
p2360
(lp2361
(g161
F0.02960222016651249
g1192
g2360
tp2362
ag1184
(lp2363
V2016-10-19 18:13:06
p2364
tp2365
ass.