(dp0
S'1'
p1
(dp2
S'codyndoan'
p3
(dp4
S'part1_correct_attempt'
p5
(lp6
S'0:07:07'
p7
aVC(32,5) - C(20,5)
p8
asS'first_attempt'
p9
V2016-10-18 19:34:33
p10
sS'part1_incorrect_attempt'
p11
(lp12
(S'0:00:00'
p13
V8*4 - 4*4
p14
tp15
a(S'0:00:26'
p16
V7*4 - 4*4
p17
tp18
a(S'0:00:54'
p19
V8*4 - 5*4
p20
tp21
a(S'0:01:41'
p22
V7*4 - 3*4
p23
tp24
a(S'0:02:04'
p25
V8*4 - 3*4
p26
tp27
assS'alebedev'
p28
(dp29
S'part1_correct_attempt'
p30
(lp31
S'0:10:18'
p32
aVC(32,5)-C(20,5)
p33
asg9
V2016-10-18 00:09:14
p34
sS'part1_incorrect_attempt'
p35
(lp36
(S'0:00:00'
p37
VC(20,5)
p38
tp39
a(S'0:05:48'
p40
VC(52,5)-C(24,5)
p41
tp42
assS'piamsiri'
p43
(dp44
S'part1_correct_attempt'
p45
(lp46
S'0:08:01'
p47
aVC(32,5) - C(20,5)
p48
asg9
V2016-10-18 06:24:08
p49
sS'part1_incorrect_attempt'
p50
(lp51
(S'0:00:00'
p52
VC(46, 5)
p53
tp54
a(S'0:00:49'
p55
VC(7,4)*C(3,1)
p56
tp57
a(S'0:01:17'
p58
VC(8,4)*C(3,1)
p59
tp60
a(S'0:01:52'
p61
VC(8,4)*C(4,3)*C(3,1)*C(4,1)
p62
tp63
a(S'0:05:20'
p64
VC(32,4)*C(3,1)*C(4,1)
p65
tp66
a(S'0:05:42'
p67
VC(31,4)*C(3,1)*C(4,1)
p68
tp69
assS'VanessaC'
p70
(dp71
S'part1_correct_attempt'
p72
(lp73
S'1:09:40'
p74
aV(32!/(27!5!))-(20!/(5!15!))
p75
asg9
V2016-10-18 19:42:42
p76
sS'part1_incorrect_attempt'
p77
(lp78
(S'0:00:00'
p79
V(28!(5!23!))-(16!/(5!11!))
p80
tp81
a(S'0:01:06'
p82
V(28!/(23!5!))-(16!/(5!11!))
p83
tp84
a(S'0:49:06'
p85
V(27!/(22!5!))-(16!/(5!11!))
p86
tp87
assS'Zhongting'
p88
(dp89
S'part1_correct_attempt'
p90
(lp91
S'0:11:08'
p92
aVC(32,5)-C(20,5)
p93
asg9
V2016-10-16 07:04:09
p94
sS'part1_incorrect_attempt'
p95
(lp96
(S'0:00:00'
p97
VC(12,1)*C(27,4)
p98
tp99
a(S'0:03:53'
p100
V12*C(31,4)
p101
tp102
assS'dillonliu'
p103
(dp104
S'part1_correct_attempt'
p105
(lp106
S'0:07:19'
p107
aVC(32,5)-C(20,5) 
p108
asg9
V2016-10-18 04:33:24
p109
sS'part1_incorrect_attempt'
p110
(lp111
(S'0:00:00'
p112
VC(47,5) - C(40,5) 
p113
tp114
assS'yuhan'
p115
(dp116
S'part1_correct_attempt'
p117
(lp118
S'0:17:06'
p119
aVC(52-20,5)-C(52-32,5)
p120
asg9
V2016-10-18 04:06:41
p121
sS'part1_incorrect_attempt'
p122
(lp123
(S'0:00:00'
p124
VC(52,5)-C(52-20,5)
p125
tp126
a(S'0:01:41'
p127
VC(52,5)-C(52-20,5)
p128
tp129
a(S'0:02:04'
p130
VC(52,5)-C(52-24,5)
p131
tp132
a(S'0:02:50'
p133
VC(52,5)-C(52-12,5)
p134
tp135
assS'Sync'
p136
(dp137
S'part1_correct_attempt'
p138
(lp139
S'1:31:55'
p140
aV(C(32,5))-(C(20,5))
p141
asg9
V2016-10-18 21:29:13
p142
sS'part1_incorrect_attempt'
p143
(lp144
(S'0:00:00'
p145
V(C(28,5))-(C(16,5))
p146
tp147
a(S'1:06:55'
p148
VC(28,5)-C(16,5)
p149
tp150
a(S'1:07:44'
p151
VC(28,5)-C(12,5)
p152
tp153
a(S'1:14:15'
p154
VC(24,5)-C(16,5)
p155
tp156
a(S'1:14:38'
p157
VC(24,5)-C(12,5)
p158
tp159
a(S'1:26:25'
p160
V(C(28,5))-(C(16,5))
p161
tp162
a(S'1:26:49'
p163
V(C(28,5))-(C(12,5))
p164
tp165
assS'lmfink'
p166
(dp167
S'part1_correct_attempt'
p168
(lp169
S'0:03:28'
p170
aV185872
p171
asg9
V2016-10-17 19:47:23
p172
sS'part1_incorrect_attempt'
p173
(lp174
(S'0:00:00'
p175
V12 * 20 + 66
p176
tp177
a(S'0:01:41'
p178
V12 * 20 + 66
p179
tp180
assS'til005'
p181
(dp182
S'part1_correct_attempt'
p183
(lp184
S'0:03:51'
p185
aVC(32,5)-C(20,5)
p186
asg9
V2016-10-18 03:35:08
p187
sS'part1_incorrect_attempt'
p188
(lp189
(S'0:00:00'
p190
VC(32,7)
p191
tp192
a(S'0:03:00'
p193
VC(32,5)
p194
tp195
assS'JoshuaKomala'
p196
(dp197
S'part1_correct_attempt'
p198
(lp199
S'0:04:26'
p200
aVC(28,5) - C(16,5)
p201
asg9
V2016-10-19 19:34:17
p202
sS'part1_incorrect_attempt'
p203
(lp204
(S'0:00:00'
p205
VC(28,5) - C(12,5)
p206
tp207
a(S'0:03:39'
p208
VC(28,5) - C(16,4)
p209
tp210
a(S'0:04:26'
p211
VC(28,5) - C(16,5)
p212
tp213
assS'alvinyho'
p214
(dp215
S'part1_correct_attempt'
p216
(lp217
S'1:48:56'
p218
aVC(32,5)-C(20,5)
p219
asg9
V2016-10-19 03:46:50
p220
sS'part1_incorrect_attempt'
p221
(lp222
(S'0:00:00'
p223
VC(28,5)-C(16,5)
p224
tp225
a(S'0:08:21'
p226
VC(28,5)-C(16,5)
p227
tp228
a(S'0:13:45'
p229
V(C(28,5)-C(16,5))
p230
tp231
a(S'1:22:42'
p232
V(C(28,5)-(C(28,5)-C(16,5)))
p233
tp234
a(S'1:39:58'
p235
VC(20,5)-C(16,5)
p236
tp237
a(S'1:41:23'
p238
VC(24,5)-C(16,5)
p239
tp240
assS'kballew00'
p241
(dp242
S'part1_correct_attempt'
p243
(lp244
S'18:38:34'
p245
aVC(32,5)-C(20,5)
p246
asg9
V2016-10-18 20:36:46
p247
sS'part1_incorrect_attempt'
p248
(lp249
(S'0:00:00'
p250
V12*C(31,4)
p251
tp252
a(S'18:34:19'
p253
V12*C(31,4)
p254
tp255
assS'ShannonWang'
p256
(dp257
S'part1_correct_attempt'
p258
(lp259
S'0:38:09'
p260
aVC(32,5)-C(20,5)
p261
asg9
V2016-10-17 05:37:19
p262
sS'part1_incorrect_attempt'
p263
(lp264
(S'0:00:00'
p265
VC(12,1)*C(31,4)
p266
tp267
assS'mbland'
p268
(dp269
S'part1_correct_attempt'
p270
(lp271
S'0:08:17'
p272
aVC(4*8, 5) - C(4*5, 5)
p273
asg9
V2016-10-17 22:26:58
p274
sS'part1_incorrect_attempt'
p275
(lp276
(S'0:00:00'
p277
VC(4*6, 5) - C(4*3,5) 
p278
tp279
a(S'0:01:56'
p280
VC( 4*7, 5 ) - C(4*4, 5 )
p281
tp282
assS'chenboy3'
p283
(dp284
S'part1_correct_attempt'
p285
(lp286
S'0:01:32'
p287
aVC(32,5) - C(20,5)
p288
asg9
V2016-10-16 16:38:12
p289
sS'part1_incorrect_attempt'
p290
(lp291
(S'0:00:00'
p292
VC(28,5) - C(12,5)
p293
tp294
a(S'0:00:45'
p295
VC(28,5) - C(16,5)
p296
tp297
assS'heitorschueroff'
p298
(dp299
S'part1_correct_attempt'
p300
(lp301
S'0:32:13'
p302
aVC(52 - 5*4, 5) - C(52 - 8*4, 5)
p303
asg9
V2016-10-19 00:57:17
p304
sS'part1_incorrect_attempt'
p305
(lp306
(S'0:00:00'
p307
V3 * C(52 - 1 - 6*4, 4)
p308
tp309
a(S'0:03:06'
p310
VC(3 * 4, 1) * C(52 - 1 - 6*4, 4)
p311
tp312
a(S'0:04:45'
p313
VC(3 * 4, 1) * C(52 - 1 - 5*4 , 4)
p314
tp315
a(S'0:07:41'
p316
VC(52 - 5*4 - 1, 4) * C(3 * 4, 1)
p317
tp318
assS'JasonHuang'
p319
(dp320
S'part1_correct_attempt'
p321
(lp322
S'0:02:16'
p323
aVC(32, 5) - C(20, 5)
p324
asg9
V2016-10-18 23:51:35
p325
sS'part1_incorrect_attempt'
p326
(lp327
(S'0:00:00'
p328
VC(28, 5) - C(16, 5)
p329
tp330
assS'jih089'
p331
(dp332
S'part1_correct_attempt'
p333
(lp334
S'0:07:20'
p335
aVC(32,5)-C(20,5)
p336
asg9
V2016-10-16 05:41:23
p337
sS'part1_incorrect_attempt'
p338
(lp339
(S'0:00:00'
p340
VC(28,5)-C(16,5)
p341
tp342
a(S'0:02:36'
p343
VC(28,5)-C(16,5)
p344
tp345
assS'evahuynh'
p346
(dp347
S'part1_correct_attempt'
p348
(lp349
S'0:55:55'
p350
aVC(32,5)-C(20,5)
p351
asg9
V2016-10-18 15:36:36
p352
sS'part1_incorrect_attempt'
p353
(lp354
(S'0:00:00'
p355
V12*C(31,4)
p356
tp357
a(S'0:01:44'
p358
V4*C(3,1)*C(31,4)
p359
tp360
a(S'0:05:58'
p361
V4*C(3,1)*C(32,4)
p362
tp363
assS'ottojursch'
p364
(dp365
g9
V2016-10-19 07:05:50
p366
sS'part1_incorrect_attempt'
p367
(lp368
(S'0:00:00'
p369
VC(12,1)*C(31,6)
p370
tp371
a(S'0:32:47'
p372
VC(52,7)-C(20,7)-C(16,7)
p373
tp374
a(S'0:53:58'
p375
V12 * C(31,4)
p376
tp377
assS'christywong'
p378
(dp379
S'part1_correct_attempt'
p380
(lp381
S'0:06:55'
p382
aVC(32,5)-C(32-12,5)
p383
asg9
V2016-10-18 17:51:57
p384
sS'part1_incorrect_attempt'
p385
(lp386
(S'0:00:00'
p387
VC(40,5)-C(32,5)
p388
tp389
assS'JiangfengYin'
p390
(dp391
S'part1_correct_attempt'
p392
(lp393
S'0:02:50'
p394
aVC(32,5) - C(20,5)
p395
asg9
V2016-10-19 10:04:24
p396
sS'part1_incorrect_attempt'
p397
(lp398
(S'0:00:00'
p399
V12*C(31,4)
p400
tp401
assS'twsalim'
p402
(dp403
S'part1_correct_attempt'
p404
(lp405
S'0:00:00'
p406
aVC(28,5) - C(16,5)
p407
asg9
V2016-10-17 23:20:27
p408
sS'part1_incorrect_attempt'
p409
(lp410
(S'0:00:00'
p411
VC(28,5) - C(16,5)
p412
tp413
assS'DarrenYang'
p414
(dp415
S'part1_correct_attempt'
p416
(lp417
S'0:42:42'
p418
aVC(32,5)-C(20,5)
p419
asg9
V2016-10-17 02:17:57
p420
sS'part1_incorrect_attempt'
p421
(lp422
(S'0:00:00'
p423
VC(28,5)-C(16,5)
p424
tp425
assS'PriyankaK'
p426
(dp427
S'part1_correct_attempt'
p428
(lp429
S'0:11:57'
p430
aVC(32,5)-C(20,5)
p431
asg9
V2016-10-17 02:23:45
p432
sS'part1_incorrect_attempt'
p433
(lp434
(S'0:00:00'
p435
VC(16,1)*C(23,4)
p436
tp437
a(S'0:02:05'
p438
VC(12,1)*C(32,4)
p439
tp440
assS'bfalk'
p441
(dp442
g9
V2016-10-17 22:29:34
p443
sS'part1_incorrect_attempt'
p444
(lp445
(S'0:00:00'
p446
VC(3*4, 1) * C(8*4-1, 4)
p447
tp448
a(S'0:43:17'
p449
VC(3*4,1) * C(8*4-1,4)
p450
tp451
a(S'0:51:37'
p452
VC(3*4,1) + C(8*4-1,4)
p453
tp454
a(S'1:14:12'
p455
VC(52,5) - (2*C(5*4, 5))
p456
tp457
assS'aives'
p458
(dp459
S'part1_correct_attempt'
p460
(lp461
S'0:27:25'
p462
aVC(32,5) - C(20,5)
p463
asg9
V2016-10-19 01:10:07
p464
sS'part1_incorrect_attempt'
p465
(lp466
(S'0:00:00'
p467
VC(27,4)
p468
tp469
a(S'0:24:03'
p470
VC(12,1) * C(23, 4) 
p471
tp472
assS'mhatch'
p473
(dp474
S'part1_correct_attempt'
p475
(lp476
S'0:18:36'
p477
aVC(32, 5) - C(20, 5)
p478
asg9
V2016-10-19 04:55:54
p479
sS'part1_incorrect_attempt'
p480
(lp481
(S'0:00:00'
p482
V12 * C(27, 4)
p483
tp484
a(S'0:00:59'
p485
V12 * C(31, 4)
p486
tp487
a(S'0:10:54'
p488
V12 * C(31,4)
p489
tp490
assS'Ryan'
p491
(dp492
S'part1_correct_attempt'
p493
(lp494
S'0:10:55'
p495
aVC(32,5) - C(20,5)
p496
asg9
V2016-10-19 08:28:06
p497
sS'part1_incorrect_attempt'
p498
(lp499
(S'0:00:00'
p500
VC(52, 5) * 6/13
p501
tp502
a(S'0:01:02'
p503
VC(52, 5) - C(21,5)
p504
tp505
a(S'0:04:43'
p506
VC(32,5)
p507
tp508
assS'cpence'
p509
(dp510
S'part1_correct_attempt'
p511
(lp512
S'1 day, 1:46:34'
p513
aVC(32, 5) - C(20 , 5)
p514
asg9
V2016-10-18 04:25:13
p515
sS'part1_incorrect_attempt'
p516
(lp517
(S'0:00:00'
p518
V12*C(4*8 - 1, 4)
p519
tp520
a(S'0:13:04'
p521
V12*C(31, 4)
p522
tp523
assS'URajkumar'
p524
(dp525
S'part1_correct_attempt'
p526
(lp527
S'0:08:55'
p528
aV(C(32,5) - C(20,5))
p529
asg9
V2016-10-18 21:46:43
p530
sS'part1_incorrect_attempt'
p531
(lp532
(S'0:00:00'
p533
V12*16
p534
tp535
assS'sunilraiyani'
p536
(dp537
S'part1_correct_attempt'
p538
(lp539
S'0:05:40'
p540
aVC(32,5)-C(20,5)
p541
asg9
V2016-10-16 21:17:06
p542
sS'part1_incorrect_attempt'
p543
(lp544
(S'0:00:00'
p545
VC(12,1)*C(31,4)
p546
tp547
a(S'0:02:23'
p548
VC(12,1)*C(31,4)
p549
tp550
assS'Ken_Truong'
p551
(dp552
S'part1_correct_attempt'
p553
(lp554
S'2:45:01'
p555
aVC(32,5) - C(20,5)
p556
asg9
V2016-10-16 10:34:23
p557
sS'part1_incorrect_attempt'
p558
(lp559
(S'0:00:00'
p560
VC(28,4)
p561
tp562
assS'kyle'
p563
(dp564
S'part1_correct_attempt'
p565
(lp566
S'0:19:30'
p567
aV12*C(32,4)
p568
asg9
V2016-10-19 19:46:19
p569
sS'part1_incorrect_attempt'
p570
(lp571
(S'0:00:00'
p572
V12*C(16,4)
p573
tp574
a(S'0:19:30'
p575
V12*C(32,4)
p576
tp577
assS'HaoDong'
p578
(dp579
S'part1_correct_attempt'
p580
(lp581
S'0:09:24'
p582
aVC(8*4,5)-C(5*4,5)
p583
asg9
V2016-10-16 06:20:11
p584
sS'part1_incorrect_attempt'
p585
(lp586
(S'0:00:00'
p587
V7^5-4^5
p588
tp589
a(S'0:03:41'
p590
VC(7*4,5)-C(4*4,5)
p591
tp592
assS'maxcjx'
p593
(dp594
S'part1_correct_attempt'
p595
(lp596
S'0:24:28'
p597
aV201376-15504
p598
asg9
V2016-10-18 03:46:02
p599
sS'part1_incorrect_attempt'
p600
(lp601
(S'0:00:00'
p602
V3*4*31465
p603
tp604
assS'Chang_Qiu'
p605
(dp606
g9
V2016-10-14 01:51:34
p607
sS'part1_incorrect_attempt'
p608
(lp609
(S'0:00:00'
p610
V4^2
p611
tp612
assS'Guillermo'
p613
(dp614
S'part1_correct_attempt'
p615
(lp616
S'0:12:48'
p617
aVC(32,5)-C(20,5)
p618
asg9
V2016-10-16 20:17:33
p619
sS'part1_incorrect_attempt'
p620
(lp621
(S'0:00:00'
p622
V(4*C(12,4))+(4*C(12,4))+(4*C(12,4))
p623
tp624
a(S'0:04:28'
p625
VC(28,5)-C(16,5)
p626
tp627
assS'jar045'
p628
(dp629
S'part1_correct_attempt'
p630
(lp631
S'0:07:18'
p632
aVC(32,5)-C(20,5)
p633
asg9
V2016-10-19 06:38:47
p634
sS'part1_incorrect_attempt'
p635
(lp636
(S'0:00:00'
p637
V5*8
p638
tp639
a(S'0:00:22'
p640
V5*4
p641
tp642
a(S'0:01:23'
p643
V8*3
p644
tp645
a(S'0:01:47'
p646
V3*8
p647
tp648
assS'wheilson'
p649
(dp650
S'part1_correct_attempt'
p651
(lp652
S'0:05:35'
p653
aVC(32,5)-C(20,5)
p654
asg9
V2016-10-18 22:07:13
p655
sS'part1_incorrect_attempt'
p656
(lp657
(S'0:00:00'
p658
VC(12,1)*C(52-20,4)
p659
tp660
asssS'3'
p661
(dp662
g426
(dp663
S'part3_correct_attempt'
p664
(lp665
S'0:00:00'
p666
aV(C(32,5)-C(20,5))/(C(52,5)-C(40,5))
p667
asS'part3_incorrect_attempt'
p668
(lp669
(S'-1 day, 23:48:03'
p670
V(C(16,1)*C(23,4))/(C(16,1)*C(51,4))
p671
tp672
a(S'-1 day, 23:50:08'
p673
V(C(16,1)*C(51,4))/(C(12,1)*C(51,4))
p674
tp675
asg9
V2016-10-17 02:35:42
p676
ssg441
(dp677
S'part3_correct_attempt'
p678
(lp679
S'1:14:12'
p680
aV() / (C(52,5) - C(52-(3*4),5))
p681
asS'part3_incorrect_attempt'
p682
(lp683
(S'0:00:00'
p684
V(C(3*4, 1) * C(8*4-1, 4)) / (C(3*4,1) * C(52-1,4))
p685
tp686
a(S'0:00:00'
p687
V(C(3*4,1) * C(8*4-1,4)) / (C(3*4,1) * C(51,4))
p688
tp689
a(S'0:00:00'
p690
V(C(3*4,1) + C(8*4-1,4)) / (C(3*4,1)  + C(51,4))
p691
tp692
asg9
V2016-10-17 22:29:34
p693
ssg298
(dp694
S'part3_correct_attempt'
p695
(lp696
S'0:00:00'
p697
aV(C(52 - 5*4, 5) - C(52 - 8*4, 5)) / (C(52,5) - C(52 - 3*4, 5))
p698
asS'part3_incorrect_attempt'
p699
(lp700
(S'-1 day, 23:27:47'
p701
V(3 * C(52 - 1 - 6*4, 4)) / (3 * C(52 - 1, 4))
p702
tp703
asg9
V2016-10-19 01:29:30
p704
ssg536
(dp705
S'part3_correct_attempt'
p706
(lp707
S'0:00:00'
p708
aV(C(32,5)-C(20,5))/(C(52,5)-C(40,5))
p709
asS'part3_incorrect_attempt'
p710
(lp711
(S'-1 day, 23:54:20'
p712
V(C(12,1)*C(31,4))/(C(52,5))
p713
tp714
asg9
V2016-10-16 21:22:46
p715
ssg458
(dp716
S'part3_correct_attempt'
p717
(lp718
S'0:00:00'
p719
aV(C(32,5) - C(20,5))/(C(52,5) - C(40,5))
p720
asS'part3_incorrect_attempt'
p721
(lp722
(S'-1 day, 23:32:35'
p723
VC(27,4)/C(12,1)*C(51,4)
p724
tp725
asg9
V2016-10-19 01:37:32
p726
ssS'jih089'
p727
(dp728
S'part3_correct_attempt'
p729
(lp730
S'0:00:00'
p731
aV185872/1940952
p732
asS'part3_incorrect_attempt'
p733
(lp734
(S'-1 day, 23:58:31'
p735
VC(32,5)-C(20,5)/(C(52,5)-C(40,5))
p736
tp737
asg9
V2016-10-16 05:48:43
p738
ssg593
(dp739
S'part3_correct_attempt'
p740
(lp741
S'0:00:00'
p742
aV(201376-15504)/1940952
p743
asS'part3_incorrect_attempt'
p744
(lp745
(S'-1 day, 23:35:32'
p746
V31465/249900
p747
tp748
asg9
V2016-10-18 04:10:30
p749
ssg364
(dp750
S'part3_incorrect_attempt'
p751
(lp752
(S'0:00:00'
p753
VC(12,1)*C(31,6)/C(12,1)*C(51,6)
p754
tp755
a(S'0:00:00'
p756
V(C(52,7)-C(20,7)-C(16,7))/12
p757
tp758
asg9
V2016-10-19 07:05:50
p759
ssg136
(dp760
S'part3_correct_attempt'
p761
(lp762
S'0:00:00'
p763
aV((C(32,5))-(C(20,5)))/((C(52,5))-(C(40,5)))
p764
asS'part3_incorrect_attempt'
p765
(lp766
(S'-1 day, 22:28:05'
p767
V((C(28,5))-(C(16,5)))/(12*C(51,4))
p768
tp769
asg9
V2016-10-18 23:01:08
p770
ssS'evahuynh'
p771
(dp772
S'part3_correct_attempt'
p773
(lp774
S'0:00:00'
p775
aV(C(32,5)-C(20,5))/(C(52,5)-C(40,5))
p776
asS'part3_incorrect_attempt'
p777
(lp778
(S'-1 day, 23:55:48'
p779
VC(31,4)
p780
tp781
asg9
V2016-10-18 16:32:31
p782
ssg88
(dp783
S'part3_correct_attempt'
p784
(lp785
S'0:00:00'
p786
aV(C(32,5)-C(20,5))/(C(52,5)-C(40,5))
p787
asS'part3_incorrect_attempt'
p788
(lp789
(S'-1 day, 23:48:52'
p790
VC(27,4)/C(51,4)
p791
tp792
a(S'-1 day, 23:52:45'
p793
VC(31,4)/C(51,4)
p794
tp795
asg9
V2016-10-16 07:15:17
p796
ssg166
(dp797
S'part3_correct_attempt'
p798
(lp799
S'0:00:00'
p800
aV185872 / 1940952
p801
asS'part3_incorrect_attempt'
p802
(lp803
(S'-1 day, 23:56:32'
p804
V(12*20 + 66) / 1326
p805
tp806
asg9
V2016-10-17 19:50:51
p807
ssS'til005'
p808
(dp809
S'part3_correct_attempt'
p810
(lp811
S'0:00:00'
p812
aV(C(32,5)-C(20,5))/(C(52,5)-C(40,5))
p813
asS'part3_incorrect_attempt'
p814
(lp815
(S'-1 day, 23:57:43'
p816
V(C(32,7)-C(20,7))/C(52,7)/((C(52,7)-C(40,7))/C(52,7))
p817
tp818
asg9
V2016-10-18 03:38:59
p819
ssS'wheilson'
p820
(dp821
S'part3_correct_attempt'
p822
(lp823
S'0:00:00'
p824
aV(C(32,5)-C(20,5))/(C(52,5)-C(40,5))
p825
asS'part3_incorrect_attempt'
p826
(lp827
(S'-1 day, 23:57:50'
p828
V(C(32,5)-C(20,5))/C(12,1)*C(51,4)
p829
tp830
asg9
V2016-10-18 22:12:48
p831
ssS'alvinyho'
p832
(dp833
S'part3_correct_attempt'
p834
(lp835
S'0:00:00'
p836
aV(C(32,5)-C(20,5))/(C(52,5)-C(40,5))
p837
asS'part3_incorrect_attempt'
p838
(lp839
(S'-1 day, 23:59:04'
p840
VC(32,5)-C(20,5)/(C(52,5)-C(40,5))
p841
tp842
asg9
V2016-10-19 05:35:46
p843
sssS'2'
p844
(dp845
g458
(dp846
S'part2_correct_attempt'
p847
(lp848
S'0:00:00'
p849
aVC(52,5) - C(40,5)
p850
asg9
g726
sS'part2_incorrect_attempt'
p851
(lp852
(S'-1 day, 23:32:35'
p853
VC(12,1)*C(51,4)
p854
tp855
assg441
(dp856
g9
V2016-10-17 22:29:34
p857
sS'part2_incorrect_attempt'
p858
(lp859
(S'0:00:00'
p860
VC(3*4,1) * C(52-1,4)
p861
tp862
a(S'0:00:00'
p863
VC(3*4,1) * C(51,4)
p864
tp865
a(S'0:00:00'
p866
VC(3*4,1)  + C(51,4)
p867
tp868
assS'piamsiri'
p869
(dp870
S'part2_correct_attempt'
p871
(lp872
S'0:00:00'
p873
aVC(52,5) - C(40,5)
p874
asg9
V2016-10-18 06:32:09
p875
sS'part2_incorrect_attempt'
p876
(lp877
(S'-1 day, 23:56:14'
p878
V12*C(31,4)
p879
tp880
assg298
(dp881
S'part2_correct_attempt'
p882
(lp883
S'0:00:00'
p884
aVC(52,5) - C(52 - 3*4, 5)
p885
asg9
g704
sS'part2_incorrect_attempt'
p886
(lp887
(S'-1 day, 23:27:47'
p888
V3 * C(52 - 1, 4)
p889
tp890
assg536
(dp891
S'part2_correct_attempt'
p892
(lp893
S'0:00:00'
p894
aVC(52,5)-C(40,5)
p895
asg9
g715
sS'part2_incorrect_attempt'
p896
(lp897
(S'-1 day, 23:54:20'
p898
VC(52,5)
p899
tp900
assg426
(dp901
S'part2_correct_attempt'
p902
(lp903
S'0:00:00'
p904
aVC(52,5)-C(40,5)
p905
asg9
g676
sS'part2_incorrect_attempt'
p906
(lp907
(S'-1 day, 23:48:03'
p908
VC(16,1)*C(51,4)
p909
tp910
a(S'-1 day, 23:50:08'
p911
VC(12,1)*C(51,4)
p912
tp913
assS'jih089'
p914
(dp915
S'part2_correct_attempt'
p916
(lp917
S'0:00:00'
p918
aVC(52,5)-C(40,5)
p919
asg9
g738
sS'part2_incorrect_attempt'
p920
(lp921
(S'-1 day, 23:49:44'
p922
VC(51,4)*4
p923
tp924
assg593
(dp925
S'part2_correct_attempt'
p926
(lp927
S'0:00:00'
p928
aV1940952
p929
asg9
g749
sS'part2_incorrect_attempt'
p930
(lp931
(S'-1 day, 23:35:32'
p932
V3*4*249900
p933
tp934
assg364
(dp935
g9
V2016-10-19 07:05:50
p936
sS'part2_incorrect_attempt'
p937
(lp938
(S'0:00:00'
p939
VC(12,1)*C(51,6)
p940
tp941
assg136
(dp942
S'part2_correct_attempt'
p943
(lp944
S'0:00:00'
p945
aV(C(52,5))-(C(40,5))
p946
asg9
g770
sS'part2_incorrect_attempt'
p947
(lp948
(S'-1 day, 22:28:05'
p949
V12*C(51,4)
p950
tp951
a(S'-1 day, 22:33:16'
p952
V5*12*C(51,4)
p953
tp954
a(S'-1 day, 22:33:38'
p955
V4*12*C(51,4)
p956
tp957
assS'RobinO'
p958
(dp959
S'part2_correct_attempt'
p960
(lp961
S'0:09:50'
p962
aV(3*4*51*50*49*48)/(5!)
p963
asg9
V2016-10-18 03:57:01
p964
sS'part2_incorrect_attempt'
p965
(lp966
(S'0:00:00'
p967
V12*(51!/4!*47!)
p968
tp969
a(S'0:00:00'
p970
V3*4*51*50*49*48
p971
tp972
a(S'0:00:00'
p973
V3*4*51*50*49*48/4!
p974
tp975
a(S'0:00:00'
p976
V3*4*51*50*49*48/5!
p977
tp978
a(S'0:00:00'
p979
V(3*4*51*50*49*48)/(5!)
p980
tp981
assg88
(dp982
S'part2_correct_attempt'
p983
(lp984
S'0:00:00'
p985
aVC(52,5)-C(40,5)
p986
asg9
g796
sS'part2_incorrect_attempt'
p987
(lp988
(S'-1 day, 23:48:52'
p989
VC(12,1)*C(51,4)
p990
tp991
a(S'-1 day, 23:52:45'
p992
V12*C(51,4)
p993
tp994
assS'lmfink'
p995
(dp996
S'part2_correct_attempt'
p997
(lp998
S'0:00:00'
p999
aV1940952
p1000
asg9
g807
sS'part2_incorrect_attempt'
p1001
(lp1002
(S'-1 day, 23:58:13'
p1003
V12 * 40 + 66
p1004
tp1005
assS'JiangfengYin'
p1006
(dp1007
S'part2_correct_attempt'
p1008
(lp1009
S'0:00:00'
p1010
aVC(52,5) - C(40,5)
p1011
asg9
V2016-10-19 10:07:14
p1012
sS'part2_incorrect_attempt'
p1013
(lp1014
(S'-1 day, 23:47:13'
p1015
V52!/(5!*47!) - 40!/(5!*45!)
p1016
tp1017
assS'PizzaPolice'
p1018
(dp1019
S'part2_correct_attempt'
p1020
(lp1021
S'0:00:00'
p1022
aVC(52,5) - C(40,5)
p1023
asg9
V2016-10-17 08:33:20
p1024
sS'part2_incorrect_attempt'
p1025
(lp1026
(S'-1 day, 23:50:48'
p1027
VC(52,5)
p1028
tp1029
assS'Riyang'
p1030
(dp1031
S'part2_correct_attempt'
p1032
(lp1033
S'0:00:00'
p1034
aVC(52,5)-C(40,5)
p1035
asg9
V2016-10-18 21:18:52
p1036
sS'part2_incorrect_attempt'
p1037
(lp1038
(S'-1 day, 23:58:12'
p1039
VC(52,5)
p1040
tp1041
assg820
(dp1042
S'part2_correct_attempt'
p1043
(lp1044
S'0:00:00'
p1045
aVC(52,5)-C(40,5)
p1046
asg9
g831
sS'part2_incorrect_attempt'
p1047
(lp1048
(S'-1 day, 23:57:50'
p1049
VC(12,1)*C(51,4)
p1050
tp1051
assg551
(dp1052
S'part2_correct_attempt'
p1053
(lp1054
S'0:00:00'
p1055
aVC(52,5) - C(40,5)
p1056
asg9
V2016-10-16 13:19:24
p1057
sS'part2_incorrect_attempt'
p1058
(lp1059
(S'-1 day, 21:14:59'
p1060
VC(51,4)
p1061
tp1062
a(S'-1 day, 21:16:29'
p1063
V12^5
p1064
tp1065
a(S'-1 day, 21:56:26'
p1066
VC(39,5)
p1067
tp1068
a(S'-1 day, 22:10:41'
p1069
V40 * 39 * 38 * 37 * 36
p1070
tp1071
a(S'-1 day, 22:11:08'
p1072
V(52*51*50*49*48)-(40 * 39 * 38 * 37 * 36)
p1073
tp1074
assS'ThuanNguyen'
p1075
(dp1076
S'part2_correct_attempt'
p1077
(lp1078
S'0:00:00'
p1079
aVC(52,5) - C(40,5)
p1080
asg9
V2016-10-19 04:44:17
p1081
sS'part2_incorrect_attempt'
p1082
(lp1083
(S'-1 day, 23:47:07'
p1084
VC(12,1)
p1085
tp1086
a(S'-1 day, 23:47:51'
p1087
VC(52,4)
p1088
tp1089
asss.