(dp0
S'1'
p1
(dp2
S'migil'
p3
(dp4
S'part1_correct_attempt'
p5
(lp6
S'0:48:37'
p7
aV0.0001
p8
asS'first_attempt'
p9
V2016-10-16 06:18:39
p10
sS'part1_incorrect_attempt'
p11
(lp12
(S'0:00:00'
p13
V0.001
p14
tp15
assS'aliqbal'
p16
(dp17
S'part1_correct_attempt'
p18
(lp19
S'1 day, 17:17:25'
p20
aV1/1000
p21
asg9
V2016-10-17 10:49:30
p22
sS'part1_incorrect_attempt'
p23
(lp24
(S'0:00:00'
p25
V92/100
p26
tp27
assS'christhoperbernard'
p28
(dp29
S'part1_correct_attempt'
p30
(lp31
S'16:57:26'
p32
aV10^(-4)
p33
asg9
V2016-10-16 05:37:28
p34
sS'part1_incorrect_attempt'
p35
(lp36
(S'0:00:00'
p37
V10^(-3)
p38
tp39
assS'ReneSanchez'
p40
(dp41
S'part1_correct_attempt'
p42
(lp43
S'0:04:09'
p44
aV1/10000
p45
asg9
V2016-10-17 19:14:17
p46
sS'part1_incorrect_attempt'
p47
(lp48
(S'0:00:00'
p49
V4/100
p50
tp51
a(S'0:00:23'
p52
V93/100
p53
tp54
assS'Ryan'
p55
(dp56
S'part1_correct_attempt'
p57
(lp58
S'0:14:02'
p59
aV1/10000
p60
asg9
V2016-10-18 16:54:06
p61
sS'part1_incorrect_attempt'
p62
(lp63
(S'0:00:00'
p64
V10000/.93
p65
tp66
assS'MattBowen96'
p67
(dp68
g9
V2016-10-16 08:11:34
p69
sS'part1_incorrect_attempt'
p70
(lp71
(S'0:00:00'
p72
V(94/100) * (1/100)
p73
tp74
assS'til005'
p75
(dp76
S'part1_correct_attempt'
p77
(lp78
S'0:02:36'
p79
aV1/10000
p80
asg9
V2016-10-18 03:19:39
p81
sS'part1_incorrect_attempt'
p82
(lp83
(S'0:00:00'
p84
V0.00001
p85
tp86
assS'njcrow'
p87
(dp88
S'part1_correct_attempt'
p89
(lp90
S'1 day, 10:27:44'
p91
aV1/10000
p92
asg9
V2016-10-18 04:41:19
p93
sS'part1_incorrect_attempt'
p94
(lp95
(S'0:00:00'
p96
V90/100
p97
tp98
a(S'0:00:34'
p99
V.92*.2
p100
tp101
a(S'0:00:56'
p102
V.94*.04
p103
tp104
a(S'11:04:10'
p105
V.99*.92
p106
tp107
assS'Guillermo'
p108
(dp109
S'part1_correct_attempt'
p110
(lp111
S'0:15:43'
p112
aV(1/10000)
p113
asg9
V2016-10-16 02:58:42
p114
sS'part1_incorrect_attempt'
p115
(lp116
(S'0:00:00'
p117
V(1/10000)/(94/100)
p118
tp119
a(S'0:07:05'
p120
V(1/10000)/(95/100)
p121
tp122
assS'woguan'
p123
(dp124
S'part1_correct_attempt'
p125
(lp126
S'3:23:08'
p127
aV10^(-4)
p128
asg9
V2016-10-17 11:40:00
p129
sS'part1_incorrect_attempt'
p130
(lp131
(S'0:00:00'
p132
V3/100
p133
tp134
assS'alvinyho'
p135
(dp136
S'part1_correct_attempt'
p137
(lp138
S'0:02:04'
p139
aV(10^-4)
p140
asg9
V2016-10-19 01:47:53
p141
sS'part1_incorrect_attempt'
p142
(lp143
(S'0:00:00'
p144
V10^-5
p145
tp146
assS'wesokuhara'
p147
(dp148
g9
V2016-10-19 19:05:33
p149
sS'part1_incorrect_attempt'
p150
(lp151
(S'0:00:00'
p152
V(1/10000)*(0.93)
p153
tp154
asssS'3'
p155
(dp156
sS'2'
p157
(dp158
S'Ken_Truong'
p159
(dp160
S'part2_correct_attempt'
p161
(lp162
S'0:00:00'
p163
aV(93/100) * (1/10000) + (1/100)*(9999/10000)
p164
asg9
V2016-10-16 09:20:39
p165
sS'part2_incorrect_attempt'
p166
(lp167
(S'-1 day, 23:28:04'
p168
V(92/100) / (1/10000) + (2/100)/(1/10000)
p169
tp170
a(S'-1 day, 23:33:12'
p171
V(95/100) / (1/10000) + (1/100)/(1/10000)
p172
tp173
a(S'-1 day, 23:49:27'
p174
V(92/100 + 1/10000) / (1/10000) + (1/100 + 2/10000)/(1/10000)
p175
tp176
asss.