(dp0
S'1'
p1
ccollections
defaultdict
p2
(c__builtin__
list
p3
tp4
Rp5
S'Digits'
p6
(lp7
(S'13-1'
p8
V7
p9
tp10
a(S'15-1'
p11
V12
p12
tp13
a(S'13-1'
p14
V13
p15
tp16
a(S'15-1'
p17
V13
p18
tp19
a(S'14-1'
p20
V12
p21
tp22
a(S'15-1'
p23
V12
p24
tp25
a(S'14-1'
p26
V14
p27
tp28
a(S'15-1'
p29
V6
p30
tp31
a(S'13-1'
p32
V13
p33
tp34
a(S'13-1'
p35
V9
p36
tp37
a(S'15-1'
p38
V6
p39
tp40
a(S'14-1'
p41
V12
p42
tp43
a(S'13-1'
p44
V7
p45
tp46
a(S'13-1'
p47
V14
p48
tp49
a(S'14-1'
p50
V14
p51
tp52
a(S'15-1'
p53
V11
p54
tp55
a(S'13-1'
p56
V14
p57
tp58
a(S'13-1'
p59
V13
p60
tp61
a(S'14-1'
p62
V14
p63
tp64
a(S'13-1'
p65
V13
p66
tp67
a(S'14-1'
p68
V12
p69
tp70
a(S'13-1'
p71
V14
p72
tp73
a(S'13-1'
p74
V13
p75
tp76
a(S'13-1'
p77
V14
p78
tp79
a(S'14-1'
p80
V9
p81
tp82
a(S'15-1'
p83
V13
p84
tp85
a(S'13-1'
p86
V13
p87
tp88
a(S'14-1'
p89
V12
p90
tp91
a(S'13-1'
p92
V1
p93
tp94
a(S'15-1'
p95
V6
p96
tp97
a(S'14-1'
p98
V8
p99
tp100
a(S'14-1'
p101
V9
p102
tp103
a(S'15-1'
p104
V8
p105
tp106
a(S'13-1'
p107
V2
p108
tp109
a(S'13-1'
p110
V3
p111
tp112
a(S'14-1'
p113
V12
p114
tp115
a(S'14-1'
p116
V7
p117
tp118
a(S'13-1'
p119
V14
p120
tp121
a(S'15-1'
p122
V12
p123
tp124
a(S'14-1'
p125
V14
p126
tp127
a(S'13-1'
p128
V10
p129
tp130
a(S'13-1'
p131
V4
p132
tp133
a(S'14-1'
p134
V10
p135
tp136
a(S'14-1'
p137
V7
p138
tp139
a(S'14-1'
p140
V6
p141
tp142
a(S'15-1'
p143
V13
p144
tp145
a(S'13-1'
p146
V13
p147
tp148
a(S'15-1'
p149
V13
p150
tp151
a(S'13-1'
p152
V6
p153
tp154
a(S'13-1'
p155
V9
p156
tp157
a(S'13-1'
p158
V10
p159
tp160
a(S'15-1'
p161
V6
p162
tp163
a(S'13-1'
p164
V7
p165
tp166
a(S'15-1'
p167
V1
p168
tp169
a(S'14-1'
p170
V14
p171
tp172
a(S'15-1'
p173
V12
p174
tp175
a(S'14-1'
p176
V14
p177
tp178
a(S'13-1'
p179
V13
p180
tp181
a(S'15-1'
p182
V15
p183
tp184
a(S'13-1'
p185
V10
p186
tp187
a(S'15-1'
p188
V13
p189
tp190
a(S'13-1'
p191
V13
p192
tp193
a(S'15-1'
p194
V12
p195
tp196
a(S'14-1'
p197
V14
p198
tp199
a(S'14-1'
p200
V14
p201
tp202
a(S'13-1'
p203
V13
p204
tp205
a(S'14-1'
p206
V14
p207
tp208
a(S'13-1'
p209
V14
p210
tp211
a(S'15-1'
p212
V9
p213
tp214
a(S'15-1'
p215
V12
p216
tp217
a(S'15-1'
p218
V12
p219
tp220
a(S'13-1'
p221
V14
p222
tp223
a(S'14-1'
p224
V4
p225
tp226
a(S'13-1'
p227
V6
p228
tp229
a(S'13-1'
p230
V7
p231
tp232
a(S'13-1'
p233
V14
p234
tp235
a(S'15-1'
p236
V12
p237
tp238
a(S'15-1'
p239
V13
p240
tp241
a(S'15-1'
p242
V12
p243
tp244
a(S'15-1'
p245
V13
p246
tp247
a(S'15-1'
p248
V13
p249
tp250
a(S'14-1'
p251
V7
p252
tp253
a(S'14-1'
p254
V2
p255
tp256
a(S'15-1'
p257
V12
p258
tp259
a(S'15-1'
p260
V13
p261
tp262
a(S'15-1'
p263
V13
p264
tp265
a(S'13-1'
p266
V9
p267
tp268
a(S'13-1'
p269
V11
p270
tp271
a(S'13-1'
p272
V14
p273
tp274
a(S'14-1'
p275
V14
p276
tp277
a(S'13-1'
p278
V13
p279
tp280
a(S'15-1'
p281
V13
p282
tp283
a(S'15-1'
p284
V13
p285
tp286
a(S'15-1'
p287
V12
p288
tp289
a(S'13-1'
p290
V8
p291
tp292
a(S'13-1'
p293
V8
p294
tp295
a(S'15-1'
p296
V7
p297
tp298
a(S'14-1'
p299
V14
p300
tp301
a(S'15-1'
p302
V5
p303
tp304
a(S'15-1'
p305
V12
p306
tp307
a(S'14-1'
p308
V14
p309
tp310
a(S'15-1'
p311
V12
p312
tp313
a(S'15-1'
p314
V9
p315
tp316
a(S'13-1'
p317
V11
p318
tp319
a(S'13-1'
p320
V11
p321
tp322
a(S'14-1'
p323
V9
p324
tp325
a(S'14-1'
p326
V6
p327
tp328
a(S'14-1'
p329
V12
p330
tp331
a(S'14-1'
p332
V12
p333
tp334
a(S'13-1'
p335
V13
p336
tp337
a(S'14-1'
p338
V12
p339
tp340
a(S'13-1'
p341
V14
p342
tp343
a(S'13-1'
p344
V14
p345
tp346
a(S'13-1'
p347
V14
p348
tp349
a(S'15-1'
p350
V12
p351
tp352
a(S'15-1'
p353
V12
p354
tp355
a(S'13-1'
p356
V13
p357
tp358
a(S'15-1'
p359
V5
p360
tp361
a(S'14-1'
p362
V12
p363
tp364
asS"['R.0']"
p365
(lp366
(S'13-1'
p367
V13*12
p368
(lp369
(S'R.0'
p370
F13.0
S'13'
p371
V13
p372
tp373
aS'jar045'
p374
(lp375
V2016-10-19 07:03:43
p376
tp377
a(S'15-1'
p378
V15 - 8
p379
(lp380
(S'R.0'
p381
F15.0
S'15'
p382
V15
p383
tp384
aS'Ryan_Yi'
p385
(lp386
V2016-10-16 05:45:35
p387
tp388
asS"['R.1']"
p389
(lp390
(S'15-1'
p391
V(14-1) * (14-2) * 1.0
p392
(lp393
(S'R.1'
p394
F1.0
S'1'
p395
V1.0
p396
tp397
aS'jar045'
p398
(lp399
V2016-10-19 07:09:06
p400
tp401
a(S'15-1'
p402
V15 - 6 + 1
p403
(lp404
(S'R.1'
p405
F1.0
g395
V1
p406
tp407
aS'cpence'
p408
(lp409
V2016-10-19 06:43:11
p410
tp411
a(S'14-1'
p412
V13-1
p413
(lp414
(S'R.1'
p415
F1.0
g395
g406
tp416
aS'woguan'
p417
(lp418
V2016-10-19 06:13:37
p419
tp420
a(S'13-1'
p421
V14-1
p422
(lp423
(S'R.1'
p424
F1.0
g395
g406
tp425
aS'rsamuail'
p426
(lp427
V2016-10-19 19:30:49
p428
tp429
a(S'14-1'
p430
V13 - 1
p431
(lp432
(S'R.1'
p433
F1.0
g395
g406
tp434
aS'heitorschueroff'
p435
(lp436
V2016-10-19 01:37:52
p437
tp438
a(S'13-1'
p439
V15 - 1
p440
(lp441
(S'R.1'
p442
F1.0
g395
g406
tp443
aS'heitorschueroff'
p444
(lp445
V2016-10-19 01:42:37
p446
tp447
a(S'15-1'
p448
V14 - 1
p449
(lp450
(S'R.1'
p451
F1.0
g395
g406
tp452
aS'Ryan_Yi'
p453
(lp454
V2016-10-16 05:53:20
p455
tp456
a(S'15-1'
p457
V13 - 1
p458
(lp459
(S'R.1'
p460
F1.0
g395
g406
tp461
aS'Ryan_Yi'
p462
(lp463
V2016-10-16 05:54:44
p464
tp465
a(S'13-1'
p466
V14 - 1
p467
(lp468
(S'R.1'
p469
F1.0
g395
g406
tp470
aS'Ryan_Yi'
p471
(lp472
V2016-10-16 05:55:08
p473
tp474
a(S'13-1'
p475
V14 - 1
p476
(lp477
(S'R.1'
p478
F1.0
g395
g406
tp479
aS'Ryan_Yi'
p480
(lp481
V2016-10-16 05:56:00
p482
tp483
a(S'14-1'
p484
V13 - 1
p485
(lp486
(S'R.1'
p487
F1.0
g395
g406
tp488
aS'Ryan_Yi'
p489
(lp490
V2016-10-16 06:01:36
p491
tp492
a(S'15-1'
p493
V(15-2-1)
p494
(lp495
(S'R.1'
p496
F1.0
g395
g406
tp497
aS'Guillermo'
p498
(lp499
V2016-10-16 21:04:31
p500
tp501
asS"['R']"
p502
(lp503
(S'15-1'
p504
V14
p505
(lp506
(S'R'
p507
F14.0
g504
g505
tp508
aS'NicoleStone'
p509
(lp510
V2016-10-16 04:39:47
p511
tp512
a(S'15-1'
p513
V15-1
p514
(lp515
(g507
F14.0
g513
g514
tp516
aS'Jisu'
p517
(lp518
V2016-10-16 06:41:15
p519
tp520
a(S'13-1'
p521
V12
p522
(lp523
(g507
F12.0
g521
g522
tp524
aS'ray003'
p525
(lp526
V2016-10-16 09:30:24
p527
tp528
a(S'15-1'
p529
V14
p530
(lp531
(g507
F14.0
g529
g530
tp532
aS'ReneSanchez'
p533
(lp534
V2016-10-17 23:12:47
p535
tp536
a(S'14-1'
p537
V13
p538
(lp539
(g507
F13.0
g537
g538
tp540
aS'ReneSanchez'
p541
(lp542
V2016-10-17 23:13:14
p543
tp544
a(S'14-1'
p545
V13
p546
(lp547
(g507
F13.0
g545
g546
tp548
aS'ReneSanchez'
p549
(lp550
V2016-10-17 23:13:39
p551
tp552
a(S'14-1'
p553
V13
p554
(lp555
(g507
F13.0
g553
g554
tp556
aS'jar045'
p557
(lp558
V2016-10-19 07:31:11
p559
tp560
a(S'14-1'
p561
V13
p562
(lp563
(g507
F13.0
g561
g562
tp564
aS'ThucPhan'
p565
(lp566
V2016-10-19 03:02:25
p567
tp568
a(S'14-1'
p569
V13
p570
(lp571
(g507
F13.0
g569
g570
tp572
aS'alvinyho'
p573
(lp574
V2016-10-19 06:16:33
p575
tp576
a(S'13-1'
p577
V12
p578
(lp579
(g507
F12.0
g577
g578
tp580
aS'lmfink'
p581
(lp582
V2016-10-17 20:10:32
p583
tp584
a(S'14-1'
p585
V13
p586
(lp587
(g507
F13.0
g585
g586
tp588
aS'lmfink'
p589
(lp590
V2016-10-17 20:16:26
p591
tp592
a(S'14-1'
p593
V13
p594
(lp595
(g507
F13.0
g593
g594
tp596
aS'sunilraiyani'
p597
(lp598
V2016-10-16 21:39:29
p599
tp600
a(S'13-1'
p601
V12
p602
(lp603
(g507
F12.0
g601
g602
tp604
aS'sunilraiyani'
p605
(lp606
V2016-10-18 03:30:28
p607
tp608
a(S'14-1'
p609
V13
p610
(lp611
(g507
F13.0
g609
g610
tp612
aS'cpence'
p613
(lp614
V2016-10-19 06:50:47
p615
tp616
a(S'14-1'
p617
V13
p618
(lp619
(g507
F13.0
g617
g618
tp620
aS'PriyankaK'
p621
(lp622
V2016-10-18 04:05:50
p623
tp624
a(S'14-1'
p625
V13
p626
(lp627
(g507
F13.0
g625
g626
tp628
aS'twsalim'
p629
(lp630
V2016-10-18 00:06:38
p631
tp632
a(S'13-1'
p633
V13-1
p634
(lp635
(g507
F12.0
g633
g634
tp636
aS'woguan'
p637
(lp638
V2016-10-19 06:12:17
p639
tp640
a(S'15-1'
p641
V14
p642
(lp643
(g507
F14.0
g641
g642
tp644
aS'codyndoan'
p645
(lp646
V2016-10-18 19:54:55
p647
tp648
a(S'14-1'
p649
V13
p650
(lp651
(g507
F13.0
g649
g650
tp652
aS'codyndoan'
p653
(lp654
V2016-10-18 20:01:22
p655
tp656
a(S'14-1'
p657
V13
p658
(lp659
(g507
F13.0
g657
g658
tp660
aS'codyndoan'
p661
(lp662
V2016-10-18 20:09:38
p663
tp664
a(S'13-1'
p665
V12
p666
(lp667
(g507
F12.0
g665
g666
tp668
aS't2xu'
p669
(lp670
V2016-10-18 08:49:10
p671
tp672
a(S'14-1'
p673
V13
p674
(lp675
(g507
F13.0
g673
g674
tp676
aS'evahuynh'
p677
(lp678
V2016-10-19 17:49:03
p679
tp680
a(S'15-1'
p681
V14
p682
(lp683
(g507
F14.0
g681
g682
tp684
aS'evahuynh'
p685
(lp686
V2016-10-19 17:53:33
p687
tp688
a(S'15-1'
p689
V14
p690
(lp691
(g507
F14.0
g689
g690
tp692
aS'aives'
p693
(lp694
V2016-10-19 01:46:25
p695
tp696
a(S'15-1'
p697
V14
p698
(lp699
(g507
F14.0
g697
g698
tp700
aS'aives'
p701
(lp702
V2016-10-19 01:47:25
p703
tp704
a(S'15-1'
p705
V14
p706
(lp707
(g507
F14.0
g705
g706
tp708
aS'JiangfengYin'
p709
(lp710
V2016-10-19 10:17:27
p711
tp712
a(S'15-1'
p713
V14
p714
(lp715
(g507
F14.0
g713
g714
tp716
aS'JiangfengYin'
p717
(lp718
V2016-10-19 10:23:15
p719
tp720
a(S'15-1'
p721
V14
p722
(lp723
(g507
F14.0
g721
g722
tp724
aS'dillonliu'
p725
(lp726
V2016-10-18 05:05:26
p727
tp728
a(S'14-1'
p729
V13
p730
(lp731
(g507
F13.0
g729
g730
tp732
aS'URajkumar'
p733
(lp734
V2016-10-19 07:40:31
p735
tp736
a(S'15-1'
p737
V14
p738
(lp739
(g507
F14.0
g737
g738
tp740
aS'maddymanu'
p741
(lp742
V2016-10-17 21:40:48
p743
tp744
a(S'15-1'
p745
V14
p746
(lp747
(g507
F14.0
g745
g746
tp748
aS'maddymanu'
p749
(lp750
V2016-10-18 23:48:08
p751
tp752
a(S'15-1'
p753
V14
p754
(lp755
(g507
F14.0
g753
g754
tp756
aS'maddymanu'
p757
(lp758
V2016-10-18 23:49:05
p759
tp760
a(S'15-1'
p761
V14
p762
(lp763
(g507
F14.0
g761
g762
tp764
aS'ThuanNguyen'
p765
(lp766
V2016-10-19 18:40:32
p767
tp768
a(S'13-1'
p769
V12
p770
(lp771
(g507
F12.0
g769
g770
tp772
aS'ThuanNguyen'
p773
(lp774
V2016-10-19 18:45:31
p775
tp776
a(S'15-1'
p777
V14
p778
(lp779
(g507
F14.0
g777
g778
tp780
aS'ThuanNguyen'
p781
(lp782
V2016-10-19 18:47:59
p783
tp784
a(S'15-1'
p785
V14
p786
(lp787
(g507
F14.0
g785
g786
tp788
aS'piamsiri'
p789
(lp790
V2016-10-18 06:46:51
p791
tp792
a(S'15-1'
p793
V14
p794
(lp795
(g507
F14.0
g793
g794
tp796
aS'christywong'
p797
(lp798
V2016-10-18 04:34:24
p799
tp800
a(S'13-1'
p801
V12
p802
(lp803
(g507
F12.0
g801
g802
tp804
aS'christywong'
p805
(lp806
V2016-10-18 04:40:15
p807
tp808
a(S'14-1'
p809
V13
p810
(lp811
(g507
F13.0
g809
g810
tp812
aS'christywong'
p813
(lp814
V2016-10-19 03:10:25
p815
tp816
a(S'14-1'
p817
V13
p818
(lp819
(g507
F13.0
g817
g818
tp820
aS'DannyDelCerro'
p821
(lp822
V2016-10-16 23:05:06
p823
tp824
a(S'13-1'
p825
V12
p826
(lp827
(g507
F12.0
g825
g826
tp828
aS'mbland'
p829
(lp830
V2016-10-18 02:41:00
p831
tp832
a(S'15-1'
p833
V14
p834
(lp835
(g507
F14.0
g833
g834
tp836
aS'Ryan'
p837
(lp838
V2016-10-19 08:43:05
p839
tp840
a(S'15-1'
p841
V14
p842
(lp843
(g507
F14.0
g841
g842
tp844
aS'Ryan'
p845
(lp846
V2016-10-19 08:43:32
p847
tp848
a(S'13-1'
p849
V12
p850
(lp851
(g507
F12.0
g849
g850
tp852
aS'Ryan'
p853
(lp854
V2016-10-19 08:44:20
p855
tp856
a(S'15-1'
p857
V14
p858
(lp859
(g507
F14.0
g857
g858
tp860
aS'Ryan'
p861
(lp862
V2016-10-19 08:52:11
p863
tp864
a(S'13-1'
p865
V12
p866
(lp867
(g507
F12.0
g865
g866
tp868
aS'jih089'
p869
(lp870
V2016-10-16 05:26:05
p871
tp872
a(S'14-1'
p873
V13
p874
(lp875
(g507
F13.0
g873
g874
tp876
aS'jih089'
p877
(lp878
V2016-10-16 05:33:07
p879
tp880
a(S'14-1'
p881
V13
p882
(lp883
(g507
F13.0
g881
g882
tp884
aS'Ken_Truong'
p885
(lp886
V2016-10-16 13:09:58
p887
tp888
a(S'14-1'
p889
V14-1
p890
(lp891
(g507
F13.0
g889
g890
tp892
aS'Guillermo'
p893
(lp894
V2016-10-16 21:25:36
p895
tp896
a(S'14-1'
p897
V13
p898
(lp899
(g507
F13.0
g897
g898
tp900
aS'RobinO'
p901
(lp902
V2016-10-18 03:50:40
p903
tp904
a(S'14-1'
p905
V13
p906
(lp907
(g507
F13.0
g905
g906
tp908
aS'zow006'
p909
(lp910
V2016-10-18 00:16:47
p911
tp912
a(S'13-1'
p913
V12
p914
(lp915
(g507
F12.0
g913
g914
tp916
aS'kmesic'
p917
(lp918
V2016-10-18 02:48:15
p919
tp920
a(S'13-1'
p921
V12
p922
(lp923
(g507
F12.0
g921
g922
tp924
aS'PizzaPolice'
p925
(lp926
V2016-10-17 08:37:18
p927
tp928
a(S'14-1'
p929
V13
p930
(lp931
(g507
F13.0
g929
g930
tp932
aS'PizzaPolice'
p933
(lp934
V2016-10-17 08:40:45
p935
tp936
a(S'15-1'
p937
V14
p938
(lp939
(g507
F14.0
g937
g938
tp940
aS'PizzaPolice'
p941
(lp942
V2016-10-17 08:41:58
p943
tp944
a(S'14-1'
p945
V13
p946
(lp947
(g507
F13.0
g945
g946
tp948
aS'HaoDong'
p949
(lp950
V2016-10-16 06:43:00
p951
tp952
a(S'14-1'
p953
V13
p954
(lp955
(g507
F13.0
g953
g954
tp956
aS'HaoDong'
p957
(lp958
V2016-10-16 06:44:32
p959
tp960
a(S'15-1'
p961
V14
p962
(lp963
(g507
F14.0
g961
g962
tp964
aS'mhatch'
p965
(lp966
V2016-10-19 06:00:27
p967
tp968
a(S'14-1'
p969
V13
p970
(lp971
(g507
F13.0
g969
g970
tp972
aS'Sync'
p973
(lp974
V2016-10-19 00:45:00
p975
tp976
assS'3'
p977
g2
(g3
tp978
Rp979
g6
(lp980
(S'(14-1)*(14-2)'
p981
V3
p982
tp983
a(S'(15-1)*(15-2)'
p984
V56
p985
tp986
a(S'(13-1)*(13-2)'
p987
V72
p988
tp989
a(S'(13-1)*(13-2)'
p990
V30
p991
tp992
a(S'(15-1)*(15-2)'
p993
V21
p994
tp995
a(S'(15-1)*(15-2)'
p996
V10
p997
tp998
a(S'(14-1)*(14-2)'
p999
V3
p1000
tp1001
a(S'(15-1)*(15-2)'
p1002
V39
p1003
tp1004
a(S'(13-1)*(13-2)'
p1005
V156
p1006
tp1007
a(S'(15-1)*(15-2)'
p1008
V156
p1009
tp1010
a(S'(14-1)*(14-2)'
p1011
V182
p1012
tp1013
a(S'(15-1)*(15-2)'
p1014
V14
p1015
tp1016
a(S'(13-1)*(13-2)'
p1017
V21
p1018
tp1019
a(S'(14-1)*(14-2)'
p1020
V1
p1021
tp1022
a(S'(14-1)*(14-2)'
p1023
V56
p1024
tp1025
a(S'(14-1)*(14-2)'
p1026
V1
p1027
tp1028
a(S'(14-1)*(14-2)'
p1029
V11
p1030
tp1031
a(S'(14-1)*(14-2)'
p1032
V182
p1033
tp1034
a(S'(13-1)*(13-2)'
p1035
V156
p1036
tp1037
asS"['R.0']"
p1038
(lp1039
(S'(15-1)*(15-2)'
p1040
VP(14,3)
p1041
(lp1042
(S'R.0'
p1043
F14.0
S'15-1'
p1044
V14
p1045
tp1046
ag541
(lp1047
V2016-10-17 23:13:14
p1048
tp1049
a(S'(13-1)*(13-2)'
p1050
VC(12,2)
p1051
(lp1052
(S'R.0'
p1053
F12.0
S'13-1'
p1054
V12
p1055
tp1056
aS'aives'
p1057
(lp1058
V2016-10-19 01:44:53
p1059
tp1060
a(S'(15-1)*(15-2)'
p1061
VC(14,2)
p1062
(lp1063
(S'R.0'
p1064
F14.0
S'15-1'
p1065
V14
p1066
tp1067
aS'christywong'
p1068
(lp1069
V2016-10-18 18:35:12
p1070
tp1071
a(S'(15-1)*(15-2)'
p1072
V14*15
p1073
(lp1074
(S'R.0'
p1075
F14.0
S'15-1'
p1076
V14
p1077
tp1078
aS'Sync'
p1079
(lp1080
V2016-10-19 00:44:06
p1081
tp1082
asS"['R']"
p1083
(lp1084
(S'(15-1)*(15-2)'
p1085
V14*13
p1086
(lp1087
(g507
F182.0
g1085
g1086
tp1088
ag509
(lp1089
V2016-10-16 04:39:47
p1090
tp1091
a(S'(13-1)*(13-2)'
p1092
V132
p1093
(lp1094
(g507
F132.0
g1092
g1093
tp1095
ag525
(lp1096
V2016-10-16 09:30:24
p1097
tp1098
a(S'(13-1)*(13-2)'
p1099
V12*11
p1100
(lp1101
(g507
F132.0
g1099
g1100
tp1102
aS'ReneSanchez'
p1103
(lp1104
V2016-10-17 23:20:35
p1105
tp1106
a(S'(14-1)*(14-2)'
p1107
V13*12
p1108
(lp1109
(g507
F156.0
g1107
g1108
tp1110
aS'ReneSanchez'
p1111
(lp1112
V2016-10-17 23:22:11
p1113
tp1114
a(S'(14-1)*(14-2)'
p1115
V(14-1)*(14-2)
p1116
(lp1117
(g507
F156.0
g1115
g1116
tp1118
aS'jar045'
p1119
(lp1120
V2016-10-19 07:22:24
p1121
tp1122
a(S'(14-1)*(14-2)'
p1123
V(14-1)*(14-2)
p1124
(lp1125
(g507
F156.0
g1123
g1124
tp1126
ag557
(lp1127
V2016-10-19 07:31:11
p1128
tp1129
a(S'(14-1)*(14-2)'
p1130
V13*12
p1131
(lp1132
(g507
F156.0
g1130
g1131
tp1133
ag573
(lp1134
V2016-10-19 06:16:33
p1135
tp1136
a(S'(14-1)*(14-2)'
p1137
V13 * 12
p1138
(lp1139
(g507
F156.0
g1137
g1138
tp1140
ag589
(lp1141
V2016-10-17 20:16:26
p1142
tp1143
a(S'(14-1)*(14-2)'
p1144
VP(13, 2)
p1145
(lp1146
(g507
F156.0
g1144
g1145
tp1147
ag613
(lp1148
V2016-10-19 06:50:47
p1149
tp1150
a(S'(14-1)*(14-2)'
p1151
V13*12
p1152
(lp1153
(g507
F156.0
g1151
g1152
tp1154
ag629
(lp1155
V2016-10-18 00:06:38
p1156
tp1157
a(S'(13-1)*(13-2)'
p1158
V(13-1)*(13-2)
p1159
(lp1160
(g507
F132.0
g1158
g1159
tp1161
ag637
(lp1162
V2016-10-19 06:12:17
p1163
tp1164
a(S'(13-1)*(13-2)'
p1165
V(13-1)*(13-2)
p1166
(lp1167
(g507
F132.0
g1165
g1166
tp1168
ag417
(lp1169
V2016-10-19 06:13:37
p1170
tp1171
a(S'(14-1)*(14-2)'
p1172
V(14-1)*(14-2)
p1173
(lp1174
(g507
F156.0
g1172
g1173
tp1175
ag426
(lp1176
V2016-10-19 19:30:49
p1177
tp1178
a(S'(15-1)*(15-2)'
p1179
V14*13
p1180
(lp1181
(g507
F182.0
g1179
g1180
tp1182
ag645
(lp1183
V2016-10-18 19:54:55
p1184
tp1185
a(S'(15-1)*(15-2)'
p1186
V14*13
p1187
(lp1188
(g507
F182.0
g1186
g1187
tp1189
aS'codyndoan'
p1190
(lp1191
V2016-10-18 20:02:54
p1192
tp1193
a(S'(14-1)*(14-2)'
p1194
V13*12
p1195
(lp1196
(g507
F156.0
g1194
g1195
tp1197
aS'codyndoan'
p1198
(lp1199
V2016-10-18 20:05:35
p1200
tp1201
a(S'(15-1)*(15-2)'
p1202
V14*13
p1203
(lp1204
(g507
F182.0
g1202
g1203
tp1205
ag444
(lp1206
V2016-10-19 01:42:37
p1207
tp1208
a(S'(14-1)*(14-2)'
p1209
V12*13
p1210
(lp1211
(g507
F156.0
g1209
g1210
tp1212
aS'QIQIWU'
p1213
(lp1214
V2016-10-18 01:19:06
p1215
tp1216
a(S'(13-1)*(13-2)'
p1217
V12*11
p1218
(lp1219
(g507
F132.0
g1217
g1218
tp1220
aS't2xu'
p1221
(lp1222
V2016-10-18 08:51:26
p1223
tp1224
a(S'(15-1)*(15-2)'
p1225
VP(14,2)
p1226
(lp1227
(g507
F182.0
g1225
g1226
tp1228
aS'yuhan'
p1229
(lp1230
V2016-10-18 19:51:02
p1231
tp1232
a(S'(13-1)*(13-2)'
p1233
V11*12
p1234
(lp1235
(g507
F132.0
g1233
g1234
tp1236
aS'URajkumar'
p1237
(lp1238
V2016-10-19 07:42:01
p1239
tp1240
a(S'(14-1)*(14-2)'
p1241
V12*13
p1242
(lp1243
(g507
F156.0
g1241
g1242
tp1244
aS'ShannonWang'
p1245
(lp1246
V2016-10-17 05:50:01
p1247
tp1248
a(S'(14-1)*(14-2)'
p1249
V13*12
p1250
(lp1251
(g507
F156.0
g1249
g1250
tp1252
aS'maddymanu'
p1253
(lp1254
V2016-10-18 23:46:48
p1255
tp1256
a(S'(15-1)*(15-2)'
p1257
V14*13
p1258
(lp1259
(g507
F182.0
g1257
g1258
tp1260
ag749
(lp1261
V2016-10-18 23:48:08
p1262
tp1263
a(S'(13-1)*(13-2)'
p1264
V12*11
p1265
(lp1266
(g507
F132.0
g1264
g1265
tp1267
aS'piamsiri'
p1268
(lp1269
V2016-10-18 06:48:13
p1270
tp1271
a(S'(15-1)*(15-2)'
p1272
V14*13
p1273
(lp1274
(g507
F182.0
g1272
g1273
tp1275
aS'wheilson'
p1276
(lp1277
V2016-10-18 22:41:08
p1278
tp1279
a(S'(15-1)*(15-2)'
p1280
V14*13
p1281
(lp1282
(g507
F182.0
g1280
g1281
tp1283
aS'til005'
p1284
(lp1285
V2016-10-18 03:47:55
p1286
tp1287
a(S'(14-1)*(14-2)'
p1288
V13*12
p1289
(lp1290
(g507
F156.0
g1288
g1289
tp1291
aS'Zhongting'
p1292
(lp1293
V2016-10-16 07:30:34
p1294
tp1295
a(S'(15-1)*(15-2)'
p1296
V14 * 13
p1297
(lp1298
(g507
F182.0
g1296
g1297
tp1299
ag845
(lp1300
V2016-10-19 08:43:32
p1301
tp1302
a(S'(13-1)*(13-2)'
p1303
VP(12,2)
p1304
(lp1305
(g507
F132.0
g1303
g1304
tp1306
aS'jih089'
p1307
(lp1308
V2016-10-16 05:31:56
p1309
tp1310
a(S'(14-1)*(14-2)'
p1311
VP(13,2)
p1312
(lp1313
(g507
F156.0
g1311
g1312
tp1314
ag877
(lp1315
V2016-10-16 05:33:07
p1316
tp1317
a(S'(14-1)*(14-2)'
p1318
V13*12
p1319
(lp1320
(g507
F156.0
g1318
g1319
tp1321
ag901
(lp1322
V2016-10-18 03:50:40
p1323
tp1324
a(S'(13-1)*(13-2)'
p1325
V132
p1326
(lp1327
(g507
F132.0
g1325
g1326
tp1328
aS'vicorhe'
p1329
(lp1330
V2016-10-19 19:00:18
p1331
tp1332
a(S'(13-1)*(13-2)'
p1333
V12*11
p1334
(lp1335
(g507
F132.0
g1333
g1334
tp1336
aS'kballew00'
p1337
(lp1338
V2016-10-19 16:33:29
p1339
tp1340
a(S'(14-1)*(14-2)'
p1341
V13*12
p1342
(lp1343
(g507
F156.0
g1341
g1342
tp1344
aS'thartopu'
p1345
(lp1346
V2016-10-19 12:03:37
p1347
tp1348
a(S'(14-1)*(14-2)'
p1349
V13 * 12
p1350
(lp1351
(g507
F156.0
g1349
g1350
tp1352
ag933
(lp1353
V2016-10-17 08:40:45
p1354
tp1355
a(S'(15-1)*(15-2)'
p1356
V14 * 13
p1357
(lp1358
(g507
F182.0
g1356
g1357
tp1359
ag941
(lp1360
V2016-10-17 08:41:58
p1361
tp1362
a(S'(14-1)*(14-2)'
p1363
V13*12
p1364
(lp1365
(g507
F156.0
g1363
g1364
tp1366
ag957
(lp1367
V2016-10-16 06:44:32
p1368
tp1369
a(S'(15-1)*(15-2)'
p1370
V14 * 13
p1371
(lp1372
(g507
F182.0
g1370
g1371
tp1373
ag965
(lp1374
V2016-10-19 06:00:27
p1375
tp1376
a(S'(14-1)*(14-2)'
p1377
V13*12
p1378
(lp1379
(g507
F156.0
g1377
g1378
tp1380
ag973
(lp1381
V2016-10-19 00:45:00
p1382
tp1383
a(S'(13-1)*(13-2)'
p1384
V12*11
p1385
(lp1386
(g507
F132.0
g1384
g1385
tp1387
aS'nicoleyfq'
p1388
(lp1389
V2016-10-19 18:29:14
p1390
tp1391
asS"['R.0.1', 'R.1.1']"
p1392
(lp1393
(S'(15-1)*(15-2)'
p1394
V(14-1)*(14-2)
p1395
(lp1396
(S'R.0.1'
p1397
F1.0
g395
g406
tp1398
a(S'R.1.1'
p1399
F2.0
S'2'
p1400
V2
p1401
tp1402
ag565
(lp1403
V2016-10-19 03:02:25
p1404
tp1405
a(S'(14-1)*(14-2)'
p1406
V(13-1)*(13-2)
p1407
(lp1408
(S'R.0.1'
p1409
F1.0
g395
g406
tp1410
a(S'R.1.1'
p1411
F2.0
g1400
g1401
tp1412
aS'woguan'
p1413
(lp1414
V2016-10-19 06:11:09
p1415
tp1416
a(S'(14-1)*(14-2)'
p1417
V(15-1)*(15-2)
p1418
(lp1419
(S'R.0.1'
p1420
F1.0
g395
g406
tp1421
a(S'R.1.1'
p1422
F2.0
g1400
g1401
tp1423
aS'Guillermo'
p1424
(lp1425
V2016-10-16 21:10:58
p1426
tp1427
a(S'(13-1)*(13-2)'
p1428
V(14-1)*(14-2)
p1429
(lp1430
(S'R.0.1'
p1431
F1.0
g395
g406
tp1432
a(S'R.1.1'
p1433
F2.0
g1400
g1401
tp1434
ag893
(lp1435
V2016-10-16 21:25:36
p1436
tp1437
assS'2'
p1438
g2
(g3
tp1439
Rp1440
g6
(lp1441
(S'13-2'
p1442
V6
p1443
tp1444
a(S'13-2'
p1445
V13
p1446
tp1447
a(S'15-2'
p1448
V11
p1449
tp1450
a(S'13-2'
p1451
V13
p1452
tp1453
a(S'15-2'
p1454
V12
p1455
tp1456
a(S'15-2'
p1457
V11
p1458
tp1459
a(S'15-2'
p1460
V11
p1461
tp1462
a(S'15-2'
p1463
V12
p1464
tp1465
a(S'13-2'
p1466
V6
p1467
tp1468
a(S'13-2'
p1469
V12
p1470
tp1471
a(S'13-2'
p1472
V8
p1473
tp1474
a(S'14-2'
p1475
V5
p1476
tp1477
a(S'15-2'
p1478
V12
p1479
tp1480
a(S'14-2'
p1481
V11
p1482
tp1483
a(S'13-2'
p1484
V12
p1485
tp1486
a(S'15-2'
p1487
V12
p1488
tp1489
a(S'15-2'
p1490
V12
p1491
tp1492
a(S'14-2'
p1493
V13
p1494
tp1495
a(S'15-2'
p1496
V12
p1497
tp1498
a(S'15-2'
p1499
V11
p1500
tp1501
a(S'13-2'
p1502
V12
p1503
tp1504
a(S'14-2'
p1505
V13
p1506
tp1507
a(S'15-2'
p1508
V12
p1509
tp1510
a(S'13-2'
p1511
V9
p1512
tp1513
a(S'15-2'
p1514
V12
p1515
tp1516
a(S'14-2'
p1517
V11
p1518
tp1519
a(S'15-2'
p1520
V1
p1521
tp1522
a(S'15-2'
p1523
V6
p1524
tp1525
a(S'13-2'
p1526
V7
p1527
tp1528
a(S'13-2'
p1529
V9
p1530
tp1531
a(S'15-2'
p1532
V1
p1533
tp1534
a(S'14-2'
p1535
V3
p1536
tp1537
a(S'15-2'
p1538
V11
p1539
tp1540
a(S'14-2'
p1541
V11
p1542
tp1543
a(S'14-2'
p1544
V6
p1545
tp1546
a(S'15-2'
p1547
V12
p1548
tp1549
a(S'14-2'
p1550
V13
p1551
tp1552
a(S'14-2'
p1553
V11
p1554
tp1555
a(S'14-2'
p1556
V13
p1557
tp1558
a(S'14-2'
p1559
V13
p1560
tp1561
a(S'14-2'
p1562
V9
p1563
tp1564
a(S'13-2'
p1565
V3
p1566
tp1567
a(S'13-2'
p1568
V12
p1569
tp1570
a(S'15-2'
p1571
V12
p1572
tp1573
a(S'15-2'
p1574
V12
p1575
tp1576
a(S'14-2'
p1577
V5
p1578
tp1579
a(S'13-2'
p1580
V13
p1581
tp1582
a(S'14-2'
p1583
V7
p1584
tp1585
a(S'15-2'
p1586
V11
p1587
tp1588
a(S'13-2'
p1589
V13
p1590
tp1591
a(S'13-2'
p1592
V12
p1593
tp1594
a(S'13-2'
p1595
V14
p1596
tp1597
a(S'15-2'
p1598
V9
p1599
tp1600
a(S'14-2'
p1601
V13
p1602
tp1603
a(S'15-2'
p1604
V12
p1605
tp1606
a(S'13-2'
p1607
V13
p1608
tp1609
a(S'13-2'
p1610
V13
p1611
tp1612
a(S'14-2'
p1613
V11
p1614
tp1615
a(S'14-2'
p1616
V13
p1617
tp1618
a(S'13-2'
p1619
V6
p1620
tp1621
a(S'13-2'
p1622
V13
p1623
tp1624
a(S'14-2'
p1625
V11
p1626
tp1627
a(S'14-2'
p1628
V13
p1629
tp1630
a(S'13-2'
p1631
V13
p1632
tp1633
a(S'15-2'
p1634
V11
p1635
tp1636
a(S'13-2'
p1637
V13
p1638
tp1639
a(S'13-2'
p1640
V8
p1641
tp1642
a(S'13-2'
p1643
V12
p1644
tp1645
a(S'14-2'
p1646
V11
p1647
tp1648
a(S'15-2'
p1649
V11
p1650
tp1651
a(S'14-2'
p1652
V13
p1653
tp1654
a(S'13-2'
p1655
V10
p1656
tp1657
a(S'13-2'
p1658
V15
p1659
tp1660
a(S'13-2'
p1661
V13
p1662
tp1663
a(S'13-2'
p1664
V78
p1665
tp1666
a(S'13-2'
p1667
V12
p1668
tp1669
a(S'15-2'
p1670
V7
p1671
tp1672
a(S'14-2'
p1673
V11
p1674
tp1675
a(S'13-2'
p1676
V1
p1677
tp1678
a(S'14-2'
p1679
V13
p1680
tp1681
a(S'15-2'
p1682
V11
p1683
tp1684
a(S'15-2'
p1685
V12
p1686
tp1687
a(S'13-2'
p1688
V13
p1689
tp1690
a(S'13-2'
p1691
V12
p1692
tp1693
a(S'15-2'
p1694
V11
p1695
tp1696
a(S'13-2'
p1697
V12
p1698
tp1699
a(S'14-2'
p1700
V7
p1701
tp1702
a(S'13-2'
p1703
V12
p1704
tp1705
a(S'14-2'
p1706
V1
p1707
tp1708
a(S'14-2'
p1709
V1
p1710
tp1711
a(S'14-2'
p1712
V13
p1713
tp1714
a(S'13-2'
p1715
V5
p1716
tp1717
a(S'15-2'
p1718
V12
p1719
tp1720
a(S'15-2'
p1721
V11
p1722
tp1723
a(S'15-2'
p1724
V11
p1725
tp1726
a(S'14-2'
p1727
V13
p1728
tp1729
a(S'15-2'
p1730
V12
p1731
tp1732
a(S'14-2'
p1733
V13
p1734
tp1735
a(S'15-2'
p1736
V15
p1737
tp1738
a(S'13-2'
p1739
V13
p1740
tp1741
a(S'13-2'
p1742
V12
p1743
tp1744
a(S'15-2'
p1745
V11
p1746
tp1747
a(S'15-2'
p1748
V11
p1749
tp1750
asS"['R.1']"
p1751
(lp1752
(S'15-2'
p1753
V13-2
p1754
(lp1755
(S'R.1'
p1756
F2.0
g1400
g1401
tp1757
ag1413
(lp1758
V2016-10-19 06:11:09
p1759
tp1760
a(S'14-2'
p1761
V13-2
p1762
(lp1763
(S'R.1'
p1764
F2.0
g1400
g1401
tp1765
ag417
(lp1766
V2016-10-19 06:13:37
p1767
tp1768
a(S'15-2'
p1769
V14-2
p1770
(lp1771
(S'R.1'
p1772
F2.0
g1400
g1401
tp1773
ag426
(lp1774
V2016-10-19 19:30:49
p1775
tp1776
a(S'14-2'
p1777
V15 - 2
p1778
(lp1779
(S'R.1'
p1780
F2.0
g1400
g1401
tp1781
ag444
(lp1782
V2016-10-19 01:42:37
p1783
tp1784
a(S'15-2'
p1785
V14 - 2
p1786
(lp1787
(S'R.1'
p1788
F2.0
g1400
g1401
tp1789
ag471
(lp1790
V2016-10-16 05:55:08
p1791
tp1792
a(S'13-2'
p1793
V14 - 2
p1794
(lp1795
(S'R.1'
p1796
F2.0
g1400
g1401
tp1797
ag480
(lp1798
V2016-10-16 05:56:00
p1799
tp1800
a(S'14-2'
p1801
V15-2
p1802
(lp1803
(S'R.1'
p1804
F2.0
g1400
g1401
tp1805
ag1424
(lp1806
V2016-10-16 21:10:58
p1807
tp1808
a(S'13-2'
p1809
V14-2
p1810
(lp1811
(S'R.1'
p1812
F2.0
g1400
g1401
tp1813
ag893
(lp1814
V2016-10-16 21:25:36
p1815
tp1816
asS"['R']"
p1817
(lp1818
(S'15-2'
p1819
V15-2
p1820
(lp1821
(g507
F13.0
g1819
g1820
tp1822
ag517
(lp1823
V2016-10-16 06:41:15
p1824
tp1825
a(S'14-2'
p1826
V12
p1827
(lp1828
(g507
F12.0
g1826
g1827
tp1829
ag541
(lp1830
V2016-10-17 23:13:14
p1831
tp1832
a(S'14-2'
p1833
V12
p1834
(lp1835
(g507
F12.0
g1833
g1834
tp1836
ag1111
(lp1837
V2016-10-17 23:22:11
p1838
tp1839
a(S'14-2'
p1840
V12
p1841
(lp1842
(g507
F12.0
g1840
g1841
tp1843
aS'ReneSanchez'
p1844
(lp1845
V2016-10-17 23:25:26
p1846
tp1847
a(S'14-2'
p1848
V12
p1849
(lp1850
(g507
F12.0
g1848
g1849
tp1851
ag557
(lp1852
V2016-10-19 07:31:11
p1853
tp1854
a(S'13-2'
p1855
V11
p1856
(lp1857
(g507
F11.0
g1855
g1856
tp1858
aS'ThucPhan'
p1859
(lp1860
V2016-10-19 00:18:23
p1861
tp1862
a(S'15-2'
p1863
V13
p1864
(lp1865
(g507
F13.0
g1863
g1864
tp1866
aS'ThucPhan'
p1867
(lp1868
V2016-10-19 02:59:48
p1869
tp1870
a(S'13-2'
p1871
V11
p1872
(lp1873
(g507
F11.0
g1871
g1872
tp1874
aS'lmfink'
p1875
(lp1876
V2016-10-17 20:09:17
p1877
tp1878
a(S'14-2'
p1879
V12
p1880
(lp1881
(g507
F12.0
g1879
g1880
tp1882
ag589
(lp1883
V2016-10-17 20:16:26
p1884
tp1885
a(S'15-2'
p1886
V13
p1887
(lp1888
(g507
F13.0
g1886
g1887
tp1889
aS'chenboy3'
p1890
(lp1891
V2016-10-16 16:53:08
p1892
tp1893
a(S'14-2'
p1894
V12
p1895
(lp1896
(g507
F12.0
g1894
g1895
tp1897
ag597
(lp1898
V2016-10-16 21:39:29
p1899
tp1900
a(S'15-2'
p1901
V13
p1902
(lp1903
(g507
F13.0
g1901
g1902
tp1904
aS'sunilraiyani'
p1905
(lp1906
V2016-10-16 21:42:24
p1907
tp1908
a(S'13-2'
p1909
V11
p1910
(lp1911
(g507
F11.0
g1909
g1910
tp1912
ag605
(lp1913
V2016-10-18 03:30:28
p1914
tp1915
a(S'15-2'
p1916
V13
p1917
(lp1918
(g507
F13.0
g1916
g1917
tp1919
aS'cpence'
p1920
(lp1921
V2016-10-19 06:42:14
p1922
tp1923
a(S'14-2'
p1924
V12
p1925
(lp1926
(g507
F12.0
g1924
g1925
tp1927
aS'cpence'
p1928
(lp1929
V2016-10-19 06:53:22
p1930
tp1931
a(S'13-2'
p1932
V13-2
p1933
(lp1934
(g507
F11.0
g1932
g1933
tp1935
ag637
(lp1936
V2016-10-19 06:12:17
p1937
tp1938
a(S'15-2'
p1939
V13
p1940
(lp1941
(g507
F13.0
g1939
g1940
tp1942
ag645
(lp1943
V2016-10-18 19:54:55
p1944
tp1945
a(S'14-2'
p1946
V12
p1947
(lp1948
(g507
F12.0
g1946
g1947
tp1949
ag653
(lp1950
V2016-10-18 20:01:22
p1951
tp1952
a(S'15-2'
p1953
V13
p1954
(lp1955
(g507
F13.0
g1953
g1954
tp1956
ag1190
(lp1957
V2016-10-18 20:02:54
p1958
tp1959
a(S'14-2'
p1960
V12
p1961
(lp1962
(g507
F12.0
g1960
g1961
tp1963
aS'QIQIWU'
p1964
(lp1965
V2016-10-18 02:41:44
p1966
tp1967
a(S'13-2'
p1968
V13 - 2
p1969
(lp1970
(g507
F11.0
g1968
g1969
tp1971
ag489
(lp1972
V2016-10-16 06:01:36
p1973
tp1974
a(S'15-2'
p1975
V13
p1976
(lp1977
(g507
F13.0
g1975
g1976
tp1978
aS'JasonHuang'
p1979
(lp1980
V2016-10-19 04:37:52
p1981
tp1982
a(S'15-2'
p1983
V13
p1984
(lp1985
(g507
F13.0
g1983
g1984
tp1986
ag1229
(lp1987
V2016-10-18 19:51:02
p1988
tp1989
a(S'15-2'
p1990
V13
p1991
(lp1992
(g507
F13.0
g1990
g1991
tp1993
ag709
(lp1994
V2016-10-19 10:17:27
p1995
tp1996
a(S'15-2'
p1997
V13
p1998
(lp1999
(g507
F13.0
g1997
g1998
tp2000
ag717
(lp2001
V2016-10-19 10:23:15
p2002
tp2003
a(S'14-2'
p2004
V12
p2005
(lp2006
(g507
F12.0
g2004
g2005
tp2007
ag733
(lp2008
V2016-10-19 07:40:31
p2009
tp2010
a(S'15-2'
p2011
V13
p2012
(lp2013
(g507
F13.0
g2011
g2012
tp2014
ag749
(lp2015
V2016-10-18 23:48:08
p2016
tp2017
a(S'14-2'
p2018
V12
p2019
(lp2020
(g507
F12.0
g2018
g2019
tp2021
aS'ThuanNguyen'
p2022
(lp2023
V2016-10-19 18:36:15
p2024
tp2025
a(S'15-2'
p2026
V13
p2027
(lp2028
(g507
F13.0
g2026
g2027
tp2029
ag797
(lp2030
V2016-10-18 04:34:24
p2031
tp2032
a(S'14-2'
p2033
V12
p2034
(lp2035
(g507
F12.0
g2033
g2034
tp2036
aS'christywong'
p2037
(lp2038
V2016-10-18 04:38:56
p2039
tp2040
a(S'15-2'
p2041
V13
p2042
(lp2043
(g507
F13.0
g2041
g2042
tp2044
aS'christywong'
p2045
(lp2046
V2016-10-19 03:08:11
p2047
tp2048
a(S'14-2'
p2049
V12
p2050
(lp2051
(g507
F12.0
g2049
g2050
tp2052
ag813
(lp2053
V2016-10-19 03:10:25
p2054
tp2055
a(S'13-2'
p2056
V11
p2057
(lp2058
(g507
F11.0
g2056
g2057
tp2059
aS'KimberlyLy'
p2060
(lp2061
V2016-10-18 22:07:58
p2062
tp2063
a(S'14-2'
p2064
V12
p2065
(lp2066
(g507
F12.0
g2064
g2065
tp2067
aS'yphilip'
p2068
(lp2069
V2016-10-18 20:34:37
p2070
tp2071
a(S'14-2'
p2072
V12
p2073
(lp2074
(g507
F12.0
g2072
g2073
tp2075
ag1292
(lp2076
V2016-10-16 07:30:34
p2077
tp2078
a(S'13-2'
p2079
V11
p2080
(lp2081
(g507
F11.0
g2079
g2080
tp2082
aS'Ryan'
p2083
(lp2084
V2016-10-19 08:41:17
p2085
tp2086
a(S'15-2'
p2087
V13
p2088
(lp2089
(g507
F13.0
g2087
g2088
tp2090
ag861
(lp2091
V2016-10-19 08:52:11
p2092
tp2093
a(S'14-2'
p2094
V12
p2095
(lp2096
(g507
F12.0
g2094
g2095
tp2097
aS'jih089'
p2098
(lp2099
V2016-10-16 05:27:58
p2100
tp2101
a(S'14-2'
p2102
V12
p2103
(lp2104
(g507
F12.0
g2102
g2103
tp2105
aS'jih089'
p2106
(lp2107
V2016-10-16 05:28:22
p2108
tp2109
a(S'14-2'
p2110
V(15-2-1)
p2111
(lp2112
(g507
F12.0
g2110
V15-2-1
p2113
tp2114
ag498
(lp2115
V2016-10-16 21:04:31
p2116
tp2117
a(S'14-2'
p2118
V12
p2119
(lp2120
(g507
F12.0
g2118
g2119
tp2121
ag901
(lp2122
V2016-10-18 03:50:40
p2123
tp2124
a(S'13-2'
p2125
V11
p2126
(lp2127
(g507
F11.0
g2125
g2126
tp2128
aS'RobinO'
p2129
(lp2130
V2016-10-18 03:53:51
p2131
tp2132
a(S'14-2'
p2133
V12
p2134
(lp2135
(g507
F12.0
g2133
g2134
tp2136
ag909
(lp2137
V2016-10-18 00:16:47
p2138
tp2139
a(S'13-2'
p2140
V11
p2141
(lp2142
(g507
F11.0
g2140
g2141
tp2143
ag917
(lp2144
V2016-10-18 02:48:15
p2145
tp2146
a(S'15-2'
p2147
V13
p2148
(lp2149
(g507
F13.0
g2147
g2148
tp2150
aS'zhc047'
p2151
(lp2152
V2016-10-19 05:03:08
p2153
tp2154
a(S'13-2'
p2155
V11
p2156
(lp2157
(g507
F11.0
g2155
g2156
tp2158
ag1329
(lp2159
V2016-10-19 19:00:18
p2160
tp2161
a(S'13-2'
p2162
V11
p2163
(lp2164
(g507
F11.0
g2162
g2163
tp2165
ag1337
(lp2166
V2016-10-19 16:33:29
p2167
tp2168
a(S'14-2'
p2169
V12
p2170
(lp2171
(g507
F12.0
g2169
g2170
tp2172
ag933
(lp2173
V2016-10-17 08:40:45
p2174
tp2175
a(S'15-2'
p2176
V13
p2177
(lp2178
(g507
F13.0
g2176
g2177
tp2179
ag941
(lp2180
V2016-10-17 08:41:58
p2181
tp2182
a(S'14-2'
p2183
V12
p2184
(lp2185
(g507
F12.0
g2183
g2184
tp2186
ag957
(lp2187
V2016-10-16 06:44:32
p2188
tp2189
a(S'13-2'
p2190
V11
p2191
(lp2192
(g507
F11.0
g2190
g2191
tp2193
aS'Sync'
p2194
(lp2195
V2016-10-19 01:03:20
p2196
tp2197
a(S'14-2'
p2198
V12
p2199
(lp2200
(g507
F12.0
g2198
g2199
tp2201
aS'DarrenYang'
p2202
(lp2203
V2016-10-17 02:45:46
p2204
tp2205
asS"['R.0']"
p2206
(lp2207
(S'15-2'
p2208
V15 - 9
p2209
(lp2210
(S'R.0'
p2211
F15.0
S'15'
p2212
V15
p2213
tp2214
ag385
(lp2215
V2016-10-16 05:45:35
p2216
tp2217
assS'5'
p2218
g2
(g3
tp2219
Rp2220
g6
(lp2221
(S'(14-5)*(14-5-1)/2'
p2222
V15
p2223
tp2224
a(S'(13-6)*(13-6-1)/2'
p2225
V20
p2226
tp2227
a(S'(14-3)*(14-3-1)/2'
p2228
V15
p2229
tp2230
a(S'(15-8)*(15-8-1)/2'
p2231
V6
p2232
tp2233
a(S'(14-2)*(14-2-1)/2'
p2234
V15
p2235
tp2236
a(S'(14-2)*(14-2-1)/2'
p2237
V78
p2238
tp2239
a(S'(14-5)*(14-5-1)/2'
p2240
V28
p2241
tp2242
a(S'(14-2)*(14-2-1)/2'
p2243
V28
p2244
tp2245
a(S'(13-2)*(13-2-1)/2'
p2246
V21
p2247
tp2248
a(S'(15-8)*(15-8-1)/2'
p2249
V132
p2250
tp2251
a(S'(13-5)*(13-5-1)/2'
p2252
V66
p2253
tp2254
a(S'(13-2)*(13-2-1)/2'
p2255
V21
p2256
tp2257
a(S'(15-2)*(15-2-1)/2'
p2258
V21
p2259
tp2260
a(S'(15-4)*(15-4-1)/2'
p2261
V78
p2262
tp2263
a(S'(13-4)*(13-4-1)/2'
p2264
V10
p2265
tp2266
a(S'(14-4)*(14-4-1)/2'
p2267
V21
p2268
tp2269
a(S'(13-2)*(13-2-1)/2'
p2270
V66
p2271
tp2272
a(S'(15-7)*(15-7-1)/2'
p2273
V45
p2274
tp2275
a(S'(15-4)*(15-4-1)/2'
p2276
V35
p2277
tp2278
a(S'(14-5)*(14-5-1)/2'
p2279
V55
p2280
tp2281
a(S'(15-6)*(15-6-1)/2'
p2282
V21
p2283
tp2284
a(S'(15-2)*(15-2-1)/2'
p2285
V45
p2286
tp2287
a(S'(14-8)*(14-8-1)/2'
p2288
V66
p2289
tp2290
a(S'(14-8)*(14-8-1)/2'
p2291
V28
p2292
tp2293
a(S'(14-7)*(14-7-1)/2'
p2294
V28
p2295
tp2296
a(S'(13-5)*(13-5-1)/2'
p2297
V36
p2298
tp2299
a(S'(14-8)*(14-8-1)/2'
p2300
V21
p2301
tp2302
a(S'(13-6)*(13-6-1)/2'
p2303
V55
p2304
tp2305
a(S'(15-6)*(15-6-1)/2'
p2306
V21
p2307
tp2308
a(S'(13-2)*(13-2-1)/2'
p2309
V21
p2310
tp2311
a(S'(14-2)*(14-2-1)/2'
p2312
V28
p2313
tp2314
a(S'(15-6)*(15-6-1)/2'
p2315
V28
p2316
tp2317
a(S'(15-4)*(15-4-1)/2'
p2318
V15
p2319
tp2320
a(S'(14-7)*(14-7-1)/2'
p2321
V99
p2322
tp2323
a(S'(14-3)*(14-3-1)/2'
p2324
V1
p2325
tp2326
a(S'(13-8)*(13-8-1)/2'
p2327
V1
p2328
tp2329
a(S'(14-5)*(14-5-1)/2'
p2330
V28
p2331
tp2332
a(S'(14-6)*(14-6-1)/2'
p2333
V10
p2334
tp2335
a(S'(13-4)*(13-4-1)/2'
p2336
V15
p2337
tp2338
a(S'(14-2)*(14-2-1)/2'
p2339
V21
p2340
tp2341
a(S'(14-6)*(14-6-1)/2'
p2342
V45
p2343
tp2344
asS"['R.1']"
p2345
(lp2346
(S'(15-5)*(15-5-1)/2'
p2347
V6*5/2
p2348
(lp2349
(S'R.1'
p2350
F2.0
g1400
g1401
tp2351
aS'QIQIWU'
p2352
(lp2353
V2016-10-18 02:44:45
p2354
tp2355
a(S'(13-7)*(13-7-1)/2'
p2356
V13*12/2
p2357
(lp2358
(S'R.1'
p2359
F2.0
g1400
g1401
tp2360
aS't2xu'
p2361
(lp2362
V2016-10-18 08:43:40
p2363
tp2364
a(S'(14-6)*(14-6-1)/2'
p2365
V5*4/2
p2366
(lp2367
(S'R.1'
p2368
F2.0
g1400
g1401
tp2369
ag669
(lp2370
V2016-10-18 08:49:10
p2371
tp2372
a(S'(15-3)*(15-3-1)/2'
p2373
V11*10/2
p2374
(lp2375
(S'R.1'
p2376
F2.0
g1400
g1401
tp2377
aS'ShannonWang'
p2378
(lp2379
V2016-10-17 05:47:56
p2380
tp2381
a(S'(15-4)*(15-4-1)/2'
p2382
V13*8/2
p2383
(lp2384
(S'R.1'
p2385
F2.0
g1400
g1401
tp2386
aS'wheilson'
p2387
(lp2388
V2016-10-18 22:39:53
p2389
tp2390
asS"['R.0.1.1', 'R.1']"
p2391
(lp2392
(S'(13-8)*(13-8-1)/2'
p2393
V(14-3)*(14-3-1)/2
p2394
(lp2395
(S'R.0.1.1'
p2396
F1.0
g395
g406
tp2397
a(S'R.1'
p2398
F2.0
g1400
g1401
tp2399
ag557
(lp2400
V2016-10-19 07:31:11
p2401
tp2402
a(S'(13-3)*(13-3-1)/2'
p2403
V(15-7)*(15-7-1)/2
p2404
(lp2405
(S'R.0.1.1'
p2406
F1.0
g395
g406
tp2407
a(S'R.1'
p2408
F2.0
g1400
g1401
tp2409
ag1867
(lp2410
V2016-10-19 02:59:48
p2411
tp2412
a(S'(14-3)*(14-3-1)/2'
p2413
V(13-6)*(13-6-1)/2
p2414
(lp2415
(S'R.0.1.1'
p2416
F1.0
g395
g406
tp2417
a(S'R.1'
p2418
F2.0
g1400
g1401
tp2419
ag1413
(lp2420
V2016-10-19 06:11:09
p2421
tp2422
a(S'(13-7)*(13-7-1)/2'
p2423
V(13-2)*(13-2-1)/2
p2424
(lp2425
(S'R.0.1.1'
p2426
F1.0
g395
g406
tp2427
a(S'R.1'
p2428
F2.0
g1400
g1401
tp2429
ag637
(lp2430
V2016-10-19 06:12:17
p2431
tp2432
a(S'(15-8)*(15-8-1)/2'
p2433
V(13-8)*(13-8-1)/2
p2434
(lp2435
(S'R.0.1.1'
p2436
F1.0
g395
g406
tp2437
a(S'R.1'
p2438
F2.0
g1400
g1401
tp2439
ag417
(lp2440
V2016-10-19 06:13:37
p2441
tp2442
a(S'(15-8)*(15-8-1)/2'
p2443
V(13-4)*(13-4-1)/2
p2444
(lp2445
(S'R.0.1.1'
p2446
F1.0
g395
g406
tp2447
a(S'R.1'
p2448
F2.0
g1400
g1401
tp2449
aS'maddymanu'
p2450
(lp2451
V2016-10-18 03:48:54
p2452
tp2453
a(S'(15-8)*(15-8-1)/2'
p2454
V(13-2)*(13-2-1)/2
p2455
(lp2456
(S'R.0.1.1'
p2457
F1.0
g395
g406
tp2458
a(S'R.1'
p2459
F2.0
g1400
g1401
tp2460
ag1253
(lp2461
V2016-10-18 23:46:48
p2462
tp2463
a(S'(13-8)*(13-8-1)/2'
p2464
V(15-3)*(15-3-1)/2
p2465
(lp2466
(S'R.0.1.1'
p2467
F1.0
g395
g406
tp2468
a(S'R.1'
p2469
F2.0
g1400
g1401
tp2470
ag757
(lp2471
V2016-10-18 23:49:05
p2472
tp2473
a(S'(13-7)*(13-7-1)/2'
p2474
V(13-3)*(13-3-1)/2
p2475
(lp2476
(S'R.0.1.1'
p2477
F1.0
g395
g406
tp2478
a(S'R.1'
p2479
F2.0
g1400
g1401
tp2480
aS'Guillermo'
p2481
(lp2482
V2016-10-16 20:57:45
p2483
tp2484
a(S'(14-4)*(14-4-1)/2'
p2485
V(15-7)*(15-7-1)/2
p2486
(lp2487
(S'R.0.1.1'
p2488
F1.0
g395
g406
tp2489
a(S'R.1'
p2490
F2.0
g1400
g1401
tp2491
ag1424
(lp2492
V2016-10-16 21:10:58
p2493
tp2494
a(S'(15-4)*(15-4-1)/2'
p2495
V(14-5)*(14-5-1)/2
p2496
(lp2497
(S'R.0.1.1'
p2498
F1.0
g395
g406
tp2499
a(S'R.1'
p2500
F2.0
g1400
g1401
tp2501
ag893
(lp2502
V2016-10-16 21:25:36
p2503
tp2504
a(S'(14-5)*(14-5-1)/2'
p2505
V(14-4)*(14-4-1)/2
p2506
(lp2507
(S'R.0.1.1'
p2508
F1.0
g395
g406
tp2509
a(S'R.1'
p2510
F2.0
g1400
g1401
tp2511
ag1345
(lp2512
V2016-10-19 12:03:37
p2513
tp2514
a(S'(13-7)*(13-7-1)/2'
p2515
V(13-4)*(13-4-1)/2
p2516
(lp2517
(S'R.0.1.1'
p2518
F1.0
g395
g406
tp2519
a(S'R.1'
p2520
F2.0
g1400
g1401
tp2521
ag1388
(lp2522
V2016-10-19 18:29:14
p2523
tp2524
asS"['R.0.1']"
p2525
(lp2526
(S'(14-8)*(14-8-1)/2'
p2527
V1+2+3+4+5+6
p2528
(lp2529
(S'R.0.1'
p2530
F5.0
S'14-8-1'
p2531
V5
p2532
tp2533
ag489
(lp2534
V2016-10-16 06:01:36
p2535
tp2536
asS"['R.0.1.1']"
p2537
(lp2538
(S'(14-2)*(14-2-1)/2'
p2539
V(15-2)*(15-2-1)/2
p2540
(lp2541
(S'R.0.1.1'
p2542
F1.0
g395
g406
tp2543
aS'maddymanu'
p2544
(lp2545
V2016-10-18 03:48:19
p2546
tp2547
asS"['R']"
p2548
(lp2549
(S'(14-7)*(14-7-1)/2'
p2550
V21
p2551
(lp2552
(g507
F21.0
g2550
g2551
tp2553
aS'NicoleStone'
p2554
(lp2555
V2016-10-16 04:34:39
p2556
tp2557
a(S'(13-7)*(13-7-1)/2'
p2558
V(14-8)*(14-8-1)/2
p2559
(lp2560
(g507
F15.0
g2558
g2559
tp2561
aS'ThucPhan'
p2562
(lp2563
V2016-10-19 02:54:37
p2564
tp2565
a(S'(13-4)*(13-4-1)/2'
p2566
V((14-5)*(14-5-1)/2)
p2567
(lp2568
(g507
F36.0
g2566
V(14-5)*(14-5-1)/2
p2569
tp2570
ag565
(lp2571
V2016-10-19 03:02:25
p2572
tp2573
a(S'(15-5)*(15-5-1)/2'
p2574
V45
p2575
(lp2576
(g507
F45.0
g2574
g2575
tp2577
ag1875
(lp2578
V2016-10-17 20:09:17
p2579
tp2580
a(S'(13-6)*(13-6-1)/2'
p2581
V69-48
p2582
(lp2583
(g507
F21.0
g2581
g2582
tp2584
ag1928
(lp2585
V2016-10-19 06:53:22
p2586
tp2587
a(S'(14-8)*(14-8-1)/2'
p2588
V(14-8)*(14-8-1)/2
p2589
(lp2590
(g507
F15.0
g2588
g2589
tp2591
ag426
(lp2592
V2016-10-19 19:30:49
p2593
tp2594
a(S'(13-2)*(13-2-1)/2'
p2595
V55
p2596
(lp2597
(g507
F55.0
g2595
g2596
tp2598
ag661
(lp2599
V2016-10-18 20:09:38
p2600
tp2601
a(S'(15-7)*(15-7-1)/2'
p2602
V8*7/2
p2603
(lp2604
(g507
F28.0
g2602
g2603
tp2605
ag1964
(lp2606
V2016-10-18 02:41:44
p2607
tp2608
a(S'(15-8)*(15-8-1)/2'
p2609
V1+2+3+4+5+6
p2610
(lp2611
(g507
F21.0
g2609
g2610
tp2612
ag1229
(lp2613
V2016-10-18 19:51:02
p2614
tp2615
a(S'(15-4)*(15-4-1)/2'
p2616
V11*10/2
p2617
(lp2618
(g507
F55.0
g2616
g2617
tp2619
ag1245
(lp2620
V2016-10-17 05:50:01
p2621
tp2622
a(S'(13-3)*(13-3-1)/2'
p2623
V(15-5)*(15-5-1)/2
p2624
(lp2625
(g507
F45.0
g2623
g2624
tp2626
ag749
(lp2627
V2016-10-18 23:48:08
p2628
tp2629
a(S'(14-6)*(14-6-1)/2'
p2630
V28
p2631
(lp2632
(g507
F28.0
g2630
g2631
tp2633
ag773
(lp2634
V2016-10-19 18:45:31
p2635
tp2636
a(S'(15-4)*(15-4-1)/2'
p2637
V(15-4)*(15-4-1) / 2
p2638
(lp2639
(g507
F55.0
g2637
g2638
tp2640
aS'piamsiri'
p2641
(lp2642
V2016-10-18 06:52:18
p2643
tp2644
a(S'(13-2)*(13-2-1)/2'
p2645
V11*10/2
p2646
(lp2647
(g507
F55.0
g2645
g2646
tp2648
aS'wheilson'
p2649
(lp2650
V2016-10-18 22:37:47
p2651
tp2652
a(S'(13-5)*(13-5-1)/2'
p2653
VC(8,2)
p2654
(lp2655
(g507
F28.0
g2653
g2654
tp2656
ag2068
(lp2657
V2016-10-18 20:34:37
p2658
tp2659
a(S'(13-3)*(13-3-1)/2'
p2660
V45
p2661
(lp2662
(g507
F45.0
g2660
g2661
tp2663
ag861
(lp2664
V2016-10-19 08:52:11
p2665
tp2666
a(S'(14-6)*(14-6-1)/2'
p2667
V28
p2668
(lp2669
(g507
F28.0
g2667
g2668
tp2670
aS'Ken_Truong'
p2671
(lp2672
V2016-10-16 13:05:35
p2673
tp2674
a(S'(13-7)*(13-7-1)/2'
p2675
V1 + 2 + 3 + 4 + 5
p2676
(lp2677
(g507
F15.0
g2675
g2676
tp2678
ag933
(lp2679
V2016-10-17 08:40:45
p2680
tp2681
a(S'(15-5)*(15-5-1)/2'
p2682
V45
p2683
(lp2684
(g507
F45.0
g2682
g2683
tp2685
ag949
(lp2686
V2016-10-16 06:43:00
p2687
tp2688
a(S'(15-8)*(15-8-1)/2'
p2689
V1 + 2 + 3 + 4 + 5 + 6
p2690
(lp2691
(g507
F21.0
g2689
g2690
tp2692
ag965
(lp2693
V2016-10-19 06:00:27
p2694
tp2695
assS'4'
p2696
g2
(g3
tp2697
Rp2698
g6
(lp2699
(S'5 - 3 - 1'
p2700
V2
p2701
tp2702
a(S'9 - 6 - 1'
p2703
V9
p2704
tp2705
a(S'9 - 5 - 1'
p2706
V2
p2707
tp2708
a(S'4 - 2 - 1'
p2709
V4
p2710
tp2711
a(S'9 - 2 - 1'
p2712
V4
p2713
tp2714
a(S'10 - 5 - 1'
p2715
V3
p2716
tp2717
a(S'9 - 7 - 1'
p2718
V2
p2719
tp2720
a(S'10 - 8 - 1'
p2721
V2
p2722
tp2723
a(S'11 - 6 - 1'
p2724
V2
p2725
tp2726
a(S'4 - 2 - 1'
p2727
V2
p2728
tp2729
a(S'10 - 7 - 1'
p2730
V1
p2731
tp2732
a(S'12 - 6 - 1'
p2733
V1
p2734
tp2735
a(S'10 - 5 - 1'
p2736
V1
p2737
tp2738
a(S'5 - 3 - 1'
p2739
V2
p2740
tp2741
a(S'11 - 7 - 1'
p2742
V1
p2743
tp2744
a(S'11 - 5 - 1'
p2745
V8
p2746
tp2747
a(S'12 - 8 - 1'
p2748
V1
p2749
tp2750
a(S'11 - 6 - 1'
p2751
V3
p2752
tp2753
a(S'7 - 4 - 1'
p2754
V1
p2755
tp2756
a(S'5 - 2 - 1'
p2757
V9
p2758
tp2759
a(S'11 - 4 - 1'
p2760
V4
p2761
tp2762
a(S'10 - 7 - 1'
p2763
V4
p2764
tp2765
a(S'6 - 2 - 1'
p2766
V1
p2767
tp2768
a(S'12 - 4 - 1'
p2769
V4
p2770
tp2771
a(S'11 - 3 - 1'
p2772
V4
p2773
tp2774
a(S'4 - 2 - 1'
p2775
V9
p2776
tp2777
a(S'9 - 7 - 1'
p2778
V6
p2779
tp2780
a(S'12 - 6 - 1'
p2781
V2
p2782
tp2783
a(S'10 - 7 - 1'
p2784
V4
p2785
tp2786
a(S'11 - 8 - 1'
p2787
V5
p2788
tp2789
a(S'9 - 3 - 1'
p2790
V3
p2791
tp2792
a(S'8 - 4 - 1'
p2793
V4
p2794
tp2795
a(S'9 - 3 - 1'
p2796
V1
p2797
tp2798
a(S'11 - 5 - 1'
p2799
V1
p2800
tp2801
a(S'6 - 4 - 1'
p2802
V1
p2803
tp2804
a(S'12 - 7 - 1'
p2805
V3
p2806
tp2807
a(S'4 - 2 - 1'
p2808
V6
p2809
tp2810
a(S'6 - 3 - 1'
p2811
V6
p2812
tp2813
a(S'9 - 5 - 1'
p2814
V2
p2815
tp2816
a(S'12 - 8 - 1'
p2817
V2
p2818
tp2819
a(S'4 - 2 - 1'
p2820
V3
p2821
tp2822
a(S'12 - 5 - 1'
p2823
V5
p2824
tp2825
a(S'12 - 5 - 1'
p2826
V4
p2827
tp2828
a(S'10 - 4 - 1'
p2829
V6
p2830
tp2831
a(S'12 - 7 - 1'
p2832
V1
p2833
tp2834
a(S'12 - 4 - 1'
p2835
V6
p2836
tp2837
a(S'12 - 8 - 1'
p2838
V6
p2839
tp2840
a(S'11 - 5 - 1'
p2841
V1
p2842
tp2843
a(S'7 - 3 - 1'
p2844
V2
p2845
tp2846
a(S'10 - 8 - 1'
p2847
V3
p2848
tp2849
a(S'11 - 3 - 1'
p2850
V2
p2851
tp2852
a(S'10 - 6 - 1'
p2853
V4
p2854
tp2855
a(S'11 - 8 - 1'
p2856
V5
p2857
tp2858
a(S'12 - 8 - 1'
p2859
V1
p2860
tp2861
a(S'11 - 6 - 1'
p2862
V5
p2863
tp2864
a(S'12 - 6 - 1'
p2865
V8
p2866
tp2867
a(S'4 - 2 - 1'
p2868
V5
p2869
tp2870
a(S'8 - 6 - 1'
p2871
V7
p2872
tp2873
a(S'9 - 7 - 1'
p2874
V4
p2875
tp2876
a(S'11 - 8 - 1'
p2877
V3
p2878
tp2879
a(S'11 - 3 - 1'
p2880
V5
p2881
tp2882
a(S'9 - 2 - 1'
p2883
V5
p2884
tp2885
a(S'8 - 6 - 1'
p2886
V2
p2887
tp2888
a(S'11 - 5 - 1'
p2889
V3
p2890
tp2891
a(S'10 - 4 - 1'
p2892
V8
p2893
tp2894
a(S'10 - 8 - 1'
p2895
V2
p2896
tp2897
a(S'10 - 4 - 1'
p2898
V2
p2899
tp2900
a(S'7 - 2 - 1'
p2901
V2
p2902
tp2903
a(S'9 - 6 - 1'
p2904
V3
p2905
tp2906
a(S'10 - 8 - 1'
p2907
V4
p2908
tp2909
a(S'12 - 4 - 1'
p2910
V4
p2911
tp2912
a(S'9 - 6 - 1'
p2913
V3
p2914
tp2915
a(S'11 - 5 - 1'
p2916
V4
p2917
tp2918
a(S'7 - 2 - 1'
p2919
V3
p2920
tp2921
a(S'12 - 7 - 1'
p2922
V1
p2923
tp2924
a(S'10 - 7 - 1'
p2925
V1
p2926
tp2927
a(S'11 - 8 - 1'
p2928
V4
p2929
tp2930
a(S'6 - 2 - 1'
p2931
V1
p2932
tp2933
a(S'12 - 2 - 1'
p2934
V1
p2935
tp2936
a(S'10 - 6 - 1'
p2937
V1
p2938
tp2939
a(S'11 - 4 - 1'
p2940
V2
p2941
tp2942
a(S'12 - 5 - 1'
p2943
V3
p2944
tp2945
a(S'10 - 3 - 1'
p2946
V5
p2947
tp2948
a(S'9 - 4 - 1'
p2949
V3
p2950
tp2951
a(S'11 - 8 - 1'
p2952
V3
p2953
tp2954
a(S'11 - 5 - 1'
p2955
V4
p2956
tp2957
a(S'12 - 3 - 1'
p2958
V4
p2959
tp2960
a(S'12 - 7 - 1'
p2961
V2
p2962
tp2963
a(S'8 - 2 - 1'
p2964
V3
p2965
tp2966
a(S'11 - 4 - 1'
p2967
V1
p2968
tp2969
a(S'9 - 6 - 1'
p2970
V1
p2971
tp2972
a(S'10 - 8 - 1'
p2973
V1
p2974
tp2975
a(S'10 - 5 - 1'
p2976
V3
p2977
tp2978
a(S'9 - 7 - 1'
p2979
V6
p2980
tp2981
a(S'10 - 6 - 1'
p2982
V2
p2983
tp2984
a(S'12 - 6 - 1'
p2985
V3
p2986
tp2987
a(S'4 - 2 - 1'
p2988
V6
p2989
tp2990
asS"['R.1']"
p2991
(lp2992
(S'10 - 8 - 1'
p2993
V(8-3-1)
p2994
(lp2995
(S'R.1'
p2996
F1.0
g395
g406
tp2997
ag557
(lp2998
V2016-10-19 07:31:11
p2999
tp3000
a(S'10 - 8 - 1'
p3001
V11-7-1
p3002
(lp3003
(S'R.1'
p3004
F1.0
g395
g406
tp3005
ag1867
(lp3006
V2016-10-19 02:59:48
p3007
tp3008
a(S'6 - 3 - 1'
p3009
V10-2-1
p3010
(lp3011
(S'R.1'
p3012
F1.0
g395
g406
tp3013
ag637
(lp3014
V2016-10-19 06:12:17
p3015
tp3016
a(S'10 - 4 - 1'
p3017
V12-8-1
p3018
(lp3019
(S'R.1'
p3020
F1.0
g395
g406
tp3021
ag426
(lp3022
V2016-10-19 19:30:49
p3023
tp3024
a(S'10 - 8 - 1'
p3025
V12-7-1
p3026
(lp3027
(S'R.1'
p3028
F1.0
g395
g406
tp3029
ag669
(lp3030
V2016-10-18 08:49:10
p3031
tp3032
a(S'9 - 7 - 1'
p3033
V7-4-1
p3034
(lp3035
(S'R.1'
p3036
F1.0
g395
g406
tp3037
ag2641
(lp3038
V2016-10-18 06:52:18
p3039
tp3040
a(S'5 - 2 - 1'
p3041
V1*6*1
p3042
(lp3043
(S'R.1'
p3044
F1.0
g395
g406
tp3045
ag797
(lp3046
V2016-10-18 04:34:24
p3047
tp3048
a(S'8 - 5 - 1'
p3049
V1*3*1
p3050
(lp3051
(S'R.1'
p3052
F1.0
g395
g406
tp3053
ag2037
(lp3054
V2016-10-18 04:38:56
p3055
tp3056
a(S'12 - 6 - 1'
p3057
V1*3*1
p3058
(lp3059
(S'R.1'
p3060
F1.0
g395
g406
tp3061
ag805
(lp3062
V2016-10-18 04:40:15
p3063
tp3064
a(S'4 - 2 - 1'
p3065
V1*3*1
p3066
(lp3067
(S'R.1'
p3068
F1.0
g395
g406
tp3069
ag2045
(lp3070
V2016-10-19 03:08:11
p3071
tp3072
a(S'10 - 6 - 1'
p3073
V8-3-1
p3074
(lp3075
(S'R.1'
p3076
F1.0
g395
g406
tp3077
ag2481
(lp3078
V2016-10-16 20:57:45
p3079
tp3080
a(S'9 - 6 - 1'
p3081
V11-7-1
p3082
(lp3083
(S'R.1'
p3084
F1.0
g395
g406
tp3085
ag1424
(lp3086
V2016-10-16 21:10:58
p3087
tp3088
a(S'6 - 4 - 1'
p3089
V9-5-1
p3090
(lp3091
(S'R.1'
p3092
F1.0
g395
g406
tp3093
ag893
(lp3094
V2016-10-16 21:25:36
p3095
tp3096
asS"['R']"
p3097
(lp3098
(S'12 - 8 - 1'
p3099
V3
p3100
(lp3101
(g507
F3.0
g3099
g3100
tp3102
ag1844
(lp3103
V2016-10-17 23:25:26
p3104
tp3105
a(S'9 - 5 - 1'
p3106
V10-6-1
p3107
(lp3108
(g507
F3.0
g3106
g3107
tp3109
ag1413
(lp3110
V2016-10-19 06:11:09
p3111
tp3112
a(S'8 - 5 - 1'
p3113
V2
p3114
(lp3115
(g507
F2.0
g3113
g3114
tp3116
ag821
(lp3117
V2016-10-16 23:05:06
p3118
tp3119
a(S'8 - 5 - 1'
p3120
V2
p3121
(lp3122
(g507
F2.0
g3120
g3121
tp3123
aS'mbland'
p3124
(lp3125
V2016-10-18 02:34:44
p3126
tp3127
a(S'11 - 8 - 1'
p3128
V2
p3129
(lp3130
(g507
F2.0
g3128
g3129
tp3131
ag829
(lp3132
V2016-10-18 02:41:00
p3133
tp3134
a(S'8 - 5 - 1'
p3135
V2
p3136
(lp3137
(g507
F2.0
g3135
g3136
tp3138
aS'Ryan'
p3139
(lp3140
V2016-10-19 08:49:44
p3141
tp3142
a(S'11 - 6 - 1'
p3143
V4
p3144
(lp3145
(g507
F4.0
g3143
g3144
tp3146
ag909
(lp3147
V2016-10-18 00:16:47
p3148
tp3149
a(S'10 - 7 - 1'
p3150
V2
p3151
(lp3152
(g507
F2.0
g3150
g3151
tp3153
ag1345
(lp3154
V2016-10-19 12:03:37
p3155
tp3156
asS"['R.0.1', 'R.1']"
p3157
(lp3158
(S'8 - 5 - 1'
p3159
V9-5-1
p3160
(lp3161
(S'R.0.1'
p3162
F5.0
S'5'
p3163
g2532
tp3164
a(S'R.1'
p3165
F1.0
g395
g406
tp3166
ag565
(lp3167
V2016-10-19 03:02:25
p3168
tp3169
a(S'9 - 7 - 1'
p3170
V11 - 7 - 1
p3171
(lp3172
(S'R.0.1'
p3173
F7.0
S'7'
p3174
V7
p3175
tp3176
a(S'R.1'
p3177
F1.0
g395
g406
tp3178
aS'heitorschueroff'
p3179
(lp3180
V2016-10-19 01:15:52
p3181
tp3182
a(S'10 - 6 - 1'
p3183
V9 - 6 - 1
p3184
(lp3185
(S'R.0.1'
p3186
F6.0
S'6'
p3187
V6
p3188
tp3189
a(S'R.1'
p3190
F1.0
g395
g406
tp3191
aS'heitorschueroff'
p3192
(lp3193
V2016-10-19 01:37:07
p3194
tp3195
asS"['R.0']"
p3196
(lp3197
(S'6 - 4 - 1'
p3198
V10-8-1
p3199
(lp3200
(S'R.0'
p3201
F2.0
S'6 - 4'
p3202
V10-8
p3203
tp3204
ag417
(lp3205
V2016-10-19 06:13:37
p3206
tp3207
assS'6'
p3208
g2
(g3
tp3209
Rp3210
g6
(lp3211
(S'1 * (13-3)*(13-3-1)/2/((13-1)*(13-2))'
p3212
V1
p3213
tp3214
a(S'1 * (15-7)*(15-7-1)/2/((15-1)*(15-2))'
p3215
V1
p3216
tp3217
asS"['R.1.0']"
p3218
(lp3219
(S'1 * (14-3)*(14-3-1)/2/((14-1)*(14-2))'
p3220
V28/(13*14)
p3221
(lp3222
(S'R.1.0'
p3223
F13.0
S'14-1'
p3224
V13
p3225
tp3226
ag1905
(lp3227
V2016-10-16 21:42:24
p3228
tp3229
a(S'1 * (14-5)*(14-5-1)/2/((14-1)*(14-2))'
p3230
V78/(13*14)
p3231
(lp3232
(S'R.1.0'
p3233
F13.0
S'14-1'
p3234
V13
p3235
tp3236
aS'codyndoan'
p3237
(lp3238
V2016-10-18 20:07:15
p3239
tp3240
asS"['R.1']"
p3241
(lp3242
(S'1 * (15-3)*(15-3-1)/2/((15-1)*(15-2))'
p3243
V(12+11+10+9+8+7+6+5+4+3+2+1)/(14*13)
p3244
(lp3245
(S'R.1'
p3246
F182.0
S'(15-1)*(15-2)'
p3247
V14*13
p3248
tp3249
ag509
(lp3250
V2016-10-16 04:39:47
p3251
tp3252
a(S'1 * (13-3)*(13-3-1)/2/((13-1)*(13-2))'
p3253
V15/132
p3254
(lp3255
(S'R.1'
p3256
F132.0
S'(13-1)*(13-2)'
p3257
V132
p3258
tp3259
ag525
(lp3260
V2016-10-16 09:30:24
p3261
tp3262
a(S'1 * (13-5)*(13-5-1)/2/((13-1)*(13-2))'
p3263
V20/(12*11)
p3264
(lp3265
(S'R.1'
p3266
F132.0
S'(13-1)*(13-2)'
p3267
V12*11
p3268
tp3269
ag1103
(lp3270
V2016-10-17 23:20:35
p3271
tp3272
a(S'1 * (14-3)*(14-3-1)/2/((14-1)*(14-2))'
p3273
V15/(13*12)
p3274
(lp3275
(S'R.1'
p3276
F156.0
S'(14-1)*(14-2)'
p3277
V13*12
p3278
tp3279
ag1844
(lp3280
V2016-10-17 23:25:26
p3281
tp3282
a(S'1 * (14-2)*(14-2-1)/2/((14-1)*(14-2))'
p3283
V(14-3)*(14-3-1)/2/((14-1)*(14-2))
p3284
(lp3285
(S'R.1'
p3286
F156.0
S'(14-1)*(14-2)'
p3287
V(14-1)*(14-2)
p3288
tp3289
ag557
(lp3290
V2016-10-19 07:31:11
p3291
tp3292
a(S'1 * (14-6)*(14-6-1)/2/((14-1)*(14-2))'
p3293
V(1+2+3+4+5+6+7+8+9+10)/(13*12)
p3294
(lp3295
(S'R.1'
p3296
F156.0
S'(14-1)*(14-2)'
p3297
V13*12
p3298
tp3299
ag573
(lp3300
V2016-10-19 06:16:33
p3301
tp3302
a(S'1 * (13-3)*(13-3-1)/2/((13-1)*(13-2))'
p3303
V6/(12*11)
p3304
(lp3305
(S'R.1'
p3306
F132.0
S'(13-1)*(13-2)'
p3307
V12*11
p3308
tp3309
ag581
(lp3310
V2016-10-17 20:10:32
p3311
tp3312
a(S'1 * (14-4)*(14-4-1)/2/((14-1)*(14-2))'
p3313
V15 / (13*12)
p3314
(lp3315
(S'R.1'
p3316
F156.0
S'(14-1)*(14-2)'
p3317
V13*12
p3318
tp3319
ag589
(lp3320
V2016-10-17 20:16:26
p3321
tp3322
a(S'1 * (14-4)*(14-4-1)/2/((14-1)*(14-2))'
p3323
V132/P(13, 2)
p3324
(lp3325
(S'R.1'
p3326
F156.0
S'(14-1)*(14-2)'
p3327
VP(13, 2)
p3328
tp3329
ag613
(lp3330
V2016-10-19 06:50:47
p3331
tp3332
a(S'1 * (13-8)*(13-8-1)/2/((13-1)*(13-2))'
p3333
V((13-2)*(13-2-1)/2)/((13-1)*(13-2))
p3334
(lp3335
(S'R.1'
p3336
F132.0
S'(13-1)*(13-2)'
p3337
V(13-1)*(13-2)
p3338
tp3339
ag637
(lp3340
V2016-10-19 06:12:17
p3341
tp3342
a(S'1 * (13-3)*(13-3-1)/2/((13-1)*(13-2))'
p3343
V((13-8)*(13-8-1)/2)/((13-1)*(13-2))
p3344
(lp3345
(S'R.1'
p3346
F132.0
S'(13-1)*(13-2)'
p3347
V(13-1)*(13-2)
p3348
tp3349
ag417
(lp3350
V2016-10-19 06:13:37
p3351
tp3352
a(S'1 * (15-7)*(15-7-1)/2/((15-1)*(15-2))'
p3353
V21/(14*13)
p3354
(lp3355
(S'R.1'
p3356
F182.0
S'(15-1)*(15-2)'
p3357
V14*13
p3358
tp3359
ag1198
(lp3360
V2016-10-18 20:05:35
p3361
tp3362
a(S'1 * (14-7)*(14-7-1)/2/((14-1)*(14-2))'
p3363
V10/(12*13)
p3364
(lp3365
(S'R.1'
p3366
F156.0
S'(14-1)*(14-2)'
p3367
V12*13
p3368
tp3369
aS'codyndoan'
p3370
(lp3371
V2016-10-18 20:08:37
p3372
tp3373
a(S'1 * (14-2)*(14-2-1)/2/((14-1)*(14-2))'
p3374
V55/(13*12)
p3375
(lp3376
(S'R.1'
p3377
F156.0
S'(14-1)*(14-2)'
p3378
V13*12
p3379
tp3380
ag661
(lp3381
V2016-10-18 20:09:38
p3382
tp3383
a(S'1 * (13-4)*(13-4-1)/2/((13-1)*(13-2))'
p3384
V(6*5/2)/(12*11)
p3385
(lp3386
(S'R.1'
p3387
F132.0
S'(13-1)*(13-2)'
p3388
V12*11
p3389
tp3390
ag2352
(lp3391
V2016-10-18 02:44:45
p3392
tp3393
a(S'1 * (13-4)*(13-4-1)/2/((13-1)*(13-2))'
p3394
V(1+2+3+4+5+6)/(12*11)
p3395
(lp3396
(S'R.1'
p3397
F132.0
S'(13-1)*(13-2)'
p3398
V12*11
p3399
tp3400
ag489
(lp3401
V2016-10-16 06:01:36
p3402
tp3403
a(S'1 * (13-6)*(13-6-1)/2/((13-1)*(13-2))'
p3404
V(6*5/2)/(11*12)
p3405
(lp3406
(S'R.1'
p3407
F132.0
S'(13-1)*(13-2)'
p3408
V11*12
p3409
tp3410
ag1221
(lp3411
V2016-10-18 08:51:26
p3412
tp3413
a(S'1 * (15-6)*(15-6-1)/2/((15-1)*(15-2))'
p3414
V21/P(14,2)
p3415
(lp3416
(S'R.1'
p3417
F182.0
S'(15-1)*(15-2)'
p3418
VP(14,2)
p3419
tp3420
ag1229
(lp3421
V2016-10-18 19:51:02
p3422
tp3423
a(S'1 * (13-3)*(13-3-1)/2/((13-1)*(13-2))'
p3424
V(13-2)*(13-2-1)/2/((13-1)*(13-2))
p3425
(lp3426
(S'R.1'
p3427
F132.0
S'(13-1)*(13-2)'
p3428
V(13-1)*(13-2)
p3429
tp3430
ag1253
(lp3431
V2016-10-18 23:46:48
p3432
tp3433
a(S'1 * (14-4)*(14-4-1)/2/((14-1)*(14-2))'
p3434
V(1+2+3+4+5+6+7+8)/(1*13*12)
p3435
(lp3436
(S'R.1'
p3437
F156.0
S'(14-1)*(14-2)'
p3438
V1*13*12
p3439
tp3440
ag813
(lp3441
V2016-10-19 03:10:25
p3442
tp3443
a(S'1 * (14-3)*(14-3-1)/2/((14-1)*(14-2))'
p3444
V((14-7)(14-7-1)/2)/(13*12)
p3445
(lp3446
(S'R.1'
p3447
F156.0
S'(14-1)*(14-2)'
p3448
V13*12
p3449
tp3450
ag821
(lp3451
V2016-10-16 23:05:06
p3452
tp3453
a(S'1 * (14-4)*(14-4-1)/2/((14-1)*(14-2))'
p3454
VC(8,2)/(13*12)
p3455
(lp3456
(S'R.1'
p3457
F156.0
S'(14-1)*(14-2)'
p3458
V13*12
p3459
tp3460
ag2068
(lp3461
V2016-10-18 20:34:37
p3462
tp3463
a(S'1 * (13-5)*(13-5-1)/2/((13-1)*(13-2))'
p3464
V(1+2+3+4)/(12*11)
p3465
(lp3466
(S'R.1'
p3467
F132.0
S'(13-1)*(13-2)'
p3468
V12*11
p3469
tp3470
ag829
(lp3471
V2016-10-18 02:41:00
p3472
tp3473
a(S'1 * (15-6)*(15-6-1)/2/((15-1)*(15-2))'
p3474
V28/182
p3475
(lp3476
(S'R.1'
p3477
F182.0
S'(15-1)*(15-2)'
p3478
V182
p3479
tp3480
aS'Ken_Truong'
p3481
(lp3482
V2016-10-16 13:13:05
p3483
tp3484
a(S'1 * (13-5)*(13-5-1)/2/((13-1)*(13-2))'
p3485
V(13-3)*(13-3-1)/2/((13-1)*(13-2))
p3486
(lp3487
(S'R.1'
p3488
F132.0
S'(13-1)*(13-2)'
p3489
V(13-1)*(13-2)
p3490
tp3491
ag2481
(lp3492
V2016-10-16 20:57:45
p3493
tp3494
a(S'1 * (13-2)*(13-2-1)/2/((13-1)*(13-2))'
p3495
V(1+2+3+4+5+6)/(12*11)
p3496
(lp3497
(S'R.1'
p3498
F132.0
S'(13-1)*(13-2)'
p3499
V12*11
p3500
tp3501
ag2129
(lp3502
V2016-10-18 03:53:51
p3503
tp3504
a(S'1 * (13-2)*(13-2-1)/2/((13-1)*(13-2))'
p3505
V(1 + 2 + 3 + 4 + 5 + 6)/(12*11)
p3506
(lp3507
(S'R.1'
p3508
F132.0
S'(13-1)*(13-2)'
p3509
V12*11
p3510
tp3511
ag917
(lp3512
V2016-10-18 02:48:15
p3513
tp3514
a(S'1 * (14-2)*(14-2-1)/2/((14-1)*(14-2))'
p3515
V15/(13*12)
p3516
(lp3517
(S'R.1'
p3518
F156.0
S'(14-1)*(14-2)'
p3519
V13*12
p3520
tp3521
ag957
(lp3522
V2016-10-16 06:44:32
p3523
tp3524
a(S'1 * (15-5)*(15-5-1)/2/((15-1)*(15-2))'
p3525
V(1 + 2 + 3 + 4 + 5 + 6)/(14 * 13)
p3526
(lp3527
(S'R.1'
p3528
F182.0
S'(15-1)*(15-2)'
p3529
V14 * 13
p3530
tp3531
ag965
(lp3532
V2016-10-19 06:00:27
p3533
tp3534
asS"['R.1.1']"
p3535
(lp3536
(S'1 * (14-6)*(14-6-1)/2/((14-1)*(14-2))'
p3537
V(1+2+3+4+5)/(11*12)
p3538
(lp3539
(S'R.1.1'
p3540
F12.0
S'14-2'
p3541
V12
p3542
tp3543
ag1237
(lp3544
V2016-10-19 07:42:01
p3545
tp3546
a(S'1 * (15-6)*(15-6-1)/2/((15-1)*(15-2))'
p3547
V55/(12*13)
p3548
(lp3549
(S'R.1.1'
p3550
F13.0
S'15-2'
p3551
V13
p3552
tp3553
ag1245
(lp3554
V2016-10-17 05:50:01
p3555
tp3556
asS"['R.0']"
p3557
(lp3558
(S'1 * (13-6)*(13-6-1)/2/((13-1)*(13-2))'
p3559
V(69-48)/P(13, 2)
p3560
(lp3561
(S'R.0'
p3562
F21.0
S'1 * (13-6)*(13-6-1)/2'
p3563
V69-48
p3564
tp3565
ag1928
(lp3566
V2016-10-19 06:53:22
p3567
tp3568
a(S'1 * (13-2)*(13-2-1)/2/((13-1)*(13-2))'
p3569
V55/156
p3570
(lp3571
(S'R.0'
p3572
F55.0
S'1 * (13-2)*(13-2-1)/2'
p3573
V55
p3574
tp3575
ag621
(lp3576
V2016-10-18 04:05:50
p3577
tp3578
a(S'1 * (15-7)*(15-7-1)/2/((15-1)*(15-2))'
p3579
V28/(13*12)
p3580
(lp3581
(S'R.0'
p3582
F28.0
S'1 * (15-7)*(15-7-1)/2'
p3583
V28
p3584
tp3585
aS'YuqinWu'
p3586
(lp3587
V2016-10-16 21:59:48
p3588
tp3589
a(S'1 * (14-5)*(14-5-1)/2/((14-1)*(14-2))'
p3590
V36/(14*13)
p3591
(lp3592
(S'R.0'
p3593
F36.0
S'1 * (14-5)*(14-5-1)/2'
p3594
V36
p3595
tp3596
ag781
(lp3597
V2016-10-19 18:47:59
p3598
tp3599
a(S'1 * (15-8)*(15-8-1)/2/((15-1)*(15-2))'
p3600
V((7*6)/2)/(12*11)
p3601
(lp3602
(S'R.0'
p3603
F21.0
S'1 * (15-8)*(15-8-1)/2'
p3604
V(7*6)/2
p3605
tp3606
aS'Sync'
p3607
(lp3608
V2016-10-19 01:00:18
p3609
tp3610
asS"['R.0.0.1']"
p3611
(lp3612
(S'1 * (13-5)*(13-5-1)/2/((13-1)*(13-2))'
p3613
V(1+2+3+4+5+6+7+8)/72
p3614
(lp3615
(S'R.0.0.1'
p3616
F7.0
S'13-5-1'
p3617
g3175
tp3618
aS'alvinyho'
p3619
(lp3620
V2016-10-19 06:12:33
p3621
tp3622
a(S'1 * (13-7)*(13-7-1)/2/((13-1)*(13-2))'
p3623
V(1+2+3+4+5+6)/(7*7)
p3624
(lp3625
(S'R.0.0.1'
p3626
F5.0
S'13-7-1'
p3627
g2532
tp3628
ag3124
(lp3629
V2016-10-18 02:34:44
p3630
tp3631
a(S'1 * (14-8)*(14-8-1)/2/((14-1)*(14-2))'
p3632
V(1+2+3+4+5+6)/(12*11)
p3633
(lp3634
(S'R.0.0.1'
p3635
F5.0
S'14-8-1'
p3636
g2532
tp3637
ag1337
(lp3638
V2016-10-19 16:33:29
p3639
tp3640
asS"['R.0.0.1.1', 'R.1']"
p3641
(lp3642
(S'1 * (13-2)*(13-2-1)/2/((13-1)*(13-2))'
p3643
V((13-4)*(13-4-1)/2)/(12*11)
p3644
(lp3645
(S'R.0.0.1.1'
p3646
F1.0
g395
g406
tp3647
a(S'R.1'
p3648
F132.0
S'(13-1)*(13-2)'
p3649
V12*11
p3650
tp3651
ag1388
(lp3652
V2016-10-19 18:29:14
p3653
tp3654
asS"['R.0.0.1.1']"
p3655
(lp3656
(S'1 * (13-3)*(13-3-1)/2/((13-1)*(13-2))'
p3657
V((15-4)*(15-4-1) / 2) / (14*13)
p3658
(lp3659
(S'R.0.0.1.1'
p3660
F1.0
g395
g406
tp3661
ag2641
(lp3662
V2016-10-18 06:52:18
p3663
tp3664
asS"['R']"
p3665
(lp3666
(S'1 * (14-4)*(14-4-1)/2/((14-1)*(14-2))'
p3667
V(14-4)*(14-4-1)/2/((14-1)*(14-2))
p3668
(lp3669
(g507
F0.28846153846153844
g3667
g3668
tp3670
ag1345
(lp3671
V2016-10-19 12:03:37
p3672
tp3673
a(S'1 * (14-4)*(14-4-1)/2/((14-1)*(14-2))'
p3674
V45/156
p3675
(lp3676
(g507
F0.28846153846153844
g3674
g3675
tp3677
ag2202
(lp3678
V2016-10-17 02:45:46
p3679
tp3680
ass.