(dp0
S'1'
p1
(dp2
S'codyndoan'
p3
(dp4
S'part1_correct_attempt'
p5
(lp6
S'1 day, 5:40:19'
p7
aV(.35 + .35) - .5
p8
asS'first_attempt'
p9
V2016-10-16 19:54:47
p10
sS'part1_incorrect_attempt'
p11
(lp12
(S'0:00:00'
p13
V(.35)(.3)
p14
tp15
assS'Zhongting'
p16
(dp17
S'part1_correct_attempt'
p18
(lp19
S'0:05:12'
p20
aV0.1
p21
asg9
V2016-10-16 05:21:30
p22
sS'part1_incorrect_attempt'
p23
(lp24
(S'0:00:00'
p25
V0.2
p26
tp27
assS'anMihaly'
p28
(dp29
g9
V2016-10-18 20:37:50
p30
sS'part1_incorrect_attempt'
p31
(lp32
(S'0:00:00'
p33
V0.1
p34
tp35
assS'vincebai'
p36
(dp37
S'part1_correct_attempt'
p38
(lp39
S'0:06:18'
p40
aV0.2
p41
asg9
V2016-10-19 19:43:17
p42
sS'part1_incorrect_attempt'
p43
(lp44
(S'0:00:00'
p45
V0.35*0.35
p46
tp47
a(S'0:01:38'
p48
V0.3*0.25
p49
tp50
a(S'0:02:46'
p51
V(0.45/0.3)*0.3
p52
tp53
a(S'0:05:53'
p54
V0.05
p55
tp56
assS'dillonliu'
p57
(dp58
S'part1_correct_attempt'
p59
(lp60
S'0:07:53'
p61
aV0.15
p62
asg9
V2016-10-18 03:13:21
p63
sS'part1_incorrect_attempt'
p64
(lp65
(S'0:00:00'
p66
V0.2*0.25
p67
tp68
assS'rrivasfe'
p69
(dp70
S'part1_correct_attempt'
p71
(lp72
S'0:22:53'
p73
aV0.1
p74
asg9
V2016-10-19 15:31:46
p75
sS'part1_incorrect_attempt'
p76
(lp77
(S'0:00:00'
p78
V0.3*0.3
p79
tp80
a(S'0:03:41'
p81
V0.16
p82
tp83
assS'HansGamboa'
p84
(dp85
g9
V2016-10-17 00:08:15
p86
sS'part1_incorrect_attempt'
p87
(lp88
(S'0:00:00'
p89
V(0.25)*(0.25)
p90
tp91
assS'AndrewYang24'
p92
(dp93
S'part1_correct_attempt'
p94
(lp95
S'0:35:11'
p96
aV0.35+0.25-0.4
p97
asg9
V2016-10-16 03:26:02
p98
sS'part1_incorrect_attempt'
p99
(lp100
(S'0:00:00'
p101
V0.05+0.05-0.05
p102
tp103
a(S'0:20:16'
p104
V0.25+0.1-0.3
p105
tp106
a(S'0:24:26'
p107
V0.25+0.25-0.45
p108
tp109
assS'rsamuail'
p110
(dp111
S'part1_correct_attempt'
p112
(lp113
S'17:18:06'
p114
aV.3+.3-.45
p115
asg9
V2016-10-19 01:47:34
p116
sS'part1_incorrect_attempt'
p117
(lp118
(S'0:00:00'
p119
V.075
p120
tp121
a(S'0:07:16'
p122
V(.35)*(.35)
p123
tp124
a(S'0:08:22'
p125
V0.1225
p126
tp127
a(S'0:09:16'
p128
V(0.3)(0.35)
p129
tp130
a(S'0:11:08'
p131
V.09
p132
tp133
a(S'0:12:19'
p134
V(0.35)*(0.35)
p135
tp136
a(S'0:13:57'
p137
V.3*.25
p138
tp139
a(S'0:14:53'
p140
V.0625
p141
tp142
assS'alvinyho'
p143
(dp144
S'part1_correct_attempt'
p145
(lp146
S'1:44:31'
p147
aV.25+.3-(.45)
p148
asg9
V2016-10-17 19:49:15
p149
sS'part1_incorrect_attempt'
p150
(lp151
(S'0:00:00'
p152
V.25*.3
p153
tp154
assS'aspindle'
p155
(dp156
S'part1_correct_attempt'
p157
(lp158
S'0:09:31'
p159
aV-.5+.4+.3
p160
asg9
V2016-10-17 02:15:56
p161
sS'part1_incorrect_attempt'
p162
(lp163
(S'0:00:00'
p164
V-.35+.3+.35
p165
tp166
assS'Ken'
p167
(dp168
S'part1_correct_attempt'
p169
(lp170
S'0:00:00'
p171
aV0.0625
p172
asg9
V2016-10-19 05:55:03
p173
sS'part1_incorrect_attempt'
p174
(lp175
(S'0:00:00'
p176
V0.0625
p177
tp178
assS'MattBowen96'
p179
(dp180
g9
V2016-10-16 07:16:31
p181
sS'part1_incorrect_attempt'
p182
(lp183
(S'0:00:00'
p184
V.0875
p185
tp186
a(S'1:10:45'
p187
V.105
p188
tp189
a(S'1:11:17'
p190
V.25*.3
p191
tp192
a(S'17:31:26'
p193
V(.35) * (.35) / (.35)
p194
tp195
assS'jih089'
p196
(dp197
S'part1_correct_attempt'
p198
(lp199
S'2:26:30'
p200
aV0.1
p201
asg9
V2016-10-16 02:43:08
p202
sS'part1_incorrect_attempt'
p203
(lp204
(S'0:00:00'
p205
V0.1
p206
tp207
a(S'0:01:49'
p208
V0.15
p209
tp210
a(S'0:05:08'
p211
V0.05
p212
tp213
a(S'0:08:49'
p214
V0.05
p215
tp216
a(S'0:11:52'
p217
V0.15
p218
tp219
a(S'1:45:13'
p220
V0.1
p221
tp222
a(S'2:15:06'
p223
V0.1
p224
tp225
a(S'2:18:09'
p226
V0.05
p227
tp228
assS'njcrow'
p229
(dp230
S'part1_correct_attempt'
p231
(lp232
S'16:06:42'
p233
aV.35+.3-.5
p234
asg9
V2016-10-17 23:23:57
p235
sS'part1_incorrect_attempt'
p236
(lp237
(S'0:00:00'
p238
V.3*.4
p239
tp240
assS'srrozen'
p241
(dp242
S'part1_correct_attempt'
p243
(lp244
S'1 day, 19:26:49'
p245
aV0.3+0.25-0.4
p246
asg9
V2016-10-17 01:05:06
p247
sS'part1_incorrect_attempt'
p248
(lp249
(S'0:00:00'
p250
V0.25*0.3
p251
tp252
assS'thartopu'
p253
(dp254
S'part1_correct_attempt'
p255
(lp256
S'0:08:54'
p257
aV0.55-0.4
p258
asg9
V2016-10-19 11:22:56
p259
sS'part1_incorrect_attempt'
p260
(lp261
(S'0:00:00'
p262
V0.05
p263
tp264
assS'NicoleStone'
p265
(dp266
g9
V2016-10-16 04:04:13
p267
sS'part1_incorrect_attempt'
p268
(lp269
(S'0:00:00'
p270
V.05
p271
tp272
assS'ThucPhan'
p273
(dp274
S'part1_correct_attempt'
p275
(lp276
S'2:44:36'
p277
aV0.35+0.35-0.5
p278
asg9
V2016-10-19 03:14:17
p279
sS'part1_incorrect_attempt'
p280
(lp281
(S'0:00:00'
p282
V0.5
p283
tp284
a(S'0:00:26'
p285
V0.3+0.35
p286
tp287
a(S'0:01:24'
p288
V0.25-0.25
p289
tp290
a(S'2:13:16'
p291
V0.25
p292
tp293
assS'nolin'
p294
(dp295
S'part1_correct_attempt'
p296
(lp297
S'0:33:18'
p298
aV.2+.2-.3
p299
asg9
V2016-10-17 22:30:33
p300
sS'part1_incorrect_attempt'
p301
(lp302
(S'0:00:00'
p303
V.35*.4
p304
tp305
assS'ccaine'
p306
(dp307
S'part1_correct_attempt'
p308
(lp309
S'0:04:49'
p310
aV0.3*0.25
p311
asg9
V2016-10-17 01:05:01
p312
sS'part1_incorrect_attempt'
p313
(lp314
(S'0:00:00'
p315
V0.3*0.25
p316
tp317
a(S'0:01:19'
p318
V0.3*0.3
p319
tp320
a(S'0:03:36'
p321
V0.3*0.35
p322
tp323
a(S'0:04:49'
p324
V0.3*0.25
p325
tp326
assS'JonahCruz'
p327
(dp328
S'part1_correct_attempt'
p329
(lp330
S'0:00:00'
p331
aV.4*.3
p332
asg9
V2016-10-18 06:37:36
p333
sS'part1_incorrect_attempt'
p334
(lp335
(S'0:00:00'
p336
V.4*.3
p337
tp338
assS'a9zhao'
p339
(dp340
S'part1_correct_attempt'
p341
(lp342
S'0:05:17'
p343
aV.15
p344
asg9
V2016-10-19 08:33:57
p345
sS'part1_incorrect_attempt'
p346
(lp347
(S'0:00:00'
p348
V.35*.3
p349
tp350
assS'maddymanu'
p351
(dp352
S'part1_correct_attempt'
p353
(lp354
S'20:48:11'
p355
aV0.2+0.25-0.35
p356
asg9
V2016-10-16 19:25:43
p357
sS'part1_incorrect_attempt'
p358
(lp359
(S'0:00:00'
p360
V0.3*0.3
p361
tp362
a(S'0:01:29'
p363
V0.1225
p364
tp365
assS'EricO'
p366
(dp367
g9
V2016-10-19 05:28:33
p368
sS'part1_incorrect_attempt'
p369
(lp370
(S'0:00:00'
p371
V0.075
p372
tp373
assS'URajkumar'
p374
(dp375
S'part1_correct_attempt'
p376
(lp377
S'0:09:11'
p378
aV0.15
p379
asg9
V2016-10-18 20:28:04
p380
sS'part1_incorrect_attempt'
p381
(lp382
(S'0:00:00'
p383
V0.09 - (0.3*0.3*0.35)
p384
tp385
assS'KimberlyLy'
p386
(dp387
S'part1_correct_attempt'
p388
(lp389
S'2 days, 0:25:50'
p390
aV0.1
p391
asg9
V2016-10-16 20:08:21
p392
sS'part1_incorrect_attempt'
p393
(lp394
(S'0:00:00'
p395
V0.3 * 0.3
p396
tp397
a(S'1:05:42'
p398
V.35 * .3
p399
tp400
a(S'1:06:08'
p401
V.105
p402
tp403
assS'v2chang'
p404
(dp405
g9
V2016-10-19 07:38:23
p406
sS'part1_incorrect_attempt'
p407
(lp408
(S'0:00:00'
p409
V.3*.2
p410
tp411
assS'yazin-yousif'
p412
(dp413
S'part1_correct_attempt'
p414
(lp415
S'1:57:54'
p416
aV0.2
p417
asg9
V2016-10-17 03:24:52
p418
sS'part1_incorrect_attempt'
p419
(lp420
(S'0:00:00'
p421
V0.25
p422
tp423
a(S'0:00:23'
p424
V0.35*0.4
p425
tp426
a(S'0:01:14'
p427
V0.04
p428
tp429
a(S'0:03:16'
p430
V0.6
p431
tp432
a(S'0:07:34'
p433
V0.03
p434
tp435
a(S'0:09:33'
p436
V0.0585
p437
tp438
a(S'0:45:27'
p439
V0.075
p440
tp441
a(S'0:45:51'
p442
V0.0875/1
p443
tp444
a(S'0:55:29'
p445
V0.2
p446
tp447
assS'k1siu'
p448
(dp449
S'part1_correct_attempt'
p450
(lp451
S'0:00:00'
p452
aV0.3+0.3-0.45
p453
asg9
V2016-10-16 03:41:29
p454
sS'part1_incorrect_attempt'
p455
(lp456
(S'0:00:00'
p457
V0.3+0.3-0.45
p458
tp459
assS'aliqbal'
p460
(dp461
S'part1_correct_attempt'
p462
(lp463
S'1:02:23'
p464
aV0.3 + 0.3 - 0.45
p465
asg9
V2016-10-17 07:36:23
p466
sS'part1_incorrect_attempt'
p467
(lp468
(S'0:00:00'
p469
V0.25*0.2
p470
tp471
assS'adejesus'
p472
(dp473
S'part1_correct_attempt'
p474
(lp475
S'2 days, 0:40:20'
p476
aV0.2 + 0.25 - 0.35
p477
asg9
V2016-10-17 04:35:31
p478
sS'part1_incorrect_attempt'
p479
(lp480
(S'0:00:00'
p481
V(0.25 * 0.35)
p482
tp483
assS'abtom'
p484
(dp485
S'part1_correct_attempt'
p486
(lp487
S'0:15:45'
p488
aV.075
p489
asg9
V2016-10-17 20:16:43
p490
sS'part1_incorrect_attempt'
p491
(lp492
(S'0:00:00'
p493
V.0625
p494
tp495
a(S'0:15:45'
p496
V.075
p497
tp498
assS'PizzaPolice'
p499
(dp500
S'part1_correct_attempt'
p501
(lp502
S'7:55:05'
p503
aV.3 + .25 - .4
p504
asg9
V2016-10-16 23:45:30
p505
sS'part1_incorrect_attempt'
p506
(lp507
(S'0:00:00'
p508
V.35 * .3
p509
tp510
assS'Guillermo'
p511
(dp512
S'part1_correct_attempt'
p513
(lp514
S'14:43:27'
p515
aV.35+.4-.55
p516
asg9
V2016-10-16 02:45:42
p517
sS'part1_incorrect_attempt'
p518
(lp519
(S'0:00:00'
p520
V.05
p521
tp522
assS'jar045'
p523
(dp524
S'part1_correct_attempt'
p525
(lp526
S'1:48:28'
p527
aV0.25 + 0.25 - 0.35
p528
asg9
V2016-10-19 00:46:13
p529
sS'part1_incorrect_attempt'
p530
(lp531
(S'0:00:00'
p532
V(0.3) * (0.35)
p533
tp534
a(S'0:01:47'
p535
V0.25 * 0.35
p536
tp537
a(S'0:27:13'
p538
V0.2 + 0.2
p539
tp540
a(S'0:47:16'
p541
V0.3 * 0.3
p542
tp543
assS'PaulWall43'
p544
(dp545
S'part1_correct_attempt'
p546
(lp547
S'0:33:54'
p548
aV.15
p549
asg9
V2016-10-16 05:08:00
p550
sS'part1_incorrect_attempt'
p551
(lp552
(S'0:00:00'
p553
V0.05
p554
tp555
asssS'3'
p556
(dp557
g3
(dp558
S'part3_correct_attempt'
p559
(lp560
S'0:00:00'
p561
aV(.35 + .35) - .55
p562
asS'part3_incorrect_attempt'
p563
(lp564
(S'-2 days, 18:19:41'
p565
V(.35)(.3)
p566
tp567
asg9
V2016-10-18 01:35:06
p568
ssg16
(dp569
S'part3_correct_attempt'
p570
(lp571
S'0:00:00'
p572
aV0.1
p573
asS'part3_incorrect_attempt'
p574
(lp575
(S'-1 day, 23:54:48'
p576
V0.25
p577
tp578
asg9
V2016-10-16 05:26:42
p579
ssg28
(dp580
S'part3_incorrect_attempt'
p581
(lp582
(S'0:00:00'
p583
V0.05
p584
tp585
asg9
V2016-10-18 20:37:50
p586
ssg36
(dp587
S'part3_incorrect_attempt'
p588
(lp589
(S'-1 day, 23:53:42'
p590
V0.35*0.25
p591
tp592
asg9
V2016-10-19 19:49:35
p593
ssg57
(dp594
S'part3_correct_attempt'
p595
(lp596
S'0:00:00'
p597
aV0.15
p598
asS'part3_incorrect_attempt'
p599
(lp600
(S'-1 day, 23:52:07'
p601
V0.2*0.25
p602
tp603
asg9
V2016-10-18 03:21:14
p604
ssg69
(dp605
S'part3_correct_attempt'
p606
(lp607
S'0:00:00'
p608
aV0.1
p609
asS'part3_incorrect_attempt'
p610
(lp611
(S'-1 day, 23:37:07'
p612
V0.3*0.35
p613
tp614
asg9
V2016-10-19 15:54:39
p615
ssg84
(dp616
S'part3_incorrect_attempt'
p617
(lp618
(S'0:00:00'
p619
V(0.25)*(0.25)
p620
tp621
asg9
V2016-10-17 00:08:15
p622
ssg92
(dp623
S'part3_correct_attempt'
p624
(lp625
S'0:00:00'
p626
aV0.35+0.2-0.25
p627
asS'part3_incorrect_attempt'
p628
(lp629
(S'-1 day, 23:24:49'
p630
V0.05+0.0-0.05
p631
tp632
a(S'-1 day, 23:29:12'
p633
V0.2+0.25-0.35
p634
tp635
a(S'-1 day, 23:45:05'
p636
V0.25+0.15-0.3
p637
tp638
a(S'-1 day, 23:49:15'
p639
V0.25+0.2-0.35
p640
tp641
a(S'0:00:00'
p642
V0.35+0.2-0.25
p643
tp644
asg9
V2016-10-16 04:01:13
p645
ssg110
(dp646
S'part3_correct_attempt'
p647
(lp648
S'0:00:00'
p649
aV.3+.2-.4
p650
asS'part3_incorrect_attempt'
p651
(lp652
(S'-1 day, 6:41:54'
p653
V.075
p654
tp655
a(S'-1 day, 6:49:10'
p656
V(.35)*(.3)
p657
tp658
asg9
V2016-10-19 19:05:40
p659
ssg167
(dp660
S'part3_correct_attempt'
p661
(lp662
S'0:00:00'
p663
aV0.0625
p664
asS'part3_incorrect_attempt'
p665
(lp666
(S'0:00:00'
p667
V0.0625
p668
tp669
asg9
V2016-10-19 05:55:03
p670
ssS'jih089'
p671
(dp672
S'part3_correct_attempt'
p673
(lp674
S'0:00:00'
p675
aV0.1
p676
asS'part3_incorrect_attempt'
p677
(lp678
(S'-1 day, 21:35:19'
p679
V0.1
p680
tp681
a(S'-1 day, 21:38:38'
p682
V0.05
p683
tp684
a(S'-1 day, 21:39:57'
p685
V0.05
p686
tp687
a(S'-1 day, 21:42:19'
p688
V0.1
p689
tp690
a(S'-1 day, 21:45:22'
p691
V0.05
p692
tp693
a(S'-1 day, 23:18:43'
p694
V0.1
p695
tp696
a(S'-1 day, 23:19:59'
p697
V0.1
p698
tp699
a(S'-1 day, 23:48:36'
p700
V0.15
p701
tp702
a(S'-1 day, 23:51:39'
p703
V0.15
p704
tp705
asg9
V2016-10-16 05:09:38
p706
ssg241
(dp707
S'part3_correct_attempt'
p708
(lp709
S'0:00:00'
p710
aV0.3+0.25-0.4
p711
asS'part3_incorrect_attempt'
p712
(lp713
(S'-2 days, 4:33:11'
p714
V0.25*0.25
p715
tp716
asg9
V2016-10-18 20:31:55
p717
ssS'thartopu'
p718
(dp719
S'part3_correct_attempt'
p720
(lp721
S'0:00:00'
p722
aV0.6-0.45
p723
asS'part3_incorrect_attempt'
p724
(lp725
(S'-4 days, 15:23:56'
p726
V0.05
p727
tp728
a(S'-1 day, 23:49:35'
p729
V0.05
p730
tp731
asg9
V2016-10-19 11:31:50
p732
ssg265
(dp733
S'part3_incorrect_attempt'
p734
(lp735
(S'0:00:00'
p736
V.15
p737
tp738
asg9
V2016-10-16 04:04:13
p739
ssS'mvkrishn'
p740
(dp741
S'part3_correct_attempt'
p742
(lp743
S'0:00:00'
p744
aV.1
p745
asS'part3_incorrect_attempt'
p746
(lp747
(S'-1 day, 23:55:36'
p748
V.05
p749
tp750
asg9
V2016-10-17 23:14:42
p751
ssg294
(dp752
S'part3_correct_attempt'
p753
(lp754
S'0:00:00'
p755
aV.2+.25-.35
p756
asS'part3_incorrect_attempt'
p757
(lp758
(S'-1 day, 23:26:42'
p759
V.35*.4
p760
tp761
asg9
V2016-10-17 23:03:51
p762
ssg306
(dp763
S'part3_incorrect_attempt'
p764
(lp765
(S'-1 day, 23:55:11'
p766
V0.3*0.2
p767
tp768
asg9
V2016-10-17 01:09:50
p769
ssg339
(dp770
S'part3_incorrect_attempt'
p771
(lp772
(S'-1 day, 23:54:43'
p773
V.35*.3
p774
tp775
asg9
V2016-10-19 08:39:14
p776
ssg366
(dp777
S'part3_incorrect_attempt'
p778
(lp779
(S'0:00:00'
p780
V.05
p781
tp782
asg9
V2016-10-19 05:28:33
p783
ssg386
(dp784
S'part3_correct_attempt'
p785
(lp786
S'0:00:00'
p787
aV0.1
p788
asS'part3_incorrect_attempt'
p789
(lp790
(S'-3 days, 23:34:10'
p791
V0.3 * 0.25
p792
tp793
asg9
V2016-10-18 20:34:11
p794
ssS'christhoperbernard'
p795
(dp796
S'part3_correct_attempt'
p797
(lp798
S'0:00:00'
p799
aV0.3+0.3-0.45
p800
asS'part3_incorrect_attempt'
p801
(lp802
(S'-1 day, 23:54:26'
p803
V0.3+0.25-0.45
p804
tp805
asg9
V2016-10-16 05:09:09
p806
ssg404
(dp807
S'part3_incorrect_attempt'
p808
(lp809
(S'0:00:00'
p810
V.3*25
p811
tp812
asg9
V2016-10-19 07:38:23
p813
ssg412
(dp814
S'part3_correct_attempt'
p815
(lp816
S'0:00:00'
p817
aV0.2
p818
asS'part3_incorrect_attempt'
p819
(lp820
(S'-1 day, 22:02:06'
p821
V0.25
p822
tp823
asg9
V2016-10-17 05:22:46
p824
ssg448
(dp825
S'part3_correct_attempt'
p826
(lp827
S'0:00:00'
p828
aV0.3+0.3-0.5
p829
asS'part3_incorrect_attempt'
p830
(lp831
(S'0:00:00'
p832
V0.3+0.3-0.5
p833
tp834
asg9
V2016-10-16 03:41:29
p835
ssg460
(dp836
S'part3_correct_attempt'
p837
(lp838
S'0:00:00'
p839
aV0.3 + 0.3 - 0.4
p840
asS'part3_incorrect_attempt'
p841
(lp842
(S'-1 day, 22:57:37'
p843
V0.25*0.3
p844
tp845
asg9
V2016-10-17 08:38:46
p846
ssg472
(dp847
S'part3_incorrect_attempt'
p848
(lp849
(S'-3 days, 23:19:40'
p850
V(0.25 * 0.3)
p851
tp852
asg9
V2016-10-19 05:15:51
p853
ssg484
(dp854
S'part3_incorrect_attempt'
p855
(lp856
(S'-1 day, 23:44:15'
p857
V.0625
p858
tp859
asg9
V2016-10-17 20:32:28
p860
ssg499
(dp861
S'part3_correct_attempt'
p862
(lp863
S'0:00:00'
p864
aV.3 + .2 - .4
p865
asS'part3_incorrect_attempt'
p866
(lp867
(S'-1 day, 16:04:55'
p868
V.35 * .35
p869
tp870
asg9
V2016-10-17 07:40:35
p871
ssg511
(dp872
S'part3_correct_attempt'
p873
(lp874
S'0:00:00'
p875
aV.35+.3-.5
p876
asS'part3_incorrect_attempt'
p877
(lp878
(S'-1 day, 9:16:33'
p879
V.05
p880
tp881
asg9
V2016-10-16 17:29:09
p882
ssg544
(dp883
S'part3_correct_attempt'
p884
(lp885
S'0:00:00'
p886
aV.10
p887
asS'part3_incorrect_attempt'
p888
(lp889
(S'-1 day, 23:26:06'
p890
V0.05
p891
tp892
asg9
V2016-10-16 05:41:54
p893
sssS'2'
p894
(dp895
g3
(dp896
S'part2_correct_attempt'
p897
(lp898
S'0:00:00'
p899
aV(.35 + .35) - .55
p900
asg9
g568
sS'part2_incorrect_attempt'
p901
(lp902
(S'-2 days, 18:19:41'
p903
V(.3)(.3)
p904
tp905
assg16
(dp906
S'part2_correct_attempt'
p907
(lp908
S'0:00:00'
p909
aV0.1
p910
asg9
g579
sS'part2_incorrect_attempt'
p911
(lp912
(S'-1 day, 23:54:48'
p913
V0.25
p914
tp915
assg28
(dp916
g9
V2016-10-18 20:37:50
p917
sS'part2_incorrect_attempt'
p918
(lp919
(S'0:00:00'
p920
V0.05
p921
tp922
assg36
(dp923
g9
g593
sS'part2_incorrect_attempt'
p924
(lp925
(S'-1 day, 23:53:42'
p926
V0.35*0.25
p927
tp928
assg57
(dp929
S'part2_correct_attempt'
p930
(lp931
S'0:00:00'
p932
aV0.15
p933
asg9
g604
sS'part2_incorrect_attempt'
p934
(lp935
(S'-1 day, 23:52:07'
p936
V0.25*0.25
p937
tp938
assg69
(dp939
S'part2_correct_attempt'
p940
(lp941
S'0:00:00'
p942
aV0.1
p943
asg9
g615
sS'part2_incorrect_attempt'
p944
(lp945
(S'-1 day, 23:37:07'
p946
V0.3*0.35
p947
tp948
assg84
(dp949
g9
V2016-10-17 00:08:15
p950
sS'part2_incorrect_attempt'
p951
(lp952
(S'0:00:00'
p953
V(0.25)*(0.25)
p954
tp955
assg92
(dp956
S'part2_correct_attempt'
p957
(lp958
S'0:00:00'
p959
aV0.25+0.2-0.25
p960
asg9
g645
sS'part2_incorrect_attempt'
p961
(lp962
(S'-1 day, 23:24:49'
p963
V0.05+0.0-0.05
p964
tp965
a(S'-1 day, 23:29:12'
p966
V0.2+0.25-0.35
p967
tp968
a(S'-1 day, 23:45:05'
p969
V0.1+0.15-0.15
p970
tp971
a(S'-1 day, 23:49:15'
p972
V0.25+0.2-0.35
p973
tp974
a(S'-1 day, 23:53:27'
p975
V0.2+0.35-0.35
p976
tp977
assg110
(dp978
S'part2_correct_attempt'
p979
(lp980
S'0:00:00'
p981
aV.3+.2-.4
p982
asg9
g659
sS'part2_incorrect_attempt'
p983
(lp984
(S'-1 day, 6:41:54'
p985
V.0625
p986
tp987
a(S'-1 day, 6:49:10'
p988
V(.35)*(.3)
p989
tp990
assg143
(dp991
S'part2_correct_attempt'
p992
(lp993
S'0:00:00'
p994
aV.3+.35-(.5)
p995
asg9
V2016-10-17 21:33:46
p996
sS'part2_incorrect_attempt'
p997
(lp998
(S'-1 day, 22:15:29'
p999
V.075
p1000
tp1001
assg167
(dp1002
S'part2_correct_attempt'
p1003
(lp1004
S'0:00:00'
p1005
aV0.0625
p1006
asg9
g670
sS'part2_incorrect_attempt'
p1007
(lp1008
(S'0:00:00'
p1009
V0.0625
p1010
tp1011
assg671
(dp1012
S'part2_correct_attempt'
p1013
(lp1014
S'0:00:00'
p1015
aV0.1
p1016
asg9
g706
sS'part2_incorrect_attempt'
p1017
(lp1018
(S'-1 day, 21:35:19'
p1019
V0.05
p1020
tp1021
a(S'-1 day, 21:38:38'
p1022
V0.05
p1023
tp1024
a(S'-1 day, 21:39:57'
p1025
V0.05
p1026
tp1027
a(S'-1 day, 21:42:19'
p1028
V0.1
p1029
tp1030
a(S'-1 day, 21:45:22'
p1031
V0.05
p1032
tp1033
a(S'-1 day, 23:18:43'
p1034
V0.1
p1035
tp1036
a(S'-1 day, 23:19:59'
p1037
V0.1
p1038
tp1039
a(S'-1 day, 23:48:36'
p1040
V0.15
p1041
tp1042
a(S'-1 day, 23:51:39'
p1043
V0.15
p1044
tp1045
assg241
(dp1046
S'part2_correct_attempt'
p1047
(lp1048
S'0:00:00'
p1049
aV0.25+0.25-0.35
p1050
asg9
g717
sS'part2_incorrect_attempt'
p1051
(lp1052
(S'-2 days, 4:33:11'
p1053
V0.3*0.25
p1054
tp1055
assg718
(dp1056
S'part2_correct_attempt'
p1057
(lp1058
S'0:00:00'
p1059
aV0.65-0.5
p1060
asg9
g732
sS'part2_incorrect_attempt'
p1061
(lp1062
(S'-4 days, 15:23:56'
p1063
V0.05
p1064
tp1065
a(S'-1 day, 23:49:35'
p1066
V0.05
p1067
tp1068
assg265
(dp1069
g9
V2016-10-16 04:04:13
p1070
sS'part2_incorrect_attempt'
p1071
(lp1072
(S'0:00:00'
p1073
V.15
p1074
tp1075
assS'ThucPhan'
p1076
(dp1077
S'part2_correct_attempt'
p1078
(lp1079
S'0:00:00'
p1080
aV0.35+0.35-0.55
p1081
asg9
V2016-10-19 05:58:53
p1082
sS'part2_incorrect_attempt'
p1083
(lp1084
(S'-1 day, 23:28:40'
p1085
V0.5
p1086
tp1087
assg294
(dp1088
S'part2_correct_attempt'
p1089
(lp1090
S'0:00:00'
p1091
aV.2+.25-.35
p1092
asg9
g762
sS'part2_incorrect_attempt'
p1093
(lp1094
(S'-1 day, 23:26:42'
p1095
V.4*.4
p1096
tp1097
assg306
(dp1098
g9
g769
sS'part2_incorrect_attempt'
p1099
(lp1100
(S'-1 day, 23:55:11'
p1101
V0.25*0.2
p1102
tp1103
assg339
(dp1104
g9
g776
sS'part2_incorrect_attempt'
p1105
(lp1106
(S'-1 day, 23:54:43'
p1107
V.3*.3
p1108
tp1109
assg351
(dp1110
S'part2_correct_attempt'
p1111
(lp1112
S'0:00:00'
p1113
aV0.25+0.3-0.45
p1114
asg9
V2016-10-17 16:13:54
p1115
sS'part2_incorrect_attempt'
p1116
(lp1117
(S'-1 day, 3:11:49'
p1118
V0.3*0.3
p1119
tp1120
assg366
(dp1121
g9
V2016-10-19 05:28:33
p1122
sS'part2_incorrect_attempt'
p1123
(lp1124
(S'0:00:00'
p1125
V.06
p1126
tp1127
assg386
(dp1128
S'part2_correct_attempt'
p1129
(lp1130
S'0:00:00'
p1131
aV0.1
p1132
asg9
g794
sS'part2_incorrect_attempt'
p1133
(lp1134
(S'-3 days, 23:34:10'
p1135
V0.3 * 0.25
p1136
tp1137
assg795
(dp1138
S'part2_correct_attempt'
p1139
(lp1140
S'0:00:00'
p1141
aV0.2+0.3-0.35
p1142
asg9
g806
sS'part2_incorrect_attempt'
p1143
(lp1144
(S'-1 day, 23:54:26'
p1145
V0.35+0.25-0.5
p1146
tp1147
assg404
(dp1148
g9
V2016-10-19 07:38:23
p1149
sS'part2_incorrect_attempt'
p1150
(lp1151
(S'0:00:00'
p1152
V.2*.25
p1153
tp1154
assg412
(dp1155
S'part2_correct_attempt'
p1156
(lp1157
S'0:00:00'
p1158
aV0.2
p1159
asg9
g824
sS'part2_incorrect_attempt'
p1160
(lp1161
(S'-1 day, 22:02:06'
p1162
V0.25
p1163
tp1164
assg448
(dp1165
S'part2_correct_attempt'
p1166
(lp1167
S'0:00:00'
p1168
aV0.3+0.3-0.5
p1169
asg9
g835
sS'part2_incorrect_attempt'
p1170
(lp1171
(S'0:00:00'
p1172
V0.3+0.3-0.5
p1173
tp1174
assg460
(dp1175
S'part2_correct_attempt'
p1176
(lp1177
S'0:00:00'
p1178
aV0.3 + 0.3 - 0.4
p1179
asg9
g846
sS'part2_incorrect_attempt'
p1180
(lp1181
(S'-1 day, 22:57:37'
p1182
V0.2*0.3
p1183
tp1184
assg472
(dp1185
g9
g853
sS'part2_incorrect_attempt'
p1186
(lp1187
(S'-3 days, 23:19:40'
p1188
V(0.35 * 0.3)
p1189
tp1190
assg484
(dp1191
g9
g860
sS'part2_incorrect_attempt'
p1192
(lp1193
(S'-1 day, 23:44:15'
p1194
V.0625
p1195
tp1196
assg499
(dp1197
S'part2_correct_attempt'
p1198
(lp1199
S'0:00:00'
p1200
aV.25 + .2 - .35
p1201
asg9
g871
sS'part2_incorrect_attempt'
p1202
(lp1203
(S'-1 day, 16:04:55'
p1204
V.3 * .35
p1205
tp1206
assg511
(dp1207
S'part2_correct_attempt'
p1208
(lp1209
S'0:00:00'
p1210
aV.4+.3-.55
p1211
asg9
g882
sS'part2_incorrect_attempt'
p1212
(lp1213
(S'-1 day, 9:16:33'
p1214
V.05
p1215
tp1216
assg544
(dp1217
S'part2_correct_attempt'
p1218
(lp1219
S'0:00:00'
p1220
aV.10
p1221
asg9
g893
sS'part2_incorrect_attempt'
p1222
(lp1223
(S'-1 day, 23:26:06'
p1224
V0.05
p1225
tp1226
asssS'5'
p1227
(dp1228
g3
(dp1229
S'part5_correct_attempt'
p1230
(lp1231
S'0:00:00'
p1232
aV((.35 + .35) - .5)/.35
p1233
asS'part5_incorrect_attempt'
p1234
(lp1235
(S'-2 days, 18:19:41'
p1236
V(.3)(.35)/(.35)
p1237
tp1238
asg9
g568
ssS'alebedev'
p1239
(dp1240
S'part5_correct_attempt'
p1241
(lp1242
S'0:00:00'
p1243
aV0.33333
p1244
asS'part5_incorrect_attempt'
p1245
(lp1246
(S'0:00:00'
p1247
V0.33333
p1248
tp1249
asg9
V2016-10-16 21:10:54
p1250
ssg28
(dp1251
S'part5_incorrect_attempt'
p1252
(lp1253
(S'0:00:00'
p1254
V0.1/0.25
p1255
tp1256
asg9
V2016-10-18 20:37:50
p1257
ssg36
(dp1258
S'part5_incorrect_attempt'
p1259
(lp1260
(S'-1 day, 23:53:42'
p1261
V0.35
p1262
tp1263
asg9
g593
ssg16
(dp1264
S'part5_correct_attempt'
p1265
(lp1266
S'0:00:00'
p1267
aV1/2
p1268
asS'part5_incorrect_attempt'
p1269
(lp1270
(S'-1 day, 23:54:48'
p1271
V0.4
p1272
tp1273
asg9
g579
ssS'yuhan'
p1274
(dp1275
S'part5_correct_attempt'
p1276
(lp1277
S'0:00:00'
p1278
aV3/5
p1279
asS'part5_incorrect_attempt'
p1280
(lp1281
(S'0:00:00'
p1282
V3/5
p1283
tp1284
asg9
V2016-10-18 03:21:07
p1285
ssg84
(dp1286
S'part5_incorrect_attempt'
p1287
(lp1288
(S'0:00:00'
p1289
V(0.25)
p1290
tp1291
asg9
V2016-10-17 00:08:15
p1292
ssg92
(dp1293
S'part5_incorrect_attempt'
p1294
(lp1295
(S'-1 day, 23:24:49'
p1296
V(0.05+0.05-0.05)/0.05
p1297
tp1298
a(S'-1 day, 23:45:05'
p1299
V(0.25+0.1-0.3)/0.25
p1300
tp1301
a(S'-1 day, 23:49:15'
p1302
V(0.25+0.25-0.45)/0.25
p1303
tp1304
a(S'-1 day, 23:53:27'
p1305
V0.3/0.25
p1306
tp1307
asg9
g645
ssg110
(dp1308
S'part5_correct_attempt'
p1309
(lp1310
S'0:00:00'
p1311
aV(.3+.3-.45)/.3
p1312
asS'part5_incorrect_attempt'
p1313
(lp1314
(S'-1 day, 6:41:54'
p1315
V.25
p1316
tp1317
a(S'-1 day, 6:49:10'
p1318
V((.35)*(.35))/(.35)
p1319
tp1320
asg9
g659
ssg155
(dp1321
S'part5_correct_attempt'
p1322
(lp1323
S'0:00:00'
p1324
aV.2/.4
p1325
asS'part5_incorrect_attempt'
p1326
(lp1327
(S'-1 day, 23:50:29'
p1328
V.28/.3
p1329
tp1330
asg9
V2016-10-17 02:25:27
p1331
ssg167
(dp1332
S'part5_correct_attempt'
p1333
(lp1334
S'0:00:00'
p1335
aV0.25
p1336
asS'part5_incorrect_attempt'
p1337
(lp1338
(S'0:00:00'
p1339
V0.25
p1340
tp1341
asg9
g670
ssS'shuang'
p1342
(dp1343
S'part5_correct_attempt'
p1344
(lp1345
S'0:00:00'
p1346
aV1/2
p1347
asS'part5_incorrect_attempt'
p1348
(lp1349
(S'0:00:00'
p1350
V1/2
p1351
tp1352
asg9
V2016-10-16 06:40:52
p1353
ssS'nicoleyfq'
p1354
(dp1355
S'part5_correct_attempt'
p1356
(lp1357
S'0:00:00'
p1358
aV0.15/0.3
p1359
asS'part5_incorrect_attempt'
p1360
(lp1361
(S'-1 day, 23:57:41'
p1362
V0.15/0.35
p1363
tp1364
asg9
V2016-10-19 07:16:19
p1365
ssg671
(dp1366
S'part5_correct_attempt'
p1367
(lp1368
S'0:00:00'
p1369
aV0.5
p1370
asS'part5_incorrect_attempt'
p1371
(lp1372
(S'-1 day, 21:35:19'
p1373
V0.6
p1374
tp1375
a(S'-1 day, 21:38:38'
p1376
V0.25
p1377
tp1378
a(S'-1 day, 21:39:57'
p1379
V0.15
p1380
tp1381
a(S'-1 day, 21:42:19'
p1382
V1/3
p1383
tp1384
a(S'-1 day, 21:45:22'
p1385
V0.6
p1386
tp1387
a(S'-1 day, 23:19:59'
p1388
V0.15
p1389
tp1390
a(S'-1 day, 23:48:36'
p1391
V0.4
p1392
tp1393
a(S'-1 day, 23:51:39'
p1394
V0.25
p1395
tp1396
a(S'-1 day, 23:56:01'
p1397
V0.4
p1398
tp1399
a(S'-1 day, 23:57:46'
p1400
V0.5
p1401
tp1402
asg9
g706
ssS'hunguyen'
p1403
(dp1404
S'part5_correct_attempt'
p1405
(lp1406
S'0:00:00'
p1407
aV(.25 + .3 - .45)/.25
p1408
asS'part5_incorrect_attempt'
p1409
(lp1410
(S'-1 day, 23:51:24'
p1411
V.7
p1412
tp1413
asg9
V2016-10-17 05:06:44
p1414
ssS'Safai'
p1415
(dp1416
S'part5_correct_attempt'
p1417
(lp1418
S'0:00:00'
p1419
aV.2/.3
p1420
asS'part5_incorrect_attempt'
p1421
(lp1422
(S'-1 day, 23:49:27'
p1423
V.333
p1424
tp1425
a(S'-1 day, 23:56:04'
p1426
V.57
p1427
tp1428
asg9
V2016-10-18 23:59:15
p1429
ssg241
(dp1430
S'part5_correct_attempt'
p1431
(lp1432
S'0:00:00'
p1433
aV(0.3+0.25-0.4)/0.3
p1434
asS'part5_incorrect_attempt'
p1435
(lp1436
(S'-2 days, 4:33:11'
p1437
V(0.25*0.3)/0.25
p1438
tp1439
asg9
g717
ssg69
(dp1440
S'part5_correct_attempt'
p1441
(lp1442
S'0:00:00'
p1443
aV0.4
p1444
asS'part5_incorrect_attempt'
p1445
(lp1446
(S'-1 day, 23:37:07'
p1447
V0.3
p1448
tp1449
a(S'0:00:00'
p1450
V0.4
p1451
tp1452
asg9
g615
ssg265
(dp1453
S'part5_incorrect_attempt'
p1454
(lp1455
(S'0:00:00'
p1456
V.05/.25
p1457
tp1458
asg9
V2016-10-16 04:04:13
p1459
ssg1076
(dp1460
S'part5_correct_attempt'
p1461
(lp1462
S'0:00:00'
p1463
aV(0.35+0.35-0.5)/0.35
p1464
asS'part5_incorrect_attempt'
p1465
(lp1466
(S'-1 day, 23:28:40'
p1467
V0.25/0.35
p1468
tp1469
asg9
g1082
ssS'Melvinw'
p1470
(dp1471
S'part5_correct_attempt'
p1472
(lp1473
S'0:00:00'
p1474
aV(0.35+0.3-0.5)/0.35
p1475
asS'part5_incorrect_attempt'
p1476
(lp1477
(S'-1 day, 23:23:20'
p1478
V0.35*0.3
p1479
tp1480
asg9
V2016-10-18 07:14:49
p1481
ssS'mvkrishn'
p1482
(dp1483
S'part5_correct_attempt'
p1484
(lp1485
S'0:00:00'
p1486
aV.5
p1487
asS'part5_incorrect_attempt'
p1488
(lp1489
(S'0:00:00'
p1490
V.5
p1491
tp1492
asg9
g751
ssg294
(dp1493
S'part5_correct_attempt'
p1494
(lp1495
S'0:00:00'
p1496
aV.1/.2
p1497
asS'part5_incorrect_attempt'
p1498
(lp1499
(S'-1 day, 23:26:42'
p1500
V.4
p1501
tp1502
asg9
g762
ssg306
(dp1503
S'part5_incorrect_attempt'
p1504
(lp1505
(S'-1 day, 23:55:11'
p1506
V0.25
p1507
tp1508
asg9
g769
ssg339
(dp1509
S'part5_incorrect_attempt'
p1510
(lp1511
(S'-1 day, 23:54:43'
p1512
V(.35*.3)/.35
p1513
tp1514
asg9
g776
ssS'ray003'
p1515
(dp1516
S'part5_correct_attempt'
p1517
(lp1518
S'0:00:00'
p1519
aV0.15/0.3
p1520
asS'part5_incorrect_attempt'
p1521
(lp1522
(S'-1 day, 23:54:22'
p1523
V0.4
p1524
tp1525
asg9
V2016-10-16 07:50:11
p1526
ssS'migil'
p1527
(dp1528
S'part5_correct_attempt'
p1529
(lp1530
S'0:00:00'
p1531
aV0.4
p1532
asS'part5_incorrect_attempt'
p1533
(lp1534
(S'-1 day, 23:50:07'
p1535
V0.3
p1536
tp1537
asg9
V2016-10-16 06:15:22
p1538
ssg386
(dp1539
S'part5_correct_attempt'
p1540
(lp1541
S'0:00:00'
p1542
aV0.1 / 0.2
p1543
asS'part5_incorrect_attempt'
p1544
(lp1545
(S'-3 days, 23:34:10'
p1546
V(0.3 * 0.3)/0.3
p1547
tp1548
asg9
g794
ssg404
(dp1549
S'part5_incorrect_attempt'
p1550
(lp1551
(S'0:00:00'
p1552
V(.2*.3)/.3
p1553
tp1554
asg9
V2016-10-19 07:38:23
p1555
ssg412
(dp1556
S'part5_correct_attempt'
p1557
(lp1558
S'0:00:00'
p1559
aV0.2/0.35
p1560
asS'part5_incorrect_attempt'
p1561
(lp1562
(S'-1 day, 22:02:06'
p1563
V0.25/0.25
p1564
tp1565
asg9
g824
ssg366
(dp1566
S'part5_incorrect_attempt'
p1567
(lp1568
(S'0:00:00'
p1569
V.3
p1570
tp1571
asg9
V2016-10-19 05:28:33
p1572
ssS'aliqbal'
p1573
(dp1574
S'part5_correct_attempt'
p1575
(lp1576
S'0:00:00'
p1577
aV(0.3 + 0.3 - 0.45)/0.3
p1578
asS'part5_incorrect_attempt'
p1579
(lp1580
(S'-1 day, 22:34:47'
p1581
V0.2
p1582
tp1583
a(S'-1 day, 22:57:37'
p1584
V(0.25*0.2)/0.25
p1585
tp1586
asg9
g846
ssg472
(dp1587
S'part5_incorrect_attempt'
p1588
(lp1589
(S'-3 days, 23:19:40'
p1590
V(0.35 * 0.25) / (0.25)
p1591
tp1592
asg9
g853
ssg499
(dp1593
S'part5_correct_attempt'
p1594
(lp1595
S'0:00:00'
p1596
aV(.3 + .25 - .4) / .3
p1597
asS'part5_incorrect_attempt'
p1598
(lp1599
(S'-1 day, 16:04:55'
p1600
V.3
p1601
tp1602
a(S'-1 day, 23:45:40'
p1603
V.4 / .25
p1604
tp1605
asg9
g871
ssg511
(dp1606
S'part5_correct_attempt'
p1607
(lp1608
S'0:00:00'
p1609
aV(.35+.4-.55)/(.35)
p1610
asS'part5_incorrect_attempt'
p1611
(lp1612
(S'-1 day, 9:16:33'
p1613
V(.05)/.1
p1614
tp1615
asg9
g882
ssg544
(dp1616
S'part5_correct_attempt'
p1617
(lp1618
S'0:00:00'
p1619
aV.15/.3
p1620
asS'part5_incorrect_attempt'
p1621
(lp1622
(S'-1 day, 23:26:06'
p1623
V0.5/.2
p1624
tp1625
asg9
g893
ssS'rjanowit'
p1626
(dp1627
S'part5_correct_attempt'
p1628
(lp1629
S'0:00:00'
p1630
aV0.35/0.2
p1631
asS'part5_incorrect_attempt'
p1632
(lp1633
(S'0:00:00'
p1634
V0.35/0.2
p1635
tp1636
asg9
V2016-10-18 22:07:30
p1637
sssS'4'
p1638
(dp1639
g3
(dp1640
S'part4_correct_attempt'
p1641
(lp1642
S'0:00:00'
p1643
aV((.35 + .35) - .5)/.35
p1644
asS'part4_incorrect_attempt'
p1645
(lp1646
(S'-2 days, 18:19:41'
p1647
V(.35)(.3)/(.3)
p1648
tp1649
asg9
g568
ssg1239
(dp1650
S'part4_correct_attempt'
p1651
(lp1652
S'0:00:00'
p1653
aV0.33333
p1654
asS'part4_incorrect_attempt'
p1655
(lp1656
(S'0:00:00'
p1657
V0.33333
p1658
tp1659
asg9
g1250
ssg28
(dp1660
S'part4_incorrect_attempt'
p1661
(lp1662
(S'0:00:00'
p1663
V0.1/0.25
p1664
tp1665
asg9
V2016-10-18 20:37:50
p1666
ssg36
(dp1667
S'part4_incorrect_attempt'
p1668
(lp1669
(S'-1 day, 23:53:42'
p1670
V0.35
p1671
tp1672
asg9
g593
ssg16
(dp1673
S'part4_correct_attempt'
p1674
(lp1675
S'0:00:00'
p1676
aV10/25
p1677
asS'part4_incorrect_attempt'
p1678
(lp1679
(S'-1 day, 23:54:48'
p1680
V0.4
p1681
tp1682
asg9
g579
ssg69
(dp1683
S'part4_correct_attempt'
p1684
(lp1685
S'0:00:00'
p1686
aV0.4
p1687
asS'part4_incorrect_attempt'
p1688
(lp1689
(S'-1 day, 23:37:07'
p1690
V0.3
p1691
tp1692
a(S'0:00:00'
p1693
V0.4
p1694
tp1695
asg9
g615
ssg84
(dp1696
S'part4_incorrect_attempt'
p1697
(lp1698
(S'0:00:00'
p1699
V(0.25)
p1700
tp1701
asg9
V2016-10-17 00:08:15
p1702
ssg92
(dp1703
S'part4_correct_attempt'
p1704
(lp1705
S'0:00:00'
p1706
aV(0.35+0.25-0.4)/0.25
p1707
asS'part4_incorrect_attempt'
p1708
(lp1709
(S'-1 day, 23:24:49'
p1710
V(0.05+0.05-0.05)/0.05
p1711
tp1712
a(S'-1 day, 23:45:05'
p1713
V(0.25+0.1-0.3)/0.1
p1714
tp1715
a(S'-1 day, 23:49:15'
p1716
V(0.25+0.25-0.45)/0.25
p1717
tp1718
a(S'-1 day, 23:53:27'
p1719
V0.3/0.2
p1720
tp1721
asg9
g645
ssS'woguan'
p1722
(dp1723
S'part4_correct_attempt'
p1724
(lp1725
S'0:00:00'
p1726
aV0.5
p1727
asS'part4_incorrect_attempt'
p1728
(lp1729
(S'0:00:00'
p1730
V0.5
p1731
tp1732
asg9
V2016-10-17 11:33:53
p1733
ssg110
(dp1734
S'part4_correct_attempt'
p1735
(lp1736
S'0:00:00'
p1737
aV(.3+.3-.45)/.3
p1738
asS'part4_incorrect_attempt'
p1739
(lp1740
(S'-1 day, 6:41:54'
p1741
V.3
p1742
tp1743
a(S'-1 day, 6:49:10'
p1744
V((.35)*(.35))/(.35)
p1745
tp1746
asg9
g659
ssg155
(dp1747
S'part4_correct_attempt'
p1748
(lp1749
S'0:00:00'
p1750
aV.2/.3
p1751
asS'part4_incorrect_attempt'
p1752
(lp1753
(S'-1 day, 23:50:29'
p1754
V.28/.35
p1755
tp1756
asg9
g1331
ssg167
(dp1757
S'part4_correct_attempt'
p1758
(lp1759
S'0:00:00'
p1760
aV0.25
p1761
asS'part4_incorrect_attempt'
p1762
(lp1763
(S'0:00:00'
p1764
V0.25
p1765
tp1766
asg9
g670
ssg1354
(dp1767
S'part4_correct_attempt'
p1768
(lp1769
S'0:00:00'
p1770
aV0.15/0.25
p1771
asS'part4_incorrect_attempt'
p1772
(lp1773
(S'-1 day, 23:57:41'
p1774
V0.15/0.35
p1775
tp1776
asg9
g1365
ssS'jih089'
p1777
(dp1778
S'part4_correct_attempt'
p1779
(lp1780
S'0:00:00'
p1781
aV0.4
p1782
asS'part4_incorrect_attempt'
p1783
(lp1784
(S'-1 day, 21:38:38'
p1785
V1/3
p1786
tp1787
a(S'-1 day, 21:39:57'
p1788
V0.1
p1789
tp1790
a(S'-1 day, 21:42:19'
p1791
V0.25
p1792
tp1793
a(S'-1 day, 23:18:43'
p1794
V2/3
p1795
tp1796
a(S'-1 day, 23:19:59'
p1797
V0.2
p1798
tp1799
a(S'-1 day, 23:48:36'
p1800
V0.5
p1801
tp1802
a(S'-1 day, 23:51:39'
p1803
V1/3
p1804
tp1805
a(S'-1 day, 23:56:01'
p1806
V0.4
p1807
tp1808
asg9
g706
ssg1403
(dp1809
S'part4_correct_attempt'
p1810
(lp1811
S'0:00:00'
p1812
aV(.25 + .3 - .45)/.3
p1813
asS'part4_incorrect_attempt'
p1814
(lp1815
(S'-1 day, 23:51:24'
p1816
V.7
p1817
tp1818
asg9
g1414
ssS'Safai'
p1819
(dp1820
S'part4_correct_attempt'
p1821
(lp1822
S'0:00:00'
p1823
aV.2/.35
p1824
asS'part4_incorrect_attempt'
p1825
(lp1826
(S'-1 day, 23:56:04'
p1827
V.666
p1828
tp1829
asg9
g1429
ssg241
(dp1830
S'part4_correct_attempt'
p1831
(lp1832
S'0:00:00'
p1833
aV(0.3+0.25-0.4)/0.25
p1834
asS'part4_incorrect_attempt'
p1835
(lp1836
(S'-2 days, 4:33:11'
p1837
V(0.25*0.3)/0.3
p1838
tp1839
asg9
g717
ssg265
(dp1840
S'part4_incorrect_attempt'
p1841
(lp1842
(S'0:00:00'
p1843
V.05/.25
p1844
tp1845
asg9
V2016-10-16 04:04:13
p1846
ssg1076
(dp1847
S'part4_correct_attempt'
p1848
(lp1849
S'0:00:00'
p1850
aV(0.35+0.35-0.5)/0.35
p1851
asS'part4_incorrect_attempt'
p1852
(lp1853
(S'-1 day, 23:28:40'
p1854
V0.25/0.35
p1855
tp1856
asg9
g1082
ssg1470
(dp1857
S'part4_correct_attempt'
p1858
(lp1859
S'0:00:00'
p1860
aV(0.35+0.3-0.5)/0.3
p1861
asS'part4_incorrect_attempt'
p1862
(lp1863
(S'-1 day, 23:23:20'
p1864
V0.3*0.35
p1865
tp1866
a(S'-1 day, 23:24:13'
p1867
V0.5/0.35
p1868
tp1869
asg9
g1481
ssS'mvkrishn'
p1870
(dp1871
S'part4_correct_attempt'
p1872
(lp1873
S'0:00:00'
p1874
aV.15/.35
p1875
asS'part4_incorrect_attempt'
p1876
(lp1877
(S'-1 day, 22:27:41'
p1878
V.5
p1879
tp1880
asg9
g751
ssg294
(dp1881
S'part4_correct_attempt'
p1882
(lp1883
S'0:00:00'
p1884
aV.1/.2
p1885
asS'part4_incorrect_attempt'
p1886
(lp1887
(S'-1 day, 23:26:42'
p1888
V.35
p1889
tp1890
asg9
g762
ssg306
(dp1891
S'part4_incorrect_attempt'
p1892
(lp1893
(S'-1 day, 23:55:11'
p1894
V0.3
p1895
tp1896
asg9
g769
ssg339
(dp1897
S'part4_incorrect_attempt'
p1898
(lp1899
(S'-1 day, 23:54:43'
p1900
V(.35*.3)/.3
p1901
tp1902
asg9
g776
ssg1515
(dp1903
S'part4_correct_attempt'
p1904
(lp1905
S'0:00:00'
p1906
aV0.15/0.3
p1907
asS'part4_incorrect_attempt'
p1908
(lp1909
(S'-1 day, 23:54:22'
p1910
V0.4
p1911
tp1912
asg9
g1526
ssg1527
(dp1913
S'part4_correct_attempt'
p1914
(lp1915
S'0:00:00'
p1916
aV0.5
p1917
asS'part4_incorrect_attempt'
p1918
(lp1919
(S'-1 day, 23:50:07'
p1920
V0.3
p1921
tp1922
asg9
g1538
ssg386
(dp1923
S'part4_correct_attempt'
p1924
(lp1925
S'0:00:00'
p1926
aV0.1 / 0.2
p1927
asS'part4_incorrect_attempt'
p1928
(lp1929
(S'-3 days, 23:34:10'
p1930
V(0.3 * 0.3)/0.3
p1931
tp1932
asg9
g794
ssg404
(dp1933
S'part4_correct_attempt'
p1934
(lp1935
S'0:00:00'
p1936
aV(.35 + .35 -.5)/.35
p1937
asS'part4_incorrect_attempt'
p1938
(lp1939
(S'0:00:00'
p1940
V(.3*.2)/.2
p1941
tp1942
asg9
V2016-10-19 07:38:23
p1943
ssg412
(dp1944
S'part4_correct_attempt'
p1945
(lp1946
S'0:00:00'
p1947
aV0.5
p1948
asS'part4_incorrect_attempt'
p1949
(lp1950
(S'-1 day, 22:02:06'
p1951
V0.25/0.35
p1952
tp1953
asg9
g824
ssS'minhsuanyao'
p1954
(dp1955
S'part4_correct_attempt'
p1956
(lp1957
S'0:00:00'
p1958
aV0.5
p1959
asS'part4_incorrect_attempt'
p1960
(lp1961
(S'-1 day, 23:35:49'
p1962
V0.5
p1963
tp1964
asg9
V2016-10-18 23:22:37
p1965
ssg366
(dp1966
S'part4_incorrect_attempt'
p1967
(lp1968
(S'0:00:00'
p1969
V.25
p1970
tp1971
asg9
V2016-10-19 05:28:33
p1972
ssg1573
(dp1973
S'part4_correct_attempt'
p1974
(lp1975
S'0:00:00'
p1976
aV(0.3 + 0.3 - 0.45)/(0.3)
p1977
asS'part4_incorrect_attempt'
p1978
(lp1979
(S'-1 day, 22:34:47'
p1980
V0.25
p1981
tp1982
a(S'-1 day, 22:57:37'
p1983
V(0.25*0.2)/(0.2)
p1984
tp1985
asg9
g846
ssg472
(dp1986
S'part4_incorrect_attempt'
p1987
(lp1988
(S'-3 days, 23:19:40'
p1989
V(0.25 * 0.35) / ( 0.35)
p1990
tp1991
asg9
g853
ssg499
(dp1992
S'part4_correct_attempt'
p1993
(lp1994
S'0:00:00'
p1995
aV(.3 + .25 - .4) / .25
p1996
asS'part4_incorrect_attempt'
p1997
(lp1998
(S'-1 day, 16:04:55'
p1999
V.35
p2000
tp2001
a(S'-1 day, 23:45:40'
p2002
V.4 / .3
p2003
tp2004
asg9
g871
ssg511
(dp2005
S'part4_correct_attempt'
p2006
(lp2007
S'0:00:00'
p2008
aV(.35+.4-.55)/(.4)
p2009
asS'part4_incorrect_attempt'
p2010
(lp2011
(S'-1 day, 9:16:33'
p2012
V(.05)/.15
p2013
tp2014
asg9
g882
ssg544
(dp2015
S'part4_correct_attempt'
p2016
(lp2017
S'0:00:00'
p2018
aV.15/.25
p2019
asS'part4_incorrect_attempt'
p2020
(lp2021
(S'-1 day, 23:26:06'
p2022
V.05/.1
p2023
tp2024
asg9
g893
ssg1626
(dp2025
S'part4_correct_attempt'
p2026
(lp2027
S'0:00:00'
p2028
aV0.35/0.25
p2029
asS'part4_incorrect_attempt'
p2030
(lp2031
(S'0:00:00'
p2032
V0.35/0.25
p2033
tp2034
asg9
g1637
sssS'7'
p2035
(dp2036
S'Byung'
p2037
(dp2038
g9
V2016-10-18 04:13:19
p2039
sS'part7_correct_attempt'
p2040
(lp2041
S'0:00:00'
p2042
aV0.2/0.15
p2043
asS'part7_incorrect_attempt'
p2044
(lp2045
(S'-1 day, 23:40:46'
p2046
V1/0.15
p2047
tp2048
assg36
(dp2049
g9
g593
sS'part7_incorrect_attempt'
p2050
(lp2051
(S'-1 day, 23:53:42'
p2052
V0.35
p2053
tp2054
assg57
(dp2055
g9
g604
sS'part7_correct_attempt'
p2056
(lp2057
S'0:00:00'
p2058
aV(0.65-0.35-0.3-0.3+0.15+0.15+0.15)/(0.15)
p2059
asS'part7_incorrect_attempt'
p2060
(lp2061
(S'-1 day, 23:52:07'
p2062
V0.2*0.25*0.25/(0.25*0.25)
p2063
tp2064
assS'rrivasfe'
p2065
(dp2066
g9
g615
sS'part7_correct_attempt'
p2067
(lp2068
S'0:00:00'
p2069
aV0.5
p2070
asS'part7_incorrect_attempt'
p2071
(lp2072
(S'0:00:00'
p2073
V0.5
p2074
tp2075
assS'AndrewYang24'
p2076
(dp2077
g9
g645
sS'part7_correct_attempt'
p2078
(lp2079
S'0:00:00'
p2080
aV(0.35+0.25-0.4)/0.25*0.2
p2081
asS'part7_incorrect_attempt'
p2082
(lp2083
(S'-1 day, 23:45:05'
p2084
V0.25*(0.1+0.15-0.15)/(0.1+0.15-0.15)
p2085
tp2086
a(S'-1 day, 23:53:27'
p2087
V0.2/(0.2+0.35-0.35)
p2088
tp2089
a(S'0:00:00'
p2090
V(0.35+0.25-0.4)/0.25*0.2
p2091
tp2092
assS'aspindle'
p2093
(dp2094
g9
g1331
sS'part7_correct_attempt'
p2095
(lp2096
S'0:00:00'
p2097
aV.2/.2
p2098
asS'part7_incorrect_attempt'
p2099
(lp2100
(S'-1 day, 23:35:54'
p2101
V3.5
p2102
tp2103
a(S'-1 day, 23:50:29'
p2104
V.28/.15
p2105
tp2106
assS'alvinyho'
p2107
(dp2108
g9
g996
sS'part7_correct_attempt'
p2109
(lp2110
S'0:00:00'
p2111
aV(.25 + (.3+.35-(.5)) - (.25  + (.3+.35-(.5)) - (.6 - .25 - .3 -.35 + (.25+.3-(.45)) + (.3+.35-(.5)) + (.25+.35-(.45))))  )/(.3+.35-(.5))
p2112
asS'part7_incorrect_attempt'
p2113
(lp2114
(S'-1 day, 22:38:43'
p2115
V(.3 + (.3 + .35 - (.5)) - (.3 + (.3 + .35 - (.5)) - (.6-(.3 + .3 - (.45))-(.3 + .35 - (.5))-(.3 + .35 - (.5)))))/(.3 + .35 - (.5))
p2116
tp2117
a(S'-1 day, 23:48:29'
p2118
V(.3 + (.25 + .25 - (.4)) - (.6-.3-.25-.25+(.3 + .25 - (.4))+(.25 + .25 - (.4))+(.3 + .25 - (.45))))/(.25 + .25 - (.4))
p2119
tp2120
assg110
(dp2121
g9
g659
sS'part7_correct_attempt'
p2122
(lp2123
S'0:00:00'
p2124
aV(.55-.3-.3-.2+(.3+.3-.45)+(.3+.2-.4)+(.3+.2-.4))/(.3+.2-.4)
p2125
asS'part7_incorrect_attempt'
p2126
(lp2127
(S'-1 day, 6:41:54'
p2128
V.3
p2129
tp2130
a(S'-1 day, 6:49:10'
p2131
V((.35)*((.35)*(.3)))/((.35)*(.3))
p2132
tp2133
assS'kballew00'
p2134
(dp2135
g9
V2016-10-18 16:43:15
p2136
sS'part7_correct_attempt'
p2137
(lp2138
S'0:00:00'
p2139
aV(0.65-0.3-0.3-0.3+(0.3+0.3-0.45)+(0.3+0.3-0.45)+(0.3+0.3-0.45))/(0.3+0.3-0.45)
p2140
asS'part7_incorrect_attempt'
p2141
(lp2142
(S'-1 day, 23:56:15'
p2143
V(-0.2-0.25-0.3-0.5+(0.2+0.25-0.35)+(0.25+0.3-0.45)+(0.2+0.3-0.4))/(0.25+0.3-0.45)
p2144
tp2145
assS'ryanguyen'
p2146
(dp2147
g9
V2016-10-19 02:00:00
p2148
sS'part7_correct_attempt'
p2149
(lp2150
S'0:00:00'
p2151
aV.75
p2152
asS'part7_incorrect_attempt'
p2153
(lp2154
(S'-1 day, 23:53:55'
p2155
V3/2
p2156
tp2157
a(S'0:00:00'
p2158
V.75
p2159
tp2160
assS'JasonHuang'
p2161
(dp2162
g9
V2016-10-18 23:22:41
p2163
sS'part7_correct_attempt'
p2164
(lp2165
S'0:00:00'
p2166
aV1
p2167
asS'part7_incorrect_attempt'
p2168
(lp2169
(S'-1 day, 23:50:15'
p2170
V1/2
p2171
tp2172
assS'jih089'
p2173
(dp2174
g9
g706
sS'part7_correct_attempt'
p2175
(lp2176
S'0:00:00'
p2177
aV1
p2178
asS'part7_incorrect_attempt'
p2179
(lp2180
(S'-1 day, 21:42:19'
p2181
V0.15
p2182
tp2183
a(S'-1 day, 23:19:59'
p2184
V0.2
p2185
tp2186
assS'Melvinw'
p2187
(dp2188
g9
g1481
sS'part7_correct_attempt'
p2189
(lp2190
S'0:00:00'
p2191
aV(0.65-0.35-0.3-0.35+0.35+0.3-0.5+0.3+0.35-0.45+0.35+0.35-0.5)/(0.3+0.35-0.45)
p2192
asS'part7_incorrect_attempt'
p2193
(lp2194
(S'0:00:00'
p2195
V(0.65-0.35-0.3-0.35+0.35+0.3-0.5+0.3+0.35-0.45+0.35+0.35-0.5)/(0.3+0.35-0.45)
p2196
tp2197
assS'Benaisha'
p2198
(dp2199
g9
V2016-10-18 17:51:10
p2200
sS'part7_incorrect_attempt'
p2201
(lp2202
(S'-1 day, 23:54:54'
p2203
V1.5
p2204
tp2205
a(S'0:00:00'
p2206
V.05
p2207
tp2208
assS'yphilip'
p2209
(dp2210
g9
V2016-10-18 07:57:51
p2211
sS'part7_correct_attempt'
p2212
(lp2213
S'0:00:00'
p2214
aV1
p2215
asS'part7_incorrect_attempt'
p2216
(lp2217
(S'-1 day, 23:50:38'
p2218
V0.5
p2219
tp2220
assS'wesokuhara'
p2221
(dp2222
g9
V2016-10-17 19:23:21
p2223
sS'part7_correct_attempt'
p2224
(lp2225
S'0:00:00'
p2226
aV(0.6 - 0.3 - 0.25 - 0.3 + 0.1 + 0.15 + 0.15)/0.15
p2227
asS'part7_incorrect_attempt'
p2228
(lp2229
(S'0:00:00'
p2230
V(0.6 - 0.3 - 0.25 - 0.3 + 0.1 + 0.15 + 0.15)/0.15
p2231
tp2232
assS'SidneyNguyen'
p2233
(dp2234
g9
V2016-10-19 04:01:07
p2235
sS'part7_correct_attempt'
p2236
(lp2237
S'0:00:00'
p2238
aV(0.65-0.35-0.35-0.3+0.35+0.35-0.5+0.35+0.3-0.5+0.35+0.3-0.5)/(0.35+0.3-0.5)
p2239
asS'part7_incorrect_attempt'
p2240
(lp2241
(S'0:00:00'
p2242
V(0.65-0.35-0.35-0.3+0.35+0.35-0.5+0.35+0.3-0.5+0.35+0.3-0.5)/(0.35+0.3-0.5)
p2243
tp2244
assS'ThuanNguyen'
p2245
(dp2246
g9
V2016-10-17 05:44:52
p2247
sS'part7_correct_attempt'
p2248
(lp2249
S'0:00:00'
p2250
aV0.2/0.2
p2251
asS'part7_incorrect_attempt'
p2252
(lp2253
(S'-1 day, 23:51:46'
p2254
V47/70
p2255
tp2256
assS'PriyankaK'
p2257
(dp2258
g9
V2016-10-17 01:47:50
p2259
sS'part7_correct_attempt'
p2260
(lp2261
S'0:00:00'
p2262
aV(0.6-0.25-0.3-0.3+(0.3+0.3-0.45)+(0.3+0.25-0.4)+(0.3+0.25-0.4))/(0.3+0.25-0.4)
p2263
asS'part7_incorrect_attempt'
p2264
(lp2265
(S'-1 day, 23:56:00'
p2266
V(0.65-0.35-0.3-0.4+(0.35+0.3-0.5)+(0.4+0.3-0.5)+(0.3+0.4-0.55))/((0.4+0.3-0.5))
p2267
tp2268
assg265
(dp2269
g9
V2016-10-16 04:04:13
p2270
sS'part7_incorrect_attempt'
p2271
(lp2272
(S'0:00:00'
p2273
V.05/.25+.05
p2274
tp2275
assS'ThucPhan'
p2276
(dp2277
g9
g1082
sS'part7_correct_attempt'
p2278
(lp2279
S'0:00:00'
p2280
aV(0.2+0.15+0.15+0.65-0.35-0.35-0.35)/0.15
p2281
asS'part7_incorrect_attempt'
p2282
(lp2283
(S'-1 day, 23:03:54'
p2284
V(0.15)/0.3
p2285
tp2286
a(S'-1 day, 23:56:04'
p2287
V(0.15+0.1+0.1+0.5-0.25-0.25-0.25)/0.1
p2288
tp2289
assg366
(dp2290
g9
V2016-10-19 05:28:33
p2291
sS'part7_incorrect_attempt'
p2292
(lp2293
(S'0:00:00'
p2294
V.1
p2295
tp2296
assg1482
(dp2297
g9
g751
sS'part7_correct_attempt'
p2298
(lp2299
S'0:00:00'
p2300
aV.5
p2301
asS'part7_incorrect_attempt'
p2302
(lp2303
(S'0:00:00'
p2304
V.5
p2305
tp2306
assg294
(dp2307
g9
g762
sS'part7_correct_attempt'
p2308
(lp2309
S'0:00:00'
p2310
aV(.45-.2-.2-.25+.1+.1+.1)/.1
p2311
asS'part7_incorrect_attempt'
p2312
(lp2313
(S'-1 day, 23:26:42'
p2314
V.35
p2315
tp2316
assS'Ryan'
p2317
(dp2318
g9
V2016-10-18 16:51:43
p2319
sS'part7_correct_attempt'
p2320
(lp2321
S'0:00:00'
p2322
aV(0.6 - 0.3 - 0.3 - 0.2 + 0.3 + 0.3 - 0.45 + 0.3 + 0.2 - 0.4 + 0.2 + 0.3 - 0.4)/(0.3 + 0.2 - 0.4)
p2323
asS'part7_incorrect_attempt'
p2324
(lp2325
(S'-1 day, 23:51:24'
p2326
V(0.6 - 0.3 - 0.3 - 0.2 + 0.45 + 0.4 + 0.4)/(0.3 + 0.2 - 0.4)
p2327
tp2328
assS'wtchiu'
p2329
(dp2330
g9
V2016-10-19 06:47:17
p2331
sS'part7_correct_attempt'
p2332
(lp2333
S'0:00:00'
p2334
aV(0.6+0.3+0.3-0.4+0.3+0.3-0.45+0.3+0.3-0.45-0.3-0.3-0.3)/(0.3+0.3-0.45)
p2335
asS'part7_incorrect_attempt'
p2336
(lp2337
(S'-1 day, 23:56:21'
p2338
V(0.7+0.35+0.3-0.5+0.3+0.35-0.5+0.35+0.35-0.55-0.3-0.35-0.35)/0.3+0.35-0.5
p2339
tp2340
assg306
(dp2341
g9
g769
sS'part7_incorrect_attempt'
p2342
(lp2343
(S'-1 day, 23:55:11'
p2344
V(0.5-0.3-0.25-0.2+0.4+0.4+0.35)/(0.25*0.2)
p2345
tp2346
assg339
(dp2347
g9
g776
sS'part7_incorrect_attempt'
p2348
(lp2349
(S'-1 day, 23:54:43'
p2350
V.35
p2351
tp2352
assg1515
(dp2353
g9
g1526
sS'part7_correct_attempt'
p2354
(lp2355
S'0:00:00'
p2356
aV0.15/0.1
p2357
asS'part7_incorrect_attempt'
p2358
(lp2359
(S'-1 day, 23:54:22'
p2360
V0.4
p2361
tp2362
assS'zhc047'
p2363
(dp2364
g9
V2016-10-19 04:05:10
p2365
sS'part7_correct_attempt'
p2366
(lp2367
S'0:00:00'
p2368
aV0.2/0.2
p2369
asS'part7_incorrect_attempt'
p2370
(lp2371
(S'-1 day, 23:56:51'
p2372
V0.25
p2373
tp2374
assS'sunilraiyani'
p2375
(dp2376
g9
V2016-10-16 20:04:42
p2377
sS'part7_correct_attempt'
p2378
(lp2379
S'0:00:00'
p2380
aV0.2/0.2
p2381
asS'part7_incorrect_attempt'
p2382
(lp2383
(S'0:00:00'
p2384
V0.2/0.2
p2385
tp2386
assS'yazin-yousif'
p2387
(dp2388
g9
g824
sS'part7_correct_attempt'
p2389
(lp2390
S'0:00:00'
p2391
aV0.75
p2392
asS'part7_incorrect_attempt'
p2393
(lp2394
(S'0:00:00'
p2395
V0.75
p2396
tp2397
assS'minhsuanyao'
p2398
(dp2399
g9
g1965
sS'part7_correct_attempt'
p2400
(lp2401
S'0:00:00'
p2402
aV0.15/0.15
p2403
asS'part7_incorrect_attempt'
p2404
(lp2405
(S'0:00:00'
p2406
V0.15/0.15
p2407
tp2408
assg448
(dp2409
g9
g835
sS'part7_correct_attempt'
p2410
(lp2411
S'0:00:00'
p2412
aV(0.55-(0.3+0.3-0.45)-(0.3+0.3-0.5)-(0.3+0.3-0.5)+(3*0.3))/(0.3+0.3-0.5)
p2413
asS'part7_incorrect_attempt'
p2414
(lp2415
(S'0:00:00'
p2416
V(0.55-(0.3+0.3-0.45)-(0.3+0.3-0.5)-(0.3+0.3-0.5)+(3*0.3))/(0.3+0.3-0.5)
p2417
tp2418
assg1573
(dp2419
g9
g846
sS'part7_correct_attempt'
p2420
(lp2421
S'0:00:00'
p2422
aV(0.3 + 0.3 + 0.3 - 0.45 - 0.4 - 0.4 + 0.6)/(0.3 + 0.3 - 0.4)
p2423
asS'part7_incorrect_attempt'
p2424
(lp2425
(S'-1 day, 22:34:47'
p2426
V0.25
p2427
tp2428
a(S'-1 day, 22:57:37'
p2429
V(0.2*0.3*0.25)/(0.2*0.3)
p2430
tp2431
a(S'-1 day, 23:06:52'
p2432
V(0.3 + 0.35 - 0.5)/(0.3 + 0.35 - 0.5)
p2433
tp2434
a(S'-1 day, 23:49:35'
p2435
V(0.3 + 0.3 + 0.25 - 0.45 - 0.4 - 0.4 + 0.6)/(0.3 + 0.3 - 0.4)
p2436
tp2437
assg499
(dp2438
g9
g871
sS'part7_correct_attempt'
p2439
(lp2440
S'0:00:00'
p2441
aV(.5 -.3 - .25 - .2 + (.3 + .2 - .4) + (.25 + .2 - .35) + (.3 + .25 - .4)) / (.25 + .2 - .35)
p2442
asS'part7_incorrect_attempt'
p2443
(lp2444
(S'-1 day, 16:04:55'
p2445
V(-(.35 + .3 + .35 - (.35 * .3) - (.35 * .35) - (.35 * 3) -.65)) / (.35 * .35)
p2446
tp2447
a(S'-1 day, 23:57:21'
p2448
V(45 - .25 - .25 - .25 + (.25 + .25 - .35) + (.25 + .25 - .35) + (.25 + .25 - .35)) / (.25 + .25 - .35)
p2449
tp2450
assg1626
(dp2451
g9
g1637
sS'part7_correct_attempt'
p2452
(lp2453
S'0:00:00'
p2454
aV(0.35/0.25)*(0.35/0.25)
p2455
asS'part7_incorrect_attempt'
p2456
(lp2457
(S'0:00:00'
p2458
V(0.35/0.25)*(0.35/0.25)
p2459
tp2460
asssS'6'
p2461
(dp2462
g2037
(dp2463
S'part6_incorrect_attempt'
p2464
(lp2465
(S'-1 day, 23:40:46'
p2466
V 1
p2467
tp2468
a(S'0:00:00'
p2469
V0.2
p2470
tp2471
asg9
g2039
sS'part6_correct_attempt'
p2472
(lp2473
S'0:00:00'
p2474
aV0.2
p2475
assg1239
(dp2476
S'part6_incorrect_attempt'
p2477
(lp2478
(S'0:00:00'
p2479
V0.15
p2480
tp2481
asg9
g1250
sS'part6_correct_attempt'
p2482
(lp2483
S'0:00:00'
p2484
aV0.15
p2485
assS'szh'
p2486
(dp2487
S'part6_incorrect_attempt'
p2488
(lp2489
(S'0:00:00'
p2490
V0.15
p2491
tp2492
asg9
V2016-10-19 03:57:23
p2493
sS'part6_correct_attempt'
p2494
(lp2495
S'0:00:00'
p2496
aV0.15
p2497
assS'njcrow'
p2498
(dp2499
S'part6_incorrect_attempt'
p2500
(lp2501
(S'-1 day, 8:08:04'
p2502
V.3+.3+.35 - .5-.5-.5+.7
p2503
tp2504
asg9
V2016-10-18 15:30:39
p2505
sS'part6_correct_attempt'
p2506
(lp2507
S'0:00:00'
p2508
aV(.35+.3+.25-.5-.45-.4+.65)
p2509
assS'Joonhan'
p2510
(dp2511
S'part6_incorrect_attempt'
p2512
(lp2513
(S'0:00:00'
p2514
V0.15
p2515
tp2516
asg9
V2016-10-17 20:16:58
p2517
sS'part6_correct_attempt'
p2518
(lp2519
S'0:00:00'
p2520
aV0.15
p2521
assg36
(dp2522
S'part6_incorrect_attempt'
p2523
(lp2524
(S'-1 day, 23:53:42'
p2525
V0.35*0.35*0.25
p2526
tp2527
asg9
g593
ssS'VanessaC'
p2528
(dp2529
S'part6_incorrect_attempt'
p2530
(lp2531
(S'0:00:00'
p2532
V0.1
p2533
tp2534
asg9
V2016-10-17 07:16:55
p2535
sS'part6_correct_attempt'
p2536
(lp2537
S'0:00:00'
p2538
aV0.1
p2539
assg16
(dp2540
S'part6_incorrect_attempt'
p2541
(lp2542
(S'-1 day, 23:54:48'
p2543
V0.2
p2544
tp2545
a(S'0:00:00'
p2546
V0.1
p2547
tp2548
asg9
g579
sS'part6_correct_attempt'
p2549
(lp2550
S'0:00:00'
p2551
aV0.1
p2552
assg499
(dp2553
S'part6_incorrect_attempt'
p2554
(lp2555
(S'-1 day, 16:04:55'
p2556
V-(.35 + .3 + .35 - (.35 * .3) - (.35 * .35) - (.35 * 3) -.65)
p2557
tp2558
a(S'-1 day, 23:57:21'
p2559
V45 - .25 - .25 - .25 + (.25 + .25 - .35) + (.25 + .25 - .35) + (.25 + .25 - .35)
p2560
tp2561
asg9
g871
sS'part6_correct_attempt'
p2562
(lp2563
S'0:00:00'
p2564
aV.5 -.3 - .25 - .2 + (.3 + .2 - .4) + (.25 + .2 - .35) + (.3 + .25 - .4)
p2565
assS'dillonliu'
p2566
(dp2567
S'part6_incorrect_attempt'
p2568
(lp2569
(S'0:00:00'
p2570
V0.65 - 0.35 - 0.3 - 0.3 + 0.15 + 0.15 + 0.15 
p2571
tp2572
asg9
g604
sS'part6_correct_attempt'
p2573
(lp2574
S'0:00:00'
p2575
aV0.65 - 0.35 - 0.3 - 0.3 + 0.15 + 0.15 + 0.15 
p2576
assg1274
(dp2577
S'part6_incorrect_attempt'
p2578
(lp2579
(S'0:00:00'
p2580
V0.15
p2581
tp2582
asg9
g1285
sS'part6_correct_attempt'
p2583
(lp2584
S'0:00:00'
p2585
aV0.15
p2586
assS'YuqinWu'
p2587
(dp2588
S'part6_incorrect_attempt'
p2589
(lp2590
(S'0:00:00'
p2591
V0.1
p2592
tp2593
asg9
V2016-10-16 20:58:10
p2594
sS'part6_correct_attempt'
p2595
(lp2596
S'0:00:00'
p2597
aV0.1
p2598
assS'lmfink'
p2599
(dp2600
S'part6_incorrect_attempt'
p2601
(lp2602
(S'0:00:00'
p2603
V.4+.35+.35-.55-.55-.5 + .7
p2604
tp2605
asg9
V2016-10-17 01:31:20
p2606
sS'part6_correct_attempt'
p2607
(lp2608
S'0:00:00'
p2609
aV.4+.35+.35-.55-.55-.5 + .7
p2610
assS'til005'
p2611
(dp2612
S'part6_incorrect_attempt'
p2613
(lp2614
(S'-1 day, 23:57:26'
p2615
V0.1
p2616
tp2617
a(S'0:00:00'
p2618
V0.15
p2619
tp2620
asg9
V2016-10-18 03:10:02
p2621
sS'part6_correct_attempt'
p2622
(lp2623
S'0:00:00'
p2624
aV0.15
p2625
assg92
(dp2626
S'part6_incorrect_attempt'
p2627
(lp2628
(S'-1 day, 23:24:49'
p2629
V0.15-0.05-0.05-0.0+(0.05+0.05-0.05) + (0.05+0.0-0.05) + (0.05+0.0-0.05) 
p2630
tp2631
a(S'-1 day, 23:29:12'
p2632
V0.4-0.2-0.2-0.25+(0.2+0.2-0.25) + (0.2+0.25-0.35) + (0.2+0.25-0.35)
p2633
tp2634
a(S'-1 day, 23:49:15'
p2635
V0.45-0.25-0.25-0.2+(0.25+0.25-0.45) + (0.25+0.2-0.35) + (0.25+0.2-0.35)
p2636
tp2637
a(S'-1 day, 23:53:27'
p2638
V0.45-0.25-0.2-0.35+ (0.25+0.2-0.3) + (0.2+0.35-0.35) + (0.25+0.35-0.4)
p2639
tp2640
asg9
g645
ssg1722
(dp2641
S'part6_incorrect_attempt'
p2642
(lp2643
(S'0:00:00'
p2644
V0.15
p2645
tp2646
asg9
g1733
sS'part6_correct_attempt'
p2647
(lp2648
S'0:00:00'
p2649
aV0.15
p2650
assg110
(dp2651
S'part6_incorrect_attempt'
p2652
(lp2653
(S'-1 day, 6:41:54'
p2654
V.0375
p2655
tp2656
a(S'0:00:00'
p2657
V.55-.3-.3-.2+(.3+.3-.45)+(.3+.2-.4)+(.3+.2-.4)
p2658
tp2659
asg9
g659
sS'part6_correct_attempt'
p2660
(lp2661
S'0:00:00'
p2662
aV.55-.3-.3-.2+(.3+.3-.45)+(.3+.2-.4)+(.3+.2-.4)
p2663
assS'alvinyho'
p2664
(dp2665
S'part6_incorrect_attempt'
p2666
(lp2667
(S'-1 day, 22:13:48'
p2668
V.45-(.25*.2-.35)-(.2*.2-.3)-(.25*.2-.35)
p2669
tp2670
a(S'-1 day, 22:24:04'
p2671
V.55 - (.25 + .25 - (.35)) - (.25 + .3 - .4) - (.25 + .3 - .4)
p2672
tp2673
a(S'-1 day, 22:38:43'
p2674
V.6-(.3 + .3 - (.45))-(.3 + .35 - (.5))-(.3 + .35 - (.5))
p2675
tp2676
asg9
g996
sS'part6_correct_attempt'
p2677
(lp2678
S'0:00:00'
p2679
aV.6 - .25 - .3 -.35 + (.25+.3-(.45)) + (.3+.35-(.5)) + (.25+.35-(.45))
p2680
assg155
(dp2681
S'part6_incorrect_attempt'
p2682
(lp2683
(S'-1 day, 23:50:29'
p2684
V.7-1+.58
p2685
tp2686
a(S'0:00:00'
p2687
V.65-1.05+.6
p2688
tp2689
asg9
g1331
sS'part6_correct_attempt'
p2690
(lp2691
S'0:00:00'
p2692
aV.65-1.05+.6
p2693
assS'ShannonWang'
p2694
(dp2695
S'part6_incorrect_attempt'
p2696
(lp2697
(S'0:00:00'
p2698
V0.1
p2699
tp2700
asg9
V2016-10-16 16:52:42
p2701
sS'part6_correct_attempt'
p2702
(lp2703
S'0:00:00'
p2704
aV0.1
p2705
assS'mbland'
p2706
(dp2707
S'part6_incorrect_attempt'
p2708
(lp2709
(S'0:00:00'
p2710
V0.1
p2711
tp2712
asg9
V2016-10-17 20:27:40
p2713
sS'part6_correct_attempt'
p2714
(lp2715
S'0:00:00'
p2716
aV0.1
p2717
assS'aives'
p2718
(dp2719
S'part6_incorrect_attempt'
p2720
(lp2721
(S'0:00:00'
p2722
V0.15
p2723
tp2724
asg9
V2016-10-17 01:42:12
p2725
sS'part6_correct_attempt'
p2726
(lp2727
S'0:00:00'
p2728
aV0.15
p2729
assS'malloryishaya'
p2730
(dp2731
S'part6_incorrect_attempt'
p2732
(lp2733
(S'0:00:00'
p2734
V0.7 -0.35-0.4-0.3+0.15+.4
p2735
tp2736
asg9
V2016-10-17 22:44:08
p2737
sS'part6_correct_attempt'
p2738
(lp2739
S'0:00:00'
p2740
aV0.7 -0.35-0.4-0.3+0.15+.4
p2741
assg1342
(dp2742
S'part6_incorrect_attempt'
p2743
(lp2744
(S'0:00:00'
p2745
V0.2
p2746
tp2747
asg9
g1353
sS'part6_correct_attempt'
p2748
(lp2749
S'0:00:00'
p2750
aV0.2
p2751
assg2161
(dp2752
S'part6_incorrect_attempt'
p2753
(lp2754
(S'-1 day, 23:50:15'
p2755
V0.1
p2756
tp2757
asg9
g2163
sS'part6_correct_attempt'
p2758
(lp2759
S'0:00:00'
p2760
aV0.15
p2761
assS'nicoleyfq'
p2762
(dp2763
S'part6_incorrect_attempt'
p2764
(lp2765
(S'-1 day, 23:40:23'
p2766
V0.3+0.25+0.2-0.5
p2767
tp2768
a(S'-1 day, 23:54:11'
p2769
V0.1
p2770
tp2771
asg9
g1365
sS'part6_correct_attempt'
p2772
(lp2773
S'0:00:00'
p2774
aV0.15
p2775
assg1777
(dp2776
S'part6_incorrect_attempt'
p2777
(lp2778
(S'-1 day, 21:38:38'
p2779
V0.05
p2780
tp2781
a(S'-1 day, 21:45:22'
p2782
V0.05
p2783
tp2784
a(S'-1 day, 23:18:43'
p2785
V0.1
p2786
tp2787
a(S'-1 day, 23:48:36'
p2788
V0.15
p2789
tp2790
a(S'-1 day, 23:51:39'
p2791
V0.15
p2792
tp2793
a(S'-1 day, 23:53:22'
p2794
V0.2
p2795
tp2796
a(S'-1 day, 23:56:01'
p2797
V0.15
p2798
tp2799
a(S'-1 day, 23:57:46'
p2800
V0.15
p2801
tp2802
a(S'0:00:00'
p2803
V0.1
p2804
tp2805
asg9
g706
sS'part6_correct_attempt'
p2806
(lp2807
S'0:00:00'
p2808
aV0.1
p2809
assg2187
(dp2810
S'part6_incorrect_attempt'
p2811
(lp2812
(S'0:00:00'
p2813
V0.65-0.35-0.3-0.35+0.35+0.3-0.5+0.3+0.35-0.45+0.35+0.35-0.5
p2814
tp2815
asg9
g1481
sS'part6_correct_attempt'
p2816
(lp2817
S'0:00:00'
p2818
aV0.65-0.35-0.3-0.35+0.35+0.3-0.5+0.3+0.35-0.45+0.35+0.35-0.5
p2819
assS'zow006'
p2820
(dp2821
S'part6_incorrect_attempt'
p2822
(lp2823
(S'0:00:00'
p2824
V0.7-0.35-0.35-0.4+0.2+0.2+0.2
p2825
tp2826
asg9
V2016-10-17 17:34:16
p2827
sS'part6_correct_attempt'
p2828
(lp2829
S'0:00:00'
p2830
aV0.7-0.35-0.35-0.4+0.2+0.2+0.2
p2831
assg1415
(dp2832
S'part6_incorrect_attempt'
p2833
(lp2834
(S'-1 day, 23:49:27'
p2835
V.15
p2836
tp2837
a(S'0:00:00'
p2838
V.15
p2839
tp2840
asg9
g1429
sS'part6_correct_attempt'
p2841
(lp2842
S'0:00:00'
p2843
aV.15
p2844
assS'srrozen'
p2845
(dp2846
S'part6_incorrect_attempt'
p2847
(lp2848
(S'0:00:00'
p2849
V0.5-0.3-0.25-0.25+0.3+0.25-0.4+0.25+0.25-0.35+0.3+0.25-0.4
p2850
tp2851
asg9
g717
sS'part6_correct_attempt'
p2852
(lp2853
S'0:00:00'
p2854
aV0.5-0.3-0.25-0.25+0.3+0.25-0.4+0.25+0.25-0.35+0.3+0.25-0.4
p2855
assg2209
(dp2856
S'part6_incorrect_attempt'
p2857
(lp2858
(S'-1 day, 23:50:38'
p2859
V0.15
p2860
tp2861
a(S'0:00:00'
p2862
V0.15
p2863
tp2864
asg9
g2211
sS'part6_correct_attempt'
p2865
(lp2866
S'0:00:00'
p2867
aV0.15
p2868
assS'Jisu'
p2869
(dp2870
S'part6_incorrect_attempt'
p2871
(lp2872
(S'-1 day, 23:55:11'
p2873
V0.55-0.25-0.25-0.35+((0.25+0.25)-0.4)+((0.25+0.35)-0.45)+((0.25+0.35)-0.45)
p2874
tp2875
asg9
V2016-10-16 05:24:13
p2876
sS'part6_correct_attempt'
p2877
(lp2878
S'0:00:00'
p2879
aV0.75-0.35-0.4-0.4+((0.35+0.4)-0.55)+((0.4+0.4)-0.6)+((0.35+0.4)-0.55)
p2880
assg2221
(dp2881
S'part6_incorrect_attempt'
p2882
(lp2883
(S'0:00:00'
p2884
V0.6 - 0.3 - 0.25 - 0.3 + 0.1 + 0.15 + 0.15
p2885
tp2886
asg9
g2223
sS'part6_correct_attempt'
p2887
(lp2888
S'0:00:00'
p2889
aV0.6 - 0.3 - 0.25 - 0.3 + 0.1 + 0.15 + 0.15
p2890
assS'mhatch'
p2891
(dp2892
S'part6_incorrect_attempt'
p2893
(lp2894
(S'0:00:00'
p2895
V-1 * (.4+.4+.35 - 3*.2 - .75)
p2896
tp2897
asg9
V2016-10-19 04:02:06
p2898
sS'part6_correct_attempt'
p2899
(lp2900
S'0:00:00'
p2901
aV-1 * (.4+.4+.35 - 3*.2 - .75)
p2902
assg167
(dp2903
S'part6_incorrect_attempt'
p2904
(lp2905
(S'0:00:00'
p2906
V0.25*0.25*0.25
p2907
tp2908
asg9
g670
sS'part6_correct_attempt'
p2909
(lp2910
S'0:00:00'
p2911
aV0.25*0.25*0.25
p2912
assg2233
(dp2913
S'part6_incorrect_attempt'
p2914
(lp2915
(S'0:00:00'
p2916
V0.65-0.35-0.35-0.3+0.35+0.35-0.5+0.35+0.3-0.5+0.35+0.3-0.5
p2917
tp2918
asg9
g2235
sS'part6_correct_attempt'
p2919
(lp2920
S'0:00:00'
p2921
aV0.65-0.35-0.35-0.3+0.35+0.35-0.5+0.35+0.3-0.5+0.35+0.3-0.5
p2922
assS'vicorhe'
p2923
(dp2924
S'part6_incorrect_attempt'
p2925
(lp2926
(S'0:00:00'
p2927
V0.25+0.3+0.3-0.45-0.45-0.4+0.55
p2928
tp2929
asg9
V2016-10-19 17:53:00
p2930
sS'part6_correct_attempt'
p2931
(lp2932
S'0:00:00'
p2933
aV0.25+0.3+0.3-0.45-0.45-0.4+0.55
p2934
assS'twsalim'
p2935
(dp2936
S'part6_incorrect_attempt'
p2937
(lp2938
(S'-1 day, 23:56:32'
p2939
V0.8
p2940
tp2941
asg9
V2016-10-17 19:23:54
p2942
sS'part6_correct_attempt'
p2943
(lp2944
S'0:00:00'
p2945
aV0.15
p2946
assg2245
(dp2947
S'part6_incorrect_attempt'
p2948
(lp2949
(S'-1 day, 23:51:46'
p2950
V0.15
p2951
tp2952
a(S'0:00:00'
p2953
V0.2
p2954
tp2955
asg9
g2247
sS'part6_correct_attempt'
p2956
(lp2957
S'0:00:00'
p2958
aV0.2
p2959
assS'zkvick'
p2960
(dp2961
S'part6_incorrect_attempt'
p2962
(lp2963
(S'0:00:00'
p2964
V.1
p2965
tp2966
asg9
V2016-10-17 21:25:03
p2967
sS'part6_correct_attempt'
p2968
(lp2969
S'0:00:00'
p2970
aV.1
p2971
assS'tommyt1109'
p2972
(dp2973
S'part6_incorrect_attempt'
p2974
(lp2975
(S'0:00:00'
p2976
V.15
p2977
tp2978
asg9
V2016-10-16 22:27:40
p2979
sS'part6_correct_attempt'
p2980
(lp2981
S'0:00:00'
p2982
aV.15
p2983
assg2257
(dp2984
S'part6_incorrect_attempt'
p2985
(lp2986
(S'-1 day, 23:56:00'
p2987
V0.65-0.35-0.3-0.4+(0.35+0.3-0.5)+(0.4+0.3-0.5)+(0.3+0.4-0.55)
p2988
tp2989
asg9
g2259
sS'part6_correct_attempt'
p2990
(lp2991
S'0:00:00'
p2992
aV0.6-0.25-0.3-0.3+(0.3+0.3-0.45)+(0.3+0.25-0.4)+(0.3+0.25-0.4)
p2993
assg265
(dp2994
S'part6_incorrect_attempt'
p2995
(lp2996
(S'0:00:00'
p2997
V.05
p2998
tp2999
asg9
V2016-10-16 04:04:13
p3000
ssg2276
(dp3001
S'part6_incorrect_attempt'
p3002
(lp3003
(S'-1 day, 23:03:54'
p3004
V0.3*0.5*(0.15/0.3)
p3005
tp3006
a(S'-1 day, 23:09:43'
p3007
V0.25*0.25*0.2
p3008
tp3009
a(S'-1 day, 23:56:04'
p3010
V0.15+0.1+0.1+0.5-0.25-0.25-0.25
p3011
tp3012
asg9
g1082
sS'part6_correct_attempt'
p3013
(lp3014
S'0:00:00'
p3015
aV0.2+0.15+0.15+0.65-0.35-0.35-0.35
p3016
assg1403
(dp3017
S'part6_incorrect_attempt'
p3018
(lp3019
(S'-1 day, 23:51:24'
p3020
V.3+.4+.3-.65
p3021
tp3022
asg9
g1414
sS'part6_correct_attempt'
p3023
(lp3024
S'0:00:00'
p3025
aV.55 - .25 - .3 -.25 + .25 + .3 - .45 + .25 + .25 - .4 + .3 + .25 - .45
p3026
assg740
(dp3027
S'part6_incorrect_attempt'
p3028
(lp3029
(S'-1 day, 23:55:36'
p3030
V.1
p3031
tp3032
asg9
g751
sS'part6_correct_attempt'
p3033
(lp3034
S'0:00:00'
p3035
aV.05
p3036
assg294
(dp3037
S'part6_incorrect_attempt'
p3038
(lp3039
(S'-1 day, 23:26:42'
p3040
V(.35*.4)*.4
p3041
tp3042
a(S'0:00:00'
p3043
V.45-.2-.2-.25+.1+.1+.1
p3044
tp3045
asg9
g762
sS'part6_correct_attempt'
p3046
(lp3047
S'0:00:00'
p3048
aV.45-.2-.2-.25+.1+.1+.1
p3049
assg2317
(dp3050
S'part6_incorrect_attempt'
p3051
(lp3052
(S'-1 day, 23:51:24'
p3053
V0.6 - 0.3 - 0.3 - 0.2 + 0.45 + 0.4 + 0.4 
p3054
tp3055
asg9
g2319
sS'part6_correct_attempt'
p3056
(lp3057
S'0:00:00'
p3058
aV0.6 - 0.3 - 0.3 - 0.2 + 0.3 + 0.3 - 0.45 + 0.3 + 0.2 - 0.4 + 0.2 + 0.3 - 0.4
p3059
assg2329
(dp3060
S'part6_incorrect_attempt'
p3061
(lp3062
(S'-1 day, 23:56:21'
p3063
V0.7+0.35+0.3-0.5+0.3+0.35-0.5+0.35+0.35-0.55-0.3-0.35-0.35
p3064
tp3065
a(S'0:00:00'
p3066
V0.6+0.3+0.3-0.4+0.3+0.3-0.45+0.3+0.3-0.45-0.3-0.3-0.3
p3067
tp3068
asg9
g2331
sS'part6_correct_attempt'
p3069
(lp3070
S'0:00:00'
p3071
aV0.6+0.3+0.3-0.4+0.3+0.3-0.45+0.3+0.3-0.45-0.3-0.3-0.3
p3072
assS'KevinChrisayrton'
p3073
(dp3074
S'part6_incorrect_attempt'
p3075
(lp3076
(S'0:00:00'
p3077
V0.25+0.25+0.3-(0.25+0.25-0.4)-(0.25+0.3-0.4)-(0.25+0.3-0.4)+((0.25+0.25-0.4)/0.25)
p3078
tp3079
asg9
V2016-10-16 06:43:39
p3080
sS'part6_correct_attempt'
p3081
(lp3082
S'0:00:00'
p3083
aV0.25+0.25+0.3-(0.25+0.25-0.4)-(0.25+0.3-0.4)-(0.25+0.3-0.4)+((0.25+0.25-0.4)/0.25)
p3084
assg306
(dp3085
S'part6_incorrect_attempt'
p3086
(lp3087
(S'-1 day, 23:55:11'
p3088
V0.5-0.3-0.25-0.2+0.4+0.4+0.35
p3089
tp3090
asg9
g769
ssg2134
(dp3091
S'part6_incorrect_attempt'
p3092
(lp3093
(S'-1 day, 23:56:15'
p3094
V-0.2-0.25-0.3-0.5+(0.2+0.25-0.35)+(0.25+0.3-0.45)+(0.2+0.3-0.4)
p3095
tp3096
asg9
g2136
sS'part6_correct_attempt'
p3097
(lp3098
S'0:00:00'
p3099
aV0.65-0.3-0.3-0.3+(0.3+0.3-0.45)+(0.3+0.3-0.45)+(0.3+0.3-0.45)
p3100
assg339
(dp3101
S'part6_incorrect_attempt'
p3102
(lp3103
(S'-1 day, 23:54:43'
p3104
V.35*.3*.3
p3105
tp3106
asg9
g776
ssS'maddymanu'
p3107
(dp3108
S'part6_incorrect_attempt'
p3109
(lp3110
(S'-1 day, 23:56:13'
p3111
V0.4+0.4+0.4-0.25-0.25-0.25+0.55
p3112
tp3113
asg9
g1115
sS'part6_correct_attempt'
p3114
(lp3115
S'0:00:00'
p3116
aV0.5-0.2-0.25-0.3+(0.2+0.25-0.35)+(0.25+0.3-0.45)+(0.2+0.3-0.4)
p3117
assS'ray003'
p3118
(dp3119
S'part6_incorrect_attempt'
p3120
(lp3121
(S'0:00:00'
p3122
V0.15
p3123
tp3124
asg9
g1526
sS'part6_correct_attempt'
p3125
(lp3126
S'0:00:00'
p3127
aV0.15
p3128
assg28
(dp3129
S'part6_incorrect_attempt'
p3130
(lp3131
(S'0:00:00'
p3132
V0.05
p3133
tp3134
asg9
V2016-10-18 20:37:50
p3135
ssS'URajkumar'
p3136
(dp3137
S'part6_incorrect_attempt'
p3138
(lp3139
(S'-1 day, 23:57:26'
p3140
V0.35
p3141
tp3142
asg9
V2016-10-18 20:37:15
p3143
sS'part6_correct_attempt'
p3144
(lp3145
S'0:00:00'
p3146
aV0.1
p3147
assg386
(dp3148
S'part6_incorrect_attempt'
p3149
(lp3150
(S'-3 days, 23:34:10'
p3151
V0.3 * 0.3 * 0.25
p3152
tp3153
a(S'-1 day, 23:50:21'
p3154
V.3
p3155
tp3156
a(S'0:00:00'
p3157
V.1
p3158
tp3159
asg9
g794
sS'part6_correct_attempt'
p3160
(lp3161
S'0:00:00'
p3162
aV.1
p3163
assS'christhoperbernard'
p3164
(dp3165
S'part6_incorrect_attempt'
p3166
(lp3167
(S'0:00:00'
p3168
V0.55-0.3-0.2-0.3+(0.3+0.2-0.4)+(0.2+0.3-0.35)+(0.3+0.3-0.45)
p3169
tp3170
asg9
g806
sS'part6_correct_attempt'
p3171
(lp3172
S'0:00:00'
p3173
aV0.55-0.3-0.2-0.3+(0.3+0.2-0.4)+(0.2+0.3-0.35)+(0.3+0.3-0.45)
p3174
assS'amt040'
p3175
(dp3176
S'part6_incorrect_attempt'
p3177
(lp3178
(S'0:00:00'
p3179
V.2
p3180
tp3181
asg9
V2016-10-16 23:20:16
p3182
sS'part6_correct_attempt'
p3183
(lp3184
S'0:00:00'
p3185
aV.2
p3186
assS'Ken_Truong'
p3187
(dp3188
S'part6_incorrect_attempt'
p3189
(lp3190
(S'0:00:00'
p3191
V0.1
p3192
tp3193
asg9
V2016-10-16 08:34:16
p3194
sS'part6_correct_attempt'
p3195
(lp3196
S'0:00:00'
p3197
aV0.1
p3198
assg412
(dp3199
S'part6_incorrect_attempt'
p3200
(lp3201
(S'-1 day, 22:02:06'
p3202
V(0.25)(0.35)(0.25)
p3203
tp3204
asg9
g824
sS'part6_correct_attempt'
p3205
(lp3206
S'0:00:00'
p3207
aV0.15
p3208
assS'kyle'
p3209
(dp3210
S'part6_incorrect_attempt'
p3211
(lp3212
(S'0:00:00'
p3213
V0.6-0.3-0.3-0.2+0.15+0.1+0.1
p3214
tp3215
asg9
V2016-10-18 21:19:14
p3216
sS'part6_correct_attempt'
p3217
(lp3218
S'0:00:00'
p3219
aV0.6-0.3-0.3-0.2+0.15+0.1+0.1
p3220
assS'NickWong'
p3221
(dp3222
S'part6_incorrect_attempt'
p3223
(lp3224
(S'0:00:00'
p3225
V.55-.3-.3-.3+.15+.2+.2
p3226
tp3227
asg9
V2016-10-17 07:29:20
p3228
sS'part6_correct_attempt'
p3229
(lp3230
S'0:00:00'
p3231
aV.55-.3-.3-.3+.15+.2+.2
p3232
assg366
(dp3233
S'part6_incorrect_attempt'
p3234
(lp3235
(S'0:00:00'
p3236
V.15
p3237
tp3238
asg9
V2016-10-19 05:28:33
p3239
ssg448
(dp3240
S'part6_incorrect_attempt'
p3241
(lp3242
(S'0:00:00'
p3243
V0.55-(0.3+0.3-0.45)-(0.3+0.3-0.5)-(0.3+0.3-0.5)+(3*0.3)
p3244
tp3245
asg9
g835
sS'part6_correct_attempt'
p3246
(lp3247
S'0:00:00'
p3248
aV0.55-(0.3+0.3-0.45)-(0.3+0.3-0.5)-(0.3+0.3-0.5)+(3*0.3)
p3249
assg404
(dp3250
S'part6_incorrect_attempt'
p3251
(lp3252
(S'0:00:00'
p3253
V.3*.2*.25
p3254
tp3255
asg9
g1555
ssS'ankannan'
p3256
(dp3257
S'part6_incorrect_attempt'
p3258
(lp3259
(S'0:00:00'
p3260
V.2
p3261
tp3262
asg9
V2016-10-17 06:25:49
p3263
sS'part6_correct_attempt'
p3264
(lp3265
S'0:00:00'
p3266
aV.2
p3267
assS'Khang_Vinh'
p3268
(dp3269
S'part6_incorrect_attempt'
p3270
(lp3271
(S'-1 day, 20:20:48'
p3272
V0.6-0.25-0.3-0.25+(0.25+0.3-0.45)+(0.3+0.25-0.45)+(0.25+0.25-0.4)
p3273
tp3274
a(S'-1 day, 20:31:20'
p3275
V0.55-0.25-0.25-0.35+(0.25+0.25-0.4)+(0.25+0.35-0.45)+(0.25+0.35-0.45)
p3276
tp3277
asg9
V2016-10-18 02:06:22
p3278
sS'part6_correct_attempt'
p3279
(lp3280
S'0:00:00'
p3281
aV0.45-0.25-0.2-0.25+(0.25+0.2-0.35)+(0.25+0.25-0.35)+(0.2+0.25-0.3)
p3282
assS'DarrenYang'
p3283
(dp3284
S'part6_incorrect_attempt'
p3285
(lp3286
(S'0:00:00'
p3287
V0.1
p3288
tp3289
asg9
V2016-10-17 01:48:47
p3290
sS'part6_correct_attempt'
p3291
(lp3292
S'0:00:00'
p3293
aV0.1
p3294
assS'minhsuanyao'
p3295
(dp3296
S'part6_incorrect_attempt'
p3297
(lp3298
(S'-1 day, 23:27:41'
p3299
V0.8
p3300
tp3301
asg9
g1965
sS'part6_correct_attempt'
p3302
(lp3303
S'0:00:00'
p3304
aV0.15
p3305
assS'PaulWall43'
p3306
(dp3307
S'part6_incorrect_attempt'
p3308
(lp3309
(S'-1 day, 23:38:52'
p3310
V.25
p3311
tp3312
a(S'-1 day, 23:49:45'
p3313
V.3
p3314
tp3315
asg9
g893
sS'part6_correct_attempt'
p3316
(lp3317
S'0:00:00'
p3318
aV.15
p3319
assg1626
(dp3320
S'part6_incorrect_attempt'
p3321
(lp3322
(S'0:00:00'
p3323
V0.5-(0.2+0.25+0.25)+(0.35+0.35+0.25)
p3324
tp3325
asg9
g1637
sS'part6_correct_attempt'
p3326
(lp3327
S'0:00:00'
p3328
aV0.5-(0.2+0.25+0.25)+(0.35+0.35+0.25)
p3329
asss.