(dp0
V1
p1
ccollections
defaultdict
p2
(c__builtin__
list
p3
tp4
Rp5
S"['R.1']"
p6
(lp7
(VP(26,2)
p8
V4*3*2
p9
(lp10
(S'R.1'
p11
F2.0
V2
p12
g12
tp13
aVc1wei
p14
(lp15
(V$n
p16
V0
p17
tp18
a(V$showHint
p19
V3
p20
tp21
a(V$d
p22
V0
p23
tp24
a(V$b
p25
V3
p26
tp27
a(V$c
p28
V0
p29
tp30
a(V$a
p31
V2
p32
tp33
a(V$b2
p34
V3
p35
tp36
a(V$cr
p37
V0
p38
tp39
aV2015-10-09 19:58:25
p40
tp41
a(g8
V26*25*2
p42
(lp43
(S'R.1'
p44
F2.0
g12
g12
tp45
aVc1wei
p46
g15
V2015-10-09 19:59:21
p47
tp48
a(VP(26,2)
p49
V26*25*2
p50
(lp51
(S'R.1'
p52
F2.0
g12
g12
tp53
aVmasaro
p54
(lp55
(V$n
p56
V0
p57
tp58
a(V$showHint
p59
V3
p60
tp61
a(V$d
p62
V0
p63
tp64
a(V$b
p65
V6
p66
tp67
a(V$c
p68
V0
p69
tp70
a(V$a
p71
V2
p72
tp73
a(V$b2
p74
V6
p75
tp76
a(V$cr
p77
V0
p78
tp79
aV2015-10-10 00:13:22
p80
tp81
a(VP(26,3)
p82
V5*4*3
p83
(lp84
(S'R.1'
p85
F3.0
V3
p86
g86
tp87
aVlalacson
p88
(lp89
(V$n
p90
V0
p91
tp92
a(V$showHint
p93
V3
p94
tp95
a(V$d
p96
V0
p97
tp98
a(V$b
p99
V4
p100
tp101
a(V$c
p102
V0
p103
tp104
a(V$a
p105
V3
p106
tp107
a(V$b2
p108
V4
p109
tp110
a(V$cr
p111
V0
p112
tp113
aV2015-10-11 15:50:17
p114
tp115
a(g82
VC(5,3)
p116
(lp117
(S'R.1'
p118
F3.0
g86
g86
tp119
aVlalacson
p120
g89
V2015-10-11 15:50:29
p121
tp122
a(VP(26,3)
p123
V5*4*3
p124
(lp125
(S'R.1'
p126
F3.0
g86
g86
tp127
aVbkoli
p128
(lp129
(V$n
p130
V0
p131
tp132
a(V$showHint
p133
V3
p134
tp135
a(V$d
p136
V0
p137
tp138
a(V$b
p139
V5
p140
tp141
a(V$c
p142
V0
p143
tp144
a(V$a
p145
V3
p146
tp147
a(V$b2
p148
V5
p149
tp150
a(V$cr
p151
V0
p152
tp153
aV2015-10-14 10:40:54
p154
tp155
a(VP(26,2)
p156
V5!/2!
p157
(lp158
(S'R.1'
p159
F2.0
g12
V2!
p160
tp161
aVsthapa
p162
(lp163
(V$n
p164
V0
p165
tp166
a(V$showHint
p167
V3
p168
tp169
a(V$d
p170
V0
p171
tp172
a(V$b
p173
V3
p174
tp175
a(V$c
p176
V0
p177
tp178
a(V$a
p179
V2
p180
tp181
a(V$b2
p182
V3
p183
tp184
a(V$cr
p185
V0
p186
tp187
aV2015-10-15 04:11:41
p188
tp189
a(VP(26,2)
p190
V(26*25)/2
p191
(lp192
(S'R.1'
p193
F2.0
g12
g12
tp194
aVakhmelni
p195
(lp196
(V$n
p197
V0
p198
tp199
a(V$showHint
p200
V3
p201
tp202
a(V$d
p203
V0
p204
tp205
a(V$b
p206
V3
p207
tp208
a(V$c
p209
V0
p210
tp211
a(V$a
p212
V2
p213
tp214
a(V$b2
p215
V3
p216
tp217
a(V$cr
p218
V0
p219
tp220
aV2015-10-15 22:09:40
p221
tp222
asS'Digits'
p223
(lp224
(VP(26,3)
p225
V24
p226
tp227
a(VP(26,3)
p228
V15,600
p229
tp230
a(VP(26,3)
p231
V3
p232
tp233
a(VP(26,2)
p234
V2
p235
tp236
a(VP(26,3)
p237
V24
p238
tp239
a(g237
V1560
p240
tp241
a(g237
V2600
p242
tp243
a(VP(26,3)
p244
V3
p245
tp246
a(g244
V26
p247
tp248
a(VP(26,2)
p249
V2
p250
tp251
a(g249
V2
p252
tp253
a(VP(26,3)
p254
V6
p255
tp256
a(VP(26,3)
p257
V6
p258
tp259
a(g156
V10
p260
tp261
a(g156
V2
p262
tp263
a(VP(26,2)
p264
V2
p265
tp266
a(g264
V1
p267
tp268
a(VP(26,2)
p269
V325
p270
tp271
a(VP(26,3)
p272
V9
p273
tp274
a(g272
V26
p275
tp276
asS"['R.0']"
p277
(lp278
(VP(26,3)
p279
V26!
p280
(lp281
(S'R.0'
p282
F26.0
V26
p283
V26
p284
tp285
aVjcl084
p286
(lp287
(V$n
p288
V0
p289
tp290
a(V$showHint
p291
V3
p292
tp293
a(V$d
p294
V0
p295
tp296
a(V$b
p297
V5
p298
tp299
a(V$c
p300
V0
p301
tp302
a(V$a
p303
V3
p304
tp305
a(V$b2
p306
V5
p307
tp308
a(V$cr
p309
V0
p310
tp311
aV2015-10-13 18:02:32
p312
tp313
a(VP(26,3)
p314
V26!
p315
(lp316
(S'R.0'
p317
F26.0
V26
p318
V26
p319
tp320
aVjcj006
p321
(lp322
(V$n
p323
V0
p324
tp325
a(V$showHint
p326
V3
p327
tp328
a(V$d
p329
V0
p330
tp331
a(V$b
p332
V5
p333
tp334
a(V$c
p335
V0
p336
tp337
a(V$a
p338
V3
p339
tp340
a(V$b2
p341
V5
p342
tp343
a(V$cr
p344
V0
p345
tp346
aV2015-10-13 20:17:47
p347
tp348
a(g244
V26!
p349
(lp350
(S'R.0'
p351
F26.0
V26
p352
V26
p353
tp354
aVfichoi
p355
(lp356
(V$n
p357
V0
p358
tp359
a(V$showHint
p360
V3
p361
tp362
a(V$d
p363
V0
p364
tp365
a(V$b
p366
V6
p367
tp368
a(V$c
p369
V0
p370
tp371
a(V$a
p372
V3
p373
tp374
a(V$b2
p375
V6
p376
tp377
a(V$cr
p378
V0
p379
tp380
aV2015-10-14 01:18:55
p381
tp382
a(VP(26,2)
p383
V26 * 24
p384
(lp385
(S'R.0'
p386
F26.0
V26
p387
V26
p388
tp389
aVjfalcone
p390
(lp391
(V$n
p392
V0
p393
tp394
a(V$showHint
p395
V3
p396
tp397
a(V$d
p398
V0
p399
tp400
a(V$b
p401
V3
p402
tp403
a(V$c
p404
V0
p405
tp406
a(V$a
p407
V2
p408
tp409
a(V$b2
p410
V3
p411
tp412
a(V$cr
p413
V0
p414
tp415
aV2015-10-14 21:36:07
p416
tp417
a(VP(26,3)
p418
V26!
p419
(lp420
(S'R.0'
p421
F26.0
V26
p422
V26
p423
tp424
aVagian
p425
(lp426
(V$n
p427
V0
p428
tp429
a(V$showHint
p430
V3
p431
tp432
a(V$d
p433
V0
p434
tp435
a(V$b
p436
V3
p437
tp438
a(V$c
p439
V0
p440
tp441
a(V$a
p442
V3
p443
tp444
a(V$b2
p445
V3
p446
tp447
a(V$cr
p448
V0
p449
tp450
aV2015-10-15 07:42:02
p451
tp452
a(VP(26,2)
p453
V26*252
p454
(lp455
(S'R.0'
p456
F26.0
V26
p457
V26
p458
tp459
aVaalhaida
p460
(lp461
(V$n
p462
V0
p463
tp464
a(V$showHint
p465
V3
p466
tp467
a(V$d
p468
V0
p469
tp470
a(V$b
p471
V3
p472
tp473
a(V$c
p474
V0
p475
tp476
a(V$a
p477
V2
p478
tp479
a(V$b2
p480
V3
p481
tp482
a(V$cr
p483
V0
p484
tp485
aV2015-10-15 14:09:56
p486
tp487
a(VP(26,2)
p488
V26!
p489
(lp490
(S'R.0'
p491
F26.0
V26
p492
V26
p493
tp494
aVm4salaza
p495
(lp496
(V$n
p497
V0
p498
tp499
a(V$showHint
p500
V3
p501
tp502
a(V$d
p503
V0
p504
tp505
a(V$b
p506
V5
p507
tp508
a(V$c
p509
V0
p510
tp511
a(V$a
p512
V2
p513
tp514
a(V$b2
p515
V5
p516
tp517
a(V$cr
p518
V0
p519
tp520
aV2015-10-15 23:09:49
p521
tp522
asS"['R.0', 'R.1']"
p523
(lp524
(VP(26,3)
p525
VC(26,3)
p526
(lp527
(S'R.0'
p528
F26.0
V26
p529
V26
p530
tp531
a(S'R.1'
p532
F3.0
g86
g86
tp533
aVtdurrer
p534
(lp535
(V$n
p536
V0
p537
tp538
a(V$showHint
p539
V3
p540
tp541
a(V$d
p542
V0
p543
tp544
a(V$b
p545
V4
p546
tp547
a(V$c
p548
V0
p549
tp550
a(V$a
p551
V3
p552
tp553
a(V$b2
p554
V4
p555
tp556
a(V$cr
p557
V0
p558
tp559
aV2015-10-09 03:54:15
p560
tp561
a(VP(26,3)
p562
V26^3
p563
(lp564
(S'R.0'
p565
F26.0
V26
p566
V26
p567
tp568
a(S'R.1'
p569
F3.0
g86
g86
tp570
aVlguintu
p571
(lp572
(V$n
p573
V0
p574
tp575
a(V$showHint
p576
V3
p577
tp578
a(V$d
p579
V0
p580
tp581
a(V$b
p582
V4
p583
tp584
a(V$c
p585
V0
p586
tp587
a(V$a
p588
V3
p589
tp590
a(V$b2
p591
V4
p592
tp593
a(V$cr
p594
V0
p595
tp596
aV2015-10-09 20:59:58
p597
tp598
a(VP(26,2)
p599
V26^2
p600
(lp601
(S'R.0'
p602
F26.0
V26
p603
V26
p604
tp605
a(S'R.1'
p606
F2.0
g12
g12
tp607
aVthwan
p608
(lp609
(V$n
p610
V0
p611
tp612
a(V$showHint
p613
V3
p614
tp615
a(V$d
p616
V0
p617
tp618
a(V$b
p619
V5
p620
tp621
a(V$c
p622
V0
p623
tp624
a(V$a
p625
V2
p626
tp627
a(V$b2
p628
V5
p629
tp630
a(V$cr
p631
V0
p632
tp633
aV2015-10-09 23:20:33
p634
tp635
a(VP(26,2)
p636
VC(26,2)
p637
(lp638
(S'R.0'
p639
F26.0
V26
p640
V26
p641
tp642
a(S'R.1'
p643
F2.0
g12
g12
tp644
aVkbielawi
p645
(lp646
(V$n
p647
V0
p648
tp649
a(V$showHint
p650
V3
p651
tp652
a(V$d
p653
V0
p654
tp655
a(V$b
p656
V3
p657
tp658
a(V$c
p659
V0
p660
tp661
a(V$a
p662
V2
p663
tp664
a(V$b2
p665
V3
p666
tp667
a(V$cr
p668
V0
p669
tp670
aV2015-10-11 23:10:51
p671
tp672
a(VP(26,2)
p673
V26^2
p674
(lp675
(S'R.0'
p676
F26.0
V26
p677
V26
p678
tp679
a(S'R.1'
p680
F2.0
g12
g12
tp681
aVsayao
p682
(lp683
(V$n
p684
V0
p685
tp686
a(V$showHint
p687
V3
p688
tp689
a(V$d
p690
V0
p691
tp692
a(V$b
p693
V3
p694
tp695
a(V$c
p696
V0
p697
tp698
a(V$a
p699
V2
p700
tp701
a(V$b2
p702
V3
p703
tp704
a(V$cr
p705
V0
p706
tp707
aV2015-10-12 00:17:48
p708
tp709
a(VP(26,2)
p710
V26^2
p711
(lp712
(S'R.0'
p713
F26.0
V26
p714
V26
p715
tp716
a(S'R.1'
p717
F2.0
g12
g12
tp718
aVsippolit
p719
(lp720
(V$n
p721
V0
p722
tp723
a(V$showHint
p724
V3
p725
tp726
a(V$d
p727
V0
p728
tp729
a(V$b
p730
V4
p731
tp732
a(V$c
p733
V0
p734
tp735
a(V$a
p736
V2
p737
tp738
a(V$b2
p739
V4
p740
tp741
a(V$cr
p742
V0
p743
tp744
aV2015-10-12 03:08:10
p745
tp746
a(VP(26,2)
p747
V26^2
p748
(lp749
(S'R.0'
p750
F26.0
V26
p751
V26
p752
tp753
a(S'R.1'
p754
F2.0
g12
g12
tp755
aVmuy002
p756
(lp757
(V$n
p758
V0
p759
tp760
a(V$showHint
p761
V3
p762
tp763
a(V$d
p764
V0
p765
tp766
a(V$b
p767
V5
p768
tp769
a(V$c
p770
V0
p771
tp772
a(V$a
p773
V2
p774
tp775
a(V$b2
p776
V5
p777
tp778
a(V$cr
p779
V0
p780
tp781
aV2015-10-12 16:51:21
p782
tp783
a(VP(26,2)
p784
V26^2
p785
(lp786
(S'R.0'
p787
F26.0
V26
p788
V26
p789
tp790
a(S'R.1'
p791
F2.0
g12
g12
tp792
aVjmmcalex
p793
(lp794
(V$n
p795
V0
p796
tp797
a(V$showHint
p798
V3
p799
tp800
a(V$d
p801
V0
p802
tp803
a(V$b
p804
V4
p805
tp806
a(V$c
p807
V0
p808
tp809
a(V$a
p810
V2
p811
tp812
a(V$b2
p813
V4
p814
tp815
a(V$cr
p816
V0
p817
tp818
aV2015-10-12 23:27:10
p819
tp820
a(VP(26,3)
p821
V26^3
p822
(lp823
(S'R.0'
p824
F26.0
V26
p825
V26
p826
tp827
a(S'R.1'
p828
F3.0
g86
g86
tp829
aVmjethani
p830
(lp831
(V$n
p832
V0
p833
tp834
a(V$showHint
p835
V3
p836
tp837
a(V$d
p838
V0
p839
tp840
a(V$b
p841
V6
p842
tp843
a(V$c
p844
V0
p845
tp846
a(V$a
p847
V3
p848
tp849
a(V$b2
p850
V6
p851
tp852
a(V$cr
p853
V0
p854
tp855
aV2015-10-13 04:07:36
p856
tp857
a(VP(26,3)
p858
V26^3
p859
(lp860
(S'R.0'
p861
F26.0
V26
p862
V26
p863
tp864
a(S'R.1'
p865
F3.0
g86
g86
tp866
aVhah008
p867
(lp868
(V$n
p869
V0
p870
tp871
a(V$showHint
p872
V3
p873
tp874
a(V$d
p875
V0
p876
tp877
a(V$b
p878
V4
p879
tp880
a(V$c
p881
V0
p882
tp883
a(V$a
p884
V3
p885
tp886
a(V$b2
p887
V4
p888
tp889
a(V$cr
p890
V0
p891
tp892
aV2015-10-13 04:51:10
p893
tp894
a(VP(26,3)
p895
VC(26,3)
p896
(lp897
(S'R.0'
p898
F26.0
V26
p899
V26
p900
tp901
a(S'R.1'
p902
F3.0
g86
g86
tp903
aVhaliew
p904
(lp905
(V$n
p906
V0
p907
tp908
a(V$showHint
p909
V3
p910
tp911
a(V$d
p912
V0
p913
tp914
a(V$b
p915
V5
p916
tp917
a(V$c
p918
V0
p919
tp920
a(V$a
p921
V3
p922
tp923
a(V$b2
p924
V5
p925
tp926
a(V$cr
p927
V0
p928
tp929
aV2015-10-13 17:29:05
p930
tp931
a(VP(26,3)
p932
V26^3
p933
(lp934
(S'R.0'
p935
F26.0
V26
p936
V26
p937
tp938
a(S'R.1'
p939
F3.0
g86
g86
tp940
aVt2li
p941
(lp942
(V$n
p943
V0
p944
tp945
a(V$showHint
p946
V3
p947
tp948
a(V$d
p949
V0
p950
tp951
a(V$b
p952
V5
p953
tp954
a(V$c
p955
V0
p956
tp957
a(V$a
p958
V3
p959
tp960
a(V$b2
p961
V5
p962
tp963
a(V$cr
p964
V0
p965
tp966
aV2015-10-14 03:19:04
p967
tp968
a(VP(26,3)
p969
V26^3
p970
(lp971
(S'R.0'
p972
F26.0
V26
p973
V26
p974
tp975
a(S'R.1'
p976
F3.0
g86
g86
tp977
aVskodigal
p978
(lp979
(V$n
p980
V0
p981
tp982
a(V$showHint
p983
V3
p984
tp985
a(V$d
p986
V0
p987
tp988
a(V$b
p989
V3
p990
tp991
a(V$c
p992
V0
p993
tp994
a(V$a
p995
V3
p996
tp997
a(V$b2
p998
V3
p999
tp1000
a(V$cr
p1001
V0
p1002
tp1003
aV2015-10-14 05:40:26
p1004
tp1005
a(VP(26,2)
p1006
V26^2
p1007
(lp1008
(S'R.0'
p1009
F26.0
V26
p1010
V26
p1011
tp1012
a(S'R.1'
p1013
F2.0
g12
g12
tp1014
aVsyc078
p1015
(lp1016
(V$n
p1017
V0
p1018
tp1019
a(V$showHint
p1020
V3
p1021
tp1022
a(V$d
p1023
V0
p1024
tp1025
a(V$b
p1026
V5
p1027
tp1028
a(V$c
p1029
V0
p1030
tp1031
a(V$a
p1032
V2
p1033
tp1034
a(V$b2
p1035
V5
p1036
tp1037
a(V$cr
p1038
V0
p1039
tp1040
aV2015-10-14 14:18:42
p1041
tp1042
a(VP(26,2)
p1043
VC(26,2)
p1044
(lp1045
(S'R.0'
p1046
F26.0
V26
p1047
V26
p1048
tp1049
a(S'R.1'
p1050
F2.0
g12
g12
tp1051
aVflhernan
p1052
(lp1053
(V$n
p1054
V0
p1055
tp1056
a(V$showHint
p1057
V3
p1058
tp1059
a(V$d
p1060
V0
p1061
tp1062
a(V$b
p1063
V5
p1064
tp1065
a(V$c
p1066
V0
p1067
tp1068
a(V$a
p1069
V2
p1070
tp1071
a(V$b2
p1072
V5
p1073
tp1074
a(V$cr
p1075
V0
p1076
tp1077
aV2015-10-14 18:52:30
p1078
tp1079
a(VP(26,3)
p1080
VC(26,3)
p1081
(lp1082
(S'R.0'
p1083
F26.0
V26
p1084
V26
p1085
tp1086
a(S'R.1'
p1087
F3.0
g86
g86
tp1088
aVeshung
p1089
(lp1090
(V$n
p1091
V0
p1092
tp1093
a(V$showHint
p1094
V3
p1095
tp1096
a(V$d
p1097
V0
p1098
tp1099
a(V$b
p1100
V6
p1101
tp1102
a(V$c
p1103
V0
p1104
tp1105
a(V$a
p1106
V3
p1107
tp1108
a(V$b2
p1109
V6
p1110
tp1111
a(V$cr
p1112
V0
p1113
tp1114
aV2015-10-14 22:06:46
p1115
tp1116
a(VP(26,2)
p1117
V26^2
p1118
(lp1119
(S'R.0'
p1120
F26.0
V26
p1121
V26
p1122
tp1123
a(S'R.1'
p1124
F2.0
g12
g12
tp1125
aVaurodrig
p1126
(lp1127
(V$n
p1128
V0
p1129
tp1130
a(V$showHint
p1131
V3
p1132
tp1133
a(V$d
p1134
V0
p1135
tp1136
a(V$b
p1137
V6
p1138
tp1139
a(V$c
p1140
V0
p1141
tp1142
a(V$a
p1143
V2
p1144
tp1145
a(V$b2
p1146
V6
p1147
tp1148
a(V$cr
p1149
V0
p1150
tp1151
aV2015-10-15 00:53:48
p1152
tp1153
a(VP(26,3)
p1154
V26^3
p1155
(lp1156
(S'R.0'
p1157
F26.0
V26
p1158
V26
p1159
tp1160
a(S'R.1'
p1161
F3.0
g86
g86
tp1162
aVjmiclat
p1163
(lp1164
(V$n
p1165
V0
p1166
tp1167
a(V$showHint
p1168
V3
p1169
tp1170
a(V$d
p1171
V0
p1172
tp1173
a(V$b
p1174
V6
p1175
tp1176
a(V$c
p1177
V0
p1178
tp1179
a(V$a
p1180
V3
p1181
tp1182
a(V$b2
p1183
V6
p1184
tp1185
a(V$cr
p1186
V0
p1187
tp1188
aV2015-10-15 02:50:44
p1189
tp1190
a(VP(26,2)
p1191
V26^2
p1192
(lp1193
(S'R.0'
p1194
F26.0
V26
p1195
V26
p1196
tp1197
a(S'R.1'
p1198
F2.0
g12
g12
tp1199
aVkosung
p1200
(lp1201
(V$n
p1202
V0
p1203
tp1204
a(V$showHint
p1205
V3
p1206
tp1207
a(V$d
p1208
V0
p1209
tp1210
a(V$b
p1211
V4
p1212
tp1213
a(V$c
p1214
V0
p1215
tp1216
a(V$a
p1217
V2
p1218
tp1219
a(V$b2
p1220
V4
p1221
tp1222
a(V$cr
p1223
V0
p1224
tp1225
aV2015-10-15 05:17:10
p1226
tp1227
a(VP(26,3)
p1228
V26^3
p1229
(lp1230
(S'R.0'
p1231
F26.0
V26
p1232
V26
p1233
tp1234
a(S'R.1'
p1235
F3.0
g86
g86
tp1236
aVaggouw
p1237
(lp1238
(V$n
p1239
V0
p1240
tp1241
a(V$showHint
p1242
V3
p1243
tp1244
a(V$d
p1245
V0
p1246
tp1247
a(V$b
p1248
V4
p1249
tp1250
a(V$c
p1251
V0
p1252
tp1253
a(V$a
p1254
V3
p1255
tp1256
a(V$b2
p1257
V4
p1258
tp1259
a(V$cr
p1260
V0
p1261
tp1262
aV2015-10-15 07:28:12
p1263
tp1264
a(VP(26,2)
p1265
V26^2
p1266
(lp1267
(S'R.0'
p1268
F26.0
V26
p1269
V26
p1270
tp1271
a(S'R.1'
p1272
F2.0
g12
g12
tp1273
aVdis003
p1274
(lp1275
(V$n
p1276
V0
p1277
tp1278
a(V$showHint
p1279
V3
p1280
tp1281
a(V$d
p1282
V0
p1283
tp1284
a(V$b
p1285
V6
p1286
tp1287
a(V$c
p1288
V0
p1289
tp1290
a(V$a
p1291
V2
p1292
tp1293
a(V$b2
p1294
V6
p1295
tp1296
a(V$cr
p1297
V0
p1298
tp1299
aV2015-10-15 10:46:08
p1300
tp1301
a(VP(26,2)
p1302
V26^2
p1303
(lp1304
(S'R.0'
p1305
F26.0
V26
p1306
V26
p1307
tp1308
a(S'R.1'
p1309
F2.0
g12
g12
tp1310
aVasp025
p1311
(lp1312
(V$n
p1313
V0
p1314
tp1315
a(V$showHint
p1316
V3
p1317
tp1318
a(V$d
p1319
V0
p1320
tp1321
a(V$b
p1322
V3
p1323
tp1324
a(V$c
p1325
V0
p1326
tp1327
a(V$a
p1328
V2
p1329
tp1330
a(V$b2
p1331
V3
p1332
tp1333
a(V$cr
p1334
V0
p1335
tp1336
aV2015-10-15 18:09:41
p1337
tp1338
a(VP(26,2)
p1339
V26^2
p1340
(lp1341
(S'R.0'
p1342
F26.0
V26
p1343
V26
p1344
tp1345
a(S'R.1'
p1346
F2.0
g12
g12
tp1347
aVkgrozav
p1348
(lp1349
(V$n
p1350
V0
p1351
tp1352
a(V$showHint
p1353
V3
p1354
tp1355
a(V$d
p1356
V0
p1357
tp1358
a(V$b
p1359
V6
p1360
tp1361
a(V$c
p1362
V0
p1363
tp1364
a(V$a
p1365
V2
p1366
tp1367
a(V$b2
p1368
V6
p1369
tp1370
a(V$cr
p1371
V0
p1372
tp1373
aV2015-10-15 18:12:08
p1374
tp1375
a(VP(26,2)
p1376
V26^2
p1377
(lp1378
(S'R.0'
p1379
F26.0
V26
p1380
V26
p1381
tp1382
a(S'R.1'
p1383
F2.0
g12
g12
tp1384
aValhung
p1385
(lp1386
(V$n
p1387
V0
p1388
tp1389
a(V$showHint
p1390
V3
p1391
tp1392
a(V$d
p1393
V0
p1394
tp1395
a(V$b
p1396
V4
p1397
tp1398
a(V$c
p1399
V0
p1400
tp1401
a(V$a
p1402
V2
p1403
tp1404
a(V$b2
p1405
V4
p1406
tp1407
a(V$cr
p1408
V0
p1409
tp1410
aV2015-10-15 18:48:10
p1411
tp1412
a(VP(26,3)
p1413
V26**3
p1414
(lp1415
(S'R.0'
p1416
F26.0
V26
p1417
V26
p1418
tp1419
a(S'R.1'
p1420
F3.0
g86
g86
tp1421
aVjtfrankl
p1422
(lp1423
(V$n
p1424
V0
p1425
tp1426
a(V$showHint
p1427
V3
p1428
tp1429
a(V$d
p1430
V0
p1431
tp1432
a(V$b
p1433
V3
p1434
tp1435
a(V$c
p1436
V0
p1437
tp1438
a(V$a
p1439
V3
p1440
tp1441
a(V$b2
p1442
V3
p1443
tp1444
a(V$cr
p1445
V0
p1446
tp1447
aV2015-10-15 20:36:11
p1448
tp1449
assV3
p1450
g2
(g3
tp1451
Rp1452
g223
(lp1453
(V5+2
p1454
V6
p1455
tp1456
a(V3+2
p1457
V15600
p1458
tp1459
a(V4+2
p1460
V13001
p1461
tp1462
a(g1460
V31
p1463
tp1464
a(g1460
V30
p1465
tp1466
a(V3+2
p1467
V6
p1468
tp1469
a(g1467
V4
p1470
tp1471
a(V6+2
p1472
V1
p1473
tp1474
a(g1472
V7
p1475
tp1476
a(V4+2
p1477
V5
p1478
tp1479
a(g1477
V4
p1480
tp1481
a(V6+2
p1482
V7
p1483
tp1484
a(V3+2
p1485
V4
p1486
tp1487
a(V4+2
p1488
V5
p1489
tp1490
a(g1488
V4
p1491
tp1492
a(V6+2
p1493
V12
p1494
tp1495
a(g1493
V13
p1496
tp1497
a(g1493
V11
p1498
tp1499
a(g1493
V7
p1500
tp1501
a(g1493
V2
p1502
tp1503
a(V4+2
p1504
V5
p1505
tp1506
a(V4+2
p1507
V11
p1508
tp1509
a(V6+2
p1510
V0
p1511
tp1512
a(V4+2
p1513
V78000
p1514
tp1515
a(g1513
V2
p1516
tp1517
a(g1513
V3
p1518
tp1519
a(g1513
V1
p1520
tp1521
a(g1513
V0
p1522
tp1523
a(V5+2
p1524
V5
p1525
tp1526
a(g1524
V6
p1527
tp1528
a(g1524
V0
p1529
tp1530
a(g1524
V5
p1531
tp1532
a(V6+2
p1533
V3
p1534
tp1535
a(g1533
V7
p1536
tp1537
a(V3+2
p1538
V4
p1539
tp1540
a(V4+2
p1541
V5
p1542
tp1543
a(V6+2
p1544
V7
p1545
tp1546
a(V4+2
p1547
V1
p1548
tp1549
a(g1547
V2
p1550
tp1551
a(V4+2
p1552
V5
p1553
tp1554
a(V4+2
p1555
V78002
p1556
tp1557
a(g1555
V5
p1558
tp1559
a(V3+2
p1560
V4
p1561
tp1562
a(V4+2
p1563
V5
p1564
tp1565
a(V5+2
p1566
V6
p1567
tp1568
a(V3+2
p1569
V4
p1570
tp1571
a(V3+2
p1572
V650
p1573
tp1574
a(V5+2
p1575
V6
p1576
tp1577
a(g1575
V1
p1578
tp1579
a(V6+2
p1580
V7
p1581
tp1582
a(g1580
V650
p1583
tp1584
a(g1580
V6
p1585
tp1586
a(V3+2
p1587
V4
p1588
tp1589
a(g1587
V6
p1590
tp1591
a(V6+2
p1592
V175
p1593
tp1594
a(g1592
V7
p1595
tp1596
a(g1592
V6
p1597
tp1598
a(V4+2
p1599
V8
p1600
tp1601
a(V5+2
p1602
V6
p1603
tp1604
a(V3+2
p1605
V3
p1606
tp1607
a(V5+2
p1608
V3901
p1609
tp1610
a(V6+2
p1611
V109201
p1612
tp1613
a(V6+2
p1614
V7
p1615
tp1616
a(g1614
V93601
p1617
tp1618
a(V3+2
p1619
V4
p1620
tp1621
a(V3+2
p1622
V4
p1623
tp1624
a(g1622
V650
p1625
tp1626
a(g1622
V4
p1627
tp1628
a(V5+2
p1629
V78001
p1630
tp1631
a(V3+2
p1632
V0
p1633
tp1634
a(V6+2
p1635
V7
p1636
tp1637
a(V3+2
p1638
V3
p1639
tp1640
a(g1638
V4
p1641
tp1642
a(V5+2
p1643
V55
p1644
tp1645
a(V5+2
p1646
V3251
p1647
tp1648
a(V3+2
p1649
V2
p1650
tp1651
a(g1649
V3
p1652
tp1653
a(V3+2
p1654
V2
p1655
tp1656
a(g1654
V3
p1657
tp1658
a(g1654
V4
p1659
tp1660
a(V5+2
p1661
V11
p1662
tp1663
a(g1646
V5
p1664
tp1665
a(g1661
V6
p1666
tp1667
a(V3+2
p1668
V4
p1669
tp1670
a(g1668
V3
p1671
tp1672
a(V4+2
p1673
V4
p1674
tp1675
a(g1673
V5
p1676
tp1677
a(g1673
V4
p1678
tp1679
a(g1673
V5
p1680
tp1681
a(g1649
V1
p1682
tp1683
a(g1649
V6
p1684
tp1685
a(V3+2
p1686
V3
p1687
tp1688
a(g1686
V4
p1689
tp1690
a(V5+2
p1691
V93601
p1692
tp1693
a(g1691
V5
p1694
tp1695
a(V3+2
p1696
V47001
p1697
tp1698
a(g1696
V46801
p1699
tp1700
a(g1696
V4
p1701
tp1702
a(g1696
V46801
p1703
tp1704
a(g1696
V3
p1705
tp1706
a(g1457
V1
p1707
tp1708
a(g1457
V4
p1709
tp1710
a(V5+2
p1711
V6
p1712
tp1713
a(g1711
V5
p1714
tp1715
a(V5+2
p1716
V6
p1717
tp1718
a(g1716
V5
p1719
tp1720
a(V5+2
p1721
V6
p1722
tp1723
a(V6+2
p1724
V7
p1725
tp1726
a(V4+2
p1727
V62401
p1728
tp1729
a(V5+2
p1730
V4
p1731
tp1732
a(g1730
V5
p1733
tp1734
a(g1730
V6
p1735
tp1736
a(V6+2
p1737
V11
p1738
tp1739
a(g1737
V7
p1740
tp1741
a(g1737
V10
p1742
tp1743
a(g1737
V11
p1744
tp1745
a(V6+2
p1746
V7
p1747
tp1748
a(V5+2
p1749
V1
p1750
tp1751
a(V3+2
p1752
V4
p1753
tp1754
a(V4+2
p1755
V5
p1756
tp1757
a(V6+2
p1758
V7
p1759
tp1760
a(V3+2
p1761
V100
p1762
tp1763
a(g1761
V101
p1764
tp1765
a(V3+2
p1766
V4
p1767
tp1768
a(V3+2
p1769
V4
p1770
tp1771
a(V5+2
p1772
V4
p1773
tp1774
a(g1772
V3
p1775
tp1776
a(g1772
V6
p1777
tp1778
a(g1772
V5
p1779
tp1780
a(V5+2
p1781
V6
p1782
tp1783
a(g1752
V3
p1784
tp1785
a(V3+2
p1786
V124803
p1787
tp1788
a(V4+2
p1789
V4
p1790
tp1791
a(V5+2
p1792
V3901
p1793
tp1794
a(V6+2
p1795
V7
p1796
tp1797
a(g1795
V109201
p1798
tp1799
a(V5+2
p1800
V43
p1801
tp1802
a(V6+2
p1803
V7
p1804
tp1805
a(g1803
V6
p1806
tp1807
a(V6+2
p1808
V2
p1809
tp1810
a(g1808
V1
p1811
tp1812
a(V3+2
p1813
V6
p1814
tp1815
a(g1813
V4
p1816
tp1817
a(V6+2
p1818
V1
p1819
tp1820
a(V4+2
p1821
V2
p1822
tp1823
a(V5+2
p1824
V6
p1825
tp1826
a(V4+2
p1827
V2
p1828
tp1829
a(g1827
V3
p1830
tp1831
a(g1827
V4
p1832
tp1833
a(g1827
V5
p1834
tp1835
a(V4+2
p1836
V1
p1837
tp1838
a(g1836
V2
p1839
tp1840
a(V5+2
p1841
V6
p1842
tp1843
a(V3+2
p1844
V6
p1845
tp1846
a(V3+2
p1847
V4
p1848
tp1849
a(V5+2
p1850
V0
p1851
tp1852
a(g1841
V5
p1853
tp1854
a(V5+2
p1855
V3901
p1856
tp1857
a(V3+2
p1858
V26
p1859
tp1860
a(V5+2
p1861
V11
p1862
tp1863
a(V5+2
p1864
V6
p1865
tp1866
a(g1864
V5
p1867
tp1868
a(g1855
V3900
p1869
tp1870
a(g1855
V3902
p1871
tp1872
a(V3+2
p1873
V4
p1874
tp1875
a(g1873
V3
p1876
tp1877
a(V5+2
p1878
V6
p1879
tp1880
a(V3+2
p1881
V4
p1882
tp1883
a(g1881
V3
p1884
tp1885
a(V5+2
p1886
V26
p1887
tp1888
a(V6+2
p1889
V42
p1890
tp1891
a(g1889
V7
p1892
tp1893
a(g1886
V650
p1894
tp1895
a(g1886
V649
p1896
tp1897
a(V5+2
p1898
V0
p1899
tp1900
a(g1889
V5
p1901
tp1902
a(g1889
V7
p1903
tp1904
a(V5+2
p1905
V234
p1906
tp1907
a(V6+2
p1908
V93601
p1909
tp1910
a(V3+2
p1911
V1
p1912
tp1913
a(g1911
V2
p1914
tp1915
a(V3+2
p1916
V4
p1917
tp1918
a(g1916
V1
p1919
tp1920
a(g1916
V2
p1921
tp1922
a(g1916
V649
p1923
tp1924
a(V6+2
p1925
V1
p1926
tp1927
a(g1925
V2
p1928
tp1929
a(g1925
V7
p1930
tp1931
a(g1925
V6
p1932
tp1933
a(V5+2
p1934
V6
p1935
tp1936
a(V4+2
p1937
V4
p1938
tp1939
a(V3+2
p1940
V4
p1941
tp1942
a(V3+2
p1943
V4
p1944
tp1945
a(g1737
V7
p1946
tp1947
a(V3+2
p1948
V4
p1949
tp1950
a(V4+2
p1951
V5
p1952
tp1953
a(g1951
V4
p1954
tp1955
a(V4+2
p1956
V5
p1957
tp1958
a(V3+2
p1959
V4
p1960
tp1961
a(V6+2
p1962
V2
p1963
tp1964
a(g1962
V6
p1965
tp1966
a(V5+2
p1967
V6
p1968
tp1969
a(V3+2
p1970
V4
p1971
tp1972
a(g1970
V3
p1973
tp1974
a(V3+2
p1975
V1
p1976
tp1977
a(V4+2
p1978
V123
p1979
tp1980
a(V3+2
p1981
V2
p1982
tp1983
a(g1981
V3
p1984
tp1985
a(V4+2
p1986
V5
p1987
tp1988
a(V4+2
p1989
V5
p1990
tp1991
a(V4+2
p1992
V5
p1993
tp1994
a(g1992
V4
p1995
tp1996
a(V3+2
p1997
V4
p1998
tp1999
a(g1997
V650
p2000
tp2001
a(V6+2
p2002
V0
p2003
tp2004
a(V6+2
p2005
V0
p2006
tp2007
a(g2005
V7
p2008
tp2009
a(V3+2
p2010
V2
p2011
tp2012
a(g2010
V3
p2013
tp2014
a(g2010
V4
p2015
tp2016
a(V4+2
p2017
V11
p2018
tp2019
a(g2017
V1
p2020
tp2021
a(V6+2
p2022
V7
p2023
tp2024
a(g2022
V6
p2025
tp2026
a(V4+2
p2027
V1083
p2028
tp2029
a(g2027
V1084
p2030
tp2031
a(g2027
V5
p2032
tp2033
a(V3+2
p2034
V1951
p2035
tp2036
a(V3+2
p2037
V4
p2038
tp2039
a(V3+2
p2040
V1,690,001
p2041
tp2042
a(g2037
V3
p2043
tp2044
a(g2040
V1690001
p2045
tp2046
a(V6+2
p2047
V7
p2048
tp2049
a(V3+2
p2050
V20801
p2051
tp2052
a(V3+2
p2053
V3
p2054
tp2055
a(g2053
V2
p2056
tp2057
a(g2053
V21
p2058
tp2059
a(g2053
V1
p2060
tp2061
a(g2053
V4
p2062
tp2063
a(V4+2
p2064
V5
p2065
tp2066
a(g2064
V4
p2067
tp2068
a(V6+2
p2069
V4551
p2070
tp2071
a(g2069
V7
p2072
tp2073
a(V6+2
p2074
V1
p2075
tp2076
a(g2074
V2
p2077
tp2078
a(g2074
V7
p2079
tp2080
asS'redirect'
p2081
(lp2082
(g1457
V62401-15600
p2083
tp2084
a(V6+2
p2085
V109201 - (26! / 23!)
p2086
tp2087
a(V4+2
p2088
V3251-26*25
p2089
tp2090
a(g2088
V3251-26*25+1
p2091
tp2092
a(g2088
V3251-26*25+1
p2093
tp2094
a(V5+2
p2095
V4*15600+1
p2096
tp2097
a(V4+2
p2098
V78001 - 26*25*24
p2099
tp2100
a(g2098
V78001 - (26*25*24)
p2101
tp2102
a(V6+2
p2103
V109201-P(26,3)
p2104
tp2105
a(V5+2
p2106
V(93601-1)/3!
p2107
tp2108
a(g2106
V(93601-1)/(26*25*24)
p2109
tp2110
a(V3+2
p2111
V62401-15600
p2112
tp2113
a(g1614
V26*25*24
p2114
tp2115
a(g1629
V93601-26*25*24
p2116
tp2117
a(V4+2
p2118
V3251-26*25
p2119
tp2120
a(g1632
V2601-650
p2121
tp2122
a(V5+2
p2123
VC(26, 3)
p2124
tp2125
a(g2123
V(9360/26)+1
p2126
tp2127
a(g2088
V(3251-1)/26*25+1
p2128
tp2129
a(V6+2
p2130
V109201 - (26*25*24)
p2131
tp2132
a(V4+2
p2133
V([(26)(25)])(4)
p2134
tp2135
a(g1881
V2601-650
p2136
tp2137
a(g1886
V3900/650
p2138
tp2139
a(g1886
V(3900)650
p2140
tp2141
a(g1886
V649(3901)
p2142
tp2143
a(V3+2
p2144
V2601-26*25
p2145
tp2146
a(g1898
V(26*25*6)+1
p2147
tp2148
a(g1940
V62400/(26*25*24)
p2149
tp2150
a(g1975
V62401-15600
p2151
tp2152
asS'Wrong_Sign'
p2153
(lp2154
(g2098
V78001 - 26!
p2155
tp2156
a(g2098
V78001 - [ 26*25*24(78001-1)+1]
p2157
tp2158
a(g2103
VP(26,3)-109201
p2159
tp2160
a(V6+2
p2161
V[-1*([4551-(26*25)]-1)/(26*25)]+1
p2162
tp2163
a(g2040
V650-2601
p2164
tp2165
a(g2040
V2602(2) - 2602
p2166
tp2167
a(g2040
V-1
p2168
tp2169
a(g2053
V((26*25*24)/62401)-1
p2170
tp2171
a(g2053
V(6240/(26*25*24))-1
p2172
tp2173
asS'Fraction'
p2174
(lp2175
(g1454
V93601/(26!/(26-3)!)
p2176
tp2177
a(V4+2
p2178
V78001/(26*25*24)
p2179
tp2180
a(g1472
V109201 / (26*25*24)
p2181
tp2182
a(g1482
V109201 / (26!/23!)
p2183
tp2184
a(g1485
V62401/15600
p2185
tp2186
a(V6+2
p2187
V109201 / [26 * 25* 24]
p2188
tp2189
a(g2187
V109201 / [ [26 * 25* 24]*6 ]
p2190
tp2191
a(g2187
V109201 / [ [26 * 25* 24] +1 ]
p2192
tp2193
a(g2187
V109201 / [ [26 * 25* 24]*5 +1 ]
p2194
tp2195
a(g1504
V3251 / (26!/((26-2)!))
p2196
tp2197
a(g1513
V(26*25*24*3 + 1)/78002 + 1
p2198
tp2199
a(g1538
V62401/ (26!/23!)
p2200
tp2201
a(g1547
V78001/(26*25*24)
p2202
tp2203
a(g1547
V78001/(26*25*24-1)
p2204
tp2205
a(g2085
V109201/6 - 1
p2206
tp2207
a(g2088
V3251/ (26*25)
p2208
tp2209
a(g2088
V3251/(26*25+1) +1
p2210
tp2211
a(g1563
V(78001)/15600
p2212
tp2213
a(V4+2
p2214
V3251/(26*25)
p2215
tp2216
a(g2214
V3251/(26*25)^2
p2217
tp2218
a(g2214
V3251/(26*25+1)-1
p2219
tp2220
a(g2214
V3251/(26*25+1)+1
p2221
tp2222
a(g1575
V(3901)/(P(26,2))
p2223
tp2224
a(g2106
V(93601-1)/(27*26*25)
p2225
tp2226
a(g2106
V(93601)/(26 *25*24)
p2227
tp2228
a(V3+2
p2229
V62401/15600
p2230
tp2231
a(V5+2
p2232
V(93601)/15600
p2233
tp2234
a(V5+2
p2235
V(93601/(26*25*24))
p2236
tp2237
a(g2235
V(93601/(26*25*24)) - 1
p2238
tp2239
a(g1592
V4551/26/25
p2240
tp2241
a(g1592
V4551/26
p2242
tp2243
a(g1592
V4551/26/25
p2244
tp2245
a(V3+2
p2246
V2601/650
p2247
tp2248
a(V4+2
p2249
V78001/((26!/(26-3)!)+1)
p2250
tp2251
a(g2249
V((7800-1)/(26!/(26-3)!))+1
p2252
tp2253
a(V6+2
p2254
V26!/(26-3)!/109201
p2255
tp2256
a(g2254
V109201/26!/(26-3)!
p2257
tp2258
a(g2254
V109201/(26!/(26-3)!)
p2259
tp2260
a(g1622
V2601/650
p2261
tp2262
a(g2161
V[(-[4551-(26*25)]-1)/(26*25)]+1
p2263
tp2264
a(g1638
V62401/ ((26*25*24)+1)
p2265
tp2266
a(g2123
V(9360/(26*25*24))+1
p2267
tp2268
a(V6+2
p2269
V4551/(26*25)
p2270
tp2271
a(g1646
V3901/650
p2272
tp2273
a(g1649
V2600/2601
p2274
tp2275
a(g1649
V((2600/2601) * (1-(2600/2601)) +1) *2
p2276
tp2277
a(g1457
V(62400/15000)+1
p2278
tp2279
a(g1711
V(3901/(26*25))-1
p2280
tp2281
a(V4+2
p2282
V46800/78001 + 1
p2283
tp2284
a(V6+2
p2285
V109201/(26*25*24)
p2286
tp2287
a(g1721
V93601/15600
p2288
tp2289
a(V3+2
p2290
V3205/2601
p2291
tp2292
a(g1727
V62402/15600
p2293
tp2294
a(g1730
V(26!/23!)/93601
p2295
tp2296
a(g1730
V(26!/23!)/93601+1
p2297
tp2298
a(g1730
V(27!/23!)/93601
p2299
tp2300
a(V6+2
p2301
V(4551)/(26*25)
p2302
tp2303
a(V3+2
p2304
V2601/650
p2305
tp2306
a(V5+2
p2307
V93601/15600
p2308
tp2309
a(V6+2
p2310
V4551/(26*25)
p2311
tp2312
a(V3+2
p2313
V(62401/15600) - 1
p2314
tp2315
a(V5+2
p2316
V93601/(5*26!)
p2317
tp2318
a(g2316
V93601/(5*26*25*24)
p2319
tp2320
a(g2316
V93601/(4*26*25*24)
p2321
tp2322
a(g2316
V93601/(26*25*24)
p2323
tp2324
a(g1766
V62401/15600
p2325
tp2326
a(g1786
V1.249979968
p2327
tp2328
a(V3+2
p2329
V2313.148148
p2330
tp2331
a(g1792
V(3901 - 1)/3901
p2332
tp2333
a(g1795
V109201/(25*26*24)
p2334
tp2335
a(g1792
V3251 / 4
p2336
tp2337
a(g1795
V109201/(26*25*24)
p2338
tp2339
a(V3+2
p2340
V2601/26*25+1
p2341
tp2342
a(g1808
V1.7
p2343
tp2344
a(g1821
V(26!/23!)/78001 + 1
p2345
tp2346
a(g1821
V78001/26!/23!
p2347
tp2348
a(g1836
V(78001-1)/78001
p2349
tp2350
a(V3+2
p2351
V(26*25*24)/62401
p2352
tp2353
a(g2351
V62401/(26*25*24)
p2354
tp2355
a(V6+2
p2356
V(10920+(26*25*24))/(26*25*24)
p2357
tp2358
a(V4+2
p2359
V78001/(26!/23!)
p2360
tp2361
a(g1841
V93601/(26!/23!)
p2362
tp2363
a(g1844
V[662401 / (15601) ]+1
p2364
tp2365
a(g1847
V((26*25*24*2)-1)/(26*25*24)
p2366
tp2367
a(g1850
V3901/26*25
p2368
tp2369
a(g1841
V93601/(26!/23!) -1
p2370
tp2371
a(g1841
V93601/(26!/23!)
p2372
tp2373
a(V5+2
p2374
V3901/(27) - 1
p2375
tp2376
a(g2374
V3901/(651) - 1
p2377
tp2378
a(V5+2
p2379
V(3901-1)/(26*26)+1
p2380
tp2381
a(V6+2
p2382
V26 * 25 / 4551
p2383
tp2384
a(g2382
V4551/((26 *25) + 1)
p2385
tp2386
a(g2382
V4551/((26 *25))
p2387
tp2388
a(g2382
V((26 *25))/4551
p2389
tp2390
a(g1873
V2601/(26*25)
p2391
tp2392
a(g1881
V(2601-650)/2
p2393
tp2394
a(g1886
V3901/650
p2395
tp2396
a(g1886
V650/3901
p2397
tp2398
a(g2144
V2601/650
p2399
tp2400
a(V6+2
p2401
V4551/24/23
p2402
tp2403
a(g2401
V4551/26/25
p2404
tp2405
a(g1948
V26*25((26*25)/2601) + 1
p2406
tp2407
a(g1962
V4551*[(25*26*6)/(25*26)^6]
p2408
tp2409
a(g1962
V4551*[1/(25*26)^6]
p2410
tp2411
a(V4+2
p2412
V78001/(26!/23!)
p2413
tp2414
a(g1970
V26*25*24/62401
p2415
tp2416
a(g1970
V62401/(26*25*24)
p2417
tp2418
a(V4+2
p2419
V7800/(26*25*24)
p2420
tp2421
a(g2419
V7800/(26*25*24)+1
p2422
tp2423
a(g1818
V4551/3251
p2424
tp2425
a(g1818
V(4551-1)/3251
p2426
tp2427
a(V6+2
p2428
V4551/26^2
p2429
tp2430
a(g2428
V4551/(26*25)
p2431
tp2432
a(g2428
V4551/(26*25*5)
p2433
tp2434
a(g2428
V(4551-1)/(26*25*5)
p2435
tp2436
a(g2428
V(4551)/(26*25*5) +1
p2437
tp2438
a(g2428
V(4551)/((26*25)+1) +1
p2439
tp2440
a(g2428
V(4551-1)/((26*25)+1) +1
p2441
tp2442
a(V4+2
p2443
V7800/(26*25*24)
p2444
tp2445
a(g2002
V109201/15600
p2446
tp2447
a(V6+2
p2448
V4551/(26*25)
p2449
tp2450
a(g2040
V7.99(2601)
p2451
tp2452
a(V6+2
p2453
V(93601/15601)+1
p2454
tp2455
a(g2453
V(4551/651)+1
p2456
tp2457
a(g2453
V(4551/15601)+1
p2458
tp2459
a(g2453
V(4551/651)+1
p2460
tp2461
a(V3+2
p2462
V62401/26**3
p2463
tp2464
a(g2462
V62401/26*25*24
p2465
tp2466
a(g2462
V62401/(26*25*24)
p2467
tp2468
a(V4+2
p2469
V(4551/((26 *25))) + 1
p2470
tp2471
a(g2053
V(26*25*24)/62401
p2472
tp2473
a(g2053
V(62401/(26*25*24))-1
p2474
tp2475
a(V3+2
p2476
V2600/1301
p2477
tp2478
a(g2476
V2600/1302
p2479
tp2480
a(g2476
V2600/1301 + 1
p2481
tp2482
a(g2064
V78001/15600
p2483
tp2484
a(g2074
V(4551/(26*25*5)) + 1
p2485
tp2486
a(g2074
V4551/(26*25*5 + 1)
p2487
tp2488
a(g2074
V4551/(26*25*5) + 1
p2489
tp2490
a(g2074
V4551/(26*25*5 + 1) + 1
p2491
tp2492
a(g2074
V4551/3251 + 1
p2493
tp2494
a(g2074
V4551/3251
p2495
tp2496
assV2
p2497
g2
(g3
tp2498
Rp2499
g223
(lp2500
(V(4-1)*P(26,3)+1
p2501
V19
p2502
tp2503
a(g2501
V7801
p2504
tp2505
a(g2501
V7803
p2506
tp2507
a(V(4-1)*P(26,2)+1
p2508
V2601
p2509
tp2510
a(V(4-1)*P(26,3)+1
p2511
V62401
p2512
tp2513
a(V(6-1)*P(26,3)+1
p2514
V0
p2515
tp2516
a(V(3-1)*P(26,2)+1
p2517
V652
p2518
tp2519
a(g2517
V653
p2520
tp2521
a(g2517
V654
p2522
tp2523
a(g2517
V651
p2524
tp2525
a(g2517
V652
p2526
tp2527
a(g2517
V218
p2528
tp2529
a(g2517
V217
p2530
tp2531
a(g2517
V219
p2532
tp2533
a(g2514
V1
p2534
tp2535
a(V(3-1)*P(26,3)+1
p2536
V3
p2537
tp2538
a(V(6-1)*P(26,3)+1
p2539
V22
p2540
tp2541
a(g2539
V93600
p2542
tp2543
a(g2539
V56333
p2544
tp2545
a(V(4-1)*P(26,3)+1
p2546
V5
p2547
tp2548
a(g2546
V12
p2549
tp2550
a(g2546
V14
p2551
tp2552
a(V(3-1)*P(26,2)+1
p2553
V653
p2554
tp2555
a(g2553
V652
p2556
tp2557
a(V(5-1)*P(26,2)+1
p2558
V5
p2559
tp2560
a(V(6-1)*P(26,2)+1
p2561
V656
p2562
tp2563
a(V(4-1)*P(26,2)+1
p2564
V651
p2565
tp2566
a(g2564
V2597
p2567
tp2568
a(V(5-1)*P(26,3)+1
p2569
V126
p2570
tp2571
a(V(3-1)*P(26,2)+1
p2572
V3
p2573
tp2574
a(V(3-1)*P(26,3)+1
p2575
V15601
p2576
tp2577
a(g2575
V15603
p2578
tp2579
a(g2575
V15604
p2580
tp2581
a(V(4-1)*P(26,3)+1
p2582
V99
p2583
tp2584
a(V(3-1)*P(26,3)+1
p2585
V3
p2586
tp2587
a(V(3-1)*P(26,3)+1
p2588
V62401
p2589
tp2590
a(V(5-1)*P(26,2)+1
p2591
V5
p2592
tp2593
a(V(3-1)*P(26,2)+1
p2594
V651
p2595
tp2596
a(V(4-1)*P(26,3)+1
p2597
V2600
p2598
tp2599
a(V(3-1)*P(26,2)+1
p2600
V0
p2601
tp2602
a(V(5-1)*P(26,2)+1
p2603
V70
p2604
tp2605
a(g2603
V80
p2606
tp2607
a(g2603
V75
p2608
tp2609
a(g2603
V66
p2610
tp2611
a(V(6-1)*P(26,2)+1
p2612
V325
p2613
tp2614
a(g2612
V230230
p2615
tp2616
a(g2612
V6
p2617
tp2618
a(V(5-1)*P(26,2)+1
p2619
V655
p2620
tp2621
a(g2619
V3250
p2622
tp2623
a(V(3-1)*P(26,2)+1
p2624
V1950
p2625
tp2626
a(V(5-1)*P(26,2)+1
p2627
V260
p2628
tp2629
a(V(5-1)*P(26,2)+1
p2630
V5
p2631
tp2632
a(V(4-1)*P(26,3)+1
p2633
V7
p2634
tp2635
a(V(6-1)*P(26,3)+1
p2636
V46801
p2637
tp2638
a(V(3-1)*P(26,3)+1
p2639
V15600
p2640
tp2641
a(g2636
V31201
p2642
tp2643
a(g2636
V18202
p2644
tp2645
a(g2636
V46801
p2646
tp2647
a(V(3-1)*P(26,2)+1
p2648
V3
p2649
tp2650
a(g2648
V4
p2651
tp2652
a(V(5-1)*P(26,3)+1
p2653
V16
p2654
tp2655
a(V(3-1)*P(26,3)+1
p2656
V15601
p2657
tp2658
a(g2656
V46801
p2659
tp2660
a(V(5-1)*P(26,3)+1
p2661
V7893600
p2662
tp2663
a(g2661
V78001
p2664
tp2665
a(V(3-1)*P(26,3)+1
p2666
V0
p2667
tp2668
a(g2666
V07
p2669
tp2670
a(V(3-1)*P(26,3)+1
p2671
V54
p2672
tp2673
a(V(4-1)*P(26,2)+1
p2674
V101
p2675
tp2676
a(V(5-1)*P(26,2)+1
p2677
V5
p2678
tp2679
a(g2677
V4
p2680
tp2681
a(V(5-1)*P(26,3)+1
p2682
V2163
p2683
tp2684
a(V(6-1)*P(26,2)+1
p2685
V1
p2686
tp2687
a(V(4-1)*P(26,3)+1
p2688
V60840001
p2689
tp2690
a(V(3-1)*P(26,3)+1
p2691
V4
p2692
tp2693
a(g2691
V15603
p2694
tp2695
a(V(6-1)*P(26,2)+1
p2696
V656
p2697
tp2698
a(V(3-1)*P(26,3)+1
p2699
V0
p2700
tp2701
a(V(5-1)*P(26,3)+1
p2702
V5
p2703
tp2704
a(V(3-1)*P(26,2)+1
p2705
V1
p2706
tp2707
a(V(3-1)*P(26,2)+1
p2708
V653
p2709
tp2710
a(V(5-1)*P(26,2)+1
p2711
V3
p2712
tp2713
a(V(3-1)*P(26,2)+1
p2714
V3
p2715
tp2716
a(V(5-1)*P(26,2)+1
p2717
V234
p2718
tp2719
a(V(6-1)*P(26,2)+1
p2720
V3255
p2721
tp2722
a(g2720
V3901
p2723
tp2724
a(V(4-1)*P(26,3)+1
p2725
V15604
p2726
tp2727
a(g2725
V15603
p2728
tp2729
a(V(3-1)*P(26,2)+1
p2730
V1950
p2731
tp2732
a(V(4-1)*P(26,3)+1
p2733
V5
p2734
tp2735
a(g2733
V8
p2736
tp2737
a(g2733
V7
p2738
tp2739
a(V(3-1)*P(26,3)+1
p2740
V46801
p2741
tp2742
a(V(5-1)*P(26,3)+1
p2743
V0
p2744
tp2745
a(g2743
V1
p2746
tp2747
a(V(4-1)*P(26,3)+1
p2748
V12
p2749
tp2750
a(V(5-1)*P(26,2)+1
p2751
V3250
p2752
tp2753
a(g2751
V3251
p2754
tp2755
a(V(6-1)*P(26,3)+1
p2756
V0
p2757
tp2758
a(V(6-1)*P(26,3)+1
p2759
V0
p2760
tp2761
a(g2759
V15600
p2762
tp2763
a(V(4-1)*P(26,2)+1
p2764
V6
p2765
tp2766
a(g2764
V5
p2767
tp2768
a(g2764
V12
p2769
tp2770
a(g2764
V13
p2771
tp2772
a(V(6-1)*P(26,2)+1
p2773
V6
p2774
tp2775
a(V(4-1)*P(26,2)+1
p2776
V10
p2777
tp2778
a(V(3-1)*P(26,2)+1
p2779
V653
p2780
tp2781
a(V(4-1)*P(26,3)+1
p2782
V4
p2783
tp2784
a(V(6-1)*P(26,2)+1
p2785
V6
p2786
tp2787
a(V(6-1)*P(26,2)+1
p2788
V650
p2789
tp2790
asS"['R.0.0']"
p2791
(lp2792
(V(3-1)*P(26,3)+1
p2793
V2*25*24
p2794
(lp2795
(S'R.0.0'
p2796
F2.0
V3-1
p2797
g12
tp2798
aVqfu
p2799
(lp2800
(V$n
p2801
V0
p2802
tp2803
a(V$showHint
p2804
V3
p2805
tp2806
a(V$d
p2807
V0
p2808
tp2809
a(V$b
p2810
V3
p2811
tp2812
a(V$c
p2813
V0
p2814
tp2815
a(V$a
p2816
V3
p2817
tp2818
a(V$b2
p2819
V3
p2820
tp2821
a(V$cr
p2822
V0
p2823
tp2824
aV2015-10-09 04:09:51
p2825
tp2826
a(V(4-1)*P(26,2)+1
p2827
V(4-1)(26)+1
p2828
(lp2829
(S'R.0.0'
p2830
F3.0
V4-1
p2831
V4-1
p2832
tp2833
aVsachadal
p2834
(lp2835
(V$n
p2836
V0
p2837
tp2838
a(V$showHint
p2839
V3
p2840
tp2841
a(V$d
p2842
V0
p2843
tp2844
a(V$b
p2845
V4
p2846
tp2847
a(V$c
p2848
V0
p2849
tp2850
a(V$a
p2851
V2
p2852
tp2853
a(V$b2
p2854
V4
p2855
tp2856
a(V$cr
p2857
V0
p2858
tp2859
aV2015-10-09 18:12:25
p2860
tp2861
a(V(4-1)*P(26,2)+1
p2862
V(3-1)*(26*25+1)
p2863
(lp2864
(S'R.0.0'
p2865
F3.0
V4-1
p2866
g86
tp2867
aVggaddi
p2868
(lp2869
(V$n
p2870
V0
p2871
tp2872
a(V$showHint
p2873
V3
p2874
tp2875
a(V$d
p2876
V0
p2877
tp2878
a(V$b
p2879
V4
p2880
tp2881
a(V$c
p2882
V0
p2883
tp2884
a(V$a
p2885
V2
p2886
tp2887
a(V$b2
p2888
V4
p2889
tp2890
a(V$cr
p2891
V0
p2892
tp2893
aV2015-10-10 06:26:37
p2894
tp2895
a(V(5-1)*P(26,3)+1
p2896
V4(26) + 1
p2897
(lp2898
(S'R.0.0'
p2899
F4.0
V5-1
p2900
V4
p2901
tp2902
aVkquong
p2903
(lp2904
(V$n
p2905
V0
p2906
tp2907
a(V$showHint
p2908
V3
p2909
tp2910
a(V$d
p2911
V0
p2912
tp2913
a(V$b
p2914
V5
p2915
tp2916
a(V$c
p2917
V0
p2918
tp2919
a(V$a
p2920
V3
p2921
tp2922
a(V$b2
p2923
V5
p2924
tp2925
a(V$cr
p2926
V0
p2927
tp2928
aV2015-10-10 21:54:40
p2929
tp2930
a(V(3-1)*P(26,3)+1
p2931
V(3-1)26+1
p2932
(lp2933
(S'R.0.0'
p2934
F2.0
V3-1
p2935
V3-1
p2936
tp2937
aVtpmach
p2938
(lp2939
(V$n
p2940
V0
p2941
tp2942
a(V$showHint
p2943
V3
p2944
tp2945
a(V$d
p2946
V0
p2947
tp2948
a(V$b
p2949
V3
p2950
tp2951
a(V$c
p2952
V0
p2953
tp2954
a(V$a
p2955
V3
p2956
tp2957
a(V$b2
p2958
V3
p2959
tp2960
a(V$cr
p2961
V0
p2962
tp2963
aV2015-10-11 00:57:01
p2964
tp2965
a(g2931
V(3-1)*3+1
p2966
(lp2967
(S'R.0.0'
p2968
F2.0
V3-1
p2969
V3-1
p2970
tp2971
aVtpmach
p2972
g2939
V2015-10-11 00:59:41
p2973
tp2974
a(g2569
V4*26+1
p2975
(lp2976
(S'R.0.0'
p2977
F4.0
V5-1
p2978
g2901
tp2979
aVmtrafeca
p2980
(lp2981
(V$n
p2982
V0
p2983
tp2984
a(V$showHint
p2985
V3
p2986
tp2987
a(V$d
p2988
V0
p2989
tp2990
a(V$b
p2991
V5
p2992
tp2993
a(V$c
p2994
V0
p2995
tp2996
a(V$a
p2997
V3
p2998
tp2999
a(V$b2
p3000
V5
p3001
tp3002
a(V$cr
p3003
V0
p3004
tp3005
aV2015-10-11 03:57:38
p3006
tp3007
a(V(5-1)*P(26,3)+1
p3008
V((5-1)* 26) +1
p3009
(lp3010
(S'R.0.0'
p3011
F4.0
V5-1
p3012
V5-1
p3013
tp3014
aVhmnaing
p3015
(lp3016
(V$n
p3017
V0
p3018
tp3019
a(V$showHint
p3020
V3
p3021
tp3022
a(V$d
p3023
V0
p3024
tp3025
a(V$b
p3026
V5
p3027
tp3028
a(V$c
p3029
V0
p3030
tp3031
a(V$a
p3032
V3
p3033
tp3034
a(V$b2
p3035
V5
p3036
tp3037
a(V$cr
p3038
V0
p3039
tp3040
aV2015-10-12 05:51:40
p3041
tp3042
a(g2612
V(5*26)+1
p3043
(lp3044
(S'R.0.0'
p3045
F5.0
V6-1
p3046
V5
p3047
tp3048
aVn2patil
p3049
(lp3050
(V$n
p3051
V0
p3052
tp3053
a(V$showHint
p3054
V3
p3055
tp3056
a(V$d
p3057
V0
p3058
tp3059
a(V$b
p3060
V6
p3061
tp3062
a(V$c
p3063
V0
p3064
tp3065
a(V$a
p3066
V2
p3067
tp3068
a(V$b2
p3069
V6
p3070
tp3071
a(V$cr
p3072
V0
p3073
tp3074
aV2015-10-12 07:07:59
p3075
tp3076
a(g2619
V4*630+1
p3077
(lp3078
(S'R.0.0'
p3079
F4.0
V5-1
p3080
g2901
tp3081
aVsghouse
p3082
(lp3083
(V$n
p3084
V0
p3085
tp3086
a(V$showHint
p3087
V3
p3088
tp3089
a(V$d
p3090
V0
p3091
tp3092
a(V$b
p3093
V5
p3094
tp3095
a(V$c
p3096
V0
p3097
tp3098
a(V$a
p3099
V2
p3100
tp3101
a(V$b2
p3102
V5
p3103
tp3104
a(V$cr
p3105
V0
p3106
tp3107
aV2015-10-12 20:12:06
p3108
tp3109
a(g2674
V(4 - 1)26 + 1
p3110
(lp3111
(S'R.0.0'
p3112
F3.0
V4-1
p3113
V4 - 1
p3114
tp3115
aVv4sharma
p3116
(lp3117
(V$n
p3118
V0
p3119
tp3120
a(V$showHint
p3121
V3
p3122
tp3123
a(V$d
p3124
V0
p3125
tp3126
a(V$b
p3127
V4
p3128
tp3129
a(V$c
p3130
V0
p3131
tp3132
a(V$a
p3133
V2
p3134
tp3135
a(V$b2
p3136
V4
p3137
tp3138
a(V$cr
p3139
V0
p3140
tp3141
aV2015-10-14 00:18:28
p3142
tp3143
a(V(5-1)*P(26,2)+1
p3144
V4*26+1
p3145
(lp3146
(S'R.0.0'
p3147
F4.0
V5-1
p3148
g2901
tp3149
aVmuy002
p3150
g757
V2015-10-14 22:50:30
p3151
tp3152
a(g3144
V(5-1)26+1
p3153
(lp3154
(S'R.0.0'
p3155
F4.0
V5-1
p3156
V5-1
p3157
tp3158
aVmuy002
p3159
g757
V2015-10-14 23:00:32
p3160
tp3161
a(V(3-1)*P(26,3)+1
p3162
V(3-1) 3 + 1
p3163
(lp3164
(S'R.0.0'
p3165
F2.0
V3-1
p3166
V3-1
p3167
tp3168
aVakg009
p3169
(lp3170
(V$n
p3171
V0
p3172
tp3173
a(V$showHint
p3174
V3
p3175
tp3176
a(V$d
p3177
V0
p3178
tp3179
a(V$b
p3180
V3
p3181
tp3182
a(V$c
p3183
V0
p3184
tp3185
a(V$a
p3186
V3
p3187
tp3188
a(V$b2
p3189
V3
p3190
tp3191
a(V$cr
p3192
V0
p3193
tp3194
aV2015-10-15 21:43:36
p3195
tp3196
asg2081
(lp3197
(V(3-1)*P(26,3)+1
p3198
V3(26!/(26-23)!)
p3199
tp3200
a(V(4-1)*P(26,3)+1
p3201
V3! * 4
p3202
tp3203
a(V(6-1)*P(26,2)+1
p3204
V26*25*2*5+1
p3205
tp3206
a(g2896
V3! + 1
p3207
tp3208
a(g2896
V5* ( 27*26*25 + 1)
p3209
tp3210
a(g2896
V5* ( 27!*26!*25! + 1)
p3211
tp3212
a(g2896
V5* ( 26!*25!*24! + 1)
p3213
tp3214
a(V(3-1)*P(26,2)+1
p3215
V3*27*26
p3216
tp3217
a(V(6-1)*P(26,2)+1
p3218
V6*27*26
p3219
tp3220
a(V(5-1)*P(26,3)+1
p3221
VC(26,3)^5
p3222
tp3223
a(V(5-1)*P(26,3)+1
p3224
V5*26!
p3225
tp3226
a(g2671
V26!/(26-3)!
p3227
tp3228
a(V(5-1)*P(26,2)+1
p3229
V26*26*5
p3230
tp3231
a(V(6-1)*P(26,3)+1
p3232
VC(26,3)*6
p3233
tp3234
a(V(6-1)*P(26,2)+1
p3235
V24*23*6
p3236
tp3237
a(V(6-1)*P(26,2)+1
p3238
V26^2 * 2 + 1
p3239
tp3240
a(V(3-1)*P(26,3)+1
p3241
V3*26**3
p3242
tp3243
a(V(5-1)*P(26,2)+1
p3244
V(650-1)*5+1
p3245
tp3246
asS"['R.0.0.0', 'R.0.1.0']"
p3247
(lp3248
(V(4-1)*P(26,3)+1
p3249
V(4-1)26!+1
p3250
(lp3251
(S'R.0.0.0'
p3252
F4.0
g2901
g2901
tp3253
a(S'R.0.1.0'
p3254
F26.0
V26
p3255
V26
p3256
tp3257
aVacs008
p3258
(lp3259
(V$n
p3260
V0
p3261
tp3262
a(V$showHint
p3263
V3
p3264
tp3265
a(V$d
p3266
V0
p3267
tp3268
a(V$b
p3269
V4
p3270
tp3271
a(V$c
p3272
V0
p3273
tp3274
a(V$a
p3275
V3
p3276
tp3277
a(V$b2
p3278
V4
p3279
tp3280
a(V$cr
p3281
V0
p3282
tp3283
aV2015-10-14 21:52:41
p3284
tp3285
asS"['R.0.0.0']"
p3286
(lp3287
(V(4-1)*P(26,3)+1
p3288
V4*26*25*24
p3289
(lp3290
(S'R.0.0.0'
p3291
F4.0
g2901
g2901
tp3292
aVzhw110
p3293
(lp3294
(V$n
p3295
V0
p3296
tp3297
a(V$showHint
p3298
V3
p3299
tp3300
a(V$d
p3301
V0
p3302
tp3303
a(V$b
p3304
V4
p3305
tp3306
a(V$c
p3307
V0
p3308
tp3309
a(V$a
p3310
V3
p3311
tp3312
a(V$b2
p3313
V4
p3314
tp3315
a(V$cr
p3316
V0
p3317
tp3318
aV2015-10-09 04:17:39
p3319
tp3320
a(V(4-1)*P(26,2)+1
p3321
V4*26*25+1
p3322
(lp3323
(S'R.0.0.0'
p3324
F4.0
g2901
g2901
tp3325
aVhabuamar
p3326
(lp3327
(V$n
p3328
V0
p3329
tp3330
a(V$showHint
p3331
V3
p3332
tp3333
a(V$d
p3334
V0
p3335
tp3336
a(V$b
p3337
V4
p3338
tp3339
a(V$c
p3340
V0
p3341
tp3342
a(V$a
p3343
V2
p3344
tp3345
a(V$b2
p3346
V4
p3347
tp3348
a(V$cr
p3349
V0
p3350
tp3351
aV2015-10-09 05:21:10
p3352
tp3353
a(g3215
V3*26*25 + 1
p3354
(lp3355
(S'R.0.0.0'
p3356
F3.0
g86
g86
tp3357
aVasetters
p3358
(lp3359
(V$n
p3360
V0
p3361
tp3362
a(V$showHint
p3363
V3
p3364
tp3365
a(V$d
p3366
V0
p3367
tp3368
a(V$b
p3369
V3
p3370
tp3371
a(V$c
p3372
V0
p3373
tp3374
a(V$a
p3375
V2
p3376
tp3377
a(V$b2
p3378
V3
p3379
tp3380
a(V$cr
p3381
V0
p3382
tp3383
aV2015-10-12 02:18:28
p3384
tp3385
a(g3215
V(3*26*25) + 1
p3386
(lp3387
(S'R.0.0.0'
p3388
F3.0
g86
g86
tp3389
aVasetters
p3390
g3359
V2015-10-12 02:18:51
p3391
tp3392
a(g2633
V4*26*25*24
p3393
(lp3394
(S'R.0.0.0'
p3395
F4.0
g2901
g2901
tp3396
aVacvuong
p3397
(lp3398
(V$n
p3399
V0
p3400
tp3401
a(V$showHint
p3402
V3
p3403
tp3404
a(V$d
p3405
V0
p3406
tp3407
a(V$b
p3408
V4
p3409
tp3410
a(V$c
p3411
V0
p3412
tp3413
a(V$a
p3414
V3
p3415
tp3416
a(V$b2
p3417
V4
p3418
tp3419
a(V$cr
p3420
V0
p3421
tp3422
aV2015-10-13 03:12:03
p3423
tp3424
a(g3218
V6*25*26+1
p3425
(lp3426
(S'R.0.0.0'
p3427
F6.0
V6
p3428
g3428
tp3429
aVnnh002
p3430
(lp3431
(V$n
p3432
V0
p3433
tp3434
a(V$showHint
p3435
V3
p3436
tp3437
a(V$d
p3438
V0
p3439
tp3440
a(V$b
p3441
V6
p3442
tp3443
a(V$c
p3444
V0
p3445
tp3446
a(V$a
p3447
V2
p3448
tp3449
a(V$b2
p3450
V6
p3451
tp3452
a(V$cr
p3453
V0
p3454
tp3455
aV2015-10-13 05:41:40
p3456
tp3457
a(g3224
V5*26*25*24
p3458
(lp3459
(S'R.0.0.0'
p3460
F5.0
g3047
g3047
tp3461
aVjcj006
p3462
g322
V2015-10-13 20:18:27
p3463
tp3464
a(V(4-1)*P(26,3)+1
p3465
V(4-1)26+1
p3466
(lp3467
(S'R.0.0.0'
p3468
F4.0
g2901
g2901
tp3469
aVkvass
p3470
(lp3471
(V$n
p3472
V0
p3473
tp3474
a(V$showHint
p3475
V3
p3476
tp3477
a(V$d
p3478
V0
p3479
tp3480
a(V$b
p3481
V4
p3482
tp3483
a(V$c
p3484
V0
p3485
tp3486
a(V$a
p3487
V3
p3488
tp3489
a(V$b2
p3490
V4
p3491
tp3492
a(V$cr
p3493
V0
p3494
tp3495
aV2015-10-13 21:40:45
p3496
tp3497
a(V(3-1)*P(26,2)+1
p3498
V(3-1)2+1
p3499
(lp3500
(S'R.0.0.0'
p3501
F3.0
g86
g86
tp3502
aVwcwhite
p3503
(lp3504
(V$n
p3505
V0
p3506
tp3507
a(V$showHint
p3508
V3
p3509
tp3510
a(V$d
p3511
V0
p3512
tp3513
a(V$b
p3514
V3
p3515
tp3516
a(V$c
p3517
V0
p3518
tp3519
a(V$a
p3520
V2
p3521
tp3522
a(V$b2
p3523
V3
p3524
tp3525
a(V$cr
p3526
V0
p3527
tp3528
aV2015-10-14 01:34:23
p3529
tp3530
a(g3249
V(4-3)26+1
p3531
(lp3532
(S'R.0.0.0'
p3533
F4.0
g2901
g2901
tp3534
aVacs008
p3535
g3259
V2015-10-14 21:51:08
p3536
tp3537
a(g3249
V(4-1)26+1
p3538
(lp3539
(S'R.0.0.0'
p3540
F4.0
g2901
g2901
tp3541
aVacs008
p3542
g3259
V2015-10-14 21:51:40
p3543
tp3544
a(V(3-1)*P(26,2)+1
p3545
V(3-1)23+1
p3546
(lp3547
(S'R.0.0.0'
p3548
F3.0
g86
g86
tp3549
aVsthapa
p3550
g163
V2015-10-15 04:17:16
p3551
tp3552
a(g3545
V(3-1)23+1
p3553
(lp3554
(S'R.0.0.0'
p3555
F3.0
g86
g86
tp3556
aVsthapa
p3557
g163
V2015-10-15 04:17:53
p3558
tp3559
asS"['R.0.1.0']"
p3560
(lp3561
(V(4-1)*P(26,3)+1
p3562
V4*26!/23!
p3563
(lp3564
(S'R.0.1.0'
p3565
F26.0
V26
p3566
V26
p3567
tp3568
aVlguintu
p3569
g572
V2015-10-09 21:02:53
p3570
tp3571
a(V(4-1)*P(26,3)+1
p3572
V4*26!/23!
p3573
(lp3574
(S'R.0.1.0'
p3575
F26.0
V26
p3576
V26
p3577
tp3578
aVagoldsht
p3579
(lp3580
(V$n
p3581
V0
p3582
tp3583
a(V$showHint
p3584
V3
p3585
tp3586
a(V$d
p3587
V0
p3588
tp3589
a(V$b
p3590
V4
p3591
tp3592
a(V$c
p3593
V0
p3594
tp3595
a(V$a
p3596
V3
p3597
tp3598
a(V$b2
p3599
V4
p3600
tp3601
a(V$cr
p3602
V0
p3603
tp3604
aV2015-10-14 02:10:17
p3605
tp3606
a(V(6-1)*P(26,2)+1
p3607
V2*(26-1)+6
p3608
(lp3609
(S'R.0.1.0'
p3610
F26.0
V26
p3611
V26
p3612
tp3613
aVaurodrig
p3614
g1127
V2015-10-15 01:01:37
p3615
tp3616
a(g3607
V2*(26-1)+1
p3617
(lp3618
(S'R.0.1.0'
p3619
F26.0
V26
p3620
V26
p3621
tp3622
aVaurodrig
p3623
g1127
V2015-10-15 01:01:48
p3624
tp3625
asS"['R.0']"
p3626
(lp3627
(V(4-1)*P(26,2)+1
p3628
V26*25*3+4
p3629
(lp3630
(S'R.0'
p3631
F1950.0
V(4-1)*P(26,2)
p3632
V26*25*3
p3633
tp3634
aVchc286
p3635
(lp3636
(V$n
p3637
V0
p3638
tp3639
a(V$showHint
p3640
V3
p3641
tp3642
a(V$d
p3643
V0
p3644
tp3645
a(V$b
p3646
V4
p3647
tp3648
a(V$c
p3649
V0
p3650
tp3651
a(V$a
p3652
V2
p3653
tp3654
a(V$b2
p3655
V4
p3656
tp3657
a(V$cr
p3658
V0
p3659
tp3660
aV2015-10-11 22:06:04
p3661
tp3662
asg2153
(lp3663
(g3607
V1 - [26!(26-6)!]
p3664
tp3665
a(g3607
V1 - [26!/(26-6)!]
p3666
tp3667
asg2174
(lp3668
(g2536
V26!*3/23!
p3669
tp3670
a(V(3-1)*P(26,2)+1
p3671
V(26*25)/3
p3672
tp3673
a(V(5-1)*P(26,3)+1
p3674
V5*(1/(26!/23!))
p3675
tp3676
a(V(6-1)*P(26,3)+1
p3677
V26!/(26-3)!/26^3
p3678
tp3679
a(g3677
V26^3/26!/(26-3)!
p3680
tp3681
a(g3677
V26^3/(26!/(26-3)!)
p3682
tp3683
a(V(5-1)*P(26,3)+1
p3684
V[1/(20*19*18)]^3
p3685
tp3686
a(g3684
V[1/(20*19*18)]^5
p3687
tp3688
a(g2600
V(26*25)/3!
p3689
tp3690
a(V(3-1)*P(26,2)+1
p3691
V3/(26*25)
p3692
tp3693
a(g3691
V25/(26*25)
p3694
tp3695
a(g3691
V26/(26*25)
p3696
tp3697
a(g3691
V3!/(26*25)
p3698
tp3699
a(V(5-1)*P(26,3)+1
p3700
V26!/(26!*4!)
p3701
tp3702
a(V(4-1)*P(26,2)+1
p3703
V(1/[(26)(25)])^4
p3704
tp3705
a(g3703
V(1/[(26)(25)])(4)
p3706
tp3707
a(V(4-1)*P(26,2)+1
p3708
V26*25/4
p3709
tp3710
a(g2696
V1/(6/(26*25))
p3711
tp3712
a(g2702
V(15599/15600) * (15598/15600) * (15597/15600) * (15596/15600) * 15600
p3713
tp3714
a(V(4-1)*P(26,2)+1
p3715
V1/((26*25)^4)
p3716
tp3717
a(V(4-1)*P(26,2)+1
p3718
V[1/(26*25)]^4
p3719
tp3720
a(V(6-1)*P(26,2)+1
p3721
V(25*26*6)/(25*26)^6
p3722
tp3723
a(g3721
V1/(25*26)^6
p3724
tp3725
a(g3721
V1/(25*26)^6 * 10^17
p3726
tp3727
a(g2743
V5/(26!/23!)
p3728
tp3729
asS"['R.0.1']"
p3730
(lp3731
(g2827
V4(26!/((26-2)!)) + 1
p3732
(lp3733
(S'R.0.1'
p3734
I650
VP(26,2)
p3735
V26!/((26-2)!)
p3736
tp3737
aVsachadal
p3738
g2835
V2015-10-09 18:07:56
p3739
tp3740
a(V(5-1)*P(26,2)+1
p3741
V5(26*25)+1
p3742
(lp3743
(S'R.0.1'
p3744
I650
VP(26,2)
p3745
V26*25
p3746
tp3747
aVthwan
p3748
g609
V2015-10-09 23:21:31
p3749
tp3750
a(V(4-1)*P(26,3)+1
p3751
V4*(26*25*24) + 1
p3752
(lp3753
(S'R.0.1'
p3754
I15600
VP(26,3)
p3755
V26*25*24
p3756
tp3757
aVjdeon
p3758
(lp3759
(V$n
p3760
V0
p3761
tp3762
a(V$showHint
p3763
V3
p3764
tp3765
a(V$d
p3766
V0
p3767
tp3768
a(V$b
p3769
V4
p3770
tp3771
a(V$c
p3772
V0
p3773
tp3774
a(V$a
p3775
V3
p3776
tp3777
a(V$b2
p3778
V4
p3779
tp3780
a(V$cr
p3781
V0
p3782
tp3783
aV2015-10-10 18:12:54
p3784
tp3785
a(g2896
V5* ( 26*25*24) + 1
p3786
(lp3787
(S'R.0.1'
p3788
I15600
VP(26,3)
p3789
V26*25*24
p3790
tp3791
aVkquong
p3792
g2904
V2015-10-10 21:51:18
p3793
tp3794
a(V(6-1)*P(26,3)+1
p3795
V2*[26*25*24]+1
p3796
(lp3797
(S'R.0.1'
p3798
I15600
VP(26,3)
p3799
V26*25*24
p3800
tp3801
aVttimmons
p3802
(lp3803
(V$n
p3804
V0
p3805
tp3806
a(V$showHint
p3807
V3
p3808
tp3809
a(V$d
p3810
V0
p3811
tp3812
a(V$b
p3813
V6
p3814
tp3815
a(V$c
p3816
V0
p3817
tp3818
a(V$a
p3819
V3
p3820
tp3821
a(V$b2
p3822
V6
p3823
tp3824
a(V$cr
p3825
V0
p3826
tp3827
aV2015-10-11 00:51:02
p3828
tp3829
a(g2862
V(3-1)*(26*25)+1
p3830
(lp3831
(S'R.0.1'
p3832
I650
VP(26,2)
p3833
V26*25
p3834
tp3835
aVggaddi
p3836
g2869
V2015-10-12 16:45:42
p3837
tp3838
a(V(3-1)*P(26,3)+1
p3839
V((3)[(26)(25)(24)])+1
p3840
(lp3841
(S'R.0.1'
p3842
I15600
VP(26,3)
p3843
V(26)(25)(24)
p3844
tp3845
aVvolim
p3846
(lp3847
(V$n
p3848
V0
p3849
tp3850
a(V$showHint
p3851
V3
p3852
tp3853
a(V$d
p3854
V0
p3855
tp3856
a(V$b
p3857
V3
p3858
tp3859
a(V$c
p3860
V0
p3861
tp3862
a(V$a
p3863
V3
p3864
tp3865
a(V$b2
p3866
V3
p3867
tp3868
a(V$cr
p3869
V0
p3870
tp3871
aV2015-10-12 22:08:20
p3872
tp3873
a(V(6-1)*P(26,3)+1
p3874
V(3 - 1)(26*25*24)+1
p3875
(lp3876
(S'R.0.1'
p3877
I15600
VP(26,3)
p3878
V26*25*24
p3879
tp3880
aVfichoi
p3881
g356
V2015-10-14 01:32:01
p3882
tp3883
a(V(3-1)*P(26,3)+1
p3884
V3*(26*25*24)+1
p3885
(lp3886
(S'R.0.1'
p3887
I15600
VP(26,3)
p3888
V26*25*24
p3889
tp3890
aVdcgriffi
p3891
(lp3892
(V$n
p3893
V0
p3894
tp3895
a(V$showHint
p3896
V3
p3897
tp3898
a(V$d
p3899
V0
p3900
tp3901
a(V$b
p3902
V3
p3903
tp3904
a(V$c
p3905
V0
p3906
tp3907
a(V$a
p3908
V3
p3909
tp3910
a(V$b2
p3911
V3
p3912
tp3913
a(V$cr
p3914
V0
p3915
tp3916
aV2015-10-14 06:46:01
p3917
tp3918
a(V(4-1)*P(26,3)+1
p3919
V4(26!/23!) + 1
p3920
(lp3921
(S'R.0.1'
p3922
I15600
VP(26,3)
p3923
V26!/23!
p3924
tp3925
aVkebao
p3926
(lp3927
(V$n
p3928
V0
p3929
tp3930
a(V$showHint
p3931
V3
p3932
tp3933
a(V$d
p3934
V0
p3935
tp3936
a(V$b
p3937
V4
p3938
tp3939
a(V$c
p3940
V0
p3941
tp3942
a(V$a
p3943
V3
p3944
tp3945
a(V$b2
p3946
V4
p3947
tp3948
a(V$cr
p3949
V0
p3950
tp3951
aV2015-10-15 04:40:54
p3952
tp3953
asS"['R.0.1.1']"
p3954
(lp3955
(g2674
V26 * 25^2 * 24^2 * 23
p3956
(lp3957
(S'R.0.1.1'
p3958
F2.0
g12
g12
tp3959
aVv4sharma
p3960
g3117
V2015-10-14 00:06:48
p3961
tp3962
asS"['R.0.1.0', 'R.0.1.1']"
p3963
(lp3964
(g3741
V5(26^2)+1
p3965
(lp3966
(S'R.0.1.0'
p3967
F26.0
V26
p3968
V26
p3969
tp3970
a(S'R.0.1.1'
p3971
F2.0
g12
g12
tp3972
aVthwan
p3973
g609
V2015-10-09 23:20:33
p3974
tp3975
asS"['R.0.0', 'R.0.1.0']"
p3976
(lp3977
(g3229
V(5-1)(26*26)+1
p3978
(lp3979
(S'R.0.0'
p3980
F4.0
V5-1
p3981
V5-1
p3982
tp3983
a(S'R.0.1.0'
p3984
F26.0
V26
p3985
V26
p3986
tp3987
aVflhernan
p3988
g1053
V2015-10-14 18:56:04
p3989
tp3990
ass.