(dp0
V1
p1
ccollections
defaultdict
p2
(c__builtin__
list
p3
tp4
Rp5
S'Digits'
p6
(lp7
(V4^9
p8
V36
p9
tp10
a(V3^13
p11
V286
p12
tp13
a(V6^9
p14
V1
p15
tp16
a(V9^13
p17
V4476780
p18
tp19
a(g17
V259459200
p20
tp21
a(g17
V17160
p22
tp23
a(g17
V715
p24
tp25
a(g17
V6227020800
p26
tp27
a(V9^11
p28
V9
p29
tp30
a(g28
V1
p31
tp32
a(V10^15
p33
V4320
p34
tp35
a(g33
V3003
p36
tp37
a(g33
V360360
p38
tp39
a(g33
V720720
p40
tp41
a(g33
V3003
p42
tp43
a(V2^10
p44
V20
p45
tp46
a(V7^11
p47
V77
p48
tp49
a(V5^9
p50
V45
p51
tp52
a(V6^7
p53
V7
p54
tp55
a(g53
V7
p56
tp57
a(V2^7
p58
V42
p59
tp60
a(g58
V49
p61
tp62
a(g58
V14
p63
tp64
a(V13^14
p65
V14
p66
tp67
a(g65
V14
p68
tp69
a(V8^9
p70
V9
p71
tp72
a(g33
V1
p73
tp74
a(V2^7
p75
V8
p76
tp77
a(V9^11
p78
V75582
p79
tp80
a(g78
V75582
p81
tp82
a(V3^13
p83
V286
p84
tp85
a(V8^15
p86
V259459200
p87
tp88
a(g86
V6435
p89
tp90
a(g86
V6435
p91
tp92
a(g86
V259459200
p93
tp94
a(g86
V319,770
p95
tp96
a(g86
V319770
p97
tp98
a(V2^12
p99
V78
p100
tp101
a(g99
V13
p102
tp103
a(V11^13
p104
V1307504
p105
tp106
a(g104
V817190
p107
tp108
a(g104
V1792160394037
p109
tp110
a(V8^9
p111
V362880
p112
tp113
a(V2^12
p114
V12
p115
tp116
a(g114
V24
p117
tp118
a(g114
V2
p119
tp120
a(g114
V57
p121
tp122
a(g114
V13
p123
tp124
a(V6^7
p125
V6
p126
tp127
a(g125
V14
p128
tp129
a(g125
V37
p130
tp131
a(V10^11
p132
V110
p133
tp134
a(V8^13
p135
V1
p136
tp137
a(V2^11
p138
V110
p139
tp140
a(V3^9
p141
V504
p142
tp143
a(g141
V9
p144
tp145
a(g141
V81
p146
tp147
a(g141
V504
p148
tp149
a(g141
V84
p150
tp151
a(g141
V27
p152
tp153
a(g141
V3
p154
tp155
a(g141
V27
p156
tp157
a(g141
V10
p158
tp159
a(g141
V252
p160
tp161
a(g141
V756
p162
tp163
a(V4^12
p164
V48
p165
tp166
a(V7^11
p167
V330
p168
tp169
a(V5^13
p170
V1287
p171
tp172
a(g170
V154440
p173
tp174
a(g83
V39
p175
tp176
a(V4^7
p177
V21
p178
tp179
a(V2^10
p180
V90
p181
tp182
a(g180
V100
p183
tp184
a(g180
V45
p185
tp186
a(V3^7
p187
V210
p188
tp189
a(g187
V35
p190
tp191
a(g187
V343
p192
tp193
a(g187
V286
p194
tp195
a(g187
V36
p196
tp197
a(g187
V70
p198
tp199
a(V4^10
p200
V715
p201
tp202
a(g200
V0
p203
tp204
a(V6^12
p205
V12
p206
tp207
a(V5^12
p208
V60
p209
tp210
a(g208
V13
p211
tp212
a(V4^10
p213
V40
p214
tp215
a(V9^10
p216
V48620
p217
tp218
a(V6^8
p219
V28
p220
tp221
a(V3^9
p222
V27
p223
tp224
a(g222
V54
p225
tp226
a(V3^13
p227
V286
p228
tp229
a(V6^11
p230
V66
p231
tp232
a(g230
V11
p233
tp234
a(g216
V8568
p235
tp236
a(g216
V43758
p237
tp238
a(V4^7
p239
V28
p240
tp241
a(V7^12
p242
V792
p243
tp244
a(V4^10
p245
V40
p246
tp247
a(g245
V1000
p248
tp249
a(V8^9
p250
V9
p251
tp252
a(g250
V362880
p253
tp254
a(V10^12
p255
V239500800
p256
tp257
a(g242
V84
p258
tp259
a(V3^7
p260
V35
p261
tp262
a(g260
V210
p263
tp264
a(g260
V84
p265
tp266
a(g260
V35
p267
tp268
a(g260
V38
p269
tp270
a(V8^10
p271
V80
p272
tp273
a(V2^11
p274
V110
p275
tp276
a(V11^13
p277
V78
p278
tp279
a(g277
V3113510400
p280
tp281
a(V6^12
p282
V6
p283
tp284
a(V2^7
p285
V21
p286
tp287
a(V7^11
p288
V11
p289
tp290
a(g288
V77
p291
tp292
a(V13^15
p293
V15
p294
tp295
a(V4^7
p296
V28
p297
tp298
a(g296
V35
p299
tp300
a(g293
V26
p301
tp302
a(V2^11
p303
V12
p304
tp305
a(V8^13
p306
V51891840
p307
tp308
a(V7^10
p309
V10
p310
tp311
a(g309
V7
p312
tp313
a(V6^8
p314
V56
p315
tp316
a(V7^10
p317
V61
p318
tp319
a(V3^10
p320
V30
p321
tp322
a(V2^13
p323
V26
p324
tp325
a(V3^8
p326
V56
p327
tp328
a(g326
V336
p329
tp330
a(g326
V27
p331
tp332
a(g326
V8
p333
tp334
a(V2^15
p335
V15
p336
tp337
a(V6^7
p338
V7
p339
tp340
a(V5^10
p341
V45
p342
tp343
a(g341
V252
p344
tp345
a(g341
V1
p346
tp347
a(g341
V10
p348
tp349
a(V3^9
p350
V6
p351
tp352
a(V5^11
p353
V55440
p354
tp355
a(g353
V462
p356
tp357
a(V7^10
p358
V120
p359
tp360
a(V5^13
p361
V2380
p362
tp363
a(V12^13
p364
V13
p365
tp366
a(g364
V12
p367
tp368
a(V7^15
p369
V6435
p370
tp371
a(g369
V105
p372
tp373
a(g364
V13
p374
tp375
a(g277
V78
p376
tp377
a(g277
V3113510400
p378
tp379
a(V8^14
p380
V112
p381
tp382
a(V3^10
p383
V12
p384
tp385
a(g383
V6
p386
tp387
a(g383
V20
p388
tp389
a(g309
V17
p390
tp391
a(g309
V70
p392
tp393
a(g309
V10
p394
tp395
a(V10^11
p396
V110
p397
tp398
a(g396
V100
p399
tp400
a(V4^11
p401
V330
p402
tp403
a(g401
V120
p404
tp405
a(V11^12
p406
V12
p407
tp408
a(g396
V11
p409
tp410
a(V11^12
p411
V1352078
p412
tp413
a(g411
V12
p414
tp415
asS"['R.1']"
p416
(lp417
(g14
V6!*9
p418
(lp419
(S'R.1'
p420
F9.0
V9
p421
g421
tp422
aVlguintu
p423
(lp424
(V$R1
p425
V9
p426
tp427
a(V$R2
p428
V6
p429
tp430
a(V$R1
p431
V9
p432
tp433
a(V$R2
p434
V6
p435
tp436
aV2015-10-09 21:16:11
p437
tp438
a(g14
VC(16,9)
p439
(lp440
(S'R.1'
p441
F9.0
g421
g421
tp442
aVlguintu
p443
g424
V2015-10-09 21:25:06
p444
tp445
a(g14
VP(16,9)
p446
(lp447
(S'R.1'
p448
F9.0
g421
g421
tp449
aVlguintu
p450
g424
V2015-10-09 21:25:12
p451
tp452
a(g14
V6!*9
p453
(lp454
(S'R.1'
p455
F9.0
g421
g421
tp456
aVlguintu
p457
g424
V2015-10-09 21:29:59
p458
tp459
a(V6^8
p460
VC(12, 8)
p461
(lp462
(S'R.1'
p463
F8.0
V8
p464
g464
tp465
aVatorr
p466
(lp467
(V$R1
p468
V8
p469
tp470
a(V$R2
p471
V6
p472
tp473
a(V$R1
p474
V8
p475
tp476
a(V$R2
p477
V6
p478
tp479
aV2015-10-11 01:22:38
p480
tp481
a(g28
VC(19,11)
p482
(lp483
(S'R.1'
p484
F11.0
V11
p485
V11
p486
tp487
aVvasharma
p488
(lp489
(V$R1
p490
V11
p491
tp492
a(V$R2
p493
V9
p494
tp495
a(V$R1
p496
V11
p497
tp498
a(V$R2
p499
V9
p500
tp501
aV2015-10-11 06:07:03
p502
tp503
a(g28
VP(20,11)
p504
(lp505
(S'R.1'
p506
F11.0
V11
p507
V11
p508
tp509
aVvasharma
p510
g489
V2015-10-11 06:19:13
p511
tp512
a(g28
VC(20,11)
p513
(lp514
(S'R.1'
p515
F11.0
V11
p516
V11
p517
tp518
aVvasharma
p519
g489
V2015-10-11 06:19:54
p520
tp521
a(g65
VC(27,14)
p522
(lp523
(S'R.1'
p524
F14.0
V14
p525
V14
p526
tp527
aVlalacson
p528
(lp529
(V$R1
p530
V14
p531
tp532
a(V$R2
p533
V13
p534
tp535
a(V$R1
p536
V14
p537
tp538
a(V$R2
p539
V13
p540
tp541
aV2015-10-11 16:46:22
p542
tp543
a(g65
VC(26,14)
p544
(lp545
(S'R.1'
p546
F14.0
V14
p547
V14
p548
tp549
aVlalacson
p550
g529
V2015-10-11 16:46:32
p551
tp552
a(g70
VC(16,9)
p553
(lp554
(S'R.1'
p555
F9.0
g421
g421
tp556
aVsmohiman
p557
(lp558
(V$R1
p559
V9
p560
tp561
a(V$R2
p562
V8
p563
tp564
a(V$R1
p565
V9
p566
tp567
a(V$R2
p568
V8
p569
tp570
aV2015-10-11 19:38:18
p571
tp572
a(g70
VC(16,9)
p573
(lp574
(S'R.1'
p575
F9.0
g421
g421
tp576
aVsmohiman
p577
g558
V2015-10-11 19:44:56
p578
tp579
a(V3^12
p580
VC(14,12)
p581
(lp582
(S'R.1'
p583
F12.0
V12
p584
V12
p585
tp586
aVjblynch
p587
(lp588
(V$R1
p589
V12
p590
tp591
a(V$R2
p592
V3
p593
tp594
a(V$R1
p595
V12
p596
tp597
a(V$R2
p598
V3
p599
tp600
aV2015-10-12 07:04:08
p601
tp602
a(g99
V13*12
p603
(lp604
(S'R.1'
p605
F12.0
V12
p606
V12
p607
tp608
aVl8ngo
p609
(lp610
(V$R1
p611
V12
p612
tp613
a(V$R2
p614
V2
p615
tp616
a(V$R1
p617
V12
p618
tp619
a(V$R2
p620
V2
p621
tp622
aV2015-10-12 15:26:28
p623
tp624
a(g208
VC(16,12)
p625
(lp626
(S'R.1'
p627
F12.0
V12
p628
V12
p629
tp630
aVpcdo
p631
(lp632
(V$R1
p633
V12
p634
tp635
a(V$R2
p636
V5
p637
tp638
a(V$R1
p639
V12
p640
tp641
a(V$R2
p642
V5
p643
tp644
aV2015-10-13 20:55:29
p645
tp646
a(g205
VC(12+6-1, 12)
p647
(lp648
(S'R.1'
p649
F12.0
V12
p650
V12
p651
tp652
aVjcl084
p653
(lp654
(V$R1
p655
V12
p656
tp657
a(V$R2
p658
V6
p659
tp660
a(V$R1
p661
V12
p662
tp663
a(V$R2
p664
V6
p665
tp666
aV2015-10-13 21:22:16
p667
tp668
a(V6^7
p669
V2**7
p670
(lp671
(S'R.1'
p672
F7.0
V7
p673
g673
tp674
aVaysee
p675
(lp676
(V$R1
p677
V7
p678
tp679
a(V$R2
p680
V6
p681
tp682
a(V$R1
p683
V7
p684
tp685
a(V$R2
p686
V6
p687
tp688
aV2015-10-13 23:05:18
p689
tp690
a(V7^15
p691
V15*7*15
p692
(lp693
(S'R.1'
p694
F15.0
V15
p695
V15
p696
tp697
aVksmurlo
p698
(lp699
(V$R1
p700
V15
p701
tp702
a(V$R2
p703
V7
p704
tp705
a(V$R1
p706
V15
p707
tp708
a(V$R2
p709
V7
p710
tp711
aV2015-10-13 23:12:27
p712
tp713
a(g691
V(15*7)*15
p714
(lp715
(S'R.1'
p716
F15.0
V15
p717
V15
p718
tp719
aVksmurlo
p720
g699
V2015-10-13 23:15:42
p721
tp722
a(g222
VC(11,9)
p723
(lp724
(S'R.1'
p725
F9.0
g421
g421
tp726
aVmcatozzi
p727
(lp728
(V$R1
p729
V9
p730
tp731
a(V$R2
p732
V3
p733
tp734
a(V$R1
p735
V9
p736
tp737
a(V$R2
p738
V3
p739
tp740
aV2015-10-14 00:07:12
p741
tp742
a(V7^9
p743
VC(15, 9)
p744
(lp745
(S'R.1'
p746
F9.0
g421
g421
tp747
aVv4sharma
p748
(lp749
(V$R1
p750
V9
p751
tp752
a(V$R2
p753
V7
p754
tp755
a(V$R1
p756
V9
p757
tp758
a(V$R2
p759
V7
p760
tp761
aV2015-10-14 00:57:30
p762
tp763
a(g216
V2^10
p764
(lp765
(S'R.1'
p766
F10.0
V10
p767
V10
p768
tp769
aVaportuga
p770
(lp771
(V$R1
p772
V10
p773
tp774
a(V$R2
p775
V9
p776
tp777
a(V$R1
p778
V10
p779
tp780
a(V$R2
p781
V9
p782
tp783
aV2015-10-14 02:40:48
p784
tp785
a(g216
V10!-10
p786
(lp787
(S'R.1'
p788
F10.0
V10
p789
V10
p790
tp791
aVaportuga
p792
g771
V2015-10-14 03:05:33
p793
tp794
a(V10^13
p795
V12^13
p796
(lp797
(S'R.1'
p798
F13.0
V13
p799
V13
p800
tp801
aVthk002
p802
(lp803
(V$R1
p804
V13
p805
tp806
a(V$R2
p807
V10
p808
tp809
a(V$R1
p810
V13
p811
tp812
a(V$R2
p813
V10
p814
tp815
aV2015-10-14 06:48:34
p816
tp817
a(g296
V35 * 7
p818
(lp819
(S'R.1'
p820
F7.0
g673
g673
tp821
aVmhale
p822
(lp823
(V$R1
p824
V7
p825
tp826
a(V$R2
p827
V4
p828
tp829
a(V$R1
p830
V7
p831
tp832
a(V$R2
p833
V4
p834
tp835
aV2015-10-14 21:53:51
p836
tp837
a(V4^12
p838
V5^12
p839
(lp840
(S'R.1'
p841
F12.0
V12
p842
V12
p843
tp844
aVmrchin
p845
(lp846
(V$R1
p847
V12
p848
tp849
a(V$R2
p850
V4
p851
tp852
a(V$R1
p853
V12
p854
tp855
a(V$R2
p856
V4
p857
tp858
aV2015-10-14 22:26:48
p859
tp860
a(V7^10
p861
V2^10
p862
(lp863
(S'R.1'
p864
F10.0
V10
p865
V10
p866
tp867
aVhaw081
p868
(lp869
(V$R1
p870
V10
p871
tp872
a(V$R2
p873
V7
p874
tp875
a(V$R1
p876
V10
p877
tp878
a(V$R2
p879
V7
p880
tp881
aV2015-10-15 02:53:40
p882
tp883
a(V12^14
p884
V14*12*14
p885
(lp886
(S'R.1'
p887
F14.0
V14
p888
V14
p889
tp890
aVsthapa
p891
(lp892
(V$R1
p893
V14
p894
tp895
a(V$R2
p896
V12
p897
tp898
a(V$R1
p899
V14
p900
tp901
a(V$R2
p902
V12
p903
tp904
aV2015-10-15 04:39:02
p905
tp906
a(g884
VC(25,14)
p907
(lp908
(S'R.1'
p909
F14.0
V14
p910
V14
p911
tp912
aVsthapa
p913
g892
V2015-10-15 04:51:57
p914
tp915
a(g361
V(5!)^13
p916
(lp917
(S'R.1'
p918
F13.0
V13
p919
V13
p920
tp921
aVanl114
p922
(lp923
(V$R1
p924
V13
p925
tp926
a(V$R2
p927
V5
p928
tp929
a(V$R1
p930
V13
p931
tp932
a(V$R2
p933
V5
p934
tp935
aV2015-10-15 07:44:26
p936
tp937
a(g364
V13!13
p938
(lp939
(S'R.1'
p940
F13.0
V13
p941
V13
p942
tp943
aVielouaae
p944
(lp945
(V$R1
p946
V13
p947
tp948
a(V$R2
p949
V12
p950
tp951
a(V$R1
p952
V13
p953
tp954
a(V$R2
p955
V12
p956
tp957
aV2015-10-15 07:50:02
p958
tp959
a(g364
V13!/13
p960
(lp961
(S'R.1'
p962
F13.0
V13
p963
V13
p964
tp965
aVielouaae
p966
g945
V2015-10-15 08:20:49
p967
tp968
a(g383
VC(12,10)
p969
(lp970
(S'R.1'
p971
F10.0
V10
p972
V10
p973
tp974
aVr1gu
p975
(lp976
(V$R1
p977
V10
p978
tp979
a(V$R2
p980
V3
p981
tp982
a(V$R1
p983
V10
p984
tp985
a(V$R2
p986
V3
p987
tp988
aV2015-10-15 11:59:00
p989
tp990
a(V4^9
p991
VC(12,9)
p992
(lp993
(S'R.1'
p994
F9.0
g421
g421
tp995
aVjtfrankl
p996
(lp997
(V$R1
p998
V9
p999
tp1000
a(V$R2
p1001
V4
p1002
tp1003
a(V$R1
p1004
V9
p1005
tp1006
a(V$R2
p1007
V4
p1008
tp1009
aV2015-10-15 20:56:52
p1010
tp1011
a(V3^7
p1012
VC(9,7)
p1013
(lp1014
(S'R.1'
p1015
F7.0
g673
g673
tp1016
aVanislam
p1017
(lp1018
(V$R1
p1019
V7
p1020
tp1021
a(V$R2
p1022
V3
p1023
tp1024
a(V$R1
p1025
V7
p1026
tp1027
a(V$R2
p1028
V3
p1029
tp1030
aV2015-10-15 23:03:18
p1031
tp1032
asS"['R.0', 'R.1']"
p1033
(lp1034
(V2^8
p1035
V2*8
p1036
(lp1037
(S'R.0'
p1038
F2.0
V2
p1039
g1039
tp1040
a(S'R.1'
p1041
F8.0
g464
g464
tp1042
aVasetters
p1043
(lp1044
(V$R1
p1045
V8
p1046
tp1047
a(V$R2
p1048
V2
p1049
tp1050
a(V$R1
p1051
V8
p1052
tp1053
a(V$R2
p1054
V2
p1055
tp1056
aV2015-10-12 06:05:21
p1057
tp1058
a(V4^14
p1059
V4(14)
p1060
(lp1061
(S'R.0'
p1062
F4.0
V4
p1063
g1063
tp1064
a(S'R.1'
p1065
F14.0
V14
p1066
V14
p1067
tp1068
aVglcohen
p1069
(lp1070
(V$R1
p1071
V14
p1072
tp1073
a(V$R2
p1074
V4
p1075
tp1076
a(V$R1
p1077
V14
p1078
tp1079
a(V$R2
p1080
V4
p1081
tp1082
aV2015-10-13 05:02:13
p1083
tp1084
a(V2^7
p1085
V2*7
p1086
(lp1087
(S'R.0'
p1088
F2.0
g1039
g1039
tp1089
a(S'R.1'
p1090
F7.0
g673
g673
tp1091
aVmsaguiar
p1092
(lp1093
(V$R1
p1094
V7
p1095
tp1096
a(V$R2
p1097
V2
p1098
tp1099
a(V$R1
p1100
V7
p1101
tp1102
a(V$R2
p1103
V2
p1104
tp1105
aV2015-10-14 04:13:15
p1106
tp1107
a(V8^14
p1108
V8 * 14
p1109
(lp1110
(S'R.0'
p1111
F8.0
g464
g464
tp1112
a(S'R.1'
p1113
F14.0
V14
p1114
V14
p1115
tp1116
aVhmnaing
p1117
(lp1118
(V$R1
p1119
V14
p1120
tp1121
a(V$R2
p1122
V8
p1123
tp1124
a(V$R1
p1125
V14
p1126
tp1127
a(V$R2
p1128
V8
p1129
tp1130
aV2015-10-15 00:29:54
p1131
tp1132
a(g309
V7*10
p1133
(lp1134
(S'R.0'
p1135
F7.0
g673
g673
tp1136
a(S'R.1'
p1137
F10.0
V10
p1138
V10
p1139
tp1140
aVjag028
p1141
(lp1142
(V$R1
p1143
V10
p1144
tp1145
a(V$R2
p1146
V7
p1147
tp1148
a(V$R1
p1149
V10
p1150
tp1151
a(V$R2
p1152
V7
p1153
tp1154
aV2015-10-15 00:36:07
p1155
tp1156
a(V9^14
p1157
V9*14
p1158
(lp1159
(S'R.0'
p1160
F9.0
g421
g421
tp1161
a(S'R.1'
p1162
F14.0
V14
p1163
V14
p1164
tp1165
aVhsc052
p1166
(lp1167
(V$R1
p1168
V14
p1169
tp1170
a(V$R2
p1171
V9
p1172
tp1173
a(V$R1
p1174
V14
p1175
tp1176
a(V$R2
p1177
V9
p1178
tp1179
aV2015-10-15 05:32:24
p1180
tp1181
a(V5^11
p1182
V5*11
p1183
(lp1184
(S'R.0'
p1185
F5.0
V5
p1186
g1186
tp1187
a(S'R.1'
p1188
F11.0
V11
p1189
V11
p1190
tp1191
aVdis003
p1192
(lp1193
(V$R1
p1194
V11
p1195
tp1196
a(V$R2
p1197
V5
p1198
tp1199
a(V$R1
p1200
V11
p1201
tp1202
a(V$R2
p1203
V5
p1204
tp1205
aV2015-10-15 11:02:26
p1206
tp1207
a(g396
V10*11
p1208
(lp1209
(S'R.0'
p1210
F10.0
V10
p1211
V10
p1212
tp1213
a(S'R.1'
p1214
F11.0
V11
p1215
V11
p1216
tp1217
aVralhadda
p1218
(lp1219
(V$R1
p1220
V11
p1221
tp1222
a(V$R2
p1223
V10
p1224
tp1225
a(V$R1
p1226
V11
p1227
tp1228
a(V$R2
p1229
V10
p1230
tp1231
aV2015-10-15 21:37:57
p1232
tp1233
asS"['R.0']"
p1234
(lp1235
(g14
V6!
p1236
(lp1237
(S'R.0'
p1238
F6.0
V6
p1239
g1239
tp1240
aVlguintu
p1241
g424
V2015-10-09 21:15:59
p1242
tp1243
a(g17
V9!
p1244
(lp1245
(S'R.0'
p1246
F9.0
g421
g421
tp1247
aVsrl006
p1248
(lp1249
(V$R1
p1250
V13
p1251
tp1252
a(V$R2
p1253
V9
p1254
tp1255
a(V$R1
p1256
V13
p1257
tp1258
a(V$R2
p1259
V9
p1260
tp1261
aV2015-10-10 05:33:32
p1262
tp1263
a(g28
V9!
p1264
(lp1265
(S'R.0'
p1266
F9.0
g421
g421
tp1267
aVvasharma
p1268
g489
V2015-10-10 07:43:52
p1269
tp1270
a(V12^14
p1271
V12!
p1272
(lp1273
(S'R.0'
p1274
F12.0
V12
p1275
V12
p1276
tp1277
aVqfu
p1278
(lp1279
(V$R1
p1280
V14
p1281
tp1282
a(V$R2
p1283
V12
p1284
tp1285
a(V$R1
p1286
V14
p1287
tp1288
a(V$R2
p1289
V12
p1290
tp1291
aV2015-10-10 16:52:34
p1292
tp1293
a(g33
V10!
p1294
(lp1295
(S'R.0'
p1296
F10.0
V10
p1297
V10
p1298
tp1299
aVhkhodada
p1300
(lp1301
(V$R1
p1302
V15
p1303
tp1304
a(V$R2
p1305
V10
p1306
tp1307
a(V$R1
p1308
V15
p1309
tp1310
a(V$R2
p1311
V10
p1312
tp1313
aV2015-10-10 17:17:38
p1314
tp1315
a(g33
V10!
p1316
(lp1317
(S'R.0'
p1318
F10.0
V10
p1319
V10
p1320
tp1321
aVhkhodada
p1322
g1301
V2015-10-10 18:26:58
p1323
tp1324
a(g460
VC(6,2)
p1325
(lp1326
(S'R.0'
p1327
F6.0
g1239
g1239
tp1328
aVatorr
p1329
g467
V2015-10-11 01:19:24
p1330
tp1331
a(g460
V6!
p1332
(lp1333
(S'R.0'
p1334
F6.0
g1239
g1239
tp1335
aVatorr
p1336
g467
V2015-10-11 03:56:22
p1337
tp1338
a(g460
VC(6,2)
p1339
(lp1340
(S'R.0'
p1341
F6.0
g1239
g1239
tp1342
aVatorr
p1343
g467
V2015-10-11 04:34:17
p1344
tp1345
a(g28
V9!
p1346
(lp1347
(S'R.0'
p1348
F9.0
g421
g421
tp1349
aVvasharma
p1350
g489
V2015-10-11 06:08:05
p1351
tp1352
a(g65
V13!
p1353
(lp1354
(S'R.0'
p1355
F13.0
V13
p1356
V13
p1357
tp1358
aVlalacson
p1359
g529
V2015-10-11 16:44:15
p1360
tp1361
a(V7^10
p1362
V7!
p1363
(lp1364
(S'R.0'
p1365
F7.0
g673
g673
tp1366
aVrlhagen
p1367
(lp1368
(V$R1
p1369
V10
p1370
tp1371
a(V$R2
p1372
V7
p1373
tp1374
a(V$R1
p1375
V10
p1376
tp1377
a(V$R2
p1378
V7
p1379
tp1380
aV2015-10-11 18:06:17
p1381
tp1382
a(V9^11
p1383
V9!
p1384
(lp1385
(S'R.0'
p1386
F9.0
g421
g421
tp1387
aVrwthomps
p1388
(lp1389
(V$R1
p1390
V11
p1391
tp1392
a(V$R2
p1393
V9
p1394
tp1395
a(V$R1
p1396
V11
p1397
tp1398
a(V$R2
p1399
V9
p1400
tp1401
aV2015-10-11 22:23:42
p1402
tp1403
a(g33
VC(10,5)
p1404
(lp1405
(S'R.0'
p1406
F10.0
V10
p1407
V10
p1408
tp1409
aVhkhodada
p1410
g1301
V2015-10-12 01:25:35
p1411
tp1412
a(g86
V8^8
p1413
(lp1414
(S'R.0'
p1415
F8.0
g464
g464
tp1416
aVtstevens
p1417
(lp1418
(V$R1
p1419
V15
p1420
tp1421
a(V$R2
p1422
V8
p1423
tp1424
a(V$R1
p1425
V15
p1426
tp1427
a(V$R2
p1428
V8
p1429
tp1430
aV2015-10-12 10:23:22
p1431
tp1432
a(V10^12
p1433
V10!
p1434
(lp1435
(S'R.0'
p1436
F10.0
V10
p1437
V10
p1438
tp1439
aVewbrenna
p1440
(lp1441
(V$R1
p1442
V12
p1443
tp1444
a(V$R2
p1445
V10
p1446
tp1447
a(V$R1
p1448
V12
p1449
tp1450
a(V$R2
p1451
V10
p1452
tp1453
aV2015-10-12 19:53:40
p1454
tp1455
a(g125
V6*6
p1456
(lp1457
(S'R.0'
p1458
F6.0
g1239
g1239
tp1459
aVsayao
p1460
(lp1461
(V$R1
p1462
V7
p1463
tp1464
a(V$R2
p1465
V6
p1466
tp1467
a(V$R1
p1468
V7
p1469
tp1470
a(V$R2
p1471
V6
p1472
tp1473
aV2015-10-12 22:26:30
p1474
tp1475
a(g135
VC(8,4)
p1476
(lp1477
(S'R.0'
p1478
F8.0
g464
g464
tp1479
aVs2chaudh
p1480
(lp1481
(V$R1
p1482
V13
p1483
tp1484
a(V$R2
p1485
V8
p1486
tp1487
a(V$R1
p1488
V13
p1489
tp1490
a(V$R2
p1491
V8
p1492
tp1493
aV2015-10-13 00:12:46
p1494
tp1495
a(g138
V2*11!
p1496
(lp1497
(S'R.0'
p1498
F2.0
g1039
g1039
tp1499
aVlywong
p1500
(lp1501
(V$R1
p1502
V11
p1503
tp1504
a(V$R2
p1505
V2
p1506
tp1507
a(V$R1
p1508
V11
p1509
tp1510
a(V$R2
p1511
V2
p1512
tp1513
aV2015-10-13 00:12:53
p1514
tp1515
a(g861
V7!
p1516
(lp1517
(S'R.0'
p1518
F7.0
g673
g673
tp1519
aVhaw081
p1520
g869
V2015-10-13 00:36:17
p1521
tp1522
a(V8^10
p1523
V8!
p1524
(lp1525
(S'R.0'
p1526
F8.0
g464
g464
tp1527
aVdlgoldbe
p1528
(lp1529
(V$R1
p1530
V10
p1531
tp1532
a(V$R2
p1533
V8
p1534
tp1535
a(V$R1
p1536
V10
p1537
tp1538
a(V$R2
p1539
V8
p1540
tp1541
aV2015-10-13 01:17:01
p1542
tp1543
a(g141
V3*9!
p1544
(lp1545
(S'R.0'
p1546
F3.0
V3
p1547
g1547
tp1548
aVwhcombs
p1549
(lp1550
(V$R1
p1551
V9
p1552
tp1553
a(V$R2
p1554
V3
p1555
tp1556
a(V$R1
p1557
V9
p1558
tp1559
a(V$R2
p1560
V3
p1561
tp1562
aV2015-10-13 02:50:23
p1563
tp1564
a(g1059
V4(14!)
p1565
(lp1566
(S'R.0'
p1567
F4.0
g1063
g1063
tp1568
aVglcohen
p1569
g1070
V2015-10-13 05:02:09
p1570
tp1571
a(V9^10
p1572
V9!
p1573
(lp1574
(S'R.0'
p1575
F9.0
g421
g421
tp1576
aVk3tan
p1577
(lp1578
(V$R1
p1579
V10
p1580
tp1581
a(V$R2
p1582
V9
p1583
tp1584
a(V$R1
p1585
V10
p1586
tp1587
a(V$R2
p1588
V9
p1589
tp1590
aV2015-10-13 05:25:44
p1591
tp1592
a(g125
V6!
p1593
(lp1594
(S'R.0'
p1595
F6.0
g1239
g1239
tp1596
aVsayao
p1597
g1461
V2015-10-13 16:29:09
p1598
tp1599
a(g125
V6^3
p1600
(lp1601
(S'R.0'
p1602
F6.0
g1239
g1239
tp1603
aVsayao
p1604
g1461
V2015-10-13 16:30:06
p1605
tp1606
a(g125
V6^6
p1607
(lp1608
(S'R.0'
p1609
F6.0
g1239
g1239
tp1610
aVsayao
p1611
g1461
V2015-10-13 16:30:26
p1612
tp1613
a(g33
V10^10
p1614
(lp1615
(S'R.0'
p1616
F10.0
V10
p1617
V10
p1618
tp1619
aVhkhodada
p1620
g1301
V2015-10-13 19:37:17
p1621
tp1622
a(g208
V5!
p1623
(lp1624
(S'R.0'
p1625
F5.0
g1186
g1186
tp1626
aVpcdo
p1627
g632
V2015-10-13 20:57:39
p1628
tp1629
a(g216
V9!
p1630
(lp1631
(S'R.0'
p1632
F9.0
g421
g421
tp1633
aVaportuga
p1634
g771
V2015-10-13 23:02:59
p1635
tp1636
a(V7^13
p1637
V7!
p1638
(lp1639
(S'R.0'
p1640
F7.0
g673
g673
tp1641
aVtol003
p1642
(lp1643
(V$R1
p1644
V13
p1645
tp1646
a(V$R2
p1647
V7
p1648
tp1649
a(V$R1
p1650
V13
p1651
tp1652
a(V$R2
p1653
V7
p1654
tp1655
aV2015-10-14 00:07:35
p1656
tp1657
a(g861
V7*C(10,7)
p1658
(lp1659
(S'R.0'
p1660
F7.0
g673
g673
tp1661
aVhaw081
p1662
g869
V2015-10-14 01:12:02
p1663
tp1664
a(g460
VP(6,2)
p1665
(lp1666
(S'R.0'
p1667
F6.0
g1239
g1239
tp1668
aVatorr
p1669
g467
V2015-10-14 01:30:30
p1670
tp1671
a(g250
V8!
p1672
(lp1673
(S'R.0'
p1674
F8.0
g464
g464
tp1675
aVjew037
p1676
(lp1677
(V$R1
p1678
V9
p1679
tp1680
a(V$R2
p1681
V8
p1682
tp1683
a(V$R1
p1684
V9
p1685
tp1686
a(V$R2
p1687
V8
p1688
tp1689
aV2015-10-14 04:03:28
p1690
tp1691
a(g1085
V2*7!
p1692
(lp1693
(S'R.0'
p1694
F2.0
g1039
g1039
tp1695
aVmsaguiar
p1696
g1093
V2015-10-14 04:13:03
p1697
tp1698
a(g242
V7!
p1699
(lp1700
(S'R.0'
p1701
F7.0
g673
g673
tp1702
aVquwong
p1703
(lp1704
(V$R1
p1705
V12
p1706
tp1707
a(V$R2
p1708
V7
p1709
tp1710
aV2015-10-14 04:28:19
p1711
tp1712
a(g861
V7!
p1713
(lp1714
(S'R.0'
p1715
F7.0
g673
g673
tp1716
aVhaw081
p1717
g869
V2015-10-14 05:37:44
p1718
tp1719
a(g861
VC(7,1)^7
p1720
(lp1721
(S'R.0'
p1722
F7.0
g673
VC(7,1)
p1723
tp1724
aVhaw081
p1725
g869
V2015-10-14 05:42:18
p1726
tp1727
a(V10^13
p1728
V10^10
p1729
(lp1730
(S'R.0'
p1731
F10.0
V10
p1732
V10
p1733
tp1734
aVyos017
p1735
(lp1736
(V$R1
p1737
V13
p1738
tp1739
a(V$R2
p1740
V10
p1741
tp1742
a(V$R1
p1743
V13
p1744
tp1745
a(V$R2
p1746
V10
p1747
tp1748
aV2015-10-14 06:20:04
p1749
tp1750
a(V9^13
p1751
V9!
p1752
(lp1753
(S'R.0'
p1754
F9.0
g421
g421
tp1755
aVb3hwang
p1756
(lp1757
(V$R1
p1758
V13
p1759
tp1760
a(V$R2
p1761
V9
p1762
tp1763
a(V$R1
p1764
V13
p1765
tp1766
a(V$R2
p1767
V9
p1768
tp1769
aV2015-10-14 18:14:40
p1770
tp1771
a(g282
V6!
p1772
(lp1773
(S'R.0'
p1774
F6.0
g1239
g1239
tp1775
aVsachadal
p1776
(lp1777
(V$R1
p1778
V12
p1779
tp1780
a(V$R2
p1781
V6
p1782
tp1783
a(V$R1
p1784
V12
p1785
tp1786
a(V$R2
p1787
V6
p1788
tp1789
aV2015-10-14 18:24:45
p1790
tp1791
a(g303
V2^10
p1792
(lp1793
(S'R.0'
p1794
F2.0
g1039
g1039
tp1795
aVc1sorian
p1796
(lp1797
(V$R1
p1798
V11
p1799
tp1800
a(V$R2
p1801
V2
p1802
tp1803
a(V$R1
p1804
V11
p1805
tp1806
a(V$R2
p1807
V2
p1808
tp1809
aV2015-10-14 23:08:50
p1810
tp1811
a(g1108
V8!
p1812
(lp1813
(S'R.0'
p1814
F8.0
g464
g464
tp1815
aVhmnaing
p1816
g1118
V2015-10-15 00:29:07
p1817
tp1818
a(V10^13
p1819
V10!
p1820
(lp1821
(S'R.0'
p1822
F10.0
V10
p1823
V10
p1824
tp1825
aVanvan
p1826
(lp1827
(V$R1
p1828
V13
p1829
tp1830
a(V$R2
p1831
V10
p1832
tp1833
a(V$R1
p1834
V13
p1835
tp1836
a(V$R2
p1837
V10
p1838
tp1839
aV2015-10-15 01:46:31
p1840
tp1841
a(g227
V3^9
p1842
(lp1843
(S'R.0'
p1844
F3.0
g1547
g1547
tp1845
aVkew060
p1846
(lp1847
(V$R1
p1848
V13
p1849
tp1850
a(V$R2
p1851
V3
p1852
tp1853
a(V$R1
p1854
V13
p1855
tp1856
a(V$R2
p1857
V3
p1858
tp1859
aV2015-10-15 02:52:57
p1860
tp1861
a(V11^12
p1862
V11!
p1863
(lp1864
(S'R.0'
p1865
F11.0
V11
p1866
V11
p1867
tp1868
aVk4ma
p1869
(lp1870
(V$R1
p1871
V12
p1872
tp1873
a(V$R2
p1874
V11
p1875
tp1876
a(V$R1
p1877
V12
p1878
tp1879
a(V$R2
p1880
V11
p1881
tp1882
aV2015-10-15 03:09:51
p1883
tp1884
a(g317
V7!
p1885
(lp1886
(S'R.0'
p1887
F7.0
g673
g673
tp1888
aVa2ahmed
p1889
(lp1890
(V$R1
p1891
V10
p1892
tp1893
a(V$R2
p1894
V7
p1895
tp1896
a(V$R1
p1897
V10
p1898
tp1899
a(V$R2
p1900
V7
p1901
tp1902
aV2015-10-15 03:43:29
p1903
tp1904
a(g1157
V9!
p1905
(lp1906
(S'R.0'
p1907
F9.0
g421
g421
tp1908
aVhsc052
p1909
g1167
V2015-10-15 05:26:10
p1910
tp1911
a(g338
V6!
p1912
(lp1913
(S'R.0'
p1914
F6.0
g1239
g1239
tp1915
aVd6he
p1916
(lp1917
(V$R1
p1918
V7
p1919
tp1920
a(V$R2
p1921
V6
p1922
tp1923
a(V$R1
p1924
V7
p1925
tp1926
a(V$R2
p1927
V6
p1928
tp1929
aV2015-10-15 05:47:46
p1930
tp1931
a(g309
V7!
p1932
(lp1933
(S'R.0'
p1934
F7.0
g673
g673
tp1935
aVjag028
p1936
g1142
V2015-10-15 15:50:32
p1937
tp1938
a(V12^13
p1939
V12!
p1940
(lp1941
(S'R.0'
p1942
F12.0
V12
p1943
V12
p1944
tp1945
aVjhc010
p1946
(lp1947
(V$R1
p1948
V13
p1949
tp1950
a(V$R2
p1951
V12
p1952
tp1953
a(V$R1
p1954
V13
p1955
tp1956
a(V$R2
p1957
V12
p1958
tp1959
aV2015-10-15 15:55:35
p1960
tp1961
a(g396
V10*10
p1962
(lp1963
(S'R.0'
p1964
F10.0
V10
p1965
V10
p1966
tp1967
aVralhadda
p1968
g1219
V2015-10-15 21:37:47
p1969
tp1970
a(V11^12
p1971
V11!
p1972
(lp1973
(S'R.0'
p1974
F11.0
V11
p1975
V11
p1976
tp1977
aVakg009
p1978
(lp1979
(V$R1
p1980
V12
p1981
tp1982
a(V$R2
p1983
V11
p1984
tp1985
a(V$R1
p1986
V12
p1987
tp1988
a(V$R2
p1989
V11
p1990
tp1991
aV2015-10-15 22:27:53
p1992
tp1993
a(g1971
V11!
p1994
(lp1995
(S'R.0'
p1996
F11.0
V11
p1997
V11
p1998
tp1999
aVakg009
p2000
g1979
V2015-10-15 22:30:58
p2001
tp2002
a(g1971
V11*11
p2003
(lp2004
(S'R.0'
p2005
F11.0
V11
p2006
V11
p2007
tp2008
aVakg009
p2009
g1979
V2015-10-15 23:03:59
p2010
tp2011
asS'Wrong_Sign'
p2012
(lp2013
(g28
V20/[9!(20-9!)]
p2014
tp2015
a(g28
V29/[9!(29-9!)]
p2016
tp2017
a(g28
V29!/[9!(29-9!)]
p2018
tp2019
a(g28
V9!/(11-9!)
p2020
tp2021
asS'Fraction'
p2022
(lp2023
(g53
V7/7^6
p2024
tp2025
a(g58
V.5^7
p2026
tp2027
a(g1362
V10!/(10!(10-7)!)
p2028
tp2029
a(g795
V(13*12*11)/(10*9*8)
p2030
tp2031
a(g78
V9!/(11!(11-9)!)
p2032
tp2033
a(g83
V13!/((10!)(7!))
p2034
tp2035
a(g1523
V10!/(10!*(2!))
p2036
tp2037
a(g200
V(10!/(4!6!))/(4^10)
p2038
tp2039
a(g200
V(13!/(4!9!))/(4^10)
p2040
tp2041
a(g200
V(4^10)/(13!/(4!9!))
p2042
tp2043
a(g200
V(4^10)/(14!/(4!10!))
p2044
tp2045
a(g200
V14!/(4!10!)/4^10
p2046
tp2047
a(g200
V4^10/(14!/(4!10!))
p2048
tp2049
a(g200
V4^10/(14!/(10!))
p2050
tp2051
a(V2^7
p2052
V7!/(7!(7-2)!)
p2053
tp2054
a(g242
V12!/(7!*5!)/7
p2055
tp2056
a(g260
V3^7/2
p2057
tp2058
a(V5^13
p2059
V(13+4)/(4!*13!)
p2060
tp2061
a(g309
VC(10,7)/(10*7)
p2062
tp2063
a(g323
V13/2
p2064
tp2065
a(V8^9
p2066
V9/8
p2067
tp2068
a(g361
V(1/5)^13
p2069
tp2070
a(g309
V70/(C(10,7))
p2071
tp2072
a(V13^15
p2073
V13!/(15!(15-13)!)
p2074
tp2075
a(V2^10
p2076
V(1/2)^10
p2077
tp2078
assV3
p2079
g2
(g3
tp2080
Rp2081
g6
(lp2082
(VC(10-1,10-2)
p2083
V8
p2084
tp2085
a(VC(12-1,12-9)
p2086
V56
p2087
tp2088
a(VC(8-1,8-2)
p2089
V8
p2090
tp2091
a(VC(13-1,13-3)
p2092
V286
p2093
tp2094
a(VC(15-1,15-8)
p2095
V3,432
p2096
tp2097
a(VC(13-1,13-11)
p2098
V78
p2099
tp2100
a(VC(15-1,15-2)
p2101
V7
p2102
tp2103
a(g2101
V6
p2104
tp2105
a(VC(9-1,9-3)
p2106
V84
p2107
tp2108
a(g2106
V9
p2109
tp2110
a(VC(10-1,10-2)
p2111
V165
p2112
tp2113
a(VC(7-1,7-3)
p2114
V20
p2115
tp2116
a(VC(11-1,11-10)
p2117
V11
p2118
tp2119
a(VC(8-1,8-3)
p2120
V51
p2121
tp2122
a(g2120
V40
p2123
tp2124
a(VC(8-1,8-6)
p2125
V7
p2126
tp2127
a(VC(13-1,13-12)
p2128
V13
p2129
tp2130
a(VC(15-1,15-14)
p2131
V15
p2132
tp2133
a(VC(11-1,11-6)
p2134
V210
p2135
tp2136
a(g2134
V462
p2137
tp2138
a(VC(7-1,7-3)
p2139
V84
p2140
tp2141
a(VC(8-1,8-4)
p2142
V70
p2143
tp2144
a(g2142
V1680
p2145
tp2146
a(VC(14-1,14-5)
p2147
V126
p2148
tp2149
a(g2142
V20
p2150
tp2151
a(g2142
V45
p2152
tp2153
a(g2142
V165
p2154
tp2155
a(g2142
V4
p2156
tp2157
a(VC(12-1,12-11)
p2158
V22
p2159
tp2160
a(VC(10-1,10-2)
p2161
V18
p2162
tp2163
a(VC(11-1,11-2)
p2164
V1100
p2165
tp2166
a(g2164
V550
p2167
tp2168
a(g2092
V455
p2169
tp2170
a(VC(12-1,12-4)
p2171
V455
p2172
tp2173
a(g2171
V495
p2174
tp2175
a(VC(11-1,11-5)
p2176
V6
p2177
tp2178
a(g2176
V720
p2179
tp2180
a(g2176
V252
p2181
tp2182
a(g2176
V30240
p2183
tp2184
a(VC(10-1,10-7)
p2185
V66
p2186
tp2187
a(VC(7-1,7-6)
p2188
V8
p2189
tp2190
a(g2188
V7
p2191
tp2192
a(VC(13-1,13-11)
p2193
V11
p2194
tp2195
a(VC(13-1,13-12)
p2196
V13
p2197
tp2198
a(VC(9-1,9-8)
p2199
V9
p2200
tp2201
a(VC(12-1,12-11)
p2202
V2
p2203
tp2204
a(VC(11-1,11-3)
p2205
V28501
p2206
tp2207
a(VC(10-1,10-2)
p2208
V36
p2209
tp2210
a(g2208
V28
p2211
tp2212
a(g2208
V21
p2213
tp2214
a(g2208
V11
p2215
tp2216
asS'redirect'
p2217
(lp2218
(VC(9-1,9-3)
p2219
V(9-(3*1)+(3-1))!/ ((9-(3*1)+(3-1)) - (3-1))!
p2220
tp2221
a(VC(10-1,10-6)
p2222
V6**4/4!
p2223
tp2224
a(g2222
V6**4/(4!*2)
p2225
tp2226
a(VC(8-1,8-3)
p2227
VC(5,3)
p2228
tp2229
a(VC(11-1,11-5)
p2230
V(8!)/(4!*4!)
p2231
tp2232
a(VC(13-1,13-3)
p2233
V10!/(7!*3!)
p2234
tp2235
a(VC(11-1,11-6)
p2236
V6^6 * C(10,5)
p2237
tp2238
a(VC(13-1,13-5)
p2239
V13!/(8!*5!)
p2240
tp2241
a(VC(9-1,9-8)
p2242
VC(16,1)
p2243
tp2244
a(VC(9-1,9-4)
p2245
V8!/(6!2!)
p2246
tp2247
a(VC(15-1,15-10)
p2248
VC(12,1)
p2249
tp2250
a(VC(12-1,12-3)
p2251
VC(9,3)
p2252
tp2253
a(g2251
VP(9,3)
p2254
tp2255
a(VC(11-1,11-9)
p2256
V12!(10!2!)
p2257
tp2258
a(VC(11-1,11-4)
p2259
VC(7,4)
p2260
tp2261
a(g2259
V7^4
p2262
tp2263
a(VC(14-1,14-7)
p2264
VC(14,7) + C(14-1+7,7-1)
p2265
tp2266
a(VC(12-1,12-5)
p2267
VC(16,4)
p2268
tp2269
a(g2267
V6+6-1
p2270
tp2271
a(VC(9-1,9-7)
p2272
VC(15, 7)
p2273
tp2274
a(VC(7-1,7-5)
p2275
V6!/[(6-5)!5!]
p2276
tp2277
a(VC(7-1,7-2)
p2278
V7!/(2!(7-2)!)
p2279
tp2280
a(g2239
V8!/(3!*5!)
p2281
tp2282
a(g2239
V(8+5)!/(8!*5!)
p2283
tp2284
a(g2239
V(8+4)!/(7!*5!)
p2285
tp2286
a(VC(12-1,12-7)
p2287
V11!/(4!*7!)
p2288
tp2289
a(VC(11-1,11-8)
p2290
V3^8
p2291
tp2292
a(g2290
V11!/(11-8)!
p2293
tp2294
a(g2287
V16!/(4!*12!)
p2295
tp2296
a(g2139
V35*34*33
p2297
tp2298
a(g2142
V4!/4
p2299
tp2300
a(g2142
V4^4
p2301
tp2302
a(VC(8-1,8-6)
p2303
VC(13,6)
p2304
tp2305
a(g2303
VC(8,6)
p2306
tp2307
a(g2303
VC(14,6)
p2308
tp2309
a(VC(8-1,8-4)
p2310
V11!/(4!7!)
p2311
tp2312
a(VC(11-1,11-2)
p2313
V9!/8!
p2314
tp2315
a(g2313
V10!/8!
p2316
tp2317
a(g2303
VC(13,8)
p2318
tp2319
a(VC(10-1,10-6)
p2320
V4!
p2321
tp2322
a(VC(13-1,13-8)
p2323
V(7*13)-1
p2324
tp2325
a(g2323
V(20!) / ( (12!) (8!) )
p2326
tp2327
a(VC(10-1,10-3)
p2328
V10!/((3!)(7!))
p2329
tp2330
a(g2328
V10!/3!
p2331
tp2332
a(VC(14-1,14-9)
p2333
VC(10,1)
p2334
tp2335
a(VC(15-1,15-13)
p2336
V13! * C(14, 2)
p2337
tp2338
a(VC(12-1,12-9)
p2339
V12!
p2340
tp2341
a(VC(13-1,13-12)
p2342
V25!/(12!13!)
p2343
tp2344
a(VC(8-1,8-5)
p2345
VC(7!,3!)
p2346
tp2347
a(VC(10-1,10-3)
p2348
VC(12,3)
p2349
tp2350
a(g2328
V12!/((3!)(9!))
p2351
tp2352
a(g2328
V12!/((3!))
p2353
tp2354
a(g2328
V10!/((3!))
p2355
tp2356
a(g2328
V12!/3!
p2357
tp2358
a(g2328
V11!/((8!))
p2359
tp2360
a(VC(10-1,10-6)
p2361
V6!/(4!2!)
p2362
tp2363
a(VC(13-1,13-3)
p2364
VP(10,3)
p2365
tp2366
a(VC(13-1,13-2)
p2367
V11!
p2368
tp2369
a(g2202
V11! * 12
p2370
tp2371
a(g2202
V11! * C(11,1)
p2372
tp2373
a(VC(12-1,12-11)
p2374
V11!*11
p2375
tp2376
asS"['R.1']"
p2377
(lp2378
(VC(9-1,9-6)
p2379
VC(14,3)
p2380
(lp2381
(S'R.1'
p2382
F3.0
V9-6
p2383
g1547
tp2384
aVlguintu
p2385
g424
V2015-10-09 21:48:08
p2386
tp2387
a(VC(11-1,11-9)
p2388
VC(12,2)
p2389
(lp2390
(S'R.1'
p2391
F2.0
V11-9
p2392
g1039
tp2393
aVt1tran
p2394
(lp2395
(V$R1
p2396
V11
p2397
tp2398
a(V$R2
p2399
V9
p2400
tp2401
a(V$R1
p2402
V11
p2403
tp2404
a(V$R2
p2405
V9
p2406
tp2407
aV2015-10-10 06:51:49
p2408
tp2409
a(g2388
VC(11,2)
p2410
(lp2411
(S'R.1'
p2412
F2.0
V11-9
p2413
g1039
tp2414
aVt1tran
p2415
g2395
V2015-10-10 06:52:30
p2416
tp2417
a(VC(9-1,9-6)
p2418
VC(6,3)
p2419
(lp2420
(S'R.1'
p2421
F3.0
V9-6
p2422
g1547
tp2423
aVvsamant
p2424
(lp2425
(V$R1
p2426
V9
p2427
tp2428
a(V$R2
p2429
V6
p2430
tp2431
a(V$R1
p2432
V9
p2433
tp2434
a(V$R2
p2435
V6
p2436
tp2437
aV2015-10-10 16:38:23
p2438
tp2439
a(g2418
VC(11,3)
p2440
(lp2441
(S'R.1'
p2442
F3.0
V9-6
p2443
g1547
tp2444
aVvsamant
p2445
g2425
V2015-10-10 17:27:27
p2446
tp2447
a(VC(11-1,11-8)
p2448
VC(18,3)
p2449
(lp2450
(S'R.1'
p2451
F3.0
V11-8
p2452
g1547
tp2453
aVpthsu
p2454
(lp2455
(V$R1
p2456
V11
p2457
tp2458
a(V$R2
p2459
V8
p2460
tp2461
a(V$R1
p2462
V11
p2463
tp2464
a(V$R2
p2465
V8
p2466
tp2467
aV2015-10-10 21:05:47
p2468
tp2469
a(VC(11-1,11-9)
p2470
VC(9,2)
p2471
(lp2472
(S'R.1'
p2473
F2.0
V11-9
p2474
g1039
tp2475
aVvasharma
p2476
g489
V2015-10-11 06:36:54
p2477
tp2478
a(g2470
VC(11,2)
p2479
(lp2480
(S'R.1'
p2481
F2.0
V11-9
p2482
g1039
tp2483
aVvasharma
p2484
g489
V2015-10-11 06:36:58
p2485
tp2486
a(VC(12-1,12-7)
p2487
VC(18,5)
p2488
(lp2489
(S'R.1'
p2490
F5.0
V12-7
p2491
g1186
tp2492
aVklala
p2493
(lp2494
(V$R1
p2495
V12
p2496
tp2497
a(V$R2
p2498
V7
p2499
tp2500
a(V$R1
p2501
V12
p2502
tp2503
a(V$R2
p2504
V7
p2505
tp2506
aV2015-10-12 04:16:11
p2507
tp2508
a(g2487
VC(13,5)
p2509
(lp2510
(S'R.1'
p2511
F5.0
V12-7
p2512
g1186
tp2513
aVklala
p2514
g2494
V2015-10-12 04:16:29
p2515
tp2516
a(g2248
VC(7,5)
p2517
(lp2518
(S'R.1'
p2519
F5.0
V15-10
p2520
g1186
tp2521
aVhkhodada
p2522
g1301
V2015-10-12 04:32:47
p2523
tp2524
a(VC(11-1,11-2)
p2525
VC(11,9)
p2526
(lp2527
(S'R.1'
p2528
F9.0
V11-2
p2529
g421
tp2530
aVlywong
p2531
g1501
V2015-10-13 00:23:16
p2532
tp2533
a(VC(7-1,7-4)
p2534
VC(7,3)
p2535
(lp2536
(S'R.1'
p2537
F3.0
V7-4
p2538
g1547
tp2539
aVachava
p2540
(lp2541
(V$R1
p2542
V7
p2543
tp2544
a(V$R2
p2545
V4
p2546
tp2547
a(V$R1
p2548
V7
p2549
tp2550
a(V$R2
p2551
V4
p2552
tp2553
aV2015-10-13 19:07:08
p2554
tp2555
a(VC(13-1,13-8)
p2556
VC(8,5)
p2557
(lp2558
(S'R.1'
p2559
F5.0
V13-8
p2560
g1186
tp2561
aVs2chaudh
p2562
g1481
V2015-10-13 19:26:34
p2563
tp2564
a(VC(13-1,13-7)
p2565
VC(19,6)
p2566
(lp2567
(S'R.1'
p2568
F6.0
V13-7
p2569
g1239
tp2570
aVtol003
p2571
g1643
V2015-10-14 00:22:16
p2572
tp2573
a(g2272
VC(7, 2)
p2574
(lp2575
(S'R.1'
p2576
F2.0
V9-7
p2577
g1039
tp2578
aVv4sharma
p2579
g749
V2015-10-14 01:11:27
p2580
tp2581
a(g2272
VC(15, 2)
p2582
(lp2583
(S'R.1'
p2584
F2.0
V9-7
p2585
g1039
tp2586
aVv4sharma
p2587
g749
V2015-10-14 01:12:03
p2588
tp2589
a(g2272
V7^2
p2590
(lp2591
(S'R.1'
p2592
F2.0
V9-7
p2593
g1039
tp2594
aVv4sharma
p2595
g749
V2015-10-14 01:13:05
p2596
tp2597
a(g2272
VC(7, 2)
p2598
(lp2599
(S'R.1'
p2600
F2.0
V9-7
p2601
g1039
tp2602
aVv4sharma
p2603
g749
V2015-10-14 01:13:28
p2604
tp2605
a(g2272
VC(9, 2)
p2606
(lp2607
(S'R.1'
p2608
F2.0
V9-7
p2609
g1039
tp2610
aVv4sharma
p2611
g749
V2015-10-14 01:13:43
p2612
tp2613
a(g2272
VC(15, 2)
p2614
(lp2615
(S'R.1'
p2616
F2.0
V9-7
p2617
g1039
tp2618
aVv4sharma
p2619
g749
V2015-10-14 01:13:50
p2620
tp2621
a(g2275
V5^2
p2622
(lp2623
(S'R.1'
p2624
F2.0
V7-5
p2625
g1039
tp2626
aVdlt009
p2627
(lp2628
(V$R1
p2629
V7
p2630
tp2631
a(V$R2
p2632
V5
p2633
tp2634
a(V$R1
p2635
V7
p2636
tp2637
a(V$R2
p2638
V5
p2639
tp2640
aV2015-10-14 01:33:58
p2641
tp2642
a(VC(10-1,10-8)
p2643
VC(17, 2)
p2644
(lp2645
(S'R.1'
p2646
F2.0
V10-8
p2647
g1039
tp2648
aVajabasa
p2649
(lp2650
(V$R1
p2651
V10
p2652
tp2653
a(V$R2
p2654
V8
p2655
tp2656
a(V$R1
p2657
V10
p2658
tp2659
a(V$R2
p2660
V8
p2661
tp2662
aV2015-10-14 06:46:41
p2663
tp2664
a(VC(10-1,10-3)
p2665
VC(10,7)
p2666
(lp2667
(S'R.1'
p2668
F7.0
V10-3
p2669
g673
tp2670
aVbtn023
p2671
(lp2672
(V$R1
p2673
V10
p2674
tp2675
a(V$R2
p2676
V3
p2677
tp2678
a(V$R1
p2679
V10
p2680
tp2681
a(V$R2
p2682
V3
p2683
tp2684
aV2015-10-14 22:08:25
p2685
tp2686
a(VC(10-1,10-7)
p2687
VC(16,3)
p2688
(lp2689
(S'R.1'
p2690
F3.0
V10-7
p2691
g1547
tp2692
aVkalang
p2693
(lp2694
(V$R1
p2695
V10
p2696
tp2697
a(V$R2
p2698
V7
p2699
tp2700
a(V$R1
p2701
V10
p2702
tp2703
a(V$R2
p2704
V7
p2705
tp2706
aV2015-10-14 23:00:33
p2707
tp2708
a(g2687
VC(6,3)
p2709
(lp2710
(S'R.1'
p2711
F3.0
V10-7
p2712
g1547
tp2713
aVkalang
p2714
g2694
V2015-10-14 23:03:09
p2715
tp2716
a(VC(10-1,10-7)
p2717
VC(5,3)
p2718
(lp2719
(S'R.1'
p2720
F3.0
V10-7
p2721
g1547
tp2722
aVhaw081
p2723
g869
V2015-10-15 02:58:08
p2724
tp2725
a(g2717
VC(6,3)
p2726
(lp2727
(S'R.1'
p2728
F3.0
V10-7
p2729
g1547
tp2730
aVhaw081
p2731
g869
V2015-10-15 02:58:42
p2732
tp2733
a(VC(13-1,13-3)
p2734
VC(13,10)
p2735
(lp2736
(S'R.1'
p2737
F10.0
V13-3
p2738
V10
p2739
tp2740
aVkew060
p2741
g1847
V2015-10-15 03:00:47
p2742
tp2743
a(VC(10-1,10-7)
p2744
VC(7, 3)
p2745
(lp2746
(S'R.1'
p2747
F3.0
V10-7
p2748
g1547
tp2749
aVa2ahmed
p2750
g1890
V2015-10-15 03:54:37
p2751
tp2752
a(g2744
VC(6, 3)
p2753
(lp2754
(S'R.1'
p2755
F3.0
V10-7
p2756
g1547
tp2757
aVa2ahmed
p2758
g1890
V2015-10-15 03:54:41
p2759
tp2760
a(g2744
V7^3
p2761
(lp2762
(S'R.1'
p2763
F3.0
V10-7
p2764
g1547
tp2765
aVa2ahmed
p2766
g1890
V2015-10-15 03:59:59
p2767
tp2768
a(VC(13-1,13-2)
p2769
VC(14,11)
p2770
(lp2771
(S'R.1'
p2772
F11.0
V13-2
p2773
V11
p2774
tp2775
aVvsosnovs
p2776
(lp2777
(V$R1
p2778
V13
p2779
tp2780
a(V$R2
p2781
V2
p2782
tp2783
a(V$R1
p2784
V13
p2785
tp2786
a(V$R2
p2787
V2
p2788
tp2789
aV2015-10-15 04:15:47
p2790
tp2791
a(VC(10-1,10-7)
p2792
VC(10,3)
p2793
(lp2794
(S'R.1'
p2795
F3.0
V10-7
p2796
g1547
tp2797
aVjag028
p2798
g1142
V2015-10-15 17:01:37
p2799
tp2800
a(VC(7-1,7-3)
p2801
VC(5,4)
p2802
(lp2803
(S'R.1'
p2804
F4.0
V7-3
p2805
g1063
tp2806
aVanislam
p2807
g1018
V2015-10-15 23:06:40
p2808
tp2809
a(g2336
VC(13,2)
p2810
(lp2811
(S'R.1'
p2812
F2.0
V15-13
p2813
g1039
tp2814
aVv4zhang
p2815
(lp2816
(V$R1
p2817
V15
p2818
tp2819
a(V$R2
p2820
V13
p2821
tp2822
a(V$R1
p2823
V15
p2824
tp2825
a(V$R2
p2826
V13
p2827
tp2828
aV2015-10-15 23:39:39
p2829
tp2830
asS"['R.1.1']"
p2831
(lp2832
(VC(8-1,8-5)
p2833
VC(12,8) - C(8, 5)
p2834
(lp2835
(S'R.1.1'
p2836
F5.0
g1186
g1186
tp2837
aVcsl030
p2838
(lp2839
(V$R1
p2840
V8
p2841
tp2842
a(V$R2
p2843
V5
p2844
tp2845
a(V$R1
p2846
V8
p2847
tp2848
a(V$R2
p2849
V5
p2850
tp2851
aV2015-10-14 02:01:13
p2852
tp2853
a(VC(10-1,10-2)
p2854
V8!/(6!*2!)
p2855
(lp2856
(S'R.1.1'
p2857
F2.0
g1039
V2!
p2858
tp2859
aVjel075
p2860
(lp2861
(V$R1
p2862
V10
p2863
tp2864
a(V$R2
p2865
V2
p2866
tp2867
a(V$R1
p2868
V10
p2869
tp2870
a(V$R2
p2871
V2
p2872
tp2873
aV2015-10-15 00:57:09
p2874
tp2875
asS"['R.0', 'R.1']"
p2876
(lp2877
(g2364
VP(12,10)
p2878
(lp2879
(S'R.0'
p2880
F12.0
V13-1
p2881
V12
p2882
tp2883
a(S'R.1'
p2884
F10.0
V13-3
p2885
V10
p2886
tp2887
aValhung
p2888
(lp2889
(V$R1
p2890
V13
p2891
tp2892
a(V$R2
p2893
V3
p2894
tp2895
a(V$R1
p2896
V13
p2897
tp2898
a(V$R2
p2899
V3
p2900
tp2901
aV2015-10-15 19:50:00
p2902
tp2903
asS"['R.0']"
p2904
(lp2905
(g2222
VC(9,3)
p2906
(lp2907
(S'R.0'
p2908
F9.0
V10-1
p2909
g421
tp2910
aVzhw110
p2911
(lp2912
(V$R1
p2913
V10
p2914
tp2915
a(V$R2
p2916
V6
p2917
tp2918
a(V$R1
p2919
V10
p2920
tp2921
a(V$R2
p2922
V6
p2923
tp2924
aV2015-10-09 04:43:41
p2925
tp2926
a(g2227
VC(7,3)
p2927
(lp2928
(S'R.0'
p2929
F7.0
V8-1
p2930
g673
tp2931
aVbeyounge
p2932
(lp2933
(V$R1
p2934
V8
p2935
tp2936
a(V$R2
p2937
V3
p2938
tp2939
a(V$R1
p2940
V8
p2941
tp2942
a(V$R2
p2943
V3
p2944
tp2945
aV2015-10-09 05:34:28
p2946
tp2947
a(VC(8-1,8-5)
p2948
VC(7,5)
p2949
(lp2950
(S'R.0'
p2951
F7.0
V8-1
p2952
g673
tp2953
aVetemlock
p2954
(lp2955
(V$R1
p2956
V8
p2957
tp2958
a(V$R2
p2959
V5
p2960
tp2961
a(V$R1
p2962
V8
p2963
tp2964
a(V$R2
p2965
V5
p2966
tp2967
aV2015-10-11 00:46:46
p2968
tp2969
a(g2556
VC(12,4)
p2970
(lp2971
(S'R.0'
p2972
F12.0
V13-1
p2973
V12
p2974
tp2975
aVs2chaudh
p2976
g1481
V2015-10-13 19:26:51
p2977
tp2978
a(g2114
V3 * 2 * 1 * 20
p2979
(lp2980
(S'R.0'
p2981
F6.0
V7-1
p2982
V3 * 2 * 1
p2983
tp2984
aVpvl001
p2985
(lp2986
(V$R1
p2987
V7
p2988
tp2989
a(V$R2
p2990
V3
p2991
tp2992
a(V$R1
p2993
V7
p2994
tp2995
a(V$R2
p2996
V3
p2997
tp2998
aV2015-10-13 19:43:56
p2999
tp3000
a(g2114
V3 * 2 * 1 * 15
p3001
(lp3002
(S'R.0'
p3003
F6.0
V7-1
p3004
V3 * 2 * 1
p3005
tp3006
aVpvl001
p3007
g2986
V2015-10-13 19:47:08
p3008
tp3009
a(g2267
VC(6+6-1, 6-1)
p3010
(lp3011
(S'R.0'
p3012
F11.0
V12-1
p3013
V6+6-1
p3014
tp3015
aVpcdo
p3016
g632
V2015-10-13 21:27:58
p3017
tp3018
a(VC(9-1,9-2)
p3019
VC(8,1)+2
p3020
(lp3021
(S'R.0'
p3022
F8.0
V9-1
p3023
VC(8,1)
p3024
tp3025
aVhaliew
p3026
(lp3027
(V$R1
p3028
V9
p3029
tp3030
a(V$R2
p3031
V2
p3032
tp3033
a(V$R1
p3034
V9
p3035
tp3036
a(V$R2
p3037
V2
p3038
tp3039
aV2015-10-14 02:34:55
p3040
tp3041
a(VC(8-1,8-4)
p3042
VC(7,2)
p3043
(lp3044
(S'R.0'
p3045
F7.0
V8-1
p3046
g673
tp3047
aVapokhare
p3048
(lp3049
(V$R1
p3050
V8
p3051
tp3052
a(V$R2
p3053
V4
p3054
tp3055
a(V$R1
p3056
V8
p3057
tp3058
a(V$R2
p3059
V4
p3060
tp3061
aV2015-10-14 04:52:27
p3062
tp3063
a(VC(14-1,14-7)
p3064
VC(13,5)
p3065
(lp3066
(S'R.0'
p3067
F13.0
V14-1
p3068
V13
p3069
tp3070
aVaadhakal
p3071
(lp3072
(V$R1
p3073
V14
p3074
tp3075
a(V$R2
p3076
V7
p3077
tp3078
a(V$R1
p3079
V14
p3080
tp3081
a(V$R2
p3082
V7
p3083
tp3084
aV2015-10-14 05:07:16
p3085
tp3086
a(g3064
VC(13,8)
p3087
(lp3088
(S'R.0'
p3089
F13.0
V14-1
p3090
V13
p3091
tp3092
aVaadhakal
p3093
g3072
V2015-10-14 05:07:22
p3094
tp3095
a(VC(9-1,9-2)
p3096
VC(8,2)
p3097
(lp3098
(S'R.0'
p3099
F8.0
V9-1
p3100
g464
tp3101
aVnisharma
p3102
(lp3103
(V$R1
p3104
V9
p3105
tp3106
a(V$R2
p3107
V2
p3108
tp3109
a(V$R1
p3110
V9
p3111
tp3112
a(V$R2
p3113
V2
p3114
tp3115
aV2015-10-14 18:05:40
p3116
tp3117
a(g2717
VC(9,4)
p3118
(lp3119
(S'R.0'
p3120
F9.0
V10-1
p3121
g421
tp3122
aVhaw081
p3123
g869
V2015-10-15 02:57:40
p3124
tp3125
a(VC(8-1,8-5)
p3126
VC(7,2)
p3127
(lp3128
(S'R.0'
p3129
F7.0
V8-1
p3130
g673
tp3131
aVstarinia
p3132
(lp3133
(V$R1
p3134
V8
p3135
tp3136
a(V$R2
p3137
V5
p3138
tp3139
a(V$R1
p3140
V8
p3141
tp3142
a(V$R2
p3143
V5
p3144
tp3145
aV2015-10-15 05:47:28
p3146
tp3147
asg2022
(lp3148
(g2219
V(9-(3*1)+(3-1))!/ (((9-(3*1)+(3-1)) - (3-1))!*(9-(3*1) + (3-1))!)
p3149
tp3150
a(VC(12-1,12-5)
p3151
V5^7/7!
p3152
tp3153
a(VC(14-1,14-3)
p3154
V3^11/11!
p3155
tp3156
a(VC(10-1,10-7)
p3157
V9!/(9!(9-3)!)
p3158
tp3159
a(VC(7-1,7-5)
p3160
V6!/(6!2!)
p3161
tp3162
a(VC(10-1,10-4)
p3163
V(6+3)!/[(10!)(3!)]
p3164
tp3165
a(g2092
V13!/((10!)(7!))
p3166
tp3167
a(g2092
V13!/((10!)(7!))286
p3168
tp3169
a(g2290
V10/((10-8)!*8!)
p3170
tp3171
a(g2290
V10/((10-3)!*3!)
p3172
tp3173
a(VC(10-1,10-4)
p3174
V9!/(9!5!)
p3175
tp3176
a(g2199
V1/9
p3177
tp3178
asS"['R.0.1']"
p3179
(lp3180
(g2267
VC(7+7-1, 7-1)
p3181
(lp3182
(S'R.0.1'
p3183
F1.0
V1
p3184
g3184
tp3185
aVpcdo
p3186
g632
V2015-10-13 21:28:21
p3187
tp3188
a(g2267
VC(5+5-1, 5-1)
p3189
(lp3190
(S'R.0.1'
p3191
F1.0
g3184
g3184
tp3192
aVpcdo
p3193
g632
V2015-10-13 21:28:30
p3194
tp3195
a(VC(14-1,14-8)
p3196
VC(14+6-1,8-1)
p3197
(lp3198
(S'R.0.1'
p3199
F1.0
g3184
g3184
tp3200
aVkvass
p3201
(lp3202
(V$R1
p3203
V14
p3204
tp3205
a(V$R2
p3206
V8
p3207
tp3208
a(V$R1
p3209
V14
p3210
tp3211
a(V$R2
p3212
V8
p3213
tp3214
aV2015-10-14 05:10:06
p3215
tp3216
a(VC(12-1,12-4)
p3217
VC(8+3-1,3-1)
p3218
(lp3219
(S'R.0.1'
p3220
F1.0
g3184
g3184
tp3221
aVb1green
p3222
(lp3223
(V$R1
p3224
V12
p3225
tp3226
a(V$R2
p3227
V4
p3228
tp3229
a(V$R1
p3230
V12
p3231
tp3232
a(V$R2
p3233
V4
p3234
tp3235
aV2015-10-15 20:49:21
p3236
tp3237
assV2
p3238
g2
(g3
tp3239
Rp3240
g6
(lp3241
(VC(13+3-1,13)
p3242
V10
p3243
tp3244
a(g3242
V455
p3245
tp3246
a(VC(13+9-1,13)
p3247
V259459200
p3248
tp3249
a(g3247
V715
p3250
tp3251
a(g3247
V969
p3252
tp3253
a(VC(7+2-1,7)
p3254
V2
p3255
tp3256
a(g3254
V14
p3257
tp3258
a(VC(7+2-1,7)
p3259
V7
p3260
tp3261
a(VC(8+2-1,8)
p3262
V4
p3263
tp3264
a(g3262
V8
p3265
tp3266
a(g3262
V16
p3267
tp3268
a(g3262
V8
p3269
tp3270
a(VC(13+3-1,13)
p3271
V286
p3272
tp3273
a(VC(15+8-1,15)
p3274
V170,544
p3275
tp3276
a(VC(12+10-1,12)
p3277
V646646
p3278
tp3279
a(VC(9+8-1,9)
p3280
V9
p3281
tp3282
a(g3280
V12870
p3283
tp3284
a(g3280
V6443
p3285
tp3286
a(VC(10+2-1,10)
p3287
V90
p3288
tp3289
a(VC(9+3-1,9)
p3290
V165
p3291
tp3292
a(VC(14+4-1,14)
p3293
V1001
p3294
tp3295
a(VC(10+9-1,10)
p3296
V40320
p3297
tp3298
a(VC(10+2-1,10)
p3299
V45
p3300
tp3301
a(g3299
V55
p3302
tp3303
a(g3299
V36
p3304
tp3305
a(g3299
V3
p3306
tp3307
a(g3299
V55
p3308
tp3309
a(g3299
V165
p3310
tp3311
a(g3299
V55
p3312
tp3313
a(VC(10+4-1,10)
p3314
V84
p3315
tp3316
a(g3314
V715
p3317
tp3318
a(g3314
V711
p3319
tp3320
a(g3314
V0
p3321
tp3322
a(VC(8+3-1,8)
p3323
V56
p3324
tp3325
a(VC(10+9-1,10)
p3326
V48620
p3327
tp3328
a(VC(8+6-1,8)
p3329
V1716
p3330
tp3331
a(g3326
V8568
p3332
tp3333
a(VC(11+6-1,11)
p3334
V462
p3335
tp3336
a(g3334
V1716
p3337
tp3338
a(g3334
V12376
p3339
tp3340
a(VC(9+8-1,9)
p3341
V8
p3342
tp3343
a(g3341
V9
p3344
tp3345
a(g3341
V11
p3346
tp3347
a(g3341
V12
p3348
tp3349
a(VC(12+10-1,12)
p3350
V1144066
p3351
tp3352
a(VC(7+3-1,7)
p3353
V84
p3354
tp3355
a(g3353
V35
p3356
tp3357
a(VC(11+2-1,11)
p3358
V22
p3359
tp3360
a(g3358
V10
p3361
tp3362
a(VC(8+4-1,8)
p3363
V70
p3364
tp3365
a(g3363
V70
p3366
tp3367
a(g3363
V1680
p3368
tp3369
a(VC(7+2-1,7)
p3370
V10080
p3371
tp3372
a(g3370
V4
p3373
tp3374
a(g3370
V28
p3375
tp3376
a(VC(14+5-1,14)
p3377
V2002
p3378
tp3379
a(g3363
V20
p3380
tp3381
a(g3363
V45
p3382
tp3383
a(g3280
V12870
p3384
tp3385
a(VC(10+8-1,10)
p3386
V9
p3387
tp3388
a(VC(10+2-1,10)
p3389
V20
p3390
tp3391
a(VC(10+2-1,10)
p3392
V22
p3393
tp3394
a(VC(11+4-1,11)
p3395
V1001
p3396
tp3397
a(g3389
V10
p3398
tp3399
a(g3389
V9
p3400
tp3401
a(VC(11+4-1,11)
p3402
V20
p3403
tp3404
a(g3271
V364
p3405
tp3406
a(g3271
V560
p3407
tp3408
a(VC(12+4-1,12)
p3409
V1820
p3410
tp3411
a(VC(11+5-1,11)
p3412
V462
p3413
tp3414
a(g3412
V55440
p3415
tp3416
a(g3412
V3003
p3417
tp3418
a(g3412
V360360
p3419
tp3420
a(VC(15+13-1,15)
p3421
V13
p3422
tp3423
a(VC(10+7-1,10)
p3424
V11440
p3425
tp3426
a(VC(9+7-1,9)
p3427
V210
p3428
tp3429
a(g3427
V3815
p3430
tp3431
a(VC(13+12-1,13)
p3432
V12
p3433
tp3434
a(VC(15+7-1,15)
p3435
V116280
p3436
tp3437
a(g3435
V6435
p3438
tp3439
a(VC(14+8-1,14)
p3440
V203490
p3441
tp3442
a(VC(13+11-1,13)
p3443
V3113510400
p3444
tp3445
a(g3443
V78
p3446
tp3447
a(VC(10+7-1,10)
p3448
V70
p3449
tp3450
a(VC(11+4-1,11)
p3451
V330
p3452
tp3453
a(g3451
V120
p3454
tp3455
a(VC(12+11-1,12)
p3456
V11
p3457
tp3458
a(VC(13+2-1,13)
p3459
V26
p3460
tp3461
a(VC(7+5-1,7)
p3462
V1
p3463
tp3464
a(g3459
V13
p3465
tp3466
a(VC(8+2-1,8)
p3467
V1
p3468
tp3469
a(g3467
V8
p3470
tp3471
a(g3467
V16
p3472
tp3473
a(VC(10+2-1,10)
p3474
V45
p3475
tp3476
a(g3474
V90
p3477
tp3478
a(g3474
V55
p3479
tp3480
a(g3280
V490314
p3481
tp3482
a(g3280
V9
p3483
tp3484
a(g3280
V362880
p3485
tp3486
a(g3280
V43046721
p3487
tp3488
a(g3280
V362880
p3489
tp3490
a(g3280
V12870
p3491
tp3492
a(VC(12+11-1,12)
p3493
V1352078
p3494
tp3495
asS"['R.0.0']"
p3496
(lp3497
(VC(13+5-1,13)
p3498
V(13+5)!/(13!*5!)
p3499
(lp3500
(S'R.0.0'
p3501
F18.0
V13+5
p3502
V13+5
p3503
tp3504
aVedcole
p3505
(lp3506
(V$R1
p3507
V13
p3508
tp3509
a(V$R2
p3510
V5
p3511
tp3512
a(V$R1
p3513
V13
p3514
tp3515
a(V$R2
p3516
V5
p3517
tp3518
aV2015-10-10 18:49:59
p3519
tp3520
a(VC(9+4-1,9)
p3521
VC(13,4)*C(9,4)
p3522
(lp3523
(S'R.0.0'
p3524
F13.0
V9+4
p3525
V13
p3526
tp3527
aVjic212
p3528
(lp3529
(V$R1
p3530
V9
p3531
tp3532
a(V$R2
p3533
V4
p3534
tp3535
a(V$R1
p3536
V9
p3537
tp3538
a(V$R2
p3539
V4
p3540
tp3541
aV2015-10-12 07:12:08
p3542
tp3543
a(VC(9+5-1,9)
p3544
V14!/(5!*9!)
p3545
(lp3546
(S'R.0.0'
p3547
F14.0
V9+5
p3548
V14
p3549
tp3550
aVabjara
p3551
(lp3552
(V$R1
p3553
V9
p3554
tp3555
a(V$R2
p3556
V5
p3557
tp3558
a(V$R1
p3559
V9
p3560
tp3561
a(V$R2
p3562
V5
p3563
tp3564
aV2015-10-12 21:20:01
p3565
tp3566
a(VC(11+10-1,11)
p3567
V21!/(11!*10!)
p3568
(lp3569
(S'R.0.0'
p3570
F21.0
V11+10
p3571
V21
p3572
tp3573
aVzig006
p3574
(lp3575
(V$R1
p3576
V11
p3577
tp3578
a(V$R2
p3579
V10
p3580
tp3581
a(V$R1
p3582
V11
p3583
tp3584
a(V$R2
p3585
V10
p3586
tp3587
aV2015-10-12 23:16:09
p3588
tp3589
a(VC(15+14-1,15)
p3590
V(14+15)! / (15!*14!)
p3591
(lp3592
(S'R.0.0'
p3593
F29.0
V15+14
p3594
V14+15
p3595
tp3596
aVkrkelkar
p3597
(lp3598
(V$R1
p3599
V15
p3600
tp3601
a(V$R2
p3602
V14
p3603
tp3604
a(V$R1
p3605
V15
p3606
tp3607
a(V$R2
p3608
V14
p3609
tp3610
aV2015-10-14 03:47:54
p3611
tp3612
a(g3358
V13!/((2!)(11!))
p3613
(lp3614
(S'R.0.0'
p3615
F13.0
V11+2
p3616
V13
p3617
tp3618
aVcprafull
p3619
(lp3620
(V$R1
p3621
V11
p3622
tp3623
a(V$R2
p3624
V2
p3625
tp3626
a(V$R1
p3627
V11
p3628
tp3629
a(V$R2
p3630
V2
p3631
tp3632
aV2015-10-14 07:06:11
p3633
tp3634
a(VC(12+4-1,12)
p3635
V16!/(12!*4!)
p3636
(lp3637
(S'R.0.0'
p3638
F16.0
V12+4
p3639
V16
p3640
tp3641
aVmrchin
p3642
g846
V2015-10-14 22:27:37
p3643
tp3644
a(VC(12+9-1,12)
p3645
V21!/9!
p3646
(lp3647
(S'R.0.0'
p3648
F21.0
V12+9
p3649
V21
p3650
tp3651
aVytc012
p3652
(lp3653
(V$R1
p3654
V12
p3655
tp3656
a(V$R2
p3657
V9
p3658
tp3659
a(V$R1
p3660
V12
p3661
tp3662
a(V$R2
p3663
V9
p3664
tp3665
aV2015-10-14 22:43:54
p3666
tp3667
a(g3645
V21!/9!
p3668
(lp3669
(S'R.0.0'
p3670
F21.0
V12+9
p3671
V21
p3672
tp3673
aVytc012
p3674
g3653
V2015-10-14 22:44:26
p3675
tp3676
a(VC(8+5-1,8)
p3677
V13!/(5!8!)
p3678
(lp3679
(S'R.0.0'
p3680
F13.0
V8+5
p3681
V13
p3682
tp3683
aVstarinia
p3684
g3133
V2015-10-15 02:22:02
p3685
tp3686
a(g3677
V13!/(7!5!)
p3687
(lp3688
(S'R.0.0'
p3689
F13.0
V8+5
p3690
V13
p3691
tp3692
aVstarinia
p3693
g3133
V2015-10-15 05:33:54
p3694
tp3695
a(g3395
V15!/(4!*11!)
p3696
(lp3697
(S'R.0.0'
p3698
F15.0
V11+4
p3699
V15
p3700
tp3701
aVkmc012
p3702
(lp3703
(V$R1
p3704
V11
p3705
tp3706
a(V$R2
p3707
V4
p3708
tp3709
a(V$R1
p3710
V11
p3711
tp3712
a(V$R2
p3713
V4
p3714
tp3715
aV2015-10-15 07:00:23
p3716
tp3717
a(g3645
V21!/(9!12!)
p3718
(lp3719
(S'R.0.0'
p3720
F21.0
V12+9
p3721
V21
p3722
tp3723
aVytc012
p3724
g3653
V2015-10-15 07:41:18
p3725
tp3726
a(g3645
V21!/(9!)
p3727
(lp3728
(S'R.0.0'
p3729
F21.0
V12+9
p3730
V21
p3731
tp3732
aVytc012
p3733
g3653
V2015-10-15 07:41:25
p3734
tp3735
a(g3645
V21!/(9!12!)
p3736
(lp3737
(S'R.0.0'
p3738
F21.0
V12+9
p3739
V21
p3740
tp3741
aVytc012
p3742
g3653
V2015-10-15 08:15:38
p3743
tp3744
a(g3645
V21!/(9!)
p3745
(lp3746
(S'R.0.0'
p3747
F21.0
V12+9
p3748
V21
p3749
tp3750
aVytc012
p3751
g3653
V2015-10-15 08:15:44
p3752
tp3753
a(g3645
V21!/12!
p3754
(lp3755
(S'R.0.0'
p3756
F21.0
V12+9
p3757
V21
p3758
tp3759
aVytc012
p3760
g3653
V2015-10-15 08:21:35
p3761
tp3762
a(g3432
V25!/(12!13!)
p3763
(lp3764
(S'R.0.0'
p3765
F25.0
V13+12
p3766
V25
p3767
tp3768
aVielouaae
p3769
g945
V2015-10-15 08:25:55
p3770
tp3771
a(g3645
V21!/(12!9!)
p3772
(lp3773
(S'R.0.0'
p3774
F21.0
V12+9
p3775
V21
p3776
tp3777
aVytc012
p3778
g3653
V2015-10-15 11:10:31
p3779
tp3780
a(VC(10+3-1,10)
p3781
V13!/((3!))
p3782
(lp3783
(S'R.0.0'
p3784
F13.0
V10+3
p3785
V13
p3786
tp3787
aVdcastlem
p3788
(lp3789
(V$R1
p3790
V10
p3791
tp3792
a(V$R2
p3793
V3
p3794
tp3795
a(V$R1
p3796
V10
p3797
tp3798
a(V$R2
p3799
V3
p3800
tp3801
aV2015-10-15 16:56:18
p3802
tp3803
a(g3781
V13!/((10!))
p3804
(lp3805
(S'R.0.0'
p3806
F13.0
V10+3
p3807
V13
p3808
tp3809
aVdcastlem
p3810
g3789
V2015-10-15 16:56:26
p3811
tp3812
asS"['R.0.0.0', 'R.0.1']"
p3813
(lp3814
(VC(12+4-1,12)
p3815
VC(12+3-1, 3-1)
p3816
(lp3817
(S'R.0.0.0'
p3818
F12.0
V12
p3819
V12
p3820
tp3821
a(S'R.0.1'
p3822
F1.0
g3184
g3184
tp3823
aVb1green
p3824
g3223
V2015-10-15 20:49:21
p3825
tp3826
asS"['R.0.0.0']"
p3827
(lp3828
(VC(9+3-1,9)
p3829
V(9 + (3-1))! / ((9 + (3-1))-9)!
p3830
(lp3831
(S'R.0.0.0'
p3832
F9.0
g421
g421
tp3833
aVeyhu
p3834
(lp3835
(V$R1
p3836
V9
p3837
tp3838
a(V$R2
p3839
V3
p3840
tp3841
a(V$R1
p3842
V9
p3843
tp3844
a(V$R2
p3845
V3
p3846
tp3847
aV2015-10-09 02:53:14
p3848
tp3849
a(g3521
VC(9,4)*C(8,4)*4
p3850
(lp3851
(S'R.0.0.0'
p3852
F9.0
g421
g421
tp3853
aVjic212
p3854
g3529
V2015-10-12 07:10:47
p3855
tp3856
a(g3293
V14*13*12*11
p3857
(lp3858
(S'R.0.0.0'
p3859
F14.0
V14
p3860
V14
p3861
tp3862
aVglcohen
p3863
g1070
V2015-10-13 05:01:31
p3864
tp3865
a(g3293
V14*13*12*11
p3866
(lp3867
(S'R.0.0.0'
p3868
F14.0
V14
p3869
V14
p3870
tp3871
aVglcohen
p3872
g1070
V2015-10-13 05:26:31
p3873
tp3874
a(VC(7+2-1,7)
p3875
V7!/2!(7-2)!
p3876
(lp3877
(S'R.0.0.0'
p3878
F7.0
g673
g673
tp3879
aVwcwhite
p3880
(lp3881
(V$R1
p3882
V7
p3883
tp3884
a(V$R2
p3885
V2
p3886
tp3887
a(V$R1
p3888
V7
p3889
tp3890
a(V$R2
p3891
V2
p3892
tp3893
aV2015-10-14 02:05:09
p3894
tp3895
a(g3498
V(13+4)!/(12!*5!)
p3896
(lp3897
(S'R.0.0.0'
p3898
F13.0
V13
p3899
V13
p3900
tp3901
aVedcole
p3902
g3506
V2015-10-14 02:32:04
p3903
tp3904
a(g3363
V8*7*6*5
p3905
(lp3906
(S'R.0.0.0'
p3907
F8.0
g464
g464
tp3908
aVc1wei
p3909
(lp3910
(V$R1
p3911
V8
p3912
tp3913
a(V$R2
p3914
V4
p3915
tp3916
a(V$R1
p3917
V8
p3918
tp3919
a(V$R2
p3920
V4
p3921
tp3922
aV2015-10-14 08:05:27
p3923
tp3924
a(VC(10+3-1,10)
p3925
V(10*9*8)/(3!)
p3926
(lp3927
(S'R.0.0.0'
p3928
F10.0
V10
p3929
V10
p3930
tp3931
aVr1gu
p3932
g976
V2015-10-15 12:07:07
p3933
tp3934
asS"['R.0']"
p3935
(lp3936
(VC(10+6-1,10)
p3937
VC(15, 9)
p3938
(lp3939
(S'R.0'
p3940
F15.0
V10+6-1
p3941
V15
p3942
tp3943
aVzhw110
p3944
g2912
V2015-10-09 04:43:41
p3945
tp3946
a(VC(8+3-1,8)
p3947
VC(10,3)
p3948
(lp3949
(S'R.0'
p3950
F10.0
V8+3-1
p3951
V10
p3952
tp3953
aVbeyounge
p3954
g2933
V2015-10-09 05:34:28
p3955
tp3956
a(VC(9+6-1,9)
p3957
VC(14,6)
p3958
(lp3959
(S'R.0'
p3960
F14.0
V9+6-1
p3961
V14
p3962
tp3963
aVlguintu
p3964
g424
V2015-10-09 21:26:18
p3965
tp3966
a(VC(8+3-1,8)
p3967
VC(10,3)
p3968
(lp3969
(S'R.0'
p3970
F10.0
V8+3-1
p3971
V10
p3972
tp3973
aVdan029
p3974
(lp3975
(V$R1
p3976
V8
p3977
tp3978
a(V$R2
p3979
V3
p3980
tp3981
a(V$R1
p3982
V8
p3983
tp3984
a(V$R2
p3985
V3
p3986
tp3987
aV2015-10-09 22:49:16
p3988
tp3989
a(VC(15+4-1,15)
p3990
VC(18,4)
p3991
(lp3992
(S'R.0'
p3993
F18.0
V15+4-1
p3994
V18
p3995
tp3996
aVbmilton
p3997
(lp3998
(V$R1
p3999
V15
p4000
tp4001
a(V$R2
p4002
V4
p4003
tp4004
a(V$R1
p4005
V15
p4006
tp4007
a(V$R2
p4008
V4
p4009
tp4010
aV2015-10-09 23:09:01
p4011
tp4012
a(VC(11+6-1,11)
p4013
VC(16,6)
p4014
(lp4015
(S'R.0'
p4016
F16.0
V11+6-1
p4017
V16
p4018
tp4019
aVdando
p4020
(lp4021
(V$R1
p4022
V11
p4023
tp4024
a(V$R2
p4025
V6
p4026
tp4027
a(V$R1
p4028
V11
p4029
tp4030
a(V$R2
p4031
V6
p4032
tp4033
aV2015-10-09 23:11:28
p4034
tp4035
a(VC(10+4-1,10)
p4036
VC(13,4)
p4037
(lp4038
(S'R.0'
p4039
F13.0
V10+4-1
p4040
V13
p4041
tp4042
aVdpereira
p4043
(lp4044
(V$R1
p4045
V10
p4046
tp4047
a(V$R2
p4048
V4
p4049
tp4050
a(V$R1
p4051
V10
p4052
tp4053
a(V$R2
p4054
V4
p4055
tp4056
aV2015-10-10 05:51:42
p4057
tp4058
a(VC(9+6-1,9)
p4059
VC(14,3)
p4060
(lp4061
(S'R.0'
p4062
F14.0
V9+6-1
p4063
V14
p4064
tp4065
aVvsamant
p4066
g2425
V2015-10-10 16:38:23
p4067
tp4068
a(g4059
VC(14,6)
p4069
(lp4070
(S'R.0'
p4071
F14.0
V9+6-1
p4072
V14
p4073
tp4074
aVvsamant
p4075
g2425
V2015-10-10 16:49:52
p4076
tp4077
a(VC(11+3-1,11)
p4078
VC(13,3)
p4079
(lp4080
(S'R.0'
p4081
F13.0
V11+3-1
p4082
V13
p4083
tp4084
aVjdeon
p4085
(lp4086
(V$R1
p4087
V11
p4088
tp4089
a(V$R2
p4090
V3
p4091
tp4092
a(V$R1
p4093
V11
p4094
tp4095
a(V$R2
p4096
V3
p4097
tp4098
aV2015-10-10 18:49:58
p4099
tp4100
a(VC(8+5-1,8)
p4101
VC(12,5)
p4102
(lp4103
(S'R.0'
p4104
F12.0
V8+5-1
p4105
V12
p4106
tp4107
aVetemlock
p4108
g2955
V2015-10-11 00:46:46
p4109
tp4110
a(VC(7+4-1,7)
p4111
VC(10,4)
p4112
(lp4113
(S'R.0'
p4114
F10.0
V7+4-1
p4115
V10
p4116
tp4117
aVv3doan
p4118
(lp4119
(V$R1
p4120
V7
p4121
tp4122
a(V$R2
p4123
V4
p4124
tp4125
a(V$R1
p4126
V7
p4127
tp4128
a(V$R2
p4129
V4
p4130
tp4131
aV2015-10-11 02:19:08
p4132
tp4133
a(VC(7+6-1,7)
p4134
VC(12,6)
p4135
(lp4136
(S'R.0'
p4137
F12.0
V7+6-1
p4138
V12
p4139
tp4140
aVaakumar
p4141
(lp4142
(V$R1
p4143
V7
p4144
tp4145
a(V$R2
p4146
V6
p4147
tp4148
a(V$R1
p4149
V7
p4150
tp4151
a(V$R2
p4152
V6
p4153
tp4154
aV2015-10-11 05:02:40
p4155
tp4156
a(VC(12+8-1,12)
p4157
VC(19,8)
p4158
(lp4159
(S'R.0'
p4160
F19.0
V12+8-1
p4161
V19
p4162
tp4163
aVawollner
p4164
(lp4165
(V$R1
p4166
V12
p4167
tp4168
a(V$R2
p4169
V8
p4170
tp4171
a(V$R1
p4172
V12
p4173
tp4174
a(V$R2
p4175
V8
p4176
tp4177
aV2015-10-11 20:03:46
p4178
tp4179
a(VC(10+4-1,10)
p4180
VC(13,4)
p4181
(lp4182
(S'R.0'
p4183
F13.0
V10+4-1
p4184
V13
p4185
tp4186
aVchc286
p4187
(lp4188
(V$R1
p4189
V10
p4190
tp4191
a(V$R2
p4192
V4
p4193
tp4194
a(V$R1
p4195
V10
p4196
tp4197
a(V$R2
p4198
V4
p4199
tp4200
aV2015-10-11 23:21:25
p4201
tp4202
a(VC(15+10-1,15)
p4203
VC(24,12)
p4204
(lp4205
(S'R.0'
p4206
F24.0
V15+10-1
p4207
V24
p4208
tp4209
aVhkhodada
p4210
g1301
V2015-10-12 03:45:04
p4211
tp4212
a(g4203
VC(24,21)
p4213
(lp4214
(S'R.0'
p4215
F24.0
V15+10-1
p4216
V24
p4217
tp4218
aVhkhodada
p4219
g1301
V2015-10-12 03:47:41
p4220
tp4221
a(g4203
VC(24,10)
p4222
(lp4223
(S'R.0'
p4224
F24.0
V15+10-1
p4225
V24
p4226
tp4227
aVhkhodada
p4228
g1301
V2015-10-12 04:45:44
p4229
tp4230
a(g4203
VP(24,10)
p4231
(lp4232
(S'R.0'
p4233
F24.0
V15+10-1
p4234
V24
p4235
tp4236
aVhkhodada
p4237
g1301
V2015-10-12 04:58:55
p4238
tp4239
a(VC(12+11-1,12)
p4240
VC(22,11)
p4241
(lp4242
(S'R.0'
p4243
F22.0
V12+11-1
p4244
V22
p4245
tp4246
aVttimmons
p4247
(lp4248
(V$R1
p4249
V12
p4250
tp4251
a(V$R2
p4252
V11
p4253
tp4254
a(V$R1
p4255
V12
p4256
tp4257
a(V$R2
p4258
V11
p4259
tp4260
aV2015-10-12 18:49:24
p4261
tp4262
a(VC(14+10-1,14)
p4263
VC( 23, 10)
p4264
(lp4265
(S'R.0'
p4266
F23.0
V14+10-1
p4267
V23
p4268
tp4269
aVany027
p4270
(lp4271
(V$R1
p4272
V14
p4273
tp4274
a(V$R2
p4275
V10
p4276
tp4277
a(V$R1
p4278
V14
p4279
tp4280
a(V$R2
p4281
V10
p4282
tp4283
aV2015-10-12 20:02:47
p4284
tp4285
a(VC(11+3-1,11)
p4286
VC(13,3)
p4287
(lp4288
(S'R.0'
p4289
F13.0
V11+3-1
p4290
V13
p4291
tp4292
aVyypan
p4293
(lp4294
(V$R1
p4295
V11
p4296
tp4297
a(V$R2
p4298
V3
p4299
tp4300
a(V$R1
p4301
V11
p4302
tp4303
a(V$R2
p4304
V3
p4305
tp4306
aV2015-10-12 20:33:20
p4307
tp4308
a(VC(11+2-1,11)
p4309
VC(12,2)
p4310
(lp4311
(S'R.0'
p4312
F12.0
V11+2-1
p4313
V12
p4314
tp4315
aVlywong
p4316
g1501
V2015-10-13 00:16:44
p4317
tp4318
a(g4309
VC(12,2)
p4319
(lp4320
(S'R.0'
p4321
F12.0
V11+2-1
p4322
V12
p4323
tp4324
aVlywong
p4325
g1501
V2015-10-13 00:17:19
p4326
tp4327
a(g4309
VC(12,10)
p4328
(lp4329
(S'R.0'
p4330
F12.0
V11+2-1
p4331
V12
p4332
tp4333
aVlywong
p4334
g1501
V2015-10-13 00:21:38
p4335
tp4336
a(VC(12+4-1,12)
p4337
VC(15,4)
p4338
(lp4339
(S'R.0'
p4340
F15.0
V12+4-1
p4341
V15
p4342
tp4343
aVacvuong
p4344
(lp4345
(V$R1
p4346
V12
p4347
tp4348
a(V$R2
p4349
V4
p4350
tp4351
a(V$R1
p4352
V12
p4353
tp4354
a(V$R2
p4355
V4
p4356
tp4357
aV2015-10-13 04:29:29
p4358
tp4359
a(VC(11+3-1,11)
p4360
VC(13,3)
p4361
(lp4362
(S'R.0'
p4363
F13.0
V11+3-1
p4364
V13
p4365
tp4366
aVdsmonaha
p4367
(lp4368
(V$R1
p4369
V11
p4370
tp4371
a(V$R2
p4372
V3
p4373
tp4374
a(V$R1
p4375
V11
p4376
tp4377
a(V$R2
p4378
V3
p4379
tp4380
aV2015-10-13 17:44:58
p4381
tp4382
a(g4203
VC(24,10)
p4383
(lp4384
(S'R.0'
p4385
F24.0
V15+10-1
p4386
V24
p4387
tp4388
aVhkhodada
p4389
g1301
V2015-10-13 19:37:17
p4390
tp4391
a(VC(15+7-1,15)
p4392
VC(21,7)
p4393
(lp4394
(S'R.0'
p4395
F21.0
V15+7-1
p4396
V21
p4397
tp4398
aVksmurlo
p4399
g699
V2015-10-13 23:17:18
p4400
tp4401
a(VC(13+7-1,13)
p4402
VC(19,7)
p4403
(lp4404
(S'R.0'
p4405
F19.0
V13+7-1
p4406
V19
p4407
tp4408
aVtol003
p4409
g1643
V2015-10-14 00:18:13
p4410
tp4411
a(VC(9+7-1,9)
p4412
VC(15, 7)
p4413
(lp4414
(S'R.0'
p4415
F15.0
V9+7-1
p4416
V15
p4417
tp4418
aVv4sharma
p4419
g749
V2015-10-14 01:03:29
p4420
tp4421
a(VC(9+2-1,9)
p4422
VC(10,2)
p4423
(lp4424
(S'R.0'
p4425
F10.0
V9+2-1
p4426
V10
p4427
tp4428
aVhaliew
p4429
g3027
V2015-10-14 01:12:47
p4430
tp4431
a(g4422
VC(10,2)
p4432
(lp4433
(S'R.0'
p4434
F10.0
V9+2-1
p4435
V10
p4436
tp4437
aVhaliew
p4438
g3027
V2015-10-14 01:25:41
p4439
tp4440
a(VC(8+6-1,8)
p4441
VC(13,6)
p4442
(lp4443
(S'R.0'
p4444
F13.0
V8+6-1
p4445
V13
p4446
tp4447
aVatorr
p4448
g467
V2015-10-14 01:33:50
p4449
tp4450
a(VC(8+5-1,8)
p4451
VC(12,5)
p4452
(lp4453
(S'R.0'
p4454
F12.0
V8+5-1
p4455
V12
p4456
tp4457
aVcsl030
p4458
g2839
V2015-10-14 01:55:59
p4459
tp4460
a(VC(15+5-1,15)
p4461
VC(19,5)
p4462
(lp4463
(S'R.0'
p4464
F19.0
V15+5-1
p4465
V19
p4466
tp4467
aVeaherman
p4468
(lp4469
(V$R1
p4470
V15
p4471
tp4472
a(V$R2
p4473
V5
p4474
tp4475
a(V$R1
p4476
V15
p4477
tp4478
a(V$R2
p4479
V5
p4480
tp4481
aV2015-10-14 02:41:13
p4482
tp4483
a(VC(8+4-1,8)
p4484
VC(11,7)
p4485
(lp4486
(S'R.0'
p4487
F11.0
V8+4-1
p4488
V11
p4489
tp4490
aVapokhare
p4491
g3049
V2015-10-14 05:04:43
p4492
tp4493
a(VC(10+5-1,10)
p4494
VC(14,5)
p4495
(lp4496
(S'R.0'
p4497
F14.0
V10+5-1
p4498
V14
p4499
tp4500
aVe9brown
p4501
(lp4502
(V$R1
p4503
V10
p4504
tp4505
a(V$R2
p4506
V5
p4507
tp4508
a(V$R1
p4509
V10
p4510
tp4511
a(V$R2
p4512
V5
p4513
tp4514
aV2015-10-14 08:39:35
p4515
tp4516
a(g4494
VC(14,9)
p4517
(lp4518
(S'R.0'
p4519
F14.0
V10+5-1
p4520
V14
p4521
tp4522
aVe9brown
p4523
g4502
V2015-10-14 08:40:13
p4524
tp4525
a(VC(9+2-1,9)
p4526
VC(10,2)
p4527
(lp4528
(S'R.0'
p4529
F10.0
V9+2-1
p4530
V10
p4531
tp4532
aVnisharma
p4533
g3103
V2015-10-14 18:03:47
p4534
tp4535
a(VC(8+6-1,8)
p4536
VC(13,6)
p4537
(lp4538
(S'R.0'
p4539
F13.0
V8+6-1
p4540
V13
p4541
tp4542
aVrbdoming
p4543
(lp4544
(V$R1
p4545
V8
p4546
tp4547
a(V$R2
p4548
V6
p4549
tp4550
a(V$R1
p4551
V8
p4552
tp4553
a(V$R2
p4554
V6
p4555
tp4556
aV2015-10-14 18:37:16
p4557
tp4558
a(g4360
VP(13,3)
p4559
(lp4560
(S'R.0'
p4561
F13.0
V11+3-1
p4562
V13
p4563
tp4564
aVdsmonaha
p4565
g4368
V2015-10-14 18:40:48
p4566
tp4567
a(g4536
VC(13,6)
p4568
(lp4569
(S'R.0'
p4570
F13.0
V8+6-1
p4571
V13
p4572
tp4573
aVrbdoming
p4574
g4544
V2015-10-14 18:41:43
p4575
tp4576
a(VC(11+7-1,11)
p4577
VC(17,7)
p4578
(lp4579
(S'R.0'
p4580
F17.0
V11+7-1
p4581
V17
p4582
tp4583
aVjjchung
p4584
(lp4585
(V$R1
p4586
V11
p4587
tp4588
a(V$R2
p4589
V7
p4590
tp4591
a(V$R1
p4592
V11
p4593
tp4594
a(V$R2
p4595
V7
p4596
tp4597
aV2015-10-14 19:44:21
p4598
tp4599
a(g4577
VC(17,7)
p4600
(lp4601
(S'R.0'
p4602
F17.0
V11+7-1
p4603
V17
p4604
tp4605
aVjjchung
p4606
g4585
V2015-10-14 19:45:11
p4607
tp4608
a(VC(11+2-1,11)
p4609
V12!
p4610
(lp4611
(S'R.0'
p4612
F12.0
V11+2-1
p4613
V12
p4614
tp4615
aVc1sorian
p4616
g1797
V2015-10-14 22:44:49
p4617
tp4618
a(VC(10+7-1,10)
p4619
VC(16,7)
p4620
(lp4621
(S'R.0'
p4622
F16.0
V10+7-1
p4623
V16
p4624
tp4625
aVkalang
p4626
g2694
V2015-10-14 22:58:25
p4627
tp4628
a(VC(13+8-1,13)
p4629
VC(20,8)
p4630
(lp4631
(S'R.0'
p4632
F20.0
V13+8-1
p4633
V20
p4634
tp4635
aVskodigal
p4636
(lp4637
(V$R1
p4638
V13
p4639
tp4640
a(V$R2
p4641
V8
p4642
tp4643
a(V$R1
p4644
V13
p4645
tp4646
a(V$R2
p4647
V8
p4648
tp4649
aV2015-10-15 00:45:07
p4650
tp4651
a(VC(13+3-1,13)
p4652
VC(15,9)
p4653
(lp4654
(S'R.0'
p4655
F15.0
V13+3-1
p4656
V15
p4657
tp4658
aVkew060
p4659
g1847
V2015-10-15 02:54:16
p4660
tp4661
a(VC(11+8-1,11)
p4662
VC(18,8)
p4663
(lp4664
(S'R.0'
p4665
F18.0
V11+8-1
p4666
V18
p4667
tp4668
aVjnatale
p4669
(lp4670
(V$R1
p4671
V11
p4672
tp4673
a(V$R2
p4674
V8
p4675
tp4676
a(V$R1
p4677
V11
p4678
tp4679
a(V$R2
p4680
V8
p4681
tp4682
aV2015-10-15 03:59:14
p4683
tp4684
a(VC(13+2-1,13)
p4685
VC(14,2)
p4686
(lp4687
(S'R.0'
p4688
F14.0
V13+2-1
p4689
V14
p4690
tp4691
aVvsosnovs
p4692
g2777
V2015-10-15 04:09:45
p4693
tp4694
a(VC(14+9-1,14)
p4695
VC(22,9)
p4696
(lp4697
(S'R.0'
p4698
F22.0
V14+9-1
p4699
V22
p4700
tp4701
aVhsc052
p4702
g1167
V2015-10-15 05:19:39
p4703
tp4704
a(VC(8+3-1,8)
p4705
VC(10,3)
p4706
(lp4707
(S'R.0'
p4708
F10.0
V8+3-1
p4709
V10
p4710
tp4711
aVjhw015
p4712
(lp4713
(V$R1
p4714
V8
p4715
tp4716
a(V$R2
p4717
V3
p4718
tp4719
a(V$R1
p4720
V8
p4721
tp4722
a(V$R2
p4723
V3
p4724
tp4725
aV2015-10-15 05:24:09
p4726
tp4727
a(g3677
VP(12,5)
p4728
(lp4729
(S'R.0'
p4730
F12.0
V8+5-1
p4731
V12
p4732
tp4733
aVstarinia
p4734
g3133
V2015-10-15 05:44:33
p4735
tp4736
a(VC(15+2-1,15)
p4737
VC(16,2)
p4738
(lp4739
(S'R.0'
p4740
F16.0
V15+2-1
p4741
V16
p4742
tp4743
aVdaw023
p4744
(lp4745
(V$R1
p4746
V15
p4747
tp4748
a(V$R2
p4749
V2
p4750
tp4751
a(V$R1
p4752
V15
p4753
tp4754
a(V$R2
p4755
V2
p4756
tp4757
aV2015-10-15 06:57:11
p4758
tp4759
a(g3421
VC(15+13-1, 13)
p4760
(lp4761
(S'R.0'
p4762
F27.0
V15+13-1
p4763
V15+13-1
p4764
tp4765
aVv4zhang
p4766
g2816
V2015-10-15 07:00:33
p4767
tp4768
a(g3421
VC(27, 13)
p4769
(lp4770
(S'R.0'
p4771
F27.0
V15+13-1
p4772
V27
p4773
tp4774
aVv4zhang
p4775
g2816
V2015-10-15 07:04:13
p4776
tp4777
a(g3421
VC(27, 13)
p4778
(lp4779
(S'R.0'
p4780
F27.0
V15+13-1
p4781
V27
p4782
tp4783
aVv4zhang
p4784
g2816
V2015-10-15 07:09:03
p4785
tp4786
a(VC(8+4-1,8)
p4787
VC(11,4)
p4788
(lp4789
(S'R.0'
p4790
F11.0
V8+4-1
p4791
V11
p4792
tp4793
aVppanourg
p4794
(lp4795
(V$R1
p4796
V8
p4797
tp4798
a(V$R2
p4799
V4
p4800
tp4801
a(V$R1
p4802
V8
p4803
tp4804
a(V$R2
p4805
V4
p4806
tp4807
aV2015-10-15 07:23:48
p4808
tp4809
a(g3925
VC(12,3)
p4810
(lp4811
(S'R.0'
p4812
F12.0
V10+3-1
p4813
V12
p4814
tp4815
aVr1gu
p4816
g976
V2015-10-15 12:05:56
p4817
tp4818
a(g3925
VC(12,3)
p4819
(lp4820
(S'R.0'
p4821
F12.0
V10+3-1
p4822
V12
p4823
tp4824
aVr1gu
p4825
g976
V2015-10-15 12:10:33
p4826
tp4827
a(VC(12+6-1,12)
p4828
VC(17,6)
p4829
(lp4830
(S'R.0'
p4831
F17.0
V12+6-1
p4832
V17
p4833
tp4834
aVsachadal
p4835
g1777
V2015-10-15 15:09:21
p4836
tp4837
a(VC(13+12-1,13)
p4838
VC(24,12)
p4839
(lp4840
(S'R.0'
p4841
F24.0
V13+12-1
p4842
V24
p4843
tp4844
aVjhc010
p4845
g1947
V2015-10-15 15:58:54
p4846
tp4847
a(g3448
VC(16,7)
p4848
(lp4849
(S'R.0'
p4850
F16.0
V10+7-1
p4851
V16
p4852
tp4853
aVjag028
p4854
g1142
V2015-10-15 16:50:07
p4855
tp4856
a(g3448
VC(16,9)
p4857
(lp4858
(S'R.0'
p4859
F16.0
V10+7-1
p4860
V16
p4861
tp4862
aVjag028
p4863
g1142
V2015-10-15 16:58:47
p4864
tp4865
a(VC(12+5-1,12)
p4866
VC(12+5-1,5)
p4867
(lp4868
(S'R.0'
p4869
F16.0
V12+5-1
p4870
V12+5-1
p4871
tp4872
aVflhernan
p4873
(lp4874
(V$R1
p4875
V12
p4876
tp4877
a(V$R2
p4878
V5
p4879
tp4880
a(V$R1
p4881
V12
p4882
tp4883
a(V$R2
p4884
V5
p4885
tp4886
aV2015-10-15 18:34:26
p4887
tp4888
a(g4866
VC(16,5)
p4889
(lp4890
(S'R.0'
p4891
F16.0
V12+5-1
p4892
V16
p4893
tp4894
aVflhernan
p4895
g4874
V2015-10-15 18:40:07
p4896
tp4897
a(VC(8+7-1,8)
p4898
VC(14, 7)
p4899
(lp4900
(S'R.0'
p4901
F14.0
V8+7-1
p4902
V14
p4903
tp4904
aVazkong
p4905
(lp4906
(V$R1
p4907
V8
p4908
tp4909
a(V$R2
p4910
V7
p4911
tp4912
a(V$R1
p4913
V8
p4914
tp4915
a(V$R2
p4916
V7
p4917
tp4918
aV2015-10-15 18:46:03
p4919
tp4920
a(g3242
VC(15,3)
p4921
(lp4922
(S'R.0'
p4923
F15.0
V13+3-1
p4924
V15
p4925
tp4926
aVj5phung
p4927
(lp4928
(V$R1
p4929
V13
p4930
tp4931
a(V$R2
p4932
V3
p4933
tp4934
a(V$R1
p4935
V13
p4936
tp4937
a(V$R2
p4938
V3
p4939
tp4940
aV2015-10-15 19:50:48
p4941
tp4942
a(g3459
VC(14,2)
p4943
(lp4944
(S'R.0'
p4945
F14.0
V13+2-1
p4946
V14
p4947
tp4948
aVaordookh
p4949
(lp4950
(V$R1
p4951
V13
p4952
tp4953
a(V$R2
p4954
V2
p4955
tp4956
a(V$R1
p4957
V13
p4958
tp4959
a(V$R2
p4960
V2
p4961
tp4962
aV2015-10-15 20:39:37
p4963
tp4964
a(VC(7+4-1,7)
p4965
VC(4+7-1,4)
p4966
(lp4967
(S'R.0'
p4968
F10.0
V7+4-1
p4969
V4+7-1
p4970
tp4971
aVbpandayk
p4972
(lp4973
(V$R1
p4974
V7
p4975
tp4976
a(V$R2
p4977
V4
p4978
tp4979
a(V$R1
p4980
V7
p4981
tp4982
a(V$R2
p4983
V4
p4984
tp4985
aV2015-10-15 22:17:11
p4986
tp4987
a(VC(12+11-1,12)
p4988
VC(22,11)
p4989
(lp4990
(S'R.0'
p4991
F22.0
V12+11-1
p4992
V22
p4993
tp4994
aVakg009
p4995
g1979
V2015-10-15 22:31:52
p4996
tp4997
asS"['R.0.0', 'R.0.1']"
p4998
(lp4999
(g4866
VC(12+5+1,5)
p5000
(lp5001
(S'R.0.0'
p5002
F17.0
V12+5
p5003
V12+5
p5004
tp5005
a(S'R.0.1'
p5006
F1.0
g3184
g3184
tp5007
aVflhernan
p5008
g4874
V2015-10-15 18:39:56
p5009
tp5010
asg2022
(lp5011
(g3829
V(9 + (3-1))! / (((9 + (3-1))-9)! * (9 + (3-1))!)
p5012
tp5013
a(g3937
V6**10/10!
p5014
tp5015
a(g3937
V6**10/(6!*4!)
p5016
tp5017
a(g3242
V3^13/13!
p5018
tp5019
a(g3957
V6^9/9!
p5020
tp5021
a(g3957
V6^9/9!
p5022
tp5023
a(g3957
V6^9/6!
p5024
tp5025
a(VC(12+5-1,12)
p5026
V5^12/12!
p5027
tp5028
a(VC(14+3-1,14)
p5029
V3^14/14!
p5030
tp5031
a(VC(11+8-1,11)
p5032
V8^11/8!
p5033
tp5034
a(g5032
V8^11/11!
p5035
tp5036
a(g4111
V4^7 / 4!
p5037
tp5038
a(g3271
V13!/((10!)(7!))
p5039
tp5040
a(VC(10+5-1,10)
p5041
V5^10/5!
p5042
tp5043
a(g3293
V(4^14)/(4!)
p5044
tp5045
a(g3293
V(4^14)/(14!)
p5046
tp5047
a(VC(10+4-1,10)
p5048
V4^10/(13!/10!/3!)
p5049
tp5050
a(g3341
V9/8
p5051
tp5052
a(g3341
V8/9
p5053
tp5054
a(g3353
V3^6/2
p5055
tp5056
a(g3353
V3^7/2
p5057
tp5058
a(g3363
V8!/(4^8)
p5059
tp5060
a(g3363
V4^8/(4!)
p5061
tp5062
a(g3314
V13!/(10!4!)
p5063
tp5064
a(g3395
V(4^11)/(11!)
p5065
tp5066
a(g3395
V(4^11)/(11!)
p5067
tp5068
a(g3395
V(12)/((8!)*(4!))
p5069
tp5070
a(VC(9+3-1,9)
p5071
V3^9/9!
p5072
tp5073
a(g5071
V3^9/3!
p5074
tp5075
a(g3645
V(9^12)/12!
p5076
tp5077
a(VC(9+8-1,9)
p5078
V(8+8)/(8!*8!)
p5079
tp5080
asS"['R.0.1']"
p5081
(lp5082
(g4360
VC(11,1)C(3,1)
p5083
(lp5084
(S'R.0.1'
p5085
F1.0
g3184
g3184
tp5086
aVdsmonaha
p5087
g4368
V2015-10-14 18:47:45
p5088
tp5089
ass.