(dp0
V1
p1
(dp2
Vgthorn
p3
(dp4
S'part1_correct_attempt'
p5
(lp6
S'0:00:26'
p7
aV0.0546875
p8
asS'first_attempt'
p9
V2015-10-11 03:58:48
p10
sS'part1_incorrect_attempt'
p11
(lp12
(S'0:00:00'
p13
V0.0439453125
p14
tp15
assVapokhare
p16
(dp17
S'part1_correct_attempt'
p18
(lp19
S'0:48:34'
p20
aV((1/2)^10)*56
p21
asg9
V2015-10-12 18:43:40
p22
sS'part1_incorrect_attempt'
p23
(lp24
(S'0:00:00'
p25
V(1/2)^8
p26
tp27
a(S'0:00:00'
p28
V((1/2)^10 )*45
p29
tp30
assVv4zhang
p31
(dp32
S'part1_correct_attempt'
p33
(lp34
S'0:14:37'
p35
aV[((10*9*8*7)/4!)+((10*9*8)/3!)+(10*9/2!)+(10)+1]/(2^10)
p36
asg9
V2015-10-15 05:23:08
p37
sS'part1_incorrect_attempt'
p38
(lp39
(S'0:00:00'
p40
V1-[((10*9*8*7)/4!)+((10*9*8)/3!)+(10*9/2!)+(10)]/(2^10)
p41
tp42
assVaggouw
p43
(dp44
S'part1_correct_attempt'
p45
(lp46
S'0:00:39'
p47
aV((10!/(2!*8!))*(0.5)^10 ) + ((10!/(1!*9!))*(0.5)^10) + ((0.5)^10)
p48
asg9
V2015-10-15 07:16:54
p49
sS'part1_incorrect_attempt'
p50
(lp51
(S'0:00:00'
p52
V(10!/(2!*8!))*(0.5)^10
p53
tp54
assVsrl006
p55
(dp56
S'part1_correct_attempt'
p57
(lp58
S'0:00:06'
p59
aV0.0546875
p60
asg9
V2015-10-10 01:54:00
p61
sS'part1_incorrect_attempt'
p62
(lp63
(S'0:00:00'
p64
V0.05
p65
tp66
assVjguanzho
p67
(dp68
S'part1_correct_attempt'
p69
(lp70
S'17:56:11'
p71
aV10!((1/(6!*4!)) + (1/(7!*3!)) + (1/(8!*2!)) + (1/(9!)) + (1/10!)) / (2**10)
p72
asg9
V2015-10-09 01:30:44
p73
sS'part1_incorrect_attempt'
p74
(lp75
(S'0:00:00'
p76
V1/(2**6)
p77
tp78
a(S'0:00:11'
p79
V1/(2**4)
p80
tp81
a(S'0:01:10'
p82
V1/((2**4)(10!))
p83
tp84
a(S'0:02:14'
p85
V10!/(4!*6!)
p86
tp87
a(S'0:02:36'
p88
V(10!/(4!*6!))/(10!)
p89
tp90
assVjjm019
p91
(dp92
S'part1_correct_attempt'
p93
(lp94
S'0:13:31'
p95
aV0.3770
p96
asg9
V2015-10-15 06:32:48
p97
sS'part1_incorrect_attempt'
p98
(lp99
(S'0:00:00'
p100
V0.5^4
p101
tp102
a(S'0:00:00'
p103
V(1/(2^6))+(1/(2^7))+(1/(2^8))+(1/(2^9))+(1/(2^10))
p104
tp105
a(S'0:01:06'
p106
V1-(.5^4)
p107
tp108
a(S'0:03:16'
p109
V10!/(4!*6!)
p110
tp111
a(S'0:03:21'
p112
V10!/(4!)
p113
tp114
a(S'0:03:25'
p115
V10!/(6!)
p116
tp117
assVskarimik
p118
(dp119
S'part1_correct_attempt'
p120
(lp121
S'4 days, 7:04:04'
p122
aV((1/2)^10)+((1/2)^10)*(10!/9!)+((1/2)^10)*(10!/(8!2!))+((1/2)^10)*(10!/(7!3!))
p123
asg9
V2015-10-09 07:34:58
p124
sS'part1_incorrect_attempt'
p125
(lp126
(S'0:00:00'
p127
V10!/((2^10)7!3!)
p128
tp129
assVnhn018
p130
(dp131
S'part1_correct_attempt'
p132
(lp133
S'0:00:40'
p134
aV386/(2^10)
p135
asg9
V2015-10-15 01:36:14
p136
sS'part1_incorrect_attempt'
p137
(lp138
(S'0:00:00'
p139
V(6/2)^10
p140
tp141
assVj5phung
p142
(dp143
S'part1_correct_attempt'
p144
(lp145
S'2 days, 3:49:32'
p146
aV(C(10,8)+C(10,9)+C(10,10))/2^10
p147
asg9
V2015-10-09 17:01:38
p148
sS'part1_incorrect_attempt'
p149
(lp150
(S'0:00:00'
p151
V1-(986/2^10)
p152
tp153
assVjew037
p154
(dp155
S'part1_correct_attempt'
p156
(lp157
S'3:56:30'
p158
aV(C(10,8) + C(10, 9) + C(10,10)) / 2^10
p159
asg9
V2015-10-13 22:44:42
p160
sS'part1_incorrect_attempt'
p161
(lp162
(S'0:00:00'
p163
V(1/2)^8
p164
tp165
assVmnrahman
p166
(dp167
S'part1_correct_attempt'
p168
(lp169
S'0:00:08'
p170
aV(C(10,8)+C(10,8+1)+1)/(2^10)
p171
asg9
V2015-10-15 06:26:00
p172
sS'part1_incorrect_attempt'
p173
(lp174
(S'0:00:00'
p175
VC(10,8)+C(10,8+1)+1/(2^10)
p176
tp177
assVlalacson
p178
(dp179
S'part1_correct_attempt'
p180
(lp181
S'0:00:51'
p182
aV((C(10,10))/2^10)+((C(10,9))/2^10)+((C(10,8))/2^10)+((C(10,7))/2^10)+((C(10,6))/2^10)
p183
asg9
V2015-10-11 15:02:30
p184
sS'part1_incorrect_attempt'
p185
(lp186
(S'0:00:00'
p187
V1-(((C(10,10))/2^10)+((C(10,9))/2^10)+((C(10,8))/2^10)+((C(10,7))/2^10))
p188
tp189
assVdgunawan
p190
(dp191
S'part1_correct_attempt'
p192
(lp193
S'0:08:50'
p194
aV0.0546875
p195
asg9
V2015-10-14 19:39:04
p196
sS'part1_incorrect_attempt'
p197
(lp198
(S'0:00:00'
p199
V(0.5) * 8
p200
tp201
a(S'0:00:11'
p202
V(0.5)^8
p203
tp204
a(S'0:00:30'
p205
V(0.5) * 10
p206
tp207
a(S'0:01:02'
p208
V(0.5) * 9
p209
tp210
a(S'0:01:10'
p211
V(1/2) * 9
p212
tp213
a(S'0:03:01'
p214
V(1/2) ^ 9
p215
tp216
a(S'0:04:10'
p217
V5^10 * 10!/(8! * 2!)
p218
tp219
a(S'0:05:27'
p220
V1 - 0.043945313
p221
tp222
a(S'0:05:55'
p223
V0.043945313
p224
tp225
assVdsriniva
p226
(dp227
S'part1_correct_attempt'
p228
(lp229
S'0:02:49'
p230
aV0.5^10*(210+120+45+10+1)
p231
asg9
V2015-10-15 19:33:55
p232
sS'part1_incorrect_attempt'
p233
(lp234
(S'0:00:00'
p235
V1-(0.5^10*120+0.5^10*45+0.5^10*10)
p236
tp237
a(S'0:01:42'
p238
V(0.5^10*120+0.5^10*45+0.5^10*10)
p239
tp240
a(S'0:02:08'
p241
V(0.5^10*120+0.5^10*45+0.5^10*10+0.5^10*210)
p242
tp243
assVsayao
p244
(dp245
S'part1_correct_attempt'
p246
(lp247
S'0:02:55'
p248
aV10!/(10!*2^10)+10!/(9!*1!*2^10)+10!/(8!*2!*2^10)+10!/(7!*3!*2^10)+10!/(6!*4!*2^10)
p249
asg9
V2015-10-12 00:06:02
p250
sS'part1_incorrect_attempt'
p251
(lp252
(S'0:00:00'
p253
V6/10
p254
tp255
a(S'0:00:34'
p256
V10!/(6!*4!*2^10)
p257
tp258
a(S'0:01:49'
p259
V1-(10!/(10!*2^10)-10!/(9!*1!*2^10)-10!/(8!*2!*2^10)-10!/(7!*3!*2^10))
p260
tp261
a(S'0:02:03'
p262
V1-10!/(10!*2^10)-10!/(9!*1!*2^10)-10!/(8!*2!*2^10)-10!/(7!*3!*2^10)
p263
tp264
assVanvan
p265
(dp266
S'part1_correct_attempt'
p267
(lp268
S'0:07:05'
p269
aV(1/2)^10 + 10!/9! / 2^10 + 10!/ (8!2!) / 2^10 + 10!/(7!3!) / (2^10)
p270
asg9
V2015-10-14 18:51:56
p271
sS'part1_incorrect_attempt'
p272
(lp273
(S'0:00:00'
p274
V10!(7!3!) / (2)^10
p275
tp276
a(S'0:04:55'
p277
V(1/2)^10 + 10!/9! / 2^10 + 10!/ (8!2!) / 2^10
p278
tp279
assVseleon
p280
(dp281
S'part1_correct_attempt'
p282
(lp283
S'0:00:21'
p284
aV0.171875
p285
asg9
V2015-10-15 06:33:30
p286
sS'part1_incorrect_attempt'
p287
(lp288
(S'0:00:00'
p289
V7/10
p290
tp291
assVflhernan
p292
(dp293
S'part1_correct_attempt'
p294
(lp295
S'0:27:05'
p296
aV0.376953125
p297
asg9
V2015-10-14 17:42:01
p298
sS'part1_incorrect_attempt'
p299
(lp300
(S'0:00:00'
p301
V0.0302734375
p302
tp303
a(S'0:01:05'
p304
V1/64
p305
tp306
assVa2ahmed
p307
(dp308
S'part1_correct_attempt'
p309
(lp310
S'0:00:45'
p311
aV(C(10,7)*(0.5^10)) + C(10,8)*(0.5^10) + C(10,9)*(0.5^10) + C(10,10)*(0.5^10)
p312
asg9
V2015-10-14 23:49:26
p313
sS'part1_incorrect_attempt'
p314
(lp315
(S'0:00:00'
p316
VC(10,7)*(0.5^10)
p317
tp318
assVc1wei
p319
(dp320
S'part1_correct_attempt'
p321
(lp322
S'0:24:06'
p323
aV.37697
p324
asg9
V2015-10-09 18:35:55
p325
sS'part1_incorrect_attempt'
p326
(lp327
(S'0:00:00'
p328
V4/10
p329
tp330
a(S'0:00:32'
p331
V(.5)^6/(.5)^10
p332
tp333
a(S'0:01:56'
p334
V(.5)^6 + (.5)^7 + (.5)^8 + (.5)^9 + (.5)^10
p335
tp336
assVmitopete
p337
(dp338
S'part1_correct_attempt'
p339
(lp340
S'0:01:01'
p341
aV((0.5)^10)*(10!/(8!*2!))+((0.5)^10)*(10!/(9!*1!))+(0.5)^10
p342
asg9
V2015-10-13 06:28:17
p343
sS'part1_incorrect_attempt'
p344
(lp345
(S'0:00:00'
p346
V0.5^10(10!/(9!1!))+0.5^10
p347
tp348
assVm8woo
p349
(dp350
S'part1_correct_attempt'
p351
(lp352
S'0:00:13'
p353
aV[(C(10,8) + C(10,9) + 1) / 2^10]
p354
asg9
V2015-10-10 00:26:02
p355
sS'part1_incorrect_attempt'
p356
(lp357
(S'0:00:00'
p358
V1 - [(C(10,8) + C(10,9) + 1) / 2^10]
p359
tp360
assVakg009
p361
(dp362
S'part1_correct_attempt'
p363
(lp364
S'1:38:55'
p365
aV[C(10,6) + C(10,7) + C(10,8) + C(10,9) + C(10,10)] / 2^10
p366
asg9
V2015-10-15 21:16:13
p367
sS'part1_incorrect_attempt'
p368
(lp369
(S'0:00:00'
p370
V.6
p371
tp372
a(S'0:00:22'
p373
V(1/2)^6
p374
tp375
a(S'0:49:39'
p376
V1 - C(10,4) / 2^10
p377
tp378
a(S'0:50:39'
p379
V1 - [C(10,4) + C(10,3) + C(10,2) + C(10,1)] / 2^10
p380
tp381
assVh4tu
p382
(dp383
S'part1_correct_attempt'
p384
(lp385
S'0:06:27'
p386
aV(10*9*8/6+10*9/2+10+1)/2^10
p387
asg9
V2015-10-15 04:52:01
p388
sS'part1_incorrect_attempt'
p389
(lp390
(S'0:00:00'
p391
V7!3!/10!
p392
tp393
assVjag028
p394
(dp395
S'part1_correct_attempt'
p396
(lp397
S'0:01:38'
p398
aV.5^10 * (C(10,8)) + .5^10 * (C(10,9)) + .5^10 * 1
p399
asg9
V2015-10-14 21:45:29
p400
sS'part1_incorrect_attempt'
p401
(lp402
(S'0:00:00'
p403
V.5^10 * (10!/8!2!) + .5^10 * (10!/9!1!) + .5^10 * 1
p404
tp405
assVlrlai
p406
(dp407
S'part1_correct_attempt'
p408
(lp409
S'0:00:26'
p410
aVC(10,8)*(1/2)^10 + C(10,9)*(1/2)^10 + (1/2)^10
p411
asg9
V2015-10-09 23:31:25
p412
sS'part1_incorrect_attempt'
p413
(lp414
(S'0:00:00'
p415
VC(10,8)*(1/2)^10
p416
tp417
assVjjchung
p418
(dp419
S'part1_correct_attempt'
p420
(lp421
S'0:00:59'
p422
aV((1/2)^10 * 10!/(6!4!)) + ((1/2)^10 * 10!/(7!3!)) + ((1/2)^10 * 10!/(8!2!)) + ((1/2)^10 * 10!/(9!1!)) + ((1/2)^10 * 10!/(10!))
p423
asg9
V2015-10-12 17:53:37
p424
sS'part1_incorrect_attempt'
p425
(lp426
(S'0:00:00'
p427
V(1/2)^10 * 10!/(6!4!)
p428
tp429
assVasp025
p430
(dp431
S'part1_correct_attempt'
p432
(lp433
S'4 days, 0:10:31'
p434
aV176/2^10
p435
asg9
V2015-10-11 17:44:37
p436
sS'part1_incorrect_attempt'
p437
(lp438
(S'0:00:00'
p439
V10*(100!/(70!30!))
p440
tp441
assVsachadal
p442
(dp443
S'part1_correct_attempt'
p444
(lp445
S'5 days, 20:42:02'
p446
aV(C(10,7)+C(10,8)+C(10,9)+C(10,10))/2^10
p447
asg9
V2015-10-09 17:59:34
p448
sS'part1_incorrect_attempt'
p449
(lp450
(S'0:00:00'
p451
V(1/2)^7
p452
tp453
assVkrau
p454
(dp455
S'part1_correct_attempt'
p456
(lp457
S'0:02:01'
p458
aV((.5^10) * 45) + ((.5^10) * 10) + ((.5^10))
p459
asg9
V2015-10-13 18:12:40
p460
sS'part1_incorrect_attempt'
p461
(lp462
(S'0:00:00'
p463
V(.5^10) * 10!/8!2!
p464
tp465
assVmroknich
p466
(dp467
S'part1_correct_attempt'
p468
(lp469
S'0:57:38'
p470
aVC(10,6)*(1/2)^6(1/2)^4 + C(10,7)*(1/2)^7(1/2)^3 + C(10,8)*(1/2)^8(1/2)^2 + C(10,9)*(1/2)^9(1/2)^1 + C(10,10)*(1/2)^10(1/2)^0
p471
asg9
V2015-10-13 00:35:02
p472
sS'part1_incorrect_attempt'
p473
(lp474
(S'0:00:00'
p475
V1-(9/10)^6
p476
tp477
a(S'0:00:07'
p478
V(9/10)^6
p479
tp480
a(S'0:00:00'
p481
VC(10,6)*(1/10)^6(9/10)^4
p482
tp483
assValhung
p484
(dp485
S'part1_correct_attempt'
p486
(lp487
S'0:00:40'
p488
aV[(1/2)^10]*C(10,7)+[(1/2)^10]*C(10,8)+[(1/2)^10]C(10,9)+[(1/2)^10]
p489
asg9
V2015-10-15 17:33:12
p490
sS'part1_incorrect_attempt'
p491
(lp492
(S'0:00:00'
p493
V1-([(1/2)^10]*C(10,7)+[(1/2)^10]*C(10,8)+[(1/2)^10]C(10,9)+[(1/2)^10])
p494
tp495
assVtpmach
p496
(dp497
S'part1_correct_attempt'
p498
(lp499
S'1:10:43'
p500
aV(0.5^10)*(10!/(8!*2!))+(0.5^10)*(10!/(9!*1!))+(0.5^10)*(10!/(10!*0!))
p501
asg9
V2015-10-12 00:54:36
p502
sS'part1_incorrect_attempt'
p503
(lp504
(S'0:00:00'
p505
V1/256
p506
tp507
a(S'0:00:00'
p508
V8/10
p509
tp510
a(S'0:00:23'
p511
V(1/2)^8
p512
tp513
a(S'0:01:22'
p514
V0.2
p515
tp516
a(S'0:05:09'
p517
V0.043945313
p518
tp519
assVc2qiu
p520
(dp521
S'part1_correct_attempt'
p522
(lp523
S'0:02:21'
p524
aV(10!/(6!*4!))*(0.5^6)(0.5^4)+(10!/(7!*3!))*(0.5^10)+(10!/(8!*2))*0.5^10+(10!/9!)*0.5^10+0.5^10
p525
asg9
V2015-10-11 07:32:58
p526
sS'part1_incorrect_attempt'
p527
(lp528
(S'0:00:00'
p529
V(10!/(6!*4!))*(0.5^6)(0.5^4)
p530
tp531
assVhak014
p532
(dp533
S'part1_correct_attempt'
p534
(lp535
S'0:02:12'
p536
aV0.37695275
p537
asg9
V2015-10-13 03:56:41
p538
sS'part1_incorrect_attempt'
p539
(lp540
(S'0:00:00'
p541
V0.205078125
p542
tp543
assVjcj006
p544
(dp545
S'part1_correct_attempt'
p546
(lp547
S'0:05:10'
p548
aV.5^10+.5^10*10+.5^10*9*10/2+.5^10*8*9*10/6+.5^10*8*9*7*10/24
p549
asg9
V2015-10-13 20:05:40
p550
sS'part1_incorrect_attempt'
p551
(lp552
(S'0:00:00'
p553
V.5^10+.5^10*10+.5^10*10*10/2+.5^10*10*10*10/3+.5^10*10*10*10*10/4
p554
tp555
a(S'0:01:07'
p556
V.5^10+.5^10*10+.5^10*9*10/2+.5^10*8*9*10/3+.5^10*8*9*7*10/4
p557
tp558
assVrraiyyan
p559
(dp560
S'part1_correct_attempt'
p561
(lp562
S'0:01:54'
p563
aV(C(10,8)/2^10 + C(10,9)/2^10 + C(10,10)/2^10)
p564
asg9
V2015-10-14 04:32:24
p565
sS'part1_incorrect_attempt'
p566
(lp567
(S'0:00:00'
p568
VC(10,2)/2^10 + C(10,1)/2^10
p569
tp570
a(S'0:00:09'
p571
V1 - (C(10,2)/2^10 + C(10,1)/2^10)
p572
tp573
a(S'0:00:52'
p574
V1 - (C(10,8)/2^10 + C(10,9)/2^10 + C(10,9)/2^10)
p575
tp576
a(S'0:00:59'
p577
V1 - (C(10,8)/2^10 + C(10,9)/2^10 + C(10,10)/2^10)
p578
tp579
assVjhw015
p580
(dp581
S'part1_correct_attempt'
p582
(lp583
S'0:04:15'
p584
aV10!/(10!0!) * .5^10 * .5^0 + 10!/(9!1!) * .5^9 * .5^1 + 10!/(8!2!) * .5^8 * .5^2 + 10!/(7!3!) * .5^7 * .5^3 + 10!/(6!4!) * .5^6 * .5^4
p585
asg9
V2015-10-13 06:56:49
p586
sS'part1_incorrect_attempt'
p587
(lp588
(S'0:00:00'
p589
V0.5^10 * (10!/(6!*4!))
p590
tp591
assVt1tran
p592
(dp593
S'part1_correct_attempt'
p594
(lp595
S'0:04:51'
p596
aVC(10,1)/2^10+C(10,2)/2^10+C(10,0)/2^10
p597
asg9
V2015-10-10 05:08:50
p598
sS'part1_incorrect_attempt'
p599
(lp600
(S'0:00:00'
p601
V10(8*.5+2*.5)
p602
tp603
assVthwan
p604
(dp605
S'part1_correct_attempt'
p606
(lp607
S'0:00:25'
p608
aV(1/2)^(10)*(C(10,6)+C(10,7)+C(10,8)+C(10,9)+C(10,10))
p609
asg9
V2015-10-09 23:11:11
p610
sS'part1_incorrect_attempt'
p611
(lp612
(S'0:00:00'
p613
V(1/2)^(10)*(C(10,6)+C(10,7)+C(10,8)+C(10,9)+C(10,6))
p614
tp615
assVz3meng
p616
(dp617
S'part1_correct_attempt'
p618
(lp619
S'0:02:28'
p620
aV386/1024
p621
asg9
V2015-10-15 01:48:21
p622
sS'part1_incorrect_attempt'
p623
(lp624
(S'0:00:00'
p625
V0.4
p626
tp627
a(S'0:00:31'
p628
V0.5
p629
tp630
assVkrkelkar
p631
(dp632
S'part1_correct_attempt'
p633
(lp634
S'0:05:09'
p635
aV[ 1 / 2**10 ] + [ 10 / 2**10 ] + [ ( 10!/(8!*2!) )/2**10 ] + [ (10!/(7!*3!)) / 2**10 ]
p636
asg9
V2015-10-13 17:12:42
p637
sS'part1_incorrect_attempt'
p638
(lp639
(S'0:00:00'
p640
V[ 1 / 2**10 ] + [ 9 / 2**10 ] + [ ( 10!/(8!*2!) )/2**10 ] + [ (10!/(7!*3!)) / 2**10 ]
p641
tp642
assVjel075
p643
(dp644
S'part1_correct_attempt'
p645
(lp646
S'0:01:11'
p647
aV(10!/(7!*3!))*(1/2)^7*(1/2)^3+(10!/(8!*2!))*(1/2)^8*(1/2)^2+10/(2^10)+.5^10
p648
asg9
V2015-10-15 00:17:36
p649
sS'part1_incorrect_attempt'
p650
(lp651
(S'0:00:00'
p652
V(9!/(7!*2!))*(1/2)^7*(1/2)^2+9/(2^9)+.5^9
p653
tp654
assVyig015
p655
(dp656
S'part1_correct_attempt'
p657
(lp658
S'11:41:12'
p659
aV56/1024
p660
asg9
V2015-10-15 07:30:58
p661
sS'part1_incorrect_attempt'
p662
(lp663
(S'0:00:00'
p664
V1/256
p665
tp666
a(S'0:02:55'
p667
V0.75
p668
tp669
a(S'0:09:09'
p670
V(0.5)^8
p671
tp672
assVmuy002
p673
(dp674
S'part1_correct_attempt'
p675
(lp676
S'0:00:13'
p677
aV(10!/(6!4!))/2^10 + (10!/(7!3!))/2^10 + (10!/(8!2!))/2^10 + (10!/(9!1!))/2^10 + 1/2^10
p678
asg9
V2015-10-14 21:43:28
p679
sS'part1_incorrect_attempt'
p680
(lp681
(S'0:00:00'
p682
V(10!(6!4!))/2^10 + (10!(7!3!))/2^10 + (10!(8!2!))/2^10 + (10!(9!1!))/2^10 + 1/2^10
p683
tp684
assVwcwhite
p685
(dp686
S'part1_correct_attempt'
p687
(lp688
S'0:16:00'
p689
aV5.47/100
p690
asg9
V2015-10-14 00:53:12
p691
sS'part1_incorrect_attempt'
p692
(lp693
(S'0:00:00'
p694
V(1/2)^10
p695
tp696
a(S'0:00:00'
p697
V1/5.47
p698
tp699
assVrbdoming
p700
(dp701
S'part1_correct_attempt'
p702
(lp703
S'1 day, 17:32:19'
p704
aVC(10,7) *(1/2)^10 + C(10,8) *(1/2)^10 + C(10,9) *(1/2)^10 + (1/2)^10
p705
asg9
V2015-10-13 07:17:42
p706
sS'part1_incorrect_attempt'
p707
(lp708
(S'0:00:00'
p709
V(1/2)^7
p710
tp711
a(S'0:00:00'
p712
V1- (1/2)^7
p713
tp714
a(S'0:00:19'
p715
V1-(1/2)^3
p716
tp717
a(S'0:07:48'
p718
V(1/2)^3
p719
tp720
a(S'0:12:35'
p721
VC(10,7)
p722
tp723
a(S'0:13:03'
p724
VC(10,7) *(1/2)^7
p725
tp726
a(S'0:13:07'
p727
VC(10,7) *(1/2)^3
p728
tp729
a(S'0:00:00'
p730
VC(10,7) *(1/2)^10
p731
tp732
assVqfu
p733
(dp734
S'part1_correct_attempt'
p735
(lp736
S'0:00:08'
p737
aV(C(10,3)+C(10,2)+C(10,1)+1)/2^10
p738
asg9
V2015-10-09 03:53:59
p739
sS'part1_incorrect_attempt'
p740
(lp741
(S'0:00:00'
p742
VC(10,3)+C(10,2)+C(10,1)+1/2^10
p743
tp744
assVyjshin
p745
(dp746
S'part1_correct_attempt'
p747
(lp748
S'2 days, 4:38:45'
p749
aV(210+120+45+10+1)/2^10
p750
asg9
V2015-10-13 05:54:47
p751
sS'part1_incorrect_attempt'
p752
(lp753
(S'0:00:00'
p754
V.4
p755
tp756
assVdcastlem
p757
(dp758
S'part1_correct_attempt'
p759
(lp760
S'0:10:29'
p761
aV(10!/(7!*3!)*(1/2)^7*(1/2)^3)+(10!/(8!*2!)*(1/2)^8*(1/2)^2)+(10!/(9!*1!)*(1/2)^9*(1/2)^1)+(10!/(10!)*(1/2)^10)
p762
asg9
V2015-10-13 19:36:04
p763
sS'part1_incorrect_attempt'
p764
(lp765
(S'0:00:00'
p766
V7/10 + 8/10 + 9/10 + 10/10
p767
tp768
assVbkoli
p769
(dp770
S'part1_correct_attempt'
p771
(lp772
S'0:03:12'
p773
aV((10!/(6!*4!))*((1/2)^6) *((1/2)^4)) + ((10!/(7!*3!))*((1/2)^7) *((1/2)^3)) + ((10!/(8!*2!))*((1/2)^8) *((1/2)^2)) + ((10!/(9!*1!))*((1/2)^9) *((1/2)^1)) + ((10!/(10!*0!))*((1/2)^10) *((1/2)^0))
p774
asg9
V2015-10-14 08:00:33
p775
sS'part1_incorrect_attempt'
p776
(lp777
(S'0:00:00'
p778
V(10!/(6!*4!))*((1/2)^6) *((1/2)^4)
p779
tp780
assVdac064
p781
(dp782
S'part1_correct_attempt'
p783
(lp784
S'0:05:16'
p785
aVC(10,8) * ((1/2) ^ 10) + C(10,9)*((1/2)^10) + C(10,10)*((1/2)^10)
p786
asg9
V2015-10-15 17:39:58
p787
sS'part1_incorrect_attempt'
p788
(lp789
(S'0:00:00'
p790
VC(10,8) * ((1/2) ^ 10)
p791
tp792
assVwmiao
p793
(dp794
S'part1_correct_attempt'
p795
(lp796
S'18:20:47'
p797
aV193/512
p798
asg9
V2015-10-12 21:27:20
p799
sS'part1_incorrect_attempt'
p800
(lp801
(S'0:00:00'
p802
V3/5
p803
tp804
a(S'0:00:00'
p805
V1-(2^4)/(2^10)
p806
tp807
a(S'0:01:56'
p808
V1-(2^4)/(2^10)-(2^3)/(2^10)-4/(2^10)-2/(2^10)
p809
tp810
assVb3hwang
p811
(dp812
S'part1_correct_attempt'
p813
(lp814
S'0:07:04'
p815
aV0.171875
p816
asg9
V2015-10-15 21:00:36
p817
sS'part1_incorrect_attempt'
p818
(lp819
(S'0:00:00'
p820
V(C(10,9) + C(10,8) + C(10,10))
p821
tp822
a(S'0:01:21'
p823
V(.5^10 ) * C(10,2)
p824
tp825
a(S'0:06:53'
p826
V0.9453125
p827
tp828
assVlywong
p829
(dp830
S'part1_correct_attempt'
p831
(lp832
S'0:14:12'
p833
aV0.376953125
p834
asg9
V2015-10-11 22:23:17
p835
sS'part1_incorrect_attempt'
p836
(lp837
(S'0:00:00'
p838
V1/1260
p839
tp840
a(S'0:07:05'
p841
V1/1290240
p842
tp843
assVhkhodada
p844
(dp845
S'part1_correct_attempt'
p846
(lp847
S'1 day, 10:34:46'
p848
aV56/2^10
p849
asg9
V2015-10-09 04:56:47
p850
sS'part1_incorrect_attempt'
p851
(lp852
(S'0:00:00'
p853
V8/10
p854
tp855
a(S'0:00:00'
p856
V8/10
p857
tp858
assVacvuong
p859
(dp860
S'part1_correct_attempt'
p861
(lp862
S'0:00:31'
p863
aVC(10,8)*0.5^(10) + C(10,9)*0.5^(10) + C(10,10)*0.5^(10)
p864
asg9
V2015-10-12 22:45:57
p865
sS'part1_incorrect_attempt'
p866
(lp867
(S'0:00:00'
p868
VC(10,8)*0.5^(10)
p869
tp870
assVd6he
p871
(dp872
S'part1_correct_attempt'
p873
(lp874
S'1:03:48'
p875
aV(1/(2^10))*386
p876
asg9
V2015-10-15 01:51:49
p877
sS'part1_incorrect_attempt'
p878
(lp879
(S'0:00:00'
p880
V1/(2^6)
p881
tp882
a(S'0:01:35'
p883
V(1/(2^6))+1/(2^4)
p884
tp885
a(S'0:36:58'
p886
V120/(2^6)
p887
tp888
a(S'0:39:21'
p889
V420/(2^6)
p890
tp891
assVthk002
p892
(dp893
S'part1_correct_attempt'
p894
(lp895
S'0:01:07'
p896
aV(1/2)^10 *(386)
p897
asg9
V2015-10-11 23:23:23
p898
sS'part1_incorrect_attempt'
p899
(lp900
(S'0:00:00'
p901
V6/10
p902
tp903
a(S'0:00:05'
p904
V4/10
p905
tp906
a(S'0:00:14'
p907
V5/10
p908
tp909
assVmrchin
p910
(dp911
S'part1_correct_attempt'
p912
(lp913
S'0:04:47'
p914
aV(1/2)^10 + (1/2)^10*10 + (1/2)^10*45 + (1/2)^10*120 + (1/2)^10*210
p915
asg9
V2015-10-12 02:53:51
p916
sS'part1_incorrect_attempt'
p917
(lp918
(S'0:00:00'
p919
V(1/2)^10 + (1/2)^10*10 + (1/2)^10*45 + (1/2)^10*120
p920
tp921
a(S'0:00:26'
p922
V1- [(1/2)^10 + (1/2)^10*10 + (1/2)^10*45 + (1/2)^10*120]
p923
tp924
a(S'0:00:31'
p925
V(1/2)^10 + (1/2)^10*10 + (1/2)^10*45 + (1/2)^10*120
p926
tp927
assVjfalcone
p928
(dp929
S'part1_correct_attempt'
p930
(lp931
S'0:01:57'
p932
aV([10!/(3! * 7!)] * .5^(10)) + ([10!/(2! * 8!)] * .5^(10)) + ([10!/(1! * 9!)] * .5^(10)) + (.5^(10))
p933
asg9
V2015-10-14 06:59:30
p934
sS'part1_incorrect_attempt'
p935
(lp936
(S'0:00:00'
p937
V0.0703125 + 0.0175781 + 0.00195312
p938
tp939
assVttimmons
p940
(dp941
S'part1_correct_attempt'
p942
(lp943
S'0:01:52'
p944
aV[C(10,6) + C(10,7) + C(10,8) + C(10,9) + 1]/[2^10]
p945
asg9
V2015-10-11 00:34:03
p946
sS'part1_incorrect_attempt'
p947
(lp948
(S'0:00:00'
p949
V1-[C(10,7)/(2^10)]
p950
tp951
assVjeqin
p952
(dp953
S'part1_correct_attempt'
p954
(lp955
S'0:04:03'
p956
aV1 - [(1 + 10 + 10!/(2!8!) + 10!/(3!7!) + 10!/(4!6!) + 10!/(5!5!) )/2^10]
p957
asg9
V2015-10-13 11:32:51
p958
sS'part1_incorrect_attempt'
p959
(lp960
(S'0:00:00'
p961
V1 - [(1 + 10 + 10!/(3!7!) + 10!/(4!6!))/2^10]
p962
tp963
a(S'0:01:08'
p964
V1 - [(1 + 10 + 10!/(3!7!))/2^10]
p965
tp966
a(S'0:02:09'
p967
V1 - [(1 + 10 + 10!/(2!8!) + 10!/(3!7!) )/2^10]
p968
tp969
a(S'0:02:18'
p970
V1 - [(1 + 10 + 10!/(2!*8!) + 10!/(3!*7!) )/2^10]
p971
tp972
assVielouaae
p973
(dp974
S'part1_correct_attempt'
p975
(lp976
S'0:25:12'
p977
aV386/2^10
p978
asg9
V2015-10-15 06:12:14
p979
sS'part1_incorrect_attempt'
p980
(lp981
(S'0:00:00'
p982
V6/10
p983
tp984
a(S'0:04:11'
p985
V1/2
p986
tp987
a(S'0:08:16'
p988
V376/2^11
p989
tp990
assVyeh013
p991
(dp992
S'part1_correct_attempt'
p993
(lp994
S'0:04:22'
p995
aV176/(2^10)
p996
asg9
V2015-10-15 06:28:54
p997
sS'part1_incorrect_attempt'
p998
(lp999
(S'0:00:00'
p1000
V240*(1/2)^10
p1001
tp1002
a(S'0:00:43'
p1003
V120*(1/2)^10
p1004
tp1005
assVjtfrankl
p1006
(dp1007
S'part1_correct_attempt'
p1008
(lp1009
S'0:04:54'
p1010
aVC(10,4)/2^10+C(10,3)/2^10+C(10,2)/2^10+C(10,1)/2^10+1/2^10
p1011
asg9
V2015-10-15 20:22:06
p1012
sS'part1_incorrect_attempt'
p1013
(lp1014
(S'0:00:00'
p1015
VC(10,6)/10^2
p1016
tp1017
assVkmc012
p1018
(dp1019
S'part1_correct_attempt'
p1020
(lp1021
S'0:01:49'
p1022
aV((1/(2^10))+((1/(2^10))*(10))+((1/(2^10))*(45))+((1/(2^10))*(120))+((1/(2^10))*(210)))
p1023
asg9
V2015-10-15 00:46:49
p1024
sS'part1_incorrect_attempt'
p1025
(lp1026
(S'0:00:00'
p1027
V(1/(2^10))+((1/(2^10))*(11))+((1/(2^10))*(45))+((1/(2^10))*(120))+((1/(2^10))*(210))
p1028
tp1029
a(S'0:00:50'
p1030
V1-((1/(2^10))+((1/(2^10))*(11))+((1/(2^10))*(45))+((1/(2^10))*(120))+((1/(2^10))*(210)))
p1031
tp1032
a(S'0:01:20'
p1033
V1-((1/(2^10))+((1/(2^10))*(10))+((1/(2^10))*(45))+((1/(2^10))*(120))+((1/(2^10))*(210)))
p1034
tp1035
assVlahawkin
p1036
(dp1037
S'part1_correct_attempt'
p1038
(lp1039
S'13:18:28'
p1040
aV(10!/(3!*7!))/(2^10)+(10!/(2!*8!))/(2^10)+(10!/(9!)+1)/(2^10)
p1041
asg9
V2015-10-15 04:54:46
p1042
sS'part1_incorrect_attempt'
p1043
(lp1044
(S'0:00:00'
p1045
V1-((1-((10!/(2*8!))+(10!/9!))/(2^10)))
p1046
tp1047
a(S'0:00:34'
p1048
V1-((1-((10!/(2*8!))+(10!/9!)+1)/(2^10)))
p1049
tp1050
a(S'0:00:00'
p1051
V1-((10!/(7!)+10!/(8!)+10!/(9!)+1)/2^10)
p1052
tp1053
a(S'0:02:36'
p1054
V1-((10!/(7!)+10!/(8!)+10!/(9!)+10)/2^10)
p1055
tp1056
assVeaherman
p1057
(dp1058
S'part1_correct_attempt'
p1059
(lp1060
S'0:07:08'
p1061
aV[(1/2)^10][(C(10,6))+(C(10,7))+(C(10,8))+(C(10,9))+1]
p1062
asg9
V2015-10-13 18:14:59
p1063
sS'part1_incorrect_attempt'
p1064
(lp1065
(S'0:00:00'
p1066
V[(1/2)^10](C(10,6))
p1067
tp1068
a(S'0:01:22'
p1069
V[(1/2)^10](6)
p1070
tp1071
a(S'0:02:00'
p1072
V[(1/2)^10](C(10,6))(6)
p1073
tp1074
a(S'0:04:59'
p1075
V[(1/2)^10](C(10,6))(C(10,7))(C(10,8))(C(10,9))
p1076
tp1077
a(S'0:05:41'
p1078
V[(1/2)^10][(C(10,6))+(C(10,7))+(C(10,8))+(C(10,9))]
p1079
tp1080
assVarvenega
p1081
(dp1082
S'part1_correct_attempt'
p1083
(lp1084
S'0:01:41'
p1085
aV0.0546875
p1086
asg9
V2015-10-14 16:18:33
p1087
sS'part1_incorrect_attempt'
p1088
(lp1089
(S'0:00:00'
p1090
V0.0439453125
p1091
tp1092
assVcsl030
p1093
(dp1094
S'part1_correct_attempt'
p1095
(lp1096
S'0:01:57'
p1097
aV.5^10 + .5^10 * C(10, 9) + .5^10 * C(10,8)
p1098
asg9
V2015-10-13 22:34:12
p1099
sS'part1_incorrect_attempt'
p1100
(lp1101
(S'0:00:00'
p1102
V.5^10 + .5^9 * C(10, 9) + .5^8 * C(10,8)
p1103
tp1104
a(S'0:00:28'
p1105
V.5^10 + .5^9 + .5^8
p1106
tp1107
assVazkong
p1108
(dp1109
S'part1_correct_attempt'
p1110
(lp1111
S'1 day, 14:30:24'
p1112
aV[1/(2^10)] * [C(10, 6) + C(10, 7) + C(10, 8) + C(10, 9) + C(10, 10)]
p1113
asg9
V2015-10-14 00:49:59
p1114
sS'part1_incorrect_attempt'
p1115
(lp1116
(S'0:00:00'
p1117
V[1/(2^10)]*10!/(6!4!)
p1118
tp1119
a(S'0:00:08'
p1120
V[1/(2^10)]*10!/6!
p1121
tp1122
assVajabasa
p1123
(dp1124
S'part1_correct_attempt'
p1125
(lp1126
S'0:00:12'
p1127
aVC(10, 7)/2^10+ C(10, 8)/2^10+ C(10, 9)/2^10+ C(10, 10)/2^10
p1128
asg9
V2015-10-12 06:41:51
p1129
sS'part1_incorrect_attempt'
p1130
(lp1131
(S'0:00:00'
p1132
VC(10, 8)/2^10+ C(10, 9)/2^10+ C(10, 10)/2^10
p1133
tp1134
assVv4sharma
p1135
(dp1136
S'part1_correct_attempt'
p1137
(lp1138
S'0:14:32'
p1139
aV(10!/(3! * 7!) + 10!/(2! * 8!) + 10!/(9!) + 1) / (2^10)
p1140
asg9
V2015-10-13 23:13:25
p1141
sS'part1_incorrect_attempt'
p1142
(lp1143
(S'0:00:00'
p1144
V9!/((2! * 7!) * (2)^9) + 9!/((8!) * (2)^9) + (1/2)^9
p1145
tp1146
a(S'0:02:53'
p1147
V10!/((2! * 8!) * (2)^10) + 10!/((9!) * (2)^10) + (1/2)^10
p1148
tp1149
assVaurodrig
p1150
(dp1151
S'part1_correct_attempt'
p1152
(lp1153
S'4:32:55'
p1154
aV0.3770
p1155
asg9
V2015-10-14 19:18:05
p1156
sS'part1_incorrect_attempt'
p1157
(lp1158
(S'0:00:00'
p1159
V.205078125
p1160
tp1161
a(S'0:00:00'
p1162
V0.00390625
p1163
tp1164
a(S'0:00:29'
p1165
V0.015625
p1166
tp1167
a(S'0:01:34'
p1168
V1/64
p1169
tp1170
a(S'0:00:00'
p1171
V0.205
p1172
tp1173
assVcagatep
p1174
(dp1175
S'part1_correct_attempt'
p1176
(lp1177
S'0:02:07'
p1178
aV((10!/(8!2!)) + 1 + 10)/2^10
p1179
asg9
V2015-10-09 08:40:00
p1180
sS'part1_incorrect_attempt'
p1181
(lp1182
(S'0:00:00'
p1183
V(2^10)/(10!/(8!2!))
p1184
tp1185
assVytc012
p1186
(dp1187
S'part1_correct_attempt'
p1188
(lp1189
S'1 day, 13:58:58'
p1190
aV(10!/(6!4!)+10!/(7!3!)+10!/(8!2!)+10!/(9!)+1)*1/2^10
p1191
asg9
V2015-10-13 07:26:14
p1192
sS'part1_incorrect_attempt'
p1193
(lp1194
(S'0:00:00'
p1195
V100!/(60!40!)*(1/2^10)
p1196
tp1197
a(S'0:00:03'
p1198
V100!/(60!40!)*(1/2^100)
p1199
tp1200
a(S'0:00:16'
p1201
V10!/(6!4!)*(1/2^10)
p1202
tp1203
a(S'0:01:01'
p1204
V(1/2^10) *10!/(6!4!)
p1205
tp1206
a(S'0:01:55'
p1207
V(1/2^10) *(10!/(6!4!)+10!/(7!3!)+10!/(8!/2)+10!/(9!))
p1208
tp1209
a(S'0:02:26'
p1210
V(1/2^10) *(10!/(6!4!)+10!/(7!3!)+10!/(8!/2!)+10!/(9!)+1)
p1211
tp1212
a(S'0:03:01'
p1213
V(1/2^10) *(100!/(60!40!)+100!/(70!30!)+100!/(80!/20!)+100!/(90!10!)+1)
p1214
tp1215
assVcprafull
p1216
(dp1217
S'part1_correct_attempt'
p1218
(lp1219
S'0:09:47'
p1220
aV(10!/(8!2!) + 10!/9! + 1)/2^10
p1221
asg9
V2015-10-14 06:23:54
p1222
sS'part1_incorrect_attempt'
p1223
(lp1224
(S'0:00:00'
p1225
V(1/2^4) + (1/2^5)
p1226
tp1227
a(S'0:00:00'
p1228
V(1/2^8) + (1/2^9) + (1/2^10)
p1229
tp1230
a(S'0:03:08'
p1231
V.3
p1232
tp1233
a(S'0:04:09'
p1234
V(1/2)^8 + (1/2)^9 + (1/2)^10
p1235
tp1236
assVdmn009
p1237
(dp1238
g9
V2015-10-15 23:47:20
p1239
sS'part1_incorrect_attempt'
p1240
(lp1241
(S'0:00:00'
p1242
V2^8
p1243
tp1244
assVgalu
p1245
(dp1246
S'part1_correct_attempt'
p1247
(lp1248
S'0:01:23'
p1249
aV105/512 + 15/128 + 45/1024 + 5/512 + 1/1024
p1250
asg9
V2015-10-15 22:34:30
p1251
sS'part1_incorrect_attempt'
p1252
(lp1253
(S'0:00:00'
p1254
V105/512
p1255
tp1256
assVkquong
p1257
(dp1258
S'part1_correct_attempt'
p1259
(lp1260
S'1:59:27'
p1261
aV(10!/(4!(10-4)!) * (1/2)^10) + (10!/(3!(10-3)!) * (1/2)^10) + (10!/(2!(10-2)!) * (1/2)^10) + (10!/(10-1)! * (1/2)^10) + ((1/2)^10)
p1262
asg9
V2015-10-10 19:23:20
p1263
sS'part1_incorrect_attempt'
p1264
(lp1265
(S'0:00:00'
p1266
V1-(1 - ((10!/(4!*6!))+(10!/(3!*7!)) + (10!/(2!*8!))+ (10!/(1!*9!))+ (1/2)^10))
p1267
tp1268
a(S'0:00:09'
p1269
V1-(1 - ((10!/(3!*7!)) + (10!/(2!*8!))+ (10!/(1!*9!))+ (1/2)^10))
p1270
tp1271
a(S'0:08:28'
p1272
V1- (((10!/9!) + (10!/(2!*8!)) + (10!/(3!*7!)) + (10!/(4!*6!)) + (10!/(5!*5!)) + (1/2)^10))/2^10
p1273
tp1274
a(S'0:10:02'
p1275
V1 - (10!/9!/2^10 + 10!/(2!*8!)/2^10 + 10!/(3!*7!)/2^10 + 10!/(4!*6!)/2^10+ 10!/(5!*5!)/2^10)
p1276
tp1277
a(S'1:57:09'
p1278
V(10!/(10-4)! * (1/2)^10) + (10!/(10-3)! * (1/2)^10) + (10!/(2!(10-2)!) * (1/2)^10) + (10!/(10-1)! * (1/2)^10) + ((1/2)^10)
p1279
tp1280
a(S'1:58:44'
p1281
V(10!/4!(10-4)! * (1/2)^10) + (10!/3!(10-3)! * (1/2)^10) + (10!/(2!(10-2)!) * (1/2)^10) + (10!/(10-1)! * (1/2)^10) + ((1/2)^10)
p1282
tp1283
assVagoldsht
p1284
(dp1285
S'part1_correct_attempt'
p1286
(lp1287
S'0:08:52'
p1288
aV((10!/(8!2!))+(10!/9!)+1)/2^10
p1289
asg9
V2015-10-14 01:07:57
p1290
sS'part1_incorrect_attempt'
p1291
(lp1292
(S'0:00:00'
p1293
V1/(2^10)*.8
p1294
tp1295
a(S'0:00:04'
p1296
V1/(2^10)*.2
p1297
tp1298
a(S'0:00:45'
p1299
V8/(2^10) + 9/(2^10) + 10/(2^10)
p1300
tp1301
assVvsamant
p1302
(dp1303
S'part1_correct_attempt'
p1304
(lp1305
S'0:01:32'
p1306
aVC(10,6)(.5)^6(.5)^4+C(10,7)(.5)^7(.5)^3+C(10,8)(.5)^8(.5)^2+C(10,9)(.5)^9(.5)^1+C(10,10)(.5)^10
p1307
asg9
V2015-10-09 18:43:38
p1308
sS'part1_incorrect_attempt'
p1309
(lp1310
(S'0:00:00'
p1311
VC(10,6)(.5)^6(.2)^4
p1312
tp1313
a(S'0:00:11'
p1314
VC(10,6)(.5)^6(.5)^4
p1315
tp1316
assVewbrenna
p1317
(dp1318
S'part1_correct_attempt'
p1319
(lp1320
S'0:00:55'
p1321
aV{[10!/(8!*2!)]+[10!/(9!*1!)]+[10!/(10!*0!)]}/(2^10)
p1322
asg9
V2015-10-12 18:46:20
p1323
sS'part1_incorrect_attempt'
p1324
(lp1325
(S'0:00:00'
p1326
V[10!/(8!*2!)]
p1327
tp1328
assVqtluong
p1329
(dp1330
S'part1_correct_attempt'
p1331
(lp1332
S'0:01:16'
p1333
aV(10!/(6!4!)+10!/(7!3!)+10!/(8!2!)+10!/(9!1!)+1)/2^10
p1334
asg9
V2015-10-12 05:51:10
p1335
sS'part1_incorrect_attempt'
p1336
(lp1337
(S'0:00:00'
p1338
V1-(10!/(5!5!)+10!/(4!6!)+10!/(3!7!)+10!/(2!8!)+10!/(1!9!))/2^10
p1339
tp1340
assVspw006
p1341
(dp1342
S'part1_correct_attempt'
p1343
(lp1344
S'0:07:58'
p1345
aV(10!/(2!8!))(1/2)^8 (1/2)^2 + (10!/(9!))(1/2)^9 (1/2) + (1/2)^10
p1346
asg9
V2015-10-13 17:51:40
p1347
sS'part1_incorrect_attempt'
p1348
(lp1349
(S'0:00:00'
p1350
V1/5
p1351
tp1352
a(S'0:01:44'
p1353
V(2!8!)/10!
p1354
tp1355
a(S'0:06:16'
p1356
V(10!/(2!8!))(1/2)^8 (1/2)^2
p1357
tp1358
assVany027
p1359
(dp1360
S'part1_correct_attempt'
p1361
(lp1362
S'3 days, 10:16:13'
p1363
aV((10! / (3! * 7!)) / 2^10)  + ((10! / (2! * 8!)) / 2^10) + ((10! / (1! * 9!)) / 2^10) + 1 - (2^10 - 1) / (2^10)
p1364
asg9
V2015-10-09 08:59:37
p1365
sS'part1_incorrect_attempt'
p1366
(lp1367
(S'0:00:00'
p1368
V(1/2) ^ 7
p1369
tp1370
a(S'0:00:26'
p1371
V1 - (1/2)^3
p1372
tp1373
assVs1powers
p1374
(dp1375
S'part1_correct_attempt'
p1376
(lp1377
S'0:17:22'
p1378
aV210/2^10 + 10/2^10 + 45/2^10 + 120/2^10 + 1/2^10
p1379
asg9
V2015-10-10 23:33:17
p1380
sS'part1_incorrect_attempt'
p1381
(lp1382
(S'0:00:00'
p1383
V1 -(210/2^10)
p1384
tp1385
a(S'0:16:27'
p1386
V1 -(210/2^10)- 10/2^10 - 45/2^10 - 120/2^10
p1387
tp1388
a(S'0:17:01'
p1389
V210/2^10 + 10/2^10 + 45/2^10 + 120/2^10
p1390
tp1391
a(S'0:17:08'
p1392
V210/2^10 + 10/2^10 + 45/2^10 + 120/2^10 - 1/2^210
p1393
tp1394
assVvsosnovs
p1395
(dp1396
S'part1_correct_attempt'
p1397
(lp1398
S'0:03:07'
p1399
aV((.5^10)*(C(10,7))) + ((.5^10)*(C(10,8))) + ((.5^10)*(C(10,9))) + ((.5^10)*(C(10,10)))
p1400
asg9
V2015-10-12 01:31:41
p1401
sS'part1_incorrect_attempt'
p1402
(lp1403
(S'0:00:00'
p1404
V(.5^10)*(10!/7!*3!)
p1405
tp1406
a(S'0:00:15'
p1407
V(.5^10)*(10!/(7!*3!))
p1408
tp1409
a(S'0:02:33'
p1410
V(.5^10)*(C(10,7))
p1411
tp1412
assVk5law
p1413
(dp1414
S'part1_correct_attempt'
p1415
(lp1416
S'0:12:32'
p1417
aV.5^10*(10!/(8!*2!)) + .5^10(10!/(9!*1!)) + .5^10(10!/(10!*0!))
p1418
asg9
V2015-10-12 00:35:22
p1419
sS'part1_incorrect_attempt'
p1420
(lp1421
(S'0:00:00'
p1422
V.5^8
p1423
tp1424
a(S'0:00:17'
p1425
V.5^8 + .5^9 + .5^10
p1426
tp1427
assVb1green
p1428
(dp1429
S'part1_correct_attempt'
p1430
(lp1431
S'0:04:53'
p1432
aVC(10, 7)/2^10 + C(10, 8)/2^10 + C(10, 9)/2^10 + C(10, 10)/2^10
p1433
asg9
V2015-10-15 19:48:48
p1434
sS'part1_incorrect_attempt'
p1435
(lp1436
(S'0:00:00'
p1437
VC(10, 7)/10^2
p1438
tp1439
a(S'0:03:56'
p1440
V(7/10)^2
p1441
tp1442
assVs2chaudh
p1443
(dp1444
S'part1_correct_attempt'
p1445
(lp1446
S'0:00:50'
p1447
aV45 * (0.5)^10 + 10 * (0.5)^10 + (0.5)^10
p1448
asg9
V2015-10-11 19:51:11
p1449
sS'part1_incorrect_attempt'
p1450
(lp1451
(S'0:00:00'
p1452
V45 *(.5)^10
p1453
tp1454
assVsyc078
p1455
(dp1456
S'part1_correct_attempt'
p1457
(lp1458
S'9:45:47'
p1459
aV(45/(2^10)) + (10/(2^10)) + (1/(2^10))
p1460
asg9
V2015-10-14 14:09:38
p1461
sS'part1_incorrect_attempt'
p1462
(lp1463
(S'0:00:00'
p1464
V((1/2) ^ 8) + ((1/2) ^ 9) + ((1/2) ^ 10)
p1465
tp1466
assVbmilton
p1467
(dp1468
S'part1_correct_attempt'
p1469
(lp1470
S'0:47:12'
p1471
aVC(10,6)/2^10 + C(10,7)/2^10 + C(10,8)/2^10 + C(10,9)/2^10 + C(10,10)/2^10
p1472
asg9
V2015-10-09 22:01:24
p1473
sS'part1_incorrect_attempt'
p1474
(lp1475
(S'0:00:00'
p1476
V(1/2)^6
p1477
tp1478
a(S'0:00:27'
p1479
VC(10,6)*(1/2)^6
p1480
tp1481
assVc3chung
p1482
(dp1483
S'part1_correct_attempt'
p1484
(lp1485
S'0:02:36'
p1486
aV0.171875
p1487
asg9
V2015-10-15 03:41:51
p1488
sS'part1_incorrect_attempt'
p1489
(lp1490
(S'0:00:00'
p1491
V.3
p1492
tp1493
assVjhc010
p1494
(dp1495
S'part1_correct_attempt'
p1496
(lp1497
S'0:01:15'
p1498
aVC(10,3)*.5^7*.5^3+C(10,2)*.5^8*.5^2+C(10,1)*.5^9*.5+.5^10
p1499
asg9
V2015-10-15 15:39:32
p1500
sS'part1_incorrect_attempt'
p1501
(lp1502
(S'0:00:00'
p1503
VC(10,3)*.5^7*.5^3
p1504
tp1505
a(S'0:00:04'
p1506
VC(7,3)*.5^7*.5^3
p1507
tp1508
assVcfgutier
p1509
(dp1510
S'part1_correct_attempt'
p1511
(lp1512
S'0:05:16'
p1513
aV56/1024
p1514
asg9
V2015-10-14 21:19:03
p1515
sS'part1_incorrect_attempt'
p1516
(lp1517
(S'0:00:00'
p1518
V(.5^8)/(.5^10)
p1519
tp1520
assVagarango
p1521
(dp1522
S'part1_correct_attempt'
p1523
(lp1524
S'0:01:18'
p1525
aV0.0439453125 + 0.009765625 + 0.0009765625
p1526
asg9
V2015-10-15 07:13:48
p1527
sS'part1_incorrect_attempt'
p1528
(lp1529
(S'0:00:00'
p1530
V0.0439453125
p1531
tp1532
assVjap009
p1533
(dp1534
S'part1_correct_attempt'
p1535
(lp1536
S'0:00:08'
p1537
aV((10!/(7!(3!))) + (10!/(8!(2!))) + (10!/(9!)) + 1) / 2^10
p1538
asg9
V2015-10-15 09:12:27
p1539
sS'part1_incorrect_attempt'
p1540
(lp1541
(S'0:00:00'
p1542
V(10!/(7!(3!))) + (10!/(8!(2!))) + (10!/(9!)) + 1 / 2^10
p1543
tp1544
assVkalang
p1545
(dp1546
S'part1_correct_attempt'
p1547
(lp1548
S'0:03:24'
p1549
aV(C(10,6) +  C(10,7) +  C(10,8) +  C(10,9) +  C(10,10) ) /2^10
p1550
asg9
V2015-10-11 23:18:34
p1551
sS'part1_incorrect_attempt'
p1552
(lp1553
(S'0:00:00'
p1554
VC(10,6)
p1555
tp1556
assVjcl084
p1557
(dp1558
S'part1_correct_attempt'
p1559
(lp1560
S'1 day, 14:18:39'
p1561
aV(C(10,8) + C(10,9) + C(10,10)) / 2^10
p1562
asg9
V2015-10-12 04:23:20
p1563
sS'part1_incorrect_attempt'
p1564
(lp1565
(S'0:00:00'
p1566
V8/10
p1567
tp1568
a(S'0:01:24'
p1569
V.054
p1570
tp1571
a(S'0:04:28'
p1572
V.043945313
p1573
tp1574
a(S'0:00:00'
p1575
V1-((C(10,9) + C(10,10)) / 2^10)
p1576
tp1577
assVhah008
p1578
(dp1579
S'part1_correct_attempt'
p1580
(lp1581
S'0:15:44'
p1582
aV11/64
p1583
asg9
V2015-10-13 00:51:41
p1584
sS'part1_incorrect_attempt'
p1585
(lp1586
(S'0:00:00'
p1587
V15/128
p1588
tp1589
assVsippolit
p1590
(dp1591
S'part1_correct_attempt'
p1592
(lp1593
S'1:59:56'
p1594
aV1-(10!/(6!*4!))/1024-(10!/(5!*5!))/1024-(10!/(4!*6!))/1024-(10!/(3!*7!))/1024-(10!/(2!*8!))/1024-(10!/(1!*9!))/1024-(10!/(0!*10!))/1024
p1595
asg9
V2015-10-12 00:21:37
p1596
sS'part1_incorrect_attempt'
p1597
(lp1598
(S'0:00:00'
p1599
V1-(10!/(8!*2!))/1024-(10!/(9!*1!))/1024-(10!/(10!*0!))/1024
p1600
tp1601
a(S'0:01:07'
p1602
V(10!/(8!*2!))/1024-(10!/(9!*1!))/1024-(10!/(10!*0!))/1024
p1603
tp1604
assVmcatozzi
p1605
(dp1606
S'part1_correct_attempt'
p1607
(lp1608
S'0:01:42'
p1609
aVC(10,8) / 2^10 + C(10,9) / 2^10 + C(10,10) / 2^10
p1610
asg9
V2015-10-13 22:37:06
p1611
sS'part1_incorrect_attempt'
p1612
(lp1613
(S'0:00:00'
p1614
V8/10
p1615
tp1616
assVaadhakal
p1617
(dp1618
S'part1_correct_attempt'
p1619
(lp1620
S'0:01:09'
p1621
aV0.171875066
p1622
asg9
V2015-10-12 21:05:30
p1623
sS'part1_incorrect_attempt'
p1624
(lp1625
(S'0:00:00'
p1626
V0.123046881
p1627
tp1628
assVjnn015
p1629
(dp1630
S'part1_correct_attempt'
p1631
(lp1632
S'0:01:10'
p1633
aV10!/6!/4!*.5^10 + 10!/7!/3!*.5^10 + 10!/8!/2!*.5^10 + 10!/9!/1!*.5^10 + .5^10
p1634
asg9
V2015-10-11 02:20:38
p1635
sS'part1_incorrect_attempt'
p1636
(lp1637
(S'0:00:00'
p1638
V10!/6!/4!
p1639
tp1640
assVacs008
p1641
(dp1642
S'part1_correct_attempt'
p1643
(lp1644
S'6 days, 2:10:59'
p1645
aV0.376953125
p1646
asg9
V2015-10-09 02:13:06
p1647
sS'part1_incorrect_attempt'
p1648
(lp1649
(S'0:00:00'
p1650
V210*(1/2)^10
p1651
tp1652
a(S'0:00:00'
p1653
V1-(1/2)^4
p1654
tp1655
a(S'0:00:00'
p1656
V1-((1/2)^6)
p1657
tp1658
a(S'0:02:57'
p1659
V0.171875
p1660
tp1661
assVdaw023
p1662
(dp1663
S'part1_correct_attempt'
p1664
(lp1665
S'4:49:50'
p1666
aV56/1024
p1667
asg9
V2015-10-14 17:24:24
p1668
sS'part1_incorrect_attempt'
p1669
(lp1670
(S'0:00:00'
p1671
V1*.5^10*1
p1672
tp1673
a(S'0:00:57'
p1674
V8*.5^10*1
p1675
tp1676
a(S'0:02:01'
p1677
V10!/(8!*2)
p1678
tp1679
assVedcole
p1680
(dp1681
S'part1_correct_attempt'
p1682
(lp1683
S'0:02:29'
p1684
aV(( (10!/(7!*3!)/2^10+ (10!/(8!*2!))/2^10) + (10/2^10) + (1/2^10)))
p1685
asg9
V2015-10-09 21:08:43
p1686
sS'part1_incorrect_attempt'
p1687
(lp1688
(S'0:00:00'
p1689
V(((10!/(8!*2!))/2^10) + (10/2^10) + (1/2^10))
p1690
tp1691
a(S'0:02:08'
p1692
V(( (10!/(7!*2!)/2^10+ (10!/(8!*2!))/2^10) + (10/2^10) + (1/2^10)))
p1693
tp1694
assVaordookh
p1695
(dp1696
S'part1_correct_attempt'
p1697
(lp1698
S'0:01:33'
p1699
aVC(10,6)*(1/2)^10 + C(10,7)*(1/2)^10 + C(10,8)*(1/2)^10 + C(10,9)*(1/2)^10 + (1/2)^10
p1700
asg9
V2015-10-15 05:03:02
p1701
sS'part1_incorrect_attempt'
p1702
(lp1703
(S'0:00:00'
p1704
VC(10,6)*(1/2)^10
p1705
tp1706
assVr2fisher
p1707
(dp1708
S'part1_correct_attempt'
p1709
(lp1710
S'0:01:22'
p1711
aV10!/(6!*4!)/(2^10)+10!/(7!*3!)/(2^10) + 10!/(8!*2!)/(2^10) + 10!/(9!*1!)/(2^10) + 1/(2^10)
p1712
asg9
V2015-10-12 04:30:23
p1713
sS'part1_incorrect_attempt'
p1714
(lp1715
(S'0:00:00'
p1716
V10!/(6!*4!)
p1717
tp1718
a(S'0:00:12'
p1719
V10!/(6!*4!)/(10^2)
p1720
tp1721
assVhpc001
p1722
(dp1723
S'part1_correct_attempt'
p1724
(lp1725
S'0:01:25'
p1726
aV0.171875
p1727
asg9
V2015-10-14 06:24:16
p1728
sS'part1_incorrect_attempt'
p1729
(lp1730
(S'0:00:00'
p1731
V0.015625
p1732
tp1733
assVxweng
p1734
(dp1735
S'part1_correct_attempt'
p1736
(lp1737
S'0:01:49'
p1738
aV45/2^10+10/2^10+1/2^10+210/2^10+120/2^10
p1739
asg9
V2015-10-12 22:02:22
p1740
sS'part1_incorrect_attempt'
p1741
(lp1742
(S'0:00:00'
p1743
V45/2^10+10/2^10+1/2^10+60/2^10
p1744
tp1745
a(S'0:01:12'
p1746
V45/2^10+10/2^10+1/2^10+210/2^10
p1747
tp1748
assVyypan
p1749
(dp1750
S'part1_correct_attempt'
p1751
(lp1752
S'0:02:29'
p1753
aV(1/2)^6*(10!/(4!*6!))*(1/2)^4+(1/2)^7*(10!/(3!*7!))*(1/2)^3+(10!/(2!*8!))*(.5)^8*(.5)^2+(10!/9!)*(.5)^9*(.5)^1+(.5)^10
p1754
asg9
V2015-10-09 22:09:04
p1755
sS'part1_incorrect_attempt'
p1756
(lp1757
(S'0:00:00'
p1758
V(1/2)^6*(10!/4!)
p1759
tp1760
a(S'0:00:15'
p1761
V(1/2)^6*(10!/4!)*(1/2)^4
p1762
tp1763
a(S'0:00:39'
p1764
V(1/2)^6*(10!/(4!*6!))*(1/2)^4
p1765
tp1766
assVajvanega
p1767
(dp1768
S'part1_correct_attempt'
p1769
(lp1770
S'5 days, 17:05:11'
p1771
aV(120+45+10+1+210)/(2^10)
p1772
asg9
V2015-10-09 00:26:48
p1773
sS'part1_incorrect_attempt'
p1774
(lp1775
(S'0:00:00'
p1776
V1-(4/2^10)
p1777
tp1778
assVsthapa
p1779
(dp1780
S'part1_correct_attempt'
p1781
(lp1782
S'0:10:35'
p1783
aV0.171875
p1784
asg9
V2015-10-15 03:40:44
p1785
sS'part1_incorrect_attempt'
p1786
(lp1787
(S'0:00:00'
p1788
V0.7*10
p1789
tp1790
a(S'0:00:35'
p1791
V7/10
p1792
tp1793
a(S'0:00:00'
p1794
V0.7*(7/10)
p1795
tp1796
a(S'0:03:24'
p1797
V0.7/(7/10)
p1798
tp1799
a(S'0:03:31'
p1800
V0.7/(10)
p1801
tp1802
a(S'0:04:15'
p1803
V(0.7*10)/10
p1804
tp1805
assVmjethani
p1806
(dp1807
S'part1_correct_attempt'
p1808
(lp1809
S'0:02:58'
p1810
aV11/64
p1811
asg9
V2015-10-13 03:30:28
p1812
sS'part1_incorrect_attempt'
p1813
(lp1814
(S'0:00:00'
p1815
V1/(2^7)
p1816
tp1817
a(S'0:01:28'
p1818
V1/120
p1819
tp1820
assVkgrozav
p1821
(dp1822
S'part1_correct_attempt'
p1823
(lp1824
S'0:06:01'
p1825
aV(56++120+210)/(2^10)
p1826
asg9
V2015-10-15 05:43:24
p1827
sS'part1_incorrect_attempt'
p1828
(lp1829
(S'0:00:00'
p1830
V10!/(4!*6!)
p1831
tp1832
a(S'0:03:18'
p1833
V10!/(4!*6!) + 10!/(3!*7!) + 10!/(2!*8!) + 10!/(1!*9!)+1
p1834
tp1835
a(S'0:04:02'
p1836
V56+210
p1837
tp1838
a(S'0:05:11'
p1839
V56+210/(2^10)
p1840
tp1841
assVwhcombs
p1842
(dp1843
S'part1_correct_attempt'
p1844
(lp1845
S'0:10:40'
p1846
aVC(10,6)/2^10+C(10,7)/2^10+C(10,8)/2^10+C(10,9)/2^10+C(10,10)/2^10
p1847
asg9
V2015-10-12 23:07:40
p1848
sS'part1_incorrect_attempt'
p1849
(lp1850
(S'0:00:00'
p1851
VC(10,6)
p1852
tp1853
a(S'0:09:35'
p1854
VC(10,4)
p1855
tp1856
assVj2phung
p1857
(dp1858
S'part1_correct_attempt'
p1859
(lp1860
S'0:01:32'
p1861
aV(10!/(8!2!))*((1/2)^10)+(10!/(9!1!))*((1/2)^10)+((1/2)^10)
p1862
asg9
V2015-10-13 18:40:20
p1863
sS'part1_incorrect_attempt'
p1864
(lp1865
(S'0:00:00'
p1866
V45*((1/2)^10)
p1867
tp1868
a(S'0:00:44'
p1869
V(10!/(8!2!))*((1/2)^10)
p1870
tp1871
asss.