(dp0
V1
p1
ccollections
defaultdict
p2
(c__builtin__
list
p3
tp4
Rp5
S'Nothing'
p6
(lp7
sS'Nothing_clusters'
p8
g2
(g3
tp9
Rp10
ssV2
p11
g2
(g3
tp12
Rp13
g6
(lp14
(VQ(1.76777)
p15
V0.039
p16
(lp17
S'X'
p18
aF0.039
a(lp19
I0
aI4
aaS'R'
p20
aVralhadda
p21
tp22
a(VQ(1.76777)
p23
VQ((50/200-.2)/(.2*.8/200)^1/2)
p24
(lp25
(lp26
S'Q'
p27
acnumpy.core.multiarray
scalar
p28
(cnumpy
dtype
p29
(S'f8'
p30
I0
I1
tp31
Rp32
(I3
S'<'
p33
NNNI-1
I-1
I0
tp34
bS'\x00\x00\x00\x00\x00\x00\x00\x00'
p35
tp36
Rp37
a(lp38
I0
aI29
aag20
aa(lp39
(lp40
S'/'
p41
aF31.249999999999986
a(lp42
I2
aI28
aaS'R.0'
p43
aa(lp44
(lp45
g41
aF62.49999999999997
a(lp46
I2
aI26
aaS'R.0.0'
p47
aa(lp48
(lp49
S'-'
p50
aF0.04999999999999999
a(lp51
I3
aI12
aaS'R.0.0.0'
p52
aa(lp53
(lp54
g41
aF0.25
a(lp55
I3
aI8
aaS'R.0.0.0.0'
p56
aa(lp57
g18
aF50.0
a(lp58
I3
aI4
aaS'R.0.0.0.0.0'
p59
aa(lp60
g18
aF200.0
a(lp61
I6
aI8
aaS'R.0.0.0.0.1'
p62
aaa(lp63
g18
aF0.2
a(lp64
I10
aI12
aaS'R.0.0.0.1'
p65
aaa(lp66
(lp67
S'^'
p68
aF0.0008000000000000001
a(lp69
I14
aI26
aaS'R.0.0.1'
p70
aa(lp71
(lp72
g41
aF0.0008000000000000001
a(lp73
I15
aI23
aaS'R.0.0.1.0'
p74
aa(lp75
(lp76
S'*'
p77
aF0.16000000000000003
a(lp78
I15
aI20
aaS'R.0.0.1.0.0'
p79
aa(lp80
g18
aF0.2
a(lp81
I15
aI17
aaS'R.0.0.1.0.0.0'
p82
aa(lp83
g18
aF0.8
a(lp84
I18
aI20
aaS'R.0.0.1.0.0.1'
p85
aaa(lp86
g18
aF200.0
a(lp87
I21
aI23
aaS'R.0.0.1.0.1'
p88
aaa(lp89
g18
aF1.0
a(lp90
I26
aI26
aaS'R.0.0.1.1'
p91
aaaa(lp92
g18
aF2.0
a(lp93
I28
aI28
aaS'R.0.1'
p94
aaaVedescobe
p95
tp96
a(VQ(1.76777)
p97
V1.76777
p98
(lp99
g18
aF1.76777
a(lp100
I0
aI6
aag20
aVhachrist
p101
tp102
a(VQ(1.76777)
p103
V0.8
p104
(lp105
g18
aF0.8
a(lp106
I0
aI2
aag20
aVhkhodada
p107
tp108
a(VQ(1.76777)
p109
V0.039
p110
(lp111
g18
aF0.039
a(lp112
I0
aI4
aag20
aVachava
p113
tp114
a(g109
V0.039
p115
(lp116
g18
aF0.039
a(lp117
I0
aI4
aag20
aVachava
p118
tp119
a(VQ(1.76777)
p120
V.039
p121
(lp122
g18
aF0.039
a(lp123
I0
aI4
aag20
aVjjchung
p124
tp125
a(VQ(1.76777)
p126
V.039*2
p127
(lp128
(lp129
g77
aF0.078
a(lp130
I0
aI5
aag20
aa(lp131
g18
aF0.039
a(lp132
I0
aI4
aaS'R.0'
p133
aa(lp134
g18
aF2.0
a(lp135
I5
aI5
aaS'R.1'
p136
aaVthk002
p137
tp138
a(VQ(1.76777)
p139
V0.039
p140
(lp141
g18
aF0.039
a(lp142
I0
aI4
aag20
aVjag028
p143
tp144
a(VQ(1.76777)
p145
VQ(0.052579672)
p146
(lp147
(lp148
g27
ag28
(g32
S'\x86e*\xbc{\xa8\xde?'
p149
tp150
Rp151
a(lp152
I0
aI13
aag20
aa(lp153
g18
aF0.052579672
a(lp154
I2
aI12
aaS'R.0'
p155
aaVganajera
p156
tp157
a(VQ(1.76777)
p158
V.961
p159
(lp160
g18
aF0.961
a(lp161
I0
aI4
aag20
aVs6deng
p162
tp163
a(g145
VQ(0.052579672)0.041399332
p164
(lp165
(lp166
g77
aF0.01983166305457795
a(lp167
I0
aI24
aag20
aa(lp168
(lp169
g27
ag28
(g32
S'\x86e*\xbc{\xa8\xde?'
p170
tp171
Rp172
a(lp173
I0
aI13
aaS'R.0'
p174
aa(lp175
g18
aF0.052579672
a(lp176
I2
aI12
aaS'R.0.0'
p177
aaa(lp178
g18
aF0.041399332
a(lp179
I14
aI24
aaS'R.1'
p180
aaVganajera
p181
tp182
a(g158
V0.038
p183
(lp184
g18
aF0.038
a(lp185
I0
aI4
aag20
aVs6deng
p186
tp187
a(g158
V0.031
p188
(lp189
g18
aF0.031
a(lp190
I0
aI4
aag20
aVs6deng
p191
tp192
a(g158
V0.032
p193
(lp194
g18
aF0.032
a(lp195
I0
aI4
aag20
aVs6deng
p196
tp197
a(g158
V0.033
p198
(lp199
g18
aF0.033
a(lp200
I0
aI4
aag20
aVs6deng
p201
tp202
a(VQ(1.76777)
p203
V1.96
p204
(lp205
g18
aF1.96
a(lp206
I0
aI3
aag20
aVdcrume
p207
tp208
a(g203
V1.98
p209
(lp210
g18
aF1.98
a(lp211
I0
aI3
aag20
aVdcrume
p212
tp213
a(g203
V0.9687
p214
(lp215
g18
aF0.9687
a(lp216
I0
aI5
aag20
aVdcrume
p217
tp218
a(g203
V.0784
p219
(lp220
g18
aF0.0784
a(lp221
I0
aI5
aag20
aVdcrume
p222
tp223
a(VQ(1.76777)
p224
VQ(8)
p225
(lp226
(lp227
g27
ag28
(g32
S'\x00\x00\x00\x00\x00\x00\xc8<'
p228
tp229
Rp230
a(lp231
I0
aI3
aag20
aa(lp232
g18
aF8.0
a(lp233
I2
aI2
aaS'R.0'
p234
aaVedcole
p235
tp236
a(g224
VQ(.5)
p237
(lp238
(lp239
g27
ag28
(g32
S'\x12\xa7\x9a;\x14\xbf\xd3?'
p240
tp241
Rp242
a(lp243
I0
aI4
aag20
aa(lp244
g18
aF0.5
a(lp245
I2
aI4
aaS'R.0'
p246
aaVedcole
p247
tp248
a(g224
VQ(1.58)
p249
(lp250
(lp251
g27
ag28
(g32
S'\xa0\xe7\xc2\x8b\x1b6\xad?'
p252
tp253
Rp254
a(lp255
I0
aI6
aag20
aa(lp256
g18
aF1.58
a(lp257
I2
aI5
aaS'R.0'
p258
aaVedcole
p259
tp260
a(VQ(1.76777)
p261
V.674
p262
(lp263
g18
aF0.674
a(lp264
I0
aI4
aag20
aVanvan
p265
tp266
a(VQ(1.76777)
p267
V1.76
p268
(lp269
g18
aF1.76
a(lp270
I0
aI3
aag20
aVseleon
p271
tp272
a(g267
V.039
p273
(lp274
g18
aF0.039
a(lp275
I0
aI4
aag20
aVseleon
p276
tp277
a(g267
VQ(1.76)
p278
(lp279
(lp280
g27
ag28
(g32
S'\x00\x96\xfd\xb4\x88\x12\xa4?'
p281
tp282
Rp283
a(lp284
I0
aI6
aag20
aa(lp285
g18
aF1.76
a(lp286
I2
aI5
aaS'R.0'
p287
aaVseleon
p288
tp289
a(VQ(1.76777)
p290
VQ(1.776953)
p291
(lp292
(lp293
g27
ag28
(g32
S'\x80\x9a\xe3l\xf2X\xa3?'
p294
tp295
Rp296
a(lp297
I0
aI10
aag20
aa(lp298
g18
aF1.776953
a(lp299
I2
aI9
aaS'R.0'
p300
aaVjap009
p301
tp302
a(VQ(1.76777)
p303
V0.392
p304
(lp305
g18
aF0.392
a(lp306
I0
aI4
aag20
aVk3tan
p307
tp308
a(VQ(1.76777)
p309
V0.039
p310
(lp311
g18
aF0.039
a(lp312
I0
aI4
aag20
aVmnrahman
p313
tp314
a(VQ(1.76777)
p315
V.2322
p316
(lp317
g18
aF0.2322
a(lp318
I0
aI5
aag20
aVsrl006
p319
tp320
a(g315
V.7322
p321
(lp322
g18
aF0.7322
a(lp323
I0
aI5
aag20
aVsrl006
p324
tp325
a(g315
V0.1542
p326
(lp327
g18
aF0.1542
a(lp328
I0
aI5
aag20
aVsrl006
p329
tp330
a(g315
V0.0104
p331
(lp332
g18
aF0.0104
a(lp333
I0
aI5
aag20
aVsrl006
p334
tp335
a(VQ(1.76777)
p336
V0.0391
p337
(lp338
g18
aF0.0391
a(lp339
I0
aI5
aag20
aVmsaguiar
p340
tp341
a(g336
V0.0393
p342
(lp343
g18
aF0.0393
a(lp344
I0
aI5
aag20
aVmsaguiar
p345
tp346
a(g336
V0.0394
p347
(lp348
g18
aF0.0394
a(lp349
I0
aI5
aag20
aVmsaguiar
p350
tp351
a(g336
V0.0395
p352
(lp353
g18
aF0.0395
a(lp354
I0
aI5
aag20
aVmsaguiar
p355
tp356
a(g336
V0.0396
p357
(lp358
g18
aF0.0396
a(lp359
I0
aI5
aag20
aVmsaguiar
p360
tp361
a(g336
V0.0397
p362
(lp363
g18
aF0.0397
a(lp364
I0
aI5
aag20
aVmsaguiar
p365
tp366
a(g336
V0.0398
p367
(lp368
g18
aF0.0398
a(lp369
I0
aI5
aag20
aVmsaguiar
p370
tp371
a(g336
V0.0399
p372
(lp373
g18
aF0.0399
a(lp374
I0
aI5
aag20
aVmsaguiar
p375
tp376
a(VQ(1.76777)
p377
VQ(1.632993162)
p378
(lp379
(lp380
g27
ag28
(g32
S'\x90!f\x9e\x80;\xaa?'
p381
tp382
Rp383
a(lp384
I0
aI13
aag20
aa(lp385
g18
aF1.632993162
a(lp386
I2
aI12
aaS'R.0'
p387
aaVq3wen
p388
tp389
a(VQ(1.76777)
p390
VQ(200)
p391
(lp392
(lp393
g27
ag28
(g32
S'\x00\x00\x00\x00\x00\x00\x00\x00'
p394
tp395
Rp396
a(lp397
I0
aI5
aag20
aa(lp398
g18
aF200.0
a(lp399
I2
aI4
aaS'R.0'
p400
aaVcfgutier
p401
tp402
a(g390
VQ(150)
p403
(lp404
(lp405
g27
ag28
(g32
S'\x00\x00\x00\x00\x00\x00\x00\x00'
p406
tp407
Rp408
a(lp409
I0
aI5
aag20
aa(lp410
g18
aF150.0
a(lp411
I2
aI4
aaS'R.0'
p412
aaVcfgutier
p413
tp414
a(VQ(1.76777)
p415
V.01
p416
(lp417
g18
aF0.01
a(lp418
I0
aI3
aag20
aVgalu
p419
tp420
a(VQ(1.76777)
p421
VQ(1.21)
p422
(lp423
(lp424
g27
ag28
(g32
S'\x10K]\xee\xb4\xf6\xbc?'
p425
tp426
Rp427
a(lp428
I0
aI6
aag20
aa(lp429
g18
aF1.21
a(lp430
I2
aI5
aaS'R.0'
p431
aaVavasavad
p432
tp433
a(g421
V0.07841
p434
(lp435
g18
aF0.07841
a(lp436
I0
aI6
aag20
aVavasavad
p437
tp438
a(g421
V0.07673
p439
(lp440
g18
aF0.07673
a(lp441
I0
aI6
aag20
aVavasavad
p442
tp443
a(g421
V0.9599
p444
(lp445
g18
aF0.9599
a(lp446
I0
aI5
aag20
aVavasavad
p447
tp448
a(g421
V0.9608
p449
(lp450
g18
aF0.9608
a(lp451
I0
aI5
aag20
aVavasavad
p452
tp453
a(VQ(1.76777)
p454
V-.2608
p455
(lp456
(lp457
g50
aF-0.2608
a(lp458
I0
aI6
aag20
aa(lp459
g18
aF0.2608
a(lp460
I1
aI6
aaS'R.0'
p461
aaVeaherman
p462
tp463
a(g454
V.2608
p464
(lp465
g18
aF0.2608
a(lp466
I0
aI5
aag20
aVeaherman
p467
tp468
a(VQ(1.76777)
p469
VQ(0.31)
p470
(lp471
(lp472
g27
ag28
(g32
S'\xbcV\x9fR\xbf5\xd8?'
p473
tp474
Rp475
a(lp476
I0
aI6
aag20
aa(lp477
g18
aF0.31
a(lp478
I2
aI5
aaS'R.0'
p479
aaVsmall
p480
tp481
a(g469
VQ(0.29)
p482
(lp483
(lp484
g27
ag28
(g32
S'\xc4\xbf`\xf7\xb7\xb2\xd8?'
p485
tp486
Rp487
a(lp488
I0
aI6
aag20
aa(lp489
g18
aF0.29
a(lp490
I2
aI5
aaS'R.0'
p491
aaVsmall
p492
tp493
a(g469
VQ(0.299)
p494
(lp495
(lp496
g27
ag28
(g32
S'\x8c\xb7\xe1\x8bcz\xd8?'
p497
tp498
Rp499
a(lp500
I0
aI7
aag20
aa(lp501
g18
aF0.299
a(lp502
I2
aI6
aaS'R.0'
p503
aaVsmall
p504
tp505
a(g469
VQ(0.33)
p506
(lp507
(lp508
g27
ag28
(g32
S'\n\xc6\xd1i\x8c\xb9\xd7?'
p509
tp510
Rp511
a(lp512
I0
aI6
aag20
aa(lp513
g18
aF0.33
a(lp514
I2
aI5
aaS'R.0'
p515
aaVsmall
p516
tp517
a(g469
VQ(0.28)
p518
(lp519
(lp520
g27
ag28
(g32
S'\x06\xd4\xee\xcez\xf1\xd8?'
p521
tp522
Rp523
a(lp524
I0
aI6
aag20
aa(lp525
g18
aF0.28
a(lp526
I2
aI5
aaS'R.0'
p527
aaVsmall
p528
tp529
a(g469
VQ(0.26)
p530
(lp531
(lp532
g27
ag28
(g32
S"\xa2\xe7\x0b'\x86o\xd9?"
p533
tp534
Rp535
a(lp536
I0
aI6
aag20
aa(lp537
g18
aF0.26
a(lp538
I2
aI5
aaS'R.0'
p539
aaVsmall
p540
tp541
a(g469
VQ(0.279)
p542
(lp543
(lp544
g27
ag28
(g32
S'\\\x97\xa7\xfe\xc3\xf7\xd8?'
p545
tp546
Rp547
a(lp548
I0
aI7
aag20
aa(lp549
g18
aF0.279
a(lp550
I2
aI6
aaS'R.0'
p551
aaVsmall
p552
tp553
a(g469
VQ(1.89)
p554
(lp555
(lp556
g27
ag28
(g32
S'@\x84\xda\xf9\x85\x15\x9e?'
p557
tp558
Rp559
a(lp560
I0
aI6
aag20
aa(lp561
g18
aF1.89
a(lp562
I2
aI5
aaS'R.0'
p563
aaVsmall
p564
tp565
a(g469
VQ(1.79)
p566
(lp567
(lp568
g27
ag28
(g32
S'\x90 7#\xe0\xcd\xa2?'
p569
tp570
Rp571
a(lp572
I0
aI6
aag20
aa(lp573
g18
aF1.79
a(lp574
I2
aI5
aaS'R.0'
p575
aaVsmall
p576
tp577
a(g469
VQ(1.6)
p578
(lp579
(lp580
g27
ag28
(g32
S'\x10\x1bc\x1b\xa7\x0e\xac?'
p581
tp582
Rp583
a(lp584
I0
aI5
aag20
aa(lp585
g18
aF1.6
a(lp586
I2
aI4
aaS'R.0'
p587
aaVsmall
p588
tp589
a(VQ(1.76777)
p590
VQ(0.883883476)
p591
(lp592
(lp593
g27
ag28
(g32
S'\xf0\xd1\xa5F\xd2\x1c\xc8?'
p594
tp595
Rp596
a(lp597
I0
aI13
aag20
aa(lp598
g18
aF0.883883476
a(lp599
I2
aI12
aaS'R.0'
p600
aaVzhz159
p601
tp602
a(g454
V.15
p603
(lp604
g18
aF0.15
a(lp605
I0
aI3
aag20
aVeaherman
p606
tp607
a(g454
V.0015
p608
(lp609
g18
aF0.0015
a(lp610
I0
aI5
aag20
aVeaherman
p611
tp612
a(g454
V.0003
p613
(lp614
g18
aF0.0003
a(lp615
I0
aI5
aag20
aVeaherman
p616
tp617
a(VQ(1.76777)
p618
V0.04935333238
p619
(lp620
g18
aF0.04935333238
a(lp621
I0
aI12
aag20
aVdcgriffi
p622
tp623
a(g454
VQ(3)
p624
(lp625
(lp626
g27
ag28
(g32
S'\x00\xb6\x85\xf9\xe1\x1dV?'
p627
tp628
Rp629
a(lp630
I0
aI3
aag20
aa(lp631
g18
aF3.0
a(lp632
I2
aI2
aaS'R.0'
p633
aaVeaherman
p634
tp635
a(g454
VQ(4)
p636
(lp637
(lp638
g27
ag28
(g32
S'\x00\x00K\x95\xd7\x9a\x00?'
p639
tp640
Rp641
a(lp642
I0
aI3
aag20
aa(lp643
g18
aF4.0
a(lp644
I2
aI2
aaS'R.0'
p645
aaVeaherman
p646
tp647
a(VQ(1.76777)
p648
V0.077099
p649
(lp650
g18
aF0.077099
a(lp651
I0
aI7
aag20
aVssamudra
p652
tp653
asS'Digits'
p654
(lp655
(g109
V1
p656
S'digit'
p657
tp658
a(g109
V3
p659
g657
tp660
a(g139
V0
p661
g657
tp662
a(g415
V0
p663
g657
tp664
a(g415
V5
p665
g657
tp666
a(g454
V1
p667
g657
tp668
a(g454
V2
p669
g657
tp670
a(g454
V3
p671
g657
tp672
a(g454
V4
p673
g657
tp674
a(VQ(1.76777)
p675
V20
p676
g657
tp677
asg8
g2
(g3
tp678
Rp679
S"['R.0.0']"
p680
(lp681
(VQ([50-0.2*200]/[.2 * .8 * 200])
p682
Vm8woo
p683
tp684
a(V(Q(50-40)/(32^(1/2)))
p685
Vcfgutier
p686
tp687
asS"['R.1']"
p688
(lp689
(V1-Q(1.776953)
p690
Vjap009
p691
tp692
a(V2*Q(1.776953)
p693
Vjap009
p694
tp695
a(V.16/200
p696
Vtstevens
p697
tp698
a(V50/200
p699
Vmsaguiar
p700
tp701
a(V1-Q(.2)
p702
Vajabasa
p703
tp704
a(V2*Q(.2)
p705
Vajabasa
p706
tp707
asS"['R.1.0', 'R.1.1.1']"
p708
(lp709
(V1 - [(0.25 - 0.2)/(0.2(1 - 0.2))^0.5]
p710
Vatorr
p711
tp712
a(V1 - [(50/200) - 0.2]/[(0.2) * (1 - 0.2)/200]^0.5
p713
Vatorr
p714
tp715
asS"['R.0']"
p716
(lp717
(V1-Q(1.76777)
p718
Vhachrist
p719
tp720
a(g710
g711
tp721
a(g713
g714
tp722
a(g690
g691
tp723
a(V1/5
p724
Vdac064
p725
tp726
a(g702
g703
tp727
a(VQ(1)
p728
Veaherman
p729
tp730
a(VQ(.2)
p731
Vflhernan
p732
tp733
a(V.2-1.76777
p734
Veaherman
p735
tp736
a(VQ(.2)
p737
Vc1wei
p738
tp739
a(VQ(200*0.2)
p740
Vtjke
p741
tp742
a(VQ(40)
p743
Vcfgutier
p744
tp745
a(V1 - Q(10/(200*0.2*0.8)^0.5)
p746
Vlpettit
p747
tp748
a(V1-Q(1.767766953)
p749
Vtdurrer
p750
tp751
a(V1-Q((0.25-0.2) /((0.2)(1-0.2)/200)^(1/2))
p752
Vjhp077
p753
tp754
a(g693
g694
tp755
a(g705
g706
tp756
a(VQ(2)
p757
Veaherman
p758
tp759
a(VQ(0.2)
p760
Vh4tu
p761
tp762
a(g699
g700
tp763
a(VQ(50)
p764
Veaherman
p765
tp766
a(VQ(.2)
p767
Vcfgutier
p768
tp769
a(VQ(.2)
p770
Vewbrenna
p771
tp772
a(VQ(.2)
p773
Vajabasa
p774
tp775
a(VQ(.2)
p776
Veaherman
p777
tp778
a(VQ(1.8)
p779
Vsmall
p780
tp781
a(VQ(1.799999)
p782
Vsmall
p783
tp784
asS"['R.0.1']"
p785
(lp786
(g682
g683
tp787
a(VQ(((50/200) - .20) / (.20(1 - .20)200))
p788
Vahh002
p789
tp790
asS"['R']"
p791
(lp792
(V0.039
p793
Vralhadda
p794
tp795
a(V0.039
p796
Vquwong
p797
tp798
a(V0.039
p799
Vhachrist
p800
tp801
a(V.039
p802
Vspw006
p803
tp804
a(V0.039
p805
Vl8ngo
p806
tp807
a(V0.039
p808
Vachava
p809
tp810
a(V.039
p811
Vjjchung
p812
tp813
a(V.039
p814
Vthk002
p815
tp816
a(V0.039
p817
Vacs008
p818
tp819
a(V0.039
p820
Vjjm019
p821
tp822
a(V0.039
p823
Vjag028
p824
tp825
a(V0.039
p826
Vs6deng
p827
tp828
a(V.039
p829
Vs6deng
p830
tp831
a(V0.039
p832
Vatorr
p833
tp834
a(V.039
p835
Vseleon
p836
tp837
a(V0.039
p838
Vk3tan
p839
tp840
a(V0.039
p841
Vasrana
p842
tp843
a(V0.039
p844
Vmnrahman
p845
tp846
a(V.039
p847
Vsrl006
p848
tp849
a(V0.039
p850
Vsrl006
p851
tp852
a(V0.039
p853
Vh4tu
p854
tp855
a(V.039
p856
Vnhn018
p857
tp858
a(V0.039
p859
Vmsaguiar
p860
tp861
a(V0.0390
p862
Vmsaguiar
p863
tp864
a(V0.039
p865
Vmuy002
p866
tp867
a(V.039
p868
Vyjshin
p869
tp870
a(V0.039
p871
Vsmall
p872
tp873
a(V0.039
p874
Vc3chung
p875
tp876
a(V 0.039
p877
Vp4kumar
p878
tp879
a(V0.25
p880
Vralhadda
p881
tp882
a(V0.25
p883
Vhachrist
p884
tp885
a(V.25
p886
Vmnrahman
p887
tp888
a(g699
g700
tp889
a(V.25
p890
Vrohan
p891
tp892
a(V0.20
p893
Vhachrist
p894
tp895
a(V.2
p896
Vjjchung
p897
tp898
a(V.2
p899
Vthk002
p900
tp901
a(V0.2
p902
Vtjke
p903
tp904
a(V.2
p905
Vjap009
p906
tp907
a(V.2
p908
Vdac064
p909
tp910
a(g724
g725
tp911
a(V.20
p912
Vmnrahman
p913
tp914
a(V0.20
p915
Vmnrahman
p916
tp917
a(V.2
p918
Vyhhan
p919
tp920
a(V0.2
p921
Vdlgoldbe
p922
tp923
a(V.2
p924
Vewbrenna
p925
tp926
a(V.2
p927
Veaherman
p928
tp929
a(V.2
p930
Vrohan
p931
tp932
a(g718
g719
tp933
a(g746
g747
tp934
a(g749
g750
tp935
a(g752
g753
tp936
a(V0.04
p937
Vachava
p938
tp939
a(V0.04
p940
Vasrana
p941
tp942
a(V.04
p943
Vtdurrer
p944
tp945
a(V0.04
p946
Vakg009
p947
tp948
a(V.05
p949
Vjjchung
p950
tp951
a(V0.05
p952
Vmnrahman
p953
tp954
a(V.05
p955
Vgalu
p956
tp957
a(V1.7678
p958
Vthk002
p959
tp960
a(V1.7678
p961
Vatorr
p962
tp963
a(VQ(0.3125)
p964
Vr9jiang
p965
tp966
a(g682
g683
tp967
a(V.39
p968
Vs6deng
p969
tp970
a(V.39
p971
Vseleon
p972
tp973
a(V0.0771
p974
Vs6deng
p975
tp976
a(V0.0771
p977
Vsrl006
p978
tp979
a(V0.030
p980
Vs6deng
p981
tp982
a(V0.03
p983
Vakg009
p984
tp985
a(g731
g732
tp986
a(g737
g738
tp987
a(g760
g761
tp988
a(g767
g768
tp989
a(g770
g771
tp990
a(g773
g774
tp991
a(g776
g777
tp992
a(VQ(1/4)
p993
Vc1wei
p994
tp995
a(VQ(0.25)
p996
Vh4tu
p997
tp998
a(VQ(.25)
p999
Vdtea
p1000
tp1001
a(V.0392
p1002
Vdcrume
p1003
tp1004
a(V0.0392
p1005
Vk3tan
p1006
tp1007
a(V0.0392
p1008
Vmsaguiar
p1009
tp1010
a(V.9616
p1011
Vppanourg
p1012
tp1013
a(V0.9616
p1014
Vavasavad
p1015
tp1016
a(V.020
p1017
Vseleon
p1018
tp1019
a(V0.02
p1020
Vakg009
p1021
tp1022
a(VQ(1.776953)
p1023
Vjap009
p1024
tp1025
a(V.025
p1026
Vewbrenna
p1027
tp1028
a(V.025
p1029
Veaherman
p1030
tp1031
a(V.077
p1032
Vyjshin
p1033
tp1034
a(V0.077
p1035
Vssamudra
p1036
tp1037
a(VQ(0.3)
p1038
Vsmall
p1039
tp1040
a(VQ(0.2999999)
p1041
Vsmall
p1042
tp1043
a(g728
g729
tp1044
assS"['R.0']"
p1045
(lp1046
(g454
V1.76777-.2
p1047
(lp1048
(S'R.0'
p1049
F1.76777
V1.76777
p1050
V1.76777
p1051
tp1052
atp1053
ass.