(dp0
V1
p1
ccollections
defaultdict
p2
(c__builtin__
list
p3
tp4
Rp5
S'Digits'
p6
(lp7
(V65
p8
V50
p9
S'digit'
p10
tp11
a(V65
p12
V2
p13
g10
tp14
a(g12
V10
p15
g10
tp16
a(g12
V1
p17
g10
tp18
a(g12
V3
p19
g10
tp20
a(V65
p21
V3
p22
g10
tp23
a(V65
p24
V3
p25
g10
tp26
a(g21
V13
p27
g10
tp28
a(V65
p29
V1
p30
g10
tp31
a(V65
p32
V30
p33
g10
tp34
a(V65
p35
V3
p36
g10
tp37
a(g35
V9
p38
g10
tp39
a(V65
p40
V60
p41
g10
tp42
a(g40
V6
p43
g10
tp44
a(V65
p45
V1
p46
g10
tp47
a(g45
V130
p48
g10
tp49
a(g45
V3
p50
g10
tp51
a(V65
p52
V3
p53
g10
tp54
a(V65
p55
V3
p56
g10
tp57
a(V65
p58
V64
p59
g10
tp60
a(V65
p61
V3
p62
g10
tp63
a(V65
p64
V75
p65
g10
tp66
a(V65
p67
V0
p68
g10
tp69
a(V65
p70
V30
p71
g10
tp72
a(V65
p73
V3
p74
g10
tp75
a(V65
p76
V55
p77
g10
tp78
a(g73
V90
p79
g10
tp80
a(V65
p81
V50
p82
g10
tp83
a(V65
p84
V60
p85
g10
tp86
a(g84
V30
p87
g10
tp88
a(g84
V3
p89
g10
tp90
a(g84
V2
p91
g10
tp92
a(V65
p93
V3
p94
g10
tp95
a(V65
p96
V1
p97
g10
tp98
a(V65
p99
V3
p100
g10
tp101
a(V65
p102
V2
p103
g10
tp104
a(V65
p105
V9
p106
g10
tp107
a(V65
p108
V3
p109
g10
tp110
a(V65
p111
V3
p112
g10
tp113
a(g111
V30
p114
g10
tp115
a(V65
p116
V0
p117
g10
tp118
a(g12
V1
p119
g10
tp120
a(g12
V2
p121
g10
tp122
a(V65
p123
V2
p124
g10
tp125
a(V65
p126
V3
p127
g10
tp128
a(g126
V0
p129
g10
tp130
a(g126
V0
p131
g10
tp132
a(V65
p133
V1
p134
g10
tp135
a(V65
p136
V3
p137
g10
tp138
a(g136
V9
p139
g10
tp140
a(g136
V6
p141
g10
tp142
a(g136
V2
p143
g10
tp144
a(g136
V1
p145
g10
tp146
a(V65
p147
V3
p148
g10
tp149
a(g147
V2
p150
g10
tp151
a(V65
p152
V30
p153
g10
tp154
a(V65
p155
V75
p156
g10
tp157
a(g147
V9
p158
g10
tp159
a(g147
V6
p160
g10
tp161
a(g152
V30
p162
g10
tp163
a(V65
p164
V45
p165
g10
tp166
a(V65
p167
V1
p168
g10
tp169
a(g167
V3
p170
g10
tp171
a(g167
V0
p172
g10
tp173
a(V65
p174
V2
p175
g10
tp176
a(V65
p177
V1
p178
g10
tp179
a(V65
p180
V6
p181
g10
tp182
a(g177
V2
p183
g10
tp184
a(V65
p185
V6
p186
g10
tp187
a(V65
p188
V3
p189
g10
tp190
a(V65
p191
V3
p192
g10
tp193
a(V65
p194
V0
p195
g10
tp196
a(V65
p197
V3
p198
g10
tp199
a(V65
p200
V6
p201
g10
tp202
a(g200
V2
p203
g10
tp204
a(g200
V3
p205
g10
tp206
a(g200
V1
p207
g10
tp208
a(V65
p209
V3
p210
g10
tp211
a(V65
p212
V1
p213
g10
tp214
a(g209
V2
p215
g10
tp216
a(V65
p217
V3
p218
g10
tp219
a(V65
p220
V70
p221
g10
tp222
a(g220
V3
p223
g10
tp224
a(g212
V6
p225
g10
tp226
a(g105
V1
p227
g10
tp228
a(V65
p229
V3
p230
g10
tp231
a(V65
p232
V3
p233
g10
tp234
a(g232
V1
p235
g10
tp236
a(V65
p237
V30
p238
g10
tp239
a(g237
V3
p240
g10
tp241
a(g237
V0
p242
g10
tp243
a(V65
p244
V3
p245
g10
tp246
a(V65
p247
V3
p248
g10
tp249
a(V65
p250
V3
p251
g10
tp252
a(V65
p253
V3
p254
g10
tp255
a(g250
V30
p256
g10
tp257
a(V65
p258
V1
p259
g10
tp260
a(g258
V3
p261
g10
tp262
a(V65
p263
V3
p264
g10
tp265
a(V65
p266
V3
p267
g10
tp268
a(V65
p269
V3
p270
g10
tp271
a(V65
p272
V3
p273
g10
tp274
a(V65
p275
V3
p276
g10
tp277
a(V65
p278
V30
p279
g10
tp280
a(V65
p281
V1
p282
g10
tp283
a(V65
p284
V5
p285
g10
tp286
a(g284
V30
p287
g10
tp288
asS'Nothing'
p289
(lp290
(V65
p291
V25 + 20 + 15
p292
(lp293
(lp294
S'+'
p295
aF60.0
a(lp296
I0
aI11
aaS'R'
p297
aa(lp298
(lp299
g295
aF45.0
a(lp300
I0
aI6
aaS'R.0'
p301
aa(lp302
S'X'
p303
aF25.0
a(lp304
I0
aI1
aaS'R.0.0'
p305
aa(lp306
g303
aF20.0
a(lp307
I5
aI6
aaS'R.0.1'
p308
aaa(lp309
g303
aF15.0
a(lp310
I10
aI11
aaS'R.1'
p311
aaVeyhu
p312
tp313
a(V65
p314
V17.5
p315
(lp316
g303
aF17.5
a(lp317
I0
aI3
aag297
aVyfreund
p318
tp319
a(g314
V17.5
p320
(lp321
g303
aF17.5
a(lp322
I0
aI3
aag297
aVyfreund
p323
tp324
a(g314
V17.5
p325
(lp326
g303
aF17.5
a(lp327
I0
aI3
aag297
aVyfreund
p328
tp329
a(g40
V55*.24
p330
(lp331
(lp332
S'*'
p333
aF13.2
a(lp334
I0
aI6
aag297
aa(lp335
g303
aF55.0
a(lp336
I0
aI1
aaS'R.0'
p337
aa(lp338
g303
aF0.24
a(lp339
I3
aI6
aaS'R.1'
p340
aaVzhen_student
p341
tp342
a(g40
V55*.24
p343
(lp344
(lp345
g333
aF13.2
a(lp346
I0
aI6
aag297
aa(lp347
g303
aF55.0
a(lp348
I0
aI1
aaS'R.0'
p349
aa(lp350
g303
aF0.24
a(lp351
I3
aI6
aaS'R.1'
p352
aaVzhen_student
p353
tp354
a(g220
V45.4165
p355
(lp356
g303
aF45.4165
a(lp357
I0
aI6
aag297
aVsrl006
p358
tp359
a(g105
V30/3+20/3+15/3+30/2+20/4+15/4
p360
(lp361
(lp362
g295
aF45.41666666666667
a(lp363
I0
aI28
aag297
aa(lp364
(lp365
g295
aF41.66666666666667
a(lp366
I0
aI23
aaS'R.0'
p367
aa(lp368
(lp369
g295
aF36.66666666666667
a(lp370
I0
aI18
aaS'R.0.0'
p371
aa(lp372
(lp373
g295
aF21.666666666666668
a(lp374
I0
aI13
aaS'R.0.0.0'
p375
aa(lp376
(lp377
g295
aF16.666666666666668
a(lp378
I0
aI8
aaS'R.0.0.0.0'
p379
aa(lp380
(lp381
S'/'
p382
aF10.0
a(lp383
I0
aI3
aaS'R.0.0.0.0.0'
p384
aa(lp385
g303
aF30.0
a(lp386
I0
aI1
aaS'R.0.0.0.0.0.0'
p387
aa(lp388
g303
aF3.0
a(lp389
I3
aI3
aaS'R.0.0.0.0.0.1'
p390
aaa(lp391
(lp392
g382
aF6.666666666666667
a(lp393
I5
aI8
aaS'R.0.0.0.0.1'
p394
aa(lp395
g303
aF20.0
a(lp396
I5
aI6
aaS'R.0.0.0.0.1.0'
p397
aa(lp398
g303
aF3.0
a(lp399
I8
aI8
aaS'R.0.0.0.0.1.1'
p400
aaaa(lp401
(lp402
g382
aF5.0
a(lp403
I10
aI13
aaS'R.0.0.0.1'
p404
aa(lp405
g303
aF15.0
a(lp406
I10
aI11
aaS'R.0.0.0.1.0'
p407
aa(lp408
g303
aF3.0
a(lp409
I13
aI13
aaS'R.0.0.0.1.1'
p410
aaaa(lp411
(lp412
g382
aF15.0
a(lp413
I15
aI18
aaS'R.0.0.1'
p414
aa(lp415
g303
aF30.0
a(lp416
I15
aI16
aaS'R.0.0.1.0'
p417
aa(lp418
g303
aF2.0
a(lp419
I18
aI18
aaS'R.0.0.1.1'
p420
aaaa(lp421
(lp422
g382
aF5.0
a(lp423
I20
aI23
aaS'R.0.1'
p424
aa(lp425
g303
aF20.0
a(lp426
I20
aI21
aaS'R.0.1.0'
p427
aa(lp428
g303
aF4.0
a(lp429
I23
aI23
aaS'R.0.1.1'
p430
aaaa(lp431
(lp432
g382
aF3.75
a(lp433
I25
aI28
aaS'R.1'
p434
aa(lp435
g303
aF15.0
a(lp436
I25
aI26
aaS'R.1.0'
p437
aa(lp438
g303
aF4.0
a(lp439
I28
aI28
aaS'R.1.1'
p440
aaaVtak068
p441
tp442
asS'Nothing_clusters'
p443
g2
(g3
tp444
Rp445
S"['R.1']"
p446
(lp447
(V3*65
p448
Vc1wei
p449
tp450
a(V6*65
p451
Vdgunawan
p452
tp453
a(V(0.5*[(30/65 - 0.5)/0.5]^2 + 0.25*[(20/65 - 0.25)/0.25]^2 + 0.25*[(15/65 - 0.25)/0.25]^2) * 65
p454
Vavasavad
p455
tp456
a(V3*(30+20+15)
p457
Vdgunawan
p458
tp459
asS"['R.0']"
p460
(lp461
(V65^2
p462
Vsippolit
p463
tp464
a(V65/3
p465
Vsippolit
p466
tp467
a(V65*((30/65-(1/3))/(1/3))^2
p468
Vasetters
p469
tp470
a(V65*3
p471
Vsayao
p472
tp473
a(V65* 3
p474
Vhmnaing
p475
tp476
a(V65*3
p477
Vkalang
p478
tp479
a(V65*3
p480
Vv4sharma
p481
tp482
a(V65*3
p483
Vtak068
p484
tp485
a(V65*3
p486
Vhpc001
p487
tp488
a(V65*2
p489
Vsayao
p490
tp491
a(V65* 2
p492
Vhmnaing
p493
tp494
a(V65*2
p495
Vv4sharma
p496
tp497
a(V65*2
p498
Vtak068
p499
tp500
a(g448
g449
tp501
a(V3*3
p502
Vp4kumar
p503
tp504
a(g457
g458
tp505
asS"['R']"
p506
(lp507
(V17.5
p508
Vyfreund
p509
tp510
a(V55*.24
p511
Vzhen_student
p512
tp513
a(g468
g469
tp514
a(V65+65+65
p515
Vsayao
p516
tp517
a(g471
g472
tp518
a(g448
g449
tp519
a(g474
g475
tp520
a(g477
g478
tp521
a(g457
g458
tp522
a(g480
g481
tp523
a(g483
g484
tp524
a(g486
g487
tp525
a(g489
g490
tp526
a(g492
g493
tp527
a(g495
g496
tp528
a(g498
g499
tp529
asS"['R.1.1']"
p530
(lp531
(g468
g469
tp532
a(V((0.5)((30/65)-(0.5))/(0.5))^2 + ((0.25)((20/65)-(0.25))/(0.25))^2 + ((0.25)((15/65)-(0.25))/(0.25))^2
p533
Vmjethani
p534
tp535
a(V3*30+(20+15)
p536
Vdgunawan
p537
tp538
a(g457
g458
tp539
asS"['R.0', 'R.1']"
p540
(lp541
(g462
g463
tp542
a(g489
g490
tp543
a(g492
g493
tp544
a(g495
g496
tp545
a(g498
g499
tp546
a(g465
g466
tp547
a(g471
g472
tp548
a(g474
g475
tp549
a(g477
g478
tp550
a(g480
g481
tp551
a(g483
g484
tp552
a(g486
g487
tp553
asssV3
p554
g2
(g3
tp555
Rp556
g6
(lp557
(V65*(1/3*[(30/65-1/3)/(1/3)]^2+1/3*[(20/65-1/3)/(1/3)]^2+1/3*[(15/65-1/3)/(1/3)]^2)
p558
V60
p559
g10
tp560
a(g558
V6
p561
g10
tp562
a(V65*(1/3*[(30/65-1/3)/(1/3)]^2+1/3*[(20/65-1/3)/(1/3)]^2+1/3*[(15/65-1/3)/(1/3)]^2)
p563
V0
p564
g10
tp565
a(V65*(1/3*[(30/65-1/3)/(1/3)]^2+1/3*[(20/65-1/3)/(1/3)]^2+1/3*[(15/65-1/3)/(1/3)]^2)
p566
V131
p567
g10
tp568
a(V65*(1/3*[(30/65-1/3)/(1/3)]^2+1/3*[(20/65-1/3)/(1/3)]^2+1/3*[(15/65-1/3)/(1/3)]^2)
p569
V34444
p570
g10
tp571
a(V65*(1/3*[(30/65-1/3)/(1/3)]^2+1/3*[(20/65-1/3)/(1/3)]^2+1/3*[(15/65-1/3)/(1/3)]^2)
p572
V1
p573
g10
tp574
a(V65*(1/3*[(30/65-1/3)/(1/3)]^2+1/3*[(20/65-1/3)/(1/3)]^2+1/3*[(15/65-1/3)/(1/3)]^2)
p575
V10
p576
g10
tp577
a(V65*(1/3*[(30/65-1/3)/(1/3)]^2+1/3*[(20/65-1/3)/(1/3)]^2+1/3*[(15/65-1/3)/(1/3)]^2)
p578
V2
p579
g10
tp580
a(V65*(1/3*[(30/65-1/3)/(1/3)]^2+1/3*[(20/65-1/3)/(1/3)]^2+1/3*[(15/65-1/3)/(1/3)]^2)
p581
V1
p582
g10
tp583
a(V65*(1/3*[(30/65-1/3)/(1/3)]^2+1/3*[(20/65-1/3)/(1/3)]^2+1/3*[(15/65-1/3)/(1/3)]^2)
p584
V10
p585
g10
tp586
a(V65*(1/3*[(30/65-1/3)/(1/3)]^2+1/3*[(20/65-1/3)/(1/3)]^2+1/3*[(15/65-1/3)/(1/3)]^2)
p587
V10
p588
g10
tp589
a(V65*(1/3*[(30/65-1/3)/(1/3)]^2+1/3*[(20/65-1/3)/(1/3)]^2+1/3*[(15/65-1/3)/(1/3)]^2)
p590
V2
p591
g10
tp592
a(V65*(1/3*[(30/65-1/3)/(1/3)]^2+1/3*[(20/65-1/3)/(1/3)]^2+1/3*[(15/65-1/3)/(1/3)]^2)
p593
V1
p594
g10
tp595
a(V65*(1/3*[(30/65-1/3)/(1/3)]^2+1/3*[(20/65-1/3)/(1/3)]^2+1/3*[(15/65-1/3)/(1/3)]^2)
p596
V1
p597
g10
tp598
a(V65*(1/3*[(30/65-1/3)/(1/3)]^2+1/3*[(20/65-1/3)/(1/3)]^2+1/3*[(15/65-1/3)/(1/3)]^2)
p599
V1
p600
g10
tp601
a(V65*(1/3*[(30/65-1/3)/(1/3)]^2+1/3*[(20/65-1/3)/(1/3)]^2+1/3*[(15/65-1/3)/(1/3)]^2)
p602
V0
p603
g10
tp604
a(V65*(1/3*[(30/65-1/3)/(1/3)]^2+1/3*[(20/65-1/3)/(1/3)]^2+1/3*[(15/65-1/3)/(1/3)]^2)
p605
V1
p606
g10
tp607
a(V65*(1/3*[(30/65-1/3)/(1/3)]^2+1/3*[(20/65-1/3)/(1/3)]^2+1/3*[(15/65-1/3)/(1/3)]^2)
p608
V123
p609
g10
tp610
a(V65*(1/3*[(30/65-1/3)/(1/3)]^2+1/3*[(20/65-1/3)/(1/3)]^2+1/3*[(15/65-1/3)/(1/3)]^2)
p611
V50
p612
g10
tp613
a(V65*(1/3*[(30/65-1/3)/(1/3)]^2+1/3*[(20/65-1/3)/(1/3)]^2+1/3*[(15/65-1/3)/(1/3)]^2)
p614
V0
p615
g10
tp616
a(V65*(1/3*[(30/65-1/3)/(1/3)]^2+1/3*[(20/65-1/3)/(1/3)]^2+1/3*[(15/65-1/3)/(1/3)]^2)
p617
V65
p618
g10
tp619
a(V65*(1/3*[(30/65-1/3)/(1/3)]^2+1/3*[(20/65-1/3)/(1/3)]^2+1/3*[(15/65-1/3)/(1/3)]^2)
p620
V1
p621
g10
tp622
a(V65*(1/3*[(30/65-1/3)/(1/3)]^2+1/3*[(20/65-1/3)/(1/3)]^2+1/3*[(15/65-1/3)/(1/3)]^2)
p623
V4
p624
g10
tp625
a(V65*(1/3*[(30/65-1/3)/(1/3)]^2+1/3*[(20/65-1/3)/(1/3)]^2+1/3*[(15/65-1/3)/(1/3)]^2)
p626
V4
p627
g10
tp628
asS"['R.1.0.0.1.0.0']"
p629
(lp630
(V65*(1/3*[(30/65-1/3)/(1/3)]^2+1/3*[(20/65-1/3)/(1/3)]^2+1/3*[(15/65-1/3)/(1/3)]^2)
p631
V65*(1/3*(((30/65)-1/3)/1/3)^2+1/3*(((20/65)-1/3)/1/3)^2+1/3*(((20/65)-1/3)/1/3)^2)
p632
(lp633
(S'R.1.0.0.1.0.0'
p634
F0.12820512820512825
V30/65-1/3
p635
V((30/65)-1/3)/1
p636
tp637
atp638
asg443
g2
(g3
tp639
Rp640
S"['R.0', 'R.1.0.0', 'R.1.1']"
p641
(lp642
(V65(1/3)[ ((((30/62)-(1/3))/(1/3))**2) + ((((29/62)-(1/3))/(1/3))**2) + ((((15/62)-(1/3))/(1/3))**2) ]
p643
Vtcuddy
p644
tp645
a(V65(1/3)[ ((((30/62)-(1/3))/(1/3))**2) + ((((20/62)-(1/3))/(1/3))**2) + ((((15/62)-(1/3))/(1/3))**2) ]
p646
Vtcuddy
p647
tp648
asS"['R.0.1.1.0.0.0', 'R.1.1.0.0.0']"
p649
(lp650
(V65[(1/3)((30/65-(1/3))/(1/3))^2]+[(1/3)((20/65-(1/3))/(1/3))^2]+[(1/3)((15/65-(1/3))/(1/3))^2]
p651
Vksmurlo
p652
tp653
a(V0.5*[((30/65 - 0.5)/0.5)^2] + 0.25*[((20/65 - 0.25)/0.25)^2] + 0.25*[((15/65 - 0.25)/0.25)^2]
p654
Vjeqin
p655
tp656
a(V[1/3((30/65-30*1/3)/(1/3))^2]+[1/3((20/65-20*1/3)/(1/3))^2]+[1/3((15/65-15*1/3)/(1/3))^2]
p657
Vffhaddad
p658
tp659
a(V65*((1/3)*(((30/65)-(1/3))/(1/3))^2)+(1/3)*(((20/65)-(1/3))/(1/3))^2+(1/3)*(((15/65)-(1/3))/(1/3))^2
p660
Vabjara
p661
tp662
asS"['R.0.0.1.0.0.0', 'R.0.1.1.0.0.0', 'R.1.1.0.0.0']"
p663
(lp664
(V[(1/3)((30/65-(1/3))/(1/3))^2]+[(1/3)((20/65-(1/3))/(1/3))^2]+[(1/3)((15/65-(1/3))/(1/3))^2]
p665
Vksmurlo
p666
tp667
a(g654
g655
tp668
a(g657
g658
tp669
a(V65*((30/65-(1/3))/(1/3))^2+65*((20/65-(1/3))/(1/3))^2+65*((15/65-(1/3))/(1/3))^2
p670
Vewbrenna
p671
tp672
a(V65*(1/3)*((30/65-(1/3))/(1/3))^2+(1/3)*((20/65-(1/3))/(1/3))^2+(1/3)*((15/65-(1/3))/(1/3))^2
p673
Vewbrenna
p674
tp675
a(V[1/3*[(30/65-1/3)*3]^2]+[1/3*[(20/65-1/3)*3]^2]+[1/3*[(15/65-1/3)*3]^2]
p676
Vl8ngo
p677
tp678
a(V((1/3)*((30/65-(1/3))/(1/3))^2) + ((1/3)*((20/65-(1/3))/(1/3))^2) + ((1/3)*((15/65-(1/3))/(1/3))^2)
p679
Vdcgriffi
p680
tp681
asS"['R.0', 'R.1.0.1.0.0.0', 'R.1.1.0.0.0']"
p682
(lp683
(V65/3((((30/65-.33)/.33)^2 + (((20/65-.33)/.33)^2) + (((15/65-.33)/.33)^2)))
p684
Vedcole
p685
tp686
a(V65/3((((30/65-(1/3))/1/3))^2 + (((20/65-(1/3))/(1/3))^2) + ((((15/65-(1/3))/(1/3))^2)))
p687
Vedcole
p688
tp689
asS"['R.0.0.0.0.0', 'R.0.1.0.0', 'R.1.0.0.0']"
p690
(lp691
(V((30 - (65/2))^2)/(65/2)+((20 - (65/4))^2)/(65/4)+((15 - (65/4))^2)/(65/4)
p692
Vdaw023
p693
tp694
a(V((30-65/3)^2)/(65/3) + ((20-65/4)^3)/(65/3) + ((15-65/3)^2)/(65/3)
p695
Vjhw015
p696
tp697
asS"['R.0', 'R.1.1']"
p698
(lp699
(V65(62)/3
p700
Vtcuddy
p701
tp702
a(V65*((20/65-1/3)^2/1/3)
p703
Vbkoli
p704
tp705
a(V((65/3)((((30/65)-(1/3))/(1/3))^2))
p706
Vc1sorian
p707
tp708
a(V(65/3)(((65/3)/(65-1/3))/(1/3))^2
p709
Vyjshin
p710
tp711
asS"['R.1.0.0.0.0.0.0', 'R.1.0.1.0.0.0.0', 'R.1.1.0.0.0.0']"
p712
(lp713
(g646
g647
tp714
a(V65(((30/65 - (1/3))/(1/3))^2 + ((20/65 - (1/3))/(1/3))^2 + ((15/65 - (1/3))/(1/3))^2)
p715
Vpcdo
p716
tp717
a(V65[([30/65-1/3]/(1/3))^2+([20/65-1/3]/(1/3))^2+([15/65-1/3]/(1/3))^2]
p718
Vqtluong
p719
tp720
a(V65*[(((30/65)-(1/2))/(1/2))^2+(((20/65)-(1/4))/(1/4))^2+(((15/65)-(1/4))/(1/4))^2]
p721
Vjtfrankl
p722
tp723
a(V65*(((30/65-(1/3))/(1/3))^2+((20/65-(1/3))/(1/3))^2+((15/65-(1/3))/(1/3))^2)
p724
Vkbielawi
p725
tp726
a(V65[(((30/65)-1/3)/(1/3))**2 + (((20/65)-1/3)/(1/3))**2 + (((15/65)-1/3)/(1/3))**2]
p727
Vkvass
p728
tp729
a(V65 * (([(30/65) - (1/3)]/[1/3])^2 + ([(20/65) - (1/3)]/[1/3])^2 + ([(15/65) - (1/3)]/[1/3])^2)
p730
Vatorr
p731
tp732
a(V65 * ([[(30/65) - 0.5]/[0.5]]^2 + [[(20/65) - 0.25]/[0.25]]^2 + [[(15/65) - 0.25]/[0.26]]^2)
p733
Vatorr
p734
tp735
a(V65*[(((30/65)-(1/3))/(1/3))^2+(((20/65)-(1/3))/(1/3))^2+(((15/65)-(1/3))/(1/3))^2]
p736
Vjtfrankl
p737
tp738
a(V65*(((30/65-1/3)/(1/3))^2+((20/65-1/3)/(1/3))^2+((15/65-1/3)/(1/3))^2)
p739
Vggaddi
p740
tp741
a(V(45**3)*(((30/45-(1/3))/(1/3))**2+((20/45-(1/3))/(1/3))**2+((15/45-(1/3))/(1/3))**2)
p742
Vjguanzho
p743
tp744
a(V(65)*(((30/45-(1/3))/(1/3))**2+((20/45-(1/3))/(1/3))**2+((15/45-(1/3))/(1/3))**2)
p745
Vjguanzho
p746
tp747
a(V(65)*(((30/45-(1/3))**2/(1/3))+((20/45-(1/3))**2/(1/3))+((15/45-(1/3))**2/(1/3)))
p748
Vjguanzho
p749
tp750
a(V65( ((30/65 - 1/3)/(1/3))^2 +((20/65 - 1/3)/(1/3))^2 + ((15/65 - 1/3)/(1/3))^2 )
p751
Vdac064
p752
tp753
a(V65((((30/65)-(1/2))/(1/2))^2+(((20/65)-(1/4))/(1/4))^2+(((15/65)-(1/4))/(1/4))^2)
p754
Vabjara
p755
tp756
a(V65*((((30/65)-(1/3))/(1/3))^2+(((20/65)-(1/3))/(1/3))^2+(((15/65)-(1/3))/(1/3))^2)
p757
Vabjara
p758
tp759
a(V65*((((((30)/(65))-(1/3))/(1/3))^2)+((((((20)/(65))-(1/3))/(1/3)))^2)+((((((15)/(65))-(1/3))/(1/3)))^2))
p760
Vdlgoldbe
p761
tp762
a(V(65**3)*(((30/45-(1/3))/(1/3))**2+((20/45-(1/3))/(1/3))**2+((15/45-(1/3))/(1/3))**2)
p763
Vjguanzho
p764
tp765
a(g684
g685
tp766
asS"['R.0.0.1.1']"
p767
(lp768
(V65 * ([(30/65) - (1/3)]/[1/3])^2 + ([(20/65) - (1/3)]/[1/3])^2 + ([(15/65) - (1/3)]/[1/3])^2
p769
Vatorr
p770
tp771
a(V65*(30/65-1/2)^2/(1/2)+65*(20/65-1/4)^2/(1/4)+65*(15/65-1/4)^2/(1/4)
p772
Vvqt004
p773
tp774
a(V65*((30/65-(1/3))/(1/3))^2+((20/65-(1/3))/(1/3))^2+((15/65-(1/3))/(1/3))^2
p775
Vewbrenna
p776
tp777
asS"['R.0', 'R.1.0.0.0.0.0.0', 'R.1.0.1.0.0.0.0', 'R.1.1.0.0.0.0']"
p778
(lp779
(g646
g647
tp780
a(g684
g685
tp781
a(g745
g746
tp782
a(g751
g752
tp783
a(g754
g755
tp784
a(g757
g758
tp785
a(g760
g761
tp786
a(g748
g749
tp787
asS"['R.1.0.0.0.0', 'R.1.0.1', 'R.1.1']"
p788
(lp789
(g715
g716
tp790
a(g687
g688
tp791
a(g718
g719
tp792
a(g724
g725
tp793
a(g727
g728
tp794
a(g730
g731
tp795
a(g736
g737
tp796
a(g739
g740
tp797
asS"['R.0.0.1']"
p798
(lp799
(g665
g666
tp800
a(g769
g770
tp801
a(V((65/3)((((30/65)-(1/3))/(1/3))^2))+((65/3)((((30/65)-(1/3))/(1/3)^2)))+((65/3)((((30/65)-(1/3))/(1/3)^2)))
p802
Vc1sorian
p803
tp804
a(g775
g776
tp805
a(g673
g674
tp806
a(g676
g677
tp807
a(g679
g680
tp808
a(g670
g671
tp809
asS"['R.0.1.1.1']"
p810
(lp811
(V((1/3)*(((25/60) - (1/3)) / (1/3))^2) + ((1/3)*(((20/60) - (1/3)) / (1/3))^2) + ((1/3)*(((15/60) - (1/3)) / (1/3))^2)
p812
Veyhu
p813
tp814
a(V(0.5*[((30/65 - 0.5)/0.5)^2] + 0.25*[((20/65 - 0.25)/0.25)^2] + 0.25*[((15/65 - 0.25)/0.25)^2])*65
p815
Vjeqin
p816
tp817
a(V(0.333*[((30/65 - 0.333)/0.333)^2] + 0.333*[((20/65 - 0.333)/0.333)^2] + 0.333*[((15/65 - 0.333)/0.333)^2])*65
p818
Vjeqin
p819
tp820
a(V([1/3]*[((30/65 - [1/3])/[1/3])^2] + [1/3]*[((20/65 - [1/3])/[1/3])^2] + [1/3]*[((15/65 - [1/3])/0.25)^2])*65
p821
Vjeqin
p822
tp823
a(V(0.33*[(30/65 - 0.33)/0.33]^2 + 0.33*[(20/65 - 0.33)/0.33]^2 + 0.33*[(15/65 - 0.33)/0.33]^2) * 65
p824
Vavasavad
p825
tp826
a(V(1/3*[(30/65 - 1/3)/1/3]^2 + 1/3*[(20/65 - 1/3)/1/3]^2 + 1/3*[(15/65 - 1/3)/1/3]^2) * 65
p827
Vavasavad
p828
tp829
a(V(1/3*[(30/65 -1/3)/1/3]^2 + 1/3*[(20/65 -1/3)/1/3]^2 + 1/3*[(15/65 - 1/3)/1/3]^2) * 65
p830
Vavasavad
p831
tp832
a(V(1/3*[(30/65-1/3)/1/3]^2 + 1/3*[(20/65-1/3)/1/3]^2 + 1/3*[(15/65-1/3)/1/3]^2) * 65
p833
Vavasavad
p834
tp835
a(V(0.5*[(30/65 - 0.5)/0.5]^2 + 0.25*[(20/65 - 0.25)/0.25]^2 + 0.25*[(15/65 - 0.25)/0.25]^2) * 65
p836
Vavasavad
p837
tp838
a(V(1/3)*((25/60-(1/3))/(1/3))^2+(1/3)*((20/60-(1/3))/(1/3))^2+(1/3)*((15/60-(1/3))/(1/3))^2
p839
Vmitopete
p840
tp841
a(g665
g666
tp842
a(g654
g655
tp843
a(V(.5*(((30/3-.5)/.5)^2))+(.25*(((20/3-.25)/.25)^2))+(.25*(((15/3-.25)/.25)^2))
p844
Vjjchung
p845
tp846
a(g657
g658
tp847
a(V((65/3)((((30/65)-(1/3))/(1/3))^2))+((65/3)((((30/65)-(1/3))/(1/3))^2))+((65/3)((((30/65)-(1/3))/(1/3))^2))
p848
Vc1sorian
p849
tp850
a(g670
g671
tp851
a(g673
g674
tp852
asS"['R.0.0.0.0.0', 'R.0.0.0.0.1', 'R.0.1.0.0.0', 'R.1.0.0.0']"
p853
(lp854
(g692
g693
tp855
a(V((30/(65/2))/(65-(65/3)))^2+((20/(65-(65/3)))/(65/3))^2+((15/(65-(65/3)))/(65/3))^2
p856
Vachinn
p857
tp858
asS"['R.1.0']"
p859
(lp860
(V65((1/2((30/65-1/2)/1/2)^2) + ((1/4((20/65-1/4)/1/4)^2))+((1/4((15/65-1/4)/1/4)^2)))
p861
Vt1tran
p862
tp863
a(V65( (1/2(((30/65)-1/2)/1/2)^2)+ (1/4(((20/65)-1/4)/1/4)^2) +(1/4(((20/65)-1/4)/1/4)^2))
p864
Vjmmcalex
p865
tp866
a(V195((30/65-1/3)^2+(20/65-1/3)^2+(15/65-.1/3)^2)
p867
Vmpanelo
p868
tp869
a(V65*( ( (1/3)*( (30/65-(1/3)) / (1/3) ) )^2 + ( (1/3)*( (20/65-(1/3)) / (1/3) ) )^2 + ( (1/3)*( (15/65-(1/3)) / (1/3) ) )^2 )
p870
Vlcardoso
p871
tp872
a(V65((1/3((30/65)-(1/3))/(1/3))^2 + (1/3((20/65)-(1/3))/(1/3))^2 + (1/3((15/65)-(1/3))/(1/3))^2)
p873
Vgalu
p874
tp875
a(g706
g707
tp876
a(V65(((((35/65) - (1/3))/(1/3))^2)+((((20/65) - (1/3))/(1/3))^2)+((((15/65) - (1/3))/(1/3))^2))
p877
Vjmmcalex
p878
tp879
a(V(((30/65)-(1/3))/(1/3))^2 + (((30/65)-(1/3))/(1/3))^2 +(((30/65)-(1/3))/(1/3))^2
p880
Vthk002
p881
tp882
a(V65( (1/2(((30/65)-1/2)/1/2)^2) (1/4(((20/65)-1/4)/1/4)^2) (1/4((20/65)-1/4)/1/4)^2)
p883
Vjmmcalex
p884
tp885
a(V65( (1/2(((30/65)-1/2)/1/2)^2) (1/4(((20/65)-1/4)/1/4)^2) (1/4(((20/65)-1/4)/1/4)^2))
p886
Vjmmcalex
p887
tp888
a(V65( (1/2(((30/65)-1/2)/1/2)^2)+ (1/4(((20/65)-1/4)/1/4)^2) +(1/4(((15/65)-1/4)/1/4)^2))
p889
Vjmmcalex
p890
tp891
asS"['R.1.0.0', 'R.1.1']"
p892
(lp893
(V65(((1/3)((30/65)-1/3)/(1/3))^2 + ((1/3)((20/65)-1/4)/(1/3))^2 + ((1/3)((15/65)-1/3)/(1/3))^2)
p894
Vacvuong
p895
tp896
a(V65*[((30/65)-(1/3))^2+((20/65)-(1/3))^2+((15/65)-(1/3))^2]
p897
Vv4zhang
p898
tp899
asS"['R.1.0.1.0.0.0', 'R.1.1.0.0.0']"
p900
(lp901
(V60 * 3 * ((25/60 - 1/3)^2 + (20/60 - 1/3)^2 + (15/60 - 1/3)^2)
p902
Vquwong
p903
tp904
a(V65[([30/65-1/3]/(1/3))+([20/65-1/3]/(1/3))+([15/65-1/3]/(1/3))]
p905
Vqtluong
p906
tp907
a(V65*(((30-(65/3))/(65/3))^2+((20-(65/3))/(65/3))^2+((15-(65/3))/(65/3))^2)
p908
Vkbielawi
p909
tp910
a(V65(((30/(65-(1/3)))/(1/3))^(2)+((20/(65-(1/3)))/(1/3))^(2)+((15/(65-(1/3)))/(1/3))^(2))
p911
Vlahawkin
p912
tp913
a(V65*((30/65-1/3)/(1/3)+(20/65-1/3)/(1/3)+(15/65-1/3)/(1/3))
p914
Vggaddi
p915
tp916
a(g867
g868
tp917
a(V65*3((30/65-1)^2+(20/65-1)^2+(15/65-1)^2)
p918
Vtak068
p919
tp920
a(g897
g898
tp921
a(g721
g722
tp922
a(g687
g688
tp923
a(V65(((((35/60) - (1/3))/(1/3))^2)+((((20/65) - (1/3))/(1/3))^2)+((((15/65) - (1/3))/(1/3))^2))
p924
Vjmmcalex
p925
tp926
a(g877
g878
tp927
a(g733
g734
tp928
a(g684
g685
tp929
a(g754
g755
tp930
asS"['R.0.1.0.0.0', 'R.1.0.0.0']"
p931
(lp932
(g769
g770
tp933
a(V(((30/65)-(1/2))/(1/2))^2+(((20/65)-(1/4))/(1/4))^2+(((15/65)-(1/4))/(1/4))^2
p934
Vabjara
p935
tp936
a(g775
g776
tp937
asS"['R.1.1']"
p938
(lp939
(g665
g666
tp940
a(g715
g716
tp941
a(g718
g719
tp942
a(g724
g725
tp943
a(g908
g909
tp944
a(g727
g728
tp945
a(g730
g731
tp946
a(g736
g737
tp947
a(g739
g740
tp948
a(g687
g688
tp949
a(g751
g752
tp950
a(g757
g758
tp951
a(g760
g761
tp952
a(V65( (3(30/65 - 1/3))^2 + (3(20/65 - 1/3))^2 + (3(15/65 - 1/3))^2)
p953
Vrbdoming
p954
tp955
a(g924
g925
tp956
a(g877
g878
tp957
a(g651
g652
tp958
a(g700
g701
tp959
a(V(((30/65-(1/3))/(1/3)))^2/3+(((20/65-(1/3))/(1/3)))^2/3+ (((15/65-(1/3))/(1/3)))^2/3
p960
Vbtn023
p961
tp962
a(g660
g661
tp963
a(g673
g674
tp964
a(g676
g677
tp965
a(g679
g680
tp966
a(V65*(((1/3)*(10/(65-1/3))/(1/3)) + ((1/3)*((20/3)/(65-1/3))/(1/3)) +((1/3)*(5/(65-1/3))/(1/3)))^2
p967
Vgsrandha
p968
tp969
a(g856
g857
tp970
a(V[(30/65-1/3)/(1/3)]^2+[(20/65-1/3)/(1/3)]^2+[(15/65-1/3)/(1/3)]^2
p971
Vsghouse
p972
tp973
a(V65*((20/65-1/3)/1/3)^2
p974
Vbkoli
p975
tp976
a(g706
g707
tp977
a(V(((30/65)-(1/3))/(1/3))^2+(((20/65)-(1/3))/(1/3))^2+(((10/65)-(1/3))/(1/3))^2
p978
Vabjara
p979
tp980
a(V(((30/65)-(1/3))/(1/3))^2+(((20/65)-(1/3))/(1/3))^2+(((15/65)-(1/3))/(1/3))^2
p981
Vabjara
p982
tp983
a(g934
g935
tp984
a(V65*( ( (1/3)*( (30/65-(1/3)) / (1/3) ) ) + ( (1/3)*( (20/65-(1/3)) / (1/3) ) ) + ( (1/3)*( (15/65-(1/3)) / (1/3) ) ))^2
p985
Vlcardoso
p986
tp987
a(g880
g881
tp988
a(g775
g776
tp989
a(g709
g710
tp990
a(V([[30/65]-[1/3]]/[1/3])^2+([[20/65]-[1/3]]/[1/3])^2+([[15/65]-[1/3]]/[1/3])^2
p991
Veaherman
p992
tp993
a(V(((30/65-(1/3))/(1/3)))^2+(((20/65-(1/3))/(1/3)))^2+ (((15/65-(1/3))/(1/3)))^2
p994
Vbtn023
p995
tp996
a(V((30/65 - 1/3)/(1/3))^2 + ((20/65 - 1/3)/(1/3))^2 + ((15/65 - 1/3)/(1/3))^2
p997
Vr2fisher
p998
tp999
a(V((30 - 1/3)/(1/3))^2 + ((20 - 1/3)/(1/3))^2 + ((15 - 1/3)/(1/3))^2
p1000
Vr2fisher
p1001
tp1002
a(V(((30/65) - (1/3))/(1/3))^2 + (((20/65) - (1/3))/(1/3))^2 + (((15/65) - (1/3))/(1/3))^2
p1003
Vasrana
p1004
tp1005
a(g670
g671
tp1006
asS"['R.0.1', 'R.1']"
p1007
(lp1008
(g665
g666
tp1009
a(g651
g652
tp1010
a(g660
g661
tp1011
a(g676
g677
tp1012
a(g960
g961
tp1013
a(g679
g680
tp1014
a(V([(30/65) - (1/3)]/[1/3])^2 + ([(20/65) - (1/3)]/[1/3])^2 + ([(15/65) - (1/3)]/[1/3])^2
p1015
Vatorr
p1016
tp1017
a(g769
g770
tp1018
a(g775
g776
tp1019
a(V[ ( (30)/(30+20+15) - (1/3) ) / (1/3) ]**2 + [ ( (20)/(30+20+15) - (1/3) ) / (1/3) ]**2 + [ ( (15)/(30+20+15) - (1/3) ) / (1/3) ]**2
p1020
Vkrkelkar
p1021
tp1022
a(g971
g972
tp1023
a(g981
g982
tp1024
a(g991
g992
tp1025
a(g994
g995
tp1026
a(g997
g998
tp1027
a(g1003
g1004
tp1028
a(g673
g674
tp1029
asS"['R.0.0.1', 'R.0.1', 'R.1']"
p1030
(lp1031
(g665
g666
tp1032
a(g673
g674
tp1033
a(g676
g677
tp1034
a(g679
g680
tp1035
asS"['R.1.0.0.1.0.0', 'R.1.0.1.1.0.0', 'R.1.1.1.0.0']"
p1036
(lp1037
(V65*(((1/3)((((30/65)-(1/3))/(1/3)^2))) + ((1/3)((((20/65)-(1/3))/(1/3)^2))) + ((1/3)((((15/65)-(1/3))/(1/3)^2))))
p1038
Vc1sorian
p1039
tp1040
a(V65*(((30/3)((((30/65)-(30/3))/(30/3)^2))) + ((20/3)((((20/65)-(20/3))/(20/3)^2))) + ((15/3)((((15/65)-(15/3))/(15/3)^2))))
p1041
Vc1sorian
p1042
tp1043
asS"['R.0.0.0']"
p1044
(lp1045
(V((30/(65-(1/3)))/(1/3))^2
p1046
Vmcatozzi
p1047
tp1048
a(V(30+20+15)*[1/3*([30/(30+20+15-1/3)]/(1/3))^2+1/3*([20/(30+20+15-1/3)]/(1/3))^2+1/3*([15/(30+20+15-1/3)]/(1/3))^2]
p1049
Vtjke
p1050
tp1051
asS"['R.1.1.0.1']"
p1052
(lp1053
(V(1/3)((((30/65)-(1/3))/(1/3)^2))
p1054
Vc1sorian
p1055
tp1056
a(g1041
g1042
tp1057
asS"['R.1.0.0.1.0.0.0', 'R.1.0.1.1.0.0.0', 'R.1.1.1.0.0.0']"
p1058
(lp1059
(V65*(((1/2)((30/(65-(65/2)))/(1/2))^2) + ((1/4)((20/(65-(65/4)))/(1/4))^2) + ((1/4)((15/(65-(65/4)))/(1/4))^2) )
p1060
Vasetters
p1061
tp1062
a(V65*[(1/3)*[(30/(65-(1/3)))/(1/3)]^2 + (1/3)*[(20/(65-(1/3)))/(1/3)]^2 + (1/3)*[(15/(65-(1/3)))/(1/3)]^2]
p1063
Vtol003
p1064
tp1065
a(V65((1/3)(((30)/(65-(1/3))/(1/3))**2)+((1/3)(((20)/(65-(1/3))/(1/3))**2))+(((1/3)(((15)/(65-(1/3))/(1/3))**2))))
p1066
Vlalacson
p1067
tp1068
a(g1038
g1039
tp1069
a(V65*(((1/3)((30(65 - (1/3)))/(1/3))^2) + ((1/3)((20(65 - (1/3)))/(1/3))^2) + ((1/3)((15(65 - (1/3)))/(1/3))^2))
p1070
Vanl114
p1071
tp1072
a(V65*(((1/3)((30/(65 - (1/3)))/(1/3))^2) + ((1/3)((20/(65 - (1/3)))/(1/3))^2) + ((1/3)((15/(65 - (1/3)))/(1/3))^2))
p1073
Vanl114
p1074
tp1075
a(V65*(((65/3)*((30/(65/2))/(65-(65/3)))^2)+((65/3)*((20/(65-(65/3)))/(65/3))^2)+((65/3)*((15/(65-(65/3)))/(65/3))^2))
p1076
Vachinn
p1077
tp1078
asS"['R.1.1.0.0']"
p1079
(lp1080
(V1/20 * ((25 - 20)^2 + (20 - 20)^2 + (15 - 20)^2)
p1081
Vquwong
p1082
tp1083
a(V65*((30/(65-1/2))/(1/2)+(20/(65-1/4))/(1/4)+(15/(65-1/4))/(1/4))
p1084
Vggaddi
p1085
tp1086
a(g1041
g1042
tp1087
a(V3((30-1)^2+(20-1)^2+(15-1)^2)
p1088
Vtak068
p1089
tp1090
a(V65*3((30/65)^2+(20/65)^2+(15/65)^2)
p1091
Vtak068
p1092
tp1093
a(g654
g655
tp1094
a(g721
g722
tp1095
a(g733
g734
tp1096
a(g754
g755
tp1097
a(g1054
g1055
tp1098
a(g886
g887
tp1099
a(g864
g865
tp1100
a(g889
g890
tp1101
asS"['R.1']"
p1102
(lp1103
(V65*(1/3*(((30/65)-1/3)/(1/3))^2)*1/3*((((20/65)-1/3)/(1/3))^2)*1/3*((((15/65)-1/3)/(1/3))^2)
p1104
Vsippolit
p1105
tp1106
a(g1015
g1016
tp1107
a(g769
g770
tp1108
a(g1020
g1021
tp1109
a(g971
g972
tp1110
a(g981
g982
tp1111
a(g775
g776
tp1112
a(g991
g992
tp1113
a(g994
g995
tp1114
a(g997
g998
tp1115
a(g1003
g1004
tp1116
a(V65(1/3)(29^2+19^2+14^2)
p1117
Vtcuddy
p1118
tp1119
a(g1088
g1089
tp1120
a(V(((30/65)-(1/3))/(1/3))^2
p1121
Vjtfrankl
p1122
tp1123
a(g1046
g1047
tp1124
a(V65*(((.33*30/65-.33)/.33)^2+((.33*20/65-.33)/.33)^2+((.33*15/65-.33)/.33)^2)
p1125
Vkrau
p1126
tp1127
a(g918
g919
tp1128
a(g706
g707
tp1129
a(g880
g881
tp1130
a(V55/13
p1131
Vjix029
p1132
tp1133
a(V210/13
p1134
Vjix029
p1135
tp1136
asS"['R.1.0.0.0.0.0.0']"
p1137
(lp1138
(g687
g688
tp1139
a(V65(((30/65 - 0.5)/.5)^2 * 0.33 + ((20/65 - .25)/.25)^2 * .33 + ((15/65-.25)/.25)^2 * .33)
p1140
Vstarinia
p1141
tp1142
asS"['R.0.0.0.0.0']"
p1143
(lp1144
(V(30 - 60/3)^2/(60/3) + (20 - 60/3)^2/(60/3) + (15 - 60/3)^2/(60/3)
p1145
Vquwong
p1146
tp1147
a(V((30-65*(1/3))^2)/(65*(1/3))+(20-65*(1/3)^2)/(65*(1/3))+(15-65*(1/3)^2)/(65*(1/3))
p1148
Vajabasa
p1149
tp1150
a(g692
g693
tp1151
a(V((30/(65-(1/3)))/(1/3))^2 + ((20/(65-(1/3)))/(1/3))^2 + ((15/(65-(1/3)))/(1/3))^2
p1152
Vmcatozzi
p1153
tp1154
a(g856
g857
tp1155
a(V(30-32.5)^2/32.5+(20-16.22)^2/16.22+(15-16.22)^2/16.22
p1156
Vsmall
p1157
tp1158
a(g1000
g1001
tp1159
asS"['R.1.1.0']"
p1160
(lp1161
(V65*(((1/3)*(10/(65-1/3))/(1/3)) + ((1/3)*((20/3)/(65-1/3))/(1/3)) +((1/3)*(5/(65-1/3))/(1/3)))
p1162
Vgsrandha
p1163
tp1164
a(V65*(((1/3)*((10/(65-1/3))/(1/3))^2) + ((1/3)*(((20/3)/(65-1/3))^2)/(1/3)) +((1/3)*(5/(65-1/3))/(1/3)))
p1165
Vgsrandha
p1166
tp1167
a(g1054
g1055
tp1168
a(g1038
g1039
tp1169
a(V[65*((1/3)*((30/65-(1/3))/(1/3))^2)]+[65*((1/3)*((30/65-(1/3))/(1/3))^2)]+[65*((1/3)*((30/65-(1/3))/(1/3))^2)]
p1170
Vk4ma
p1171
tp1172
a(g1070
g1071
tp1173
a(g1073
g1074
tp1174
a(g1049
g1050
tp1175
asS"['R.0.0.0.0.0.0', 'R.0.1.0.0.0.0']"
p1176
(lp1177
(V([(30/56) - (1/3)]/[1/3])^2 + ([(20/56) - (1/3)]/[1/3])^2 + ([(15/56) - (1/3)]/[1/3])^2
p1178
Vatorr
p1179
tp1180
a(g978
g979
tp1181
asS"['R.1.0.0.0.0.0.0', 'R.1.0.1', 'R.1.1']"
p1182
(lp1183
(g924
g925
tp1184
a(g877
g878
tp1185
asS"['R.0.1.0.0.0.0', 'R.1.0.0.0.0']"
p1186
(lp1187
(V((25/60-(1/3))/(1/3))^2+((20/60-(1/3))/(1/3))^2+((15/60-(1/3))/(1/3))^2
p1188
Vmitopete
p1189
tp1190
a(g1178
g1179
tp1191
a(g1015
g1016
tp1192
a(g769
g770
tp1193
a(g1020
g1021
tp1194
a(g971
g972
tp1195
a(g981
g982
tp1196
a(g934
g935
tp1197
a(g775
g776
tp1198
a(g991
g992
tp1199
a(g994
g995
tp1200
a(g997
g998
tp1201
a(g1003
g1004
tp1202
a(V( ( 25/60 - 20 ) / 20 )^2 + ( ( 20/60 - 20 ) / 20 )^2 + ( ( 15/60 - 20 ) / 20 )^2
p1203
Vany027
p1204
tp1205
asS"['R.0.0.0.0.0.0.1.1.0.0', 'R.0.0.0.1.0.0', 'R.1.0.0']"
p1206
(lp1207
(V65*(1/3*(((30/65)-1/3)/2)^2)*1/3*((((20/65)-1/3)/2)^2)*1/3*((((15/65)-1/3)/2)^2)
p1208
Vsippolit
p1209
tp1210
a(g1104
g1105
tp1211
asS"['R.1.0.1.0', 'R.1.1.0']"
p1212
(lp1213
(g1162
g1163
tp1214
a(V65*(((1/3)*((10/(65-1/3))/(1/3))^2) + ((1/3)*((20/3)/(65-1/3))/(1/3)) +((1/3)*(5/(65-1/3))/(1/3)))
p1215
Vgsrandha
p1216
tp1217
asS"['R.1.0.0.0.0.1']"
p1218
(lp1219
(g721
g722
tp1220
a(g1140
g1141
tp1221
a(g733
g734
tp1222
a(g974
g975
tp1223
a(g960
g961
tp1224
a(g703
g704
tp1225
a(g754
g755
tp1226
asS"['R.1.1.1']"
p1227
(lp1228
(g1054
g1055
tp1229
a(g867
g868
tp1230
a(g848
g849
tp1231
a(g751
g752
tp1232
a(g754
g755
tp1233
a(g757
g758
tp1234
a(g660
g661
tp1235
a(g1088
g1089
tp1236
a(g1091
g1092
tp1237
a(g918
g919
tp1238
a(g870
g871
tp1239
a(g760
g761
tp1240
a(g670
g671
tp1241
a(g673
g674
tp1242
a(g873
g874
tp1243
a(V3((65/3)(((65/3)/(65-1/3))/(1/3))^2)
p1244
Vyjshin
p1245
tp1246
a(V3((65/3)(((65/3)/(65)-1/3)/(1/3))^2)
p1247
Vyjshin
p1248
tp1249
a(g953
g954
tp1250
a(g676
g677
tp1251
a(V65*((1/3)((30)/(65-(1/3)))/(1.3))^2 + 65*((1/3)((30)/(65-(1/3)))/(1.3))^2 + 65*((1/3)((30)/(65-(1/3)))/(1.3))^2
p1252
Vb3hwang
p1253
tp1254
a(V65*(((1/3)((30)/(65-(1/3)))/(1.3))^2 + ((1/3)((30)/(65-(1/3)))/(1.3))^2 + ((1/3)((30)/(65-(1/3)))/(1.3))^2)
p1255
Vb3hwang
p1256
tp1257
a(g679
g680
tp1258
a(g883
g884
tp1259
a(g897
g898
tp1260
a(g924
g925
tp1261
a(g877
g878
tp1262
asS"['R.0.1.0.0.1.1']"
p1263
(lp1264
(g934
g935
tp1265
a(g695
g696
tp1266
asS"['R.0.0', 'R.1.0.0.0.0.0.0', 'R.1.1.0.0.0.0']"
p1267
(lp1268
(g643
g644
tp1269
a(g763
g764
tp1270
asS"['R.0.0.1.0.0', 'R.0.1.1.0.0.0', 'R.1.1.0.0.0']"
p1271
(lp1272
(V(((1/2)((30/(65-(65/2)))/(1/2))^2) + ((1/4)((20/(65-(65/4)))/(1/4))^2) + ((1/4)((15/(65-(65/4)))/(1/4))^2) )
p1273
Vasetters
p1274
tp1275
a(V((65/3)*((30/(65/2))/(65-(65/3)))^2)+((65/3)*((20/(65-(65/3)))/(65/3))^2)+((65/3)*((15/(65-(65/3)))/(65/3))^2)
p1276
Vachinn
p1277
tp1278
asS"['R.0.0', 'R.1.0.0.0.0.0.0', 'R.1.0.1.0.0.0.0', 'R.1.1.0.0.0.0']"
p1279
(lp1280
(g646
g647
tp1281
a(g763
g764
tp1282
a(g684
g685
tp1283
asS"['R.1.0.1.0.1.0.0']"
p1284
(lp1285
(g1162
g1163
tp1286
a(g953
g954
tp1287
a(V65*(((1/3)*(10/(65-1/3))/(1/3)^2) + ((1/3)*((20/3)/(65-1/3))/(1/3)) +((1/3)*(5/(65-1/3))/(1/3)))
p1288
Vgsrandha
p1289
tp1290
a(g1215
g1216
tp1291
asS"['R.0.0.1', 'R.0.1.1', 'R.1.1']"
p1292
(lp1293
(g665
g666
tp1294
a(g670
g671
tp1295
a(g673
g674
tp1296
a(g676
g677
tp1297
a(g679
g680
tp1298
asS"['R.0.0.0.1.0']"
p1299
(lp1300
(g1104
g1105
tp1301
a(g815
g816
tp1302
a(g836
g837
tp1303
asS"['R.0.0', 'R.0.1.0.0.0', 'R.1']"
p1304
(lp1305
(g695
g696
tp1306
a(V((30-65/3)^2)/(65/3) + ((20-65/3)^3)/(65/3) + ((15-65/3)^2)/(65/3)
p1307
Vjhw015
p1308
tp1309
asS"['R.1.0', 'R.1.1']"
p1310
(lp1311
(g905
g906
tp1312
a(g1038
g1039
tp1313
a(g914
g915
tp1314
asS"['R.1.0.0.1.1']"
p1315
(lp1316
(g1288
g1289
tp1317
a(g1084
g1085
tp1318
a(g1215
g1216
tp1319
asS"['R.0.0', 'R.1.0.1.0.0.0.0', 'R.1.1.0.0.0.0']"
p1320
(lp1321
(g763
g764
tp1322
a(g687
g688
tp1323
asS"['R.0.0.1.0.0.0.0', 'R.0.1.1.0.0.0.0', 'R.1.1.0.0.0.0']"
p1324
(lp1325
(g665
g666
tp1326
a(g844
g845
tp1327
a(g654
g655
tp1328
a(g657
g658
tp1329
a(g670
g671
tp1330
a(g673
g674
tp1331
a(g676
g677
tp1332
a(g679
g680
tp1333
asS"['R.1.1.0.0.0.0']"
p1334
(lp1335
(g812
g813
tp1336
a(g643
g644
tp1337
a(g646
g647
tp1338
a(g715
g716
tp1339
a(g718
g719
tp1340
a(g721
g722
tp1341
a(g724
g725
tp1342
a(g727
g728
tp1343
a(g730
g731
tp1344
a(g733
g734
tp1345
a(g736
g737
tp1346
a(g739
g740
tp1347
a(g742
g743
tp1348
a(g763
g764
tp1349
a(g745
g746
tp1350
a(g748
g749
tp1351
a(g684
g685
tp1352
a(g687
g688
tp1353
a(g751
g752
tp1354
a(g754
g755
tp1355
a(g757
g758
tp1356
a(g760
g761
tp1357
a(g924
g925
tp1358
a(g877
g878
tp1359
a(V60 * ( ((25/60-.33)^2)/.33 + ((20/60-.33)^2)/.33 + ((15/60-.33)^2)/.33 )
p1360
Vedescobe
p1361
tp1362
a(g665
g666
tp1363
a(g651
g652
tp1364
a(g654
g655
tp1365
a(g844
g845
tp1366
a(g657
g658
tp1367
a(g660
g661
tp1368
a(g670
g671
tp1369
a(g673
g674
tp1370
a(g676
g677
tp1371
a(g679
g680
tp1372
a(g839
g840
tp1373
asS"['R.1.0.0.0.0.0', 'R.1.0.1.0.0.0', 'R.1.1.0.0.0.0']"
p1374
(lp1375
(g742
g743
tp1376
a(g763
g764
tp1377
a(g745
g746
tp1378
a(g748
g749
tp1379
asS"['R.0.0.0.0.0', 'R.0.1.0.0.0', 'R.1.0.0.0']"
p1380
(lp1381
(g692
g693
tp1382
a(g1152
g1153
tp1383
a(g1307
g1308
tp1384
a(g1000
g1001
tp1385
a(g856
g857
tp1386
a(g695
g696
tp1387
a(g1156
g1157
tp1388
a(g1015
g1016
tp1389
a(g934
g935
tp1390
a(g1020
g1021
tp1391
a(g971
g972
tp1392
a(g981
g982
tp1393
a(g991
g992
tp1394
a(g994
g995
tp1395
a(g997
g998
tp1396
a(g1003
g1004
tp1397
asS"['R.0', 'R.1.1.0.0.0.0']"
p1398
(lp1399
(g643
g644
tp1400
a(g687
g688
tp1401
asS"['R.0.1.0.0.0']"
p1402
(lp1403
(g692
g693
tp1404
a(V((10/(64/3))/(1/3))^2 + (((20/3)/(64/3))/(1/3)) + ((5/(64/3))/(1/3))
p1405
Vjhw015
p1406
tp1407
a(g1152
g1153
tp1408
a(g856
g857
tp1409
a(g695
g696
tp1410
a(g1307
g1308
tp1411
a(g1156
g1157
tp1412
a(g1000
g1001
tp1413
asS"['R.1.0.0.0']"
p1414
(lp1415
(V(25 - 20)^2/20 + (20 - 20)^2/20 + (15 - 20)^2/20
p1416
Vquwong
p1417
tp1418
a(g692
g693
tp1419
a(g1152
g1153
tp1420
a(g856
g857
tp1421
a(g695
g696
tp1422
a(g1307
g1308
tp1423
a(g1156
g1157
tp1424
a(g1000
g1001
tp1425
a(g1208
g1209
tp1426
a(g934
g935
tp1427
a(g1104
g1105
tp1428
a(g905
g906
tp1429
a(g985
g986
tp1430
a(g914
g915
tp1431
a(g867
g868
tp1432
a(g974
g975
tp1433
a(g703
g704
tp1434
a(g706
g707
tp1435
a(g1091
g1092
tp1436
a(g880
g881
tp1437
asS"['R.1.0.0.1']"
p1438
(lp1439
(g706
g707
tp1440
a(g960
g961
tp1441
asS"['R.1.0', 'R.1.1.0.0']"
p1442
(lp1443
(g721
g722
tp1444
a(g733
g734
tp1445
a(g754
g755
tp1446
a(g867
g868
tp1447
a(g897
g898
tp1448
asS"['R.1.0.1', 'R.1.1']"
p1449
(lp1450
(g715
g716
tp1451
a(g924
g925
tp1452
a(g877
g878
tp1453
a(g718
g719
tp1454
a(g724
g725
tp1455
a(g908
g909
tp1456
a(g687
g688
tp1457
a(g727
g728
tp1458
a(g730
g731
tp1459
a(g736
g737
tp1460
a(g739
g740
tp1461
a(g751
g752
tp1462
a(g757
g758
tp1463
a(g760
g761
tp1464
a(g953
g954
tp1465
asS"['R.0']"
p1466
(lp1467
(V55*.24
p1468
Vzhen_student
p1469
tp1470
a(g1131
g1132
tp1471
a(g700
g701
tp1472
a(V65(((30/65 - (1/3))/(1/3))^2 + ((30/65 - (1/3))/(1/3))^2 + ((30/65 - (1/3))/(1/3))^2)
p1473
Vpcdo
p1474
tp1475
a(g715
g716
tp1476
a(g905
g906
tp1477
a(g718
g719
tp1478
a(g1060
g1061
tp1479
a(g861
g862
tp1480
a(g721
g722
tp1481
a(g724
g725
tp1482
a(g908
g909
tp1483
a(g1063
g1064
tp1484
a(g727
g728
tp1485
a(g1125
g1126
tp1486
a(V65*(((.33*(30/65-.33))/.33)^2+((.33*(20/65-.33))/.33)^2+((.33*(15/65-.33))/.33)^2)
p1487
Vkrau
p1488
tp1489
a(g911
g912
tp1490
a(g730
g731
tp1491
a(g733
g734
tp1492
a(g1066
g1067
tp1493
a(g1162
g1163
tp1494
a(g1288
g1289
tp1495
a(g967
g968
tp1496
a(g1215
g1216
tp1497
a(g1165
g1166
tp1498
a(g736
g737
tp1499
a(g1084
g1085
tp1500
a(g914
g915
tp1501
a(g739
g740
tp1502
a(g745
g746
tp1503
a(g748
g749
tp1504
a(g894
g895
tp1505
a(g1076
g1077
tp1506
a(g1038
g1039
tp1507
a(g1041
g1042
tp1508
a(g974
g975
tp1509
a(g751
g752
tp1510
a(g754
g755
tp1511
a(g757
g758
tp1512
a(g985
g986
tp1513
a(g870
g871
tp1514
a(g760
g761
tp1515
a(g873
g874
tp1516
a(g953
g954
tp1517
a(g1255
g1256
tp1518
a(g1140
g1141
tp1519
a(g1070
g1071
tp1520
a(g1073
g1074
tp1521
a(g1049
g1050
tp1522
a(g883
g884
tp1523
a(g886
g887
tp1524
a(g864
g865
tp1525
a(g889
g890
tp1526
a(g897
g898
tp1527
a(g924
g925
tp1528
a(g877
g878
tp1529
a(g1117
g1118
tp1530
a(g643
g644
tp1531
a(g646
g647
tp1532
a(g684
g685
tp1533
a(g687
g688
tp1534
a(g706
g707
tp1535
a(g709
g710
tp1536
a(g1015
g1016
tp1537
a(g978
g979
tp1538
a(g1020
g1021
tp1539
a(g703
g704
tp1540
a(g971
g972
tp1541
a(g867
g868
tp1542
a(g1091
g1092
tp1543
a(g981
g982
tp1544
a(g991
g992
tp1545
a(g994
g995
tp1546
a(g997
g998
tp1547
a(g1003
g1004
tp1548
a(g1088
g1089
tp1549
a(V3*(((1/3-1/3)^(2)/(1/3))+((1/3-1/3)^(2)/(1/3))+((1/3-1/3)^(2)/(1/3)))
p1550
Vskarimik
p1551
tp1552
a(g1244
g1245
tp1553
a(g1247
g1248
tp1554
a(g918
g919
tp1555
asS"['R.1.0.0']"
p1556
(lp1557
(g1416
g1417
tp1558
a(g1145
g1146
tp1559
a(g1208
g1209
tp1560
a(g1015
g1016
tp1561
a(g769
g770
tp1562
a(g1020
g1021
tp1563
a(g971
g972
tp1564
a(g981
g982
tp1565
a(g775
g776
tp1566
a(g991
g992
tp1567
a(g994
g995
tp1568
a(g997
g998
tp1569
a(g1003
g1004
tp1570
a(g861
g862
tp1571
a(g886
g887
tp1572
a(g894
g895
tp1573
a(g867
g868
tp1574
a(g883
g884
tp1575
a(g864
g865
tp1576
asS"['R.1.0.0', 'R.1.0.1']"
p1577
(lp1578
(g861
g862
tp1579
a(g883
g884
tp1580
a(g889
g890
tp1581
a(g886
g887
tp1582
asS"['R.0.1.1', 'R.1.1']"
p1583
(lp1584
(g651
g652
tp1585
a(g670
g671
tp1586
a(g660
g661
tp1587
asS"['R']"
p1588
(lp1589
(g1081
g1082
tp1590
a(g902
g903
tp1591
a(V2.5
p1592
Vrlhagen
p1593
tp1594
a(g1416
g1417
tp1595
a(V2.5
p1596
Vquwong
p1597
tp1598
a(V2.5
p1599
Vedescobe
p1600
tp1601
a(V1.5
p1602
Vrlhagen
p1603
tp1604
a(V1.5
p1605
Vc1sorian
p1606
tp1607
a(g812
g813
tp1608
a(g839
g840
tp1609
a(g1203
g1204
tp1610
a(V25/4
p1611
Vrlhagen
p1612
tp1613
a(g1145
g1146
tp1614
a(g665
g666
tp1615
a(g676
g677
tp1616
a(g960
g961
tp1617
a(g679
g680
tp1618
a(g651
g652
tp1619
a(g660
g661
tp1620
a(g673
g674
tp1621
a(g815
g816
tp1622
a(g692
g693
tp1623
a(V1.153846
p1624
Vtwsalim
p1625
tp1626
a(g772
g773
tp1627
a(g836
g837
tp1628
a(g715
g716
tp1629
a(g718
g719
tp1630
a(g724
g725
tp1631
a(g908
g909
tp1632
a(g727
g728
tp1633
a(g730
g731
tp1634
a(g736
g737
tp1635
a(g739
g740
tp1636
a(g751
g752
tp1637
a(g757
g758
tp1638
a(g1134
g1135
tp1639
a(g760
g761
tp1640
a(g670
g671
tp1641
a(g953
g954
tp1642
a(g905
g906
tp1643
a(g914
g915
tp1644
a(g861
g862
tp1645
a(g889
g890
tp1646
a(g721
g722
tp1647
a(g754
g755
tp1648
a(g1131
g1132
tp1649
a(g1063
g1064
tp1650
a(g1066
g1067
tp1651
a(V71.1121
p1652
Vdsmonaha
p1653
tp1654
a(g1073
g1074
tp1655
a(g1049
g1050
tp1656
a(g1015
g1016
tp1657
a(g1020
g1021
tp1658
a(g971
g972
tp1659
a(g981
g982
tp1660
a(g991
g992
tp1661
a(g994
g995
tp1662
a(g997
g998
tp1663
a(g1003
g1004
tp1664
a(g769
g770
tp1665
a(g775
g776
tp1666
a(V(30-65/3)^2/(65/3)+(30-65/3)^2/(65/3)+(30-65/3)^2/(65/3)
p1667
Vxweng
p1668
tp1669
a(g848
g849
tp1670
a(g1170
g1171
tp1671
a(g978
g979
tp1672
a(g880
g881
tp1673
a(g934
g935
tp1674
a(V11/169
p1675
Vjix029
p1676
tp1677
a(g870
g871
tp1678
a(g873
g874
tp1679
a(g897
g898
tp1680
a(g1244
g1245
tp1681
a(g827
g828
tp1682
a(g830
g831
tp1683
a(g833
g834
tp1684
a(g1252
g1253
tp1685
a(g1255
g1256
tp1686
a(g883
g884
tp1687
asS"['R.0.0.0.0.0.0', 'R.0.1.0.0.0.0', 'R.1.0.0.0.0']"
p1688
(lp1689
(g1178
g1179
tp1690
a(g1015
g1016
tp1691
a(g1020
g1021
tp1692
a(g971
g972
tp1693
a(g981
g982
tp1694
a(g934
g935
tp1695
a(g991
g992
tp1696
a(g994
g995
tp1697
a(g997
g998
tp1698
a(g1003
g1004
tp1699
asS"['R.1.0.0.0.0']"
p1700
(lp1701
(g1188
g1189
tp1702
a(g1208
g1209
tp1703
a(g1104
g1105
tp1704
a(g1203
g1204
tp1705
a(g1178
g1179
tp1706
a(g1084
g1085
tp1707
a(g706
g707
tp1708
a(g880
g881
tp1709
a(g1088
g1089
tp1710
asS"['R.1.0.0.0.1']"
p1711
(lp1712
(g894
g895
tp1713
a(g985
g986
tp1714
a(g870
g871
tp1715
a(g873
g874
tp1716
asS"['R.0', 'R.1.0.0.0.0.0.0', 'R.1.1.0.0.0.0']"
p1717
(lp1718
(g643
g644
tp1719
a(g684
g685
tp1720
asS"['R.1.0.0.0.0.0.0', 'R.1.1.0.0.0.0']"
p1721
(lp1722
(g643
g644
tp1723
a(g715
g716
tp1724
a(g718
g719
tp1725
a(g721
g722
tp1726
a(g724
g725
tp1727
a(g727
g728
tp1728
a(g730
g731
tp1729
a(g733
g734
tp1730
a(g736
g737
tp1731
a(g739
g740
tp1732
a(g742
g743
tp1733
a(g745
g746
tp1734
a(g748
g749
tp1735
a(g751
g752
tp1736
a(g754
g755
tp1737
a(g757
g758
tp1738
a(g760
g761
tp1739
asS"['R.1.0.0.0.0', 'R.1.0.1.0.0', 'R.1.1.0.0']"
p1740
(lp1741
(g905
g906
tp1742
a(g918
g919
tp1743
a(g1084
g1085
tp1744
a(g1041
g1042
tp1745
a(g1088
g1089
tp1746
a(g1091
g1092
tp1747
a(g914
g915
tp1748
a(g897
g898
tp1749
asS"['R.1.0.0.1.0.0', 'R.1.0.1.1.0.0.0', 'R.1.1.1.0.0.0']"
p1750
(lp1751
(g1060
g1061
tp1752
a(g1076
g1077
tp1753
asS"['R.0.0', 'R.0.1.0.0.0', 'R.1.0.0.0']"
p1754
(lp1755
(g692
g693
tp1756
a(g1156
g1157
tp1757
asS"['R.1.0.0.0.0.0', 'R.1.0.1.0.0.0', 'R.1.1.0.0.0']"
p1758
(lp1759
(g715
g716
tp1760
a(g721
g722
tp1761
a(g733
g734
tp1762
a(g684
g685
tp1763
a(g754
g755
tp1764
a(g905
g906
tp1765
a(g908
g909
tp1766
a(g911
g912
tp1767
a(g718
g719
tp1768
a(g724
g725
tp1769
a(g727
g728
tp1770
a(g730
g731
tp1771
a(g736
g737
tp1772
a(g739
g740
tp1773
a(g751
g752
tp1774
a(g757
g758
tp1775
a(g760
g761
tp1776
a(g914
g915
tp1777
a(g867
g868
tp1778
a(g918
g919
tp1779
a(g897
g898
tp1780
asS"['R.0', 'R.1.0.0.0.0.0', 'R.1.0.1.0.0.0', 'R.1.1.0.0.0.0']"
p1781
(lp1782
(g745
g746
tp1783
a(g748
g749
tp1784
asS"['R.0.1.1.0.0.0.0', 'R.1.1.0.0.0.0']"
p1785
(lp1786
(g812
g813
tp1787
a(g665
g666
tp1788
a(g651
g652
tp1789
a(g654
g655
tp1790
a(g844
g845
tp1791
a(g657
g658
tp1792
a(g660
g661
tp1793
a(g670
g671
tp1794
a(g673
g674
tp1795
a(g676
g677
tp1796
a(g679
g680
tp1797
a(g839
g840
tp1798
asS"['R.0.0.1.0.0.0.0']"
p1799
(lp1800
(g844
g845
tp1801
a(g769
g770
tp1802
a(g775
g776
tp1803
asS"['R.1.0.0.0', 'R.1.0.1.0', 'R.1.1.0.0']"
p1804
(lp1805
(g905
g906
tp1806
a(g867
g868
tp1807
a(g914
g915
tp1808
asS"['R.1.0.1.0.0.0.0', 'R.1.1.0.0.0.0']"
p1809
(lp1810
(g1360
g1361
tp1811
a(g646
g647
tp1812
a(g715
g716
tp1813
a(g718
g719
tp1814
a(g721
g722
tp1815
a(g724
g725
tp1816
a(g727
g728
tp1817
a(g730
g731
tp1818
a(g733
g734
tp1819
a(g736
g737
tp1820
a(g739
g740
tp1821
a(g742
g743
tp1822
a(g763
g764
tp1823
a(g745
g746
tp1824
a(g748
g749
tp1825
a(g684
g685
tp1826
a(g687
g688
tp1827
a(g751
g752
tp1828
a(g754
g755
tp1829
a(g757
g758
tp1830
a(g760
g761
tp1831
a(g924
g925
tp1832
a(g877
g878
tp1833
asS"['R.1.0.0.0', 'R.1.0.1.0', 'R.1.1.0']"
p1834
(lp1835
(g905
g906
tp1836
a(g870
g871
tp1837
a(g873
g874
tp1838
a(g897
g898
tp1839
a(g1162
g1163
tp1840
a(g1288
g1289
tp1841
a(g914
g915
tp1842
asS"['R.0.0.0.0.0', 'R.0.1.0.0.0']"
p1843
(lp1844
(g978
g979
tp1845
a(g934
g935
tp1846
asS"['R.0.0.0.0.0', 'R.1.0.0.0']"
p1847
(lp1848
(g1188
g1189
tp1849
a(g1203
g1204
tp1850
a(g1145
g1146
tp1851
a(g692
g693
tp1852
a(g1152
g1153
tp1853
a(g856
g857
tp1854
a(g695
g696
tp1855
a(g1307
g1308
tp1856
a(g1156
g1157
tp1857
a(g1000
g1001
tp1858
asS"['R.1.0.1.0.1.1']"
p1859
(lp1860
(g1162
g1163
tp1861
a(g967
g968
tp1862
a(g1288
g1289
tp1863
asS"['R.1.0.0', 'R.1.1.0']"
p1864
(lp1865
(g1215
g1216
tp1866
a(g1165
g1166
tp1867
asS"['R.1.0.0.0.1', 'R.1.1']"
p1868
(lp1869
(g706
g707
tp1870
a(g978
g979
tp1871
a(g981
g982
tp1872
a(g934
g935
tp1873
a(g991
g992
tp1874
a(g994
g995
tp1875
a(g997
g998
tp1876
a(g1003
g1004
tp1877
asS"['R.0.0.1.0.0.0']"
p1878
(lp1879
(g654
g655
tp1880
a(g769
g770
tp1881
a(g775
g776
tp1882
a(g657
g658
tp1883
asS"['R.0', 'R.1.0.1.0.0.0.0', 'R.1.1.0.0.0.0']"
p1884
(lp1885
(g646
g647
tp1886
a(g687
g688
tp1887
a(g745
g746
tp1888
a(g924
g925
tp1889
a(g877
g878
tp1890
a(g748
g749
tp1891
asS"['R.0.0']"
p1892
(lp1893
(g1081
g1082
tp1894
a(g1054
g1055
tp1895
a(g651
g652
tp1896
a(g802
g803
tp1897
a(g695
g696
tp1898
a(g1307
g1308
tp1899
a(g1148
g1149
tp1900
a(g1117
g1118
tp1901
a(g763
g764
tp1902
a(g1091
g1092
tp1903
a(g918
g919
tp1904
a(g643
g644
tp1905
a(g646
g647
tp1906
a(g769
g770
tp1907
a(g670
g671
tp1908
a(g706
g707
tp1909
a(g709
g710
tp1910
a(g660
g661
tp1911
a(g673
g674
tp1912
a(g775
g776
tp1913
a(g772
g773
tp1914
a(g1156
g1157
tp1915
asS"['R.0.0.0.1.0.0', 'R.0.0.1.1.0.0', 'R.0.1.1.0.0']"
p1916
(lp1917
(g821
g822
tp1918
a(g827
g828
tp1919
a(g830
g831
tp1920
a(g833
g834
tp1921
asS"['R.1.0.0.1.1', 'R.1.1.0']"
p1922
(lp1923
(g1288
g1289
tp1924
a(g1165
g1166
tp1925
asS"['R.0.1.1']"
p1926
(lp1927
(g1188
g1189
tp1928
a(V((65/3)((((30/65)-(1/3))/(1/3))^2))+5
p1929
Vc1sorian
p1930
tp1931
a(g1203
g1204
tp1932
a(g665
g666
tp1933
a(g815
g816
tp1934
a(g836
g837
tp1935
a(g651
g652
tp1936
a(g660
g661
tp1937
a(g670
g671
tp1938
a(g673
g674
tp1939
a(g676
g677
tp1940
a(g679
g680
tp1941
a(g1152
g1153
tp1942
a(g1178
g1179
tp1943
a(g1015
g1016
tp1944
a(g1020
g1021
tp1945
a(g971
g972
tp1946
asS"['R.0.1']"
p1947
(lp1948
(g1117
g1118
tp1949
a(g1121
g1122
tp1950
a(g1046
g1047
tp1951
a(g769
g770
tp1952
a(g978
g979
tp1953
a(V42*65/676
p1954
Vkosung
p1955
tp1956
a(V(3/65)*((625/9) + 25 + (400/9))
p1957
Vpnquach
p1958
tp1959
a(g684
g685
tp1960
a(g1054
g1055
tp1961
a(g1091
g1092
tp1962
a(g918
g919
tp1963
a(g775
g776
tp1964
a(g709
g710
tp1965
asS"['R.0.1.0.0.0.0']"
p1966
(lp1967
(g1188
g1189
tp1968
a(g978
g979
tp1969
a(g1203
g1204
tp1970
asS"['R.0.1.0.0']"
p1971
(lp1972
(V65((30/(65-(1/3)))/(1/3))+((20/(65-(1/3)))/(1/3))+((25/(65-(1/3)))/(1/3))
p1973
Vlahawkin
p1974
tp1975
a(g1148
g1149
tp1976
asS"['R.1.0.0.1.1', 'R.1.0.1.0', 'R.1.1.0']"
p1977
(lp1978
(g1288
g1289
tp1979
a(g1215
g1216
tp1980
asS"['R.1.0.1.0.1.0.0.0']"
p1981
(lp1982
(g1165
g1166
tp1983
a(g894
g895
tp1984
a(g870
g871
tp1985
a(g873
g874
tp1986
asS"['R.1.0.0.0', 'R.1.1.0']"
p1987
(lp1988
(g905
g906
tp1989
a(g894
g895
tp1990
a(g914
g915
tp1991
asS"['R.0', 'R.1.0.0.0.0', 'R.1.0.1.0.0', 'R.1.1.0.0']"
p1992
(lp1993
(g867
g868
tp1994
a(g918
g919
tp1995
asS"['R.0.0.0.1.0.0.0', 'R.0.0.1.1.0.0.0', 'R.0.1.1.0.0.0']"
p1996
(lp1997
(g815
g816
tp1998
a(g818
g819
tp1999
a(g821
g822
tp2000
a(g824
g825
tp2001
a(g836
g837
tp2002
asS"['R.1.0.0', 'R.1.0.1.0.1.0.0', 'R.1.1']"
p2003
(lp2004
(g894
g895
tp2005
a(g870
g871
tp2006
a(g873
g874
tp2007
asS"['R.1.1.0.0.0']"
p2008
(lp2009
(g902
g903
tp2010
a(g1273
g1274
tp2011
a(g1276
g1277
tp2012
a(g812
g813
tp2013
a(g1360
g1361
tp2014
a(g839
g840
tp2015
a(g665
g666
tp2016
a(g721
g722
tp2017
a(g733
g734
tp2018
a(g684
g685
tp2019
a(g754
g755
tp2020
a(g651
g652
tp2021
a(g654
g655
tp2022
a(g715
g716
tp2023
a(g718
g719
tp2024
a(g724
g725
tp2025
a(g727
g728
tp2026
a(g730
g731
tp2027
a(g736
g737
tp2028
a(g739
g740
tp2029
a(g687
g688
tp2030
a(g751
g752
tp2031
a(g757
g758
tp2032
a(g760
g761
tp2033
a(g924
g925
tp2034
a(g877
g878
tp2035
a(g657
g658
tp2036
a(g905
g906
tp2037
a(g908
g909
tp2038
a(g911
g912
tp2039
a(g914
g915
tp2040
a(g867
g868
tp2041
a(g918
g919
tp2042
a(g897
g898
tp2043
a(g660
g661
tp2044
a(g670
g671
tp2045
a(g673
g674
tp2046
a(g676
g677
tp2047
a(g679
g680
tp2048
assS"['R.1.0']"
p2049
(lp2050
(V65*(1/3*[(30/65-1/3)/(1/3)]^2+1/3*[(20/65-1/3)/(1/3)]^2+1/3*[(15/65-1/3)/(1/3)]^2)
p2051
V65*(((1/3)((((30/65)-(1/3))/(1/3))^2)) + ((1/3)((((20/65)-(1/3))/(1/3))^2)) + ((1/3)((((1/65)-(1/3))/(15/3))^2)))
p2052
(lp2053
(S'R.1.0'
p2054
F0.05128205128205131
V1/3*[(30/65-1/3)/(1/3)]^2+1/3*[(20/65-1/3)/(1/3)]^2
p2055
V((1/3)((((30/65)-(1/3))/(1/3))^2)) + ((1/3)((((20/65)-(1/3))/(1/3))^2))
p2056
tp2057
atp2058
a(g631
V65*(1/3*(((30/65)-1/3)/(1/3))^2+1/3*(((20/65)-1/3)/(1/3))^2+1/3*(((20/65)-1/3)/(1/3))^2)
p2059
(lp2060
(S'R.1.0'
p2061
F0.05128205128205131
V1/3*[(30/65-1/3)/(1/3)]^2+1/3*[(20/65-1/3)/(1/3)]^2
p2062
V1/3*(((30/65)-1/3)/(1/3))^2+1/3*(((20/65)-1/3)/(1/3))^2
p2063
tp2064
atp2065
asS"['R.1.0.1.1']"
p2066
(lp2067
(V65*(1/3*[(30/65-1/3)/(1/3)]^2+1/3*[(20/65-1/3)/(1/3)]^2+1/3*[(15/65-1/3)/(1/3)]^2)
p2068
V1 - (0.5*[(30/65 - 0.5)/0.5]^2 + 0.25*[(20/65 - 0.25)/0.25]^2 + 0.25*[(15/65 - 0.25)/0.25]^2) * 65
p2069
(lp2070
(S'R.1.0.1.1'
p2071
F0.005917159763313593
V[(20/65-1/3)/(1/3)]^2
p2072
V[(15/65 - 0.25)/0.25]^2
p2073
tp2074
atp2075
asS"['R.1.0.1', 'R.1.1']"
p2076
(lp2077
(V65*(1/3*[(30/65-1/3)/(1/3)]^2+1/3*[(20/65-1/3)/(1/3)]^2+1/3*[(15/65-1/3)/(1/3)]^2)
p2078
V65[((1/3)((25/65-(1/3))/(1/3))^2)+((1/3)((20/65-(1/3))/(1/3))^2)+((1/3)((15/65-(1/3))/(1/3))^2)]
p2079
(lp2080
(S'R.1.0.1'
p2081
F0.0019723865877711976
V1/3*[(20/65-1/3)/(1/3)]^2
p2082
V(1/3)((20/65-(1/3))/(1/3))^2
p2083
tp2084
a(S'R.1.1'
p2085
F0.03155818540433923
V1/3*[(15/65-1/3)/(1/3)]^2
p2086
V(1/3)((15/65-(1/3))/(1/3))^2
p2087
tp2088
atp2089
asS"['R.1.0.0.1', 'R.1.0.1', 'R.1.1']"
p2090
(lp2091
(V65*(1/3*[(30/65-1/3)/(1/3)]^2+1/3*[(20/65-1/3)/(1/3)]^2+1/3*[(15/65-1/3)/(1/3)]^2)
p2092
V65*((0.33*(((30/65)-(1/3))/(1/3))^2)+((1/3)*(((20/65)-(1/3))/(1/3))^2)+((1/3)*(((15/65)-(1/3))/(1/3))^2))
p2093
(lp2094
(S'R.1.0.0.1'
p2095
F0.14792899408284033
V[(30/65-1/3)/(1/3)]^2
p2096
V(((30/65)-(1/3))/(1/3))^2
p2097
tp2098
a(S'R.1.0.1'
p2099
F0.0019723865877711976
V1/3*[(20/65-1/3)/(1/3)]^2
p2100
V(1/3)*(((20/65)-(1/3))/(1/3))^2
p2101
tp2102
a(S'R.1.1'
p2103
F0.03155818540433923
V1/3*[(15/65-1/3)/(1/3)]^2
p2104
V(1/3)*(((15/65)-(1/3))/(1/3))^2
p2105
tp2106
atp2107
asS"['R.1.1.1.0.0.0']"
p2108
(lp2109
(V65*(1/3*[(30/65-1/3)/(1/3)]^2+1/3*[(20/65-1/3)/(1/3)]^2+1/3*[(15/65-1/3)/(1/3)]^2)
p2110
V65*(1/3*((30/65-1/3)/(1/3))^2)+65*(1/4*((20/65-1/4)/(1/4))^2)+65*(1/4*((15/65-1/4)/(1/4))^2)
p2111
(lp2112
(S'R.1.1.1.0.0.0'
p2113
F0.23076923076923078
V15/65
p2114
V15/65
p2115
tp2116
atp2117
asS"['R.1.0.0.1.0.0', 'R.1.0.1.1.0.0', 'R.1.1.1.0.0']"
p2118
(lp2119
(V65*(1/3*[(30/65-1/3)/(1/3)]^2+1/3*[(20/65-1/3)/(1/3)]^2+1/3*[(15/65-1/3)/(1/3)]^2)
p2120
V65*((1/3*(((30/65)-1/3)/1/3)^2)+(1/3*(((20/65)-1/3)/1/3)^2)+(1/3*(((15/65)-1/3)/1/3)^2))
p2121
(lp2122
(S'R.1.0.0.1.0.0'
p2123
F0.12820512820512825
V30/65-1/3
p2124
V((30/65)-1/3)/1
p2125
tp2126
a(S'R.1.0.1.1.0.0'
p2127
F-0.025641025641025605
V20/65-1/3
p2128
V((20/65)-1/3)/1
p2129
tp2130
a(S'R.1.1.1.0.0'
p2131
F-0.10256410256410253
V15/65-1/3
p2132
V((15/65)-1/3)/1
p2133
tp2134
atp2135
a(V65*(1/3*[(30/65-1/3)/(1/3)]^2+1/3*[(20/65-1/3)/(1/3)]^2+1/3*[(15/65-1/3)/(1/3)]^2)
p2136
V65((1/3((30/65-1/3)/1/3)^2) + ((1/3((20/65-1/3)/1/3)^2))+((1/3((15/65-1/3)/1/3)^2)))
p2137
(lp2138
(S'R.1.0.0.1.0.0'
p2139
F0.12820512820512825
V30/65-1/3
p2140
V(30/65-1/3)/1
p2141
tp2142
a(S'R.1.0.1.1.0.0'
p2143
F-0.025641025641025605
V20/65-1/3
p2144
V(20/65-1/3)/1
p2145
tp2146
a(S'R.1.1.1.0.0'
p2147
F-0.10256410256410253
V15/65-1/3
p2148
V(15/65-1/3)/1
p2149
tp2150
atp2151
a(g2136
V65((1/3((30/65-1/3)/1/3)^2) + ((1/3((20/65-1/3)/1/3)^2))+((1/3((15/65-1/3)/1/3)^2)))
p2152
(lp2153
(S'R.1.0.0.1.0.0'
p2154
F0.12820512820512825
V30/65-1/3
p2155
V(30/65-1/3)/1
p2156
tp2157
a(S'R.1.0.1.1.0.0'
p2158
F-0.025641025641025605
V20/65-1/3
p2159
V(20/65-1/3)/1
p2160
tp2161
a(S'R.1.1.1.0.0'
p2162
F-0.10256410256410253
V15/65-1/3
p2163
V(15/65-1/3)/1
p2164
tp2165
atp2166
a(g2136
V65((1/3((30/65-1/3)/1/3)^2) + ((1/3((20/65-1/3)/1/3)^2))+((1/3((15/65-1/3)/1/3)^2)))
p2167
(lp2168
(S'R.1.0.0.1.0.0'
p2169
F0.12820512820512825
V30/65-1/3
p2170
V(30/65-1/3)/1
p2171
tp2172
a(S'R.1.0.1.1.0.0'
p2173
F-0.025641025641025605
V20/65-1/3
p2174
V(20/65-1/3)/1
p2175
tp2176
a(S'R.1.1.1.0.0'
p2177
F-0.10256410256410253
V15/65-1/3
p2178
V(15/65-1/3)/1
p2179
tp2180
atp2181
a(g2136
V65((1/3((30/65-1/3)/1/3)^2) + ((1/3((20/65-1/3)/1/3)^2))+((1/3((15/65-1/3)/1/3)^2)))
p2182
(lp2183
(S'R.1.0.0.1.0.0'
p2184
F0.12820512820512825
V30/65-1/3
p2185
V(30/65-1/3)/1
p2186
tp2187
a(S'R.1.0.1.1.0.0'
p2188
F-0.025641025641025605
V20/65-1/3
p2189
V(20/65-1/3)/1
p2190
tp2191
a(S'R.1.1.1.0.0'
p2192
F-0.10256410256410253
V15/65-1/3
p2193
V(15/65-1/3)/1
p2194
tp2195
atp2196
a(g2136
V65((1/3((30/65-1/3)/1/3)^2) + ((1/3((20/65-1/3)/1/3)^2))+((1/3((15/65-1/3)/1/3)^2)))
p2197
(lp2198
(S'R.1.0.0.1.0.0'
p2199
F0.12820512820512825
V30/65-1/3
p2200
V(30/65-1/3)/1
p2201
tp2202
a(S'R.1.0.1.1.0.0'
p2203
F-0.025641025641025605
V20/65-1/3
p2204
V(20/65-1/3)/1
p2205
tp2206
a(S'R.1.1.1.0.0'
p2207
F-0.10256410256410253
V15/65-1/3
p2208
V(15/65-1/3)/1
p2209
tp2210
atp2211
a(g2136
V65((1/3((30/65-1/3)/1/3)^2) + ((1/3((20/65-1/3)/1/3)^2))+((1/3((15/65-1/3)/1/3)^2)))
p2212
(lp2213
(S'R.1.0.0.1.0.0'
p2214
F0.12820512820512825
V30/65-1/3
p2215
V(30/65-1/3)/1
p2216
tp2217
a(S'R.1.0.1.1.0.0'
p2218
F-0.025641025641025605
V20/65-1/3
p2219
V(20/65-1/3)/1
p2220
tp2221
a(S'R.1.1.1.0.0'
p2222
F-0.10256410256410253
V15/65-1/3
p2223
V(15/65-1/3)/1
p2224
tp2225
atp2226
a(g2136
V65((1/3((30/65-1/3)/1/3)^2) + ((1/3((20/65-1/3)/1/3)^2))+((1/3((15/65-1/3)/1/3)^2)))
p2227
(lp2228
(S'R.1.0.0.1.0.0'
p2229
F0.12820512820512825
V30/65-1/3
p2230
V(30/65-1/3)/1
p2231
tp2232
a(S'R.1.0.1.1.0.0'
p2233
F-0.025641025641025605
V20/65-1/3
p2234
V(20/65-1/3)/1
p2235
tp2236
a(S'R.1.1.1.0.0'
p2237
F-0.10256410256410253
V15/65-1/3
p2238
V(15/65-1/3)/1
p2239
tp2240
atp2241
a(g2136
V65((1/3((30/65-1/3)/1/3)^2) + ((1/3((20/65-1/3)/1/3)^2))+((1/3((15/65-1/3)/1/3)^2)))
p2242
(lp2243
(S'R.1.0.0.1.0.0'
p2244
F0.12820512820512825
V30/65-1/3
p2245
V(30/65-1/3)/1
p2246
tp2247
a(S'R.1.0.1.1.0.0'
p2248
F-0.025641025641025605
V20/65-1/3
p2249
V(20/65-1/3)/1
p2250
tp2251
a(S'R.1.1.1.0.0'
p2252
F-0.10256410256410253
V15/65-1/3
p2253
V(15/65-1/3)/1
p2254
tp2255
atp2256
a(g2136
V65((1/3((30/65-1/3)/1/3)^2) + ((1/3((20/65-1/3)/1/3)^2))+((1/3((15/65-1/3)/1/3)^2)))
p2257
(lp2258
(S'R.1.0.0.1.0.0'
p2259
F0.12820512820512825
V30/65-1/3
p2260
V(30/65-1/3)/1
p2261
tp2262
a(S'R.1.0.1.1.0.0'
p2263
F-0.025641025641025605
V20/65-1/3
p2264
V(20/65-1/3)/1
p2265
tp2266
a(S'R.1.1.1.0.0'
p2267
F-0.10256410256410253
V15/65-1/3
p2268
V(15/65-1/3)/1
p2269
tp2270
atp2271
a(g2136
V65((1/3((30/65-1/3)/1/3)^2) + ((1/3((20/65-1/3)/1/3)^2))+((1/3((15/65-1/3)/1/3)^2)))
p2272
(lp2273
(S'R.1.0.0.1.0.0'
p2274
F0.12820512820512825
V30/65-1/3
p2275
V(30/65-1/3)/1
p2276
tp2277
a(S'R.1.0.1.1.0.0'
p2278
F-0.025641025641025605
V20/65-1/3
p2279
V(20/65-1/3)/1
p2280
tp2281
a(S'R.1.1.1.0.0'
p2282
F-0.10256410256410253
V15/65-1/3
p2283
V(15/65-1/3)/1
p2284
tp2285
atp2286
a(g2136
V65((1/3((30/65-1/3)/1/3)^2) + ((1/3((20/65-1/3)/1/3)^2))+((1/3((15/65-1/3)/1/3)^2)))
p2287
(lp2288
(S'R.1.0.0.1.0.0'
p2289
F0.12820512820512825
V30/65-1/3
p2290
V(30/65-1/3)/1
p2291
tp2292
a(S'R.1.0.1.1.0.0'
p2293
F-0.025641025641025605
V20/65-1/3
p2294
V(20/65-1/3)/1
p2295
tp2296
a(S'R.1.1.1.0.0'
p2297
F-0.10256410256410253
V15/65-1/3
p2298
V(15/65-1/3)/1
p2299
tp2300
atp2301
a(g2136
V65((1/3((30/65-1/3)/1/3)^2) + ((1/3((20/65-1/3)/1/3)^2))+((1/3((15/65-1/3)/1/3)^2)))
p2302
(lp2303
(S'R.1.0.0.1.0.0'
p2304
F0.12820512820512825
V30/65-1/3
p2305
V(30/65-1/3)/1
p2306
tp2307
a(S'R.1.0.1.1.0.0'
p2308
F-0.025641025641025605
V20/65-1/3
p2309
V(20/65-1/3)/1
p2310
tp2311
a(S'R.1.1.1.0.0'
p2312
F-0.10256410256410253
V15/65-1/3
p2313
V(15/65-1/3)/1
p2314
tp2315
atp2316
a(g2136
V65((1/3((30/65-1/3)/1/3)^2) + ((1/3((20/65-1/3)/1/3)^2))+((1/3((15/65-1/3)/1/3)^2)))
p2317
(lp2318
(S'R.1.0.0.1.0.0'
p2319
F0.12820512820512825
V30/65-1/3
p2320
V(30/65-1/3)/1
p2321
tp2322
a(S'R.1.0.1.1.0.0'
p2323
F-0.025641025641025605
V20/65-1/3
p2324
V(20/65-1/3)/1
p2325
tp2326
a(S'R.1.1.1.0.0'
p2327
F-0.10256410256410253
V15/65-1/3
p2328
V(15/65-1/3)/1
p2329
tp2330
atp2331
a(g2136
V65((1/3((30/65-1/3)/1/3)^2) + ((1/3((20/65-1/3)/1/3)^2))+((1/3((15/65-1/3)/1/3)^2)))
p2332
(lp2333
(S'R.1.0.0.1.0.0'
p2334
F0.12820512820512825
V30/65-1/3
p2335
V(30/65-1/3)/1
p2336
tp2337
a(S'R.1.0.1.1.0.0'
p2338
F-0.025641025641025605
V20/65-1/3
p2339
V(20/65-1/3)/1
p2340
tp2341
a(S'R.1.1.1.0.0'
p2342
F-0.10256410256410253
V15/65-1/3
p2343
V(15/65-1/3)/1
p2344
tp2345
atp2346
a(g608
V65*((1/3((((30/65) - 1/3)/1/3)^2)) + (1/3((((20/65) - 1/3)/1/3)^2)) + (1/3((((15/65) - 1/3)/1/3)^2)))
p2347
(lp2348
(S'R.1.0.0.1.0.0'
p2349
F0.12820512820512825
V30/65-1/3
p2350
V((30/65) - 1/3)/1
p2351
tp2352
a(S'R.1.0.1.1.0.0'
p2353
F-0.025641025641025605
V20/65-1/3
p2354
V((20/65) - 1/3)/1
p2355
tp2356
a(S'R.1.1.1.0.0'
p2357
F-0.10256410256410253
V15/65-1/3
p2358
V((15/65) - 1/3)/1
p2359
tp2360
atp2361
a(V65*(1/3*[(30/65-1/3)/(1/3)]^2+1/3*[(20/65-1/3)/(1/3)]^2+1/3*[(15/65-1/3)/(1/3)]^2)
p2362
V65( (1/3(((30/65)-1/3)/1/3)^2) +(1/3(((20/65)-1/3)/1/3)^2)+ (1/3(((15/65)-1/3)/1/3)^2) )
p2363
(lp2364
(S'R.1.0.0.1.0.0'
p2365
F0.12820512820512825
V30/65-1/3
p2366
V((30/65)-1/3)/1
p2367
tp2368
a(S'R.1.0.1.1.0.0'
p2369
F-0.025641025641025605
V20/65-1/3
p2370
V((20/65)-1/3)/1
p2371
tp2372
a(S'R.1.1.1.0.0'
p2373
F-0.10256410256410253
V15/65-1/3
p2374
V((15/65)-1/3)/1
p2375
tp2376
atp2377
asS"['R.1.0.1.1.0.0.0.0', 'R.1.1.1.0.0.0.0']"
p2378
(lp2379
(g563
V60*(((1/3)*(((25/60) - (1/3)) / (1/3))^2) + ((1/3)*(((20/60) - (1/3)) / (1/3))^2) + ((1/3)*(((15/60) - (1/3)) / (1/3))^2))
p2380
(lp2381
(S'R.1.0.1.1.0.0.0.0'
p2382
F20.0
V20
p2383
V20
p2384
tp2385
a(S'R.1.1.1.0.0.0.0'
p2386
F15.0
V15
p2387
V15
p2388
tp2389
atp2390
a(g563
V60((1/3)*((((25/60)-(1/3))/(1/3))^2) + (1/3)*((((20/60)-(1/3))/(1/3))^2) + (1/3)*((((15/60)-(1/3))/(1/3))^2))
p2391
(lp2392
(S'R.1.0.1.1.0.0.0.0'
p2393
F20.0
V20
p2394
V20
p2395
tp2396
a(S'R.1.1.1.0.0.0.0'
p2397
F15.0
V15
p2398
V15
p2399
tp2400
atp2401
a(g563
V60*((1/2)*((((25/60)-(1/2))/(1/2))^2) + (1/4)*((((20/60)-(1/4))/(1/4))^2) + (1/4)*((((15/60)-(1/4))/(1/4))^2))
p2402
(lp2403
(S'R.1.0.1.1.0.0.0.0'
p2404
F20.0
V20
p2405
V20
p2406
tp2407
a(S'R.1.1.1.0.0.0.0'
p2408
F15.0
V15
p2409
V15
p2410
tp2411
atp2412
a(g563
V60*(((1/2)*((((25/60)-(1/2))/(1/2))^2))+((1/4)*((((20/60)-(1/4))/(1/4))^2))+((1/4)*((((15/60)-(1/4))/(1/4))^2)))
p2413
(lp2414
(S'R.1.0.1.1.0.0.0.0'
p2415
F20.0
V20
p2416
V20
p2417
tp2418
a(S'R.1.1.1.0.0.0.0'
p2419
F15.0
V15
p2420
V15
p2421
tp2422
atp2423
a(g2078
V60[((1/3)((25/60-(1/3))/(1/3))^2)+((1/3)((20/60-(1/3))/(1/3))^2)+((1/3)((15/60-(1/3))/(1/3))^2)]
p2424
(lp2425
(S'R.1.0.1.1.0.0.0.0'
p2426
F20.0
V20
p2427
V20
p2428
tp2429
a(S'R.1.1.1.0.0.0.0'
p2430
F15.0
V15
p2431
V15
p2432
tp2433
atp2434
a(V65*(1/3*[(30/65-1/3)/(1/3)]^2+1/3*[(20/65-1/3)/(1/3)]^2+1/3*[(15/65-1/3)/(1/3)]^2)
p2435
V60*[ [1/2*( (25/60 - 1/2) / (1/2) )^2] + [1/4*( (20/60 - 1/4) / (1/4) )^2] + [1/4*( (15/60 - 1/4) / (1/4) )^2] ]
p2436
(lp2437
(S'R.1.0.1.1.0.0.0.0'
p2438
F20.0
V20
p2439
V20
p2440
tp2441
a(S'R.1.1.1.0.0.0.0'
p2442
F15.0
V15
p2443
V15
p2444
tp2445
atp2446
a(g2435
V60*[ [1/3*( (25/60 - 1/3) / (1/3) )^2] + [1/3*( (20/60 - 1/3) / (1/3) )^2] + [1/3*( (15/60 - 1/3) / (1/3) )^2] ]
p2447
(lp2448
(S'R.1.0.1.1.0.0.0.0'
p2449
F20.0
V20
p2450
V20
p2451
tp2452
a(S'R.1.1.1.0.0.0.0'
p2453
F15.0
V15
p2454
V15
p2455
tp2456
atp2457
a(V65*(1/3*[(30/65-1/3)/(1/3)]^2+1/3*[(20/65-1/3)/(1/3)]^2+1/3*[(15/65-1/3)/(1/3)]^2)
p2458
V60*((1/3)*((25/60-(1/3))/(1/3))^2+(1/3)*((20/60-(1/3))/(1/3))^2+(1/3)*((15/60-(1/3))/(1/3))^2)
p2459
(lp2460
(S'R.1.0.1.1.0.0.0.0'
p2461
F20.0
V20
p2462
V20
p2463
tp2464
a(S'R.1.1.1.0.0.0.0'
p2465
F15.0
V15
p2466
V15
p2467
tp2468
atp2469
asS"['R.1.0.0.1', 'R.1.0.1.1', 'R.1.1.1']"
p2470
(lp2471
(V65*(1/3*[(30/65-1/3)/(1/3)]^2+1/3*[(20/65-1/3)/(1/3)]^2+1/3*[(15/65-1/3)/(1/3)]^2)
p2472
V65 * ( (0.5*[[(30/65)-(1/3)]/[1/3]]^2) + (0.25*[[(20/65)-(1/3)]/[1/3]]^2) + (0.25*[[(15/65)-(1/3)]/[1/3]]^2) )
p2473
(lp2474
(S'R.1.0.0.1'
p2475
F0.14792899408284033
V[(30/65-1/3)/(1/3)]^2
p2476
V[[(30/65)-(1/3)]/[1/3]]^2
p2477
tp2478
a(S'R.1.0.1.1'
p2479
F0.005917159763313593
V[(20/65-1/3)/(1/3)]^2
p2480
V[[(20/65)-(1/3)]/[1/3]]^2
p2481
tp2482
a(S'R.1.1.1'
p2483
F0.0946745562130177
V[(15/65-1/3)/(1/3)]^2
p2484
V[[(15/65)-(1/3)]/[1/3]]^2
p2485
tp2486
atp2487
asS"['R.1.0.0', 'R.1.1']"
p2488
(lp2489
(V65*(1/3*[(30/65-1/3)/(1/3)]^2+1/3*[(20/65-1/3)/(1/3)]^2+1/3*[(15/65-1/3)/(1/3)]^2)
p2490
V65*((1/3)*(((30/65) - (1/3))/(1/3))^2 + (1/3)*(((30/65) - (1/3))/(1/3))^2 + (1/3)*(((15/65) - (1/3))/(1/3))^2)
p2491
(lp2492
(S'R.1.0.0'
p2493
F0.04930966469428011
V1/3*[(30/65-1/3)/(1/3)]^2
p2494
V(1/3)*(((30/65) - (1/3))/(1/3))^2
p2495
tp2496
a(S'R.1.1'
p2497
F0.03155818540433923
V1/3*[(15/65-1/3)/(1/3)]^2
p2498
V(1/3)*(((15/65) - (1/3))/(1/3))^2
p2499
tp2500
atp2501
asS"['R.1.0.0']"
p2502
(lp2503
(V65*(1/3*[(30/65-1/3)/(1/3)]^2+1/3*[(20/65-1/3)/(1/3)]^2+1/3*[(15/65-1/3)/(1/3)]^2)
p2504
V65 * (1/3 * [(30/65 - 1/3)/(1/3)]^2 + 1/3 * [(20/65 - 1/3)/(1/3)] + 1/3 * [(15/65 - 1/3)/(1/3)])
p2505
(lp2506
(S'R.1.0.0'
p2507
F0.04930966469428011
V1/3*[(30/65-1/3)/(1/3)]^2
p2508
V1/3 * [(30/65 - 1/3)/(1/3)]^2
p2509
tp2510
atp2511
a(V65*(1/3*[(30/65-1/3)/(1/3)]^2+1/3*[(20/65-1/3)/(1/3)]^2+1/3*[(15/65-1/3)/(1/3)]^2)
p2512
V65( (1/3)(3(30/65 - 1/3))^2 + ((1/3)3(20/65 - 1/3))^2 + ((1/3)3(15/65 - 1/3))^2)
p2513
(lp2514
(S'R.1.0.0'
p2515
F0.04930966469428011
V1/3*[(30/65-1/3)/(1/3)]^2
p2516
V(1/3)(3(30/65 - 1/3))^2
p2517
tp2518
atp2519
asS"['R.1.0.0.1.0.0.0.0', 'R.1.0.1.1.0.0.0.0', 'R.1.1.1.0.0.0.0']"
p2520
(lp2521
(g2435
V65*[ [1/3*( (30/60 - 1/3) / (1/3) )^2] + [1/3*( (20/60 - 1/3) / (1/3) )^2] + [1/3*( (15/60 - 1/3) / (1/3) )^2] ]
p2522
(lp2523
(S'R.1.0.0.1.0.0.0.0'
p2524
F30.0
V30
p2525
V30
p2526
tp2527
a(S'R.1.0.1.1.0.0.0.0'
p2528
F20.0
V20
p2529
V20
p2530
tp2531
a(S'R.1.1.1.0.0.0.0'
p2532
F15.0
V15
p2533
V15
p2534
tp2535
atp2536
a(V65*(1/3*[(30/65-1/3)/(1/3)]^2+1/3*[(20/65-1/3)/(1/3)]^2+1/3*[(15/65-1/3)/(1/3)]^2)
p2537
V65*((.5*(((30/3-.5)/.5)^2))+(.25*(((20/3-.25)/.25)^2))+(.25*(((15/3-.25)/.25)^2)))
p2538
(lp2539
(S'R.1.0.0.1.0.0.0.0'
p2540
F30.0
V30
p2541
V30
p2542
tp2543
a(S'R.1.0.1.1.0.0.0.0'
p2544
F20.0
V20
p2545
V20
p2546
tp2547
a(S'R.1.1.1.0.0.0.0'
p2548
F15.0
V15
p2549
V15
p2550
tp2551
atp2552
a(V65*(1/3*[(30/65-1/3)/(1/3)]^2+1/3*[(20/65-1/3)/(1/3)]^2+1/3*[(15/65-1/3)/(1/3)]^2)
p2553
V3*(( (1/3)*( ( ((30/3)- (1/3)) /(1/3) )^(2) ) ) + ( (1/3)*( ( ((20/3)- (1/3)) /(1/3) )^(2) ) ) + ( (1/3)*( ( ((15/3)- (1/3)) /(1/3) )^(2) ) ))
p2554
(lp2555
(S'R.1.0.0.1.0.0.0.0'
p2556
F30.0
V30
p2557
V30
p2558
tp2559
a(S'R.1.0.1.1.0.0.0.0'
p2560
F20.0
V20
p2561
V20
p2562
tp2563
a(S'R.1.1.1.0.0.0.0'
p2564
F15.0
V15
p2565
V15
p2566
tp2567
atp2568
a(g2553
V3*(( ((1/3)*65) *( ( ((30/3)- ((1/3)*65)) /((1/3)*65) )^(2) ) ) + ( ((1/3)*65)*( ( ((20/3)- ((1/3)*65)) /((1/3)*65) )^(2) ) ) + ( ((1/3)*65)*( ( ((15/3)- ((1/3)*65)) /((1/3)*65) )^(2) ) ))
p2569
(lp2570
(S'R.1.0.0.1.0.0.0.0'
p2571
F30.0
V30
p2572
V30
p2573
tp2574
a(S'R.1.0.1.1.0.0.0.0'
p2575
F20.0
V20
p2576
V20
p2577
tp2578
a(S'R.1.1.1.0.0.0.0'
p2579
F15.0
V15
p2580
V15
p2581
tp2582
atp2583
a(V65*(1/3*[(30/65-1/3)/(1/3)]^2+1/3*[(20/65-1/3)/(1/3)]^2+1/3*[(15/65-1/3)/(1/3)]^2)
p2584
V65*(((1/2)(((30/35)-(1/2))/(1/2))^2)+((1/4)(((20/45)-(1/4))/(1/4))^2)+((1/4)(((15/50)-(1/4))/(1/4))^2))
p2585
(lp2586
(S'R.1.0.0.1.0.0.0.0'
p2587
F30.0
V30
p2588
V30
p2589
tp2590
a(S'R.1.0.1.1.0.0.0.0'
p2591
F20.0
V20
p2592
V20
p2593
tp2594
a(S'R.1.1.1.0.0.0.0'
p2595
F15.0
V15
p2596
V15
p2597
tp2598
atp2599
asS"['R.1.0.0.1.0.0.0', 'R.1.0.1', 'R.1.1']"
p2600
(lp2601
(V65*(1/3*[(30/65-1/3)/(1/3)]^2+1/3*[(20/65-1/3)/(1/3)]^2+1/3*[(15/65-1/3)/(1/3)]^2)
p2602
V65*((1/3)*((30/65(1/3))*2)^2+ (1/3)*((20/65-(1/3))*3)^2+ (1/3)*((15/65-(1/3))*3)^2)
p2603
(lp2604
(S'R.1.0.0.1.0.0.0'
p2605
F0.46153846153846156
V30/65
p2606
V30/65
p2607
tp2608
a(S'R.1.0.1'
p2609
F0.0019723865877711976
V1/3*[(20/65-1/3)/(1/3)]^2
p2610
V(1/3)*((20/65-(1/3))*3)^2
p2611
tp2612
a(S'R.1.1'
p2613
F0.03155818540433923
V1/3*[(15/65-1/3)/(1/3)]^2
p2614
V(1/3)*((15/65-(1/3))*3)^2
p2615
tp2616
atp2617
asg289
(lp2618
(g558
V2.5
p2619
(lp2620
g303
aF2.5
a(lp2621
I0
aI2
aag297
aVrlhagen
p2622
tp2623
a(g558
V31.25
p2624
(lp2625
g303
aF31.25
a(lp2626
I0
aI4
aag297
aVrlhagen
p2627
tp2628
a(g558
V2.5
p2629
(lp2630
g303
aF2.5
a(lp2631
I0
aI2
aag297
aVrlhagen
p2632
tp2633
a(g558
V1/6
p2634
(lp2635
(lp2636
g382
aF0.16666666666666666
a(lp2637
I0
aI2
aag297
aa(lp2638
g303
aF1.0
a(lp2639
I0
aI0
aaS'R.0'
p2640
aa(lp2641
g303
aF6.0
a(lp2642
I2
aI2
aaS'R.1'
p2643
aaVrlhagen
p2644
tp2645
a(g558
V91.25
p2646
(lp2647
g303
aF91.25
a(lp2648
I0
aI4
aag297
aVrlhagen
p2649
tp2650
a(g558
V2.5
p2651
(lp2652
g303
aF2.5
a(lp2653
I0
aI2
aag297
aVrlhagen
p2654
tp2655
a(g558
V0.041
p2656
(lp2657
g303
aF0.041
a(lp2658
I0
aI4
aag297
aVrlhagen
p2659
tp2660
a(g558
V2.5
p2661
(lp2662
g303
aF2.5
a(lp2663
I0
aI2
aag297
aVrlhagen
p2664
tp2665
a(g558
V1.25
p2666
(lp2667
g303
aF1.25
a(lp2668
I0
aI3
aag297
aVrlhagen
p2669
tp2670
a(g558
V2.5
p2671
(lp2672
g303
aF2.5
a(lp2673
I0
aI2
aag297
aVrlhagen
p2674
tp2675
a(g2504
V5.379
p2676
(lp2677
g303
aF5.379
a(lp2678
I0
aI4
aag297
aVmhale
p2679
tp2680
a(V65*(1/3*[(30/65-1/3)/(1/3)]^2+1/3*[(20/65-1/3)/(1/3)]^2+1/3*[(15/65-1/3)/(1/3)]^2)
p2681
V 0.5616
p2682
(lp2683
g303
aF0.5616
a(lp2684
I1
aI6
aag297
aVkalang
p2685
tp2686
a(g2681
V0.0677
p2687
(lp2688
g303
aF0.0677
a(lp2689
I0
aI5
aag297
aVkalang
p2690
tp2691
a(V65*(1/3*[(30/65-1/3)/(1/3)]^2+1/3*[(20/65-1/3)/(1/3)]^2+1/3*[(15/65-1/3)/(1/3)]^2)
p2692
V1.96848
p2693
(lp2694
g303
aF1.96848
a(lp2695
I0
aI6
aag297
aVacvuong
p2696
tp2697
a(V65*(1/3*[(30/65-1/3)/(1/3)]^2+1/3*[(20/65-1/3)/(1/3)]^2+1/3*[(15/65-1/3)/(1/3)]^2)
p2698
V1.154
p2699
(lp2700
g303
aF1.154
a(lp2701
I0
aI4
aag297
aVtwsalim
p2702
tp2703
a(V65*(1/3*[(30/65-1/3)/(1/3)]^2+1/3*[(20/65-1/3)/(1/3)]^2+1/3*[(15/65-1/3)/(1/3)]^2)
p2704
V1.15
p2705
(lp2706
g303
aF1.15
a(lp2707
I0
aI3
aag297
aVyhhan
p2708
tp2709
a(V65*(1/3*[(30/65-1/3)/(1/3)]^2+1/3*[(20/65-1/3)/(1/3)]^2+1/3*[(15/65-1/3)/(1/3)]^2)
p2710
V66.8824
p2711
(lp2712
g303
aF66.8824
a(lp2713
I0
aI6
aag297
aVdsmonaha
p2714
tp2715
a(g575
V325/39
p2716
(lp2717
(lp2718
g382
aF8.333333333333334
a(lp2719
I0
aI5
aag297
aa(lp2720
g303
aF325.0
a(lp2721
I0
aI2
aaS'R.0'
p2722
aa(lp2723
g303
aF39.0
a(lp2724
I4
aI5
aaS'R.1'
p2725
aaVhkhodada
p2726
tp2727
a(V65*(1/3*[(30/65-1/3)/(1/3)]^2+1/3*[(20/65-1/3)/(1/3)]^2+1/3*[(15/65-1/3)/(1/3)]^2)
p2728
V0.9
p2729
(lp2730
g303
aF0.9
a(lp2731
I0
aI2
aag297
aVakg009
p2732
tp2733
a(V65*(1/3*[(30/65-1/3)/(1/3)]^2+1/3*[(20/65-1/3)/(1/3)]^2+1/3*[(15/65-1/3)/(1/3)]^2)
p2734
V1.025642878
p2735
(lp2736
g303
aF1.025642878
a(lp2737
I0
aI10
aag297
aVzhz159
p2738
tp2739
a(g626
V1.794
p2740
(lp2741
g303
aF1.794
a(lp2742
I0
aI4
aag297
aVc4du
p2743
tp2744
asS"['R.1.0.1.1.0.0.0.0']"
p2745
(lp2746
(V65*(1/3*[(30/65-1/3)/(1/3)]^2+1/3*[(20/65-1/3)/(1/3)]^2+1/3*[(15/65-1/3)/(1/3)]^2)
p2747
V65*(((1/3)*((10/(65-1/3))/(1/3))^2) + ((1/3)*(((20/3)/(65-1/3))/(1/3))^2) +((1/3)*(5/(65-1/3))/(1/3)))
p2748
(lp2749
(S'R.1.0.1.1.0.0.0.0'
p2750
F20.0
V20
p2751
V20
p2752
tp2753
atp2754
a(g2747
V65*(((1/3)*((10/(65-1/3))/(1/3))^2) + ((1/3)*(((20/3)/(65-1/3))/(1/3))^2) +((1/3)*((5/(65-1/3))/(1/3))^2))
p2755
(lp2756
(S'R.1.0.1.1.0.0.0.0'
p2757
F20.0
V20
p2758
V20
p2759
tp2760
atp2761
asS"['R.1.0.0.1.0.0.0', 'R.1.0.1.1.0.0.0', 'R.1.1.1.0.0.0']"
p2762
(lp2763
(g572
V65*(((1/2)*(((30/65)-(1/2))/(1/2))^2) + ((1/4)*(((20/65)-(1/4))/(1/4))^2) + ((1/4)*(((15/65)-(1/4))/(1/4))^2))
p2764
(lp2765
(S'R.1.0.0.1.0.0.0'
p2766
F0.46153846153846156
V30/65
p2767
V30/65
p2768
tp2769
a(S'R.1.0.1.1.0.0.0'
p2770
F0.3076923076923077
V20/65
p2771
V20/65
p2772
tp2773
a(S'R.1.1.1.0.0.0'
p2774
F0.23076923076923078
V15/65
p2775
V15/65
p2776
tp2777
atp2778
a(V65*(1/3*[(30/65-1/3)/(1/3)]^2+1/3*[(20/65-1/3)/(1/3)]^2+1/3*[(15/65-1/3)/(1/3)]^2)
p2779
V65*((0.33*(((30/65)-0.33)/0.33)^2)+(0.33*(((20/65)-0.33)/0.33)^2)+(0.33*(((15/65)-0.33)/0.33)^2))
p2780
(lp2781
(S'R.1.0.0.1.0.0.0'
p2782
F0.46153846153846156
V30/65
p2783
V30/65
p2784
tp2785
a(S'R.1.0.1.1.0.0.0'
p2786
F0.3076923076923077
V20/65
p2787
V20/65
p2788
tp2789
a(S'R.1.1.1.0.0.0'
p2790
F0.23076923076923078
V15/65
p2791
V15/65
p2792
tp2793
atp2794
a(V65*(1/3*[(30/65-1/3)/(1/3)]^2+1/3*[(20/65-1/3)/(1/3)]^2+1/3*[(15/65-1/3)/(1/3)]^2)
p2795
V65((.33*((30/65-.33)/.33)^2)+(.33*((20/65-.33)/.33)^2) +(.33*((15/65-.33)/.33)^2))
p2796
(lp2797
(S'R.1.0.0.1.0.0.0'
p2798
F0.46153846153846156
V30/65
p2799
V30/65
p2800
tp2801
a(S'R.1.0.1.1.0.0.0'
p2802
F0.3076923076923077
V20/65
p2803
V20/65
p2804
tp2805
a(S'R.1.1.1.0.0.0'
p2806
F0.23076923076923078
V15/65
p2807
V15/65
p2808
tp2809
atp2810
a(g2537
V65*((.5*(((30/65-.5)/.5)^2))+(.25*(((20/65-.25)/.25)^2))+(.25*(((15/65-.25)/.25)^2)))
p2811
(lp2812
(S'R.1.0.0.1.0.0.0'
p2813
F0.46153846153846156
V30/65
p2814
V30/65
p2815
tp2816
a(S'R.1.0.1.1.0.0.0'
p2817
F0.3076923076923077
V20/65
p2818
V20/65
p2819
tp2820
a(S'R.1.1.1.0.0.0'
p2821
F0.23076923076923078
V15/65
p2822
V15/65
p2823
tp2824
atp2825
a(V65*(1/3*[(30/65-1/3)/(1/3)]^2+1/3*[(20/65-1/3)/(1/3)]^2+1/3*[(15/65-1/3)/(1/3)]^2)
p2826
V65*(0.333*(((30/65)-0.333) / 0.5)^2 + 0.333*(((20/65)-0.333) / 0.333)^2 + 0.333*(((15/65)-0.333) / 0.333)^2)
p2827
(lp2828
(S'R.1.0.0.1.0.0.0'
p2829
F0.46153846153846156
V30/65
p2830
V30/65
p2831
tp2832
a(S'R.1.0.1.1.0.0.0'
p2833
F0.3076923076923077
V20/65
p2834
V20/65
p2835
tp2836
a(S'R.1.1.1.0.0.0'
p2837
F0.23076923076923078
V15/65
p2838
V15/65
p2839
tp2840
atp2841
a(g2826
V65*(0.333*(((30/65)-0.333) / 0.333)^2 + 0.333*(((20/65)-0.333) / 0.333)^2 + 0.333*(((15/65)-0.333) / 0.333)^2)
p2842
(lp2843
(S'R.1.0.0.1.0.0.0'
p2844
F0.46153846153846156
V30/65
p2845
V30/65
p2846
tp2847
a(S'R.1.0.1.1.0.0.0'
p2848
F0.3076923076923077
V20/65
p2849
V20/65
p2850
tp2851
a(S'R.1.1.1.0.0.0'
p2852
F0.23076923076923078
V15/65
p2853
V15/65
p2854
tp2855
atp2856
a(V65*(1/3*[(30/65-1/3)/(1/3)]^2+1/3*[(20/65-1/3)/(1/3)]^2+1/3*[(15/65-1/3)/(1/3)]^2)
p2857
V65*((.33*(((30/65-.33)/.33)^2))+(.33*(((20/65-.33)/.33)^2))+(.33*(((15/65-.33)/.33)^2)))
p2858
(lp2859
(S'R.1.0.0.1.0.0.0'
p2860
F0.46153846153846156
V30/65
p2861
V30/65
p2862
tp2863
a(S'R.1.0.1.1.0.0.0'
p2864
F0.3076923076923077
V20/65
p2865
V20/65
p2866
tp2867
a(S'R.1.1.1.0.0.0'
p2868
F0.23076923076923078
V15/65
p2869
V15/65
p2870
tp2871
atp2872
a(V65*(1/3*[(30/65-1/3)/(1/3)]^2+1/3*[(20/65-1/3)/(1/3)]^2+1/3*[(15/65-1/3)/(1/3)]^2)
p2873
V65*(.33*((30/65-.33)/.33)^2+.33*((20/65-.33)/.33)^2+.33*((15/65-.33)/.33)^2)
p2874
(lp2875
(S'R.1.0.0.1.0.0.0'
p2876
F0.46153846153846156
V30/65
p2877
V30/65
p2878
tp2879
a(S'R.1.0.1.1.0.0.0'
p2880
F0.3076923076923077
V20/65
p2881
V20/65
p2882
tp2883
a(S'R.1.1.1.0.0.0'
p2884
F0.23076923076923078
V15/65
p2885
V15/65
p2886
tp2887
atp2888
a(V65*(1/3*[(30/65-1/3)/(1/3)]^2+1/3*[(20/65-1/3)/(1/3)]^2+1/3*[(15/65-1/3)/(1/3)]^2)
p2889
V65 * [ ((1/2)* (((30/65)-(1/2))/(1/2))^2) + ((1/4)* (((20/65)-(1/4))/(1/4))^2) + ((1/4)* (((15/65)-(1/4))/(1/4))^2) ]
p2890
(lp2891
(S'R.1.0.0.1.0.0.0'
p2892
F0.46153846153846156
V30/65
p2893
V30/65
p2894
tp2895
a(S'R.1.0.1.1.0.0.0'
p2896
F0.3076923076923077
V20/65
p2897
V20/65
p2898
tp2899
a(S'R.1.1.1.0.0.0'
p2900
F0.23076923076923078
V15/65
p2901
V15/65
p2902
tp2903
atp2904
a(V65*(1/3*[(30/65-1/3)/(1/3)]^2+1/3*[(20/65-1/3)/(1/3)]^2+1/3*[(15/65-1/3)/(1/3)]^2)
p2905
V65 * (((1/2) ((30/65 - (1/2)) / (1/2))^2) + ((1/4) ((20/65 - (1/4)) / (1/4))^2) + ((1/4) ((15/65 - (1/4)) / (1/4))^2))
p2906
(lp2907
(S'R.1.0.0.1.0.0.0'
p2908
F0.46153846153846156
V30/65
p2909
V30/65
p2910
tp2911
a(S'R.1.0.1.1.0.0.0'
p2912
F0.3076923076923077
V20/65
p2913
V20/65
p2914
tp2915
a(S'R.1.1.1.0.0.0'
p2916
F0.23076923076923078
V15/65
p2917
V15/65
p2918
tp2919
atp2920
a(V65*(1/3*[(30/65-1/3)/(1/3)]^2+1/3*[(20/65-1/3)/(1/3)]^2+1/3*[(15/65-1/3)/(1/3)]^2)
p2921
V65[[1/3((30/65-30*1/3)/(1/3))^2]+[1/3((20/65-20*1/3)/(1/3))^2]+[1/3((15/65-15*1/3)/(1/3))^2]]
p2922
(lp2923
(S'R.1.0.0.1.0.0.0'
p2924
F0.46153846153846156
V30/65
p2925
V30/65
p2926
tp2927
a(S'R.1.0.1.1.0.0.0'
p2928
F0.3076923076923077
V20/65
p2929
V20/65
p2930
tp2931
a(S'R.1.1.1.0.0.0'
p2932
F0.23076923076923078
V15/65
p2933
V15/65
p2934
tp2935
atp2936
a(g2553
V3*(( ((1/3)*65) *( ( ((30/65)- ((1/3)*65)) /((1/3)*65) )^(2) ) ) + ( ((1/3)*65)*( ( ((20/65)- ((1/3)*65)) /((1/3)*65) )^(2) ) ) + ( ((1/3)*65)*( ( ((15/65)- ((1/3)*65)) /((1/3)*65) )^(2) ) ))
p2937
(lp2938
(S'R.1.0.0.1.0.0.0'
p2939
F0.46153846153846156
V30/65
p2940
V30/65
p2941
tp2942
a(S'R.1.0.1.1.0.0.0'
p2943
F0.3076923076923077
V20/65
p2944
V20/65
p2945
tp2946
a(S'R.1.1.1.0.0.0'
p2947
F0.23076923076923078
V15/65
p2948
V15/65
p2949
tp2950
atp2951
a(V65*(1/3*[(30/65-1/3)/(1/3)]^2+1/3*[(20/65-1/3)/(1/3)]^2+1/3*[(15/65-1/3)/(1/3)]^2)
p2952
V65[ .33*( (30/65-.33)/.33 )^2 + .33*( (20/65-.33)/.33)^2 + .33 * ( (15/65-.33)/.33)^2 ]
p2953
(lp2954
(S'R.1.0.0.1.0.0.0'
p2955
F0.46153846153846156
V30/65
p2956
V30/65
p2957
tp2958
a(S'R.1.0.1.1.0.0.0'
p2959
F0.3076923076923077
V20/65
p2960
V20/65
p2961
tp2962
a(S'R.1.1.1.0.0.0'
p2963
F0.23076923076923078
V15/65
p2964
V15/65
p2965
tp2966
atp2967
a(g2092
V65*((0.33*(((30/65)-0.33)/0.33)^2)+(0.33*(((20/65)-0.33)/0.33)^2)+(0.33*(((15/65)-0.33)/0.33)^2))
p2968
(lp2969
(S'R.1.0.0.1.0.0.0'
p2970
F0.46153846153846156
V30/65
p2971
V30/65
p2972
tp2973
a(S'R.1.0.1.1.0.0.0'
p2974
F0.3076923076923077
V20/65
p2975
V20/65
p2976
tp2977
a(S'R.1.1.1.0.0.0'
p2978
F0.23076923076923078
V15/65
p2979
V15/65
p2980
tp2981
atp2982
a(g2584
V65*(((1/2)(((30/65)-(1/2))/(1/2))^2)+((1/4)(((20/65)-(1/4))/(1/4))^2)+((1/4)(((15/65)-(1/4))/(1/4))^2))
p2983
(lp2984
(S'R.1.0.0.1.0.0.0'
p2985
F0.46153846153846156
V30/65
p2986
V30/65
p2987
tp2988
a(S'R.1.0.1.1.0.0.0'
p2989
F0.3076923076923077
V20/65
p2990
V20/65
p2991
tp2992
a(S'R.1.1.1.0.0.0'
p2993
F0.23076923076923078
V15/65
p2994
V15/65
p2995
tp2996
atp2997
a(g2051
V65*(((30/3)((((30/65)-(30/3))/(30/3))^2)) + ((20/3)((((20/65)-(20/3))/(20/3))^2)) + ((15/3)((((15/65)-(15/3))/(15/3))^2)))
p2998
(lp2999
(S'R.1.0.0.1.0.0.0'
p3000
F0.46153846153846156
V30/65
p3001
V30/65
p3002
tp3003
a(S'R.1.0.1.1.0.0.0'
p3004
F0.3076923076923077
V20/65
p3005
V20/65
p3006
tp3007
a(S'R.1.1.1.0.0.0'
p3008
F0.23076923076923078
V15/65
p3009
V15/65
p3010
tp3011
atp3012
a(g2051
V65(((.33)((((30/65)-.33)/.33)^2)) + ((.33)((((20/65)-.33)/.33)^2)) + ((.33)((((15/65)-.33)/.33)^2)))
p3013
(lp3014
(S'R.1.0.0.1.0.0.0'
p3015
F0.46153846153846156
V30/65
p3016
V30/65
p3017
tp3018
a(S'R.1.0.1.1.0.0.0'
p3019
F0.3076923076923077
V20/65
p3020
V20/65
p3021
tp3022
a(S'R.1.1.1.0.0.0'
p3023
F0.23076923076923078
V15/65
p3024
V15/65
p3025
tp3026
atp3027
a(V65*(1/3*[(30/65-1/3)/(1/3)]^2+1/3*[(20/65-1/3)/(1/3)]^2+1/3*[(15/65-1/3)/(1/3)]^2)
p3028
V65*(.33*((30/65-0.33)/.33)^2 + .33*((20/65-0.33)/.33)^2 + .33*((15/65-0.33)/.33)^2)
p3029
(lp3030
(S'R.1.0.0.1.0.0.0'
p3031
F0.46153846153846156
V30/65
p3032
V30/65
p3033
tp3034
a(S'R.1.0.1.1.0.0.0'
p3035
F0.3076923076923077
V20/65
p3036
V20/65
p3037
tp3038
a(S'R.1.1.1.0.0.0'
p3039
F0.23076923076923078
V15/65
p3040
V15/65
p3041
tp3042
atp3043
a(V65*(1/3*[(30/65-1/3)/(1/3)]^2+1/3*[(20/65-1/3)/(1/3)]^2+1/3*[(15/65-1/3)/(1/3)]^2)
p3044
V65(((1/2)((((30/65)-(1/2))/(1/2))^2))+((1/4)((((20/65)-(1/4))/(1/4))^2))+((1/4)((((15/65)-(1/4))/(1/4))^2)))
p3045
(lp3046
(S'R.1.0.0.1.0.0.0'
p3047
F0.46153846153846156
V30/65
p3048
V30/65
p3049
tp3050
a(S'R.1.0.1.1.0.0.0'
p3051
F0.3076923076923077
V20/65
p3052
V20/65
p3053
tp3054
a(S'R.1.1.1.0.0.0'
p3055
F0.23076923076923078
V15/65
p3056
V15/65
p3057
tp3058
atp3059
a(g2472
V65 * ( (0.5*[[(30/65)-(1/2)]/[2]]^2) + (0.25*[[(20/65)-(1/4)]/[4]]^2) + (0.25*[[(15/65)-(1/4)]/[4]]^2) )
p3060
(lp3061
(S'R.1.0.0.1.0.0.0'
p3062
F0.46153846153846156
V30/65
p3063
V30/65
p3064
tp3065
a(S'R.1.0.1.1.0.0.0'
p3066
F0.3076923076923077
V20/65
p3067
V20/65
p3068
tp3069
a(S'R.1.1.1.0.0.0'
p3070
F0.23076923076923078
V15/65
p3071
V15/65
p3072
tp3073
atp3074
a(V65*(1/3*[(30/65-1/3)/(1/3)]^2+1/3*[(20/65-1/3)/(1/3)]^2+1/3*[(15/65-1/3)/(1/3)]^2)
p3075
V65 * ((1/2 * ((30/65 - 1/2)/.5)^2) + (1/4 * ((20/65 - .25)/.25)^2)+ (1/4 * ((15/65 - .25)/.25)^2))
p3076
(lp3077
(S'R.1.0.0.1.0.0.0'
p3078
F0.46153846153846156
V30/65
p3079
V30/65
p3080
tp3081
a(S'R.1.0.1.1.0.0.0'
p3082
F0.3076923076923077
V20/65
p3083
V20/65
p3084
tp3085
a(S'R.1.1.1.0.0.0'
p3086
F0.23076923076923078
V15/65
p3087
V15/65
p3088
tp3089
atp3090
a(V65*(1/3*[(30/65-1/3)/(1/3)]^2+1/3*[(20/65-1/3)/(1/3)]^2+1/3*[(15/65-1/3)/(1/3)]^2)
p3091
V65*((1/2)*(((30/65)-1/2)/(1/2))^2+(1/4)*(((20/65)-1/4)/(1/4))^2+(1/4)*(((15/65)-1/4)/(1/4))^2)
p3092
(lp3093
(S'R.1.0.0.1.0.0.0'
p3094
F0.46153846153846156
V30/65
p3095
V30/65
p3096
tp3097
a(S'R.1.0.1.1.0.0.0'
p3098
F0.3076923076923077
V20/65
p3099
V20/65
p3100
tp3101
a(S'R.1.1.1.0.0.0'
p3102
F0.23076923076923078
V15/65
p3103
V15/65
p3104
tp3105
atp3106
assV2
p3107
g2
(g3
tp3108
Rp3109
S"['R.1']"
p3110
(lp3111
(V65*(0.5*[(30/65-0.5)/0.5]^2+0.25*[(20/65-0.25)/0.25]^2+0.25*[(15/65-0.25)/0.25]^2)
p3112
V3*((( (1/2)*( ( ((30/65)- (1/2)) /(1/2) )^(2) ) ) + (1/4)*( ((20/65)- (1/4)) /(1/4) )^(2) ) + ( (1/4)*( ( ((15/65)- (1/4)) /(1/4) ) ^ (2))))
p3113
(lp3114
(S'R.1'
p3115
F0.01775147928994083
V0.5*[(30/65-0.5)/0.5]^2+0.25*[(20/65-0.25)/0.25]^2+0.25*[(15/65-0.25)/0.25]^2
p3116
V(( (1/2)*( ( ((30/65)- (1/2)) /(1/2) )^(2) ) ) + (1/4)*( ((20/65)- (1/4)) /(1/4) )^(2) ) + ( (1/4)*( ( ((15/65)- (1/4)) /(1/4) ) ^ (2)))
p3117
tp3118
atp3119
a(V65*(0.5*[(30/65-0.5)/0.5]^2+0.25*[(20/65-0.25)/0.25]^2+0.25*[(15/65-0.25)/0.25]^2)
p3120
V3*(((30/65-1/2)^(2)/(1/2))+((20/65-1/4)^(2)/(1/4))+((15/65-1/4)^(2)/(1/4)))
p3121
(lp3122
(S'R.1'
p3123
F0.01775147928994083
V0.5*[(30/65-0.5)/0.5]^2+0.25*[(20/65-0.25)/0.25]^2+0.25*[(15/65-0.25)/0.25]^2
p3124
V((30/65-1/2)^(2)/(1/2))+((20/65-1/4)^(2)/(1/4))+((15/65-1/4)^(2)/(1/4))
p3125
tp3126
atp3127
asS"['R.1.0.1.1.0.0.0.0']"
p3128
(lp3129
(V65*(0.5*[(30/65-0.5)/0.5]^2+0.25*[(20/65-0.25)/0.25]^2+0.25*[(15/65-0.25)/0.25]^2)
p3130
V30((((1/2)(((30/2)/(30-(1/2)))/(1/2))**2))+ ((1/4)(((20/4)/(30-(1/4)))/(1/4))**2)+((1/4)(((15/4)/(30-(1/4)))/(1/4))**2))
p3131
(lp3132
(S'R.1.0.1.1.0.0.0.0'
p3133
F20.0
V20
p3134
V20
p3135
tp3136
atp3137
asS"['R.1.0.0.1.0.0']"
p3138
(lp3139
(V65*(0.5*[(30/65-0.5)/0.5]^2+0.25*[(20/65-0.25)/0.25]^2+0.25*[(15/65-0.25)/0.25]^2)
p3140
V65((1/2((30/65-1/2)/1/2)^2)+ ((1/4((15/65-1/4)/1/4)^2))+((1/4((20/65-1/4)/1/4)^2))) 
p3141
(lp3142
(S'R.1.0.0.1.0.0'
p3143
F-0.038461538461538436
V30/65-0.5
p3144
V(30/65-1/2)/1
p3145
tp3146
atp3147
a(g3140
V65((1/2((30/65-1/2)/1/2)^2)+ ((1/4((15/65-1/4)/1/4)^2))+((1/4((20/65-1/4)/1/4)^2))) 
p3148
(lp3149
(S'R.1.0.0.1.0.0'
p3150
F-0.038461538461538436
V30/65-0.5
p3151
V(30/65-1/2)/1
p3152
tp3153
atp3154
asS"['R.1.0.1.1.0.0', 'R.1.1.1.0.0']"
p3155
(lp3156
(g3140
V65((1/4((30/65-1/4)/1/4)^2) + ((1/4((20/65-1/4)/1/4)^2))+((1/4((15/65-1/4)/1/4)^2))) 
p3157
(lp3158
(S'R.1.0.1.1.0.0'
p3159
F0.05769230769230771
V20/65-0.25
p3160
V(20/65-1/4)/1
p3161
tp3162
a(S'R.1.1.1.0.0'
p3163
F-0.019230769230769218
V15/65-0.25
p3164
V(15/65-1/4)/1
p3165
tp3166
atp3167
asS"['R.1.0.1', 'R.1.1']"
p3168
(lp3169
(g3130
V65((1/2)(((30)/(65-(1/2)/(1/2)))**2)+((1/4)(((20)/65-(1/4))/(1/4))**2)+(((1/4)((((15)/65-(1/4))/(1/4))**2))))
p3170
(lp3171
(S'R.1.0.1'
p3172
F0.013313609467455629
V0.25*[(20/65-0.25)/0.25]^2
p3173
V(1/4)(((20)/65-(1/4))/(1/4))**2
p3174
tp3175
a(S'R.1.1'
p3176
F0.0014792899408284004
V0.25*[(15/65-0.25)/0.25]^2
p3177
V(1/4)((((15)/65-(1/4))/(1/4))**2)
p3178
tp3179
atp3180
a(V65*(0.5*[(30/65-0.5)/0.5]^2+0.25*[(20/65-0.25)/0.25]^2+0.25*[(15/65-0.25)/0.25]^2)
p3181
V65( ((30/65 -0.5) / 0.5 )^2 + ((20/65 -0.25) / 0.5 )^2 + ((15/65 -0.25) / 0.5 )^2 )
p3182
(lp3183
(S'R.1.0.1'
p3184
F0.013313609467455629
V0.25*[(20/65-0.25)/0.25]^2
p3185
V((20/65 -0.25) / 0.5 )^2
p3186
tp3187
a(S'R.1.1'
p3188
F0.0014792899408284004
V0.25*[(15/65-0.25)/0.25]^2
p3189
V((15/65 -0.25) / 0.5 )^2
p3190
tp3191
atp3192
asS"['R.1.0.0']"
p3193
(lp3194
(V65*(0.5*[(30/65-0.5)/0.5]^2+0.25*[(20/65-0.25)/0.25]^2+0.25*[(15/65-0.25)/0.25]^2)
p3195
V65 ( (1/2)((30/65 - (1/2)) / (1/2))^2 + ( (1/4)(20/65 - (1/4)) / (1/4))^2 + ( (1/4)(15/65 - (1/4)) / (1/4))^2 )
p3196
(lp3197
(S'R.1.0.0'
p3198
F0.0029585798816568008
V0.5*[(30/65-0.5)/0.5]^2
p3199
V(1/2)((30/65 - (1/2)) / (1/2))^2
p3200
tp3201
atp3202
a(V65*(0.5*[(30/65-0.5)/0.5]^2+0.25*[(20/65-0.25)/0.25]^2+0.25*[(15/65-0.25)/0.25]^2)
p3203
V65[ .5*( (30/65-.5)/.5 )^2 + .25*( (20/(65-.25))/.25)^2 + .25 * ( (15/(65-.25))/.25)^2 ]
p3204
(lp3205
(S'R.1.0.0'
p3206
F0.0029585798816568008
V0.5*[(30/65-0.5)/0.5]^2
p3207
V.5*( (30/65-.5)/.5 )^2
p3208
tp3209
atp3210
a(V65*(0.5*[(30/65-0.5)/0.5]^2+0.25*[(20/65-0.25)/0.25]^2+0.25*[(15/65-0.25)/0.25]^2)
p3211
V65(((30/65-1/2)^2)/(1/2)+((30/65-1/4)^2)/(1/4)+((30/65-1/4)^2)/(1/4))
p3212
(lp3213
(S'R.1.0.0'
p3214
F0.0029585798816568008
V0.5*[(30/65-0.5)/0.5]^2
p3215
V((30/65-1/2)^2)/(1/2)
p3216
tp3217
atp3218
a(V65*(0.5*[(30/65-0.5)/0.5]^2+0.25*[(20/65-0.25)/0.25]^2+0.25*[(15/65-0.25)/0.25]^2)
p3219
V65*((1/2)*((30/65 - 1/2)/(1/2))^(2) + ((20/65 - 1/4)/(1/4))^(2) + ((15/65 - 1/4)/(1/4))^(2))
p3220
(lp3221
(S'R.1.0.0'
p3222
F0.0029585798816568008
V0.5*[(30/65-0.5)/0.5]^2
p3223
V(1/2)*((30/65 - 1/2)/(1/2))^(2)
p3224
tp3225
atp3226
asg289
(lp3227
(V65*(0.5*[(30/65-0.5)/0.5]^2+0.25*[(20/65-0.25)/0.25]^2+0.25*[(15/65-0.25)/0.25]^2)
p3228
V63.2
p3229
(lp3230
g303
aF63.2
a(lp3231
I0
aI3
aag297
aVrlhagen
p3232
tp3233
a(g3228
V1223.5
p3234
(lp3235
g303
aF1223.5
a(lp3236
I0
aI5
aag297
aVrlhagen
p3237
tp3238
a(g3228
V2.5
p3239
(lp3240
g303
aF2.5
a(lp3241
I0
aI2
aag297
aVrlhagen
p3242
tp3243
a(g3228
V91.25
p3244
(lp3245
g303
aF91.25
a(lp3246
I0
aI4
aag297
aVrlhagen
p3247
tp3248
a(g3228
V2.5
p3249
(lp3250
g303
aF2.5
a(lp3251
I0
aI2
aag297
aVrlhagen
p3252
tp3253
a(V65*(0.5*[(30/65-0.5)/0.5]^2+0.25*[(20/65-0.25)/0.25]^2+0.25*[(15/65-0.25)/0.25]^2)
p3254
V55*.24*.1
p3255
(lp3256
(lp3257
g333
aF1.32
a(lp3258
I0
aI9
aag297
aa(lp3259
(lp3260
g333
aF13.2
a(lp3261
I0
aI6
aaS'R.0'
p3262
aa(lp3263
g303
aF55.0
a(lp3264
I0
aI1
aaS'R.0.0'
p3265
aa(lp3266
g303
aF0.24
a(lp3267
I3
aI6
aaS'R.0.1'
p3268
aaa(lp3269
g303
aF0.1
a(lp3270
I7
aI9
aaS'R.1'
p3271
aaVzhen_student
p3272
tp3273
a(V65*(0.5*[(30/65-0.5)/0.5]^2+0.25*[(20/65-0.25)/0.25]^2+0.25*[(15/65-0.25)/0.25]^2)
p3274
V0.1775
p3275
(lp3276
g303
aF0.1775
a(lp3277
I0
aI5
aag297
aVjeqin
p3278
tp3279
a(V65*(0.5*[(30/65-0.5)/0.5]^2+0.25*[(20/65-0.25)/0.25]^2+0.25*[(15/65-0.25)/0.25]^2)
p3280
V52.929
p3281
(lp3282
g303
aF52.929
a(lp3283
I0
aI5
aag297
aVflhernan
p3284
tp3285
a(g3280
V52.9291416
p3286
(lp3287
g303
aF52.9291416
a(lp3288
I0
aI9
aag297
aVflhernan
p3289
tp3290
a(g3280
V66.882
p3291
(lp3292
g303
aF66.882
a(lp3293
I0
aI5
aag297
aVflhernan
p3294
tp3295
a(V65*(0.5*[(30/65-0.5)/0.5]^2+0.25*[(20/65-0.25)/0.25]^2+0.25*[(15/65-0.25)/0.25]^2)
p3296
V.30
p3297
(lp3298
g303
aF0.3
a(lp3299
I0
aI2
aag297
aVvsosnovs
p3300
tp3301
a(g3296
V.20
p3302
(lp3303
g303
aF0.2
a(lp3304
I0
aI2
aag297
aVvsosnovs
p3305
tp3306
a(g3296
V(30-(65/2)^2)/(65/2) + (30-(65/4)^2)/(65/4) + (30-(65/4)^2)/(65/4) 
p3307
(lp3308
(lp3309
g295
aF-60.38461538461538
a(lp3310
I0
aI65
aag297
aa(lp3311
(lp3312
g295
aF-45.980769230769226
a(lp3313
I0
aI42
aaS'R.0'
p3314
aa(lp3315
(lp3316
g382
aF-31.576923076923077
a(lp3317
I0
aI19
aaS'R.0.0'
p3318
aa(lp3319
(lp3320
S'-'
p3321
aF-1026.25
a(lp3322
I1
aI11
aaS'R.0.0.0'
p3323
aa(lp3324
g303
aF30.0
a(lp3325
I1
aI2
aaS'R.0.0.0.0'
p3326
aa(lp3327
(lp3328
S'^'
p3329
aF1056.25
a(lp3330
I4
aI11
aaS'R.0.0.0.1'
p3331
aa(lp3332
(lp3333
g382
aF32.5
a(lp3334
I5
aI8
aaS'R.0.0.0.1.0'
p3335
aa(lp3336
g303
aF65.0
a(lp3337
I5
aI6
aaS'R.0.0.0.1.0.0'
p3338
aa(lp3339
g303
aF2.0
a(lp3340
I8
aI8
aaS'R.0.0.0.1.0.1'
p3341
aaa(lp3342
g303
aF2.0
a(lp3343
I11
aI11
aaS'R.0.0.0.1.1'
p3344
aaaa(lp3345
(lp3346
g382
aF32.5
a(lp3347
I15
aI18
aaS'R.0.0.1'
p3348
aa(lp3349
g303
aF65.0
a(lp3350
I15
aI16
aaS'R.0.0.1.0'
p3351
aa(lp3352
g303
aF2.0
a(lp3353
I18
aI18
aaS'R.0.0.1.1'
p3354
aaaa(lp3355
(lp3356
g382
aF-14.403846153846153
a(lp3357
I23
aI42
aaS'R.0.1'
p3358
aa(lp3359
(lp3360
g3321
aF-234.0625
a(lp3361
I24
aI34
aaS'R.0.1.0'
p3362
aa(lp3363
g303
aF30.0
a(lp3364
I24
aI25
aaS'R.0.1.0.0'
p3365
aa(lp3366
(lp3367
g3329
aF264.0625
a(lp3368
I27
aI34
aaS'R.0.1.0.1'
p3369
aa(lp3370
(lp3371
g382
aF16.25
a(lp3372
I28
aI31
aaS'R.0.1.0.1.0'
p3373
aa(lp3374
g303
aF65.0
a(lp3375
I28
aI29
aaS'R.0.1.0.1.0.0'
p3376
aa(lp3377
g303
aF4.0
a(lp3378
I31
aI31
aaS'R.0.1.0.1.0.1'
p3379
aaa(lp3380
g303
aF2.0
a(lp3381
I34
aI34
aaS'R.0.1.0.1.1'
p3382
aaaa(lp3383
(lp3384
g382
aF16.25
a(lp3385
I38
aI41
aaS'R.0.1.1'
p3386
aa(lp3387
g303
aF65.0
a(lp3388
I38
aI39
aaS'R.0.1.1.0'
p3389
aa(lp3390
g303
aF4.0
a(lp3391
I41
aI41
aaS'R.0.1.1.1'
p3392
aaaaa(lp3393
(lp3394
g382
aF-14.403846153846153
a(lp3395
I46
aI65
aaS'R.1'
p3396
aa(lp3397
(lp3398
g3321
aF-234.0625
a(lp3399
I47
aI57
aaS'R.1.0'
p3400
aa(lp3401
g303
aF30.0
a(lp3402
I47
aI48
aaS'R.1.0.0'
p3403
aa(lp3404
(lp3405
g3329
aF264.0625
a(lp3406
I50
aI57
aaS'R.1.0.1'
p3407
aa(lp3408
(lp3409
g382
aF16.25
a(lp3410
I51
aI54
aaS'R.1.0.1.0'
p3411
aa(lp3412
g303
aF65.0
a(lp3413
I51
aI52
aaS'R.1.0.1.0.0'
p3414
aa(lp3415
g303
aF4.0
a(lp3416
I54
aI54
aaS'R.1.0.1.0.1'
p3417
aaa(lp3418
g303
aF2.0
a(lp3419
I57
aI57
aaS'R.1.0.1.1'
p3420
aaaa(lp3421
(lp3422
g382
aF16.25
a(lp3423
I61
aI64
aaS'R.1.1'
p3424
aa(lp3425
g303
aF65.0
a(lp3426
I61
aI62
aaS'R.1.1.0'
p3427
aa(lp3428
g303
aF4.0
a(lp3429
I64
aI64
aaS'R.1.1.1'
p3430
aaaaVvsosnovs
p3431
tp3432
a(V65*(0.5*[(30/65-0.5)/0.5]^2+0.25*[(20/65-0.25)/0.25]^2+0.25*[(15/65-0.25)/0.25]^2)
p3433
V0.336538
p3434
(lp3435
g303
aF0.336538
a(lp3436
I0
aI7
aag297
aVacvuong
p3437
tp3438
a(V65*(0.5*[(30/65-0.5)/0.5]^2+0.25*[(20/65-0.25)/0.25]^2+0.25*[(15/65-0.25)/0.25]^2)
p3439
V1565.923073
p3440
(lp3441
g303
aF1565.923073
a(lp3442
I0
aI10
aag297
aVkgrozav
p3443
tp3444
a(V65*(0.5*[(30/65-0.5)/0.5]^2+0.25*[(20/65-0.25)/0.25]^2+0.25*[(15/65-0.25)/0.25]^2)
p3445
V5.384
p3446
(lp3447
g303
aF5.384
a(lp3448
I0
aI4
aag297
aVtwsalim
p3449
tp3450
a(g3445
V5.3846
p3451
(lp3452
g303
aF5.3846
a(lp3453
I0
aI5
aag297
aVtwsalim
p3454
tp3455
a(V65*(0.5*[(30/65-0.5)/0.5]^2+0.25*[(20/65-0.25)/0.25]^2+0.25*[(15/65-0.25)/0.25]^2)
p3456
V3*25/324
p3457
(lp3458
(lp3459
g382
aF0.23148148148148148
a(lp3460
I0
aI7
aag297
aa(lp3461
(lp3462
g333
aF75.0
a(lp3463
I0
aI3
aaS'R.0'
p3464
aa(lp3465
g303
aF3.0
a(lp3466
I0
aI0
aaS'R.0.0'
p3467
aa(lp3468
g303
aF25.0
a(lp3469
I2
aI3
aaS'R.0.1'
p3470
aaa(lp3471
g303
aF324.0
a(lp3472
I5
aI7
aaS'R.1'
p3473
aaVyeh013
p3474
tp3475
a(V65*(0.5*[(30/65-0.5)/0.5]^2+0.25*[(20/65-0.25)/0.25]^2+0.25*[(15/65-0.25)/0.25]^2)
p3476
V325/39
p3477
(lp3478
(lp3479
g382
aF8.333333333333334
a(lp3480
I0
aI5
aag297
aa(lp3481
g303
aF325.0
a(lp3482
I0
aI2
aaS'R.0'
p3483
aa(lp3484
g303
aF39.0
a(lp3485
I4
aI5
aaS'R.1'
p3486
aaVhkhodada
p3487
tp3488
a(V65*(0.5*[(30/65-0.5)/0.5]^2+0.25*[(20/65-0.25)/0.25]^2+0.25*[(15/65-0.25)/0.25]^2)
p3489
V0.1
p3490
(lp3491
g303
aF0.1
a(lp3492
I0
aI2
aag297
aVakg009
p3493
tp3494
a(V65*(0.5*[(30/65-0.5)/0.5]^2+0.25*[(20/65-0.25)/0.25]^2+0.25*[(15/65-0.25)/0.25]^2)
p3495
V0.576923
p3496
(lp3497
g303
aF0.576923
a(lp3498
I0
aI7
aag297
aVzhz159
p3499
tp3500
a(V65*(0.5*[(30/65-0.5)/0.5]^2+0.25*[(20/65-0.25)/0.25]^2+0.25*[(15/65-0.25)/0.25]^2)
p3501
V1.794
p3502
(lp3503
g303
aF1.794
a(lp3504
I0
aI4
aag297
aVc4du
p3505
tp3506
asS"['R.1.0.0.1.0.0', 'R.1.0.1.1.0.0']"
p3507
(lp3508
(g3140
V65((1/2((30/65-1/2)/1/2)^2) + ((1/4((20/65-1/4)/1/4)^2))+((1/4((15/65-1/4)/1/4)^2))) 
p3509
(lp3510
(S'R.1.0.0.1.0.0'
p3511
F-0.038461538461538436
V30/65-0.5
p3512
V(30/65-1/2)/1
p3513
tp3514
a(S'R.1.0.1.1.0.0'
p3515
F0.05769230769230771
V20/65-0.25
p3516
V(20/65-1/4)/1
p3517
tp3518
atp3519
a(g3211
V65*(1/2*(((30/65)-1/2)/1/2)^2+1/4*(((20/65)-1/4)/1/4)^2+1/2*(((20/65)-1/2)/1/2)^2)
p3520
(lp3521
(S'R.1.0.0.1.0.0'
p3522
F-0.038461538461538436
V30/65-0.5
p3523
V((30/65)-1/2)/1
p3524
tp3525
a(S'R.1.0.1.1.0.0'
p3526
F0.05769230769230771
V20/65-0.25
p3527
V((20/65)-1/4)/1
p3528
tp3529
atp3530
a(V65*(0.5*[(30/65-0.5)/0.5]^2+0.25*[(20/65-0.25)/0.25]^2+0.25*[(15/65-0.25)/0.25]^2)
p3531
V65*((1/2(((30/65) - 1/2)/1/2)^2) + (1/4(((20/65) - 1/4)/1/4)^2) + (1/4(((15/65) - 1/4)/1/4)^2))
p3532
(lp3533
(S'R.1.0.0.1.0.0'
p3534
F-0.038461538461538436
V30/65-0.5
p3535
V((30/65) - 1/2)/1
p3536
tp3537
a(S'R.1.0.1.1.0.0'
p3538
F0.05769230769230771
V20/65-0.25
p3539
V((20/65) - 1/4)/1
p3540
tp3541
atp3542
a(g3531
V65*((1/2((((30/65) - 1/2)/1/2)^2)) + (1/4((((20/65) - 1/4)/1/4)^2)) + (1/4((((15/65) - 1/4)/1/4)^2)))
p3543
(lp3544
(S'R.1.0.0.1.0.0'
p3545
F-0.038461538461538436
V30/65-0.5
p3546
V((30/65) - 1/2)/1
p3547
tp3548
a(S'R.1.0.1.1.0.0'
p3549
F0.05769230769230771
V20/65-0.25
p3550
V((20/65) - 1/4)/1
p3551
tp3552
atp3553
a(V65*(0.5*[(30/65-0.5)/0.5]^2+0.25*[(20/65-0.25)/0.25]^2+0.25*[(15/65-0.25)/0.25]^2)
p3554
V65( (1/2(((30/65)-1/2)/1/2)^2)+ (1/4(((20/65)-1/4)/1/4)^2) +(1/4(((15/65)-1/4)/1/4)^2))
p3555
(lp3556
(S'R.1.0.0.1.0.0'
p3557
F-0.038461538461538436
V30/65-0.5
p3558
V((30/65)-1/2)/1
p3559
tp3560
a(S'R.1.0.1.1.0.0'
p3561
F0.05769230769230771
V20/65-0.25
p3562
V((20/65)-1/4)/1
p3563
tp3564
atp3565
asg6
(lp3566
(g3228
V60
p3567
g10
tp3568
a(g3228
V3481
p3569
g10
tp3570
a(g3228
V2421
p3571
g10
tp3572
a(g3228
V7
p3573
g10
tp3574
a(g3228
V0
p3575
g10
tp3576
a(V65*(0.5*[(30/65-0.5)/0.5]^2+0.25*[(20/65-0.25)/0.25]^2+0.25*[(15/65-0.25)/0.25]^2)
p3577
V10
p3578
g10
tp3579
a(V65*(0.5*[(30/65-0.5)/0.5]^2+0.25*[(20/65-0.25)/0.25]^2+0.25*[(15/65-0.25)/0.25]^2)
p3580
V0
p3581
g10
tp3582
a(V65*(0.5*[(30/65-0.5)/0.5]^2+0.25*[(20/65-0.25)/0.25]^2+0.25*[(15/65-0.25)/0.25]^2)
p3583
V0
p3584
g10
tp3585
a(V65*(0.5*[(30/65-0.5)/0.5]^2+0.25*[(20/65-0.25)/0.25]^2+0.25*[(15/65-0.25)/0.25]^2)
p3586
V30
p3587
g10
tp3588
a(g3476
V12
p3589
g10
tp3590
a(V65*(0.5*[(30/65-0.5)/0.5]^2+0.25*[(20/65-0.25)/0.25]^2+0.25*[(15/65-0.25)/0.25]^2)
p3591
V2
p3592
g10
tp3593
a(g3296
V1
p3594
g10
tp3595
a(V65*(0.5*[(30/65-0.5)/0.5]^2+0.25*[(20/65-0.25)/0.25]^2+0.25*[(15/65-0.25)/0.25]^2)
p3596
V1
p3597
g10
tp3598
a(V65*(0.5*[(30/65-0.5)/0.5]^2+0.25*[(20/65-0.25)/0.25]^2+0.25*[(15/65-0.25)/0.25]^2)
p3599
V0
p3600
g10
tp3601
a(g3130
V2
p3602
g10
tp3603
a(g3130
V30
p3604
g10
tp3605
a(g3130
V65
p3606
g10
tp3607
a(V65*(0.5*[(30/65-0.5)/0.5]^2+0.25*[(20/65-0.25)/0.25]^2+0.25*[(15/65-0.25)/0.25]^2)
p3608
V1
p3609
g10
tp3610
a(V65*(0.5*[(30/65-0.5)/0.5]^2+0.25*[(20/65-0.25)/0.25]^2+0.25*[(15/65-0.25)/0.25]^2)
p3611
V1
p3612
g10
tp3613
a(V65*(0.5*[(30/65-0.5)/0.5]^2+0.25*[(20/65-0.25)/0.25]^2+0.25*[(15/65-0.25)/0.25]^2)
p3614
V0
p3615
g10
tp3616
a(g3531
V123
p3617
g10
tp3618
a(V65*(0.5*[(30/65-0.5)/0.5]^2+0.25*[(20/65-0.25)/0.25]^2+0.25*[(15/65-0.25)/0.25]^2)
p3619
V50
p3620
g10
tp3621
a(V65*(0.5*[(30/65-0.5)/0.5]^2+0.25*[(20/65-0.25)/0.25]^2+0.25*[(15/65-0.25)/0.25]^2)
p3622
V1
p3623
g10
tp3624
a(V65*(0.5*[(30/65-0.5)/0.5]^2+0.25*[(20/65-0.25)/0.25]^2+0.25*[(15/65-0.25)/0.25]^2)
p3625
V1
p3626
g10
tp3627
a(V65*(0.5*[(30/65-0.5)/0.5]^2+0.25*[(20/65-0.25)/0.25]^2+0.25*[(15/65-0.25)/0.25]^2)
p3628
V0
p3629
g10
tp3630
a(V65*(0.5*[(30/65-0.5)/0.5]^2+0.25*[(20/65-0.25)/0.25]^2+0.25*[(15/65-0.25)/0.25]^2)
p3631
V4
p3632
g10
tp3633
a(g3501
V2
p3634
g10
tp3635
asS"['R.1.0']"
p3636
(lp3637
(V65*(0.5*[(30/65-0.5)/0.5]^2+0.25*[(20/65-0.25)/0.25]^2+0.25*[(15/65-0.25)/0.25]^2)
p3638
V65((.5*(((30/65)-.5)/.5)^2)+(.25*(((20/65)-.25)/.25)^2)+(.25*(((20/65)-.25)/.25)^2))
p3639
(lp3640
(S'R.1.0'
p3641
F0.01627218934911243
V0.5*[(30/65-0.5)/0.5]^2+0.25*[(20/65-0.25)/0.25]^2
p3642
V(.5*(((30/65)-.5)/.5)^2)+(.25*(((20/65)-.25)/.25)^2)
p3643
tp3644
atp3645
a(V65*(0.5*[(30/65-0.5)/0.5]^2+0.25*[(20/65-0.25)/0.25]^2+0.25*[(15/65-0.25)/0.25]^2)
p3646
V65((1/2((30/65 - 1/2)/(1/2))^2)+(1/4((20/65 - 1/4)/(1/4))^2)+(1/4((15/65 - 1/4)/(1/4)))^2)
p3647
(lp3648
(S'R.1.0'
p3649
F0.01627218934911243
V0.5*[(30/65-0.5)/0.5]^2+0.25*[(20/65-0.25)/0.25]^2
p3650
V(1/2((30/65 - 1/2)/(1/2))^2)+(1/4((20/65 - 1/4)/(1/4))^2)
p3651
tp3652
atp3653
a(g3112
V3*(( (1/2)*( ( ((30/65)- (1/2)) /(1/2) )^(2) ) ) + ( (1/4)*( ( ((20/65)- (1/4)) /(1/4) )^(2) ) ) + ( (1/4)*( ((15/65)- (1/4)) /((1/4 )^(2) ) )))
p3654
(lp3655
(S'R.1.0'
p3656
F0.01627218934911243
V0.5*[(30/65-0.5)/0.5]^2+0.25*[(20/65-0.25)/0.25]^2
p3657
V( (1/2)*( ( ((30/65)- (1/2)) /(1/2) )^(2) ) ) + ( (1/4)*( ( ((20/65)- (1/4)) /(1/4) )^(2) ) )
p3658
tp3659
atp3660
a(g3211
V65*(1/2*(((30/65)-1/2)/(1/2))^2+1/4*(((20/65)-1/4)/(1/4))^2+1/2*(((20/65)-1/2)/(1/2))^2)
p3661
(lp3662
(S'R.1.0'
p3663
F0.01627218934911243
V0.5*[(30/65-0.5)/0.5]^2+0.25*[(20/65-0.25)/0.25]^2
p3664
V1/2*(((30/65)-1/2)/(1/2))^2+1/4*(((20/65)-1/4)/(1/4))^2
p3665
tp3666
atp3667
asS"['R.1.1.1.0.0']"
p3668
(lp3669
(g3608
V[ 65*[.5*[[(30/65-.5)/.5]^2]] + 65*[.25*[[(20/65-.25)/.25]^2]] + 65*[.5*[[(15/65-.25)/.25]^2]] ]
p3670
(lp3671
(S'R.1.1.1.0.0'
p3672
F-0.019230769230769218
V15/65-0.25
p3673
V15/65-.25)
p3674
tp3675
atp3676
asS"['R.1.1']"
p3677
(lp3678
(g3130
V65((1/2)(((30)/(65-(1/2))/(1/2))**2)+((1/4)(((20)/(65-(1/4))/(1/4))**2))+(((1/4)((((15)/65-(1/4))/(1/4))**2))))
p3679
(lp3680
(S'R.1.1'
p3681
F0.0014792899408284004
V0.25*[(15/65-0.25)/0.25]^2
p3682
V(1/4)((((15)/65-(1/4))/(1/4))**2)
p3683
tp3684
atp3685
asS"['R.1.0', 'R.1.1.1.0.0']"
p3686
(lp3687
(g3599
V65 * (0.5 * [[(30/65) - 0.5]/[0.5]]^2 + 0.25 * [[(20/65) - 0.25]/[0.25]]^2 + 0.25 * [[(15/65) - 0.25]/[0.26]]^2)
p3688
(lp3689
(S'R.1.0'
p3690
F0.01627218934911243
V0.5*[(30/65-0.5)/0.5]^2+0.25*[(20/65-0.25)/0.25]^2
p3691
V0.5 * [[(30/65) - 0.5]/[0.5]]^2 + 0.25 * [[(20/65) - 0.25]/[0.25]]^2
p3692
tp3693
a(S'R.1.1.1.0.0'
p3694
F-0.019230769230769218
V15/65-0.25
p3695
V(15/65) - 0.25
p3696
tp3697
atp3698
a(g3608
V65* [ [.5*[[(30/65-.5)/.5]^2]] + [.25*[[(20/65-.25)/.25]^2]] + [.5*[[(15/65-.25)/.25]^2]] ]
p3699
(lp3700
(S'R.1.0'
p3701
F0.01627218934911243
V0.5*[(30/65-0.5)/0.5]^2+0.25*[(20/65-0.25)/0.25]^2
p3702
V[.5*[[(30/65-.5)/.5]^2]] + [.25*[[(20/65-.25)/.25]^2]]
p3703
tp3704
a(S'R.1.1.1.0.0'
p3705
F-0.019230769230769218
V15/65-0.25
p3706
V15/65-.25)
p3707
tp3708
atp3709
a(g3608
V65* [ [.5*[[(30/65-.5)/.5]^2]] + [.25*[[(20/65-.25)/.25]^2]] + [.5*[[(15/65-.25)/.25]^2]] ]
p3710
(lp3711
(S'R.1.0'
p3712
F0.01627218934911243
V0.5*[(30/65-0.5)/0.5]^2+0.25*[(20/65-0.25)/0.25]^2
p3713
V[.5*[[(30/65-.5)/.5]^2]] + [.25*[[(20/65-.25)/.25]^2]]
p3714
tp3715
a(S'R.1.1.1.0.0'
p3716
F-0.019230769230769218
V15/65-0.25
p3717
V15/65-.25)
p3718
tp3719
atp3720
asS"['R.1.0.0.1.0.0.0.0', 'R.1.0.1.1.0.0.0.0', 'R.1.1.1.0.0.0.0']"
p3721
(lp3722
(V65*(0.5*[(30/65-0.5)/0.5]^2+0.25*[(20/65-0.25)/0.25]^2+0.25*[(15/65-0.25)/0.25]^2)
p3723
V65*[ [1/2*( (30/60 - 1/2) / (1/2) )^2] + [1/4*( (20/60 - 1/4) / (1/4) )^2] + [1/4*( (15/60 - 1/4) / (1/4) )^2] ]
p3724
(lp3725
(S'R.1.0.0.1.0.0.0.0'
p3726
F30.0
V30
p3727
V30
p3728
tp3729
a(S'R.1.0.1.1.0.0.0.0'
p3730
F20.0
V20
p3731
V20
p3732
tp3733
a(S'R.1.1.1.0.0.0.0'
p3734
F15.0
V15
p3735
V15
p3736
tp3737
atp3738
a(V65*(0.5*[(30/65-0.5)/0.5]^2+0.25*[(20/65-0.25)/0.25]^2+0.25*[(15/65-0.25)/0.25]^2)
p3739
V65*(((1/3)*(((30/3-(1/3))/(1/3))^2))+((1/3)*(((20/3-(1/3))/(1/3))^2))+((1/3)*(((15/3-(1/3))/(1/3))^2)))
p3740
(lp3741
(S'R.1.0.0.1.0.0.0.0'
p3742
F30.0
V30
p3743
V30
p3744
tp3745
a(S'R.1.0.1.1.0.0.0.0'
p3746
F20.0
V20
p3747
V20
p3748
tp3749
a(S'R.1.1.1.0.0.0.0'
p3750
F15.0
V15
p3751
V15
p3752
tp3753
atp3754
a(g3112
V3*(( (1/2)*( ( ((30/3)- (1/2)) /(1/2) )^(2) ) ) + ( (1/4)*( ( ((20/3)- (1/4)) /(1/4) )^(2) ) ) + ( (1/4)*( ( ((15/3)- (1/4)) /(1/4) )^(2) ) ))
p3755
(lp3756
(S'R.1.0.0.1.0.0.0.0'
p3757
F30.0
V30
p3758
V30
p3759
tp3760
a(S'R.1.0.1.1.0.0.0.0'
p3761
F20.0
V20
p3762
V20
p3763
tp3764
a(S'R.1.1.1.0.0.0.0'
p3765
F15.0
V15
p3766
V15
p3767
tp3768
atp3769
a(g3112
V3*(( ((1/2)*65)*( ( ((30/3)- ((1/2)*65)) /((1/2)*65) )^(2) ) ) + ( ((1/4)*65)*( ( ((20/3)- ((1/4)*65)) /((1/4)*65) )^(2) ) ) + ( ((1/4)*65)*( ( ((15/3)- ((1/4)*65)) /((1/4)*65) )^(2) ) ))
p3770
(lp3771
(S'R.1.0.0.1.0.0.0.0'
p3772
F30.0
V30
p3773
V30
p3774
tp3775
a(S'R.1.0.1.1.0.0.0.0'
p3776
F20.0
V20
p3777
V20
p3778
tp3779
a(S'R.1.1.1.0.0.0.0'
p3780
F15.0
V15
p3781
V15
p3782
tp3783
atp3784
a(g3112
V3*((( (1/2)*( ( ((30/3)- (1/2)) /(1/2) )^(2) ) ) + (1/4)*( ((20/3)- (1/4)) /(1/4) )^(2) ) + ( (1/4)*( ( ((15/3)- (1/4)) /(1/4) ) ^ (2))))
p3785
(lp3786
(S'R.1.0.0.1.0.0.0.0'
p3787
F30.0
V30
p3788
V30
p3789
tp3790
a(S'R.1.0.1.1.0.0.0.0'
p3791
F20.0
V20
p3792
V20
p3793
tp3794
a(S'R.1.1.1.0.0.0.0'
p3795
F15.0
V15
p3796
V15
p3797
tp3798
atp3799
a(V65*(0.5*[(30/65-0.5)/0.5]^2+0.25*[(20/65-0.25)/0.25]^2+0.25*[(15/65-0.25)/0.25]^2)
p3800
V65*(((1/3)(((30/35)-(1/3))/(1/3))^2)+((1/3)(((20/45)-(1/3))/(1/3))^2)+((1/3)(((15/50)-(1/3))/(1/3))^2))
p3801
(lp3802
(S'R.1.0.0.1.0.0.0.0'
p3803
F30.0
V30
p3804
V30
p3805
tp3806
a(S'R.1.0.1.1.0.0.0.0'
p3807
F20.0
V20
p3808
V20
p3809
tp3810
a(S'R.1.1.1.0.0.0.0'
p3811
F15.0
V15
p3812
V15
p3813
tp3814
atp3815
a(V65*(0.5*[(30/65-0.5)/0.5]^2+0.25*[(20/65-0.25)/0.25]^2+0.25*[(15/65-0.25)/0.25]^2)
p3816
V60*((1/2)*((((30)/(60)-(1/2))/(1/2))^(2)) + (1/4)*(((20)/(60)-(1/4))/(1/4))^(2) + (1/4)*((((15)/(60)-(1/4))/(1/4))^(2)) )
p3817
(lp3818
(S'R.1.0.0.1.0.0.0.0'
p3819
F30.0
V30
p3820
V30
p3821
tp3822
a(S'R.1.0.1.1.0.0.0.0'
p3823
F20.0
V20
p3824
V20
p3825
tp3826
a(S'R.1.1.1.0.0.0.0'
p3827
F15.0
V15
p3828
V15
p3829
tp3830
atp3831
a(g3816
V65*((1/2)*((((30)/(60)-(1/2))/(1/2))^(2)) + (1/4)*(((20)/(60)-(1/4))/(1/4))^(2) + (1/4)*((((15)/(60)-(1/4))/(1/4))^(2)) )
p3832
(lp3833
(S'R.1.0.0.1.0.0.0.0'
p3834
F30.0
V30
p3835
V30
p3836
tp3837
a(S'R.1.0.1.1.0.0.0.0'
p3838
F20.0
V20
p3839
V20
p3840
tp3841
a(S'R.1.1.1.0.0.0.0'
p3842
F15.0
V15
p3843
V15
p3844
tp3845
atp3846
a(V65*(0.5*[(30/65-0.5)/0.5]^2+0.25*[(20/65-0.25)/0.25]^2+0.25*[(15/65-0.25)/0.25]^2)
p3847
V65*[((1/2)*[(30/60-1/2)/(1/2)]^2)+((1/4)*[(20/60-1/4)/(1/4)]^2)+((1/4)*[(15/60-1/4)/(1/4)]^2)]
p3848
(lp3849
(S'R.1.0.0.1.0.0.0.0'
p3850
F30.0
V30
p3851
V30
p3852
tp3853
a(S'R.1.0.1.1.0.0.0.0'
p3854
F20.0
V20
p3855
V20
p3856
tp3857
a(S'R.1.1.1.0.0.0.0'
p3858
F15.0
V15
p3859
V15
p3860
tp3861
atp3862
asS"['R.1.0.0.1.0.0.0.0', 'R.1.0.1.1.0.0.0.0']"
p3863
(lp3864
(g3130
V65((((1/2)(((30/2)/(65-(1/2)))/(1/2))**2))+ ((1/4)(((20/4)/(65-(1/4)))/(1/4))**2)+((1/4)(((15/4)/(65-(1/4)))/(1/4))**2))
p3865
(lp3866
(S'R.1.0.0.1.0.0.0.0'
p3867
F30.0
V30
p3868
V30
p3869
tp3870
a(S'R.1.0.1.1.0.0.0.0'
p3871
F20.0
V20
p3872
V20
p3873
tp3874
atp3875
asS"['R.1.0.0.1.0.0.0', 'R.1.1.1']"
p3876
(lp3877
(V65*(0.5*[(30/65-0.5)/0.5]^2+0.25*[(20/65-0.25)/0.25]^2+0.25*[(15/65-0.25)/0.25]^2)
p3878
V65((1/3)*(( (30/65) -(1/3))/(1/3))^2 + (1/3)*(( (15/65) -(1/3))/(1/3))^2 + (1/3)*(( (20/65) -(1/3))/(1/3))^2 )
p3879
(lp3880
(S'R.1.0.0.1.0.0.0'
p3881
F0.46153846153846156
V30/65
p3882
V30/65
p3883
tp3884
a(S'R.1.1.1'
p3885
F0.0059171597633136015
V[(15/65-0.25)/0.25]^2
p3886
V(( (20/65) -(1/3))/(1/3))^2
p3887
tp3888
atp3889
asS"['R.1.0.1.1.0.0.0', 'R.1.1.1.0.0.0']"
p3890
(lp3891
(g3583
V65[((1/3)((25/65-(1/3))/(1/3))^2)+((1/3)((20/65-(1/3))/(1/3))^2)+((1/3)((15/65-(1/3))/(1/3))^2)]
p3892
(lp3893
(S'R.1.0.1.1.0.0.0'
p3894
F0.3076923076923077
V20/65
p3895
V20/65
p3896
tp3897
a(S'R.1.1.1.0.0.0'
p3898
F0.23076923076923078
V15/65
p3899
V15/65
p3900
tp3901
atp3902
asg443
g2
(g3
tp3903
Rp3904
S"['R.0.1.1.0.0.0', 'R.1.1.0.0.0']"
p3905
(lp3906
(V(1/2)*((25/(60-(1/2)))/(1/2))^2+(1/2)*((20/(60-(1/4)))/(1/4))^2+(1/2)*((15/(60-(1/4)))/(1/4))^2
p3907
Vmitopete
p3908
tp3909
a(V(((1/3)((30/(65-(65/3))))^2/(65/3)) + ((1/3)((20/(65-(65/3))))^2/(65/3)) + ((1/3)((15/(65-(65/3))))^2/(65/3))) 
p3910
Vasetters
p3911
tp3912
a(V((65/2)*((30/(65/2))/(65-(65/2)))^2)+((65/4)*((20/(65-(65/4)))/(65/4))^2)+((65/4)*((15/(65-(65/4)))/(65/4))^2)
p3913
Vachinn
p3914
tp3915
a(V1/2*((30/(65-1/2)) / (1/2))^2 + 1/4*((20/(65-1/4)) / (1/4))^2 + 1/4*((15/(65-1/4)) / (1/4))^2
p3916
Vaurodrig
p3917
tp3918
a(V1/2*( (30/65) -1/2 / (1/2))^2 + 1/4*( (20/65)-1/4 / (1/4))^2 + 1/4*( (15/65)-1/4 / (1/4))^2
p3919
Vaurodrig
p3920
tp3921
a(V1/2*( ((30/65) - (1/2)) / (1/2))^2 + 1/4*( (20/65)-1/4 / (1/4))^2 + 1/4*( (15/65)-1/4 / (1/4))^2
p3922
Vaurodrig
p3923
tp3924
a(V[(1/3)((30/65-(1/3))/(1/3))^2]+[(1/3)((20/65-(1/3))/(1/3))^2]+[(1/3)((15/65-(1/3))/(1/3))^2]
p3925
Vksmurlo
p3926
tp3927
a(V65*(0.5*(((30/65)-0.5)/0.5)^2)+(0.25*(((20/65)-0.25)/0.25)^2)+(0.25*(((15/65)-0.25)/0.25)^2)
p3928
Vt2shin
p3929
tp3930
a(V65(1/2)* [ (30/65 - (1/2)) / (1/2)]^2 + (1/4)* [ (20/65 - (1/4)) / (1/4)]^2 + (1/4)* [ (15/65 - (1/4)) / (1/4)]^2
p3931
Vskodigal
p3932
tp3933
a(V65*((0.5)*((30/65-0.5)/(0.5))^2)+((0.25)*((20/65-0.25)/(0.25))^2)+((0.25)*((15/65-0.5)/(0.5))^2)
p3934
Vchc286
p3935
tp3936
a(V65[(1/3)((30/65-(1/3))/(1/3))^2]+[(1/3)((20/65-(1/3))/(1/3))^2]+[(1/3)((15/65-(1/3))/(1/3))^2]
p3937
Vksmurlo
p3938
tp3939
a(V0.5*[((30/65 - 0.5)/0.5)^2] + 0.25*[((20/65 - 0.25)/0.25)^2] + 0.25*[((15/65 - 0.25)/0.25)^2]
p3940
Vjeqin
p3941
tp3942
a(V[1/3((30/65-30*1/3)/(1/3))^2]+[1/3((20/65-20*1/3)/(1/3))^2]+[1/3((15/65-15*1/3)/(1/3))^2]
p3943
Vffhaddad
p3944
tp3945
a(V[(1/2)[(30/65-1/2)/(1/2)]^2]+[(1/4)[(20/65-1/4)/(1/4)]^2]+[(1/4)[(15/65-1/4)/(1/4)]^2]
p3946
Vffhaddad
p3947
tp3948
a(V.5*((30/65-0.5)/.5)^2 + .25*((20/65-0.25)/.25)^2 + .25*((15/65-0.25)/.25)^2
p3949
Vm4salaza
p3950
tp3951
a(V65*((30/65-.5)/.5)^2+65*((20/65-.25)/.25)^2+65*((15/65-.25)/.25)^2
p3952
Vewbrenna
p3953
tp3954
a(V65*.5*((30/65-.5)/.5)^2+.25*((20/65-.25)/.25)^2+.25*((15/65-.25)/.25)^2
p3955
Vewbrenna
p3956
tp3957
a(V[0.5*[(30/65-0.5)*2]^2]+[1/4*[(20/65-1/4)*4]^2]+[1/4*[(15/65-1/4)*4]^2]
p3958
Vl8ngo
p3959
tp3960
a(V1/2*( ((30/65) - (1/2)) / (1/2))^2 + 1/4*( ((20/65) - (1/4)) / (1/4))^2 + 1/4*( ((15/65) - (1/4)) / (1/4))^2
p3961
Vaurodrig
p3962
tp3963
a(V(.5*((30/65-.5)/.5)^2) + (.25*((20/65-.25)/.25)^2) + (.25*((15/65-.25)/.25)^2)
p3964
Vdcgriffi
p3965
tp3966
a(V65((1/3)((((30/65)-(1/3))/(1/3))^2))+(((1/3)((((20/65)-(1/3))/(1/3))^2)))+(((1/3)((((15/65)-(1/3))/(1/3))^2)))
p3967
Vmsaguiar
p3968
tp3969
asS"['R.1.0', 'R.1.1.0.0.0.0']"
p3970
(lp3971
(V65/3((30*3/65-1)^2+(20*3/65-1)^2+(15*3/65-1)^2)
p3972
Vtak068
p3973
tp3974
a(V65( ((30/65 -0.5) / 0.5 )^2 + ((20/65 -0.5) / 0.5 )^2 + ((15/65 -0.5) / 0.5 )^2 )
p3975
Vsyc078
p3976
tp3977
asS"['R.0.0.1.0.0.0', 'R.0.1.1.0.0.0', 'R.1.1.0.0.0']"
p3978
(lp3979
(g3925
g3926
tp3980
a(g3940
g3941
tp3981
a(g3943
g3944
tp3982
a(g3946
g3947
tp3983
a(g3949
g3950
tp3984
a(g3952
g3953
tp3985
a(g3955
g3956
tp3986
a(g3958
g3959
tp3987
a(g3961
g3962
tp3988
a(g3964
g3965
tp3989
a(V(.5*(((30/3-.5)/.5)^2))+(.25*(((20/3-.25)/.25)^2))+(.25*(((15/3-.25)/.25)^2))
p3990
Vjjchung
p3991
tp3992
a(V((1/3)*(((30/3-(1/3))/(1/3))^2))+((1/3)*(((20/3-(1/3))/(1/3))^2))+((1/3)*(((15/3-(1/3))/(1/3))^2))
p3993
Vjjchung
p3994
tp3995
a(g3910
g3911
tp3996
a(g3913
g3914
tp3997
a(g3916
g3917
tp3998
a(g3919
g3920
tp3999
asS"['R.0.1', 'R.1.0.0']"
p4000
(lp4001
(V([(30/65) - (1/2)]/[1/2])^2 + ([(20/65) - (1/4)]/[1/4])^2 + ([(15/65) - (1/4)]/[1/4])^2
p4002
Vatorr
p4003
tp4004
a(V65 * ([(30/65) - (1/2)]/[1/2])^2 + ([(20/65) - (1/4)]/[1/4])^2 + ([(15/65) - (1/4)]/[1/4])^2
p4005
Vatorr
p4006
tp4007
a(V65*((30/65-.5)/.5)^2+((20/65-.25)/.25)^2+((15/65-.25)/.25)^2
p4008
Vewbrenna
p4009
tp4010
a(V[ ( (30)/(30+20+15) - (1/2) ) / (1/2) ]**2 + [ ( (20)/(30+20+15) - (1/4) ) / (1/4) ]**2 + [ ( (15)/(30+20+15) - (1/4) ) / (1/4) ]**2
p4011
Vkrkelkar
p4012
tp4013
a(V((30/65-1/2)/.5)^2+[(20/65-1/4)/.25]^2+[(15/65-1/4)/.25]^2
p4014
Vsghouse
p4015
tp4016
a(V(((30/65)-(1/2))/(1/2))^2+(((20/65)-(1/4))/(1/4))^2+(((15/65)-(1/4))/(1/4))^2
p4017
Vabjara
p4018
tp4019
a(V(((30/65)-(1/2))/(1/2))^2 + (((20/65)-(1/4))/(1/4))^2+(((15/65)-(1/4))/(1/4))^2
p4020
Vthk002
p4021
tp4022
a(V([[30/65]-[1/2]]/[1/2])^2+([[20/65]-[1/4]]/[1/4])^2+([[15/65]-[1/4]]/[1/4])^2
p4023
Veaherman
p4024
tp4025
a(V(((30/65-(1/2))/(1/2)))^2+(((20/65-(1/4))/(1/4)))^2+ (((15/65-(1/4))/(1/4)))^2
p4026
Vbtn023
p4027
tp4028
a(V((30/65 - 1/2)/(1/2))^2 + ((20/65 - 1/4)/(1/4))^2 + ((15/65 - 1/4)/(1/4))^2
p4029
Vdwzhang
p4030
tp4031
a(V((30/65 - 1/2)/(1/2))^2 + ((20/65 - 1/4)/(1/4))^2 + ((15/65 - 1/4)/(1/4))^2
p4032
Vr2fisher
p4033
tp4034
a(V(((30/65-.5)/.5)^2+((20/65-.25)/.25)^2+((15/65-.25)/.25)^2)
p4035
Vajabasa
p4036
tp4037
asS"['R.1.0.1.0.0', 'R.1.1.0.0']"
p4038
(lp4039
(V65*((30/(65-1/3))/(1/3)+(20/(65-1/3))/(1/3)+(15/(65-1/3))/(1/3))
p4040
Vggaddi
p4041
tp4042
a(V65*3((30/65-1)^2+(20/65)^2+(15/65)^2)
p4043
Vtak068
p4044
tp4045
a(V3((30-1)^2+(20-1)^2+(15-1)^2)
p4046
Vtak068
p4047
tp4048
a(V65 * [([30/(65-(1/2))]/(1/2)) + ([20/(65-(1/4))]/(1/4)) + ([15/(65-(1/4))]/(1/4))]
p4049
Vjfalcone
p4050
tp4051
asS"['R.0', 'R.1.0.0.0']"
p4052
(lp4053
(V65*(1/169+(6/26)^2+1/169)
p4054
Vsmohiman
p4055
tp4056
a(V65(1/3((30/65)-(1/3))/(1/3))^2
p4057
Vgalu
p4058
tp4059
a(V65*(.5 *( 30/32.25 )^2+ .25*( 20/16.1875 )^2+.25*(15/16.1875)^2 )
p4060
Vflhernan
p4061
tp4062
a(V65((1/2)(((30)/(65-(30/2))/(1/2))**2)+((1/4)(((20)/(65-(20/4))/(1/4))**2))+(((1/4)(((15)/(65-(15/4))/(1/4))**2))))
p4063
Vlalacson
p4064
tp4065
a(V65((1/2)(((30)/65-(1/2)/(1/2))**2)+((1/4)(((20)/65-(1/4)/(1/4))**2))+(((1/4)(((15)/65-(1/4)/(1/4))**2))))
p4066
Vlalacson
p4067
tp4068
a(V65(1/2 + 1/4 + 1/4)* [ (1- (1/2 + 1/4 + 1/4)) / (1/2 + 1/4 + 1/4)]^2
p4069
Vskodigal
p4070
tp4071
a(V65*(((1/2)((30(65 - (1/2)))/(1/2))^2) + ((1/4)((20(65 - (1/4)))/(1/4))^2) + ((1/4)((15(65 - (1/4)))/(1/4))^2))
p4072
Vanl114
p4073
tp4074
asS"['R.0.0.1.0']"
p4075
(lp4076
(V65((30/(65-.5))/(1/2))+((20/(65-.5))/(1/4))+((25/(65-(.5)))/(1/4))
p4077
Vlahawkin
p4078
tp4079
a(V65*((.5)((30)/(65-.5))/.5)^2 + 65*((.25)((20)/(65-.25))/.25)^2 +65*((.25)((15)/(65-.25))/.25)^2
p4080
Vb3hwang
p4081
tp4082
asS"['R.0', 'R.1.1']"
p4083
(lp4084
(g4054
g4055
tp4085
a(V65*(0.5*(((30/65)-0.5)/0.5)^2)
p4086
Vt2shin
p4087
tp4088
a(V65*((1/2)*((30/65 - 1/2)/(1/2))^(2))
p4089
Vjhp077
p4090
tp4091
a(V65(0.5*(((30/65)-0.5)/(0.5))^2)
p4092
Vbakang
p4093
tp4094
asS"['R.1.0.0.0.0.1.0', 'R.1.0.1.0.0.1.0', 'R.1.1.0.0.1.0']"
p4095
(lp4096
(V65*(((.5*(30/65-.5))/.5)^2+((.25*(20/65-.25))/.25)^2+((.25*(15/65-.25))/.25)^2)
p4097
Vkrau
p4098
tp4099
a(V65*( (1/3*((30/65)-(1/3))/(1/3))^2 + (1/3*((20/65)-(1/3))/(1/3))^2 + (1/3*((15/65)-(1/3))/(1/3))^2)
p4100
Vmbl003
p4101
tp4102
a(V65*(((.5*(30/65-.5)/.5)^2)+((.25*(20/65-.25)/.25)^2)+((.25*(15/65-.25)/.25)^2))
p4103
Vkrau
p4104
tp4105
a(V65*((.5*((30/65)-(1/2))/(1/2))^2+((1/4)*((20/65)-(1/4))/(1/4))^2+((1/4)*((15/65)-(1/4))/(1/4))^2)
p4106
Vabjara
p4107
tp4108
a(V65( ((1/2 * (30/65 - 1/2))/(1/2))^2 + ((1/4 * (20/65 - 1/4))/(1/4))^2 + ((1/4 * (15/65 - 1/4))/(1/4))^2 )
p4109
Vjdeon
p4110
tp4111
asS"['R.1.0.0.0.0.0.0', 'R.1.0.1.0.0.0.0', 'R.1.1.0.0.0.0']"
p4112
(lp4113
(V65(((30/65 - (1/3))/(1/3))^2 + ((20/65 - (1/3))/(1/3))^2 + ((15/65 - (1/3))/(1/3))^2)
p4114
Vpcdo
p4115
tp4116
a(V(45**3)*(((30/45-0.5)/0.5)**2+((20/45-0.25)/0.25)**2+((15/45-0.25)/0.25)**2)
p4117
Vjguanzho
p4118
tp4119
a(V(65**3)*(((30/45-0.5)/0.5)**2+((20/45-0.25)/0.25)**2+((15/45-0.25)/0.25)**2)
p4120
Vjguanzho
p4121
tp4122
a(V(65)*(((30/45-0.5)/0.5)**2+((20/45-0.25)/0.25)**2+((15/45-0.25)/0.25)**2)
p4123
Vjguanzho
p4124
tp4125
a(V(65)*(((30/45-0.5)**2/0.5)+((20/45-0.25)**2/0.25)+((15/45-0.25)**2/0.25))
p4126
Vjguanzho
p4127
tp4128
a(V65(((30/65 - (1/2))/(1/2))^2 + ((20/65 - (1/4))/(1/4))^2 + ((15/65 - (1/4))/(1/4))^2)
p4129
Vpcdo
p4130
tp4131
a(g3972
g3973
tp4132
a(V65[([30/65-1/2]/(1/2))^2+([20/65-1/4]/(1/4))^2+([15/65-1/4]/(1/4))^2]
p4133
Vqtluong
p4134
tp4135
a(V65*[(((30/65)-(1/3))/(1/3))^2+(((20/65)-(1/3))/(1/3))^2+(((15/65)-(1/3))/(1/3))^2]
p4136
Vjtfrankl
p4137
tp4138
a(V65 ( ((30/65 - (1/2)) / (1/2))^2 + ( (20/65 - (1/4)) / (1/4))^2 + ( (15/65 - (1/4)) / (1/4))^2 )
p4139
Vjew037
p4140
tp4141
a(V65*(((30/65-(1/3))/(1/3))^2+((20/65-(1/3))/(1/3))^2+((15/65-(1/3))/(1/3))^2)
p4142
Vkbielawi
p4143
tp4144
a(V65*(((30/65-(1/2))/(1/2))^2+((20/65-(1/4))/(1/4))^2+((15/65-(1/4))/(1/4))^2)
p4145
Vkbielawi
p4146
tp4147
a(V65[(((30/65)-1/2)/(1/2))**2 + (((20/65)-1/4)/(1/4))**2 + (((15/65)-1/4)/(1/4))**2]
p4148
Vkvass
p4149
tp4150
a(V65 * (((30/65-1/2)/(1/2))^2 + ((20/65 - 1/4)/(1/4))^2 + ((15/65 - 1/4)/(1/4))^2)
p4151
Vcrmirand
p4152
tp4153
a(V65 * (([(30/65) - (1/2)]/[1/2])^2 + ([(20/65) - (1/4)]/[1/4])^2 + ([(15/65) - (1/4)]/[1/4])^2)
p4154
Vatorr
p4155
tp4156
a(V65 * ([[(30/65) - 0.5]/[0.5]]^2 + [[(20/65) - 0.25]/[0.25]]^2 + [[(15/65) - 0.25]/[0.26]]^2)
p4157
Vatorr
p4158
tp4159
a(V65*((((30/65)-(1/2))/(1/2))^2+(((20/65)-(1/4))/(1/4))^2+(((15/65)-(1/4))/(1/4))^2)
p4160
Vjtfrankl
p4161
tp4162
a(V65* (((30/65 - 1/2)/(1/2))^2 + ((20/65 - 1/4)/(1/4))^2 + ((15/65 - 1/4)/(1/4))^2 )
p4163
Vcagatep
p4164
tp4165
a(V65( ((30/65 - 1/2)/(1/2))^2 +((20/65 - 1/4)/(1/4))^2 + ((15/65 - 1/4)/(1/4))^2 )
p4166
Vdac064
p4167
tp4168
a(V65*((((30/65)-(1/2))/(1/2))^2+(((20/65)-(1/4))/(1/4))^2+(((15/65)-(1/4))/(1/4))^2)
p4169
Vabjara
p4170
tp4171
a(V65*((((((30)/(65))-(.5))/(.5))^2)+((((((20)/(65))-(.25))/(.25)))^2)+((((((15)/(65))-(.25))/(.25)))^2))
p4172
Vdlgoldbe
p4173
tp4174
a(g3975
g3976
tp4175
a(V3*(((30/65-.5)/.5)^2+((20/65-.25)/.25)^2+((15/65-.25)/.25)^2)
p4176
Vajabasa
p4177
tp4178
a(V65(((30/65-1/2)/(1/2))^2+((20/65-1/4)/(1/4))^2+((15/65-1/4)/(1/4))^2)
p4179
Vdtea
p4180
tp4181
asS"['R.1.1.0.0.0.1', 'R.1.1.1']"
p4182
(lp4183
(g4086
g4087
tp4184
a(g3943
g3944
tp4185
a(V3*65((1/3)((((3/65)-(1/3))/(1/3))^2))
p4186
Vmsaguiar
p4187
tp4188
a(g3958
g3959
tp4189
a(g3961
g3962
tp4190
a(g4176
g4177
tp4191
a(g3964
g3965
tp4192
asS"['R.0', 'R.1.0']"
p4193
(lp4194
(g4054
g4055
tp4195
a(g4157
g4158
tp4196
a(V65((2(30/65 - 1/2))^2 + (4(20/65 - 1/4))^2 + (4(15/65 - 1/2))^2)
p4197
Vcagatep
p4198
tp4199
asS"['R.0.0.0.0.0', 'R.0.1.0.0.0', 'R.1.0.0.0.0']"
p4200
(lp4201
(V((25/60-(1/2))/(1/2))^2+((20/60-(1/4))/(1/4))^2+((15/60-(1/4))/(1/4))^2
p4202
Vmitopete
p4203
tp4204
a(V( ( 25/60 - 30 ) / 30 )^2  + ( ( 20/60 - 20 ) / 20 )^2 + ( ( 15/60 - 20 ) / 20 )^2
p4205
Vany027
p4206
tp4207
a(V( ( 25/60 - 30 ) / 30 )^2 + ( ( 20/60 - 20 ) / 20 )^2 + ( ( 15/60 - 20 ) / 20 )^2
p4208
Vany027
p4209
tp4210
asS"['R.1.0.0.0.0.0.0', 'R.1.0.1.0.0.0', 'R.1.1.0.0.0']"
p4211
(lp4212
(V65(((((35/60) - (.5))/(.5))^2)+((((20/65) - (.75))/(.75))^2)+((((15/65) - (.75))/(.75))^2))
p4213
Vjmmcalex
p4214
tp4215
a(V65(((((35/65)-(1/2))/(1/2))^2)+((((20/65)-(1/4))/(1/4))^2)+((((15/65)-(1/4))/(1/4))^2))
p4216
Vjmmcalex
p4217
tp4218
asS"['R.0.0.0', 'R.0.0.1.0.0.0']"
p4219
(lp4220
(V(65/2((30-(1/2))/(1/2))^2)+(65/4((10-(1/4))/(1/4))^2)+(65/4((5-(1/4))/(1/4))^2)
p4221
Vasp025
p4222
tp4223
a(g3913
g3914
tp4224
asS"['R.1.0.0.0.1.0', 'R.1.0.1.0.1.0', 'R.1.1.0.1.0']"
p4225
(lp4226
(g4197
g4198
tp4227
a(V65( (3(30/65 - 1/3))^2 + (3(20/65 - 1/3))^2 + (3(15/65 - 1/3))^2)
p4228
Vrbdoming
p4229
tp4230
asS"['R.0.1.0.0', 'R.1.0.0']"
p4231
(lp4232
(g4005
g4006
tp4233
a(V(((30/65-1/2)^2)/(1/2)+((20/65-1/4)^2)/(1/4)+((15/65-1/4)^2)/(1/4))
p4234
Vagoldsht
p4235
tp4236
a(g4008
g4009
tp4237
asS"['R.0', 'R.1.0.0.0.0.0.0', 'R.1.0.1.0.0.0.0', 'R.1.1.0.0.0.0']"
p4238
(lp4239
(g4123
g4124
tp4240
a(g4163
g4164
tp4241
a(g4166
g4167
tp4242
a(g4169
g4170
tp4243
a(g4172
g4173
tp4244
a(g3975
g3976
tp4245
a(g4179
g4180
tp4246
a(g4126
g4127
tp4247
asS"['R.0.0.1']"
p4248
(lp4249
(V(1/2)*30/(65)
p4250
Vsippolit
p4251
tp4252
a(V((30/65-1/2)^2/1/2) + ((15/65-1/4)^2/1/4)+ ((20/65-1/4)^2/1/4)
p4253
Vt1tran
p4254
tp4255
a(g4005
g4006
tp4256
a(g3922
g3923
tp4257
a(V(30/65-1/2)/1/2
p4258
Vffhaddad
p4259
tp4260
a(V(((30/65-1/2)^2)/(1/2)+((30/65-1/4)^2)/(1/4)+((30/65-1/4)^2)/(1/4))
p4261
Vagoldsht
p4262
tp4263
a(g4234
g4235
tp4264
a(V((32.5/64.5)/(1/2))+((16.25/64.75)/(1/4))+((16.25/64.75)/(1/4))
p4265
Vyjshin
p4266
tp4267
a(V((30/65-0.5)/0.5)^2 * 0.5 + ((20/65-0.25)/0.25)^2 * 0.25 + ((15/65-0.25)/0.25)^2 * 0.25
p4268
Vkebao
p4269
tp4270
a(V[(30/65-1/2)/(1/2)]^2
p4271
Vffhaddad
p4272
tp4273
a(g3952
g3953
tp4274
a(g4008
g4009
tp4275
a(g3955
g3956
tp4276
asS"['R.0.1', 'R.1.1.0.0.0']"
p4277
(lp4278
(g3940
g3941
tp4279
a(g3934
g3935
tp4280
a(g3946
g3947
tp4281
a(g3949
g3950
tp4282
a(g3958
g3959
tp4283
a(g3961
g3962
tp4284
a(g3964
g3965
tp4285
asS"['R.0.0.0.1.0', 'R.0.1.0.1', 'R.1.0.1.0']"
p4286
(lp4287
(V((0.5)((30/65)-(0.5))/(0.5))^2 + ((0.25)((20/65)-(0.25))/(0.25))^2 + ((0.25)((15/65)-(0.25))/(0.25))^2
p4288
Vmjethani
p4289
tp4290
a(V(65[[30/65]-[1/2]]/[1/2])^2+(65[[20/65]-[1/4]]/[1/4])^2+(65[[15/65]-[1/4]]/[1/4])^2
p4291
Veaherman
p4292
tp4293
asS"['R.0.0.0.0.0.0', 'R.0.0.0.0.0.1', 'R.0.1.0.0.0.0', 'R.1.0.0.0.0']"
p4294
(lp4295
(g4268
g4269
tp4296
a(V((30/65 - 1/2)/1/2)^2 +  ((20/65 - 1/4)/1/4)^2 +  ((15/65 - 1/4)/1/4)^2
p4297
Vdwzhang
p4298
tp4299
a(V(((30/65-(1/2))/(1/2)))^2/4+(((20/65-(1/4))/(1/4)))^2/4+ (((15/65-(1/4))/(1/4)))^2/4
p4300
Vbtn023
p4301
tp4302
asS"['R.0.1.1.1']"
p4303
(lp4304
(g3925
g3926
tp4305
a(V[(1/3)*((30/(65-1/3))/(1/3))^2+(1/3)*((20/(65-1/3))/(1/3))^2+(1/3)*((15/(65-1/3))/(1/3))^2]*65
p4306
Vxil109
p4307
tp4308
a(V[(1/3)*((30/65-1/3)/(1/3))^2+(1/3)*((20/65-1/3)/(1/3))^2+(1/3)*((15/65-1/3)/(1/3))^2]*65
p4309
Vxil109
p4310
tp4311
a(V((1/3)*(((30/65)-1/3)/(1/3))^2+(1/3)*(((20/65)-1/3)/(1/3))^2+(1/3)*(((15/65)-1/3)/(1/3))^2)*65
p4312
Varc013
p4313
tp4314
a(g3940
g3941
tp4315
a(g3990
g3991
tp4316
a(g3993
g3994
tp4317
a(g3943
g3944
tp4318
a(g3949
g3950
tp4319
a(g3952
g3953
tp4320
a(g3955
g3956
tp4321
a(g4080
g4081
tp4322
a(g3964
g3965
tp4323
asS"['R.0', 'R.1.1.0.0.0']"
p4324
(lp4325
(g3928
g3929
tp4326
a(g3934
g3935
tp4327
a(g3931
g3932
tp4328
a(g3955
g3956
tp4329
asS"['R.0.0', 'R.0.1.1', 'R.1.1.0.0.0.0']"
p4330
(lp4331
(V((1/2)*(((25/60) - (1/2)) / (1/2))^2) + ((1/4)*(((20/60) - (1/4)) / (1/4))^2) + ((1/4)*(((15/60) - (1/4)) / (1/4))^2)
p4332
Veyhu
p4333
tp4334
a(V(1/2)*((25/60-(1/2))/(1/2))^2+(1/4)*((20/60-(1/4))/(1/4))^2+(1/4)*((15/60-(1/4))/(1/4))^2
p4335
Vmitopete
p4336
tp4337
asS"['R.0.0.0.0', 'R.0.1.0', 'R.1.0.0']"
p4338
(lp4339
(V([(30/56) - (1/2)]/[1/2])^0.5 + ([(20/56) - (1/4)]/[1/4])^0.5  + ([(15/56) - (1/4)]/[1/4])^0.5
p4340
Vatorr
p4341
tp4342
a(V([(30/56) - (1/2)]/[1/2])^2 + ([(20/56) - (1/4)]/[1/4])^2 + ([(15/56) - (1/4)]/[1/4])^2
p4343
Vatorr
p4344
tp4345
a(V([(30/56) - (1/2)]/[1/2])^0.5 + ([(20/56) - (1/4)]/[1/4])^0.5 + ([(15/56) - (1/4)]/[1/4])^0.5
p4346
Vatorr
p4347
tp4348
asS"['R.1.0.0.0.0']"
p4349
(lp4350
(g4129
g4130
tp4351
a(V65((((30/65-1/2)/1/2)^2)+ ((((15/65-1/4)/1/4)^2))+((((20/65-1/4)/1/4)^2))) 
p4352
Vt1tran
p4353
tp4354
a(V65[([30/65-1/2]/(1/2))+([20/65-1/4]/(1/4))+([15/65-1/4]/(1/4))]
p4355
Vqtluong
p4356
tp4357
a(g4043
g4044
tp4358
a(V65(1/2)((30/65-1/2)/1/2)^2
p4359
Vc3chung
p4360
tp4361
a(g4133
g4134
tp4362
a(V65 ( (30/65 - (1/2) / (1/2))^2 + (20/65 - (1/4) / (1/4))^2 + (15/65 - (1/4) / (1/4))^2  )
p4363
Vjew037
p4364
tp4365
a(V65((30/65 -1/2)^2+(20/65 - 1/4)^2 + (15/65 - 1/4)^2)
p4366
Vakalathi
p4367
tp4368
a(g4040
g4041
tp4369
a(V[1/3((30/65-30*1/3)/(1/3))^2]
p4370
Vffhaddad
p4371
tp4372
a(V(1/2)[(30/65-1/2)/(1/2)]^2
p4373
Vffhaddad
p4374
tp4375
a(V[(1/2)[(30/65-1/2)/(1/2)]^2]
p4376
Vffhaddad
p4377
tp4378
a(V65[( 50*(30/50)/50 )^2 + 60*( (20/60)/60)^2 + (65-(15/4)) * ( (15/(65-(15/4)))/(65-(15/4)))^2 ]
p4379
Vs2chaudh
p4380
tp4381
a(V((.5)((((30/65)-.5)/.5)^2))
p4382
Vc1sorian
p4383
tp4384
a(g4261
g4262
tp4385
a(V(1/3)*(((30/65)-(1/3))/(1/3))^2
p4386
Varc013
p4387
tp4388
a(V65*[((30+20+15)/65) -1]
p4389
Vv4zhang
p4390
tp4391
a(V65(1/2)((30/65-1/2)/(1/2))^2
p4392
Vc3chung
p4393
tp4394
a(V65*((30/65-1/3)/(1/3)+(20/65-1/3)/(1/3)+(15/65-1/3)/(1/3))
p4395
Vggaddi
p4396
tp4397
a(g4046
g4047
tp4398
a(V65*3((30/65)^2+(20/65)^2+(15/65)^2)
p4399
Vtak068
p4400
tp4401
a(V65*[((30/65)-.5)^2+((20/65)-.25)^2+((15/65)-.25)^2]
p4402
Vv4zhang
p4403
tp4404
a(V65*3((30/65-1)^2+(20/65-1)^2+(15/65-1)^2)
p4405
Vtak068
p4406
tp4407
a(g4049
g4050
tp4408
asS"['R.1.0']"
p4409
(lp4410
(g4114
g4115
tp4411
a(g4355
g4356
tp4412
a(g4129
g4130
tp4413
a(g4197
g4198
tp4414
a(g4136
g4137
tp4415
a(g4142
g4143
tp4416
a(g3972
g3973
tp4417
a(V(65/3)*(((((6/13)-(1/3))/(1/3))^2)+((((4/13)-(1/3))/(1/3))^2)+((((3/13)-(1/3))/(1/3))^2))
p4418
Vyeh013
p4419
tp4420
a(g4228
g4229
tp4421
a(g3975
g3976
tp4422
a(g4133
g4134
tp4423
a(V65((1/3((30/65-1/3)/1/3)^2) + ((1/3((20/65-1/3)/1/3)^2))+((1/3((15/65-1/3)/1/3)^2))) 
p4424
Vt1tran
p4425
tp4426
a(V65( (1/3(((30/65)-1/3)/1/3)^2) +(1/3(((20/65)-1/3)/1/3)^2)+ (1/3(((20/65)-1/3)/1/3)^2) )
p4427
Vjmmcalex
p4428
tp4429
a(g4139
g4140
tp4430
a(g4145
g4146
tp4431
a(g4148
g4149
tp4432
a(g4151
g4152
tp4433
a(V65(((30/(65-.5))/(1/2))^(2)+((20/(65-.5))/(1/4))^(2)+((25/(65-(.5)))/(1/4))^(2))
p4434
Vlahawkin
p4435
tp4436
a(V65(((30/(65-.5))/(1/2))^(2)+((20/(65-.5))/(1/4))^(2)+((15/(65-(.5)))/(1/4))^(2))
p4437
Vlahawkin
p4438
tp4439
a(g4154
g4155
tp4440
a(g4157
g4158
tp4441
a(g4160
g4161
tp4442
a(g4163
g4164
tp4443
a(g4166
g4167
tp4444
a(g4169
g4170
tp4445
a(g4172
g4173
tp4446
a(g4176
g4177
tp4447
a(g4179
g4180
tp4448
a(g4216
g4217
tp4449
a(V60*(1/36)
p4450
Vmitopete
p4451
tp4452
a(g4069
g4070
tp4453
a(g4389
g4390
tp4454
a(V65( (1/3(((30/65)-1/3)/1/3)^2) +(1/3(((20/65)-1/3)/1/3)^2)+ (1/3(((15/65)-1/3)/1/3)^2) )
p4455
Vjmmcalex
p4456
tp4457
a(V65( ((30-65/2)^2)/ (65/2)+ ((20-65/4)^2)/ (65/4) + ((15-65/4)^2/ (65/4) ) )
p4458
Vjmmcalex
p4459
tp4460
a(V65( ((30-65/2)^2)/ (65/2)+ ((20-65/4)^2)/ (65/4) + ((15-65/4)/ (65/4)^2 ) )
p4461
Vjmmcalex
p4462
tp4463
asS"['R.1.0.0', 'R.1.1']"
p4464
(lp4465
(g4382
g4383
tp4466
a(g4359
g4360
tp4467
a(V65(65/64)^2
p4468
Vyjshin
p4469
tp4470
a(g4291
g4292
tp4471
asS"['R.1.0.1.0.0.0', 'R.1.1.0.0.0']"
p4472
(lp4473
(g4114
g4115
tp4474
a(V65(((((35/60) - (1/2))/(1/2))^2)+((((20/65) - (1/4))/(1/4))^2)+((((15/65) - (1/4))/(1/4))^2))
p4475
Vjmmcalex
p4476
tp4477
a(g4213
g4214
tp4478
a(g4216
g4217
tp4479
a(g4129
g4130
tp4480
a(g4133
g4134
tp4481
a(g4136
g4137
tp4482
a(g4139
g4140
tp4483
a(g4142
g4143
tp4484
a(g4145
g4146
tp4485
a(g4148
g4149
tp4486
a(g4151
g4152
tp4487
a(g4154
g4155
tp4488
a(g4157
g4158
tp4489
a(g4160
g4161
tp4490
a(g4163
g4164
tp4491
a(g4166
g4167
tp4492
a(g4169
g4170
tp4493
a(g4172
g4173
tp4494
a(g4418
g4419
tp4495
a(g3975
g3976
tp4496
a(g4176
g4177
tp4497
a(g4179
g4180
tp4498
asS"['R.0.1.0.0.0', 'R.1.0.0.0']"
p4499
(lp4500
(V((25/(60-(1/2)))/(1/2))^2+((20/(60-(1/4)))/(1/4))^2+((15/(60-(1/4)))/(1/4))^2
p4501
Vmitopete
p4502
tp4503
a(V((30-(65*(1/3)))^2/ (65*(1/3))) + ((20-(65*(1/3)))^2/ (65*(1/3))) + ((15-(65*(1/3)))^2/ (65*(1/3)))
p4504
Vhmshah
p4505
tp4506
a(V( ((30-((1/3)65))^2/((1/3)65)) + ((20-((1/3)65))^2/((1/3)65)) + ((15-((1/3)65))^2/((1/3)65)))
p4507
Vasetters
p4508
tp4509
a(V((30 - (65/3))^2)/(65/3)+((20 - (65/3))^2)/(65/3)+((15 - (65/3))^2)/(65/3)
p4510
Vdaw023
p4511
tp4512
a(V((30-(65/3))^2)/(65(1/3))+((20-(65/3))^2)/(65(1/3))+((15-(65/3))^2)/(65(1/3))
p4513
Vdlt009
p4514
tp4515
a(V(((30)-(65/3))^2)/(65(1/3))+(((20)-(65/3))^2)/(65(1/3))+(((15)-(65/3))^2)/(65(1/3))
p4516
Vdlt009
p4517
tp4518
a(V((30/(65/2))/(65/2))^2+((20/(65-(65/4)))/(65/4))^2+((15/(65-(65/4)))/(65/4))^2
p4519
Vachinn
p4520
tp4521
a(V(30-65/3)^2/(65/3)+(20-65/3)^2/(65/3)+(15-65/3)^2/(65/3)
p4522
Vxweng
p4523
tp4524
a(V((30 - 32.5)/32.5) ^2 + ((20 - 16.25) /16.25)^2  + ((15 - 16.25)/16.25) ^2
p4525
Vkquong
p4526
tp4527
a(V((30-(65/3))/3)^2+((20-(65/3))/3)^2+((15-(65/3))/3)^2
p4528
Vyeh013
p4529
tp4530
a(V((30-(65/3))/(65/3))^2+((20-(65/3))/(65/3))^2+((15-(65/3))/(65/3))^2
p4531
Vyeh013
p4532
tp4533
a(V(30-(65/3))^2/(65/3)+(20-(65/3))^2/(65/3)+(15-(65/3))^2/(65/3)
p4534
Vyeh013
p4535
tp4536
a(V((30-(65/2))^2)/(65/2) + ((20-(65/2))^2)/(65/2) + ((15-(65/2))^2)/(65/2)
p4537
Vaordookh
p4538
tp4539
a(V(30-21.66)^2/21.66+(20-21.66)^2/21.66+(15-21.66)^2/21.66
p4540
Vsmall
p4541
tp4542
a(V(30-32.5)^2/32.5+(20-16.22)^2/16.22+(15-16.22)^2/16.22
p4543
Vsmall
p4544
tp4545
a(V((30/65-(1/2)/(1/2)))^2+((20/65-(1/4)/(1/4)))^2+ ((15/65-(1/4)/(1/4)))^2
p4546
Vbtn023
p4547
tp4548
a(V((30) - (65/3))^2/(65/3) + ((20) - (65/3))^2/(65/3) + ((15) - (65/3))^2/(65/3)
p4549
Vasrana
p4550
tp4551
a(V((30 - 1/2)/(1/2))^2 + ((20 - 1/4)/(1/4))^2 + ((15 - 1/4)/(1/4))^2
p4552
Vr2fisher
p4553
tp4554
a(g4005
g4006
tp4555
a(V(((30/65)-(1/3))/(1/3))^2+(((20/65)-(1/3))/(1/3))^2+(((15/65)-(1/3))/(1/3))^2
p4556
Vabjara
p4557
tp4558
a(V([[30/65]-[1/3]]/[1/3])^2+([[20/65]-[1/3]]/[1/3])^2+([[15/65]-[1/3]]/[1/3])^2
p4559
Veaherman
p4560
tp4561
a(V(((30/65) - (1/3))/(1/3))^2 + (((20/65) - (1/3))/(1/3))^2 + (((15/65) - (1/3))/(1/3))^2
p4562
Vasrana
p4563
tp4564
a(g4008
g4009
tp4565
asS"['R.1.1']"
p4566
(lp4567
(g4054
g4055
tp4568
a(V65*1/3*((30/65-1/3)^2*9+(15/65-1/3)^2*9+(20/65-1/3)^2*9)
p4569
Vjyc018
p4570
tp4571
a(V65((1/2)((30)/(65-(1/2)/(1/2))**2)+((1/4)(((20)/65-(1/4))/(1/4))**2))+(((1/4)((((15)/65-(1/4))/(1/4))**2)))
p4572
Vlalacson
p4573
tp4574
a(V65((1/2)(((30)/(65-(1/2)/(1/2)))**2)+((1/4)(((20)/65-(1/4))/(1/4))**2))+(((1/4)((((15)/65-(1/4))/(1/4))**2)))
p4575
Vlalacson
p4576
tp4577
a(g3940
g3941
tp4578
a(g4086
g4087
tp4579
a(g3928
g3929
tp4580
a(g3946
g3947
tp4581
a(g3949
g3950
tp4582
a(g4089
g4090
tp4583
a(g3931
g3932
tp4584
a(g3952
g3953
tp4585
a(g3955
g3956
tp4586
a(g3958
g3959
tp4587
a(g4092
g4093
tp4588
a(g3961
g3962
tp4589
a(g3964
g3965
tp4590
a(g4475
g4476
tp4591
a(g4216
g4217
tp4592
a(g3925
g3926
tp4593
a(g4114
g4115
tp4594
a(g4136
g4137
tp4595
a(g4142
g4143
tp4596
a(g3972
g3973
tp4597
a(g4418
g4419
tp4598
a(g4228
g4229
tp4599
a(g3937
g3938
tp4600
a(g3967
g3968
tp4601
a(g4133
g4134
tp4602
a(g4139
g4140
tp4603
a(g4145
g4146
tp4604
a(g4148
g4149
tp4605
a(g4151
g4152
tp4606
a(g4154
g4155
tp4607
a(g4160
g4161
tp4608
a(g4163
g4164
tp4609
a(g4166
g4167
tp4610
a(g4169
g4170
tp4611
a(g4172
g4173
tp4612
a(g4176
g4177
tp4613
a(g4179
g4180
tp4614
a(g4221
g4222
tp4615
a(g3990
g3991
tp4616
a(V3*(( (1/2)*( ( ((30/3)- (1/2)) /(1/2) )^(2) ) ) + ( (1/4)*( ((20/3)- (1/4)) /(1/4) )^(2) ) ) + ( (1/4)*( ( ((15/3)- (1/4)) /(1/4) ) ^ (2)))
p4617
Vj2phung
p4618
tp4619
a(V3*(( (1/2)*( ( ((30/3)- (1/2)) /(1/2) )^(2) ) ) + (1/4)*( ((20/3)- (1/4)) /(1/4) )^(2) ) + ( (1/4)*( ( ((15/3)- (1/4)) /(1/4) ) ^ (2)))
p4620
Vj2phung
p4621
tp4622
a(g3993
g3994
tp4623
a(g4046
g4047
tp4624
a(V65*((30/(65-(1/3)))/(1/3))^2
p4625
Vasetters
p4626
tp4627
a(g4343
g4344
tp4628
a(g4002
g4003
tp4629
a(g4005
g4006
tp4630
a(g4011
g4012
tp4631
a(g4370
g4371
tp4632
a(V(30/65-1/2)/(1/2)
p4633
Vffhaddad
p4634
tp4635
a(V((15 / 25 - 0.5)/ (0.5))^2 + ((5/ 25 - 0.25)/ (0.25))^2 + ((5 / 25 - 0.25)/ (0.25))^2
p4636
Vjhw015
p4637
tp4638
a(g4519
g4520
tp4639
a(g4014
g4015
tp4640
a(V((2(30/65 - 1/2))^2 + (4(20/65 - 1/4))^2 + (4(15/65 - 1/2))^2)
p4641
Vcagatep
p4642
tp4643
a(g4382
g4383
tp4644
a(V(((30/65)-(1/2))/(1/2))^2+(((20/65)-(1/4))/(1/4))^2+(((10/65)-(1/4))/(1/4))^2
p4645
Vabjara
p4646
tp4647
a(g4017
g4018
tp4648
a(g4556
g4557
tp4649
a(V((30-1)^2+(20-1)^2+(15-1)^2)
p4650
Vtak068
p4651
tp4652
a(V65*( ( (1/2)*( (30/65-(1/2)) / (1/2) ) ) + ( (1/4)*( (20/65-(1/4)) / (1/4) ) ) + ( (1/4)*( (15/65-(1/4)) / (1/4) ) ))^2
p4653
Vlcardoso
p4654
tp4655
a(V65( ((1/2 * (30/65 - 1/2))/(1/2))^2 )
p4656
Vjdeon
p4657
tp4658
a(g4525
g4526
tp4659
a(V65*( (1/3*((30/65)-(1/3))/(1/3))^2)
p4660
Vmbl003
p4661
tp4662
a(g4020
g4021
tp4663
a(g4531
g4532
tp4664
a(g4008
g4009
tp4665
a(V65((1/3(30/65)-(1/3))/(1/3))^2
p4666
Vgalu
p4667
tp4668
a(g4057
g4058
tp4669
a(g4468
g4469
tp4670
a(V(65/4)(((65/4)/(65-1/4))/(1/4))^2
p4671
Vyjshin
p4672
tp4673
a(g4288
g4289
tp4674
a(g4559
g4560
tp4675
a(g4023
g4024
tp4676
a(g4291
g4292
tp4677
a(V65*((.5)((30)/(65-.5))/.5)^2
p4678
Vb3hwang
p4679
tp4680
a(g4546
g4547
tp4681
a(g4026
g4027
tp4682
a(g4297
g4298
tp4683
a(g4029
g4030
tp4684
a(g4562
g4563
tp4685
a(g4032
g4033
tp4686
a(g4552
g4553
tp4687
a(g4035
g4036
tp4688
a(g4386
g4387
tp4689
a(g4359
g4360
tp4690
a(g4392
g4393
tp4691
a(V65((1/2((30/65-1/2)/1/2)^2))
p4692
Vt1tran
p4693
tp4694
a(V65 (((1/2)((30/65)-0.5)/(0.5))^2 + ((0.25)((20/65)-0.25)/(0.25))^2 + ((0.25)((15/65)-0.25)/(0.25))^2)
p4695
Vklala
p4696
tp4697
a(V65(((1/2)((30/65)-(1/2))/(1/2))^2 + ((1/4)((20/65)-(1/4))/(1/4))^2 + ((1/4)((15/65)-(1/4))/(1/4))^2)
p4698
Vjblynch
p4699
tp4700
a(g4097
g4098
tp4701
a(g4103
g4104
tp4702
a(g4366
g4367
tp4703
a(V65[( (1/2) ((30/65)-1/2)/(1/2))^2 + ( (1/4) ((20/65)-1/4) /(1/4))^2 + ( (1/4) ((15/65)-1/4) /(1/4))^2]
p4704
Vjmiclat
p4705
tp4706
a(V65(((.5)((30/65)-0.5)/0.5)^2 + ((1/4)((20/65)-1/4)/(1/4))^2 + ((1/4)((15/65)-1/4)/(1/4))^2)
p4707
Vacvuong
p4708
tp4709
a(g4106
g4107
tp4710
a(V65*( ( (1/2)*( (30/65-(1/2)) / (1/2) ) )^2 + ( (1/4)*( (20/65-(1/4)) / (1/4) ) )^2 + ( (1/4)*( (15/65-(1/4)) / (1/4) ) )^2 )
p4711
Vlcardoso
p4712
tp4713
a(g4109
g4110
tp4714
a(V65( (1/2((30/65 - 1/2))/(1/2))^2 + (1/4( (20/65 - 1/4))/(1/4))^2 + (1/4((15/65 - 1/4))/(1/4))^2 )
p4715
Vjdeon
p4716
tp4717
a(V65((1/2((30/65)-(1/2))/(1/2))^2 + (1/4((20/65)-(1/4))/(1/4))^2 + (1/4((15/65)-(1/4))/(1/4))^2) 
p4718
Vgalu
p4719
tp4720
a(g4402
g4403
tp4721
a(V65*((1/2*(((30/65)-1/2)/1/2)^2))
p4722
Vagoldsht
p4723
tp4724
a(V65 * (0.5*[[(30/65)-(1/2)]/[2]]^2)
p4725
Vmrchin
p4726
tp4727
a(g4363
g4364
tp4728
a(g3919
g3920
tp4729
a(g3922
g3923
tp4730
a(V65*(((.5*30/65-.5)/.5)^2+((.25*20/65-.25)/.25)^2+((.25*15/65-.25)/.25)^2)
p4731
Vkrau
p4732
tp4733
a(V65(((30/(65-.5))/(1/2))^(2)+((20/(65-.25))/(1/4))^(2)+((15/(65-(.25)))/(1/4))^(2))
p4734
Vlahawkin
p4735
tp4736
a(g3916
g3917
tp4737
a(g4528
g4529
tp4738
a(g4066
g4067
tp4739
a(V65.0*[(1/2)(((30/65)-(1/2))/(1/2))^2] + 65.0*[(1/4)((20/65)-(1/4)/(1/4))^2] + 65.0*[(1/4)((15/65)-(1/4)/(1/4))^2]
p4740
Vsrl006
p4741
tp4742
a(g4405
g4406
tp4743
a(V65 * [([30/(65-(1/2))]/(1/2))^2 + ([20/(65-(1/4))]/(1/4))^2 + ([15/(65-(1/4))]/(1/4))^2]
p4744
Vjfalcone
p4745
tp4746
a(g3975
g3976
tp4747
a(g3934
g3935
tp4748
asS"['R.1.0.0.1.0.0.0', 'R.1.0.1.1.0.0.0']"
p4749
(lp4750
(V65((1/2*((30/(65-1/2))/.5)^2)+(.25*((20/(65-.25))/.25)^2) +(.25*((15/(65-.25))/.25)^2))
p4751
Vtcn013
p4752
tp4753
a(V65[ 50*( (30/50)/50 )^2 + 60*( (20/60)/60)^2 + (65-(15/4)) * ( (15/(65-(15/4)))/(65-(15/4)))^2 ]
p4754
Vs2chaudh
p4755
tp4756
a(V65*(((1/3)((30/(65-(1/3)))/(1/3))^2)  +  ((1/3)((20/(65-(1/3)))/(1/3))^2) + ((1/3)((15/(65-(1/3)))/(1/3))^2)  )
p4757
Vasetters
p4758
tp4759
a(V65*(((1/3)((30/(65-(65/3)))/(1/3))^2) + ((1/3)((20/(65-(65/3)))/(1/3))^2) + ((1/3)((15/(65-(65/3)))/(1/3))^2) )
p4760
Vasetters
p4761
tp4762
a(V65*(((1/3)((30/(65-(65/3))))^2/(65/3)) + ((1/3)((20/(65-(65/3))))^2/(65/3)) + ((1/3)((15/(65-(65/3))))^2/(65/3))) 
p4763
Vasetters
p4764
tp4765
a(V65*[(1/2)*[(30/(65-(1/2)))/(1/2)]^2 + (1/4)*[(20/(65-(1/4)))/(1/4)]^2 + (1/4)*[(15/(65-(1/4)))/(1/4)]^2]
p4766
Vtol003
p4767
tp4768
a(V65((1/2)(((30)/(65-(1/2))/(1/2))**2)+((1/4)(((20)/(65-(1/4))/(1/4))**2))+(((1/4)(((15)/(65-(1/4))/(1/4))**2))))
p4769
Vlalacson
p4770
tp4771
a(V65*(((65/2)*((30/(65/2))/(65-(65/2)))^2)+((65/4)*((20/(65-(65/4)))/(65/4))^2)+((65/4)*((15/(65-(65/4)))/(65/4))^2))
p4772
Vachinn
p4773
tp4774
a(V65[ .5*( (30/(65-.5))/.5 )^2 + .25*( (20/(65-.25))/.25)^2 + .25 * ( (15/(65-.25))/.25)^2 ]
p4775
Vs2chaudh
p4776
tp4777
a(g4066
g4067
tp4778
a(V65((1/2)(((30)/(65-(1/2))/(1/2))**2)+((1/4)(((20)/(65-(1/4))/(1/4))**2))+(((1/4)((((15)/(65-(1/4))/(1/4)))**2))))
p4779
Vlalacson
p4780
tp4781
a(V65 * [.5 * ([30/(65-(1/2))]/(1/2))^2 + .25 * ([20/(65-(1/4))]/(1/4))^2 + .25* ([15/(65-(1/4))]/(1/4))^2]
p4782
Vjfalcone
p4783
tp4784
a(g4072
g4073
tp4785
a(V65*(((1/2)((30/(65 - (1/2)))/(1/2))^2) + ((1/4)((20/(65 - (1/4)))/(1/4))^2) + ((1/4)((15/(65 - (1/4)))/(1/4))^2))
p4786
Vanl114
p4787
tp4788
a(V65 * ((1/3 * ((30/65) - (1/3)/(1/3))^2 + (1/3 * ((20/65) - (1/3)/(1/3))^2) + (1/3 * ((15/65) - (1/3)/(1/3))^2)))
p4789
Vhah008
p4790
tp4791
asS"['R.1.0.0.1.0.0.0.0.0', 'R.1.0.1.1.0.0.0.0.0', 'R.1.1.1.0.0.0.0.0']"
p4792
(lp4793
(g4424
g4425
tp4794
a(V3*((1/2(((30/3) - 1/2)/1/2)^2) + (1/4(((20/3) - 1/4)/1/4)^2) + (1/4(((15/3) - 1/4)/1/4)^2))
p4795
Vhpc001
p4796
tp4797
a(V3*((1/2((((30/3) - 1/2)/1/2)^2)) + (1/4((((20/3) - 1/4)/1/4)^2)) + (1/4((((15/3) - 1/4)/1/4)^2)))
p4798
Vhpc001
p4799
tp4800
a(g4455
g4456
tp4801
asS"['R.0.1', 'R.1.0.0.0.0.0.0', 'R.1.0.1.0.0.0.0', 'R.1.1.0.0.0.0']"
p4802
(lp4803
(g4117
g4118
tp4804
a(g3972
g3973
tp4805
asS"['R.0.0', 'R.0.1']"
p4806
(lp4807
(g4120
g4121
tp4808
a(g4399
g4400
tp4809
a(g4043
g4044
tp4810
a(g4405
g4406
tp4811
a(g4418
g4419
tp4812
asS"['R.0', 'R.1.0.0', 'R.1.0.1.0']"
p4813
(lp4814
(g4060
g4061
tp4815
a(V65((1/2)(((30)/(65-(1/2))/(1/2))**2)+((1/4)(((30)/(65-(1/4))/(1/4))**2))+(1))
p4816
Vlalacson
p4817
tp4818
asS"['R.0.1', 'R.1']"
p4819
(lp4820
(g3925
g3926
tp4821
a(g3937
g3938
tp4822
a(g3967
g3968
tp4823
a(g3940
g3941
tp4824
a(g3928
g3929
tp4825
a(g3931
g3932
tp4826
a(g4300
g4301
tp4827
a(g3946
g3947
tp4828
a(g4234
g4235
tp4829
a(g3949
g3950
tp4830
a(g3958
g3959
tp4831
a(g3961
g3962
tp4832
a(g4268
g4269
tp4833
a(g3964
g3965
tp4834
a(g4117
g4118
tp4835
a(g4120
g4121
tp4836
a(V65.0*[(1/2)((30/65)-(1/2)/(1/2))^2] + 65.0*[(1/4)((20/65)-(1/4)/(1/4))^2] + 65.0*[(1/4)((15/65)-(1/4)/(1/4))^2]
p4837
Vsrl006
p4838
tp4839
a(g4740
g4741
tp4840
a(g3955
g3956
tp4841
a(g3919
g3920
tp4842
a(g3922
g3923
tp4843
asS"['R.0.1.0', 'R.1.0']"
p4844
(lp4845
(V1/2*((30/65) -1/2) / (1/2)^2 + 1/4*((20/65)-1/4) / (1/4)^2 + 1/4*((15/65)-1/4) / (1/4)^2
p4846
Vaurodrig
p4847
tp4848
a(g4297
g4298
tp4849
asS"['R.1.0.0.1.0.0', 'R.1.1']"
p4850
(lp4851
(g4370
g4371
tp4852
a(g4656
g4657
tp4853
asS"['R.0.0.1.0.0']"
p4854
(lp4855
(g3940
g3941
tp4856
a(g4005
g4006
tp4857
a(g4008
g4009
tp4858
a(g3946
g3947
tp4859
a(g3949
g3950
tp4860
a(g3952
g3953
tp4861
a(g3955
g3956
tp4862
a(g3958
g3959
tp4863
a(g3961
g3962
tp4864
a(g3964
g3965
tp4865
asS"['R.1.0.1.0.1', 'R.1.0.1.1.0']"
p4866
(lp4867
(V65*((1/3)*(10/65-1/3)/(1/3))
p4868
Vgsrandha
p4869
tp4870
a(g4641
g4642
tp4871
asS"['R.0.0.0.1', 'R.0.1.0.1', 'R.1.0.1.0']"
p4872
(lp4873
(g4641
g4642
tp4874
a(g4846
g4847
tp4875
asS"['R.1.0.0.1.0.0', 'R.1.0.1.1.0.0', 'R.1.1.1.0.0']"
p4876
(lp4877
(g4760
g4761
tp4878
a(g4763
g4764
tp4879
a(g4063
g4064
tp4880
a(V65((30/2)(((30)/(65-(30/2))/(30/2))**2)+((20/4)(((20)/(65-(20/4))/(20/4))**2))+(((15/4)(((15)/(65-(15/4))/(15/4))**2))))
p4881
Vlalacson
p4882
tp4883
a(g4754
g4755
tp4884
asS"['R.1.0.0.0.0', 'R.1.0.1.0.0.0', 'R.1.1.0.0.0']"
p4885
(lp4886
(g3975
g3976
tp4887
a(g4176
g4177
tp4888
a(g4179
g4180
tp4889
asS"['R.0.0.0']"
p4890
(lp4891
(V((30/65 - (1/3))/(1/3))
p4892
Vpcdo
p4893
tp4894
a(V(30-(65*(1/3)))^2/ ((65*(1/3)))
p4895
Vhmshah
p4896
tp4897
a(V((30-(65*(1/3)))^2/ (65*(1/3)))
p4898
Vhmshah
p4899
tp4900
a(V30(((1/2)(((30/2)/(30-(1/2)))/(1/2))**2))+ ((1/4)(((20/4)/(30-(1/4)))/(1/4))**2)+((1/4)(((15/4)/(30-(1/4)))/(1/4))**2)
p4901
Vlalacson
p4902
tp4903
a(V30 * 1/3 + 20 * 1/3 + 15 * 1/3
p4904
Vhah008
p4905
tp4906
a(V(30+20+15)*[1/2*([30/(30+20+15-1/2)]/(1/2))^2+1/4*([20/(30+20+15-1/4)]/(1/4))^2+1/4*([15/(30+20+15-1/4)]/(1/4))^2]
p4907
Vtjke
p4908
tp4909
a(g4221
g4222
tp4910
a(g3955
g3956
tp4911
a(g4633
g4634
tp4912
a(V(((30-32.5)^2)/32.5)+ (((20-16.25)^2)/16.25)+ (((20-16.25)^2)/16.25)
p4913
Vvsosnovs
p4914
tp4915
a(V(65*1/2 - 30)^2 / 30 + (65*1/4 - 20) / 20 + (65*1/4 - 15) / 15
p4916
Vdwzhang
p4917
tp4918
a(g4537
g4538
tp4919
a(g4543
g4544
tp4920
asS"['R.1.1.0.1']"
p4921
(lp4922
(V60*((1/2)*(((30)/(60)-(1/4))/(1/2)^(1/2)))
p4923
Vmitopete
p4924
tp4925
a(g4744
g4745
tp4926
a(g4109
g4110
tp4927
a(g4172
g4173
tp4928
a(g3952
g3953
tp4929
a(g4176
g4177
tp4930
a(g4402
g4403
tp4931
a(g4475
g4476
tp4932
a(g4179
g4180
tp4933
a(g4216
g4217
tp4934
asS"['R.1.1.0.0.1.0']"
p4935
(lp4936
(V65[( (30/50)/50 )^2 + ( (20/60)/60)^2 + ( (15/(65-(15/4)))/(65-(15/4)))^2 ]
p4937
Vs2chaudh
p4938
tp4939
a(V1/2*((30/(65-1/2)) / (1/2))^2 + 1/4*((30/(65-1/4)) / (1/4))^2 + 1/4*((30/(65-1/4)) / (1/4))^2
p4940
Vaurodrig
p4941
tp4942
a(g3916
g3917
tp4943
asS"['R.1.0.0.1.0.0', 'R.1.0.1', 'R.1.1']"
p4944
(lp4945
(g4370
g4371
tp4946
a(g4660
g4661
tp4947
a(g4666
g4667
tp4948
asS"['R.1.0.0.1.0.0.0', 'R.1.0.1.1.0.0.0', 'R.1.1.1.0.0.0']"
p4949
(lp4950
(g4751
g4752
tp4951
a(g4757
g4758
tp4952
a(g4760
g4761
tp4953
a(g4763
g4764
tp4954
a(g4063
g4064
tp4955
a(g4772
g4773
tp4956
a(g4066
g4067
tp4957
a(g4789
g4790
tp4958
a(g4766
g4767
tp4959
a(g4769
g4770
tp4960
a(g4775
g4776
tp4961
a(g4779
g4780
tp4962
a(g4782
g4783
tp4963
a(g4072
g4073
tp4964
a(g4786
g4787
tp4965
asS"['R.1.0.0.0', 'R.1.0.1.0.0.0']"
p4966
(lp4967
(V65(((30/(65-.5))/(1/2))^(1/2)+((20/(65-.5))/(1/4))^(1/2)+((25/(65-(.5)))/(1/4))^(1/2))
p4968
Vlahawkin
p4969
tp4970
a(g4734
g4735
tp4971
a(g4744
g4745
tp4972
asS"['R.1.1.0.0']"
p4973
(lp4974
(g3940
g3941
tp4975
a(g4129
g4130
tp4976
a(g4133
g4134
tp4977
a(g4139
g4140
tp4978
a(g4145
g4146
tp4979
a(g4148
g4149
tp4980
a(g4151
g4152
tp4981
a(g4154
g4155
tp4982
a(g4157
g4158
tp4983
a(g4160
g4161
tp4984
a(V65(1/2+((30/65-1/2)/1/2)^2+1/4+((20/65-1/4)/1/4)^2+1/4+((15/65-1/4)/1/4)^2)
p4985
Vjic212
p4986
tp4987
a(g4163
g4164
tp4988
a(g4166
g4167
tp4989
a(g4169
g4170
tp4990
a(g4172
g4173
tp4991
a(g4176
g4177
tp4992
a(g4475
g4476
tp4993
a(g4179
g4180
tp4994
a(g4216
g4217
tp4995
a(g3928
g3929
tp4996
a(g3946
g3947
tp4997
a(g4572
g4573
tp4998
a(g4575
g4576
tp4999
a(g3949
g3950
tp5000
a(g3931
g3932
tp5001
a(g3955
g3956
tp5002
a(g3958
g3959
tp5003
a(g3961
g3962
tp5004
a(g3964
g3965
tp5005
a(g4086
g4087
tp5006
a(g4692
g4693
tp5007
a(g4722
g4723
tp5008
a(g4355
g4356
tp5009
a(g3919
g3920
tp5010
a(g3922
g3923
tp5011
a(g3952
g3953
tp5012
a(V65(30/2)(((30)/(65-(30/2))/(30/2))**2)+((20/4)(((20)/(65-(20/4))/(20/4))**2))+(((15/4)(((15)/(65-(15/4))/(15/4))**2)))
p5013
Vlalacson
p5014
tp5015
a(g4937
g4938
tp5016
a(g4366
g4367
tp5017
a(g4040
g4041
tp5018
a(g4461
g4462
tp5019
a(g4395
g4396
tp5020
a(g4117
g4118
tp5021
a(V3*(((1/3-1/2)^(2)/(1/2))+((1/3-1/4)^(2)/(1/4))+((1/3-1/4)^(2)/(1/4)))
p5022
Vskarimik
p5023
tp5024
a(g4120
g4121
tp5025
a(g4123
g4124
tp5026
a(g4046
g4047
tp5027
a(g4399
g4400
tp5028
a(g4049
g4050
tp5029
a(g4089
g4090
tp5030
a(g4725
g4726
tp5031
a(g4402
g4403
tp5032
asS"['R.1.0.0.1.0.0.0.0', 'R.1.1.1.0.0.0.0']"
p5033
(lp5034
(V65((1/2((30/65-1/2)^2/1/2))+ ((1/4((15/65-1/4)^2/1/4)))+((1/4((20/65-1/4)^2/1/4)))) 
p5035
Vt1tran
p5036
tp5037
a(V65( (1/3(((30/65)-1/3)/1/3)^2) (1/3(((20/65)-1/3)/1/3)^2) (1/3(((20/65)-1/3)/1/3)^2) )
p5038
Vjmmcalex
p5039
tp5040
a(g4427
g4428
tp5041
asS"['R.1.1.0.0.1.0.0']"
p5042
(lp5043
(g3943
g3944
tp5044
a(g4106
g4107
tp5045
a(g4109
g4110
tp5046
a(g4100
g4101
tp5047
asS"['R.0.1.1', 'R.1.1.0.0']"
p5048
(lp5049
(g3928
g3929
tp5050
a(g3952
g3953
tp5051
a(g3931
g3932
tp5052
asS"['R.1']"
p5053
(lp5054
(V5/3
p5055
Vrlhagen
p5056
tp5057
a(V65*1/3
p5058
Vgsrandha
p5059
tp5060
a(V1/3
p5061
Vmitopete
p5062
tp5063
a(V65*([30/(65-1/3)]/(1/2))^2*3
p5064
Vxil109
p5065
tp5066
a(g4054
g4055
tp5067
a(g4176
g4177
tp5068
a(g4569
g4570
tp5069
a(g4114
g4115
tp5070
a(g4136
g4137
tp5071
a(g4142
g4143
tp5072
a(g4228
g4229
tp5073
a(V65/2
p5074
Vzhen_student
p5075
tp5076
a(g4258
g4259
tp5077
a(g4271
g4272
tp5078
a(g4250
g4251
tp5079
a(V0.5616*65
p5080
Vkalang
p5081
tp5082
a(g4306
g4307
tp5083
a(g4309
g4310
tp5084
a(g4312
g4313
tp5085
a(g3940
g3941
tp5086
a(g4572
g4573
tp5087
a(g4575
g4576
tp5088
a(g4656
g4657
tp5089
a(g3972
g3973
tp5090
a(g4418
g4419
tp5091
a(g4129
g4130
tp5092
a(g3928
g3929
tp5093
a(g3990
g3991
tp5094
a(g4617
g4618
tp5095
a(g4620
g4621
tp5096
a(g4133
g4134
tp5097
a(V70/13
p5098
Vjix029
p5099
tp5100
a(V49861/13
p5101
Vlrlai
p5102
tp5103
a(V55/13
p5104
Vlrlai
p5105
tp5106
a(V55/13
p5107
Vjix029
p5108
tp5109
a(g4363
g4364
tp5110
a(g4405
g4406
tp5111
a(g4139
g4140
tp5112
a(g4145
g4146
tp5113
a(g4148
g4149
tp5114
a(g4731
g4732
tp5115
a(g4151
g4152
tp5116
a(g4154
g4155
tp5117
a(V19/169
p5118
Vkosung
p5119
tp5120
a(V19*65/169
p5121
Vkosung
p5122
tp5123
a(g4160
g4161
tp5124
a(g4117
g4118
tp5125
a(g4123
g4124
tp5126
a(g4120
g4121
tp5127
a(g4373
g4374
tp5128
a(g4014
g4015
tp5129
a(g4017
g4018
tp5130
a(g4525
g4526
tp5131
a(g4020
g4021
tp5132
a(g4008
g4009
tp5133
a(g4023
g4024
tp5134
a(g4026
g4027
tp5135
a(g4029
g4030
tp5136
a(g4032
g4033
tp5137
a(g4035
g4036
tp5138
a(g4392
g4393
tp5139
a(g4376
g4377
tp5140
a(g3946
g3947
tp5141
a(g4163
g4164
tp5142
a(g4382
g4383
tp5143
a(g4234
g4235
tp5144
a(g3949
g3950
tp5145
a(g3931
g3932
tp5146
a(g3955
g3956
tp5147
a(g3958
g3959
tp5148
a(g3961
g3962
tp5149
a(g4268
g4269
tp5150
a(g4300
g4301
tp5151
a(g3964
g3965
tp5152
a(g4166
g4167
tp5153
a(g4645
g4646
tp5154
a(g3919
g3920
tp5155
a(g3922
g3923
tp5156
a(g4386
g4387
tp5157
a(g4169
g4170
tp5158
a(g4172
g4173
tp5159
a(g4288
g4289
tp5160
a(g4359
g4360
tp5161
a(g4179
g4180
tp5162
a(g4216
g4217
tp5163
asS"['R.0.1.0.0']"
p5164
(lp5165
(V(25 - 30)^2/30 + (20 - 15)^2/15 + (15 - 15)^2/15
p5166
Vquwong
p5167
tp5168
a(V(30 - 60/2)^2/(60/2) + (20 - 60/4)^2/(60/4) + (15 - 60/4)^2/(60/4)
p5169
Vquwong
p5170
tp5171
a(g4077
g4078
tp5172
a(g5013
g5014
tp5173
a(g4650
g4651
tp5174
a(g4005
g4006
tp5175
a(g4297
g4298
tp5176
a(g4008
g4009
tp5177
asS"['R.0.0', 'R.1']"
p5178
(lp5179
(g5058
g5059
tp5180
a(g5064
g5065
tp5181
asS"['R.1.0.1.0.1.0.0', 'R.1.1.0.1.0.0']"
p5182
(lp5183
(V65[((30)((30/65)-1/2)/(1/2)) + ((20)(20/65)-1/4)/(1/4) + ((15)(15/65)-1/4)/(1/4)]
p5184
Vjmiclat
p5185
tp5186
a(V65*(((.5)((30)/(65-.5))/.5)^2 + ((.25)((20)/(65-.25))/.25)^2 +((.25)((15)/(65-.25))/.25)^2)
p5187
Vb3hwang
p5188
tp5189
asS"['R.1.0.0.1.0.0.1']"
p5190
(lp5191
(g4816
g4817
tp5192
a(g4072
g4073
tp5193
a(g4907
g4908
tp5194
asS"['R.1.0.1.0']"
p5195
(lp5196
(g4054
g4055
tp5197
a(g4641
g4642
tp5198
a(g4129
g4130
tp5199
a(g4846
g4847
tp5200
a(g4133
g4134
tp5201
a(g4139
g4140
tp5202
a(g4145
g4146
tp5203
a(g4060
g4061
tp5204
a(g4546
g4547
tp5205
a(g4148
g4149
tp5206
a(g4151
g4152
tp5207
a(g4154
g4155
tp5208
a(g4157
g4158
tp5209
a(g4160
g4161
tp5210
a(g4197
g4198
tp5211
a(g4163
g4164
tp5212
a(g4166
g4167
tp5213
a(g4169
g4170
tp5214
a(g4172
g4173
tp5215
asS"['R.0.0.0.0.0']"
p5216
(lp5217
(g4504
g4505
tp5218
a(g4913
g4914
tp5219
a(g4507
g4508
tp5220
a(g4253
g4254
tp5221
a(g4268
g4269
tp5222
a(g4300
g4301
tp5223
a(g4510
g4511
tp5224
a(g4513
g4514
tp5225
a(g4516
g4517
tp5226
asS"['R.1.0.0', 'R.1.0.1.0.0.0', 'R.1.1.0.0.0']"
p5227
(lp5228
(g4129
g4130
tp5229
a(g3975
g3976
tp5230
a(g4133
g4134
tp5231
a(g4139
g4140
tp5232
a(g4145
g4146
tp5233
a(g4148
g4149
tp5234
a(g4151
g4152
tp5235
a(g4437
g4438
tp5236
a(g4734
g4735
tp5237
a(g4744
g4745
tp5238
a(g4154
g4155
tp5239
a(g4157
g4158
tp5240
a(g4160
g4161
tp5241
a(g4163
g4164
tp5242
a(g4166
g4167
tp5243
a(g4169
g4170
tp5244
a(g4172
g4173
tp5245
a(g4475
g4476
tp5246
a(g4213
g4214
tp5247
asS"['R.1.0.1.0.0.1']"
p5248
(lp5249
(g4355
g4356
tp5250
a(g4288
g4289
tp5251
a(g4363
g4364
tp5252
a(g4366
g4367
tp5253
a(g4395
g4396
tp5254
a(g4405
g4406
tp5255
a(g3972
g3973
tp5256
asS"['R.1.1.0']"
p5257
(lp5258
(g4355
g4356
tp5259
a(g4692
g4693
tp5260
a(g4722
g4723
tp5261
a(g4725
g4726
tp5262
a(g4049
g4050
tp5263
a(g4080
g4081
tp5264
asS"['R.0.0.1.0.0', 'R.0.1.1', 'R.1.1.0.0']"
p5265
(lp5266
(g3940
g3941
tp5267
a(g3952
g3953
tp5268
a(g3946
g3947
tp5269
a(g3949
g3950
tp5270
a(g3955
g3956
tp5271
a(g3958
g3959
tp5272
a(g3961
g3962
tp5273
a(g3964
g3965
tp5274
asS"['R.0.0.0.0.0.0', 'R.0.1.0.0.0.0']"
p5275
(lp5276
(V(((30/3)-(65/3))^2)/(65(1/3))+(((20/3)-(65/3))^2)/(65(1/3))+(((15/3)-(65/3))^2)/(65(1/3))
p5277
Vdlt009
p5278
tp5279
a(g4645
g4646
tp5280
a(g4340
g4341
tp5281
a(g4346
g4347
tp5282
a(g4343
g4344
tp5283
asS"['R.1.0.0.0.1', 'R.1.0.1', 'R.1.1']"
p5284
(lp5285
(g4370
g4371
tp5286
a(g4556
g4557
tp5287
a(g4559
g4560
tp5288
a(g4562
g4563
tp5289
asS"['R.0.1.0.0.0.0', 'R.1.0.0.0.0']"
p5290
(lp5291
(g4202
g4203
tp5292
a(g5277
g5278
tp5293
a(g4340
g4341
tp5294
a(g4346
g4347
tp5295
a(g4343
g4344
tp5296
a(g4002
g4003
tp5297
a(g4005
g4006
tp5298
a(g4011
g4012
tp5299
a(g4014
g4015
tp5300
a(g4234
g4235
tp5301
a(g4017
g4018
tp5302
a(g4556
g4557
tp5303
a(g4020
g4021
tp5304
a(g4008
g4009
tp5305
a(g4559
g4560
tp5306
a(g4023
g4024
tp5307
a(g4026
g4027
tp5308
a(g4029
g4030
tp5309
a(g4562
g4563
tp5310
a(g4032
g4033
tp5311
a(g4035
g4036
tp5312
a(g4205
g4206
tp5313
a(g4208
g4209
tp5314
asS"['R.1.0.1.0.1']"
p5315
(lp5316
(g4968
g4969
tp5317
a(g4157
g4158
tp5318
a(g4434
g4435
tp5319
a(g4437
g4438
tp5320
a(g4868
g4869
tp5321
a(g4846
g4847
tp5322
a(g4399
g4400
tp5323
asS"['R.1.0.0.1.0.0.0.0.0']"
p5324
(lp5325
(g5035
g5036
tp5326
a(g4795
g4796
tp5327
a(g4798
g4799
tp5328
a(g5038
g5039
tp5329
a(g4427
g4428
tp5330
asS"['R.1.0', 'R.1.1.0.0']"
p5331
(lp5332
(g4129
g4130
tp5333
a(g4157
g4158
tp5334
a(g4133
g4134
tp5335
a(g4139
g4140
tp5336
a(g4145
g4146
tp5337
a(g4148
g4149
tp5338
a(g4151
g4152
tp5339
a(g4154
g4155
tp5340
a(g4160
g4161
tp5341
a(g4163
g4164
tp5342
a(g4166
g4167
tp5343
a(g4169
g4170
tp5344
a(g4172
g4173
tp5345
a(g4176
g4177
tp5346
a(g4179
g4180
tp5347
a(g4216
g4217
tp5348
asS"['R.1.0.0.0.0.1']"
p5349
(lp5350
(V60 * ( ((25/60-.5)^2)/.5 + ((20/60-.25)^2)/.25 + ((15/60-.25)^2)/.25 )
p5351
Vedescobe
p5352
tp5353
a(V65 * ([(((30/65 - 0.5)/0.5)^2)/2] + [(((20/65 - 0.25)/0.25)^2)/2] + [(((15/65 - 0.25)/0.25)^2)/2])
p5354
Vmhale
p5355
tp5356
a(g4129
g4130
tp5357
a(g4133
g4134
tp5358
a(g4139
g4140
tp5359
a(g4145
g4146
tp5360
a(g4148
g4149
tp5361
a(g4043
g4044
tp5362
a(g4268
g4269
tp5363
a(g4300
g4301
tp5364
a(g4297
g4298
tp5365
asS"['R.1.1.1']"
p5366
(lp5367
(g4086
g4087
tp5368
a(g4221
g4222
tp5369
a(g3990
g3991
tp5370
a(g3993
g3994
tp5371
a(g4352
g4353
tp5372
a(V65(((1/2(30/65-1/2)/1/2)^2)+ (((1/4(15/65-1/4)/1/4)^2))+(((1/4(20/65-1/4)/1/4)^2))) 
p5373
Vt1tran
p5374
tp5375
a(g4695
g4696
tp5376
a(g4136
g4137
tp5377
a(g4698
g4699
tp5378
a(g4363
g4364
tp5379
a(g4142
g4143
tp5380
a(g4731
g4732
tp5381
a(g4097
g4098
tp5382
a(g4103
g4104
tp5383
a(g5354
g5355
tp5384
a(V65 * ([(((30/65 - 0.5)^2)*2)/2] + [(((20/65 - 0.25)/0.25)^2)/2] + [(((15/65 - 0.25)/0.25)^2)/2])
p5385
Vmhale
p5386
tp5387
a(V65 * ([(((30/65 - 0.5)*2)^2)/2] + [(((20/65 - 0.25)/0.25)^2)/2] + [(((15/65 - 0.25)/0.25)^2)/2])
p5388
Vmhale
p5389
tp5390
a(g4434
g4435
tp5391
a(g4437
g4438
tp5392
a(g4734
g4735
tp5393
a(g4157
g4158
tp5394
a(g4901
g4902
tp5395
a(g5013
g5014
tp5396
a(g4366
g4367
tp5397
a(g4704
g4705
tp5398
a(g4117
g4118
tp5399
a(g4120
g4121
tp5400
a(g4123
g4124
tp5401
a(g4985
g4986
tp5402
a(g4707
g4708
tp5403
a(g3913
g3914
tp5404
a(g4617
g4618
tp5405
a(g4620
g4621
tp5406
a(V1-(3/C(45,2))
p5407
Vppanourg
p5408
tp5409
a(V65[( (30/55)/55)^2 + ( (30/(65-(20/3)))/(65-(20/3)))^2  + ( (30/62)/62)^2 ]
p5410
Vs2chaudh
p5411
tp5412
a(V65[( (65/55)/55)^2 + ( (65/(65-(20/3)))/(65-(20/3)))^2 + ( (65/60)/60)^2 ]
p5413
Vs2chaudh
p5414
tp5415
a(g4937
g4938
tp5416
a(g4197
g4198
tp5417
a(g4106
g4107
tp5418
a(g4046
g4047
tp5419
a(g4399
g4400
tp5420
a(g4043
g4044
tp5421
a(g4405
g4406
tp5422
a(V60*((1/2)*((((30)/(60)-(1/2))/(1/2))^(2)) + (1/4)*(((20)/(60)-(1/4))/(1/4))^(2)) + (1/4)*((((15)/(60)-(1/4))/(1/4))^(2))
p5423
Vmitopete
p5424
tp5425
a(g3972
g3973
tp5426
a(g4744
g4745
tp5427
a(g4711
g4712
tp5428
a(g4109
g4110
tp5429
a(g4715
g4716
tp5430
a(g4186
g4187
tp5431
a(g3967
g3968
tp5432
a(g4100
g4101
tp5433
a(g4418
g4419
tp5434
a(g4069
g4070
tp5435
a(V65((1/3((30/65)-(1/3))/(1/3))^2 + (1/3((20/65)-(1/3))/(1/3))^2 + (1/3((15/65)-(1/3))/(1/3))^2)
p5436
Vgalu
p5437
tp5438
a(g4718
g4719
tp5439
a(g4228
g4229
tp5440
a(g3975
g3976
tp5441
a(g4940
g4941
tp5442
a(g3916
g3917
tp5443
a(g4846
g4847
tp5444
a(g3919
g3920
tp5445
a(g3922
g3923
tp5446
a(g4080
g4081
tp5447
a(g5187
g5188
tp5448
a(g3934
g3935
tp5449
a(g4402
g4403
tp5450
a(g4213
g4214
tp5451
a(g4163
g4164
tp5452
a(g4572
g4573
tp5453
a(g4575
g4576
tp5454
a(g4166
g4167
tp5455
a(g4169
g4170
tp5456
a(g3949
g3950
tp5457
a(g4172
g4173
tp5458
a(g3931
g3932
tp5459
a(g3952
g3953
tp5460
a(g3955
g3956
tp5461
a(g3958
g3959
tp5462
a(g4092
g4093
tp5463
a(g3961
g3962
tp5464
a(g4176
g4177
tp5465
a(g4725
g4726
tp5466
a(g3964
g3965
tp5467
a(g4475
g4476
tp5468
a(g4179
g4180
tp5469
a(g4216
g4217
tp5470
a(g4837
g4838
tp5471
a(g4789
g4790
tp5472
a(g4740
g4741
tp5473
asS"['R.1.0.1.0.0.0']"
p5474
(lp5475
(g5410
g5411
tp5476
a(g4057
g4058
tp5477
asS"['R.1.0.0.0.0.0']"
p5478
(lp5479
(g4569
g4570
tp5480
a(g4157
g4158
tp5481
a(g3975
g3976
tp5482
a(g4352
g4353
tp5483
a(g5354
g5355
tp5484
a(g5385
g5386
tp5485
a(g5388
g5389
tp5486
a(g4968
g4969
tp5487
a(g4043
g4044
tp5488
a(g4359
g4360
tp5489
a(g4434
g4435
tp5490
a(g4437
g4438
tp5491
a(g4734
g4735
tp5492
a(g4937
g4938
tp5493
a(g4744
g4745
tp5494
a(V65( ((30-65/2)^2)/ (65/3) + ((20-65/4)^2)/ (65/4) + ((15-65/4)^2/ (65/4) ) )
p5495
Vjmmcalex
p5496
tp5497
a(g4458
g4459
tp5498
a(g4461
g4462
tp5499
asS"['R.1.0.0.1.0']"
p5500
(lp5501
(g4373
g4374
tp5502
a(g4300
g4301
tp5503
a(g4376
g4377
tp5504
a(g4656
g4657
tp5505
a(g4660
g4661
tp5506
a(g4666
g4667
tp5507
a(g4671
g4672
tp5508
a(V1/2*((30/(65-1/2)) / (1/2))^2
p5509
Vaurodrig
p5510
tp5511
asS"['R.1.0.0.0.1', 'R.1.0.1.0.1']"
p5512
(lp5513
(g4355
g4356
tp5514
a(g4157
g4158
tp5515
asS"['R.0.0', 'R.0.1.0.0.0']"
p5516
(lp5517
(g4913
g4914
tp5518
a(g4537
g4538
tp5519
a(g4543
g4544
tp5520
asS"['R.1.0.0.0', 'R.1.1']"
p5521
(lp5522
(g4370
g4371
tp5523
a(g4382
g4383
tp5524
a(g4386
g4387
tp5525
a(g4392
g4393
tp5526
asS"['R.1.0.1.0.0.1', 'R.1.1']"
p5527
(lp5528
(g4057
g4058
tp5529
a(g4288
g4289
tp5530
asS"['R.1.0.0.0.1.0.0', 'R.1.0.1.0.1.0.0', 'R.1.1.0.1.0.0']"
p5531
(lp5532
(g4695
g4696
tp5533
a(g5436
g5437
tp5534
a(g4698
g4699
tp5535
a(g4704
g4705
tp5536
a(g4707
g4708
tp5537
a(g4197
g4198
tp5538
a(g5187
g5188
tp5539
a(g4711
g4712
tp5540
a(g4715
g4716
tp5541
a(g4718
g4719
tp5542
a(g4228
g4229
tp5543
asS"['R.1.0.0.1']"
p5544
(lp5545
(g4373
g4374
tp5546
a(g5022
g5023
tp5547
a(g4376
g4377
tp5548
a(g4382
g4383
tp5549
a(V(65/2)(((65/2)/(65-1/2))/(1/2))^2
p5550
Vyjshin
p5551
tp5552
a(g5509
g5510
tp5553
asS"['R.1.0.0', 'R.1.0.1.0.0.0']"
p5554
(lp5555
(g4434
g4435
tp5556
a(g4734
g4735
tp5557
a(g4744
g4745
tp5558
asS"['R.1.0.0.1.0.0.0']"
p5559
(lp5560
(g4757
g4758
tp5561
a(V65((1/2)(((30)/(65-(1/2))/(1/2))**2)+(1)+(1))
p5562
Vlalacson
p5563
tp5564
a(g4816
g4817
tp5565
a(g4760
g4761
tp5566
a(g4763
g4764
tp5567
a(g4063
g4064
tp5568
a(g4772
g4773
tp5569
a(g4754
g4755
tp5570
a(g4066
g4067
tp5571
a(g4789
g4790
tp5572
a(g5184
g5185
tp5573
a(g4775
g4776
tp5574
a(g4779
g4780
tp5575
a(g4782
g4783
tp5576
a(g4072
g4073
tp5577
a(g4786
g4787
tp5578
asS"['R.1.0.1.0.1.0.0']"
p5579
(lp5580
(g5184
g5185
tp5581
a(V65*(((1/3)*(10/(65-1/3))/(1/3)) + ((1/3)*((20/3)/(65-1/3))/(1/3)) +((1/3)*(5/(65-1/3))/(1/3)))
p5582
Vgsrandha
p5583
tp5584
a(g4197
g4198
tp5585
a(g4228
g4229
tp5586
a(g5187
g5188
tp5587
asS"['R.0.0.0.0.0.0', 'R.0.0.0.0.0.1']"
p5588
(lp5589
(g4253
g4254
tp5590
a(g4297
g4298
tp5591
asS"['R.0.1.1.1.0.0.0.0', 'R.1.1.0.0.0.0']"
p5592
(lp5593
(g4617
g4618
tp5594
a(g4572
g4573
tp5595
a(g4575
g4576
tp5596
a(g4620
g4621
tp5597
a(g5423
g5424
tp5598
asS"['R.0.0.0.1.0.0.0']"
p5599
(lp5600
(V65*(30/65-1/3)^2/(1/3)+65*(20/65-1/3)^2/(1/3)+65*(15/65-1/3)^2/(1/3)
p5601
Vvqt004
p5602
tp5603
a(g4306
g4307
tp5604
a(g4288
g4289
tp5605
a(g4291
g4292
tp5606
asS"['R.1.1.0.0.0.0', 'R.1.1.0.0.1.0']"
p5607
(lp5608
(V60*((1/2)*((((30)/(60)-(1/2))/(1/2))^(1/2)))
p5609
Vmitopete
p5610
tp5611
a(g4725
g4726
tp5612
a(V60*((1/2)*((((30)/(60)-(1/2))/(1/2))^(2)))
p5613
Vmitopete
p5614
tp5615
asS"['R.1.0.1.1']"
p5616
(lp5617
(g4054
g4055
tp5618
a(g5601
g5602
tp5619
a(g4114
g4115
tp5620
a(g4136
g4137
tp5621
a(g4142
g4143
tp5622
a(g4731
g4732
tp5623
a(g4097
g4098
tp5624
a(g4103
g4104
tp5625
a(g4157
g4158
tp5626
a(g4117
g4118
tp5627
a(g4120
g4121
tp5628
a(g4123
g4124
tp5629
a(g4707
g4708
tp5630
a(g5410
g5411
tp5631
a(g5413
g5414
tp5632
a(g4937
g4938
tp5633
a(g4046
g4047
tp5634
a(V60*((1/2)*((30)/(60)-(1/4))/(1/2)^(1/2))
p5635
Vmitopete
p5636
tp5637
a(g4291
g4292
tp5638
a(g4399
g4400
tp5639
a(g4043
g4044
tp5640
a(g4405
g4406
tp5641
a(g4100
g4101
tp5642
a(g4172
g4173
tp5643
a(g5436
g5437
tp5644
asS"['R.0.0.0.1.1']"
p5645
(lp5646
(g4641
g4642
tp5647
a(g4291
g4292
tp5648
asS"['R.0.1.0']"
p5649
(lp5650
(g4892
g4893
tp5651
a(g4271
g4272
tp5652
a(g4359
g4360
tp5653
a(g4392
g4393
tp5654
a(g3910
g3911
tp5655
a(g4306
g4307
tp5656
a(g4309
g4310
tp5657
a(g4312
g4313
tp5658
a(V(1/2)+(1/4)+(1/4)
p5659
Vbtn023
p5660
tp5661
asS"['R.0.0.1.0.0.0.0', 'R.0.1.1.0.0.0.0', 'R.1.1.0.0.0.0']"
p5662
(lp5663
(g3925
g3926
tp5664
a(g3990
g3991
tp5665
a(g3993
g3994
tp5666
a(g3940
g3941
tp5667
a(g3943
g3944
tp5668
a(g3946
g3947
tp5669
a(g3949
g3950
tp5670
a(g3952
g3953
tp5671
a(g3955
g3956
tp5672
a(g3958
g3959
tp5673
a(g3961
g3962
tp5674
a(g3964
g3965
tp5675
asS"['R.0.1', 'R.1.0']"
p5676
(lp5677
(g4043
g4044
tp5678
a(g4386
g4387
tp5679
asS"['R.1.1.0.0.0.0']"
p5680
(lp5681
(g4332
g4333
tp5682
a(g5351
g5352
tp5683
a(g4114
g4115
tp5684
a(g4129
g4130
tp5685
a(g4133
g4134
tp5686
a(g4136
g4137
tp5687
a(g4139
g4140
tp5688
a(g4142
g4143
tp5689
a(g4145
g4146
tp5690
a(g4148
g4149
tp5691
a(g4151
g4152
tp5692
a(g4154
g4155
tp5693
a(g4157
g4158
tp5694
a(g4160
g4161
tp5695
a(g4117
g4118
tp5696
a(g4120
g4121
tp5697
a(g4123
g4124
tp5698
a(g4126
g4127
tp5699
a(g4617
g4618
tp5700
a(g4620
g4621
tp5701
a(g4163
g4164
tp5702
a(g4572
g4573
tp5703
a(g4575
g4576
tp5704
a(g4166
g4167
tp5705
a(g4169
g4170
tp5706
a(g5423
g5424
tp5707
a(g3972
g3973
tp5708
a(g4172
g4173
tp5709
a(g3975
g3976
tp5710
a(g4176
g4177
tp5711
a(g4475
g4476
tp5712
a(g4179
g4180
tp5713
a(g4213
g4214
tp5714
a(g4216
g4217
tp5715
a(g4335
g4336
tp5716
a(g3925
g3926
tp5717
a(g3937
g3938
tp5718
a(g3940
g3941
tp5719
a(g3928
g3929
tp5720
a(g3990
g3991
tp5721
a(g3993
g3994
tp5722
a(g4901
g4902
tp5723
a(g3943
g3944
tp5724
a(g3946
g3947
tp5725
a(g3949
g3950
tp5726
a(g3967
g3968
tp5727
a(g3931
g3932
tp5728
a(g3952
g3953
tp5729
a(g3955
g3956
tp5730
a(g3958
g3959
tp5731
a(g3961
g3962
tp5732
a(g3964
g3965
tp5733
a(g3934
g3935
tp5734
a(g4086
g4087
tp5735
a(g5609
g5610
tp5736
a(g5613
g5614
tp5737
a(g5354
g5355
tp5738
a(g4985
g4986
tp5739
a(g5385
g5386
tp5740
a(g5388
g5389
tp5741
a(g4089
g4090
tp5742
a(g4092
g4093
tp5743
asS"['R.0.0.0.0.0', 'R.0.1.0.0.0', 'R.1.0.0.0']"
p5744
(lp5745
(g4504
g4505
tp5746
a(g4519
g4520
tp5747
a(g4525
g4526
tp5748
a(g4537
g4538
tp5749
a(g4540
g4541
tp5750
a(g4543
g4544
tp5751
a(g4546
g4547
tp5752
a(g4552
g4553
tp5753
a(g4507
g4508
tp5754
a(g4510
g4511
tp5755
a(g4513
g4514
tp5756
a(g4516
g4517
tp5757
a(g4002
g4003
tp5758
a(g4556
g4557
tp5759
a(g4559
g4560
tp5760
a(g4562
g4563
tp5761
a(g4011
g4012
tp5762
a(g4522
g4523
tp5763
a(g4528
g4529
tp5764
a(g4531
g4532
tp5765
a(g4534
g4535
tp5766
a(g4549
g4550
tp5767
a(g4014
g4015
tp5768
a(g4234
g4235
tp5769
a(g4017
g4018
tp5770
a(g4020
g4021
tp5771
a(g4023
g4024
tp5772
a(g4026
g4027
tp5773
a(g4029
g4030
tp5774
a(g4032
g4033
tp5775
a(g4035
g4036
tp5776
asS"['R.1.1.0.0.0.1']"
p5777
(lp5778
(g4725
g4726
tp5779
a(g3964
g3965
tp5780
asS"['R.1.0.0.1', 'R.1.0.1.1', 'R.1.1.1']"
p5781
(lp5782
(g4066
g4067
tp5783
a(g4789
g4790
tp5784
asS"['R.1.0.1.0.1.1.1']"
p5785
(lp5786
(g4040
g4041
tp5787
a(g5410
g5411
tp5788
a(g5413
g5414
tp5789
asS"['R.1.0.0.0.0.0', 'R.1.1']"
p5790
(lp5791
(g4569
g4570
tp5792
a(g4129
g4130
tp5793
a(g4133
g4134
tp5794
a(g4139
g4140
tp5795
a(g4145
g4146
tp5796
a(g4148
g4149
tp5797
a(g4151
g4152
tp5798
a(g4154
g4155
tp5799
a(g4160
g4161
tp5800
a(g4163
g4164
tp5801
a(g4166
g4167
tp5802
a(g4169
g4170
tp5803
a(g4172
g4173
tp5804
a(g4176
g4177
tp5805
a(g4179
g4180
tp5806
asS"['R.0.1.0.0.0']"
p5807
(lp5808
(g5166
g5167
tp5809
a(g4504
g4505
tp5810
a(g4507
g4508
tp5811
a(g4510
g4511
tp5812
a(g4513
g4514
tp5813
a(g4516
g4517
tp5814
a(g4519
g4520
tp5815
a(g4522
g4523
tp5816
a(g4525
g4526
tp5817
a(g4528
g4529
tp5818
a(g4531
g4532
tp5819
a(g4534
g4535
tp5820
a(g4537
g4538
tp5821
a(g4540
g4541
tp5822
a(g4543
g4544
tp5823
a(g4546
g4547
tp5824
a(g4549
g4550
tp5825
a(g4552
g4553
tp5826
a(g4501
g4502
tp5827
a(g5169
g5170
tp5828
a(V(30-65/3)^2/(65/3)+(30-65/3)^2/(65/3)+(30-65/3)^2/(65/3)
p5829
Vxweng
p5830
tp5831
a(g5064
g5065
tp5832
asS"['R.0.0.0.0', 'R.0.1.0.0', 'R.1.0.0']"
p5833
(lp5834
(g4504
g4505
tp5835
a(g4528
g4529
tp5836
a(g4531
g4532
tp5837
a(g4507
g4508
tp5838
a(g4510
g4511
tp5839
a(g4513
g4514
tp5840
a(g4516
g4517
tp5841
a(g4002
g4003
tp5842
a(g4234
g4235
tp5843
a(g4011
g4012
tp5844
a(g4014
g4015
tp5845
a(g4522
g4523
tp5846
a(g4017
g4018
tp5847
a(g4020
g4021
tp5848
a(g4023
g4024
tp5849
a(g4026
g4027
tp5850
a(g4029
g4030
tp5851
a(g4032
g4033
tp5852
a(g4035
g4036
tp5853
a(g4534
g4535
tp5854
a(g4549
g4550
tp5855
asS"['R.1.0.0.0.0.0', 'R.1.0.0.0.1', 'R.1.0.1.0.0.0']"
p5856
(lp5857
(g4355
g4356
tp5858
a(g4434
g4435
tp5859
asS"['R.1.0.0.0']"
p5860
(lp5861
(g4501
g4502
tp5862
a(g4881
g4882
tp5863
a(g4054
g4055
tp5864
a(g5635
g5636
tp5865
a(g4504
g4505
tp5866
a(g4355
g4356
tp5867
a(g4653
g4654
tp5868
a(g4625
g4626
tp5869
a(g5184
g5185
tp5870
a(g5829
g5830
tp5871
a(g4507
g4508
tp5872
a(g4510
g4511
tp5873
a(g4513
g4514
tp5874
a(g4516
g4517
tp5875
a(g4060
g4061
tp5876
a(g4795
g4796
tp5877
a(g4798
g4799
tp5878
a(g4366
g4367
tp5879
a(V65*((1/3)*(10/65-1/3)/1/3)
p5880
Vgsrandha
p5881
tp5882
a(g4117
g4118
tp5883
a(g4120
g4121
tp5884
a(g4123
g4124
tp5885
a(g4370
g4371
tp5886
a(g4373
g4374
tp5887
a(g4376
g4377
tp5888
a(g4261
g4262
tp5889
a(g4399
g4400
tp5890
a(g4386
g4387
tp5891
a(g4382
g4383
tp5892
a(g4392
g4393
tp5893
asS"['R.1.0.0.1.0.0']"
p5894
(lp5895
(g5184
g5185
tp5896
a(g4066
g4067
tp5897
a(g4789
g4790
tp5898
asS"['R.1.0.1.0.0']"
p5899
(lp5900
(g4763
g4764
tp5901
a(g4653
g4654
tp5902
a(g5354
g5355
tp5903
a(g5601
g5602
tp5904
a(g4288
g4289
tp5905
a(g4291
g4292
tp5906
a(g5385
g5386
tp5907
a(g5388
g5389
tp5908
a(g5635
g5636
tp5909
a(g4678
g4679
tp5910
asS"['R.0.1.1', 'R.1.1.0.0.0']"
p5911
(lp5912
(g3952
g3953
tp5913
a(g3934
g3935
tp5914
asS"['R.1.1.0.1.0.0']"
p5915
(lp5916
(g5184
g5185
tp5917
a(g4080
g4081
tp5918
a(g4197
g4198
tp5919
a(g4228
g4229
tp5920
asS"['R.1.0.0.0', 'R.1.0.1.0']"
p5921
(lp5922
(g4054
g4055
tp5923
a(g4846
g4847
tp5924
asS"['R.0.0.0.0.0', 'R.0.1', 'R.1']"
p5925
(lp5926
(g4268
g4269
tp5927
a(g4300
g4301
tp5928
asS"['R.1.0.0.1.0.0.0.0']"
p5929
(lp5930
(g4424
g4425
tp5931
a(g5035
g5036
tp5932
a(g4455
g4456
tp5933
asS"['R.1.0.1', 'R.1.1']"
p5934
(lp5935
(g4379
g4380
tp5936
a(g4754
g4755
tp5937
a(g4475
g4476
tp5938
a(g4179
g4180
tp5939
asS"['R.1.0.0.1.0.0.0', 'R.1.0.0.1.0.0.1']"
p5940
(lp5941
(g5562
g5563
tp5942
a(g4072
g4073
tp5943
asS"['R.1.1.0.0', 'R.1.1.1']"
p5944
(lp5945
(g4086
g4087
tp5946
a(g4725
g4726
tp5947
a(g4092
g4093
tp5948
asS"['R.0']"
p5949
(lp5950
(g5055
g5056
tp5951
a(g4537
g4538
tp5952
a(g4054
g4055
tp5953
a(g5074
g5075
tp5954
a(V65(1.48315429688+0.6591796875+0.370788574219)
p5955
Vaportuga
p5956
tp5957
a(V65(0.0493096646943+0.00197238658777+0.0315581854043)
p5958
Vaportuga
p5959
tp5960
a(g4114
g4115
tp5961
a(g4751
g4752
tp5962
a(g4355
g4356
tp5963
a(g4625
g4626
tp5964
a(g4757
g4758
tp5965
a(g4760
g4761
tp5966
a(g4763
g4764
tp5967
a(g4424
g4425
tp5968
a(g4692
g4693
tp5969
a(g4352
g4353
tp5970
a(g5373
g5374
tp5971
a(g5035
g5036
tp5972
a(g4695
g4696
tp5973
a(g4136
g4137
tp5974
a(g4698
g4699
tp5975
a(g4363
g4364
tp5976
a(g4142
g4143
tp5977
a(g5058
g5059
tp5978
a(g4060
g4061
tp5979
a(g4766
g4767
tp5980
a(g4731
g4732
tp5981
a(g4097
g4098
tp5982
a(g4103
g4104
tp5983
a(g5354
g5355
tp5984
a(g5385
g5386
tp5985
a(g5388
g5389
tp5986
a(g4968
g4969
tp5987
a(g4434
g4435
tp5988
a(g4437
g4438
tp5989
a(g4734
g4735
tp5990
a(g5562
g5563
tp5991
a(g4816
g4817
tp5992
a(g4769
g4770
tp5993
a(g4063
g4064
tp5994
a(g4881
g4882
tp5995
a(g4366
g4367
tp5996
a(g5184
g5185
tp5997
a(g4704
g4705
tp5998
a(g5880
g5881
tp5999
a(g4868
g4869
tp6000
a(V65*((1/3)*(10/(65-1/3))/(1/3))
p6001
Vgsrandha
p6002
tp6003
a(V65*(((1/3)*(10/(65-1/3))/(1/3)) + ((1/3)*(10/(65-1/3))/(1/3)) +((1/3)*(10/(65-1/3))/(1/3)))
p6004
Vgsrandha
p6005
tp6006
a(g5582
g5583
tp6007
a(g4040
g4041
tp6008
a(g4395
g4396
tp6009
a(g4123
g4124
tp6010
a(g4126
g4127
tp6011
a(g4985
g4986
tp6012
a(g4707
g4708
tp6013
a(g4772
g4773
tp6014
a(g5410
g5411
tp6015
a(g5413
g5414
tp6016
a(g4937
g4938
tp6017
a(g4379
g4380
tp6018
a(g4754
g4755
tp6019
a(g4775
g4776
tp6020
a(g4066
g4067
tp6021
a(g4779
g4780
tp6022
a(g4722
g4723
tp6023
a(g4106
g4107
tp6024
a(g4049
g4050
tp6025
a(g4744
g4745
tp6026
a(g4782
g4783
tp6027
a(g4653
g4654
tp6028
a(g4711
g4712
tp6029
a(g4656
g4657
tp6030
a(g4109
g4110
tp6031
a(g4715
g4716
tp6032
a(g4660
g4661
tp6033
a(g4100
g4101
tp6034
a(g4069
g4070
tp6035
a(g4666
g4667
tp6036
a(g5436
g5437
tp6037
a(g4718
g4719
tp6038
a(g4468
g4469
tp6039
a(g4228
g4229
tp6040
a(g3975
g3976
tp6041
a(g4678
g4679
tp6042
a(g5187
g5188
tp6043
a(g4072
g4073
tp6044
a(g4786
g4787
tp6045
a(g4725
g4726
tp6046
a(g4789
g4790
tp6047
a(g4907
g4908
tp6048
a(g5038
g5039
tp6049
a(g4427
g4428
tp6050
a(g4455
g4456
tp6051
a(g4389
g4390
tp6052
a(g5495
g5496
tp6053
a(g4458
g4459
tp6054
a(g4402
g4403
tp6055
a(g4461
g4462
tp6056
a(g4213
g4214
tp6057
a(V65*(1/2*((((30/65)-1/2)/(1/2))^2+1/4*(((20/65)-1/4)/(1/4))^2+1/4*(((15/65)-1/4)/(1/4))^2))
p6058
Vc4du
p6059
tp6060
a(g4129
g4130
tp6061
a(g4086
g4087
tp6062
a(g4133
g4134
tp6063
a(g4139
g4140
tp6064
a(g4145
g4146
tp6065
a(g4148
g4149
tp6066
a(g4151
g4152
tp6067
a(g4154
g4155
tp6068
a(g4157
g4158
tp6069
a(g4160
g4161
tp6070
a(g4197
g4198
tp6071
a(g4163
g4164
tp6072
a(g4166
g4167
tp6073
a(g4169
g4170
tp6074
a(g4172
g4173
tp6075
a(g4089
g4090
tp6076
a(g4057
g4058
tp6077
a(g4092
g4093
tp6078
a(g4475
g4476
tp6079
a(g4179
g4180
tp6080
a(g4216
g4217
tp6081
a(g5277
g5278
tp6082
a(g4904
g4905
tp6083
a(g4002
g4003
tp6084
a(g4641
g4642
tp6085
a(g4645
g4646
tp6086
a(g4011
g4012
tp6087
a(g4014
g4015
tp6088
a(g5407
g5408
tp6089
a(g5061
g5062
tp6090
a(V1/9
p6091
Vmitopete
p6092
tp6093
a(g4017
g4018
tp6094
a(g4525
g4526
tp6095
a(g4020
g4021
tp6096
a(g4023
g4024
tp6097
a(g4026
g4027
tp6098
a(g4029
g4030
tp6099
a(g4032
g4033
tp6100
a(g4035
g4036
tp6101
a(g4556
g4557
tp6102
a(g4846
g4847
tp6103
a(g4046
g4047
tp6104
a(V3*(65((1/3)((3/65-1/3)/(1/3))^2))
p6105
Vmsaguiar
p6106
tp6107
a(g5022
g5023
tp6108
a(g4795
g4796
tp6109
a(g4798
g4799
tp6110
a(g4176
g4177
tp6111
a(g4450
g4451
tp6112
a(g5635
g5636
tp6113
a(g4923
g4924
tp6114
a(g5609
g5610
tp6115
a(g5613
g5614
tp6116
a(g4399
g4400
tp6117
a(g4405
g4406
tp6118
a(g4186
g4187
tp6119
a(g4043
g4044
tp6120
a(g4531
g4532
tp6121
a(g4559
g4560
tp6122
a(g4562
g4563
tp6123
a(g4359
g4360
tp6124
a(g4392
g4393
tp6125
asS"['R.1.0.0']"
p6126
(lp6127
(g4751
g4752
tp6128
a(g5562
g5563
tp6129
a(g4355
g4356
tp6130
a(g4268
g4269
tp6131
a(g4300
g4301
tp6132
a(g4424
g4425
tp6133
a(g5038
g5039
tp6134
a(g4695
g4696
tp6135
a(g5385
g5386
tp6136
a(g4698
g4699
tp6137
a(g4363
g4364
tp6138
a(g4043
g4044
tp6139
a(g4766
g4767
tp6140
a(g4731
g4732
tp6141
a(g4097
g4098
tp6142
a(g4103
g4104
tp6143
a(g4002
g4003
tp6144
a(g4656
g4657
tp6145
a(g4005
g4006
tp6146
a(g4816
g4817
tp6147
a(g4769
g4770
tp6148
a(g4775
g4776
tp6149
a(g4779
g4780
tp6150
a(g4782
g4783
tp6151
a(g4786
g4787
tp6152
a(g4907
g4908
tp6153
a(g4011
g4012
tp6154
a(g4373
g4374
tp6155
a(g4359
g4360
tp6156
a(g4376
g4377
tp6157
a(g4014
g4015
tp6158
a(g4197
g4198
tp6159
a(g3975
g3976
tp6160
a(g4234
g4235
tp6161
a(g4017
g4018
tp6162
a(g4020
g4021
tp6163
a(g4008
g4009
tp6164
a(g4023
g4024
tp6165
a(g4026
g4027
tp6166
a(g4029
g4030
tp6167
a(g4032
g4033
tp6168
a(g4035
g4036
tp6169
a(g4427
g4428
tp6170
asS"['R.1.0.0', 'R.1.0.1']"
p6171
(lp6172
(g5038
g5039
tp6173
a(g4455
g4456
tp6174
asS"['R.0.1.1', 'R.1']"
p6175
(lp6176
(g4572
g4573
tp6177
a(g4575
g4576
tp6178
asS"['R.0.0.1.0.0', 'R.0.1', 'R.1']"
p6179
(lp6180
(g3940
g3941
tp6181
a(g3955
g3956
tp6182
a(g3946
g3947
tp6183
a(g3949
g3950
tp6184
a(g3958
g3959
tp6185
a(g3961
g3962
tp6186
a(g3964
g3965
tp6187
asS"['R']"
p6188
(lp6189
(V2.5
p6190
Vrlhagen
p6191
tp6192
a(g5166
g5167
tp6193
a(V2.5
p6194
Vquwong
p6195
tp6196
a(V2.5
p6197
Veyhu
p6198
tp6199
a(g5351
g5352
tp6200
a(V2.5
p6201
Vedescobe
p6202
tp6203
a(g4205
g4206
tp6204
a(g4208
g4209
tp6205
a(g5055
g5056
tp6206
a(g5169
g5170
tp6207
a(g4450
g4451
tp6208
a(g4054
g4055
tp6209
a(g4129
g4130
tp6210
a(g4133
g4134
tp6211
a(g4139
g4140
tp6212
a(g4145
g4146
tp6213
a(g4148
g4149
tp6214
a(g4151
g4152
tp6215
a(g4154
g4155
tp6216
a(g5104
g5105
tp6217
a(g4160
g4161
tp6218
a(g4163
g4164
tp6219
a(g4166
g4167
tp6220
a(g4169
g4170
tp6221
a(g5107
g5108
tp6222
a(g4172
g4173
tp6223
a(g3952
g3953
tp6224
a(g4179
g4180
tp6225
a(g4216
g4217
tp6226
a(g4569
g4570
tp6227
a(g5958
g5959
tp6228
a(g4504
g4505
tp6229
a(g4507
g4508
tp6230
a(g4510
g4511
tp6231
a(g5098
g5099
tp6232
a(g4513
g4514
tp6233
a(g4516
g4517
tp6234
a(g4522
g4523
tp6235
a(g3972
g3973
tp6236
a(g4418
g4419
tp6237
a(g4534
g4535
tp6238
a(g5601
g5602
tp6239
a(V5.38461538462
p6240
Vakhmelni
p6241
tp6242
a(g4549
g4550
tp6243
a(g4309
g4310
tp6244
a(g4312
g4313
tp6245
a(g3937
g3938
tp6246
a(g3967
g3968
tp6247
a(g3940
g3941
tp6248
a(g3946
g3947
tp6249
a(g4234
g4235
tp6250
a(g3949
g3950
tp6251
a(g3958
g3959
tp6252
a(g3961
g3962
tp6253
a(g4268
g4269
tp6254
a(g3964
g3965
tp6255
a(g4114
g4115
tp6256
a(g4136
g4137
tp6257
a(g4142
g4143
tp6258
a(g4228
g4229
tp6259
a(g4086
g4087
tp6260
a(g4089
g4090
tp6261
a(g4092
g4093
tp6262
a(g4392
g4393
tp6263
a(g3928
g3929
tp6264
a(g4645
g4646
tp6265
a(g3931
g3932
tp6266
a(g3955
g3956
tp6267
a(g4895
g4896
tp6268
a(g4898
g4899
tp6269
a(g4751
g4752
tp6270
a(g4060
g4061
tp6271
a(g4766
g4767
tp6272
a(V66.88242201542722
p6273
Vflhernan
p6274
tp6275
a(g4769
g4770
tp6276
a(g4775
g4776
tp6277
a(g4779
g4780
tp6278
a(g4782
g4783
tp6279
a(V66.8824
p6280
Vdsmonaha
p6281
tp6282
a(g4786
g4787
tp6283
a(g4907
g4908
tp6284
a(g4757
g4758
tp6285
a(g4306
g4307
tp6286
a(g4424
g4425
tp6287
a(g4455
g4456
tp6288
a(g4692
g4693
tp6289
a(g4722
g4723
tp6290
a(g4725
g4726
tp6291
a(g4359
g4360
tp6292
a(g4352
g4353
tp6293
a(g5035
g5036
tp6294
a(g4695
g4696
tp6295
a(g4698
g4699
tp6296
a(g4097
g4098
tp6297
a(g4103
g4104
tp6298
a(g4366
g4367
tp6299
a(g4704
g4705
tp6300
a(g4707
g4708
tp6301
a(g4106
g4107
tp6302
a(g4711
g4712
tp6303
a(g4109
g4110
tp6304
a(g4715
g4716
tp6305
a(g4718
g4719
tp6306
a(g4402
g4403
tp6307
a(g4363
g4364
tp6308
a(g4731
g4732
tp6309
a(g5058
g5059
tp6310
a(g4904
g4905
tp6311
a(g5277
g5278
tp6312
a(g4789
g4790
tp6313
a(g5354
g5355
tp6314
a(g5388
g5389
tp6315
a(g4734
g4735
tp6316
a(g4744
g4745
tp6317
a(g4340
g4341
tp6318
a(g4346
g4347
tp6319
a(g4002
g4003
tp6320
a(g4011
g4012
tp6321
a(g4014
g4015
tp6322
a(g4017
g4018
tp6323
a(g4525
g4526
tp6324
a(g4020
g4021
tp6325
a(g4023
g4024
tp6326
a(g4026
g4027
tp6327
a(g4029
g4030
tp6328
a(g4032
g4033
tp6329
a(g4035
g4036
tp6330
a(g4005
g4006
tp6331
a(g4008
g4009
tp6332
a(g4373
g4374
tp6333
a(g4376
g4377
tp6334
a(g4382
g4383
tp6335
a(V0.5616
p6336
Vkalang
p6337
tp6338
a(V0.5616
p6339
Vasrana
p6340
tp6341
a(g4617
g4618
tp6342
a(g4620
g4621
tp6343
a(g4066
g4067
tp6344
a(g4837
g4838
tp6345
a(g4556
g4557
tp6346
a(g4531
g4532
tp6347
a(g4559
g4560
tp6348
a(g4562
g4563
tp6349
a(g5635
g5636
tp6350
a(g4923
g4924
tp6351
a(g5061
g5062
tp6352
a(g5022
g5023
tp6353
a(g6105
g6106
tp6354
a(g4186
g4187
tp6355
a(g4660
g4661
tp6356
a(g4057
g4058
tp6357
a(g4100
g4101
tp6358
a(g5436
g5437
tp6359
a(g4795
g4796
tp6360
a(g4798
g4799
tp6361
a(g5509
g5510
tp6362
a(g4080
g4081
tp6363
a(g5187
g5188
tp6364
asS"['R.1.0.0.0.0.0', 'R.1.1.0.0']"
p6365
(lp6366
(g4043
g4044
tp6367
a(g4461
g4462
tp6368
asS"['R.1.0.0.0.0.0.0']"
p6369
(lp6370
(g4569
g4570
tp6371
a(g4117
g4118
tp6372
a(g4120
g4121
tp6373
a(g4123
g4124
tp6374
a(g4126
g4127
tp6375
asS"['R.0', 'R.1.0.1', 'R.1.1']"
p6376
(lp6377
(g4054
g4055
tp6378
a(g4475
g4476
tp6379
a(g4399
g4400
tp6380
a(g4043
g4044
tp6381
asS"['R.1.0.0.0', 'R.1.0.1', 'R.1.1']"
p6382
(lp6383
(g5495
g5496
tp6384
a(g4458
g4459
tp6385
asS"['R.0', 'R.1.0.0']"
p6386
(lp6387
(g4060
g4061
tp6388
a(g5562
g5563
tp6389
a(g4043
g4044
tp6390
a(g4405
g4406
tp6391
asS"['R.1.0.0.0.1.0.0']"
p6392
(lp6393
(g4695
g4696
tp6394
a(g4653
g4654
tp6395
a(g4698
g4699
tp6396
a(g4704
g4705
tp6397
a(g4707
g4708
tp6398
a(g4711
g4712
tp6399
a(g4715
g4716
tp6400
a(g5436
g5437
tp6401
a(g4718
g4719
tp6402
asS"['R.1.0.0.1.0.0.0', 'R.1.0.0.1.0.0.1', 'R.1.0.1.1.0.0.0', 'R.1.1.1.0.0.0']"
p6403
(lp6404
(g4751
g4752
tp6405
a(g4072
g4073
tp6406
a(g4766
g4767
tp6407
a(g4769
g4770
tp6408
a(g4775
g4776
tp6409
a(g4779
g4780
tp6410
a(g4782
g4783
tp6411
a(g4786
g4787
tp6412
asS"['R.1.0.1', 'R.1.1.0.0']"
p6413
(lp6414
(g4129
g4130
tp6415
a(g4475
g4476
tp6416
a(g4133
g4134
tp6417
a(g4139
g4140
tp6418
a(g4145
g4146
tp6419
a(g4148
g4149
tp6420
a(g4151
g4152
tp6421
a(g4154
g4155
tp6422
a(g4157
g4158
tp6423
a(g4160
g4161
tp6424
a(g4163
g4164
tp6425
a(g4166
g4167
tp6426
a(g4169
g4170
tp6427
a(g4172
g4173
tp6428
a(g4176
g4177
tp6429
asS"['R.0.0.0.0.1']"
p6430
(lp6431
(g4202
g4203
tp6432
a(V((30/65 - .5)^2/.5 + (20/65 - .25)^2/.25 + (15/65 - .25)^2/.25) * 65 +4
p6433
Vargau
p6434
tp6435
a(g4300
g4301
tp6436
a(g4340
g4341
tp6437
a(g4346
g4347
tp6438
a(g4343
g4344
tp6439
a(g4002
g4003
tp6440
a(g4011
g4012
tp6441
a(g4636
g4637
tp6442
a(g4014
g4015
tp6443
a(g4261
g4262
tp6444
a(g4645
g4646
tp6445
a(g4017
g4018
tp6446
a(g4020
g4021
tp6447
a(g4023
g4024
tp6448
a(g4026
g4027
tp6449
asS"['R.1.0.0.0.0', 'R.1.0.0.1']"
p6450
(lp6451
(g4373
g4374
tp6452
a(g4049
g4050
tp6453
a(g4376
g4377
tp6454
a(g4382
g4383
tp6455
asS"['R.1.0.0.0.1']"
p6456
(lp6457
(g4355
g4356
tp6458
a(g4133
g4134
tp6459
a(g4139
g4140
tp6460
a(g4145
g4146
tp6461
a(g4148
g4149
tp6462
a(g4731
g4732
tp6463
a(g4151
g4152
tp6464
a(g4154
g4155
tp6465
a(g4160
g4161
tp6466
a(g4117
g4118
tp6467
a(g4120
g4121
tp6468
a(g4123
g4124
tp6469
a(g4163
g4164
tp6470
a(g4166
g4167
tp6471
a(g4169
g4170
tp6472
a(g4172
g4173
tp6473
a(g4176
g4177
tp6474
a(g4475
g4476
tp6475
a(g4179
g4180
tp6476
a(g4213
g4214
tp6477
a(g4216
g4217
tp6478
a(g4366
g4367
tp6479
a(g4370
g4371
tp6480
a(g4234
g4235
tp6481
a(g4373
g4374
tp6482
a(g4645
g4646
tp6483
a(g4556
g4557
tp6484
a(g4559
g4560
tp6485
a(g4562
g4563
tp6486
a(g4376
g4377
tp6487
a(g4382
g4383
tp6488
a(g4043
g4044
tp6489
a(g4916
g4917
tp6490
a(g4402
g4403
tp6491
a(g4359
g4360
tp6492
asS"['R.1.1.1.0.0.0']"
p6493
(lp6494
(g4751
g4752
tp6495
a(g4837
g4838
tp6496
a(g4740
g4741
tp6497
a(g4757
g4758
tp6498
a(g4760
g4761
tp6499
a(g4763
g4764
tp6500
a(g4766
g4767
tp6501
a(g4769
g4770
tp6502
a(g4772
g4773
tp6503
a(g4775
g4776
tp6504
a(g4779
g4780
tp6505
a(g4782
g4783
tp6506
a(g4072
g4073
tp6507
a(g4786
g4787
tp6508
asS"['R.1.0.1']"
p6509
(lp6510
(g4569
g4570
tp6511
a(g4399
g4400
tp6512
a(g4043
g4044
tp6513
a(g4197
g4198
tp6514
a(g4475
g4476
tp6515
asS"['R.1.0.0.1.0', 'R.1.1']"
p6516
(lp6517
(g4625
g4626
tp6518
a(g4528
g4529
tp6519
a(g4660
g4661
tp6520
a(g4666
g4667
tp6521
asS"['R.0.1.0.0.1.1']"
p6522
(lp6523
(g4504
g4505
tp6524
a(g5064
g5065
tp6525
asS"['R.1.0.0.0', 'R.1.1.0']"
p6526
(lp6527
(g4395
g4396
tp6528
a(g4100
g4101
tp6529
asS"['R.0.1.0.1.0.0.0.0', 'R.0.1.1.1.0.0.0.0', 'R.1.1.0.0.0.0']"
p6530
(lp6531
(g4617
g4618
tp6532
a(g5423
g5424
tp6533
a(g4620
g4621
tp6534
asS"['R.0.0.1.1.0.0.0']"
p6535
(lp6536
(g3937
g3938
tp6537
a(g4740
g4741
tp6538
a(g3967
g3968
tp6539
asS"['R.1.0.0.0.0', 'R.1.0.1.0.0', 'R.1.1.0.0']"
p6540
(lp6541
(g4355
g4356
tp6542
a(g4363
g4364
tp6543
a(g4395
g4396
tp6544
a(g4405
g4406
tp6545
a(g4366
g4367
tp6546
a(g4402
g4403
tp6547
a(g4040
g4041
tp6548
a(g4046
g4047
tp6549
a(g4399
g4400
tp6550
a(g4049
g4050
tp6551
a(g4117
g4118
tp6552
a(g4126
g4127
tp6553
a(g4120
g4121
tp6554
asS"['R.1.0.0.0', 'R.1.0.1']"
p6555
(lp6556
(g5495
g5496
tp6557
a(g4461
g4462
tp6558
asS"['R.1.0.0.0.0', 'R.1.0.1.0']"
p6559
(lp6560
(g4968
g4969
tp6561
a(g4437
g4438
tp6562
asS"['R.0.0', 'R.0.1.0.0.0', 'R.1.0.0.0']"
p6563
(lp6564
(g4537
g4538
tp6565
a(g4543
g4544
tp6566
asS"['R.1.0.0.0.0.0', 'R.1.0.1.0.0.0', 'R.1.1.0.0.0']"
p6567
(lp6568
(g4114
g4115
tp6569
a(g4129
g4130
tp6570
a(g4133
g4134
tp6571
a(g4139
g4140
tp6572
a(g4145
g4146
tp6573
a(g4148
g4149
tp6574
a(g4151
g4152
tp6575
a(g4154
g4155
tp6576
a(g4157
g4158
tp6577
a(g4160
g4161
tp6578
a(g4163
g4164
tp6579
a(g4166
g4167
tp6580
a(g4169
g4170
tp6581
a(g4172
g4173
tp6582
a(g4176
g4177
tp6583
a(g4179
g4180
tp6584
a(g4136
g4137
tp6585
a(g4142
g4143
tp6586
a(g4418
g4419
tp6587
a(g4355
g4356
tp6588
a(g4937
g4938
tp6589
a(g5495
g5496
tp6590
a(g4458
g4459
tp6591
a(g4363
g4364
tp6592
a(g4437
g4438
tp6593
a(g4734
g4735
tp6594
a(g4744
g4745
tp6595
a(g4366
g4367
tp6596
a(g4395
g4396
tp6597
a(g4405
g4406
tp6598
a(g4402
g4403
tp6599
asS"['R.0.1.1.0.0.0.0']"
p6600
(lp6601
(g4901
g4902
tp6602
a(g3943
g3944
tp6603
a(g3946
g3947
tp6604
a(g3949
g3950
tp6605
a(g3967
g3968
tp6606
a(g3931
g3932
tp6607
a(g3952
g3953
tp6608
a(g3955
g3956
tp6609
a(g3958
g3959
tp6610
a(g3961
g3962
tp6611
a(g3964
g3965
tp6612
a(g3934
g3935
tp6613
asS"['R.1.0.0.1.1']"
p6614
(lp6615
(g4370
g4371
tp6616
a(g5495
g5496
tp6617
a(g4386
g4387
tp6618
asS"['R.0.1.1.0.0.0.0', 'R.1.1.0.0.0.0']"
p6619
(lp6620
(g4332
g4333
tp6621
a(g3925
g3926
tp6622
a(g3937
g3938
tp6623
a(g3940
g3941
tp6624
a(g3928
g3929
tp6625
a(g3990
g3991
tp6626
a(g3993
g3994
tp6627
a(g4901
g4902
tp6628
a(g3943
g3944
tp6629
a(g3946
g3947
tp6630
a(g3949
g3950
tp6631
a(g3967
g3968
tp6632
a(g3931
g3932
tp6633
a(g3952
g3953
tp6634
a(g3955
g3956
tp6635
a(g3958
g3959
tp6636
a(g3961
g3962
tp6637
a(g3964
g3965
tp6638
a(g3934
g3935
tp6639
a(g4335
g4336
tp6640
asS"['R.0.0', 'R.0.1', 'R.1.0.0.0.0.0.0', 'R.1.0.1.0.0.0.0', 'R.1.1.0.0.0.0']"
p6641
(lp6642
(g4120
g4121
tp6643
a(g3972
g3973
tp6644
asS"['R.0.0.1.0.0.0.0']"
p6645
(lp6646
(g3990
g3991
tp6647
a(g4005
g4006
tp6648
a(g4008
g4009
tp6649
a(g3922
g3923
tp6650
a(g3993
g3994
tp6651
asS"['R.1.1.1.1']"
p6652
(lp6653
(g5635
g5636
tp6654
a(g4782
g4783
tp6655
a(g6105
g6106
tp6656
a(g4795
g4796
tp6657
a(g4798
g4799
tp6658
a(g4072
g4073
tp6659
a(g4786
g4787
tp6660
a(g4789
g4790
tp6661
a(g4907
g4908
tp6662
a(g5038
g5039
tp6663
a(g4427
g4428
tp6664
a(g4455
g4456
tp6665
a(g4461
g4462
tp6666
asS"['R.0.0', 'R.1.1.0.0.0.0']"
p6667
(lp6668
(g4120
g4121
tp6669
a(g4572
g4573
tp6670
a(g4575
g4576
tp6671
asS"['R.0', 'R.1.0.1.0']"
p6672
(lp6673
(g4060
g4061
tp6674
a(g4653
g4654
tp6675
asS"['R.0.0.1.1.0']"
p6676
(lp6677
(g3928
g3929
tp6678
a(g4309
g4310
tp6679
a(g4312
g4313
tp6680
a(g3931
g3932
tp6681
asS"['R.1.0.1.0.0.0.0', 'R.1.1.0.0.0.0']"
p6682
(lp6683
(g5351
g5352
tp6684
a(g4114
g4115
tp6685
a(g4129
g4130
tp6686
a(g4133
g4134
tp6687
a(g4136
g4137
tp6688
a(g4139
g4140
tp6689
a(g4142
g4143
tp6690
a(g4145
g4146
tp6691
a(g4148
g4149
tp6692
a(g4151
g4152
tp6693
a(g4154
g4155
tp6694
a(g4157
g4158
tp6695
a(g4160
g4161
tp6696
a(g4117
g4118
tp6697
a(g4120
g4121
tp6698
a(g4123
g4124
tp6699
a(g4126
g4127
tp6700
a(g4163
g4164
tp6701
a(g4166
g4167
tp6702
a(g4169
g4170
tp6703
a(g3972
g3973
tp6704
a(g4172
g4173
tp6705
a(g3975
g3976
tp6706
a(g4176
g4177
tp6707
a(g4475
g4476
tp6708
a(g4179
g4180
tp6709
a(g4213
g4214
tp6710
a(g4216
g4217
tp6711
asS"['R.0.0.1.1.0.0.0', 'R.0.1.1.0.0.0', 'R.1.1.0.0.0']"
p6712
(lp6713
(g3937
g3938
tp6714
a(g3928
g3929
tp6715
a(g3931
g3932
tp6716
a(g3934
g3935
tp6717
a(g3967
g3968
tp6718
asS"['R.1.0.0', 'R.1.0.1.1.0.0.1']"
p6719
(lp6720
(g4751
g4752
tp6721
a(g4816
g4817
tp6722
a(g4766
g4767
tp6723
asS"['R.0', 'R.1.0.0.1.0.0']"
p6724
(lp6725
(g4060
g4061
tp6726
a(g4656
g4657
tp6727
a(g4660
g4661
tp6728
a(g4666
g4667
tp6729
asS"['R.0.0.0.0', 'R.0.1.0.0']"
p6730
(lp6731
(g4002
g4003
tp6732
a(g4297
g4298
tp6733
a(g4913
g4914
tp6734
a(g4525
g4526
tp6735
a(g4011
g4012
tp6736
a(g4014
g4015
tp6737
a(g4234
g4235
tp6738
a(g4645
g4646
tp6739
a(g4017
g4018
tp6740
a(g4020
g4021
tp6741
a(g4023
g4024
tp6742
a(g4026
g4027
tp6743
asS"['R.1.0.1.0.1.0', 'R.1.1.0.1.0']"
p6744
(lp6745
(g5184
g5185
tp6746
a(g4197
g4198
tp6747
a(g4228
g4229
tp6748
asS"['R.1.0.0.0', 'R.1.0.0.1.0']"
p6749
(lp6750
(g4625
g4626
tp6751
a(g5509
g5510
tp6752
asS"['R.1.0.0.0.0.0', 'R.1.0.0.0.1', 'R.1.0.1.0.0.0', 'R.1.1.0.0.0']"
p6753
(lp6754
(g4355
g4356
tp6755
a(g4437
g4438
tp6756
a(g4734
g4735
tp6757
a(g4744
g4745
tp6758
a(g4366
g4367
tp6759
asS"['R.1.0.0.0', 'R.1.0.1.0', 'R.1.1.0']"
p6760
(lp6761
(g4355
g4356
tp6762
a(g4695
g4696
tp6763
a(g4698
g4699
tp6764
a(g4097
g4098
tp6765
a(g4103
g4104
tp6766
a(g4366
g4367
tp6767
a(g4704
g4705
tp6768
a(g4707
g4708
tp6769
a(g4106
g4107
tp6770
a(g4711
g4712
tp6771
a(g4109
g4110
tp6772
a(g4715
g4716
tp6773
a(g4718
g4719
tp6774
a(g4402
g4403
tp6775
a(g4968
g4969
tp6776
a(g4434
g4435
tp6777
a(g4395
g4396
tp6778
a(g5436
g5437
tp6779
a(g4049
g4050
tp6780
a(g5187
g5188
tp6781
asS"['R.0.0.0.0.0', 'R.0.1.0.0.0']"
p6782
(lp6783
(g5166
g5167
tp6784
a(g4501
g4502
tp6785
a(g4913
g4914
tp6786
a(g4519
g4520
tp6787
a(g4522
g4523
tp6788
a(g4528
g4529
tp6789
a(g4531
g4532
tp6790
a(g4534
g4535
tp6791
a(g4540
g4541
tp6792
a(g4546
g4547
tp6793
a(g4549
g4550
tp6794
a(g4552
g4553
tp6795
a(g4645
g4646
tp6796
a(g4556
g4557
tp6797
a(g4559
g4560
tp6798
a(g4562
g4563
tp6799
asS"['R.1.0.1.1.0.0', 'R.1.1.1.0.0']"
p6800
(lp6801
(g4063
g4064
tp6802
a(g4379
g4380
tp6803
a(g4881
g4882
tp6804
asS"['R.0.0.0.0']"
p6805
(lp6806
(g4002
g4003
tp6807
a(g4261
g4262
tp6808
a(g4011
g4012
tp6809
a(g4258
g4259
tp6810
a(g4650
g4651
tp6811
a(g4271
g4272
tp6812
a(g4014
g4015
tp6813
a(g4645
g4646
tp6814
a(g4017
g4018
tp6815
a(g4020
g4021
tp6816
a(g4023
g4024
tp6817
a(g4026
g4027
tp6818
a(g4297
g4298
tp6819
a(g4029
g4030
tp6820
a(g4032
g4033
tp6821
a(g4035
g4036
tp6822
asS"['R.1.0.1.0.1.1']"
p6823
(lp6824
(g4363
g4364
tp6825
a(g4197
g4198
tp6826
asS"['R.0.0.0.0.0.0', 'R.0.1.0.0.0.0', 'R.1.0.0.0.0']"
p6827
(lp6828
(g5277
g5278
tp6829
a(g4340
g4341
tp6830
a(g4346
g4347
tp6831
a(g4343
g4344
tp6832
a(g4002
g4003
tp6833
a(g4011
g4012
tp6834
a(g4014
g4015
tp6835
a(g4234
g4235
tp6836
a(g4017
g4018
tp6837
a(g4556
g4557
tp6838
a(g4020
g4021
tp6839
a(g4559
g4560
tp6840
a(g4023
g4024
tp6841
a(g4026
g4027
tp6842
a(g4029
g4030
tp6843
a(g4562
g4563
tp6844
a(g4032
g4033
tp6845
a(g4035
g4036
tp6846
asS"['R.1.0.0', 'R.1.1.0']"
p6847
(lp6848
(g4126
g4127
tp6849
a(g5022
g5023
tp6850
asS"['R.1.0.0.0.1', 'R.1.1']"
p6851
(lp6852
(g4370
g4371
tp6853
a(g4014
g4015
tp6854
a(g4645
g4646
tp6855
a(g4017
g4018
tp6856
a(g4020
g4021
tp6857
a(g4023
g4024
tp6858
a(g4026
g4027
tp6859
a(g4029
g4030
tp6860
a(g4032
g4033
tp6861
a(g4035
g4036
tp6862
a(g4382
g4383
tp6863
a(g4556
g4557
tp6864
a(g4559
g4560
tp6865
a(g4562
g4563
tp6866
a(g4386
g4387
tp6867
asS"['R.0.0.1.0.0.0']"
p6868
(lp6869
(g3925
g3926
tp6870
a(g4005
g4006
tp6871
a(g4008
g4009
tp6872
a(g3922
g3923
tp6873
a(g4221
g4222
tp6874
a(g3910
g3911
tp6875
a(g3916
g3917
tp6876
a(g3919
g3920
tp6877
a(g3943
g3944
tp6878
asS"['R.1.0.0.0.0.0', 'R.1.0.1', 'R.1.1.0']"
p6879
(lp6880
(g5385
g5386
tp6881
a(g5388
g5389
tp6882
asS"['R.0', 'R.1.0.1.0.0.0.0', 'R.1.1.0.0.0.0']"
p6883
(lp6884
(g4123
g4124
tp6885
a(g4475
g4476
tp6886
a(g4213
g4214
tp6887
a(g4216
g4217
tp6888
a(g4126
g4127
tp6889
asS"['R.0.0']"
p6890
(lp6891
(g4250
g4251
tp6892
a(g5659
g5660
tp6893
a(g3937
g3938
tp6894
a(g4504
g4505
tp6895
a(g4507
g4508
tp6896
a(g4510
g4511
tp6897
a(g4513
g4514
tp6898
a(g4516
g4517
tp6899
a(g4522
g4523
tp6900
a(g4534
g4535
tp6901
a(g5601
g5602
tp6902
a(g4549
g4550
tp6903
a(g3940
g3941
tp6904
a(g4261
g4262
tp6905
a(g3922
g3923
tp6906
a(g4892
g4893
tp6907
a(g4633
g4634
tp6908
a(g3928
g3929
tp6909
a(g4913
g4914
tp6910
a(g4740
g4741
tp6911
a(g4537
g4538
tp6912
a(g4543
g4544
tp6913
a(g3967
g3968
tp6914
a(g5058
g5059
tp6915
a(g4120
g4121
tp6916
a(g4572
g4573
tp6917
a(g4575
g4576
tp6918
a(g4399
g4400
tp6919
a(g4043
g4044
tp6920
a(g4405
g4406
tp6921
a(g3972
g3973
tp6922
a(g4418
g4419
tp6923
a(g5550
g5551
tp6924
a(g4671
g4672
tp6925
a(g4359
g4360
tp6926
a(g4392
g4393
tp6927
a(g3931
g3932
tp6928
a(g3955
g3956
tp6929
a(g3934
g3935
tp6930
a(g5064
g5065
tp6931
a(g4258
g4259
tp6932
a(g4271
g4272
tp6933
a(g3946
g3947
tp6934
a(g4234
g4235
tp6935
a(g3949
g3950
tp6936
a(g3958
g3959
tp6937
a(g3961
g3962
tp6938
a(g4268
g4269
tp6939
a(g3964
g3965
tp6940
a(g3952
g3953
tp6941
a(g4008
g4009
tp6942
a(g4940
g4941
tp6943
a(g3916
g3917
tp6944
asS"['R.1.0.0.0.0.0.0', 'R.1.0.1', 'R.1.1']"
p6945
(lp6946
(g4475
g4476
tp6947
a(g4216
g4217
tp6948
asS"['R.0.0.0.0.1', 'R.0.1']"
p6949
(lp6950
(g4234
g4235
tp6951
a(g4300
g4301
tp6952
asS"['R.1.0.0.0.0.0', 'R.1.0.1', 'R.1.1.0.0.0']"
p6953
(lp6954
(g5354
g5355
tp6955
a(g5385
g5386
tp6956
asS"['R.0.0.0.0', 'R.0.1.0.0.0', 'R.1.0.0.0']"
p6957
(lp6958
(g4525
g4526
tp6959
a(g4537
g4538
tp6960
a(g4543
g4544
tp6961
asS"['R.0.0.0.1.0.0', 'R.0.1.0.1.0.0', 'R.1.0.1.0.0']"
p6962
(lp6963
(g5601
g5602
tp6964
a(g4288
g4289
tp6965
a(g4291
g4292
tp6966
asS"['R.0.1.1']"
p6967
(lp6968
(g4205
g4206
tp6969
a(g5064
g5065
tp6970
a(g4208
g4209
tp6971
a(g4633
g4634
tp6972
a(g4636
g4637
tp6973
a(g4556
g4557
tp6974
a(g4650
g4651
tp6975
a(g4525
g4526
tp6976
a(g4528
g4529
tp6977
a(g4531
g4532
tp6978
a(g4288
g4289
tp6979
a(g4559
g4560
tp6980
asS"['R.0.1']"
p6981
(lp6982
(g4895
g4896
tp6983
a(g4373
g4374
tp6984
a(g4376
g4377
tp6985
a(g5550
g5551
tp6986
a(g5509
g5510
tp6987
a(g4898
g4899
tp6988
a(g5058
g5059
tp6989
a(g4258
g4259
tp6990
a(g4005
g4006
tp6991
a(g4641
g4642
tp6992
a(g4645
g4646
tp6993
a(g4525
g4526
tp6994
a(g5121
g5122
tp6995
a(g4186
g4187
tp6996
a(g4117
g4118
tp6997
a(g4370
g4371
tp6998
a(g4399
g4400
tp6999
a(g4043
g4044
tp7000
a(g4405
g4406
tp7001
a(g4418
g4419
tp7002
a(g4386
g4387
tp7003
a(g4120
g4121
tp7004
a(g4633
g4634
tp7005
a(g4271
g4272
tp7006
a(g4359
g4360
tp7007
a(g4392
g4393
tp7008
a(g4008
g4009
tp7009
a(g4234
g4235
tp7010
a(g3931
g3932
tp7011
a(g3955
g3956
tp7012
a(g3934
g3935
tp7013
a(g3972
g3973
tp7014
a(g4268
g4269
tp7015
a(g4300
g4301
tp7016
a(g3964
g3965
tp7017
asS"['R.0.1.0.0.0.0']"
p7018
(lp7019
(g4202
g4203
tp7020
a(g4645
g4646
tp7021
a(g4205
g4206
tp7022
a(g4208
g4209
tp7023
asS"['R.1.0.1.1.0']"
p7024
(lp7025
(g4868
g4869
tp7026
a(g4291
g4292
tp7027
asS"['R.1.0.0.0.0.0', 'R.1.0.1.0.0.0']"
p7028
(lp7029
(g4355
g4356
tp7030
a(g4968
g4969
tp7031
a(g4461
g4462
tp7032
a(g4363
g4364
tp7033
a(g4434
g4435
tp7034
a(g4366
g4367
tp7035
a(g4395
g4396
tp7036
a(g4937
g4938
tp7037
a(g4405
g4406
tp7038
a(g5495
g5496
tp7039
a(g4458
g4459
tp7040
a(g4402
g4403
tp7041
a(g4437
g4438
tp7042
a(g4734
g4735
tp7043
a(g4744
g4745
tp7044
asS"['R.1.0.1.1.1', 'R.1.1.1.1']"
p7045
(lp7046
(g5635
g5636
tp7047
a(g4461
g4462
tp7048
asS"['R.1.0.1.1.0.0.0']"
p7049
(lp7050
(g4751
g4752
tp7051
a(g4379
g4380
tp7052
a(g4757
g4758
tp7053
a(g4760
g4761
tp7054
a(g4763
g4764
tp7055
a(g4766
g4767
tp7056
a(g4769
g4770
tp7057
a(g4772
g4773
tp7058
a(g4775
g4776
tp7059
a(g4066
g4067
tp7060
a(g4779
g4780
tp7061
a(g4782
g4783
tp7062
a(g4072
g4073
tp7063
a(g4786
g4787
tp7064
a(g4789
g4790
tp7065
asS"['R.1.0', 'R.1.1.0.0.0']"
p7066
(lp7067
(g4114
g4115
tp7068
a(g3975
g3976
tp7069
a(g4136
g4137
tp7070
a(g4142
g4143
tp7071
a(g4418
g4419
tp7072
asS"['R.0.0.1.1.1']"
p7073
(lp7074
(g3937
g3938
tp7075
a(g4077
g4078
tp7076
a(g3928
g3929
tp7077
asS"['R.0', 'R.1.0.0.0.0', 'R.1.0.1.0.0', 'R.1.1.0.0']"
p7078
(lp7079
(g4123
g4124
tp7080
a(g4126
g4127
tp7081
asS"['R.1.1.0.0.1.0', 'R.1.1.1']"
p7082
(lp7083
(g4186
g4187
tp7084
a(g4725
g4726
tp7085
asS"['R.0.0.1.1']"
p7086
(lp7087
(g4740
g4741
tp7088
a(g4309
g4310
tp7089
a(g4312
g4313
tp7090
a(g4008
g4009
tp7091
a(g4265
g4266
tp7092
a(g3934
g3935
tp7093
asS"['R.1.1.0.0.0']"
p7094
(lp7095
(g3907
g3908
tp7096
a(g4355
g4356
tp7097
a(g4363
g4364
tp7098
a(g4437
g4438
tp7099
a(g4734
g4735
tp7100
a(g4366
g4367
tp7101
a(g4395
g4396
tp7102
a(g4937
g4938
tp7103
a(g4405
g4406
tp7104
a(g4744
g4745
tp7105
a(g5495
g5496
tp7106
a(g4458
g4459
tp7107
a(g4402
g4403
tp7108
a(g3925
g3926
tp7109
a(g4129
g4130
tp7110
a(g4133
g4134
tp7111
a(g4139
g4140
tp7112
a(g4145
g4146
tp7113
a(g4148
g4149
tp7114
a(g4151
g4152
tp7115
a(g4154
g4155
tp7116
a(g4157
g4158
tp7117
a(g4160
g4161
tp7118
a(g4163
g4164
tp7119
a(g4572
g4573
tp7120
a(g4575
g4576
tp7121
a(g4166
g4167
tp7122
a(g4169
g4170
tp7123
a(g4172
g4173
tp7124
a(g3975
g3976
tp7125
a(g4176
g4177
tp7126
a(g4475
g4476
tp7127
a(g4179
g4180
tp7128
a(g4213
g4214
tp7129
a(g4216
g4217
tp7130
a(g3937
g3938
tp7131
a(g3940
g3941
tp7132
a(g4114
g4115
tp7133
a(g4136
g4137
tp7134
a(g4142
g4143
tp7135
a(g4418
g4419
tp7136
a(g3928
g3929
tp7137
a(g3943
g3944
tp7138
a(g3946
g3947
tp7139
a(g3949
g3950
tp7140
a(g3931
g3932
tp7141
a(g3952
g3953
tp7142
a(g3955
g3956
tp7143
a(g3958
g3959
tp7144
a(g3961
g3962
tp7145
a(g3964
g3965
tp7146
a(g3934
g3935
tp7147
a(g3967
g3968
tp7148
a(g4221
g4222
tp7149
a(g3993
g3994
tp7150
a(g4617
g4618
tp7151
a(g4620
g4621
tp7152
a(g3910
g3911
tp7153
a(g3913
g3914
tp7154
a(g3916
g3917
tp7155
a(g3919
g3920
tp7156
a(g3922
g3923
tp7157
a(g4923
g4924
tp7158
a(g4940
g4941
tp7159
asS"['R.0.1', 'R.1.0.0.0']"
p7160
(lp7161
(g4399
g4400
tp7162
a(g4386
g4387
tp7163
assS"['R.1.0.0.1.0.0', 'R.1.0.1.1.0.0', 'R.1.1.1.0.0.0']"
p7164
(lp7165
(V65*(0.5*[(30/65-0.5)/0.5]^2+0.25*[(20/65-0.25)/0.25]^2+0.25*[(15/65-0.25)/0.25]^2)
p7166
V65 * ( (0.5*[[(30/65)-(1/2)]/[2]]^2) + (0.25*[[(20/65)-(1/4)]/[4]]^2) + (0.25*[[(15/65)-(1/4)]/[4]]^2) )
p7167
(lp7168
(S'R.1.0.0.1.0.0'
p7169
F-0.038461538461538436
V30/65-0.5
p7170
V(30/65)-(1/2)
p7171
tp7172
a(S'R.1.0.1.1.0.0'
p7173
F0.05769230769230771
V20/65-0.25
p7174
V(20/65)-(1/4)
p7175
tp7176
a(S'R.1.1.1.0.0.0'
p7177
F0.23076923076923078
V15/65
p7178
V15/65
p7179
tp7180
atp7181
asS"['R.1.1.1.0.0.0']"
p7182
(lp7183
(V65*(0.5*[(30/65-0.5)/0.5]^2+0.25*[(20/65-0.25)/0.25]^2+0.25*[(15/65-0.25)/0.25]^2)
p7184
V65((1/3)((((30/65)-(1/3))/(1/3))^2))+(65((1/3)((((20/65)-(1/3))/(1/3))^2)))+(65((1/3)((((15/65)-(1/3))/(1/3))^2)))
p7185
(lp7186
(S'R.1.1.1.0.0.0'
p7187
F0.23076923076923078
V15/65
p7188
V15/65
p7189
tp7190
atp7191
a(V65*(0.5*[(30/65-0.5)/0.5]^2+0.25*[(20/65-0.25)/0.25]^2+0.25*[(15/65-0.25)/0.25]^2)
p7192
V65*(1/2*((30/65-1/2)/(1/2))^2)+65*(1/3*((20/65-1/3)/(1/3))^2)+65*(1/3*((15/65-1/3)/(1/3))^2)
p7193
(lp7194
(S'R.1.1.1.0.0.0'
p7195
F0.23076923076923078
V15/65
p7196
V15/65
p7197
tp7198
atp7199
asS"['R.1.0.0.1.0.0', 'R.1.0.1.1.0.0', 'R.1.1.1.0.0']"
p7200
(lp7201
(V65*(0.5*[(30/65-0.5)/0.5]^2+0.25*[(20/65-0.25)/0.25]^2+0.25*[(15/65-0.25)/0.25]^2)
p7202
V65[( (30) ((30/65)-1/2)^2/(1/2)) + ( (20) ((20/65)-1/4)^2 /(1/4)) + ( (15) ((15/65)-1/4)^2 /(1/4))]
p7203
(lp7204
(S'R.1.0.0.1.0.0'
p7205
F-0.038461538461538436
V30/65-0.5
p7206
V(30/65)-1/2
p7207
tp7208
a(S'R.1.0.1.1.0.0'
p7209
F0.05769230769230771
V20/65-0.25
p7210
V(20/65)-1/4
p7211
tp7212
a(S'R.1.1.1.0.0'
p7213
F-0.019230769230769218
V15/65-0.25
p7214
V(15/65)-1/4
p7215
tp7216
atp7217
a(g7202
V65[( (1/2) ((30/65)-1/2)^2/(1/2)) + ( (1/4) ((20/65)-1/4)^2 /(1/4)) + ( (1/4) ((15/65)-1/4)^2 /(1/4))]
p7218
(lp7219
(S'R.1.0.0.1.0.0'
p7220
F-0.038461538461538436
V30/65-0.5
p7221
V(30/65)-1/2
p7222
tp7223
a(S'R.1.0.1.1.0.0'
p7224
F0.05769230769230771
V20/65-0.25
p7225
V(20/65)-1/4
p7226
tp7227
a(S'R.1.1.1.0.0'
p7228
F-0.019230769230769218
V15/65-0.25
p7229
V(15/65)-1/4
p7230
tp7231
atp7232
asS"['R.1.0.1.1.0.0.0.0', 'R.1.1.1.0.0.0.0']"
p7233
(lp7234
(V65*(0.5*[(30/65-0.5)/0.5]^2+0.25*[(20/65-0.25)/0.25]^2+0.25*[(15/65-0.25)/0.25]^2)
p7235
V60((1/2 * (25/60 - 1/2)/(1/2))^2 + 1/4 * ((20/60 - 1/4)/(1/4))^2 + 1/4 * ((15/60 - 1/4)/(1/4))^2)
p7236
(lp7237
(S'R.1.0.1.1.0.0.0.0'
p7238
F20.0
V20
p7239
V20
p7240
tp7241
a(S'R.1.1.1.0.0.0.0'
p7242
F15.0
V15
p7243
V15
p7244
tp7245
atp7246
a(g3580
V60*(((1/2)*(((25/60) - (1/2)) / (1/2))^2) + ((1/4)*(((20/60) - (1/4)) / (1/4))^2) + ((1/4)*(((15/60) - (1/4)) / (1/4))^2))
p7247
(lp7248
(S'R.1.0.1.1.0.0.0.0'
p7249
F20.0
V20
p7250
V20
p7251
tp7252
a(S'R.1.1.1.0.0.0.0'
p7253
F15.0
V15
p7254
V15
p7255
tp7256
atp7257
a(g3580
V60((1/2)*((((25/60)-(1/2))/(1/2))^2) + (1/4)*((((20/60)-(1/4))/(1/4))^2) + (1/4)*((((15/60)-(1/4))/(1/4))^2))
p7258
(lp7259
(S'R.1.0.1.1.0.0.0.0'
p7260
F20.0
V20
p7261
V20
p7262
tp7263
a(S'R.1.1.1.0.0.0.0'
p7264
F15.0
V15
p7265
V15
p7266
tp7267
atp7268
a(g3580
V60*((1/3)*((((25/60)-(1/3))/(1/3))^2) + (1/3)*((((20/60)-(1/3))/(1/3))^2) + (1/3)*((((15/60)-(1/3))/(1/3))^2))
p7269
(lp7270
(S'R.1.0.1.1.0.0.0.0'
p7271
F20.0
V20
p7272
V20
p7273
tp7274
a(S'R.1.1.1.0.0.0.0'
p7275
F15.0
V15
p7276
V15
p7277
tp7278
atp7279
a(g3580
V60*(((1/2)*((((25/60)-(1/2))/(1/2))^2))+((1/4)*((((20/60)-(1/4))/(1/4))^2))+((1/4)*((((15/60)-(1/4))/(1/4))^2)))
p7280
(lp7281
(S'R.1.0.1.1.0.0.0.0'
p7282
F20.0
V20
p7283
V20
p7284
tp7285
a(S'R.1.1.1.0.0.0.0'
p7286
F15.0
V15
p7287
V15
p7288
tp7289
atp7290
a(g3583
V60[((1/3)((25/60-(1/3))/(1/3))^2)+((1/3)((20/60-(1/3))/(1/3))^2)+((1/3)((15/60-(1/3))/(1/3))^2)]
p7291
(lp7292
(S'R.1.0.1.1.0.0.0.0'
p7293
F20.0
V20
p7294
V20
p7295
tp7296
a(S'R.1.1.1.0.0.0.0'
p7297
F15.0
V15
p7298
V15
p7299
tp7300
atp7301
a(g3723
V60*[ [1/3*( (25/60 - 1/3) / (1/3)  )^2] + [1/3*( (20/60 - 1/3) / (1/3)  )^2]  + [1/3*( (15/60 - 1/3) / (1/3)  )^2]   ]
p7302
(lp7303
(S'R.1.0.1.1.0.0.0.0'
p7304
F20.0
V20
p7305
V20
p7306
tp7307
a(S'R.1.1.1.0.0.0.0'
p7308
F15.0
V15
p7309
V15
p7310
tp7311
atp7312
a(g3723
V60*[ [1/3*( (25/60 - 1/3) / (1/3) )^2] + [1/3*( (20/60 - 1/3) / (1/3) )^2] + [1/3*( (15/60 - 1/3) / (1/3) )^2] ]
p7313
(lp7314
(S'R.1.0.1.1.0.0.0.0'
p7315
F20.0
V20
p7316
V20
p7317
tp7318
a(S'R.1.1.1.0.0.0.0'
p7319
F15.0
V15
p7320
V15
p7321
tp7322
atp7323
a(g3723
V60*[ [1/2*( (25/60 - 1/2) / (1/2) )^2] + [1/4*( (20/60 - 1/4) / (1/4) )^2] + [1/4*( (15/60 - 1/4) / (1/4) )^2] ]
p7324
(lp7325
(S'R.1.0.1.1.0.0.0.0'
p7326
F20.0
V20
p7327
V20
p7328
tp7329
a(S'R.1.1.1.0.0.0.0'
p7330
F15.0
V15
p7331
V15
p7332
tp7333
atp7334
a(g3816
V60*((1/2)*((25/60-(1/2))/(1/2))^2+(1/4)*((20/60-(1/4))/(1/4))^2+(1/4)*((15/60-(1/4))/(1/4))^2)
p7335
(lp7336
(S'R.1.0.1.1.0.0.0.0'
p7337
F20.0
V20
p7338
V20
p7339
tp7340
a(S'R.1.1.1.0.0.0.0'
p7341
F15.0
V15
p7342
V15
p7343
tp7344
atp7345
asS"['R.1.0.0.1.0.0.0', 'R.1.0.1.1.0.0.0', 'R.1.1.1.0.0.0']"
p7346
(lp7347
(V65*(0.5*[(30/65-0.5)/0.5]^2+0.25*[(20/65-0.25)/0.25]^2+0.25*[(15/65-0.25)/0.25]^2)
p7348
V65*(((1/3)*(((30/65)-(1/3))/(1/3))^2) + ((1/3)*(((20/65)-(1/3))/(1/3))^2) + ((1/3)*(((15/65)-(1/3))/(1/3))^2))
p7349
(lp7350
(S'R.1.0.0.1.0.0.0'
p7351
F0.46153846153846156
V30/65
p7352
V30/65
p7353
tp7354
a(S'R.1.0.1.1.0.0.0'
p7355
F0.3076923076923077
V20/65
p7356
V20/65
p7357
tp7358
a(S'R.1.1.1.0.0.0'
p7359
F0.23076923076923078
V15/65
p7360
V15/65
p7361
tp7362
atp7363
a(g3739
V65*(((1/3)*(((30/65-(1/3))/(1/3))^2))+((1/3)*(((20/65-(1/3))/(1/3))^2))+((1/3)*(((15/65-(1/3))/(1/3))^2)))
p7364
(lp7365
(S'R.1.0.0.1.0.0.0'
p7366
F0.46153846153846156
V30/65
p7367
V30/65
p7368
tp7369
a(S'R.1.0.1.1.0.0.0'
p7370
F0.3076923076923077
V20/65
p7371
V20/65
p7372
tp7373
a(S'R.1.1.1.0.0.0'
p7374
F0.23076923076923078
V15/65
p7375
V15/65
p7376
tp7377
atp7378
a(g3596
V65*(1/3*(((30/65) - (1/3))/(1/3))^2 + 1/3*(((20/65) - (1/3))/(1/3))^2 + 1/3*(((15/65) - (1/3))/(1/3))^2)
p7379
(lp7380
(S'R.1.0.0.1.0.0.0'
p7381
F0.46153846153846156
V30/65
p7382
V30/65
p7383
tp7384
a(S'R.1.0.1.1.0.0.0'
p7385
F0.3076923076923077
V20/65
p7386
V20/65
p7387
tp7388
a(S'R.1.1.1.0.0.0'
p7389
F0.23076923076923078
V15/65
p7390
V15/65
p7391
tp7392
atp7393
a(g3596
V65*(1/2*(((30/65) - (1/3))/(1/3))^2 + 1/4*(((20/65) - (1/3))/(1/3))^2 + 1/4*(((15/65) - (1/3))/(1/3))^2)
p7394
(lp7395
(S'R.1.0.0.1.0.0.0'
p7396
F0.46153846153846156
V30/65
p7397
V30/65
p7398
tp7399
a(S'R.1.0.1.1.0.0.0'
p7400
F0.3076923076923077
V20/65
p7401
V20/65
p7402
tp7403
a(S'R.1.1.1.0.0.0'
p7404
F0.23076923076923078
V15/65
p7405
V15/65
p7406
tp7407
atp7408
a(V65*(0.5*[(30/65-0.5)/0.5]^2+0.25*[(20/65-0.25)/0.25]^2+0.25*[(15/65-0.25)/0.25]^2)
p7409
V65 * [ ( (1/3)* ( ((30/65)-(1/3))/(1/3))^2) + ( (1/3)* ( ((20/65)-(1/3))/(1/3))^2) + ( (1/3)* ( ((15/65)-(1/3))/(1/3))^2) ]
p7410
(lp7411
(S'R.1.0.0.1.0.0.0'
p7412
F0.46153846153846156
V30/65
p7413
V30/65
p7414
tp7415
a(S'R.1.0.1.1.0.0.0'
p7416
F0.3076923076923077
V20/65
p7417
V20/65
p7418
tp7419
a(S'R.1.1.1.0.0.0'
p7420
F0.23076923076923078
V15/65
p7421
V15/65
p7422
tp7423
atp7424
a(g3583
V65[((1/3)((30/65-(1/3))/(1/3))^2)+((1/3)((20/65-(1/3))/(1/3))^2)+((1/3)((15/65-(1/3))/(1/3))^2)]
p7425
(lp7426
(S'R.1.0.0.1.0.0.0'
p7427
F0.46153846153846156
V30/65
p7428
V30/65
p7429
tp7430
a(S'R.1.0.1.1.0.0.0'
p7431
F0.3076923076923077
V20/65
p7432
V20/65
p7433
tp7434
a(S'R.1.1.1.0.0.0'
p7435
F0.23076923076923078
V15/65
p7436
V15/65
p7437
tp7438
atp7439
a(V65*(0.5*[(30/65-0.5)/0.5]^2+0.25*[(20/65-0.25)/0.25]^2+0.25*[(15/65-0.25)/0.25]^2)
p7440
V65 * [ ((1/3)* (((30/65)-(1/3))/(1/3))^2) + ((1/3)* (((20/65)-(1/3))/(1/3))^2) + ((1/3)* (((15/65)-(1/3))/(1/3))^2) ]
p7441
(lp7442
(S'R.1.0.0.1.0.0.0'
p7443
F0.46153846153846156
V30/65
p7444
V30/65
p7445
tp7446
a(S'R.1.0.1.1.0.0.0'
p7447
F0.3076923076923077
V20/65
p7448
V20/65
p7449
tp7450
a(S'R.1.1.1.0.0.0'
p7451
F0.23076923076923078
V15/65
p7452
V15/65
p7453
tp7454
atp7455
a(V65*(0.5*[(30/65-0.5)/0.5]^2+0.25*[(20/65-0.25)/0.25]^2+0.25*[(15/65-0.25)/0.25]^2)
p7456
V65 * (((1/3) ((30/65 - (1/3)) / (1/3))^2) + ((1/3) ((20/65 - (1/3)) / (1/3))^2) + ((1/3) ((15/65 - (1/3)) / (1/3))^2))
p7457
(lp7458
(S'R.1.0.0.1.0.0.0'
p7459
F0.46153846153846156
V30/65
p7460
V30/65
p7461
tp7462
a(S'R.1.0.1.1.0.0.0'
p7463
F0.3076923076923077
V20/65
p7464
V20/65
p7465
tp7466
a(S'R.1.1.1.0.0.0'
p7467
F0.23076923076923078
V15/65
p7468
V15/65
p7469
tp7470
atp7471
a(V65*(0.5*[(30/65-0.5)/0.5]^2+0.25*[(20/65-0.25)/0.25]^2+0.25*[(15/65-0.25)/0.25]^2)
p7472
V65[[1/3((30/65-30*1/3)/(1/3))^2]+[1/3((20/65-20*1/3)/(1/3))^2]+[1/3((15/65-15*1/3)/(1/3))^2]]
p7473
(lp7474
(S'R.1.0.0.1.0.0.0'
p7475
F0.46153846153846156
V30/65
p7476
V30/65
p7477
tp7478
a(S'R.1.0.1.1.0.0.0'
p7479
F0.3076923076923077
V20/65
p7480
V20/65
p7481
tp7482
a(S'R.1.1.1.0.0.0'
p7483
F0.23076923076923078
V15/65
p7484
V15/65
p7485
tp7486
atp7487
a(g3112
V3*(( ((1/2)*65)*( ( ((30/65)- ((1/2)*65)) /((1/2)*65) )^(2) ) ) + ( ((1/4)*65)*( ( ((20/65)- ((1/4)*65)) /((1/4)*65) )^(2) ) ) + ( ((1/4)*65)*( ( ((15/65)- ((1/4)*65)) /((1/4)*65) )^(2) ) ))
p7488
(lp7489
(S'R.1.0.0.1.0.0.0'
p7490
F0.46153846153846156
V30/65
p7491
V30/65
p7492
tp7493
a(S'R.1.0.1.1.0.0.0'
p7494
F0.3076923076923077
V20/65
p7495
V20/65
p7496
tp7497
a(S'R.1.1.1.0.0.0'
p7498
F0.23076923076923078
V15/65
p7499
V15/65
p7500
tp7501
atp7502
a(g3800
V65*(((1/3)(((30/65)-(1/3))/(1/3))^2)+((1/3)(((20/65)-(1/3))/(1/3))^2)+((1/3)(((15/65)-(1/3))/(1/3))^2))
p7503
(lp7504
(S'R.1.0.0.1.0.0.0'
p7505
F0.46153846153846156
V30/65
p7506
V30/65
p7507
tp7508
a(S'R.1.0.1.1.0.0.0'
p7509
F0.3076923076923077
V20/65
p7510
V20/65
p7511
tp7512
a(S'R.1.1.1.0.0.0'
p7513
F0.23076923076923078
V15/65
p7514
V15/65
p7515
tp7516
atp7517
a(g7184
V65(((1/3)((((30/65)-(1/3))/(1/3))^2))+(((1/3)((((20/65)-(1/3))/(1/3))^2)))+(((1/3)((((15/65)-(1/3))/(1/3))^2))))
p7518
(lp7519
(S'R.1.0.0.1.0.0.0'
p7520
F0.46153846153846156
V30/65
p7521
V30/65
p7522
tp7523
a(S'R.1.0.1.1.0.0.0'
p7524
F0.3076923076923077
V20/65
p7525
V20/65
p7526
tp7527
a(S'R.1.1.1.0.0.0'
p7528
F0.23076923076923078
V15/65
p7529
V15/65
p7530
tp7531
atp7532
a(V65*(0.5*[(30/65-0.5)/0.5]^2+0.25*[(20/65-0.25)/0.25]^2+0.25*[(15/65-0.25)/0.25]^2)
p7533
V65*( 1/3*(((30/65)-(1/3))/(1/3))^2 + 1/3*(((20/65)-(1/3))/(1/3))^2 + 1/3*(((15/65)-(1/3))/(1/3))^2)
p7534
(lp7535
(S'R.1.0.0.1.0.0.0'
p7536
F0.46153846153846156
V30/65
p7537
V30/65
p7538
tp7539
a(S'R.1.0.1.1.0.0.0'
p7540
F0.3076923076923077
V20/65
p7541
V20/65
p7542
tp7543
a(S'R.1.1.1.0.0.0'
p7544
F0.23076923076923078
V15/65
p7545
V15/65
p7546
tp7547
atp7548
a(V65*(0.5*[(30/65-0.5)/0.5]^2+0.25*[(20/65-0.25)/0.25]^2+0.25*[(15/65-0.25)/0.25]^2)
p7549
V65*((1/3*(((30/65)-1/3)/(1/3))^2)+1/3*((((20/65)-1/3)/(1/3))^2)+1/3*((((15/65)-1/3)/(1/3))^2))
p7550
(lp7551
(S'R.1.0.0.1.0.0.0'
p7552
F0.46153846153846156
V30/65
p7553
V30/65
p7554
tp7555
a(S'R.1.0.1.1.0.0.0'
p7556
F0.3076923076923077
V20/65
p7557
V20/65
p7558
tp7559
a(S'R.1.1.1.0.0.0'
p7560
F0.23076923076923078
V15/65
p7561
V15/65
p7562
tp7563
atp7564
a(V65*(0.5*[(30/65-0.5)/0.5]^2+0.25*[(20/65-0.25)/0.25]^2+0.25*[(15/65-0.25)/0.25]^2)
p7565
V65 * ((1/3 * (((30/65) - (1/3))/(1/3))^2 + (1/3 * (((20/65) - (1/3))/(1/3))^2) + (1/3 * (((15/65) - (1/3))/(1/3))^2)))
p7566
(lp7567
(S'R.1.0.0.1.0.0.0'
p7568
F0.46153846153846156
V30/65
p7569
V30/65
p7570
tp7571
a(S'R.1.0.1.1.0.0.0'
p7572
F0.3076923076923077
V20/65
p7573
V20/65
p7574
tp7575
a(S'R.1.1.1.0.0.0'
p7576
F0.23076923076923078
V15/65
p7577
V15/65
p7578
tp7579
atp7580
a(V65*(0.5*[(30/65-0.5)/0.5]^2+0.25*[(20/65-0.25)/0.25]^2+0.25*[(15/65-0.25)/0.25]^2)
p7581
V65 * ( (1/3 * ((30/65 - 1/3)/(1/3))^2)  + (1/3 * ((20/65 - 1/3)/(1/3))^2) + (1/3 * ((15/65 - 1/3)/(1/3))^2)  )
p7582
(lp7583
(S'R.1.0.0.1.0.0.0'
p7584
F0.46153846153846156
V30/65
p7585
V30/65
p7586
tp7587
a(S'R.1.0.1.1.0.0.0'
p7588
F0.3076923076923077
V20/65
p7589
V20/65
p7590
tp7591
a(S'R.1.1.1.0.0.0'
p7592
F0.23076923076923078
V15/65
p7593
V15/65
p7594
tp7595
atp7596
a(V65*(0.5*[(30/65-0.5)/0.5]^2+0.25*[(20/65-0.25)/0.25]^2+0.25*[(15/65-0.25)/0.25]^2)
p7597
V65*((1/3)*(((30/65)-(1/3))/(1/3))^2+(1/3)*(((20/65)-(1/3))/(1/3))^2+(1/3)*(((15/65)-(1/3))/(1/3))^2)
p7598
(lp7599
(S'R.1.0.0.1.0.0.0'
p7600
F0.46153846153846156
V30/65
p7601
V30/65
p7602
tp7603
a(S'R.1.0.1.1.0.0.0'
p7604
F0.3076923076923077
V20/65
p7605
V20/65
p7606
tp7607
a(S'R.1.1.1.0.0.0'
p7608
F0.23076923076923078
V15/65
p7609
V15/65
p7610
tp7611
atp7612
asS"['R.1.0.0.1.0.0.0']"
p7613
(lp7614
(g7184
V65((1/3)((((30/65)-(1/3))/(1/3))^2))*(65((1/3)((((20/65)-(1/3))/(1/3))^2)))*(65((1/3)((((15/65)-(1/3))/(1/3))^2)))
p7615
(lp7616
(S'R.1.0.0.1.0.0.0'
p7617
F0.46153846153846156
V30/65
p7618
V30/65
p7619
tp7620
atp7621
asS"['R.1.0', 'R.1.1.1.0.0.0']"
p7622
(lp7623
(V65*(0.5*[(30/65-0.5)/0.5]^2+0.25*[(20/65-0.25)/0.25]^2+0.25*[(15/65-0.25)/0.25]^2)
p7624
V65*(((0.5)*((30/65-0.5)/(0.5))^2)+((0.25)*((20/65-0.25)/(0.25))^2)+((0.25)*((15/65-0.5)/(0.5))^2))
p7625
(lp7626
(S'R.1.0'
p7627
F0.01627218934911243
V0.5*[(30/65-0.5)/0.5]^2+0.25*[(20/65-0.25)/0.25]^2
p7628
V((0.5)*((30/65-0.5)/(0.5))^2)+((0.25)*((20/65-0.25)/(0.25))^2)
p7629
tp7630
a(S'R.1.1.1.0.0.0'
p7631
F0.23076923076923078
V15/65
p7632
V15/65
p7633
tp7634
atp7635
a(g7624
V65*(((0.5)*((30/65-0.5)/(0.5))^2)+((0.25)*((20/65-0.25)/(0.25))^2)+((0.25)*((15/65-0.5)/(0.25))^2))
p7636
(lp7637
(S'R.1.0'
p7638
F0.01627218934911243
V0.5*[(30/65-0.5)/0.5]^2+0.25*[(20/65-0.25)/0.25]^2
p7639
V((0.5)*((30/65-0.5)/(0.5))^2)+((0.25)*((20/65-0.25)/(0.25))^2)
p7640
tp7641
a(S'R.1.1.1.0.0.0'
p7642
F0.23076923076923078
V15/65
p7643
V15/65
p7644
tp7645
atp7646
assV6
p7647
g2
(g3
tp7648
Rp7649
g289
(lp7650
sg443
g2
(g3
tp7651
Rp7652
ss.