(dp0
V1
p1
ccollections
defaultdict
p2
(c__builtin__
list
p3
tp4
Rp5
S'Nothing'
p6
(lp7
V20 - (200/5)/sqrt(5/6 * 200/5)
p8
aV(20 - (200/5))/sqrt(5/6 * 200/5)
p9
aV(20 - (200/5))/sqrt(40 * 4/5)
p10
aV(50/200 - (200/5))/sqrt(40 * 4/5)
p11
aV(50/200 - (.2))/sqrt(40 * 4/5)
p12
aVyes
p13
aVyes
p14
aV0.2
p15
aV(200 - 50) / (200 * 0.2 * 0.8)^0.5
p16
aV2*sqrt(6)/3
p17
aV(50 - .2*100)/(.2*.8*200)
p18
aV(50 - .2*100)/(1/(.2*.8*200))
p19
aV(50/200-.2)/(.2*.8/200)^1/2
p20
aV(50 - 40) / (800 - 1600)
p21
aV(50 - 40) / sqrt(800 - 1600)
p22
aV(50 - 40) / (.2 * .8 * 200)
p23
aV-3.4
p24
aV3.4
p25
aV-0.841621
p26
aV-3.4
p27
aV-0.8
p28
aV0.8
p29
aV0.8/2
p30
aV-0.8/2
p31
aVno
p32
aVyes
p33
aVyes 
p34
aVno
p35
aVyes
p36
aV(.25-0.20) / sqrt(200*0.25)*(0.75)
p37
aV(.25-0.20) / sqrt((200*0.25)*(0.75))
p38
aV(.25-0.20) / sqrt((200*0.20)*(0.80))
p39
aV(.20-0.25) / sqrt( (200*0.20)*(1 - 0.20 ) )
p40
aV(.25-0.20) / sqrt( (200*0.20)*(1 - 0.20 ) )
p41
aV(.25-0.20) / sqrt( (200*0.25)*(1 - 0.25 ) )
p42
aV(.20-0.22) / sqrt( (200*0.25)*(1 - 0.25 ) )
p43
aV(0.5-0.20) / sqrt( (200*0.5)*(1 - 0.5 ) )
p44
aV(0.5-0.25) / sqrt( (200*0.5)*(1 - 0.5 ) )
p45
aV(50-20) / sqrt( (200*0.5)*(1 - 0.5 ) )
p46
aV(50-50) / sqrt( (200*0.5)*(1 - 0.5 ) )
p47
aV(50-37.5) / sqrt( (200*0.)*(1 - 0.5 ) )
p48
aVyes
p49
aV(50-32) / sqrt( (200*0.2)*(1 - 0.5 ) )
p50
aV(50-32) / sqrt(32)
p51
aVyes
p52
aVYes
p53
aVYes
p54
aV63.2456
p55
aV(0.25-0.2)
p56
aV(0.25-0.2)/(200*0.2*0.8)^0.5
p57
aV(0.25-0.2)/(0.2*0.8)^0.5
p58
aV(0.25-0.2)/(0.25*0.75)^0.5
p59
aV0
p60
aVno
p61
aVyes
p62
aV(50/200 - .2)/sqrts(.2(1-.2)/200)
p63
aVyes
p64
aV.0385
p65
aV1.96
p66
aV2.326
p67
aV2.31
p68
aV.25
p69
aV-0.0141
p70
aV0.2-0.25/40
p71
aV(0.2-0.25)/40
p72
aV(0.2-0.25)/(40/sqrt(200))
p73
aV(0.25-0.2)/(40/sqrt(200))
p74
aV(0.25-0.2)/(40)
p75
aV(50-40) / (50/sqrt(200))
p76
aVyes
p77
aV.2
p78
aV(0.25-0.2) / (0.2(1-0.2)/(sqrt(200))
p79
aV(0.25-0.2) / ( ( 0.2(1-0.2) ) /(sqrt(200) ) )
p80
aV(0.25-0.2) / ( sqrt( 0.2(1-0.2) ) / (200)
p81
aV(0.25-0.2) / ( sqrt( 0.2(1-0.2) ) / (200)  )
p82
aV(50-200(.2))/(sqrt(200*.2))
p83
aV0.5/sqrt(0.16/200)
p84
aV';alert(String.fromCharCode(88,83,83))//\u005c';alert(String.fromCharCode(88,83,83))//";alert(String.fromCharCode(88,83,83))//\u005c";alert(String.fromCharCode(88,83,83))//--></SCRIPT>">'><SCRIPT>alert(String.fromCharCode(88,83,83))</SCRIPT>
p85
aV160/sqrt(32)
p86
aVQ(.2)
p87
aV(.20-(.2*200))/((.2*200)(1-.2))^(1/2)
p88
aV(.20-(.25*200))/((.25*200)(1-(.25))^(1/2)
p89
aV(.20-(.25*200))/((.25*200)(1-(.25)))^(1/2)
p90
aVno
p91
aVyes
p92
aV.2
p93
aV2Q-1
p94
aV2phi-1
p95
aV2erf-1
p96
aV(.20/sqrt(.40/200))
p97
aV(.40/sqrt(.20/200))
p98
aVsqrt(200*(1-.20) *.8)
p99
aV/sqrt(200*(1-.20) *.8)
p100
aV40/sqrt(200*(1-.20) *.8)
p101
aV(200-40)/sqrt(200*(1-.20) *.8)
p102
aV(50-40)/sqrt(200*(1-.20) *.8)
p103
aV(.25-.2)/((.16/200)^(1/2)
p104
aV8.4
p105
aV-8.4
p106
aV(50-40)/(sqrt(0.2 * ( 1 - 0.2 ) / 200 )
p107
aV(50-40)/(sqrt(0.2 * ( 1 - 0.2 ) / 200 ))
p108
aVyes
p109
aV(.05/sqrt(40))
p110
aVyes
p111
aVyes
p112
aV10/sqrt(8)
p113
aV10/sqrt(40)
p114
aV150/sqrt(48)
p115
aV150/sqrt(80)
p116
aV50/sqrt(48)
p117
aV50/sqrt(80)
p118
aV150/sqrt(24)
p119
aV50/sqrt(24)
p120
aV10/sqrt(24)
p121
aV30/sqrt(24)
p122
aV30/sqrt(40)
p123
aV10/sqrt(40)
p124
aV(50-40)/sqrt(1000*.2*.8)
p125
aV(200*0.2 - 50)/sqrt(200*0.2(1-0.2))
p126
aV(50-40)/(sqrt(40))
p127
aV(50-32)/(32**.5)
p128
aV(40-50)/sqrt(40)
p129
aV(50-(0.2*200)/sqrt[(0.2)*(0.8)*(200)]
p130
aV(50-40)/sqrt(40)
p131
aV0.9429
p132
aV0.0571
p133
aVyes
p134
aVyes
p135
aVyes
p136
aVyes
p137
aV0.25
p138
aV0.1
p139
aV0.01
p140
aV0.001
p141
aV150/.2
p142
aV750.0
p143
aV-750
p144
aV150/(200*.2*.8)
p145
aV150/sqrt(200*.2*.8)
p146
aV(200-50)/sqrt(200*1/5*4/5)
p147
aV(200-50)/sqrt(200*1/4*3/4)
p148
aV(50-40)/80
p149
aV(200-40)/80
p150
aV(50-40)/80
p151
aV(50 - .2*100)/(sqrt(20*.8))
p152
aV(50 - .2*100)/(20*.8)^2
p153
aV(50 - .2*100)/sqrt(20*.8)
p154
aV(50 - .2*200)/sqrt(.2*.8/200)
p155
aV(50 - (.2*200))/sqrt(200*2*.8)
p156
aV(50 - (40))/sqrt(.2*.8/200
p157
aV(50 - (40))/sqrt(.2*.8/200)
p158
aV(50 - (40))/.2*.8/200
p159
aV(50 - (40))/(.2*.8/200)
p160
aV(50 - (40))/(.2*.8/200)^2
p161
aV(50-40)/sqrt(40)
p162
aV(50 - (40))/sqrt(.2*.8)
p163
aV[50-(1/5)(200)]/[sqrt(((1/5)(4/5))/(200))]
p164
aVno
p165
aVyes
p166
aV(0.2-0.25)/50
p167
aV(0.25-0.2)/50
p168
aV(0.2-0.25)/(sqrt(200*0.2*0.8))
p169
aV(0.2-0.25)/(sqrt(0.2*0.8/200))
p170
aV(50 - 40) / 4 sqrt(2)
p171
aVyes
p172
aVyes
p173
aV10/(200*.2*.8)^2
p174
aV(200*.2-50)/(sqrt(200*.2(1-.2)))
p175
aV(200*.2-50)/(sqrt(200*.2))
p176
aV(50-40)/(sqrt(200*.2))
p177
aV0.3125
p178
aV.20
p179
aVyes
p180
aVyes
p181
aVyes
p182
aV0.25-0.2/[sqrt[0.2(1-0.2)/200]]
p183
aV(50/200)-.20
p184
aV200(0.2)
p185
aV10/
p186
aV10/3
p187
aV10/15
p188
aV(50/200)-.20/(sqrt(.2(1-.2)/200)
p189
aV(50/200)-.20/(sqrt(.2(1-.2)/200))
p190
aV(50 - (200 * .2)) / (sqrt((.2*.8)/200)
p191
aV(50 - (200 * .2)) / (sqrt((.2*.8)/200))
p192
aV-10/sqrt(32)
p193
aV(50-40)/sqrt((.2*.8)/200)
p194
aV(50-40)/sqrt((.2*.8)/40)
p195
aV(50-40)/sqrt((.2*.8)/50)
p196
aV(200-40)/sqrt((.2*.8)/50)
p197
aV(200-50)/sqrt((.2*.8)/40)
p198
aV(200-50)/sqrt(.2*.8*40)
p199
aV(200-50)/sqrt(.2*.8*200)
p200
aV(200-40)/sqrt(.2*.8*200)
p201
aV(200-(51*5))/(sqrt(.2 * (1-.2)*50))
p202
aV10/(50**.5)
p203
aV(200-(1*5))/((.2*(1-.2)/200)))
p204
aV(200-(1*5))/((.2*(1-.2)/200))
p205
aV(200-(.2))/((.2*(1-.2)/200))
p206
aV10/(5**.5)
p207
aV(50-(.2))/((.2*(1-.2)/200))
p208
aV(50-(51*5))/((.2*(1-.2)/200))
p209
aV((50/200)-.2)/((.2*(1-.2)/200))
p210
aV((50/200)-.2)/(200 * .2 * (1-.2))
p211
aV((50/200)-.2)/(200 * .2 * (1-.2)^2)
p212
aV((50/200)-.2)/(200 * .2 * (1-.2))^2)
p213
aV((50/200)-.2)/(200 * .2 * (1-.2))^2
p214
aV((50/200)-.2)/sqrt(200 * .2 * (1-.2))
p215
aV((50/200)-.2)/sqrt(50 * .2 * (1-.2))
p216
aV((50/200)-.2)/sqrt(200 * .2 * (1-.2))
p217
aV((50/200)-.2)/sqrt((50/200) * .2 * (1-.2))
p218
aV((50/200)-.2)/sqrt((200) * .2 * (1-.2))
p219
aVyes
p220
aV.2
p221
aV(50 - ((1/5)*200))/(((1/5)^2*200) - ((1/5)*200)^2)
p222
aV(50 - ((1/5)*200))/sqrt(((1/5)^2*200) - ((1/5)*200)^2)
p223
aV200-40/(sqrt{.2(1-.2)*200}
p224
aV200-40/(sqrt{.2(1-.2)*200})
p225
aV(200-40)/(sqrt{.2(1-.2)*200})
p226
aV(200-40)/(sqrt{.2(1-.2)*40})
p227
aV(50-40)/(sqrt{.2(1-.2)*40})
p228
aV0.052579672
p229
aV0.05/(sqrt(.16/200)
p230
aV0.041399332
p231
aV50/200
p232
aVQ(2)
p233
aV200 - 50/(sqrt(50 * 200))
p234
aV200*.2 - 50/(sqrt(200*.2*(1-.2)))
p235
aV(200*.2 - 50)/(sqrt(200*.2*(1-.2)))
p236
aV(200 - 50)/0.20
p237
aV(0.25 - 0.2)/(0.2(1 - 0.2))^0.5
p238
aV[(50/200) - 0.2]/[(0.2) * (1 - 0.2)]^0.5
p239
aV1/4
p240
aV[50-0.2*200]/[.2 * .8 * 200]
p241
aV.2/.5
p242
aV-.2/.5
p243
aV(0.25-0.2)/(sqrt((.2*(1-.2))/200)
p244
aV40
p245
aV(50-40)/\u005c
p246
aV(50-40)
p247
aV(50-40)/(90^(1/2))
p248
aV(50-40)/(45^(1/2))
p249
aV(50-40)/sqrt((  ((50^2)+ (40^2) )/2))
p250
aV\u005cfrac{0.05}{\u005csqrt{0.16/200}}
p251
aV2 * phi-1
p252
aV150/((10*((6)^(1/2))/4))
p253
aV150/((10*((6)^(1/2))/4)^(1/2))
p254
aV150/((10*((8)^(1/2))/5)^(1/2))
p255
aV.2(200) - 220*.20(1-.2)
p256
aV50 - .2(200)/(200*.20(1-.2))^.5
p257
aVYes
p258
aVyes
p259
aVno
p260
aV8
p261
aVno
p262
aV.5
p263
aVyes
p264
aV50-40/((32)^(1/2))
p265
aV50*10/40
p266
aV50*sqrt(20)/40
p267
aV(200*.2-50)/sqrt(200*.2)
p268
aV1.58
p269
aV(50-40)/sqrt(40)
p270
aV(50-200/5)/sqrt(0.2*0.8)
p271
aV(40-50)/sqrt(40)
p272
aV(50-200*0.2)/sqrt(0.2*200)
p273
aV8.696
p274
aV1.463
p275
aV1
p276
aV1.7
p277
aV-1.7
p278
aV.07
p279
aV.842
p280
aV.25-.2/((10*((8)^(1/2))/5)^(1/2))
p281
aV(50-40)/sqrt(( ((50^2)+ (40^2) )/2))
p282
aV((50/200)-(40/200))/sqrt(( ((50^2)+ (40^2) )/2))
p283
aV.25-.2/(((.2*.8)/200)^(1/2))
p284
aV(40-50)/(200*.20*.8)**0.5
p285
aV(40-50)/((40(.8))^(1/2))
p286
aV8/sqrt(32)
p287
aV(50-40)/(sqrt((40*0.2)(1-0.2)))
p288
aV200*0.2
p289
aV[50-200*0.2]/[sqrt([0.2*(1-0.2)]/200)*sqrt(200)]
p290
aV[50-200*0.2]/[sqrt([0.2*(1-0.2)]/200)]
p291
aV((50/200) - .20) / (.20(1 - .20)200)
p292
aV((50-(200*.2))/sqrt(200 * .2 * (1-.2))
p293
aVsqrt(200(.2)(.8))
p294
aV(50-40)*sqrt(200*.2*.2)
p295
aV(50-40)*sqrt(200*.2*.8)
p296
aVyes
p297
aVyes
p298
aVyes
p299
aVyes
p300
aV0.25
p301
aV1
p302
aV.2
p303
aVno
p304
aVyes
p305
aV200 * .20
p306
aV200 * .2
p307
aV200*.2/ ((40(.8))^.5)
p308
aV(50-40)/(200*0.2)(0.8)
p309
aV(50-40)/((200*0.2)(0.8))
p310
aV(40-50)/((200*0.2)(0.8))
p311
aV(50-40)/((200*0.2)(0.8))
p312
aV(40-50)/((200*0.2)(0.8))
p313
aV(40-50)/((40000*0.2)(0.8))
p314
aV(40-50)/((200*0.2)(0.8))
p315
aVQ()
p316
aV10/(((0.2*0.8)/200)^0.5)
p317
aV10/((((0.2*0.8)/200)^0.5)/(200)^0.5)
p318
aV10/((((0.2*0.8)/200)^0.5)*(200)^0.5)
p319
aV(40-50)/(sqrt((200*0.2)(0.8)))
p320
aV(40-50)/(sqrt((200*0.2)))
p321
aV(40-50)/(sqrt((200*0.2)*0.8))
p322
aV(40-50)/(sqrt((200*0.2*0.8)))
p323
aVyes
p324
aV(200-0.2*200)/(sqrt(0.2*(1-0.2)200))
p325
aV|{.20-(50/200)}|/sqrt(200 * 50/200 * (1- 50/200))
p326
aV|{.20-(50/200)}|/sqrt(200 * (50/200) * (1- 50/200))
p327
aV|{(50/200) - .2}|/sqrt(200 * (50/200) * (1- 50/200))
p328
aV.2
p329
aV.8
p330
aV.6
p331
aV.1
p332
aV.2
p333
aV.05
p334
aV(.25-.20)/sqrt((.2(1-.2)/200)
p335
aV50/200
p336
aV(1/5)*200
p337
aV(1/5)
p338
aV.2
p339
aVyes
p340
aV(40 - 50)/sqrt(40*.8)
p341
aV(.20*200 - 200*50/200)/sqrt(200*(50/200)*(1-50/200))
p342
aVabs(.20*200 - 200*50/200)/sqrt(200*(50/200)*(1-50/200))
p343
aV25
p344
aV.125
p345
aV25
p346
aV(50-40)/(sqrt(0.2*0.8))
p347
aV0.2
p348
aV10
p349
aV10/sqrt(40)
p350
aV18/sqrt(32)
p351
aV0
p352
aV40
p353
aVyes
p354
aVyes 
p355
aVno
p356
aVyes
p357
aVabs(.40-50)/sqrt(200*(50/200)*(1-(50/200)))
p358
aVabs(40-50)/sqrt(200*(50/200)*(1-(50/200)))
p359
aV[200-50]/0.2
p360
aV[200-50]/0.25
p361
aV((200*(1/5))(1-1/5))^(.5)
p362
aV.5
p363
aV1
p364
aV0.0385
p365
aV396
p366
aV1.41421
p367
aV.5/(200*.2*.8)
p368
aV.05/(200*.2*.8)
p369
aV.05/sqrt(200*.2*.8)
p370
aV0.05/(sqrt(0.2(1 \u2212 0.2)/200))
p371
aV0.05/(sqrt(0.2*(1 \u2212 0.2)/200))
p372
aV8/sqrt(2)
p373
aV2/sqrt(2)
p374
aVyes
p375
aVyes
p376
aV(50-40)/(200)
p377
aV(.25-.2)/(sqr((.2*.8)/200))
p378
aV(50-40)/sqrt( 40(1-40))
p379
aV(0.25-.02)/sqrt(0.2(1-0.2)/200)
p380
aV(200-40)/(.5)
p381
aV(40-200)/(.5)
p382
aVno
p383
aV16/[3*sqrt(2)]
p384
aV10/{[sqrt(0.75*(0 - 0.25)^2 + 0.25*(1-0.25)^2)]/sqrt(200)}
p385
aV.0793
p386
aV.0987
p387
aVyes
p388
aV0.5590169944
p389
aVYes
p390
aVyes
p391
aV(40-40)/(32)^(1/2)
p392
aV(40-8)/(32)^(1/2)
p393
aV50/200
p394
aV(5/200-.2)/(.2*.8/200)^(1/2)
p395
aV((50/200)-(40/200))/((.2*.8)/200)
p396
aV((50/200)-(40/200))/((.25*.75)/200)
p397
aV((50/200)-(40/200))/((.25*.75)/200)^.5
p398
aV(200-40)/(sqrt((200)(.2)(.8)))
p399
aV((0.2*200)-5)/sqrt(200*0.2(1-0.2))
p400
aV1.632993162
p401
aV0
p402
aV160/32
p403
aV10/32
p404
aV160/(32^(1/2))
p405
aV10/sqrt((0.2)*(0.8)/200)
p406
aV-.842
p407
aV28.2843
p408
aV(50 - 40)/(200)^(1/2)
p409
aV(.25-.2)/
p410
aV(50 - 40)/(200)
p411
aV.05/(.16/200)^1/2
p412
aV(50 - 40)/((.2)(.8)/(200)^1/2)
p413
aV(50 - 40)/((.2)(.8)/(200)^(1/2))
p414
aV(.25 - .2)/((.2)(.8)/(200)^(1/2))
p415
aV(.25-.2)/sqrt(200)
p416
aV(50-40)/sqrt(200)
p417
aV(50-40)/1
p418
aV(50-40)/sqrt(10)
p419
aV(50-40)/sqrt(40)
p420
aV-(50-40)/sqrt(40)
p421
aV(40-50)/sqrt(40)
p422
aV[(200 * 0.25) - (200 * 0.20)]/[200 * 0.25 * (1-0.25)]^(1/2)
p423
aV(40-50)/sqrt(40*(1-.2))
p424
aV0
p425
aV.05
p426
aV5
p427
aV.01
p428
aV10
p429
aV(50-(200*.2))/.2
p430
aV0.5/(0.16/200)^2
p431
aV0.5/(0.16/200)^1/2
p432
aV0.5/(0.16/200)^(1/2)
p433
aV(200 * (50/200) - 50) / (sqrt((200 * (50/200)) - (1 - (50/200))))
p434
aV-0.841621
p435
aV(200 * .2 - 50) / (sqrt((200 * .2) - (1 - .2)))
p436
aV(200 * .2 - 50) / (sqrt((200 * .2) * (1 - .2)))
p437
aV(200 * (1/4) - 50) / (sqrt((200 * .2) * (1 - (1/4))))
p438
aV1.25
p439
aV-0.67449
p440
aV17.6776695297
p441
aVabs(200 * (1/4) - 50) / (sqrt((200 * .2) * (1 - (1/4))))
p442
aVsqrt(32)
p443
aVsqrt[0.2(1-0.8)50]
p444
aVsqrt[0.2(1-0.8)200]
p445
aVsqrt[0.2(1-0.2)200]
p446
aVsqrt[0.25(1-0.25)200]
p447
aVsqrt[0.25(1-0.25)50]
p448
aVsqrt[0.20(1-0.20)50]
p449
aV10/sqrt[0.20(1-0.20)50]
p450
aV(1/4-1/5)/(sqrt[[1/5(1-1/5)]/50])
p451
aVno
p452
aVyes
p453
aV0
p454
aV40
p455
aV200
p456
aV40
p457
aVyes
p458
aVsqrt(2)/10
p459
aV10
p460
aV35
p461
aV0
p462
aV50
p463
aV10/(32)^1/2
p464
aVQ(.2)
p465
aV28.288
p466
aV(10)/(40^(1/2))
p467
aV(-10)/(40^(1/2))
p468
aV0.883883476
p469
aV(50 - 40)/(40^(1/2))
p470
aV(50 - 40)/(40)
p471
aV(50-40)/((.2*.8*200)^.5))
p472
aV(50 - 40)/(50)
p473
aV(50 - 40)/(50^(1/2))
p474
aV(50 - 40)/(40^(1/2))
p475
aV(50 - 40)/(10^(1/2))
p476
aV(0.25-0.2)/(SQRT(0.16/200)
p477
aV5/(4*sqrt(2))
p478
aV(50-40)/(32^(2/2))
p479
aV10/(4*sqrt(0.2*0.8*200))
p480
aV0.5/sqrt(0.16/200)
p481
aV0.5/sqrt(0.20/200)
p482
aV0.05/sqrt(0.20/200)
p483
aV6.123
p484
aV23
p485
aV(0.25-.20)/sqr((.20(1-.2))/200
p486
aV(0.25-.20)/sqrt((.20(1-.2))/200
p487
aV(0.05)/(sort(((0.20) *(0.80))/(200)))
p488
aV(.2 - .25) / sqrt( (.2 * .8 )
p489
aV1
p490
aV(.2 - .25) / sqrt( (.2 * .8 ) )
p491
aV(.25 -  .2) / sqrt( (.2 * .8 ) )
p492
aV1/2
p493
aV.579
p494
aV.5793
p495
aV(.25-.2)/(sqrt(.2(1-.2))/200)
p496
aV(.25-.2)/(sqrt(.16/200)
p497
aVyes
p498
aVyes
p499
aV.0793
p500
aV20
p501
aVQ(.2)
p502
aVQ(.2)
p503
aVQ(.2)
p504
aV(50-40)/sqrt(50)
p505
aV(50-40)/sqrt(50-40)
p506
aV50
p507
aV10/(1-0.20)()
p508
aV(50-(200/5))/(200(1/5)(1-(1/5)))
p509
aV50/200
p510
aV200
p511
aVQ((200*0.2-50)/sqrt(32))
p512
aV(32-50)/sqrt(32)
p513
aV(50-32)/sqrt(32)
p514
aV(32-40)/sqrt(32)
p515
aV(40-50)/sqrt(40)
p516
assV2
p517
g2
(g3
tp518
Rp519
g6
(lp520
Vno
p521
aV0.039
p522
aV0.25
p523
aV0.039
p524
aV0.039
p525
aVQ((50/200-.2)/(.2*.8/200)^1/2)
p526
aVyes
p527
aVno
p528
aVno
p529
aVno
p530
aVno
p531
aVno
p532
aV0.039
p533
aV0.20
p534
aV0.25
p535
aV1.76777
p536
aV1-Q(1.76777)
p537
aVno
p538
aVYes
p539
aVNo
p540
aV0.8
p541
aVno
p542
aVno
p543
aVQ((50/200 - .2)/sqrts(.2(1-.2)/200))
p544
aVno
p545
aV.039
p546
aV0.039
p547
aVno
p548
aV0.039
p549
aVP ( Z>1.7677)
p550
aVZ>1.7677
p551
aV0.039
p552
aV0.04
p553
aV0.039
p554
aV1%
p555
aV1
p556
aV3
p557
aVQ((50-200(.2))/(sqrt(200*.2)))
p558
aVQ(0.5/sqrt(0.16/200))
p559
aVQ(2*$phi-1)
p560
aVyes
p561
aVno
p562
aV.039
p563
aVP(H>(.25-.2)/sqrt((.2)*(1-.2)/200))
p564
aVH>(.25-.2)/sqrt((.2)*(1-.2)/200)
p565
aV.039
p566
aV.05
p567
aV.2
p568
aVQ((.25-.2)/((.16/200)^(1/2))
p569
aVQ(0.25-0.2)/(sqrt(0.2 * ( 1 - 0.2 ) / 200 ))
p570
aVno
p571
aVyes
p572
aVno
p573
aV.039
p574
aV1.7678
p575
aV.2
p576
aV.039*2
p577
aVQ(10/sqrt(40))
p578
aVyes
p579
aVyes
p580
aVno
p581
aVno
p582
aVyes
p583
aVyes
p584
aVyes
p585
aVyes
p586
aV0.039
p587
aVyes
p588
aVno
p589
aVno
p590
aV0.039
p591
aVQ((200*.2-50)/(sqrt(200*.2(1-.2))))
p592
aVQ(0.3125)
p593
aVno
p594
aVyes
p595
aVno
p596
aV0.039
p597
aVP(Z>1.7678)
p598
aV0.039
p599
aV0
p600
aVQ(
p601
aVQ(-10/sqrt(32))
p602
aVno
p603
aVyes
p604
aVQ(0.052579672)
p605
aV0.039
p606
aV.961
p607
aV.39
p608
aV.039
p609
aVQ(0.052579672)0.041399332
p610
aV0.0771
p611
aV0.038
p612
aV0.030
p613
aV0.031
p614
aV0.032
p615
aV0.033
p616
aVQ()
p617
aVQ(.2)
p618
aV1 - [(0.25 - 0.2)/(0.2(1 - 0.2))^0.5]
p619
aV1 - [(50/200) - 0.2]/[(0.2) * (1 - 0.2)/200]^0.5
p620
aVQ(1/4)
p621
aVQ([50-0.2*200]/[.2 * .8 * 200])
p622
aVQ(.2)
p623
aV1.7678
p624
aV0.039
p625
aV.0392
p626
aV1.96
p627
aV1.98
p628
aV0.9687
p629
aV.0784
p630
aVNo
p631
aVno
p632
aVyes
p633
aVQ(8)
p634
aVyes
p635
aVQ(.5)
p636
aVno
p637
aVQ(1.58)
p638
aVQ((50-200/5)/sqrt(0.2*0.8))
p639
aVQ((50-200*0.2)/sqrt(0.2*200))
p640
aVQ((50-200*0.2)/sqrt(0.2*200))*0.8*
p641
aV.674
p642
aV.9616
p643
aVQ(200*0.2)
p644
aV0.2
p645
aVQ(((50/200) - .20) / (.20(1 - .20)200))
p646
aV1-Q((50-200*.2)/(sqrt(200*0.2*0.8)))
p647
aV1-(1/2+1/2erf((1-(1/2+1/2erf(.3/sqrt(2))))/sqrt(2)))
p648
aVQ(1-(1/2+1/2erf(.3/sqrt(2))))
p649
aVyes
p650
aVno
p651
aVno
p652
aVyes
p653
aVyes
p654
aVyes
p655
aVno
p656
aVno
p657
aV.039
p658
aV1.76
p659
aV.020
p660
aV.39
p661
aV.039
p662
aVno
p663
aVQ(1.76)
p664
aVq((.25-.20)/sqrt((.2(1-.2))/200))
p665
aVno
p666
aVQ((40 - 50)/sqrt(40*.8))
p667
aV1 - Q(10/(200*0.2*0.8)^0.5)
p668
aVQ(1.776953)
p669
aV1-Q(1.776953)
p670
aV.2
p671
aVQ(1.776953)
p672
aV2*Q(1.776953)
p673
aVno
p674
aVno
p675
aV.16/200
p676
aVQ(.05/sqrt(.16/200)
p677
aV0.392
p678
aV0.0392
p679
aV0.039
p680
aVno
p681
aVno
p682
aVno
p683
aV0.039
p684
aV0.04
p685
aV.2
p686
aV1/5
p687
aV.20
p688
aV.25
p689
aV0.05
p690
aV0.039
p691
aV0.20
p692
aV0.039
p693
aVQ(8/sqrt(2))
p694
aVQ(0.1/sqrt(0.1*0.9/40))
p695
aVQ(2/sqrt(2))
p696
aV.039
p697
aV0.039
p698
aVP(Z > 1.7678)
p699
aV(Q > 1.7678)
p700
aV.2322
p701
aV.7322
p702
aV0.0771
p703
aV0.1542
p704
aV0.0104
p705
aVno
p706
aV0.039
p707
aVQ(0.2)
p708
aVQ(0.25)
p709
aV1- Phi(0.2)
p710
aV1- Phi(0.25)
p711
aVQ(0.05/sqrt(0.16/200)
p712
aVno
p713
aVq((0.25-.2)/sqrt(0.2(1-0.2)/200))
p714
aVyes
p715
aVno
p716
aVNo
p717
aVno
p718
aV.039
p719
aV50/200
p720
aV0.039
p721
aV0.0390
p722
aV0.0391
p723
aV0.0392
p724
aV0.0393
p725
aV0.0394
p726
aV0.0395
p727
aV0.0396
p728
aV0.0397
p729
aV0.0398
p730
aV0.0399
p731
aV.2
p732
aVQ(((0.2*200)-5)/sqrt(200*0.2(1-0.2)))
p733
aVQ(1.632993162)
p734
aV0.2
p735
aV.04
p736
aV1-Q(1.767766953
p737
aV1-Q(1.767766953)
p738
aV1-Q((0.25-0.2) /((0.2)(1-0.2)/200)^(1/2))
p739
aV.2
p740
aVQ(200)
p741
aVQ(150)
p742
aVQ(.2)
p743
aVQ(40)
p744
aV.025
p745
aVQ(.2)
p746
aV0.039
p747
aV0
p748
aV.05
p749
aV5
p750
aV.01
p751
aVQ(1.21)
p752
aV0.07841
p753
aV0.07673
p754
aV0.9599
p755
aV0.9608
p756
aV0.9616
p757
aV.039
p758
aV.077
p759
aV0.038556.
p760
aVyes
p761
aVno
p762
aVP[.2>(50-40)/(sqrt((200)(.2)(.8)))]
p763
aV[.2>(50-40)/(sqrt((200)(.2)(.8)))]
p764
aV.2
p765
aV[ [(200 )(.2 )]-(.2 ) ]/[ sqrt[(200 )(.2 ) (1 -.2 )]]
p766
aV[ [(50 )(.2 )]-(.2 ) ]/[ sqrt[(200 )(.2 ) (1 -.2 )]]
p767
aVno
p768
aV.2
p769
aV.2-1.76777
p770
aV-.2608
p771
aV.2608
p772
aV.25
p773
aV10Q/sqrt(32)
p774
aV(10Q)/sqrt(32)
p775
aV(10q)/sqrt(32)
p776
aV(10*.2)/sqrt(32)
p777
aVyes
p778
aV5%
p779
aV0.039
p780
aV0.03
p781
aV0.02
p782
aV0.04
p783
aVQ(0.3)
p784
aVQ(0.31)
p785
aVQ(0.29)
p786
aVQ(0.299)
p787
aVQ(0.2999999)
p788
aVQ(0.33)
p789
aVQ(0.28)
p790
aVQ(0.26)
p791
aVQ(0.279)
p792
aVQ(1.8)
p793
aVQ(1.89)
p794
aVQ(1.79)
p795
aVQ(1.6)
p796
aVQ(1.799999)
p797
aVQ(0.883883476)
p798
aVQ(.2)
p799
aV1-Q(.2)
p800
aV2*Q(.2)
p801
aV.15
p802
aV.025
p803
aV.0015
p804
aV.0003
p805
aV1
p806
aV2
p807
aV3
p808
aV4
p809
aV0.04935333238
p810
aV(Q(50-40)/(32^(1/2)))
p811
aVQ(10/(4*sqrt(0.2*0.8*200)))
p812
aVQ(1)
p813
aVQ(2)
p814
aVQ(3)
p815
aVQ(4)
p816
aVQ(.2)
p817
aVQ(50)
p818
aVQ(1)
p819
aVQ(0.5/sqrt(0.16/200))
p820
aVQ(0.5/sqrt(0.20/200))
p821
aVQ(0.05/sqrt(0.20/200))
p822
aVQ(50-40)/sqrt(32)
p823
aVQ(50-40/sqrt(32))
p824
aV0.077
p825
aV0.077099
p826
aVyes
p827
aVno
p828
aVq ((.25 - .2) / sqrt( (.2 * .8 ) / 200) )
p829
aVQ((.25-.2)/(sqrt(.16/200)),1.7677)
p830
aV0.039
p831
aVP(Z > 1.7678)
p832
aVQ(Z > 1.7678)
p833
aV20
p834
aVyes
p835
aVyes
p836
aVsqrt((1/5)(200)(1-(1/5))
p837
aVsqrt((1/5)(200)(1-(1/5)))
p838
aVQ()
p839
aVQ(.25)
p840
aV 0.039.
p841
aV 0.039
p842
aVyes
p843
asS"['R.0']"
p844
(lp845
V1.76777-.2
p846
ass.