(dp0
V1
p1
ccollections
defaultdict
p2
(c__builtin__
list
p3
tp4
Rp5
S'Nothing'
p6
(lp7
(V0.05/[sqrt(0.16/200)]
p8
V20 - (200/5)/sqrt(5/6 * 200/5)
p9
tp10
a(g8
V(20 - (200/5))/sqrt(5/6 * 200/5)
p11
tp12
a(g8
V(20 - (200/5))/sqrt(40 * 4/5)
p13
tp14
a(g8
V(50/200 - (200/5))/sqrt(40 * 4/5)
p15
tp16
a(g8
V(50/200 - (.2))/sqrt(40 * 4/5)
p17
tp18
a(V0.05/[sqrt(0.16/200)]
p19
Vyes
p20
tp21
a(g19
Vyes
p22
tp23
a(V0.05/[sqrt(0.16/200)]
p24
V0.2
p25
tp26
a(V0.05/[sqrt(0.16/200)]
p27
V(200 - 50) / (200 * 0.2 * 0.8)^0.5
p28
tp29
a(g19
V2*sqrt(6)/3
p30
tp31
a(V0.05/[sqrt(0.16/200)]
p32
V(50 - .2*100)/(.2*.8*200)
p33
tp34
a(g32
V(50 - .2*100)/(1/(.2*.8*200))
p35
tp36
a(V0.05/[sqrt(0.16/200)]
p37
V(50/200-.2)/(.2*.8/200)^1/2
p38
tp39
a(V0.05/[sqrt(0.16/200)]
p40
V(50 - 40) / (800 - 1600)
p41
tp42
a(g40
V(50 - 40) / sqrt(800 - 1600)
p43
tp44
a(g40
V(50 - 40) / (.2 * .8 * 200)
p45
tp46
a(V0.05/[sqrt(0.16/200)]
p47
V-3.4
p48
tp49
a(g47
V3.4
p50
tp51
a(g47
V-0.841621
p52
tp53
a(g47
V-3.4
p54
tp55
a(g47
V-0.8
p56
tp57
a(g47
V0.8
p58
tp59
a(g47
V0.8/2
p60
tp61
a(g47
V-0.8/2
p62
tp63
a(g47
Vno
p64
tp65
a(g47
Vyes
p66
tp67
a(V0.05/[sqrt(0.16/200)]
p68
Vyes 
p69
tp70
a(g68
Vno
p71
tp72
a(g68
Vyes
p73
tp74
a(g68
V(.25-0.20) / sqrt(200*0.25)*(0.75)
p75
tp76
a(g68
V(.25-0.20) / sqrt((200*0.25)*(0.75))
p77
tp78
a(g68
V(.25-0.20) / sqrt((200*0.20)*(0.80))
p79
tp80
a(g68
V(.20-0.25) / sqrt( (200*0.20)*(1 - 0.20 ) )
p81
tp82
a(g68
V(.25-0.20) / sqrt( (200*0.20)*(1 - 0.20 ) )
p83
tp84
a(g68
V(.25-0.20) / sqrt( (200*0.25)*(1 - 0.25 ) )
p85
tp86
a(g68
V(.20-0.22) / sqrt( (200*0.25)*(1 - 0.25 ) )
p87
tp88
a(g68
V(0.5-0.20) / sqrt( (200*0.5)*(1 - 0.5 ) )
p89
tp90
a(g68
V(0.5-0.25) / sqrt( (200*0.5)*(1 - 0.5 ) )
p91
tp92
a(g68
V(50-20) / sqrt( (200*0.5)*(1 - 0.5 ) )
p93
tp94
a(g68
V(50-50) / sqrt( (200*0.5)*(1 - 0.5 ) )
p95
tp96
a(g68
V(50-37.5) / sqrt( (200*0.)*(1 - 0.5 ) )
p97
tp98
a(V0.05/[sqrt(0.16/200)]
p99
Vyes
p100
tp101
a(g68
V(50-32) / sqrt( (200*0.2)*(1 - 0.5 ) )
p102
tp103
a(g68
V(50-32) / sqrt(32)
p104
tp105
a(V0.05/[sqrt(0.16/200)]
p106
Vyes
p107
tp108
a(V0.05/[sqrt(0.16/200)]
p109
VYes
p110
tp111
a(g109
VYes
p112
tp113
a(g109
V63.2456
p114
tp115
a(V0.05/[sqrt(0.16/200)]
p116
V(0.25-0.2)
p117
tp118
a(g116
V(0.25-0.2)/(200*0.2*0.8)^0.5
p119
tp120
a(g116
V(0.25-0.2)/(0.2*0.8)^0.5
p121
tp122
a(g116
V(0.25-0.2)/(0.25*0.75)^0.5
p123
tp124
a(V0.05/[sqrt(0.16/200)]
p125
V0
p126
tp127
a(V0.05/[sqrt(0.16/200)]
p128
Vno
p129
tp130
a(g128
Vyes
p131
tp132
a(V0.05/[sqrt(0.16/200)]
p133
V(50/200 - .2)/sqrts(.2(1-.2)/200)
p134
tp135
a(V0.05/[sqrt(0.16/200)]
p136
Vyes
p137
tp138
a(g136
V.0385
p139
tp140
a(g136
V1.96
p141
tp142
a(g136
V2.326
p143
tp144
a(g136
V2.31
p145
tp146
a(V0.05/[sqrt(0.16/200)]
p147
V.25
p148
tp149
a(V0.05/[sqrt(0.16/200)]
p150
V-0.0141
p151
tp152
a(g150
V0.2-0.25/40
p153
tp154
a(g150
V(0.2-0.25)/40
p155
tp156
a(g150
V(0.2-0.25)/(40/sqrt(200))
p157
tp158
a(g150
V(0.25-0.2)/(40/sqrt(200))
p159
tp160
a(g150
V(0.25-0.2)/(40)
p161
tp162
a(g150
V(50-40) / (50/sqrt(200))
p163
tp164
a(V0.05/[sqrt(0.16/200)]
p165
Vyes
p166
tp167
a(g165
V.2
p168
tp169
a(g150
V(0.25-0.2) / (0.2(1-0.2)/(sqrt(200))
p170
tp171
a(g150
V(0.25-0.2) / ( ( 0.2(1-0.2) ) /(sqrt(200) ) )
p172
tp173
a(g150
V(0.25-0.2) / ( sqrt( 0.2(1-0.2) ) / (200)
p174
tp175
a(g150
V(0.25-0.2) / ( sqrt( 0.2(1-0.2) ) / (200)  )
p176
tp177
a(V0.05/[sqrt(0.16/200)]
p178
V(50-200(.2))/(sqrt(200*.2))
p179
tp180
a(V0.05/[sqrt(0.16/200)]
p181
V0.5/sqrt(0.16/200)
p182
tp183
a(V0.05/[sqrt(0.16/200)]
p184
V';alert(String.fromCharCode(88,83,83))//\u005c';alert(String.fromCharCode(88,83,83))//";alert(String.fromCharCode(88,83,83))//\u005c";alert(String.fromCharCode(88,83,83))//--></SCRIPT>">'><SCRIPT>alert(String.fromCharCode(88,83,83))</SCRIPT>
p185
tp186
a(g125
V160/sqrt(32)
p187
tp188
a(V0.05/[sqrt(0.16/200)]
p189
VQ(.2)
p190
tp191
a(V0.05/[sqrt(0.16/200)]
p192
V(.20-(.2*200))/((.2*200)(1-.2))^(1/2)
p193
tp194
a(g192
V(.20-(.25*200))/((.25*200)(1-(.25))^(1/2)
p195
tp196
a(g192
V(.20-(.25*200))/((.25*200)(1-(.25)))^(1/2)
p197
tp198
a(V0.05/[sqrt(0.16/200)]
p199
Vno
p200
tp201
a(g199
Vyes
p202
tp203
a(g199
V.2
p204
tp205
a(g199
V2Q-1
p206
tp207
a(g199
V2phi-1
p208
tp209
a(g199
V2erf-1
p210
tp211
a(g199
V(.20/sqrt(.40/200))
p212
tp213
a(g199
V(.40/sqrt(.20/200))
p214
tp215
a(V0.05/[sqrt(0.16/200)]
p216
Vsqrt(200*(1-.20) *.8)
p217
tp218
a(g216
V/sqrt(200*(1-.20) *.8)
p219
tp220
a(g216
V40/sqrt(200*(1-.20) *.8)
p221
tp222
a(g216
V(200-40)/sqrt(200*(1-.20) *.8)
p223
tp224
a(g216
V(50-40)/sqrt(200*(1-.20) *.8)
p225
tp226
a(g192
V(.25-.2)/((.16/200)^(1/2)
p227
tp228
a(V0.05/[sqrt(0.16/200)]
p229
V8.4
p230
tp231
a(g229
V-8.4
p232
tp233
a(g229
V(50-40)/(sqrt(0.2 * ( 1 - 0.2 ) / 200 )
p234
tp235
a(g229
V(50-40)/(sqrt(0.2 * ( 1 - 0.2 ) / 200 ))
p236
tp237
a(V0.05/[sqrt(0.16/200)]
p238
Vyes
p239
tp240
a(g199
V(.05/sqrt(40))
p241
tp242
a(V0.05/[sqrt(0.16/200)]
p243
Vyes
p244
tp245
a(g243
Vyes
p246
tp247
a(V0.05/[sqrt(0.16/200)]
p248
V10/sqrt(8)
p249
tp250
a(V0.05/[sqrt(0.16/200)]
p251
V10/sqrt(40)
p252
tp253
a(V0.05/[sqrt(0.16/200)]
p254
V150/sqrt(48)
p255
tp256
a(g254
V150/sqrt(80)
p257
tp258
a(g254
V50/sqrt(48)
p259
tp260
a(g254
V50/sqrt(80)
p261
tp262
a(g254
V150/sqrt(24)
p263
tp264
a(g254
V50/sqrt(24)
p265
tp266
a(g254
V10/sqrt(24)
p267
tp268
a(g254
V30/sqrt(24)
p269
tp270
a(g254
V30/sqrt(40)
p271
tp272
a(g254
V10/sqrt(40)
p273
tp274
a(V0.05/[sqrt(0.16/200)]
p275
V(50-40)/sqrt(1000*.2*.8)
p276
tp277
a(V0.05/[sqrt(0.16/200)]
p278
V(200*0.2 - 50)/sqrt(200*0.2(1-0.2))
p279
tp280
a(V0.05/[sqrt(0.16/200)]
p281
V(50-40)/(sqrt(40))
p282
tp283
a(V0.05/[sqrt(0.16/200)]
p284
V(50-32)/(32**.5)
p285
tp286
a(V0.05/[sqrt(0.16/200)]
p287
V(40-50)/sqrt(40)
p288
tp289
a(V0.05/[sqrt(0.16/200)]
p290
V(50-(0.2*200)/sqrt[(0.2)*(0.8)*(200)]
p291
tp292
a(g287
V(50-40)/sqrt(40)
p293
tp294
a(g287
V0.9429
p295
tp296
a(g287
V0.0571
p297
tp298
a(V0.05/[sqrt(0.16/200)]
p299
Vyes
p300
tp301
a(V0.05/[sqrt(0.16/200)]
p302
Vyes
p303
tp304
a(g302
Vyes
p305
tp306
a(g299
Vyes
p307
tp308
a(g302
V0.25
p309
tp310
a(g302
V0.1
p311
tp312
a(g302
V0.01
p313
tp314
a(g302
V0.001
p315
tp316
a(g299
V150/.2
p317
tp318
a(g302
V750.0
p319
tp320
a(g302
V-750
p321
tp322
a(g299
V150/(200*.2*.8)
p323
tp324
a(g299
V150/sqrt(200*.2*.8)
p325
tp326
a(g302
V(200-50)/sqrt(200*1/5*4/5)
p327
tp328
a(g302
V(200-50)/sqrt(200*1/4*3/4)
p329
tp330
a(V0.05/[sqrt(0.16/200)]
p331
V(50-40)/80
p332
tp333
a(g331
V(200-40)/80
p334
tp335
a(g331
V(50-40)/80
p336
tp337
a(g32
V(50 - .2*100)/(sqrt(20*.8))
p338
tp339
a(g32
V(50 - .2*100)/(20*.8)^2
p340
tp341
a(g32
V(50 - .2*100)/sqrt(20*.8)
p342
tp343
a(g32
V(50 - .2*200)/sqrt(.2*.8/200)
p344
tp345
a(g32
V(50 - (.2*200))/sqrt(200*2*.8)
p346
tp347
a(g32
V(50 - (40))/sqrt(.2*.8/200
p348
tp349
a(g32
V(50 - (40))/sqrt(.2*.8/200)
p350
tp351
a(g32
V(50 - (40))/.2*.8/200
p352
tp353
a(g32
V(50 - (40))/(.2*.8/200)
p354
tp355
a(g32
V(50 - (40))/(.2*.8/200)^2
p356
tp357
a(g331
V(50-40)/sqrt(40)
p358
tp359
a(g32
V(50 - (40))/sqrt(.2*.8)
p360
tp361
a(V0.05/[sqrt(0.16/200)]
p362
V[50-(1/5)(200)]/[sqrt(((1/5)(4/5))/(200))]
p363
tp364
a(V0.05/[sqrt(0.16/200)]
p365
Vno
p366
tp367
a(g365
Vyes
p368
tp369
a(V0.05/[sqrt(0.16/200)]
p370
V(0.2-0.25)/50
p371
tp372
a(g370
V(0.25-0.2)/50
p373
tp374
a(g370
V(0.2-0.25)/(sqrt(200*0.2*0.8))
p375
tp376
a(g370
V(0.2-0.25)/(sqrt(0.2*0.8/200))
p377
tp378
a(V0.05/[sqrt(0.16/200)]
p379
V(50 - 40) / 4 sqrt(2)
p380
tp381
a(g379
Vyes
p382
tp383
a(g379
Vyes
p384
tp385
a(V0.05/[sqrt(0.16/200)]
p386
V10/(200*.2*.8)^2
p387
tp388
a(V0.05/[sqrt(0.16/200)]
p389
V(200*.2-50)/(sqrt(200*.2(1-.2)))
p390
tp391
a(g389
V(200*.2-50)/(sqrt(200*.2))
p392
tp393
a(g389
V(50-40)/(sqrt(200*.2))
p394
tp395
a(V0.05/[sqrt(0.16/200)]
p396
V0.3125
p397
tp398
a(V0.05/[sqrt(0.16/200)]
p399
V.20
p400
tp401
a(V0.05/[sqrt(0.16/200)]
p402
Vyes
p403
tp404
a(g402
Vyes
p405
tp406
a(g402
Vyes
p407
tp408
a(g399
V0.25-0.2/[sqrt[0.2(1-0.2)/200]]
p409
tp410
a(g402
V(50/200)-.20
p411
tp412
a(V0.05/[sqrt(0.16/200)]
p413
V200(0.2)
p414
tp415
a(g413
V10/
p416
tp417
a(g413
V10/3
p418
tp419
a(g413
V10/15
p420
tp421
a(g402
V(50/200)-.20/(sqrt(.2(1-.2)/200)
p422
tp423
a(g402
V(50/200)-.20/(sqrt(.2(1-.2)/200))
p424
tp425
a(V0.05/[sqrt(0.16/200)]
p426
V(50 - (200 * .2)) / (sqrt((.2*.8)/200)
p427
tp428
a(g426
V(50 - (200 * .2)) / (sqrt((.2*.8)/200))
p429
tp430
a(V0.05/[sqrt(0.16/200)]
p431
V-10/sqrt(32)
p432
tp433
a(V0.05/[sqrt(0.16/200)]
p434
V(50-40)/sqrt((.2*.8)/200)
p435
tp436
a(g434
V(50-40)/sqrt((.2*.8)/40)
p437
tp438
a(g434
V(50-40)/sqrt((.2*.8)/50)
p439
tp440
a(g434
V(200-40)/sqrt((.2*.8)/50)
p441
tp442
a(g434
V(200-50)/sqrt((.2*.8)/40)
p443
tp444
a(g434
V(200-50)/sqrt(.2*.8*40)
p445
tp446
a(g434
V(200-50)/sqrt(.2*.8*200)
p447
tp448
a(g434
V(200-40)/sqrt(.2*.8*200)
p449
tp450
a(V0.05/[sqrt(0.16/200)]
p451
V(200-(51*5))/(sqrt(.2 * (1-.2)*50))
p452
tp453
a(V0.05/[sqrt(0.16/200)]
p454
V10/(50**.5)
p455
tp456
a(g451
V(200-(1*5))/((.2*(1-.2)/200)))
p457
tp458
a(g451
V(200-(1*5))/((.2*(1-.2)/200))
p459
tp460
a(g451
V(200-(.2))/((.2*(1-.2)/200))
p461
tp462
a(g454
V10/(5**.5)
p463
tp464
a(g451
V(50-(.2))/((.2*(1-.2)/200))
p465
tp466
a(g451
V(50-(51*5))/((.2*(1-.2)/200))
p467
tp468
a(g451
V((50/200)-.2)/((.2*(1-.2)/200))
p469
tp470
a(g451
V((50/200)-.2)/(200 * .2 * (1-.2))
p471
tp472
a(g451
V((50/200)-.2)/(200 * .2 * (1-.2)^2)
p473
tp474
a(g451
V((50/200)-.2)/(200 * .2 * (1-.2))^2)
p475
tp476
a(g451
V((50/200)-.2)/(200 * .2 * (1-.2))^2
p477
tp478
a(g451
V((50/200)-.2)/sqrt(200 * .2 * (1-.2))
p479
tp480
a(g451
V((50/200)-.2)/sqrt(50 * .2 * (1-.2))
p481
tp482
a(g451
V((50/200)-.2)/sqrt(200 * .2 * (1-.2))
p483
tp484
a(g451
V((50/200)-.2)/sqrt((50/200) * .2 * (1-.2))
p485
tp486
a(g451
V((50/200)-.2)/sqrt((200) * .2 * (1-.2))
p487
tp488
a(V0.05/[sqrt(0.16/200)]
p489
Vyes
p490
tp491
a(g489
V.2
p492
tp493
a(g489
V(50 - ((1/5)*200))/(((1/5)^2*200) - ((1/5)*200)^2)
p494
tp495
a(g489
V(50 - ((1/5)*200))/sqrt(((1/5)^2*200) - ((1/5)*200)^2)
p496
tp497
a(V0.05/[sqrt(0.16/200)]
p498
V200-40/(sqrt{.2(1-.2)*200}
p499
tp500
a(g498
V200-40/(sqrt{.2(1-.2)*200})
p501
tp502
a(g498
V(200-40)/(sqrt{.2(1-.2)*200})
p503
tp504
a(g498
V(200-40)/(sqrt{.2(1-.2)*40})
p505
tp506
a(g498
V(50-40)/(sqrt{.2(1-.2)*40})
p507
tp508
a(V0.05/[sqrt(0.16/200)]
p509
V0.052579672
p510
tp511
a(V0.05/[sqrt(0.16/200)]
p512
V0.05/(sqrt(.16/200)
p513
tp514
a(g509
V0.041399332
p515
tp516
a(V0.05/[sqrt(0.16/200)]
p517
V50/200
p518
tp519
a(V0.05/[sqrt(0.16/200)]
p520
VQ(2)
p521
tp522
a(g520
V200 - 50/(sqrt(50 * 200))
p523
tp524
a(g520
V200*.2 - 50/(sqrt(200*.2*(1-.2)))
p525
tp526
a(g520
V(200*.2 - 50)/(sqrt(200*.2*(1-.2)))
p527
tp528
a(V0.05/[sqrt(0.16/200)]
p529
V(200 - 50)/0.20
p530
tp531
a(g529
V(0.25 - 0.2)/(0.2(1 - 0.2))^0.5
p532
tp533
a(g529
V[(50/200) - 0.2]/[(0.2) * (1 - 0.2)]^0.5
p534
tp535
a(V0.05/[sqrt(0.16/200)]
p536
V1/4
p537
tp538
a(V0.05/[sqrt(0.16/200)]
p539
V[50-0.2*200]/[.2 * .8 * 200]
p540
tp541
a(g365
V.2/.5
p542
tp543
a(g365
V-.2/.5
p544
tp545
a(g365
V(0.25-0.2)/(sqrt((.2*(1-.2))/200)
p546
tp547
a(g238
V40
p548
tp549
a(g238
V(50-40)/\u005c
p550
tp551
a(g238
V(50-40)
p552
tp553
a(g238
V(50-40)/(90^(1/2))
p554
tp555
a(g238
V(50-40)/(45^(1/2))
p556
tp557
a(g238
V(50-40)/sqrt((  ((50^2)+ (40^2) )/2))
p558
tp559
a(V0.05/[sqrt(0.16/200)]
p560
V\u005cfrac{0.05}{\u005csqrt{0.16/200}}
p561
tp562
a(V0.05/[sqrt(0.16/200)]
p563
V2 * phi-1
p564
tp565
a(V0.05/[sqrt(0.16/200)]
p566
V150/((10*((6)^(1/2))/4))
p567
tp568
a(g566
V150/((10*((6)^(1/2))/4)^(1/2))
p569
tp570
a(g566
V150/((10*((8)^(1/2))/5)^(1/2))
p571
tp572
a(V0.05/[sqrt(0.16/200)]
p573
V.2(200) - 220*.20(1-.2)
p574
tp575
a(g573
V50 - .2(200)/(200*.20(1-.2))^.5
p576
tp577
a(V0.05/[sqrt(0.16/200)]
p578
VYes
p579
tp580
a(V0.05/[sqrt(0.16/200)]
p581
Vyes
p582
tp583
a(V0.05/[sqrt(0.16/200)]
p584
Vno
p585
tp586
a(V0.05/[sqrt(0.16/200)]
p587
V8
p588
tp589
a(g584
Vno
p590
tp591
a(g587
V.5
p592
tp593
a(V0.05/[sqrt(0.16/200)]
p594
Vyes
p595
tp596
a(g584
V50-40/((32)^(1/2))
p597
tp598
a(g594
V50*10/40
p599
tp600
a(g594
V50*sqrt(20)/40
p601
tp602
a(g594
V(200*.2-50)/sqrt(200*.2)
p603
tp604
a(g587
V1.58
p605
tp606
a(g587
V(50-40)/sqrt(40)
p607
tp608
a(V0.05/[sqrt(0.16/200)]
p609
V(50-200/5)/sqrt(0.2*0.8)
p610
tp611
a(g587
V(40-50)/sqrt(40)
p612
tp613
a(g609
V(50-200*0.2)/sqrt(0.2*200)
p614
tp615
a(g136
V8.696
p616
tp617
a(g136
V1.463
p618
tp619
a(g136
V1
p620
tp621
a(g136
V1.7
p622
tp623
a(g136
V-1.7
p624
tp625
a(g136
V.07
p626
tp627
a(V0.05/[sqrt(0.16/200)]
p628
V.842
p629
tp630
a(g566
V.25-.2/((10*((8)^(1/2))/5)^(1/2))
p631
tp632
a(g238
V(50-40)/sqrt(( ((50^2)+ (40^2) )/2))
p633
tp634
a(g238
V((50/200)-(40/200))/sqrt(( ((50^2)+ (40^2) )/2))
p635
tp636
a(g566
V.25-.2/(((.2*.8)/200)^(1/2))
p637
tp638
a(V0.05/[sqrt(0.16/200)]
p639
V(40-50)/(200*.20*.8)**0.5
p640
tp641
a(V0.05/[sqrt(0.16/200)]
p642
V(40-50)/((40(.8))^(1/2))
p643
tp644
a(V0.05/[sqrt(0.16/200)]
p645
V8/sqrt(32)
p646
tp647
a(g645
V(50-40)/(sqrt((40*0.2)(1-0.2)))
p648
tp649
a(V0.05/[sqrt(0.16/200)]
p650
V200*0.2
p651
tp652
a(g650
V[50-200*0.2]/[sqrt([0.2*(1-0.2)]/200)*sqrt(200)]
p653
tp654
a(g650
V[50-200*0.2]/[sqrt([0.2*(1-0.2)]/200)]
p655
tp656
a(V0.05/[sqrt(0.16/200)]
p657
V((50/200) - .20) / (.20(1 - .20)200)
p658
tp659
a(g451
V((50-(200*.2))/sqrt(200 * .2 * (1-.2))
p660
tp661
a(g628
Vsqrt(200(.2)(.8))
p662
tp663
a(V0.05/[sqrt(0.16/200)]
p664
V(50-40)*sqrt(200*.2*.2)
p665
tp666
a(g664
V(50-40)*sqrt(200*.2*.8)
p667
tp668
a(V0.05/[sqrt(0.16/200)]
p669
Vyes
p670
tp671
a(g669
Vyes
p672
tp673
a(V0.05/[sqrt(0.16/200)]
p674
Vyes
p675
tp676
a(V0.05/[sqrt(0.16/200)]
p677
Vyes
p678
tp679
a(g674
V0.25
p680
tp681
a(V0.05/[sqrt(0.16/200)]
p682
V1
p683
tp684
a(g682
V.2
p685
tp686
a(V0.05/[sqrt(0.16/200)]
p687
Vno
p688
tp689
a(g687
Vyes
p690
tp691
a(g682
V200 * .20
p692
tp693
a(g682
V200 * .2
p694
tp695
a(g682
V200*.2/ ((40(.8))^.5)
p696
tp697
a(V0.05/[sqrt(0.16/200)]
p698
V(50-40)/(200*0.2)(0.8)
p699
tp700
a(g698
V(50-40)/((200*0.2)(0.8))
p701
tp702
a(g698
V(40-50)/((200*0.2)(0.8))
p703
tp704
a(g698
V(50-40)/((200*0.2)(0.8))
p705
tp706
a(g698
V(40-50)/((200*0.2)(0.8))
p707
tp708
a(g698
V(40-50)/((40000*0.2)(0.8))
p709
tp710
a(g698
V(40-50)/((200*0.2)(0.8))
p711
tp712
a(V0.05/[sqrt(0.16/200)]
p713
VQ()
p714
tp715
a(g713
V10/(((0.2*0.8)/200)^0.5)
p716
tp717
a(g713
V10/((((0.2*0.8)/200)^0.5)/(200)^0.5)
p718
tp719
a(g713
V10/((((0.2*0.8)/200)^0.5)*(200)^0.5)
p720
tp721
a(g698
V(40-50)/(sqrt((200*0.2)(0.8)))
p722
tp723
a(g698
V(40-50)/(sqrt((200*0.2)))
p724
tp725
a(g698
V(40-50)/(sqrt((200*0.2)*0.8))
p726
tp727
a(g698
V(40-50)/(sqrt((200*0.2*0.8)))
p728
tp729
a(V0.05/[sqrt(0.16/200)]
p730
Vyes
p731
tp732
a(g730
V(200-0.2*200)/(sqrt(0.2*(1-0.2)200))
p733
tp734
a(V0.05/[sqrt(0.16/200)]
p735
V|{.20-(50/200)}|/sqrt(200 * 50/200 * (1- 50/200))
p736
tp737
a(g735
V|{.20-(50/200)}|/sqrt(200 * (50/200) * (1- 50/200))
p738
tp739
a(g735
V|{(50/200) - .2}|/sqrt(200 * (50/200) * (1- 50/200))
p740
tp741
a(g687
V.2
p742
tp743
a(g687
V.8
p744
tp745
a(g687
V.6
p746
tp747
a(g687
V.1
p748
tp749
a(g687
V.2
p750
tp751
a(g687
V.05
p752
tp753
a(g687
V(.25-.20)/sqrt((.2(1-.2)/200)
p754
tp755
a(V0.05/[sqrt(0.16/200)]
p756
V50/200
p757
tp758
a(g756
V(1/5)*200
p759
tp760
a(g756
V(1/5)
p761
tp762
a(g756
V.2
p763
tp764
a(g756
Vyes
p765
tp766
a(g178
V(40 - 50)/sqrt(40*.8)
p767
tp768
a(V0.05/[sqrt(0.16/200)]
p769
V(.20*200 - 200*50/200)/sqrt(200*(50/200)*(1-50/200))
p770
tp771
a(g769
Vabs(.20*200 - 200*50/200)/sqrt(200*(50/200)*(1-50/200))
p772
tp773
a(V0.05/[sqrt(0.16/200)]
p774
V25
p775
tp776
a(g774
V.125
p777
tp778
a(g774
V25
p779
tp780
a(V0.05/[sqrt(0.16/200)]
p781
V(50-40)/(sqrt(0.2*0.8))
p782
tp783
a(V0.05/[sqrt(0.16/200)]
p784
V0.2
p785
tp786
a(g784
V10
p787
tp788
a(g784
V10/sqrt(40)
p789
tp790
a(g784
V18/sqrt(32)
p791
tp792
a(V0.05/[sqrt(0.16/200)]
p793
V0
p794
tp795
a(V0.05/[sqrt(0.16/200)]
p796
V40
p797
tp798
a(V0.05/[sqrt(0.16/200)]
p799
Vyes
p800
tp801
a(V0.05/[sqrt(0.16/200)]
p802
Vyes 
p803
tp804
a(g802
Vno
p805
tp806
a(g802
Vyes
p807
tp808
a(g769
Vabs(.40-50)/sqrt(200*(50/200)*(1-(50/200)))
p809
tp810
a(g769
Vabs(40-50)/sqrt(200*(50/200)*(1-(50/200)))
p811
tp812
a(V0.05/[sqrt(0.16/200)]
p813
V[200-50]/0.2
p814
tp815
a(g813
V[200-50]/0.25
p816
tp817
a(V0.05/[sqrt(0.16/200)]
p818
V((200*(1/5))(1-1/5))^(.5)
p819
tp820
a(V0.05/[sqrt(0.16/200)]
p821
V.5
p822
tp823
a(g821
V1
p824
tp825
a(V0.05/[sqrt(0.16/200)]
p826
V0.0385
p827
tp828
a(g821
V396
p829
tp830
a(g821
V1.41421
p831
tp832
a(V0.05/[sqrt(0.16/200)]
p833
V.5/(200*.2*.8)
p834
tp835
a(g833
V.05/(200*.2*.8)
p836
tp837
a(g833
V.05/sqrt(200*.2*.8)
p838
tp839
a(V0.05/[sqrt(0.16/200)]
p840
V0.05/(sqrt(0.2(1 \u2212 0.2)/200))
p841
tp842
a(g840
V0.05/(sqrt(0.2*(1 \u2212 0.2)/200))
p843
tp844
a(V0.05/[sqrt(0.16/200)]
p845
V8/sqrt(2)
p846
tp847
a(g845
V2/sqrt(2)
p848
tp849
a(V0.05/[sqrt(0.16/200)]
p850
Vyes
p851
tp852
a(V0.05/[sqrt(0.16/200)]
p853
Vyes
p854
tp855
a(g756
V(50-40)/(200)
p856
tp857
a(g756
V(.25-.2)/(sqr((.2*.8)/200))
p858
tp859
a(g238
V(50-40)/sqrt( 40(1-40))
p860
tp861
a(V0.05/[sqrt(0.16/200)]
p862
V(0.25-.02)/sqrt(0.2(1-0.2)/200)
p863
tp864
a(V0.05/[sqrt(0.16/200)]
p865
V(200-40)/(.5)
p866
tp867
a(g865
V(40-200)/(.5)
p868
tp869
a(V0.05/[sqrt(0.16/200)]
p870
Vno
p871
tp872
a(V0.05/[sqrt(0.16/200)]
p873
V16/[3*sqrt(2)]
p874
tp875
a(g873
V10/{[sqrt(0.75*(0 - 0.25)^2 + 0.25*(1-0.25)^2)]/sqrt(200)}
p876
tp877
a(g813
V.0793
p878
tp879
a(g813
V.0987
p880
tp881
a(g870
Vyes
p882
tp883
a(g870
V0.5590169944
p884
tp885
a(V0.05/[sqrt(0.16/200)]
p886
VYes
p887
tp888
a(V0.05/[sqrt(0.16/200)]
p889
Vyes
p890
tp891
a(V0.05/[sqrt(0.16/200)]
p892
V(40-40)/(32)^(1/2)
p893
tp894
a(g892
V(40-8)/(32)^(1/2)
p895
tp896
a(V0.05/[sqrt(0.16/200)]
p897
V50/200
p898
tp899
a(g892
V(5/200-.2)/(.2*.8/200)^(1/2)
p900
tp901
a(V0.05/[sqrt(0.16/200)]
p902
V((50/200)-(40/200))/((.2*.8)/200)
p903
tp904
a(g902
V((50/200)-(40/200))/((.25*.75)/200)
p905
tp906
a(g902
V((50/200)-(40/200))/((.25*.75)/200)^.5
p907
tp908
a(g865
V(200-40)/(sqrt((200)(.2)(.8)))
p909
tp910
a(V0.05/[sqrt(0.16/200)]
p911
V((0.2*200)-5)/sqrt(200*0.2(1-0.2))
p912
tp913
a(V0.05/[sqrt(0.16/200)]
p914
V1.632993162
p915
tp916
a(V0.05/[sqrt(0.16/200)]
p917
V0
p918
tp919
a(g917
V160/32
p920
tp921
a(g917
V10/32
p922
tp923
a(g917
V160/(32^(1/2))
p924
tp925
a(V0.05/[sqrt(0.16/200)]
p926
V10/sqrt((0.2)*(0.8)/200)
p927
tp928
a(V0.05/[sqrt(0.16/200)]
p929
V-.842
p930
tp931
a(V0.05/[sqrt(0.16/200)]
p932
V28.2843
p933
tp934
a(V0.05/[sqrt(0.16/200)]
p935
V(50 - 40)/(200)^(1/2)
p936
tp937
a(g929
V(.25-.2)/
p938
tp939
a(g935
V(50 - 40)/(200)
p940
tp941
a(V0.05/[sqrt(0.16/200)]
p942
V.05/(.16/200)^1/2
p943
tp944
a(g935
V(50 - 40)/((.2)(.8)/(200)^1/2)
p945
tp946
a(g935
V(50 - 40)/((.2)(.8)/(200)^(1/2))
p947
tp948
a(g935
V(.25 - .2)/((.2)(.8)/(200)^(1/2))
p949
tp950
a(g929
V(.25-.2)/sqrt(200)
p951
tp952
a(g929
V(50-40)/sqrt(200)
p953
tp954
a(g929
V(50-40)/1
p955
tp956
a(g929
V(50-40)/sqrt(10)
p957
tp958
a(g929
V(50-40)/sqrt(40)
p959
tp960
a(g929
V-(50-40)/sqrt(40)
p961
tp962
a(g929
V(40-50)/sqrt(40)
p963
tp964
a(V0.05/[sqrt(0.16/200)]
p965
V[(200 * 0.25) - (200 * 0.20)]/[200 * 0.25 * (1-0.25)]^(1/2)
p966
tp967
a(g929
V(40-50)/sqrt(40*(1-.2))
p968
tp969
a(V0.05/[sqrt(0.16/200)]
p970
V0
p971
tp972
a(g970
V.05
p973
tp974
a(g970
V5
p975
tp976
a(g970
V.01
p977
tp978
a(V0.05/[sqrt(0.16/200)]
p979
V10
p980
tp981
a(g979
V(50-(200*.2))/.2
p982
tp983
a(V0.05/[sqrt(0.16/200)]
p984
V0.5/(0.16/200)^2
p985
tp986
a(g984
V0.5/(0.16/200)^1/2
p987
tp988
a(g984
V0.5/(0.16/200)^(1/2)
p989
tp990
a(V0.05/[sqrt(0.16/200)]
p991
V(200 * (50/200) - 50) / (sqrt((200 * (50/200)) - (1 - (50/200))))
p992
tp993
a(V0.05/[sqrt(0.16/200)]
p994
V-0.841621
p995
tp996
a(g991
V(200 * .2 - 50) / (sqrt((200 * .2) - (1 - .2)))
p997
tp998
a(g991
V(200 * .2 - 50) / (sqrt((200 * .2) * (1 - .2)))
p999
tp1000
a(g991
V(200 * (1/4) - 50) / (sqrt((200 * .2) * (1 - (1/4))))
p1001
tp1002
a(g994
V1.25
p1003
tp1004
a(g994
V-0.67449
p1005
tp1006
a(g994
V17.6776695297
p1007
tp1008
a(g991
Vabs(200 * (1/4) - 50) / (sqrt((200 * .2) * (1 - (1/4))))
p1009
tp1010
a(V0.05/[sqrt(0.16/200)]
p1011
Vsqrt(32)
p1012
tp1013
a(g1011
Vsqrt[0.2(1-0.8)50]
p1014
tp1015
a(g1011
Vsqrt[0.2(1-0.8)200]
p1016
tp1017
a(g1011
Vsqrt[0.2(1-0.2)200]
p1018
tp1019
a(g1011
Vsqrt[0.25(1-0.25)200]
p1020
tp1021
a(g1011
Vsqrt[0.25(1-0.25)50]
p1022
tp1023
a(g1011
Vsqrt[0.20(1-0.20)50]
p1024
tp1025
a(g1011
V10/sqrt[0.20(1-0.20)50]
p1026
tp1027
a(g1011
V(1/4-1/5)/(sqrt[[1/5(1-1/5)]/50])
p1028
tp1029
a(V0.05/[sqrt(0.16/200)]
p1030
Vno
p1031
tp1032
a(g1030
Vyes
p1033
tp1034
a(V0.05/[sqrt(0.16/200)]
p1035
V0
p1036
tp1037
a(V0.05/[sqrt(0.16/200)]
p1038
V40
p1039
tp1040
a(g1038
V200
p1041
tp1042
a(g1038
V40
p1043
tp1044
a(V0.05/[sqrt(0.16/200)]
p1045
Vyes
p1046
tp1047
a(g1035
Vsqrt(2)/10
p1048
tp1049
a(g1038
V10
p1050
tp1051
a(g1038
V35
p1052
tp1053
a(g581
V0
p1054
tp1055
a(g1038
V50
p1056
tp1057
a(V0.05/[sqrt(0.16/200)]
p1058
V10/(32)^1/2
p1059
tp1060
a(g1045
VQ(.2)
p1061
tp1062
a(g1045
V28.288
p1063
tp1064
a(V0.05/[sqrt(0.16/200)]
p1065
V(10)/(40^(1/2))
p1066
tp1067
a(g1065
V(-10)/(40^(1/2))
p1068
tp1069
a(V0.05/[sqrt(0.16/200)]
p1070
V0.883883476
p1071
tp1072
a(g1065
V(50 - 40)/(40^(1/2))
p1073
tp1074
a(g1065
V(50 - 40)/(40)
p1075
tp1076
a(V0.05/[sqrt(0.16/200)]
p1077
V(50-40)/((.2*.8*200)^.5))
p1078
tp1079
a(g1065
V(50 - 40)/(50)
p1080
tp1081
a(g1065
V(50 - 40)/(50^(1/2))
p1082
tp1083
a(g1065
V(50 - 40)/(40^(1/2))
p1084
tp1085
a(g1065
V(50 - 40)/(10^(1/2))
p1086
tp1087
a(V0.05/[sqrt(0.16/200)]
p1088
V(0.25-0.2)/(SQRT(0.16/200)
p1089
tp1090
a(V0.05/[sqrt(0.16/200)]
p1091
V5/(4*sqrt(2))
p1092
tp1093
a(g932
V(50-40)/(32^(2/2))
p1094
tp1095
a(g1091
V10/(4*sqrt(0.2*0.8*200))
p1096
tp1097
a(V0.05/[sqrt(0.16/200)]
p1098
V0.5/sqrt(0.16/200)
p1099
tp1100
a(g1098
V0.5/sqrt(0.20/200)
p1101
tp1102
a(g1098
V0.05/sqrt(0.20/200)
p1103
tp1104
a(V0.05/[sqrt(0.16/200)]
p1105
V6.123
p1106
tp1107
a(g1105
V23
p1108
tp1109
a(V0.05/[sqrt(0.16/200)]
p1110
V(0.25-.20)/sqr((.20(1-.2))/200
p1111
tp1112
a(g1110
V(0.25-.20)/sqrt((.20(1-.2))/200
p1113
tp1114
a(V0.05/[sqrt(0.16/200)]
p1115
V(0.05)/(sort(((0.20) *(0.80))/(200)))
p1116
tp1117
a(g669
V(.2 - .25) / sqrt( (.2 * .8 )
p1118
tp1119
a(V0.05/[sqrt(0.16/200)]
p1120
V1
p1121
tp1122
a(g669
V(.2 - .25) / sqrt( (.2 * .8 ) )
p1123
tp1124
a(g669
V(.25 -  .2) / sqrt( (.2 * .8 ) )
p1125
tp1126
a(g581
V1/2
p1127
tp1128
a(g581
V.579
p1129
tp1130
a(g581
V.5793
p1131
tp1132
a(g1120
V(.25-.2)/(sqrt(.2(1-.2))/200)
p1133
tp1134
a(g1120
V(.25-.2)/(sqrt(.16/200)
p1135
tp1136
a(V0.05/[sqrt(0.16/200)]
p1137
Vyes
p1138
tp1139
a(g1137
Vyes
p1140
tp1141
a(g581
V.0793
p1142
tp1143
a(V0.05/[sqrt(0.16/200)]
p1144
V20
p1145
tp1146
a(V0.05/[sqrt(0.16/200)]
p1147
VQ(.2)
p1148
tp1149
a(g1147
VQ(.2)
p1150
tp1151
a(g1147
VQ(.2)
p1152
tp1153
a(g1147
V(50-40)/sqrt(50)
p1154
tp1155
a(g1147
V(50-40)/sqrt(50-40)
p1156
tp1157
a(V0.05/[sqrt(0.16/200)]
p1158
V50
p1159
tp1160
a(g1137
V10/(1-0.20)()
p1161
tp1162
a(g581
V(50-(200/5))/(200(1/5)(1-(1/5)))
p1163
tp1164
a(g1158
V50/200
p1165
tp1166
a(g1158
V200
p1167
tp1168
a(g1030
VQ((200*0.2-50)/sqrt(32))
p1169
tp1170
a(g1030
V(32-50)/sqrt(32)
p1171
tp1172
a(g1030
V(50-32)/sqrt(32)
p1173
tp1174
a(g1030
V(32-40)/sqrt(32)
p1175
tp1176
a(g1030
V(40-50)/sqrt(40)
p1177
tp1178
assV2
p1179
g2
(g3
tp1180
Rp1181
g6
(lp1182
(VQ(1.76777)
p1183
Vno
p1184
tp1185
a(VQ(1.76777)
p1186
V0.039
p1187
tp1188
a(g1186
V0.25
p1189
tp1190
a(g1186
V0.039
p1191
tp1192
a(VQ(1.76777)
p1193
V0.039
p1194
tp1195
a(VQ(1.76777)
p1196
VQ((50/200-.2)/(.2*.8/200)^1/2)
p1197
tp1198
a(VQ(1.76777)
p1199
Vyes
p1200
tp1201
a(g1199
Vno
p1202
tp1203
a(VQ(1.76777)
p1204
Vno
p1205
tp1206
a(g1204
Vno
p1207
tp1208
a(g1204
Vno
p1209
tp1210
a(VQ(1.76777)
p1211
Vno
p1212
tp1213
a(VQ(1.76777)
p1214
V0.039
p1215
tp1216
a(g1214
V0.20
p1217
tp1218
a(g1214
V0.25
p1219
tp1220
a(g1214
V1.76777
p1221
tp1222
a(g1214
V1-Q(1.76777)
p1223
tp1224
a(VQ(1.76777)
p1225
Vno
p1226
tp1227
a(VQ(1.76777)
p1228
VYes
p1229
tp1230
a(g1228
VNo
p1231
tp1232
a(VQ(1.76777)
p1233
V0.8
p1234
tp1235
a(VQ(1.76777)
p1236
Vno
p1237
tp1238
a(g1236
Vno
p1239
tp1240
a(VQ(1.76777)
p1241
VQ((50/200 - .2)/sqrts(.2(1-.2)/200))
p1242
tp1243
a(VQ(1.76777)
p1244
Vno
p1245
tp1246
a(VQ(1.76777)
p1247
V.039
p1248
tp1249
a(VQ(1.76777)
p1250
V0.039
p1251
tp1252
a(VQ(1.76777)
p1253
Vno
p1254
tp1255
a(VQ(1.76777)
p1256
V0.039
p1257
tp1258
a(g1256
VP ( Z>1.7677)
p1259
tp1260
a(g1256
VZ>1.7677
p1261
tp1262
a(g1256
V0.039
p1263
tp1264
a(g1256
V0.04
p1265
tp1266
a(g1256
V0.039
p1267
tp1268
a(g1256
V1%
p1269
tp1270
a(g1256
V1
p1271
tp1272
a(g1256
V3
p1273
tp1274
a(VQ(1.76777)
p1275
VQ((50-200(.2))/(sqrt(200*.2)))
p1276
tp1277
a(VQ(1.76777)
p1278
VQ(0.5/sqrt(0.16/200))
p1279
tp1280
a(VQ(1.76777)
p1281
VQ(2*$phi-1)
p1282
tp1283
a(VQ(1.76777)
p1284
Vyes
p1285
tp1286
a(g1284
Vno
p1287
tp1288
a(VQ(1.76777)
p1289
V.039
p1290
tp1291
a(g1289
VP(H>(.25-.2)/sqrt((.2)*(1-.2)/200))
p1292
tp1293
a(g1289
VH>(.25-.2)/sqrt((.2)*(1-.2)/200)
p1294
tp1295
a(g1289
V.039
p1296
tp1297
a(g1289
V.05
p1298
tp1299
a(g1289
V.2
p1300
tp1301
a(VQ(1.76777)
p1302
VQ((.25-.2)/((.16/200)^(1/2))
p1303
tp1304
a(VQ(1.76777)
p1305
VQ(0.25-0.2)/(sqrt(0.2 * ( 1 - 0.2 ) / 200 ))
p1306
tp1307
a(VQ(1.76777)
p1308
Vno
p1309
tp1310
a(VQ(1.76777)
p1311
Vyes
p1312
tp1313
a(g1311
Vno
p1314
tp1315
a(g1311
V.039
p1316
tp1317
a(g1311
V1.7678
p1318
tp1319
a(g1311
V.2
p1320
tp1321
a(g1311
V.039*2
p1322
tp1323
a(VQ(1.76777)
p1324
VQ(10/sqrt(40))
p1325
tp1326
a(VQ(1.76777)
p1327
Vyes
p1328
tp1329
a(VQ(1.76777)
p1330
Vyes
p1331
tp1332
a(g1330
Vno
p1333
tp1334
a(g1327
Vno
p1335
tp1336
a(g1330
Vyes
p1337
tp1338
a(g1330
Vyes
p1339
tp1340
a(g1330
Vyes
p1341
tp1342
a(g1330
Vyes
p1343
tp1344
a(g1330
V0.039
p1345
tp1346
a(VQ(1.76777)
p1347
Vyes
p1348
tp1349
a(g1347
Vno
p1350
tp1351
a(VQ(1.76777)
p1352
Vno
p1353
tp1354
a(g1352
V0.039
p1355
tp1356
a(VQ(1.76777)
p1357
VQ((200*.2-50)/(sqrt(200*.2(1-.2))))
p1358
tp1359
a(VQ(1.76777)
p1360
VQ(0.3125)
p1361
tp1362
a(VQ(1.76777)
p1363
Vno
p1364
tp1365
a(g1363
Vyes
p1366
tp1367
a(g1363
Vno
p1368
tp1369
a(VQ(1.76777)
p1370
V0.039
p1371
tp1372
a(g1370
VP(Z>1.7678)
p1373
tp1374
a(g1370
V0.039
p1375
tp1376
a(g1370
V0
p1377
tp1378
a(VQ(1.76777)
p1379
VQ(
p1380
tp1381
a(VQ(1.76777)
p1382
VQ(-10/sqrt(32))
p1383
tp1384
a(VQ(1.76777)
p1385
Vno
p1386
tp1387
a(g1385
Vyes
p1388
tp1389
a(VQ(1.76777)
p1390
VQ(0.052579672)
p1391
tp1392
a(VQ(1.76777)
p1393
V0.039
p1394
tp1395
a(g1393
V.961
p1396
tp1397
a(g1393
V.39
p1398
tp1399
a(g1393
V.039
p1400
tp1401
a(g1390
VQ(0.052579672)0.041399332
p1402
tp1403
a(g1393
V0.0771
p1404
tp1405
a(g1393
V0.038
p1406
tp1407
a(g1393
V0.030
p1408
tp1409
a(g1393
V0.031
p1410
tp1411
a(g1393
V0.032
p1412
tp1413
a(g1393
V0.033
p1414
tp1415
a(VQ(1.76777)
p1416
VQ()
p1417
tp1418
a(g1416
VQ(.2)
p1419
tp1420
a(VQ(1.76777)
p1421
V1 - [(0.25 - 0.2)/(0.2(1 - 0.2))^0.5]
p1422
tp1423
a(g1421
V1 - [(50/200) - 0.2]/[(0.2) * (1 - 0.2)/200]^0.5
p1424
tp1425
a(VQ(1.76777)
p1426
VQ(1/4)
p1427
tp1428
a(VQ(1.76777)
p1429
VQ([50-0.2*200]/[.2 * .8 * 200])
p1430
tp1431
a(g1426
VQ(.2)
p1432
tp1433
a(g1421
V1.7678
p1434
tp1435
a(g1421
V0.039
p1436
tp1437
a(VQ(1.76777)
p1438
V.0392
p1439
tp1440
a(g1438
V1.96
p1441
tp1442
a(g1438
V1.98
p1443
tp1444
a(g1438
V0.9687
p1445
tp1446
a(g1438
V.0784
p1447
tp1448
a(VQ(1.76777)
p1449
VNo
p1450
tp1451
a(VQ(1.76777)
p1452
Vno
p1453
tp1454
a(VQ(1.76777)
p1455
Vyes
p1456
tp1457
a(VQ(1.76777)
p1458
VQ(8)
p1459
tp1460
a(g1455
Vyes
p1461
tp1462
a(g1458
VQ(.5)
p1463
tp1464
a(VQ(1.76777)
p1465
Vno
p1466
tp1467
a(g1458
VQ(1.58)
p1468
tp1469
a(VQ(1.76777)
p1470
VQ((50-200/5)/sqrt(0.2*0.8))
p1471
tp1472
a(g1470
VQ((50-200*0.2)/sqrt(0.2*200))
p1473
tp1474
a(g1470
VQ((50-200*0.2)/sqrt(0.2*200))*0.8*
p1475
tp1476
a(VQ(1.76777)
p1477
V.674
p1478
tp1479
a(VQ(1.76777)
p1480
V.9616
p1481
tp1482
a(VQ(1.76777)
p1483
VQ(200*0.2)
p1484
tp1485
a(g1483
V0.2
p1486
tp1487
a(VQ(1.76777)
p1488
VQ(((50/200) - .20) / (.20(1 - .20)200))
p1489
tp1490
a(VQ(1.76777)
p1491
V1-Q((50-200*.2)/(sqrt(200*0.2*0.8)))
p1492
tp1493
a(VQ(1.76777)
p1494
V1-(1/2+1/2erf((1-(1/2+1/2erf(.3/sqrt(2))))/sqrt(2)))
p1495
tp1496
a(g1494
VQ(1-(1/2+1/2erf(.3/sqrt(2))))
p1497
tp1498
a(VQ(1.76777)
p1499
Vyes
p1500
tp1501
a(g1499
Vno
p1502
tp1503
a(VQ(1.76777)
p1504
Vno
p1505
tp1506
a(VQ(1.76777)
p1507
Vyes
p1508
tp1509
a(g1504
Vyes
p1510
tp1511
a(VQ(1.76777)
p1512
Vyes
p1513
tp1514
a(g1512
Vno
p1515
tp1516
a(VQ(1.76777)
p1517
Vno
p1518
tp1519
a(VQ(1.76777)
p1520
V.039
p1521
tp1522
a(g1520
V1.76
p1523
tp1524
a(g1520
V.020
p1525
tp1526
a(g1520
V.39
p1527
tp1528
a(g1520
V.039
p1529
tp1530
a(VQ(1.76777)
p1531
Vno
p1532
tp1533
a(g1520
VQ(1.76)
p1534
tp1535
a(g1512
Vq((.25-.20)/sqrt((.2(1-.2))/200))
p1536
tp1537
a(VQ(1.76777)
p1538
Vno
p1539
tp1540
a(g1275
VQ((40 - 50)/sqrt(40*.8))
p1541
tp1542
a(VQ(1.76777)
p1543
V1 - Q(10/(200*0.2*0.8)^0.5)
p1544
tp1545
a(VQ(1.76777)
p1546
VQ(1.776953)
p1547
tp1548
a(g1546
V1-Q(1.776953)
p1549
tp1550
a(g1546
V.2
p1551
tp1552
a(g1546
VQ(1.776953)
p1553
tp1554
a(g1546
V2*Q(1.776953)
p1555
tp1556
a(VQ(1.76777)
p1557
Vno
p1558
tp1559
a(VQ(1.76777)
p1560
Vno
p1561
tp1562
a(VQ(1.76777)
p1563
V.16/200
p1564
tp1565
a(g1563
VQ(.05/sqrt(.16/200)
p1566
tp1567
a(VQ(1.76777)
p1568
V0.392
p1569
tp1570
a(g1568
V0.0392
p1571
tp1572
a(g1568
V0.039
p1573
tp1574
a(VQ(1.76777)
p1575
Vno
p1576
tp1577
a(g1575
Vno
p1578
tp1579
a(g1575
Vno
p1580
tp1581
a(g1575
V0.039
p1582
tp1583
a(g1575
V0.04
p1584
tp1585
a(VQ(1.76777)
p1586
V.2
p1587
tp1588
a(g1586
V1/5
p1589
tp1590
a(VQ(1.76777)
p1591
V.20
p1592
tp1593
a(g1591
V.25
p1594
tp1595
a(g1591
V0.05
p1596
tp1597
a(g1591
V0.039
p1598
tp1599
a(g1591
V0.20
p1600
tp1601
a(g1591
V0.039
p1602
tp1603
a(VQ(1.76777)
p1604
VQ(8/sqrt(2))
p1605
tp1606
a(g1591
VQ(0.1/sqrt(0.1*0.9/40))
p1607
tp1608
a(g1604
VQ(2/sqrt(2))
p1609
tp1610
a(VQ(1.76777)
p1611
V.039
p1612
tp1613
a(g1611
V0.039
p1614
tp1615
a(g1611
VP(Z > 1.7678)
p1616
tp1617
a(g1611
V(Q > 1.7678)
p1618
tp1619
a(g1611
V.2322
p1620
tp1621
a(g1611
V.7322
p1622
tp1623
a(g1611
V0.0771
p1624
tp1625
a(g1611
V0.1542
p1626
tp1627
a(g1611
V0.0104
p1628
tp1629
a(VQ(1.76777)
p1630
Vno
p1631
tp1632
a(VQ(1.76777)
p1633
V0.039
p1634
tp1635
a(g1633
VQ(0.2)
p1636
tp1637
a(g1633
VQ(0.25)
p1638
tp1639
a(g1633
V1- Phi(0.2)
p1640
tp1641
a(g1633
V1- Phi(0.25)
p1642
tp1643
a(VQ(1.76777)
p1644
VQ(0.05/sqrt(0.16/200)
p1645
tp1646
a(VQ(1.76777)
p1647
Vno
p1648
tp1649
a(VQ(1.76777)
p1650
Vq((0.25-.2)/sqrt(0.2(1-0.2)/200))
p1651
tp1652
a(VQ(1.76777)
p1653
Vyes
p1654
tp1655
a(g1653
Vno
p1656
tp1657
a(VQ(1.76777)
p1658
VNo
p1659
tp1660
a(VQ(1.76777)
p1661
Vno
p1662
tp1663
a(g1658
V.039
p1664
tp1665
a(VQ(1.76777)
p1666
V50/200
p1667
tp1668
a(g1666
V0.039
p1669
tp1670
a(g1666
V0.0390
p1671
tp1672
a(g1666
V0.0391
p1673
tp1674
a(g1666
V0.0392
p1675
tp1676
a(g1666
V0.0393
p1677
tp1678
a(g1666
V0.0394
p1679
tp1680
a(g1666
V0.0395
p1681
tp1682
a(g1666
V0.0396
p1683
tp1684
a(g1666
V0.0397
p1685
tp1686
a(g1666
V0.0398
p1687
tp1688
a(g1666
V0.0399
p1689
tp1690
a(VQ(1.76777)
p1691
V.2
p1692
tp1693
a(VQ(1.76777)
p1694
VQ(((0.2*200)-5)/sqrt(200*0.2(1-0.2)))
p1695
tp1696
a(VQ(1.76777)
p1697
VQ(1.632993162)
p1698
tp1699
a(VQ(1.76777)
p1700
V0.2
p1701
tp1702
a(VQ(1.76777)
p1703
V.04
p1704
tp1705
a(g1703
V1-Q(1.767766953
p1706
tp1707
a(g1703
V1-Q(1.767766953)
p1708
tp1709
a(VQ(1.76777)
p1710
V1-Q((0.25-0.2) /((0.2)(1-0.2)/200)^(1/2))
p1711
tp1712
a(VQ(1.76777)
p1713
V.2
p1714
tp1715
a(VQ(1.76777)
p1716
VQ(200)
p1717
tp1718
a(g1716
VQ(150)
p1719
tp1720
a(g1716
VQ(.2)
p1721
tp1722
a(g1716
VQ(40)
p1723
tp1724
a(g1713
V.025
p1725
tp1726
a(g1713
VQ(.2)
p1727
tp1728
a(VQ(1.76777)
p1729
V0.039
p1730
tp1731
a(VQ(1.76777)
p1732
V0
p1733
tp1734
a(g1732
V.05
p1735
tp1736
a(g1732
V5
p1737
tp1738
a(g1732
V.01
p1739
tp1740
a(VQ(1.76777)
p1741
VQ(1.21)
p1742
tp1743
a(g1741
V0.07841
p1744
tp1745
a(g1741
V0.07673
p1746
tp1747
a(g1741
V0.9599
p1748
tp1749
a(g1741
V0.9608
p1750
tp1751
a(g1741
V0.9616
p1752
tp1753
a(VQ(1.76777)
p1754
V.039
p1755
tp1756
a(g1754
V.077
p1757
tp1758
a(g1754
V0.038556.
p1759
tp1760
a(VQ(1.76777)
p1761
Vyes
p1762
tp1763
a(g1761
Vno
p1764
tp1765
a(VQ(1.76777)
p1766
VP[.2>(50-40)/(sqrt((200)(.2)(.8)))]
p1767
tp1768
a(g1766
V[.2>(50-40)/(sqrt((200)(.2)(.8)))]
p1769
tp1770
a(g1766
V.2
p1771
tp1772
a(g1766
V[ [(200 )(.2 )]-(.2 ) ]/[ sqrt[(200 )(.2 ) (1 -.2 )]]
p1773
tp1774
a(g1766
V[ [(50 )(.2 )]-(.2 ) ]/[ sqrt[(200 )(.2 ) (1 -.2 )]]
p1775
tp1776
a(VQ(1.76777)
p1777
Vno
p1778
tp1779
a(VQ(1.76777)
p1780
V.2
p1781
tp1782
a(g1766
V.2-1.76777
p1783
tp1784
a(g1766
V-.2608
p1785
tp1786
a(g1766
V.2608
p1787
tp1788
a(g1780
V.25
p1789
tp1790
a(g1780
V10Q/sqrt(32)
p1791
tp1792
a(g1780
V(10Q)/sqrt(32)
p1793
tp1794
a(g1780
V(10q)/sqrt(32)
p1795
tp1796
a(g1780
V(10*.2)/sqrt(32)
p1797
tp1798
a(g1777
Vyes
p1799
tp1800
a(VQ(1.76777)
p1801
V5%
p1802
tp1803
a(g1801
V0.039
p1804
tp1805
a(g1777
V0.03
p1806
tp1807
a(g1777
V0.02
p1808
tp1809
a(g1777
V0.04
p1810
tp1811
a(g1801
VQ(0.3)
p1812
tp1813
a(g1801
VQ(0.31)
p1814
tp1815
a(g1801
VQ(0.29)
p1816
tp1817
a(g1801
VQ(0.299)
p1818
tp1819
a(g1801
VQ(0.2999999)
p1820
tp1821
a(g1801
VQ(0.33)
p1822
tp1823
a(g1801
VQ(0.28)
p1824
tp1825
a(g1801
VQ(0.26)
p1826
tp1827
a(g1801
VQ(0.279)
p1828
tp1829
a(g1801
VQ(1.8)
p1830
tp1831
a(g1801
VQ(1.89)
p1832
tp1833
a(g1801
VQ(1.79)
p1834
tp1835
a(g1801
VQ(1.6)
p1836
tp1837
a(g1801
VQ(1.799999)
p1838
tp1839
a(VQ(1.76777)
p1840
VQ(0.883883476)
p1841
tp1842
a(VQ(1.76777)
p1843
VQ(.2)
p1844
tp1845
a(g1843
V1-Q(.2)
p1846
tp1847
a(g1843
V2*Q(.2)
p1848
tp1849
a(g1766
V.15
p1850
tp1851
a(g1766
V.025
p1852
tp1853
a(g1766
V.0015
p1854
tp1855
a(g1766
V.0003
p1856
tp1857
a(g1766
V1
p1858
tp1859
a(g1766
V2
p1860
tp1861
a(g1766
V3
p1862
tp1863
a(g1766
V4
p1864
tp1865
a(VQ(1.76777)
p1866
V0.04935333238
p1867
tp1868
a(g1716
V(Q(50-40)/(32^(1/2)))
p1869
tp1870
a(g1866
VQ(10/(4*sqrt(0.2*0.8*200)))
p1871
tp1872
a(g1766
VQ(1)
p1873
tp1874
a(g1766
VQ(2)
p1875
tp1876
a(g1766
VQ(3)
p1877
tp1878
a(g1766
VQ(4)
p1879
tp1880
a(g1766
VQ(.2)
p1881
tp1882
a(g1766
VQ(50)
p1883
tp1884
a(g1766
VQ(1)
p1885
tp1886
a(VQ(1.76777)
p1887
VQ(0.5/sqrt(0.16/200))
p1888
tp1889
a(g1887
VQ(0.5/sqrt(0.20/200))
p1890
tp1891
a(g1887
VQ(0.05/sqrt(0.20/200))
p1892
tp1893
a(g1504
VQ(50-40)/sqrt(32)
p1894
tp1895
a(g1504
VQ(50-40/sqrt(32))
p1896
tp1897
a(VQ(1.76777)
p1898
V0.077
p1899
tp1900
a(g1898
V0.077099
p1901
tp1902
a(VQ(1.76777)
p1903
Vyes
p1904
tp1905
a(g1903
Vno
p1906
tp1907
a(g1499
Vq ((.25 - .2) / sqrt( (.2 * .8 ) / 200) )
p1908
tp1909
a(VQ(1.76777)
p1910
VQ((.25-.2)/(sqrt(.16/200)),1.7677)
p1911
tp1912
a(VQ(1.76777)
p1913
V0.039
p1914
tp1915
a(g1913
VP(Z > 1.7678)
p1916
tp1917
a(g1913
VQ(Z > 1.7678)
p1918
tp1919
a(VQ(1.76777)
p1920
V20
p1921
tp1922
a(VQ(1.76777)
p1923
Vyes
p1924
tp1925
a(g1923
Vyes
p1926
tp1927
a(g1903
Vsqrt((1/5)(200)(1-(1/5))
p1928
tp1929
a(g1903
Vsqrt((1/5)(200)(1-(1/5)))
p1930
tp1931
a(g1452
VQ()
p1932
tp1933
a(g1923
VQ(.25)
p1934
tp1935
a(VQ(1.76777)
p1936
V 0.039.
p1937
tp1938
a(g1936
V 0.039
p1939
tp1940
a(g1761
Vyes
p1941
tp1942
asS"['R.0']"
p1943
(lp1944
(g1766
V1.76777-.2
p1945
(lp1946
(S'R.0'
p1947
F1.76777
V1.76777
p1948
V1.76777
p1949
tp1950
atp1951
ass.