(dp0
V1
p1
ccollections
defaultdict
p2
(c__builtin__
list
p3
tp4
Rp5
S'Nothing'
p6
(lp7
sS'Nothing_clusters'
p8
g2
(g3
tp9
Rp10
ssV3
p11
g2
(g3
tp12
Rp13
g6
(lp14
sg8
g2
(g3
tp15
Rp16
ssV2
p17
g2
(g3
tp18
Rp19
g6
(lp20
sg8
g2
(g3
tp21
Rp22
ssV5
p23
g2
(g3
tp24
Rp25
g6
(lp26
sg8
g2
(g3
tp27
Rp28
ssV4
p29
g2
(g3
tp30
Rp31
g6
(lp32
(V1-2*0.025
p33
V3.90
p34
(lp35
S'X'
p36
aF3.9
a(lp37
I0
aI2
aaS'R'
p38
aVsippolit
p39
tp40
a(V1-2*0.025
p41
V0.88
p42
(lp43
g36
aF0.88
a(lp44
I0
aI3
aag38
aVdlt009
p45
tp46
a(V1-2*0.025
p47
V99.5
p48
(lp49
g36
aF99.5
a(lp50
I0
aI3
aag38
aVctgraves
p51
tp52
a(V1-2*0.025
p53
VQ(.96)
p54
(lp55
(lp56
S'Q'
p57
acnumpy.core.multiarray
scalar
p58
(cnumpy
dtype
p59
(S'f8'
p60
I0
I1
tp61
Rp62
(I3
S'<'
p63
NNNI-1
I-1
I0
tp64
bS'`\x87E\tP\x92\xc5?'
p65
tp66
Rp67
a(lp68
I0
aI5
aag38
aa(lp69
g36
aF0.96
a(lp70
I2
aI5
aaS'R.0'
p71
aaVasetters
p72
tp73
a(V1-2*0.025
p74
V.96
p75
(lp76
g36
aF0.96
a(lp77
I0
aI3
aag38
aVargau
p78
tp79
a(V1-2*0.025
p80
VQ(.95)
p81
(lp82
(lp83
g57
ag58
(g62
S'x?#\xca*\xe5\xc5?'
p84
tp85
Rp86
a(lp87
I0
aI5
aag38
aa(lp88
g36
aF0.95
a(lp89
I2
aI5
aaS'R.0'
p90
aaVcagatep
p91
tp92
a(V1-2*0.025
p93
V(10)
p94
(lp95
g36
aF10.0
a(lp96
I1
aI2
aag38
aVdac064
p97
tp98
a(V1-2*0.025
p99
VQ(9.8)
p100
(lp101
(lp102
g57
ag58
(g62
S'\x00\x00\x00\x00\x00\x00\x00\x00'
p103
tp104
Rp105
a(lp106
I0
aI5
aag38
aa(lp107
g36
aF9.8
a(lp108
I2
aI4
aaS'R.0'
p109
aaVq3wen
p110
tp111
a(V1-2*0.025
p112
V51.0204
p113
(lp114
g36
aF51.0204
a(lp115
I0
aI6
aag38
aVgalu
p116
tp117
a(V1-2*0.025
p118
V.25
p119
(lp120
g36
aF0.25
a(lp121
I0
aI3
aag38
aVyhhan
p122
tp123
a(V1-2*0.025
p124
VQ(100)
p125
(lp126
(lp127
g57
ag58
(g62
S'\x00\x00\x00\x00\x00\x00\x00\x00'
p128
tp129
Rp130
a(lp131
I0
aI5
aag38
aa(lp132
g36
aF100.0
a(lp133
I2
aI4
aaS'R.0'
p134
aaVeaherman
p135
tp136
a(g124
VQ(1.96)
p137
(lp138
(lp139
g57
ag58
(g62
S' \x93\x85X\x0c\x99\x99?'
p140
tp141
Rp142
a(lp143
I0
aI6
aag38
aa(lp144
g36
aF1.96
a(lp145
I2
aI5
aaS'R.0'
p146
aaVeaherman
p147
tp148
a(V1-2*0.025
p149
VQ(0.04)
p150
(lp151
(lp152
g57
ag58
(g62
S'\xa2T\x9do\x9e\xfa\xde?'
p153
tp154
Rp155
a(lp156
I0
aI6
aag38
aa(lp157
g36
aF0.04
a(lp158
I2
aI5
aaS'R.0'
p159
aaVakg009
p160
tp161
asS'Digits'
p162
(lp163
(g33
V4
p164
S'digit'
p165
tp166
a(V1-2*0.025
p167
V5
p168
g165
tp169
a(g41
V10
p170
g165
tp171
a(V1-2*0.025
p172
V95
p173
g165
tp174
a(V1-2*0.025
p175
V0
p176
g165
tp177
a(g175
V1
p178
g165
tp179
a(V1-2*0.025
p180
V0
p181
g165
tp182
a(g80
V0
p183
g165
tp184
a(V1-2*0.025
p185
V1
p186
g165
tp187
a(g80
V2
p188
g165
tp189
a(V1-2*0.025
p190
V5
p191
g165
tp192
a(g190
V2
p193
g165
tp194
a(g185
V1
p195
g165
tp196
a(V1-2*0.025
p197
V0
p198
g165
tp199
a(V1-2*0.025
p200
V10
p201
g165
tp202
a(g200
V100000
p203
g165
tp204
a(V1-2*0.025
p205
V0
p206
g165
tp207
a(g205
V1
p208
g165
tp209
a(V1-2*0.025
p210
V0
p211
g165
tp212
a(g210
V00
p213
g165
tp214
a(g99
V50
p215
g165
tp216
a(g99
V5
p217
g165
tp218
a(V1-2*0.025
p219
V0
p220
g165
tp221
a(g112
V7
p222
g165
tp223
a(V1-2*0.025
p224
V0
p225
g165
tp226
a(V1-2*0.025
p227
V10
p228
g165
tp229
a(g227
V10
p230
g165
tp231
a(g227
V10
p232
g165
tp233
a(g118
V5
p234
g165
tp235
a(V1-2*0.025
p236
V0
p237
g165
tp238
a(g124
V1
p239
g165
tp240
a(g149
V0
p241
g165
tp242
a(g124
V0
p243
g165
tp244
a(V1-2*0.025
p245
V95
p246
g165
tp247
asS"['R.0', 'R.1.0']"
p248
(lp249
(g205
V1-(Q(2))
p250
(lp251
(S'R.0'
p252
F1.0
V1
p253
g253
tp254
a(S'R.1.0'
p255
F2.0
V2
p256
g256
tp257
atp258
a(V1-2*0.025
p259
V1 - 2*Q(-1.96)
p260
(lp261
(S'R.0'
p262
F1.0
g253
g253
tp263
a(S'R.1.0'
p264
F2.0
g256
g256
tp265
atp266
asg8
g2
(g3
tp267
Rp268
S"['R.0.0']"
p269
(lp270
(V(1-2)*Q(1.96)
p271
Vapokhare
p272
tp273
a(VQ(1/1.96)
p274
Vasetters
p275
tp276
a(V((1-Q(-1.96))-(1-Q(1.96)))
p277
Vvolim
p278
tp279
a(V((1-Q(-1.96))-(1+Q(1.96)))
p280
Vvolim
p281
tp282
a(V1-Q(1.96) + Q(-1.96)
p283
Vskodigal
p284
tp285
a(V1-Q(1.96) + Q(-1.96)
p286
Veaherman
p287
tp288
a(V1-Q(1.96)-Q(-1.96)
p289
Veaherman
p290
tp291
a(V1+Q(1.96)-Q(-1.96)
p292
Veaherman
p293
tp294
a(V(1-Q(1.96))+(1-Q(1.96))
p295
Vk4ma
p296
tp297
a(V1 - Q(1.96) - Q(-1.96)
p298
Vanl114
p299
tp300
a(V1- Q(1.96)+Q(-1.96)
p301
Vrraiyyan
p302
tp303
a(V1-Q(1.96)-Q(-1.96)
p304
Vc3chung
p305
tp306
a(V1+Q(1.96)-Q(-1.96)
p307
Vc3chung
p308
tp309
a(V1+Q(1.96)+Q(-1.96)
p310
Vc3chung
p311
tp312
a(VQ(-1.96)
p313
Vjblynch
p314
tp315
a(VQ(1.96) * 2
p316
Vmhale
p317
tp318
a(VQ(1.96/2)
p319
Vasetters
p320
tp321
a(VQ(1.96*2)
p322
Vcagatep
p323
tp324
a(VQ(1.96)-Q(-1.96)
p325
Vvolim
p326
tp327
a(VQ(1.96)+Q(-1.96)
p328
Vvolim
p329
tp330
a(V(Q(1.96))+(1-Q(-1.96))
p331
Vdlgoldbe
p332
tp333
a(VQ(1.96)+Q(-1.96)
p334
Vw4shin
p335
tp336
a(VQ(1.96)-Q(-1.96)
p337
Vw4shin
p338
tp339
a(V(Q(1.96)) + Q(-1.96)
p340
Veaherman
p341
tp342
a(VQ(1.96) + Q(-1.96)
p343
Veaherman
p344
tp345
a(V-Q(1.96)
p346
Veaherman
p347
tp348
a(VQ(1.96)+Q(1.96)
p349
Veaherman
p350
tp351
a(VQ(1.96)-Q(1.96)
p352
Veaherman
p353
tp354
a(VQ(1.96)-Q(-1.96)
p355
Veaherman
p356
tp357
a(V(Q(1.96)-Q(-1.96))
p358
Vc3chung
p359
tp360
a(VQ(-1.96)
p361
Vjdeon
p362
tp363
a(VQ(-1.96)
p364
Veaherman
p365
tp366
a(VQ(-1.96)
p367
Vc3chung
p368
tp369
a(V1-Q(-1.96)+Q(1.96)
p370
Vlahawkin
p371
tp372
a(V(1-Q(-1.96))+Q(1.96)
p373
Vlahawkin
p374
tp375
a(V1-Q(-1.96)+Q(1.96)
p376
Vjhp077
p377
tp378
a(V1-Q(-1.96) + Q(1.96)
p379
Vskodigal
p380
tp381
a(V1-Q(-1.96) + Q(1.96)
p382
Veaherman
p383
tp384
a(V1-(Q(-1.96)) + Q(1.96)
p385
Veaherman
p386
tp387
a(V1-(-Q(1.96))+Q(1.96)
p388
Veaherman
p389
tp390
a(V100^(1/2)/2
p391
Vb3hwang
p392
tp393
a(VQ(100/4)
p394
Vvolim
p395
tp396
a(V(100)^(1/2)/2
p397
Vvolim
p398
tp399
a(V-Q(-1.96)+Q(1.96)
p400
Vvolim
p401
tp402
a(V(Q(-1.96)-Q(1.96))-1
p403
Vvolim
p404
tp405
a(VQ(-1.96) + 1-Q(1.96)
p406
Vskodigal
p407
tp408
a(V1-Q(1.96) + 1+Q(1.96)
p409
Veaherman
p410
tp411
a(V1-Q(1.96) + Q(1.96)
p412
Vskodigal
p413
tp414
a(V(1-Q(1.96))+Q(1.96)
p415
Vlahawkin
p416
tp417
asS"['R.0.0', 'R.0.1', 'R.1']"
p418
(lp419
(g283
g284
tp420
a(g292
g293
tp421
a(g307
g308
tp422
a(g310
g311
tp423
a(g286
g287
tp424
a(g289
g290
tp425
a(g298
g299
tp426
a(g301
g302
tp427
a(g304
g305
tp428
asS"['R.0.0', 'R.0.1', 'R.1.0']"
p429
(lp430
(g283
g284
tp431
a(g289
g290
tp432
a(g298
g299
tp433
a(g304
g305
tp434
a(g286
g287
tp435
a(g301
g302
tp436
a(g292
g293
tp437
asS"['R.0', 'R.1']"
p438
(lp439
(g325
g326
tp440
a(g328
g329
tp441
a(V(1-Q(-1.96))+(1-Q(1.96))
p442
Vvolim
p443
tp444
a(V((1-Q(-1.96))+(1-Q(1.96)))
p445
Vvolim
p446
tp447
a(g334
g335
tp448
a(g340
g341
tp449
a(g343
g344
tp450
a(g277
g278
tp451
a(g337
g338
tp452
a(g355
g356
tp453
a(g358
g359
tp454
a(VQ(1.96)+1-Q(-1.96)
p455
Vjhp077
p456
tp457
a(g310
g311
tp458
a(g406
g407
tp459
a(g409
g410
tp460
a(V2-(1-Q(1.96))
p461
Vk4ma
p462
tp463
a(V2*(1-Q(1.96))
p464
Vk4ma
p465
tp466
a(V2(1-Q(1.96))
p467
Vb1green
p468
tp469
a(g292
g293
tp470
a(g307
g308
tp471
asS"['R.1.1.0']"
p472
(lp473
(V(1-Q(1.96))+(1-Q(-1.96))
p474
Vdlgoldbe
p475
tp476
a(V(1-Q(1.96))+(1-Q(-1.96))
p477
Vk4ma
p478
tp479
a(V[.5-[Q(1.96)]]+[.5-[Q(-1.96)]]
p480
Veaherman
p481
tp482
asS"['R.0.1.0', 'R.1.1']"
p483
(lp484
(g442
g443
tp485
a(V((1+Q(-1.96))-(1-Q(1.96)))
p486
Vvolim
p487
tp488
a(g277
g278
tp489
a(g445
g446
tp490
asS"['R.1']"
p491
(lp492
(g271
g272
tp493
a(V2*Q(1.96)
p494
Vasetters
p495
tp496
a(V2Q(1.96)
p497
Vacvuong
p498
tp499
a(V2*Q(1.96)
p500
Vksrijong
p501
tp502
a(V2Q(1.96)
p503
Vdando
p504
tp505
a(VQ(-1.96)+Q(1.96)
p506
Vlahawkin
p507
tp508
a(VQ(-1.96)+Q(1.96)
p509
Vvolim
p510
tp511
a(g400
g401
tp512
a(g474
g475
tp513
a(g412
g413
tp514
a(V2*Q(1.96)
p515
Vskodigal
p516
tp517
a(g406
g407
tp518
a(V2Q(1.96)
p519
Vkthui
p520
tp521
a(g415
g416
tp522
a(g409
g410
tp523
a(V(Q(-1.96)) + Q(1.96)
p524
Veaherman
p525
tp526
a(V-Q(1.96)+Q(1.96)
p527
Veaherman
p528
tp529
a(V(-Q(1.96))+Q(1.96)
p530
Veaherman
p531
tp532
a(V1-Q(1.96)+Q(1.96)
p533
Veaherman
p534
tp535
a(g477
g478
tp536
a(V1.96*2
p537
Vsippolit
p538
tp539
a(g316
g317
tp540
a(g391
g392
tp541
a(g397
g398
tp542
a(V10/2
p543
Vl8ngo
p544
tp545
a(V.025*2
p546
Vasrana
p547
tp548
a(V1.96 * 2
p549
Vv3doan
p550
tp551
a(V0.475-0.025
p552
Vdlt009
p553
tp554
a(V2-1 * 1/40
p555
Vstarinia
p556
tp557
a(g388
g389
tp558
a(g370
g371
tp559
a(g373
g374
tp560
a(g325
g326
tp561
a(g486
g487
tp562
a(V1-Q(1.96) + 1-Q(-1.96)
p563
Vdlgoldbe
p564
tp565
a(g455
g456
tp566
a(g461
g462
tp567
a(g464
g465
tp568
a(g292
g293
tp569
a(g467
g468
tp570
a(g307
g308
tp571
a(g310
g311
tp572
a(g328
g329
tp573
a(V2 * (Q(1.96) - 0.5)
p574
Vkquong
p575
tp576
a(g480
g481
tp577
a(g331
g332
tp578
a(g376
g377
tp579
a(g334
g335
tp580
a(g337
g338
tp581
a(g340
g341
tp582
a(g343
g344
tp583
a(g355
g356
tp584
a(g358
g359
tp585
a(g379
g380
tp586
a(g283
g284
tp587
a(g286
g287
tp588
a(g382
g383
tp589
a(g385
g386
tp590
a(g349
g350
tp591
a(g352
g353
tp592
a(g289
g290
tp593
a(g295
g296
tp594
a(g298
g299
tp595
a(g301
g302
tp596
a(g304
g305
tp597
asS"['R.1.0', 'R.1.1']"
p598
(lp599
(g442
g443
tp600
a(g461
g462
tp601
a(g464
g465
tp602
a(g467
g468
tp603
a(g277
g278
tp604
a(g445
g446
tp605
a(g486
g487
tp606
a(g280
g281
tp607
a(g474
g475
tp608
a(g331
g332
tp609
asS"['R.0.1', 'R.1.1']"
p610
(lp611
(g474
g475
tp612
a(g480
g481
tp613
asS"['R.0.0.0']"
p614
(lp615
(g506
g507
tp616
a(g455
g456
tp617
a(g509
g510
tp618
asS"['R.0.0', 'R.1']"
p619
(lp620
(g271
g272
tp621
a(g388
g389
tp622
a(g370
g371
tp623
a(g373
g374
tp624
a(g400
g401
tp625
a(g406
g407
tp626
a(g409
g410
tp627
a(g376
g377
tp628
a(g379
g380
tp629
a(g382
g383
tp630
a(g385
g386
tp631
asS"['R.0.1.0']"
p632
(lp633
(g370
g371
tp634
a(g442
g443
tp635
a(g445
g446
tp636
a(g486
g487
tp637
a(g373
g374
tp638
a(g277
g278
tp639
asS"['R.0']"
p640
(lp641
(VQ(1.96)
p642
Vffhaddad
p643
tp644
a(g537
g538
tp645
a(g549
g550
tp646
a(VQ(1.96)
p647
Vpvl001
p648
tp649
a(VQ(1.96)
p650
Vmhale
p651
tp652
a(VQ(1.96)
p653
Vyypan
p654
tp655
a(VQ(1.96)
p656
Vasetters
p657
tp658
a(VQ(1.96)
p659
Vksrijong
p660
tp661
a(VQ(1.96)
p662
Vacvuong
p663
tp664
a(VQ(1.96)
p665
Vdando
p666
tp667
a(VQ(1.96)
p668
Vcagatep
p669
tp670
a(VQ(1.96)
p671
Vagoldsht
p672
tp673
a(VQ(1.96)
p674
Vjtfrankl
p675
tp676
a(VQ( 1.96 )
p677
Vdac064
p678
tp679
a(VQ(1.96)
p680
Vq3wen
p681
tp682
a(VQ(1.96)
p683
Vdlgoldbe
p684
tp685
a(VQ(1.96)
p686
Vdjk006
p687
tp688
a(VQ(1.96)
p689
Vjhp077
p690
tp691
a(VQ(1.96)
p692
Vskodigal
p693
tp694
a(VQ(1.96)
p695
Vkthui
p696
tp697
a(VQ(1.96)
p698
Vvqt004
p699
tp700
a(VQ(1.96)
p701
Vnnh002
p702
tp703
a(VQ(1.96)
p704
Vsachadal
p705
tp706
a(VQ(1.96)
p707
Vyhhan
p708
tp709
a(VQ(1.96)
p710
Vdsmonaha
p711
tp712
a(VQ(1.96)
p713
Veaherman
p714
tp715
a(VQ(1.96)
p716
Vk4ma
p717
tp718
a(VQ(1.96)
p719
Vakg009
p720
tp721
a(VQ(1.96)
p722
Vc3chung
p723
tp724
a(VQ(1.96)
p725
Vrraiyyan
p726
tp727
a(VQ(1.96)
p728
Vb1green
p729
tp730
a(VQ(1.96)
p731
Vv4zhang
p732
tp733
a(V10+1.96
p734
Vdlt009
p735
tp736
a(g391
g392
tp737
a(g397
g398
tp738
a(g543
g544
tp739
a(g316
g317
tp740
a(g325
g326
tp741
a(g328
g329
tp742
a(g442
g443
tp743
a(g277
g278
tp744
a(g445
g446
tp745
a(g280
g281
tp746
a(g334
g335
tp747
a(g337
g338
tp748
a(g340
g341
tp749
a(g343
g344
tp750
a(g346
g347
tp751
a(g352
g353
tp752
a(g355
g356
tp753
a(g358
g359
tp754
a(g494
g495
tp755
a(V2Q(2*1.96)
p756
Vdando
p757
tp758
a(VQ(2)
p759
Vcagatep
p760
tp761
a(g574
g575
tp762
a(g555
g556
tp763
a(VQ(2)
p764
Veaherman
p765
tp766
a(g461
g462
tp767
a(g464
g465
tp768
a(V2*0.024998
p769
Vbtn023
p770
tp771
a(g467
g468
tp772
a(g497
g498
tp773
a(g500
g501
tp774
a(g503
g504
tp775
a(g515
g516
tp776
a(g519
g520
tp777
a(g506
g507
tp778
a(g283
g284
tp779
a(g286
g287
tp780
a(g289
g290
tp781
a(g295
g296
tp782
a(g298
g299
tp783
a(g301
g302
tp784
a(g304
g305
tp785
a(g331
g332
tp786
a(g376
g377
tp787
a(g379
g380
tp788
a(g382
g383
tp789
a(g385
g386
tp790
a(g349
g350
tp791
a(g509
g510
tp792
a(g486
g487
tp793
a(g563
g564
tp794
a(g406
g407
tp795
a(g409
g410
tp796
a(g455
g456
tp797
a(g388
g389
tp798
a(g412
g413
tp799
a(g415
g416
tp800
a(g524
g525
tp801
a(g533
g534
tp802
a(g477
g478
tp803
a(g527
g528
tp804
a(g530
g531
tp805
a(g292
g293
tp806
a(g307
g308
tp807
a(g310
g311
tp808
asS"['R.0.0', 'R.0.1']"
p809
(lp810
(g319
g320
tp811
a(g322
g323
tp812
a(g370
g371
tp813
a(g280
g281
tp814
a(g373
g374
tp815
a(g412
g413
tp816
a(g292
g293
tp817
a(g307
g308
tp818
a(g310
g311
tp819
a(g415
g416
tp820
a(g533
g534
tp821
a(g289
g290
tp822
a(g295
g296
tp823
asS"['R.1.0.0']"
p824
(lp825
(V2*Q(1.96/2)
p826
Vasetters
p827
tp828
a(g574
g575
tp829
a(g563
g564
tp830
a(g328
g329
tp831
asS"['R.0.1']"
p832
(lp833
(g271
g272
tp834
a(g319
g320
tp835
a(g322
g323
tp836
a(g274
g275
tp837
a(VQ(2*1.96)
p838
Vdando
p839
tp840
a(g391
g392
tp841
a(VQ((100/4)^(1/2))
p842
Vvolim
p843
tp844
a(g397
g398
tp845
a(g442
g443
tp846
a(g280
g281
tp847
a(g376
g377
tp848
a(g379
g380
tp849
a(g382
g383
tp850
a(g385
g386
tp851
a(g277
g278
tp852
a(g445
g446
tp853
a(g486
g487
tp854
a(g403
g404
tp855
a(g283
g284
tp856
a(g286
g287
tp857
a(g480
g481
tp858
a(g289
g290
tp859
a(g292
g293
tp860
a(g295
g296
tp861
a(g298
g299
tp862
a(g301
g302
tp863
a(g304
g305
tp864
a(g307
g308
tp865
a(g310
g311
tp866
a(g474
g475
tp867
a(g455
g456
tp868
a(g406
g407
tp869
a(g409
g410
tp870
a(g412
g413
tp871
a(g415
g416
tp872
a(g477
g478
tp873
asS"['R.1.0']"
p874
(lp875
(g325
g326
tp876
a(g283
g284
tp877
a(g286
g287
tp878
a(g289
g290
tp879
a(g298
g299
tp880
a(g301
g302
tp881
a(g304
g305
tp882
a(g328
g329
tp883
a(g442
g443
tp884
a(g331
g332
tp885
a(g555
g556
tp886
a(g277
g278
tp887
a(g445
g446
tp888
a(g486
g487
tp889
a(g280
g281
tp890
a(g563
g564
tp891
a(g455
g456
tp892
a(g334
g335
tp893
a(g337
g338
tp894
a(g340
g341
tp895
a(g343
g344
tp896
a(g355
g356
tp897
a(g292
g293
tp898
a(g307
g308
tp899
a(g310
g311
tp900
a(g358
g359
tp901
a(g474
g475
tp902
a(g461
g462
tp903
a(g464
g465
tp904
a(g467
g468
tp905
a(g477
g478
tp906
asS"['R.0.0', 'R.1.0']"
p907
(lp908
(g271
g272
tp909
a(g370
g371
tp910
a(g373
g374
tp911
a(g376
g377
tp912
a(g379
g380
tp913
a(g382
g383
tp914
a(g385
g386
tp915
asS"['R']"
p916
(lp917
(V1.96
p918
Vabasu
p919
tp920
a(V1.96
p921
Vj5phung
p922
tp923
a(g271
g272
tp924
a(g346
g347
tp925
a(g642
g643
tp926
a(g647
g648
tp927
a(g650
g651
tp928
a(g653
g654
tp929
a(g656
g657
tp930
a(g659
g660
tp931
a(g662
g663
tp932
a(g665
g666
tp933
a(g668
g669
tp934
a(g671
g672
tp935
a(g674
g675
tp936
a(g677
g678
tp937
a(g680
g681
tp938
a(g683
g684
tp939
a(g686
g687
tp940
a(g689
g690
tp941
a(g692
g693
tp942
a(g695
g696
tp943
a(g698
g699
tp944
a(g701
g702
tp945
a(g704
g705
tp946
a(g707
g708
tp947
a(g710
g711
tp948
a(g713
g714
tp949
a(g716
g717
tp950
a(g719
g720
tp951
a(g722
g723
tp952
a(g725
g726
tp953
a(g728
g729
tp954
a(g731
g732
tp955
a(g537
g538
tp956
a(V3.92
p957
Vsippolit
p958
tp959
a(g549
g550
tp960
a(VQ(3.92)
p961
Vsippolit
p962
tp963
a(g838
g839
tp964
a(g322
g323
tp965
a(V0.975
p966
Vklala
p967
tp968
a(V0.975
p969
Vlrlai
p970
tp971
a(V.975
p972
Vahh002
p973
tp974
a(V.975
p975
Vdando
p976
tp977
a(V.975
p978
Vc1wei
p979
tp980
a(V.97500
p981
Vavasavad
p982
tp983
a(V.975
p984
Vc3chung
p985
tp986
a(g313
g314
tp987
a(g361
g362
tp988
a(g364
g365
tp989
a(g367
g368
tp990
a(g316
g317
tp991
a(g494
g495
tp992
a(g497
g498
tp993
a(g500
g501
tp994
a(g503
g504
tp995
a(g370
g371
tp996
a(g373
g374
tp997
a(g331
g332
tp998
a(g376
g377
tp999
a(g455
g456
tp1000
a(g379
g380
tp1001
a(g515
g516
tp1002
a(g519
g520
tp1003
a(g382
g383
tp1004
a(g385
g386
tp1005
a(g349
g350
tp1006
a(g292
g293
tp1007
a(g307
g308
tp1008
a(V0.025
p1009
Vdlt009
p1010
tp1011
a(V0.025
p1012
Vlrlai
p1013
tp1014
a(V0.97500-0.47500
p1015
Vaysee
p1016
tp1017
a(VQ(0)
p1018
Vcagatep
p1019
tp1020
a(V.5
p1021
Vyhhan
p1022
tp1023
a(V.05
p1024
Vzig006
p1025
tp1026
a(V0.05
p1027
Vksrijong
p1028
tp1029
a(V0.05
p1030
Vm8woo
p1031
tp1032
a(g546
g547
tp1033
a(g319
g320
tp1034
a(g759
g760
tp1035
a(g764
g765
tp1036
a(g391
g392
tp1037
a(g397
g398
tp1038
a(g543
g544
tp1039
a(g506
g507
tp1040
a(g328
g329
tp1041
a(g509
g510
tp1042
a(g442
g443
tp1043
a(g445
g446
tp1044
a(g486
g487
tp1045
a(V1-Q(9.8)
p1046
Vyil035
p1047
tp1048
a(g563
g564
tp1049
a(g474
g475
tp1050
a(g412
g413
tp1051
a(g415
g416
tp1052
a(g334
g335
tp1053
a(g524
g525
tp1054
a(g340
g341
tp1055
a(g343
g344
tp1056
a(V1-[-Q(1.96)+Q(1.96)]
p1057
Veaherman
p1058
tp1059
a(g533
g534
tp1060
a(g477
g478
tp1061
a(g842
g843
tp1062
a(VQ(5)
p1063
Vvolim
p1064
tp1065
a(VQ(5)
p1066
Vsachadal
p1067
tp1068
a(g325
g326
tp1069
a(g400
g401
tp1070
a(g277
g278
tp1071
a(g574
g575
tp1072
a(g337
g338
tp1073
a(g355
g356
tp1074
a(g358
g359
tp1075
a(g283
g284
tp1076
a(g406
g407
tp1077
a(g286
g287
tp1078
a(g464
g465
tp1079
a(g295
g296
tp1080
a(g301
g302
tp1081
a(g467
g468
tp1082
a(g409
g410
tp1083
a(g310
g311
tp1084
asS"['R.1.1']"
p1085
(lp1086
(g442
g443
tp1087
a(g1057
g1058
tp1088
a(g277
g278
tp1089
a(g445
g446
tp1090
a(g486
g487
tp1091
a(g280
g281
tp1092
a(g331
g332
tp1093
a(g480
g481
tp1094
asS"['R.0.0', 'R.0.1.0']"
p1095
(lp1096
(g370
g371
tp1097
a(g277
g278
tp1098
a(g373
g374
tp1099
assS"['R.0']"
p1100
(lp1101
(g33
V1-Q(3.92)
p1102
(lp1103
(S'R.0'
p1104
F1.0
g253
g253
tp1105
atp1106
a(V1-2*0.025
p1107
V1-Q(1.96)
p1108
(lp1109
(S'R.0'
p1110
F1.0
g253
g253
tp1111
atp1112
a(g53
V1 - Q(1.96)
p1113
(lp1114
(S'R.0'
p1115
F1.0
g253
g253
tp1116
atp1117
a(V1-2*0.025
p1118
V1-Q(2*1.96)
p1119
(lp1120
(S'R.0'
p1121
F1.0
g253
g253
tp1122
atp1123
a(g1118
V1-Q(1.96)
p1124
(lp1125
(S'R.0'
p1126
F1.0
g253
g253
tp1127
atp1128
a(V1-2*0.025
p1129
V1-Q(1.96)
p1130
(lp1131
(S'R.0'
p1132
F1.0
g253
g253
tp1133
atp1134
a(g93
V1 -(Q( -1.96 ) + Q(1.96))
p1135
(lp1136
(S'R.0'
p1137
F1.0
g253
g253
tp1138
atp1139
a(g93
V1 -(Q(1.96 ))
p1140
(lp1141
(S'R.0'
p1142
F1.0
g253
g253
tp1143
atp1144
a(g1129
V1-(Q(-1.96)+Q(1.96))
p1145
(lp1146
(S'R.0'
p1147
F1.0
g253
g253
tp1148
atp1149
a(g205
V1-(Q(1.96)+Q(-1.96))
p1150
(lp1151
(S'R.0'
p1152
F1.0
g253
g253
tp1153
atp1154
a(g205
V1-(Q(1.96))
p1155
(lp1156
(S'R.0'
p1157
F1.0
g253
g253
tp1158
atp1159
a(g205
V1-(Q(0.0250)+Q(0.9750))
p1160
(lp1161
(S'R.0'
p1162
F1.0
g253
g253
tp1163
atp1164
a(g93
V1 -(Q(1.96) + Q(-1.96))
p1165
(lp1166
(S'R.0'
p1167
F1.0
g253
g253
tp1168
atp1169
a(g210
V1-(Q(-1.96)+Q(1.96))
p1170
(lp1171
(S'R.0'
p1172
F1.0
g253
g253
tp1173
atp1174
a(g210
V1-(-Q(-1.96)+Q(1.96))
p1175
(lp1176
(S'R.0'
p1177
F1.0
g253
g253
tp1178
atp1179
a(g210
V1-(Q(-1.96)-Q(1.96))
p1180
(lp1181
(S'R.0'
p1182
F1.0
g253
g253
tp1183
atp1184
a(g210
V1-((1-Q(-1.96))-(1-Q(1.96)))
p1185
(lp1186
(S'R.0'
p1187
F1.0
g253
g253
tp1188
atp1189
a(g210
V1-((1-Q(-1.96))+(1-Q(1.96)))
p1190
(lp1191
(S'R.0'
p1192
F1.0
g253
g253
tp1193
atp1194
a(g210
V1-(Q(-1.96)+Q(1.96))
p1195
(lp1196
(S'R.0'
p1197
F1.0
g253
g253
tp1198
atp1199
a(g210
V1-(-Q(-1.96)+Q(1.96))
p1200
(lp1201
(S'R.0'
p1202
F1.0
g253
g253
tp1203
atp1204
a(g210
V1-(Q(-1.96)-Q(1.96))
p1205
(lp1206
(S'R.0'
p1207
F1.0
g253
g253
tp1208
atp1209
a(g210
V1-(Q(-1.96)+Q(1.96))
p1210
(lp1211
(S'R.0'
p1212
F1.0
g253
g253
tp1213
atp1214
a(g210
V1-(Q(-1.96)+Q(1.96))
p1215
(lp1216
(S'R.0'
p1217
F1.0
g253
g253
tp1218
atp1219
a(g210
V1-(Q(-1.96)-Q(1.96))
p1220
(lp1221
(S'R.0'
p1222
F1.0
g253
g253
tp1223
atp1224
a(g210
V(Q(-1.96)+Q(1.96))-1
p1225
(lp1226
(S'R.0'
p1227
F1.0
g253
VQ(-1.96)+Q(1.96)
p1228
tp1229
atp1230
a(V1-2*0.025
p1231
V1-Q(1.96)
p1232
(lp1233
(S'R.0'
p1234
F1.0
g253
g253
tp1235
atp1236
a(g219
V1-Q(1.96)
p1237
(lp1238
(S'R.0'
p1239
F1.0
g253
g253
tp1240
atp1241
a(V1-2*0.025
p1242
V1-Q(1.96)
p1243
(lp1244
(S'R.0'
p1245
F1.0
g253
g253
tp1246
atp1247
a(V1-2*0.025
p1248
V1-Q(1.96)
p1249
(lp1250
(S'R.0'
p1251
F1.0
g253
g253
tp1252
atp1253
a(V1-2*0.025
p1254
V1-Q(1.96)
p1255
(lp1256
(S'R.0'
p1257
F1.0
g253
g253
tp1258
atp1259
a(g1254
V1-Q(1.96)/2
p1260
(lp1261
(S'R.0'
p1262
F1.0
g253
g253
tp1263
atp1264
a(V1-2*0.025
p1265
V1-(Q(-1.96)+Q(1.96))
p1266
(lp1267
(S'R.0'
p1268
F1.0
g253
g253
tp1269
atp1270
a(V1-2*0.025
p1271
V1- Q(1.96)
p1272
(lp1273
(S'R.0'
p1274
F1.0
g253
g253
tp1275
atp1276
a(V1-2*0.025
p1277
V1- Q(1.96)
p1278
(lp1279
(S'R.0'
p1280
F1.0
g253
g253
tp1281
atp1282
a(g118
V1 -Q(1.96)
p1283
(lp1284
(S'R.0'
p1285
F1.0
g253
g253
tp1286
atp1287
a(g1277
V1 - Q(1.96)
p1288
(lp1289
(S'R.0'
p1290
F1.0
g253
g253
tp1291
atp1292
a(V1-2*0.025
p1293
V1/[1.96+1.96]
p1294
(lp1295
(S'R.0'
p1296
F1.0
g253
g253
tp1297
atp1298
a(V1-2*0.025
p1299
V1-(Q(1.96)+Q(-1.96))
p1300
(lp1301
(S'R.0'
p1302
F1.0
g253
g253
tp1303
atp1304
a(g1299
V1-(1-Q(1.96)+Q(-1.96))
p1305
(lp1306
(S'R.0'
p1307
F1.0
g253
g253
tp1308
atp1309
a(g124
VQ(1)
p1310
(lp1311
(S'R.0'
p1312
F1.0
g253
g253
tp1313
atp1314
a(g124
V1-Q(1.96)
p1315
(lp1316
(S'R.0'
p1317
F1.0
g253
g253
tp1318
atp1319
a(g124
V1-((Q(1.96)) + Q(-1.96))
p1320
(lp1321
(S'R.0'
p1322
F1.0
g253
g253
tp1323
atp1324
a(g124
V1-(Q(-1.96) + Q(1.96))
p1325
(lp1326
(S'R.0'
p1327
F1.0
g253
g253
tp1328
atp1329
a(g124
V1-[Q(-1.96)+Q(1.96)]
p1330
(lp1331
(S'R.0'
p1332
F1.0
g253
g253
tp1333
atp1334
a(g124
V1-[Q(1.96)]
p1335
(lp1336
(S'R.0'
p1337
F1.0
g253
g253
tp1338
atp1339
a(g124
V1-Q(1.96)
p1340
(lp1341
(S'R.0'
p1342
F1.0
g253
g253
tp1343
atp1344
a(V1-2*0.025
p1345
V(1-Q(1.96))
p1346
(lp1347
(S'R.0'
p1348
F1.0
g253
g253
tp1349
atp1350
a(V1-2*0.025
p1351
V1 - Q(1.96)
p1352
(lp1353
(S'R.0'
p1354
F1.0
g253
g253
tp1355
atp1356
a(g149
VQ(1)
p1357
(lp1358
(S'R.0'
p1359
F1.0
g253
g253
tp1360
atp1361
a(g149
V1-Q(1.96)
p1362
(lp1363
(S'R.0'
p1364
F1.0
g253
g253
tp1365
atp1366
a(V1-2*0.025
p1367
V1-Q(1.96)
p1368
(lp1369
(S'R.0'
p1370
F1.0
g253
g253
tp1371
atp1372
a(g1367
V1-(Q(1.96)-Q(-1.96))
p1373
(lp1374
(S'R.0'
p1375
F1.0
g253
g253
tp1376
atp1377
a(g1367
V1+(Q(1.96)-Q(-1.96))
p1378
(lp1379
(S'R.0'
p1380
F1.0
g253
g253
tp1381
atp1382
a(V1-2*0.025
p1383
V1- Q(1.96)
p1384
(lp1385
(S'R.0'
p1386
F1.0
g253
g253
tp1387
atp1388
a(g1383
V1- (Q(1.96)+Q(-1.96))
p1389
(lp1390
(S'R.0'
p1391
F1.0
g253
g253
tp1392
atp1393
a(V1-2*0.025
p1394
V1-Q(1.96)
p1395
(lp1396
(S'R.0'
p1397
F1.0
g253
g253
tp1398
atp1399
a(V1-2*0.025
p1400
V1-Q(1.96)
p1401
(lp1402
(S'R.0'
p1403
F1.0
g253
g253
tp1404
atp1405
a(g1367
V1-(Q(1.96)-Q(-1.96))
p1406
(lp1407
(S'R.0'
p1408
F1.0
g253
g253
tp1409
atp1410
a(g1367
V1+(Q(1.96)-Q(-1.96))
p1411
(lp1412
(S'R.0'
p1413
F1.0
g253
g253
tp1414
atp1415
a(g1367
V1-(Q(-1.96)+Q(1.96))
p1416
(lp1417
(S'R.0'
p1418
F1.0
g253
g253
tp1419
atp1420
a(g1367
V1-Q(-1.96)
p1421
(lp1422
(S'R.0'
p1423
F1.0
g253
g253
tp1424
atp1425
a(g1367
V1-Q(1.96)
p1426
(lp1427
(S'R.0'
p1428
F1.0
g253
g253
tp1429
atp1430
a(g1367
V1-(Q(1.96)+Q(-1.96))
p1431
(lp1432
(S'R.0'
p1433
F1.0
g253
g253
tp1434
atp1435
a(V1-2*0.025
p1436
V1-Q(1.96)
p1437
(lp1438
(S'R.0'
p1439
F1.0
g253
g253
tp1440
atp1441
ass.