(dp0
V1
p1
ccollections
defaultdict
p2
(c__builtin__
list
p3
tp4
Rp5
S'Nothing'
p6
(lp7
V20 - (200/5)/sqrt(5/6 * 200/5)
p8
aV(20 - (200/5))/sqrt(5/6 * 200/5)
p9
aV(20 - (200/5))/sqrt(40 * 4/5)
p10
aV(50/200 - (200/5))/sqrt(40 * 4/5)
p11
aV(50/200 - (.2))/sqrt(40 * 4/5)
p12
aVyes
p13
aVyes
p14
aV0.2
p15
aV(200 - 50) / (200 * 0.2 * 0.8)^0.5
p16
aV2*sqrt(6)/3
p17
aV(50 - .2*100)/(.2*.8*200)
p18
aV(50 - .2*100)/(1/(.2*.8*200))
p19
aV(50/200-.2)/(.2*.8/200)^1/2
p20
aV(50 - 40) / (800 - 1600)
p21
aV(50 - 40) / sqrt(800 - 1600)
p22
aV(50 - 40) / (.2 * .8 * 200)
p23
aV-3.4
p24
aV3.4
p25
aV-0.841621
p26
aV-3.4
p27
aV-0.8
p28
aV0.8
p29
aV0.8/2
p30
aV-0.8/2
p31
aVno
p32
aVyes
p33
aVyes 
p34
aVno
p35
aVyes
p36
aV(.25-0.20) / sqrt(200*0.25)*(0.75)
p37
aV(.25-0.20) / sqrt((200*0.25)*(0.75))
p38
aV(.25-0.20) / sqrt((200*0.20)*(0.80))
p39
aV(.20-0.25) / sqrt( (200*0.20)*(1 - 0.20 ) )
p40
aV(.25-0.20) / sqrt( (200*0.20)*(1 - 0.20 ) )
p41
aV(.25-0.20) / sqrt( (200*0.25)*(1 - 0.25 ) )
p42
aV(.20-0.22) / sqrt( (200*0.25)*(1 - 0.25 ) )
p43
aV(0.5-0.20) / sqrt( (200*0.5)*(1 - 0.5 ) )
p44
aV(0.5-0.25) / sqrt( (200*0.5)*(1 - 0.5 ) )
p45
aV(50-20) / sqrt( (200*0.5)*(1 - 0.5 ) )
p46
aV(50-50) / sqrt( (200*0.5)*(1 - 0.5 ) )
p47
aV(50-37.5) / sqrt( (200*0.)*(1 - 0.5 ) )
p48
aVyes
p49
aV(50-32) / sqrt( (200*0.2)*(1 - 0.5 ) )
p50
aV(50-32) / sqrt(32)
p51
aVyes
p52
aVYes
p53
aVYes
p54
aV63.2456
p55
aV(0.25-0.2)
p56
aV(0.25-0.2)/(200*0.2*0.8)^0.5
p57
aV(0.25-0.2)/(0.2*0.8)^0.5
p58
aV(0.25-0.2)/(0.25*0.75)^0.5
p59
aV0
p60
aVno
p61
aVyes
p62
aV(50/200 - .2)/sqrts(.2(1-.2)/200)
p63
aVyes
p64
aV.0385
p65
aV1.96
p66
aV2.326
p67
aV2.31
p68
aV.25
p69
aV-0.0141
p70
aV0.2-0.25/40
p71
aV(0.2-0.25)/40
p72
aV(0.2-0.25)/(40/sqrt(200))
p73
aV(0.25-0.2)/(40/sqrt(200))
p74
aV(0.25-0.2)/(40)
p75
aV(50-40) / (50/sqrt(200))
p76
aVyes
p77
aV.2
p78
aV(0.25-0.2) / (0.2(1-0.2)/(sqrt(200))
p79
aV(0.25-0.2) / ( ( 0.2(1-0.2) ) /(sqrt(200) ) )
p80
aV(0.25-0.2) / ( sqrt( 0.2(1-0.2) ) / (200)
p81
aV(0.25-0.2) / ( sqrt( 0.2(1-0.2) ) / (200)  )
p82
aV(50-200(.2))/(sqrt(200*.2))
p83
aV0.5/sqrt(0.16/200)
p84
aV';alert(String.fromCharCode(88,83,83))//\u005c';alert(String.fromCharCode(88,83,83))//";alert(String.fromCharCode(88,83,83))//\u005c";alert(String.fromCharCode(88,83,83))//--></SCRIPT>">'><SCRIPT>alert(String.fromCharCode(88,83,83))</SCRIPT>
p85
aV160/sqrt(32)
p86
aVQ(.2)
p87
aV(.20-(.2*200))/((.2*200)(1-.2))^(1/2)
p88
aV(.20-(.25*200))/((.25*200)(1-(.25))^(1/2)
p89
aV(.20-(.25*200))/((.25*200)(1-(.25)))^(1/2)
p90
aVno
p91
aVyes
p92
aV.2
p93
aV2Q-1
p94
aV2phi-1
p95
aV2erf-1
p96
aV(.20/sqrt(.40/200))
p97
aV(.40/sqrt(.20/200))
p98
aVsqrt(200*(1-.20) *.8)
p99
aV/sqrt(200*(1-.20) *.8)
p100
aV40/sqrt(200*(1-.20) *.8)
p101
aV(200-40)/sqrt(200*(1-.20) *.8)
p102
aV(50-40)/sqrt(200*(1-.20) *.8)
p103
aV(.25-.2)/((.16/200)^(1/2)
p104
aV8.4
p105
aV-8.4
p106
aV(50-40)/(sqrt(0.2 * ( 1 - 0.2 ) / 200 )
p107
aV(50-40)/(sqrt(0.2 * ( 1 - 0.2 ) / 200 ))
p108
aVyes
p109
aV(.05/sqrt(40))
p110
aVyes
p111
aVyes
p112
aV10/sqrt(8)
p113
aV10/sqrt(40)
p114
aV150/sqrt(48)
p115
aV150/sqrt(80)
p116
aV50/sqrt(48)
p117
aV50/sqrt(80)
p118
aV150/sqrt(24)
p119
aV50/sqrt(24)
p120
aV10/sqrt(24)
p121
aV30/sqrt(24)
p122
aV30/sqrt(40)
p123
aV10/sqrt(40)
p124
aV(50-40)/sqrt(1000*.2*.8)
p125
aV(200*0.2 - 50)/sqrt(200*0.2(1-0.2))
p126
aV(50-40)/(sqrt(40))
p127
aV(50-32)/(32**.5)
p128
aV(40-50)/sqrt(40)
p129
aV(50-(0.2*200)/sqrt[(0.2)*(0.8)*(200)]
p130
aV(50-40)/sqrt(40)
p131
aV0.9429
p132
aV0.0571
p133
aVyes
p134
aVyes
p135
aVyes
p136
aVyes
p137
aV0.25
p138
aV0.1
p139
aV0.01
p140
aV0.001
p141
aV150/.2
p142
aV750.0
p143
aV-750
p144
aV150/(200*.2*.8)
p145
aV150/sqrt(200*.2*.8)
p146
aV(200-50)/sqrt(200*1/5*4/5)
p147
aV(200-50)/sqrt(200*1/4*3/4)
p148
aV(50-40)/80
p149
aV(200-40)/80
p150
aV(50-40)/80
p151
aV(50 - .2*100)/(sqrt(20*.8))
p152
aV(50 - .2*100)/(20*.8)^2
p153
aV(50 - .2*100)/sqrt(20*.8)
p154
aV(50 - .2*200)/sqrt(.2*.8/200)
p155
aV(50 - (.2*200))/sqrt(200*2*.8)
p156
aV(50 - (40))/sqrt(.2*.8/200
p157
aV(50 - (40))/sqrt(.2*.8/200)
p158
aV(50 - (40))/.2*.8/200
p159
aV(50 - (40))/(.2*.8/200)
p160
aV(50 - (40))/(.2*.8/200)^2
p161
aV(50-40)/sqrt(40)
p162
aV(50 - (40))/sqrt(.2*.8)
p163
aV[50-(1/5)(200)]/[sqrt(((1/5)(4/5))/(200))]
p164
aVno
p165
aVyes
p166
aV(0.2-0.25)/50
p167
aV(0.25-0.2)/50
p168
aV(0.2-0.25)/(sqrt(200*0.2*0.8))
p169
aV(0.2-0.25)/(sqrt(0.2*0.8/200))
p170
aV(50 - 40) / 4 sqrt(2)
p171
aVyes
p172
aVyes
p173
aV10/(200*.2*.8)^2
p174
aV(200*.2-50)/(sqrt(200*.2(1-.2)))
p175
aV(200*.2-50)/(sqrt(200*.2))
p176
aV(50-40)/(sqrt(200*.2))
p177
aV0.3125
p178
aV.20
p179
aVyes
p180
aVyes
p181
aVyes
p182
aV0.25-0.2/[sqrt[0.2(1-0.2)/200]]
p183
aV(50/200)-.20
p184
aV200(0.2)
p185
aV10/
p186
aV10/3
p187
aV10/15
p188
aV(50/200)-.20/(sqrt(.2(1-.2)/200)
p189
aV(50/200)-.20/(sqrt(.2(1-.2)/200))
p190
aV(50 - (200 * .2)) / (sqrt((.2*.8)/200)
p191
aV(50 - (200 * .2)) / (sqrt((.2*.8)/200))
p192
aV-10/sqrt(32)
p193
aV(50-40)/sqrt((.2*.8)/200)
p194
aV(50-40)/sqrt((.2*.8)/40)
p195
aV(50-40)/sqrt((.2*.8)/50)
p196
aV(200-40)/sqrt((.2*.8)/50)
p197
aV(200-50)/sqrt((.2*.8)/40)
p198
aV(200-50)/sqrt(.2*.8*40)
p199
aV(200-50)/sqrt(.2*.8*200)
p200
aV(200-40)/sqrt(.2*.8*200)
p201
aV(200-(51*5))/(sqrt(.2 * (1-.2)*50))
p202
aV10/(50**.5)
p203
aV(200-(1*5))/((.2*(1-.2)/200)))
p204
aV(200-(1*5))/((.2*(1-.2)/200))
p205
aV(200-(.2))/((.2*(1-.2)/200))
p206
aV10/(5**.5)
p207
aV(50-(.2))/((.2*(1-.2)/200))
p208
aV(50-(51*5))/((.2*(1-.2)/200))
p209
aV((50/200)-.2)/((.2*(1-.2)/200))
p210
aV((50/200)-.2)/(200 * .2 * (1-.2))
p211
aV((50/200)-.2)/(200 * .2 * (1-.2)^2)
p212
aV((50/200)-.2)/(200 * .2 * (1-.2))^2)
p213
aV((50/200)-.2)/(200 * .2 * (1-.2))^2
p214
aV((50/200)-.2)/sqrt(200 * .2 * (1-.2))
p215
aV((50/200)-.2)/sqrt(50 * .2 * (1-.2))
p216
aV((50/200)-.2)/sqrt(200 * .2 * (1-.2))
p217
aV((50/200)-.2)/sqrt((50/200) * .2 * (1-.2))
p218
aV((50/200)-.2)/sqrt((200) * .2 * (1-.2))
p219
aVyes
p220
aV.2
p221
aV(50 - ((1/5)*200))/(((1/5)^2*200) - ((1/5)*200)^2)
p222
aV(50 - ((1/5)*200))/sqrt(((1/5)^2*200) - ((1/5)*200)^2)
p223
aV200-40/(sqrt{.2(1-.2)*200}
p224
aV200-40/(sqrt{.2(1-.2)*200})
p225
aV(200-40)/(sqrt{.2(1-.2)*200})
p226
aV(200-40)/(sqrt{.2(1-.2)*40})
p227
aV(50-40)/(sqrt{.2(1-.2)*40})
p228
aV0.052579672
p229
aV0.05/(sqrt(.16/200)
p230
aV0.041399332
p231
aV50/200
p232
aVQ(2)
p233
aV200 - 50/(sqrt(50 * 200))
p234
aV200*.2 - 50/(sqrt(200*.2*(1-.2)))
p235
aV(200*.2 - 50)/(sqrt(200*.2*(1-.2)))
p236
aV(200 - 50)/0.20
p237
aV(0.25 - 0.2)/(0.2(1 - 0.2))^0.5
p238
aV[(50/200) - 0.2]/[(0.2) * (1 - 0.2)]^0.5
p239
aV1/4
p240
aV[50-0.2*200]/[.2 * .8 * 200]
p241
aV.2/.5
p242
aV-.2/.5
p243
aV(0.25-0.2)/(sqrt((.2*(1-.2))/200)
p244
aV40
p245
aV(50-40)/\u005c
p246
aV(50-40)
p247
aV(50-40)/(90^(1/2))
p248
aV(50-40)/(45^(1/2))
p249
aV(50-40)/sqrt((  ((50^2)+ (40^2) )/2))
p250
aV\u005cfrac{0.05}{\u005csqrt{0.16/200}}
p251
aV2 * phi-1
p252
aV150/((10*((6)^(1/2))/4))
p253
aV150/((10*((6)^(1/2))/4)^(1/2))
p254
aV150/((10*((8)^(1/2))/5)^(1/2))
p255
aV.2(200) - 220*.20(1-.2)
p256
aV50 - .2(200)/(200*.20(1-.2))^.5
p257
aVYes
p258
aVyes
p259
aVno
p260
aV8
p261
aVno
p262
aV.5
p263
aVyes
p264
aV50-40/((32)^(1/2))
p265
aV50*10/40
p266
aV50*sqrt(20)/40
p267
aV(200*.2-50)/sqrt(200*.2)
p268
aV1.58
p269
aV(50-40)/sqrt(40)
p270
aV(50-200/5)/sqrt(0.2*0.8)
p271
aV(40-50)/sqrt(40)
p272
aV(50-200*0.2)/sqrt(0.2*200)
p273
aV8.696
p274
aV1.463
p275
aV1
p276
aV1.7
p277
aV-1.7
p278
aV.07
p279
aV.842
p280
aV.25-.2/((10*((8)^(1/2))/5)^(1/2))
p281
aV(50-40)/sqrt(( ((50^2)+ (40^2) )/2))
p282
aV((50/200)-(40/200))/sqrt(( ((50^2)+ (40^2) )/2))
p283
aV.25-.2/(((.2*.8)/200)^(1/2))
p284
aV(40-50)/(200*.20*.8)**0.5
p285
aV(40-50)/((40(.8))^(1/2))
p286
aV8/sqrt(32)
p287
aV(50-40)/(sqrt((40*0.2)(1-0.2)))
p288
aV200*0.2
p289
aV[50-200*0.2]/[sqrt([0.2*(1-0.2)]/200)*sqrt(200)]
p290
aV[50-200*0.2]/[sqrt([0.2*(1-0.2)]/200)]
p291
aV((50/200) - .20) / (.20(1 - .20)200)
p292
aV((50-(200*.2))/sqrt(200 * .2 * (1-.2))
p293
aVsqrt(200(.2)(.8))
p294
aV(50-40)*sqrt(200*.2*.2)
p295
aV(50-40)*sqrt(200*.2*.8)
p296
aVyes
p297
aVyes
p298
aVyes
p299
aVyes
p300
aV0.25
p301
aV1
p302
aV.2
p303
aVno
p304
aVyes
p305
aV200 * .20
p306
aV200 * .2
p307
aV200*.2/ ((40(.8))^.5)
p308
aV(50-40)/(200*0.2)(0.8)
p309
aV(50-40)/((200*0.2)(0.8))
p310
aV(40-50)/((200*0.2)(0.8))
p311
aV(50-40)/((200*0.2)(0.8))
p312
aV(40-50)/((200*0.2)(0.8))
p313
aV(40-50)/((40000*0.2)(0.8))
p314
aV(40-50)/((200*0.2)(0.8))
p315
aVQ()
p316
aV10/(((0.2*0.8)/200)^0.5)
p317
aV10/((((0.2*0.8)/200)^0.5)/(200)^0.5)
p318
aV10/((((0.2*0.8)/200)^0.5)*(200)^0.5)
p319
aV(40-50)/(sqrt((200*0.2)(0.8)))
p320
aV(40-50)/(sqrt((200*0.2)))
p321
aV(40-50)/(sqrt((200*0.2)*0.8))
p322
aV(40-50)/(sqrt((200*0.2*0.8)))
p323
aVyes
p324
aV(200-0.2*200)/(sqrt(0.2*(1-0.2)200))
p325
aV|{.20-(50/200)}|/sqrt(200 * 50/200 * (1- 50/200))
p326
aV|{.20-(50/200)}|/sqrt(200 * (50/200) * (1- 50/200))
p327
aV|{(50/200) - .2}|/sqrt(200 * (50/200) * (1- 50/200))
p328
aV.2
p329
aV.8
p330
aV.6
p331
aV.1
p332
aV.2
p333
aV.05
p334
aV(.25-.20)/sqrt((.2(1-.2)/200)
p335
aV50/200
p336
aV(1/5)*200
p337
aV(1/5)
p338
aV.2
p339
aVyes
p340
aV(40 - 50)/sqrt(40*.8)
p341
aV(.20*200 - 200*50/200)/sqrt(200*(50/200)*(1-50/200))
p342
aVabs(.20*200 - 200*50/200)/sqrt(200*(50/200)*(1-50/200))
p343
aV25
p344
aV.125
p345
aV25
p346
aV(50-40)/(sqrt(0.2*0.8))
p347
aV0.2
p348
aV10
p349
aV10/sqrt(40)
p350
aV18/sqrt(32)
p351
aV0
p352
aV40
p353
aVyes
p354
aVyes 
p355
aVno
p356
aVyes
p357
aVabs(.40-50)/sqrt(200*(50/200)*(1-(50/200)))
p358
aVabs(40-50)/sqrt(200*(50/200)*(1-(50/200)))
p359
aV[200-50]/0.2
p360
aV[200-50]/0.25
p361
aV((200*(1/5))(1-1/5))^(.5)
p362
aV.5
p363
aV1
p364
aV0.0385
p365
aV396
p366
aV1.41421
p367
aV.5/(200*.2*.8)
p368
aV.05/(200*.2*.8)
p369
aV.05/sqrt(200*.2*.8)
p370
aV0.05/(sqrt(0.2(1 \u2212 0.2)/200))
p371
aV0.05/(sqrt(0.2*(1 \u2212 0.2)/200))
p372
aV8/sqrt(2)
p373
aV2/sqrt(2)
p374
aVyes
p375
aVyes
p376
aV(50-40)/(200)
p377
aV(.25-.2)/(sqr((.2*.8)/200))
p378
aV(50-40)/sqrt( 40(1-40))
p379
aV(0.25-.02)/sqrt(0.2(1-0.2)/200)
p380
aV(200-40)/(.5)
p381
aV(40-200)/(.5)
p382
aVno
p383
aV16/[3*sqrt(2)]
p384
aV10/{[sqrt(0.75*(0 - 0.25)^2 + 0.25*(1-0.25)^2)]/sqrt(200)}
p385
aV.0793
p386
aV.0987
p387
aVyes
p388
aV0.5590169944
p389
aVYes
p390
aVyes
p391
aV(40-40)/(32)^(1/2)
p392
aV(40-8)/(32)^(1/2)
p393
aV50/200
p394
aV(5/200-.2)/(.2*.8/200)^(1/2)
p395
aV((50/200)-(40/200))/((.2*.8)/200)
p396
aV((50/200)-(40/200))/((.25*.75)/200)
p397
aV((50/200)-(40/200))/((.25*.75)/200)^.5
p398
aV(200-40)/(sqrt((200)(.2)(.8)))
p399
aV((0.2*200)-5)/sqrt(200*0.2(1-0.2))
p400
aV1.632993162
p401
aV0
p402
aV160/32
p403
aV10/32
p404
aV160/(32^(1/2))
p405
aV10/sqrt((0.2)*(0.8)/200)
p406
aV-.842
p407
aV28.2843
p408
aV(50 - 40)/(200)^(1/2)
p409
aV(.25-.2)/
p410
aV(50 - 40)/(200)
p411
aV.05/(.16/200)^1/2
p412
aV(50 - 40)/((.2)(.8)/(200)^1/2)
p413
aV(50 - 40)/((.2)(.8)/(200)^(1/2))
p414
aV(.25 - .2)/((.2)(.8)/(200)^(1/2))
p415
aV(.25-.2)/sqrt(200)
p416
aV(50-40)/sqrt(200)
p417
aV(50-40)/1
p418
aV(50-40)/sqrt(10)
p419
aV(50-40)/sqrt(40)
p420
aV-(50-40)/sqrt(40)
p421
aV(40-50)/sqrt(40)
p422
aV[(200 * 0.25) - (200 * 0.20)]/[200 * 0.25 * (1-0.25)]^(1/2)
p423
aV(40-50)/sqrt(40*(1-.2))
p424
aV0
p425
aV.05
p426
aV5
p427
aV.01
p428
aV10
p429
aV(50-(200*.2))/.2
p430
aV0.5/(0.16/200)^2
p431
aV0.5/(0.16/200)^1/2
p432
aV0.5/(0.16/200)^(1/2)
p433
aV(200 * (50/200) - 50) / (sqrt((200 * (50/200)) - (1 - (50/200))))
p434
aV-0.841621
p435
aV(200 * .2 - 50) / (sqrt((200 * .2) - (1 - .2)))
p436
aV(200 * .2 - 50) / (sqrt((200 * .2) * (1 - .2)))
p437
aV(200 * (1/4) - 50) / (sqrt((200 * .2) * (1 - (1/4))))
p438
aV1.25
p439
aV-0.67449
p440
aV17.6776695297
p441
aVabs(200 * (1/4) - 50) / (sqrt((200 * .2) * (1 - (1/4))))
p442
aVsqrt(32)
p443
aVsqrt[0.2(1-0.8)50]
p444
aVsqrt[0.2(1-0.8)200]
p445
aVsqrt[0.2(1-0.2)200]
p446
aVsqrt[0.25(1-0.25)200]
p447
aVsqrt[0.25(1-0.25)50]
p448
aVsqrt[0.20(1-0.20)50]
p449
aV10/sqrt[0.20(1-0.20)50]
p450
aV(1/4-1/5)/(sqrt[[1/5(1-1/5)]/50])
p451
aVno
p452
aVyes
p453
aV0
p454
aV40
p455
aV200
p456
aV40
p457
aVyes
p458
aVsqrt(2)/10
p459
aV10
p460
aV35
p461
aV0
p462
aV50
p463
aV10/(32)^1/2
p464
aVQ(.2)
p465
aV28.288
p466
aV(10)/(40^(1/2))
p467
aV(-10)/(40^(1/2))
p468
aV0.883883476
p469
aV(50 - 40)/(40^(1/2))
p470
aV(50 - 40)/(40)
p471
aV(50-40)/((.2*.8*200)^.5))
p472
aV(50 - 40)/(50)
p473
aV(50 - 40)/(50^(1/2))
p474
aV(50 - 40)/(40^(1/2))
p475
aV(50 - 40)/(10^(1/2))
p476
aV(0.25-0.2)/(SQRT(0.16/200)
p477
aV5/(4*sqrt(2))
p478
aV(50-40)/(32^(2/2))
p479
aV10/(4*sqrt(0.2*0.8*200))
p480
aV0.5/sqrt(0.16/200)
p481
aV0.5/sqrt(0.20/200)
p482
aV0.05/sqrt(0.20/200)
p483
aV6.123
p484
aV23
p485
aV(0.25-.20)/sqr((.20(1-.2))/200
p486
aV(0.25-.20)/sqrt((.20(1-.2))/200
p487
aV(0.05)/(sort(((0.20) *(0.80))/(200)))
p488
aV(.2 - .25) / sqrt( (.2 * .8 )
p489
aV1
p490
aV(.2 - .25) / sqrt( (.2 * .8 ) )
p491
aV(.25 -  .2) / sqrt( (.2 * .8 ) )
p492
aV1/2
p493
aV.579
p494
aV.5793
p495
aV(.25-.2)/(sqrt(.2(1-.2))/200)
p496
aV(.25-.2)/(sqrt(.16/200)
p497
aVyes
p498
aVyes
p499
aV.0793
p500
aV20
p501
aVQ(.2)
p502
aVQ(.2)
p503
aVQ(.2)
p504
aV(50-40)/sqrt(50)
p505
aV(50-40)/sqrt(50-40)
p506
aV50
p507
aV10/(1-0.20)()
p508
aV(50-(200/5))/(200(1/5)(1-(1/5)))
p509
aV50/200
p510
aV200
p511
aVQ((200*0.2-50)/sqrt(32))
p512
aV(32-50)/sqrt(32)
p513
aV(50-32)/sqrt(32)
p514
aV(32-40)/sqrt(32)
p515
aV(40-50)/sqrt(40)
p516
assV3
p517
g2
(g3
tp518
Rp519
g6
(lp520
Vno
p521
aVno
p522
aVno
p523
aVno
p524
aVno
p525
aVno
p526
aVno
p527
aVno
p528
aVNo
p529
aVno
p530
aVno
p531
aVno
p532
aVno
p533
aVno
p534
aVno
p535
aVno
p536
aVno
p537
aVno
p538
aVno
p539
aVno
p540
aVno
p541
aVno
p542
aVno
p543
aVno
p544
aVno
p545
aVno
p546
aVno
p547
aVno
p548
aVno
p549
aVyes
p550
aVno
p551
aVno
p552
aVyes
p553
aVno
p554
aVno 
p555
aVno
p556
aVno
p557
aVno
p558
aVno
p559
aVno
p560
aVno
p561
aVno
p562
aVno
p563
aVno
p564
aVno
p565
aVno
p566
aVno
p567
aVno
p568
assV2
p569
g2
(g3
tp570
Rp571
g6
(lp572
Vno
p573
aV0.039
p574
aV0.25
p575
aV0.039
p576
aV0.039
p577
aVQ((50/200-.2)/(.2*.8/200)^1/2)
p578
aVyes
p579
aVno
p580
aVno
p581
aVno
p582
aVno
p583
aVno
p584
aV0.039
p585
aV0.20
p586
aV0.25
p587
aVno
p588
aVYes
p589
aVNo
p590
aV0.8
p591
aVno
p592
aVno
p593
aVQ((50/200 - .2)/sqrts(.2(1-.2)/200))
p594
aVno
p595
aV.039
p596
aV0.039
p597
aVno
p598
aV0.039
p599
aVP ( Z>1.7677)
p600
aVZ>1.7677
p601
aV0.039
p602
aV0.04
p603
aV0.039
p604
aV1%
p605
aV1
p606
aV3
p607
aVQ((50-200(.2))/(sqrt(200*.2)))
p608
aVQ(0.5/sqrt(0.16/200))
p609
aVQ(2*$phi-1)
p610
aVyes
p611
aVno
p612
aV.039
p613
aVP(H>(.25-.2)/sqrt((.2)*(1-.2)/200))
p614
aVH>(.25-.2)/sqrt((.2)*(1-.2)/200)
p615
aV.039
p616
aV.05
p617
aV.2
p618
aVQ((.25-.2)/((.16/200)^(1/2))
p619
aVQ(0.25-0.2)/(sqrt(0.2 * ( 1 - 0.2 ) / 200 ))
p620
aVno
p621
aVyes
p622
aVno
p623
aV.039
p624
aV1.7678
p625
aV.2
p626
aV.039*2
p627
aVQ(10/sqrt(40))
p628
aVyes
p629
aVyes
p630
aVno
p631
aVno
p632
aVyes
p633
aVyes
p634
aVyes
p635
aVyes
p636
aV0.039
p637
aVyes
p638
aVno
p639
aVno
p640
aV0.039
p641
aVQ((200*.2-50)/(sqrt(200*.2(1-.2))))
p642
aVQ(0.3125)
p643
aVno
p644
aVyes
p645
aVno
p646
aV0.039
p647
aVP(Z>1.7678)
p648
aV0.039
p649
aV0
p650
aVQ(
p651
aVQ(-10/sqrt(32))
p652
aVno
p653
aVyes
p654
aVQ(0.052579672)
p655
aV0.039
p656
aV.961
p657
aV.39
p658
aV.039
p659
aVQ(0.052579672)0.041399332
p660
aV0.0771
p661
aV0.038
p662
aV0.030
p663
aV0.031
p664
aV0.032
p665
aV0.033
p666
aVQ()
p667
aVQ(.2)
p668
aV1 - [(0.25 - 0.2)/(0.2(1 - 0.2))^0.5]
p669
aV1 - [(50/200) - 0.2]/[(0.2) * (1 - 0.2)/200]^0.5
p670
aVQ(1/4)
p671
aVQ([50-0.2*200]/[.2 * .8 * 200])
p672
aVQ(.2)
p673
aV1.7678
p674
aV0.039
p675
aV.0392
p676
aV1.96
p677
aV1.98
p678
aV0.9687
p679
aV.0784
p680
aVNo
p681
aVno
p682
aVyes
p683
aVQ(8)
p684
aVyes
p685
aVQ(.5)
p686
aVno
p687
aVQ(1.58)
p688
aVQ((50-200/5)/sqrt(0.2*0.8))
p689
aVQ((50-200*0.2)/sqrt(0.2*200))
p690
aVQ((50-200*0.2)/sqrt(0.2*200))*0.8*
p691
aV.674
p692
aV.9616
p693
aVQ(200*0.2)
p694
aV0.2
p695
aVQ(((50/200) - .20) / (.20(1 - .20)200))
p696
aV1-Q((50-200*.2)/(sqrt(200*0.2*0.8)))
p697
aV1-(1/2+1/2erf((1-(1/2+1/2erf(.3/sqrt(2))))/sqrt(2)))
p698
aVQ(1-(1/2+1/2erf(.3/sqrt(2))))
p699
aVyes
p700
aVno
p701
aVno
p702
aVyes
p703
aVyes
p704
aVyes
p705
aVno
p706
aVno
p707
aV.039
p708
aV1.76
p709
aV.020
p710
aV.39
p711
aV.039
p712
aVno
p713
aVQ(1.76)
p714
aVq((.25-.20)/sqrt((.2(1-.2))/200))
p715
aVno
p716
aVQ((40 - 50)/sqrt(40*.8))
p717
aV1 - Q(10/(200*0.2*0.8)^0.5)
p718
aVQ(1.776953)
p719
aV1-Q(1.776953)
p720
aV.2
p721
aVQ(1.776953)
p722
aV2*Q(1.776953)
p723
aVno
p724
aVno
p725
aV.16/200
p726
aVQ(.05/sqrt(.16/200)
p727
aV0.392
p728
aV0.0392
p729
aV0.039
p730
aVno
p731
aVno
p732
aVno
p733
aV0.039
p734
aV0.04
p735
aV.2
p736
aV1/5
p737
aV.20
p738
aV.25
p739
aV0.05
p740
aV0.039
p741
aV0.20
p742
aV0.039
p743
aVQ(8/sqrt(2))
p744
aVQ(0.1/sqrt(0.1*0.9/40))
p745
aVQ(2/sqrt(2))
p746
aV.039
p747
aV0.039
p748
aVP(Z > 1.7678)
p749
aV(Q > 1.7678)
p750
aV.2322
p751
aV.7322
p752
aV0.0771
p753
aV0.1542
p754
aV0.0104
p755
aVno
p756
aV0.039
p757
aVQ(0.2)
p758
aVQ(0.25)
p759
aV1- Phi(0.2)
p760
aV1- Phi(0.25)
p761
aVQ(0.05/sqrt(0.16/200)
p762
aVno
p763
aVq((0.25-.2)/sqrt(0.2(1-0.2)/200))
p764
aVyes
p765
aVno
p766
aVNo
p767
aVno
p768
aV.039
p769
aV50/200
p770
aV0.039
p771
aV0.0390
p772
aV0.0391
p773
aV0.0392
p774
aV0.0393
p775
aV0.0394
p776
aV0.0395
p777
aV0.0396
p778
aV0.0397
p779
aV0.0398
p780
aV0.0399
p781
aV.2
p782
aVQ(((0.2*200)-5)/sqrt(200*0.2(1-0.2)))
p783
aVQ(1.632993162)
p784
aV0.2
p785
aV.04
p786
aV1-Q(1.767766953
p787
aV1-Q(1.767766953)
p788
aV1-Q((0.25-0.2) /((0.2)(1-0.2)/200)^(1/2))
p789
aV.2
p790
aVQ(200)
p791
aVQ(150)
p792
aVQ(.2)
p793
aVQ(40)
p794
aV.025
p795
aVQ(.2)
p796
aV0.039
p797
aV0
p798
aV.05
p799
aV5
p800
aV.01
p801
aVQ(1.21)
p802
aV0.07841
p803
aV0.07673
p804
aV0.9599
p805
aV0.9608
p806
aV0.9616
p807
aV.039
p808
aV.077
p809
aV0.038556.
p810
aVyes
p811
aVno
p812
aVP[.2>(50-40)/(sqrt((200)(.2)(.8)))]
p813
aV[.2>(50-40)/(sqrt((200)(.2)(.8)))]
p814
aV.2
p815
aV[ [(200 )(.2 )]-(.2 ) ]/[ sqrt[(200 )(.2 ) (1 -.2 )]]
p816
aV[ [(50 )(.2 )]-(.2 ) ]/[ sqrt[(200 )(.2 ) (1 -.2 )]]
p817
aVno
p818
aV.2
p819
aV-.2608
p820
aV.2608
p821
aV.25
p822
aV10Q/sqrt(32)
p823
aV(10Q)/sqrt(32)
p824
aV(10q)/sqrt(32)
p825
aV(10*.2)/sqrt(32)
p826
aVyes
p827
aV5%
p828
aV0.039
p829
aV0.03
p830
aV0.02
p831
aV0.04
p832
aVQ(0.3)
p833
aVQ(0.31)
p834
aVQ(0.29)
p835
aVQ(0.299)
p836
aVQ(0.2999999)
p837
aVQ(0.33)
p838
aVQ(0.28)
p839
aVQ(0.26)
p840
aVQ(0.279)
p841
aVQ(1.8)
p842
aVQ(1.89)
p843
aVQ(1.79)
p844
aVQ(1.6)
p845
aVQ(1.799999)
p846
aVQ(0.883883476)
p847
aVQ(.2)
p848
aV1-Q(.2)
p849
aV2*Q(.2)
p850
aV.15
p851
aV.025
p852
aV.0015
p853
aV.0003
p854
aV1
p855
aV2
p856
aV3
p857
aV4
p858
aV0.04935333238
p859
aV(Q(50-40)/(32^(1/2)))
p860
aVQ(10/(4*sqrt(0.2*0.8*200)))
p861
aVQ(1)
p862
aVQ(2)
p863
aVQ(3)
p864
aVQ(4)
p865
aVQ(.2)
p866
aVQ(50)
p867
aVQ(1)
p868
aVQ(0.5/sqrt(0.16/200))
p869
aVQ(0.5/sqrt(0.20/200))
p870
aVQ(0.05/sqrt(0.20/200))
p871
aVQ(50-40)/sqrt(32)
p872
aVQ(50-40/sqrt(32))
p873
aV0.077
p874
aV0.077099
p875
aVyes
p876
aVno
p877
aVq ((.25 - .2) / sqrt( (.2 * .8 ) / 200) )
p878
aVQ((.25-.2)/(sqrt(.16/200)),1.7677)
p879
aV0.039
p880
aVP(Z > 1.7678)
p881
aVQ(Z > 1.7678)
p882
aV20
p883
aVyes
p884
aVyes
p885
aVsqrt((1/5)(200)(1-(1/5))
p886
aVsqrt((1/5)(200)(1-(1/5)))
p887
aVQ()
p888
aVQ(.25)
p889
aV 0.039.
p890
aV 0.039
p891
aVyes
p892
asS"[('R', 0.038549681070836672, u'Q(1.76777)', u'Q(1.76777)')]"
p893
(lp894
V1-Q(1.76777)
p895
asS"[('R.0', 1.76777, u'1.76777', u'1.76777')]"
p896
(lp897
V1.76777
p898
aV.2-1.76777
p899
aV1.76777-.2
p900
assV4
p901
g2
(g3
tp902
Rp903
g6
(lp904
Vyes
p905
aVyes
p906
aVyes
p907
aVyes
p908
aVyes
p909
aVyes
p910
aVyes
p911
aVyes
p912
aVyes
p913
aVyes
p914
aVyes
p915
aVYes
p916
aVyes
p917
aV no
p918
aVyes
p919
aVyes
p920
aVyes
p921
aVyes
p922
aVyes
p923
aVyes
p924
aVyes
p925
aVyes
p926
aVyes
p927
aVyes
p928
aVyes
p929
aVyes
p930
aVyes
p931
aVyes
p932
aVyes
p933
aVyes
p934
aVyes
p935
aVyes
p936
aVyes
p937
aVyes
p938
aVyes
p939
aVyes
p940
aVyes
p941
aVyes
p942
aVyes
p943
aVyes
p944
aVyes
p945
aVyes
p946
aVyes
p947
aVyes
p948
aVyes
p949
aVyes
p950
aVyes
p951
aVyes
p952
aVyes
p953
aVyes
p954
aVyes
p955
aVyes
p956
aVyes
p957
aVyes
p958
aVyes
p959
aVyes
p960
aVyes
p961
aVyes
p962
aVyes
p963
aVyes
p964
aVyes
p965
aVyes
p966
ass.