(dp0
V1
p1
ccollections
defaultdict
p2
(c__builtin__
list
p3
tp4
Rp5
S'Nothing'
p6
(lp7
V0.1
p8
aV10
p9
aV1000000
p10
aV10000
p11
aV4
p12
aVno
p13
aV+1
p14
aV+1
p15
aV+1
p16
aV+1
p17
aV+1
p18
aV+1
p19
aV+1
p20
aV+1
p21
aVenter+1
p22
aV+1
p23
aV+1
p24
aV+1
p25
aV+1
p26
aVyes
p27
aV+1
p28
aV+1
p29
aV0
p30
aV+1
p31
aV+1
p32
aV+1
p33
aV+1
p34
aV+1
p35
aV+1
p36
aV+1
p37
aV+1
p38
aV0
p39
aV+1
p40
aV+1
p41
aV0
p42
aV+1
p43
aV0
p44
aV0
p45
aV+1
p46
aV+1
p47
aVyes
p48
aV+1
p49
aVyes
p50
aVyes
p51
aV+1
p52
aV+1
p53
aV0
p54
aV2
p55
aV+1
p56
aV+1
p57
aV+1
p58
aV+1
p59
aV+1
p60
aV+1
p61
aV+1
p62
aVyes
p63
aV+1
p64
aV+1
p65
aVno
p66
aV+1
p67
aVyes
p68
aVno
p69
aVyes
p70
aV+1
p71
aV+1
p72
aV+1
p73
aV+1
p74
aV+1
p75
aV+1
p76
aV+1
p77
aV+1
p78
aV+1
p79
aV0
p80
aV+1
p81
aV+1
p82
aV+1
p83
aV+1
p84
asS"[('R', -1.0, u'-1', u'-1')]"
p85
(lp86
V-1
p87
aV-1
p88
aV-1
p89
aV-1
p90
asS"[('R.0', 1.0, u'1', u'1')]"
p91
(lp92
V1
p93
aV1
p94
aV1
p95
aV1
p96
aV1
p97
aV1
p98
aV1
p99
aV1
p100
aV1
p101
aV1
p102
aV1
p103
aV1
p104
aV1
p105
aV1
p106
aV1
p107
aV1
p108
aV1
p109
aV1
p110
aV1
p111
aV1
p112
aV1
p113
aV1
p114
aV1
p115
aV1
p116
aV1
p117
aV1
p118
aV1
p119
aV1
p120
aV1
p121
aV1
p122
aV1
p123
aV1
p124
aV1
p125
aV1
p126
aV1
p127
aV1
p128
aV1
p129
aV1
p130
aV1
p131
aV1
p132
aV1
p133
aV1
p134
aV1
p135
aV1
p136
aV1
p137
aV1
p138
aV1
p139
aV1
p140
aV1
p141
aV1
p142
aV1
p143
aV1
p144
aV1
p145
aV1
p146
aV1
p147
aV1
p148
aV1
p149
aV1
p150
aV1
p151
aV1
p152
aV1
p153
aV1
p154
aV1
p155
aV1
p156
aV1
p157
aV1
p158
aV1
p159
aV1
p160
aV1
p161
aV1
p162
aV1
p163
aV1
p164
aV1
p165
assV3
p166
g2
(g3
tp167
Rp168
g6
(lp169
V100\u2217(1000/n)\u2217(1\u22121000/n)
p170
aV100(1000/n)(1\u22121000/n)
p171
aV100\u2217(1000/n)\u2217(1\u22121000/n)
p172
aV100*(1000/n)\u2217(1\u22121000/n)
p173
aV100
p174
aV10
p175
aV100\u2217(1000/n)\u2217(1\u22121000/n)
p176
aV100*(1000/n)\u2217(1\u22121000/n)
p177
aV100*(1000/n)*(1\u22121000/n)
p178
aV100*(1000/n)*(1-1000/n-
p179
aV4
p180
aVyes
p181
aVenter+1
p182
aVyes
p183
aV0
p184
aVyes
p185
aV2
p186
aVyes
p187
aVno 
p188
aVyes
p189
asS"[('R', 1.0, u'1', u'1')]"
p190
(lp191
V-1
p192
aV-1
p193
aV-1
p194
aV-1
p195
aV-1
p196
aV-1
p197
aV-1
p198
aV-1
p199
aV-1
p200
aV-1
p201
aV-1
p202
aV-1
p203
aV-1
p204
aV-1
p205
aV-1
p206
aV-1
p207
aV-1
p208
aV-1
p209
aV-1
p210
aV-1
p211
aV-1
p212
aV-1
p213
aV-1
p214
aV-1
p215
aV-1
p216
aV-1
p217
aV-1
p218
aV-1
p219
aV-1
p220
aV-1
p221
aV-1
p222
aV-1
p223
aV-1
p224
aV-1
p225
aV-1
p226
aV-1
p227
aV-1
p228
aV-1
p229
aV-1
p230
aV-1
p231
aV-1
p232
aV-1
p233
aV-1
p234
aV-1
p235
aV-1
p236
aV-1
p237
aV-1
p238
aV-1
p239
aV-1
p240
aV-1
p241
aV-1
p242
aV-1
p243
aV-1
p244
assV2
p245
g2
(g3
tp246
Rp247
g6
(lp248
V100
p249
aV1000
p250
aV100
p251
aV100000
p252
aV100
p253
aV100\u22171000/n
p254
aV4
p255
aVno
p256
aV+1
p257
aV+1
p258
aV+1
p259
aV+1
p260
aV+1
p261
aV+1
p262
aVenter+1
p263
aV+1
p264
aV+1
p265
aVyes
p266
aV+1
p267
aV+1
p268
aV+1
p269
aV+1
p270
aV+1
p271
aV+1
p272
aV+1
p273
aV+1
p274
aV+1
p275
aV+1
p276
aV+1
p277
aV+1
p278
aV+1
p279
aV+1
p280
aV+1
p281
aV+1
p282
aV+1
p283
aV+1
p284
aV+1
p285
aV0
p286
aV+1
p287
aV+1
p288
aV+1
p289
aVyes
p290
aV+1
p291
aV+1
p292
aVyes
p293
aVno
p294
aV+1
p295
aV0
p296
aV2
p297
aV+1
p298
aV+1
p299
aV+1
p300
aV+1
p301
aV+1
p302
aV+1
p303
aV+1
p304
aV+1
p305
aV+1
p306
aVno
p307
aV+1
p308
aVyes
p309
aV+1
p310
aV+1
p311
aV+1
p312
aV+1
p313
aVyes
p314
aVno
p315
aV+1
p316
aV+1
p317
aV+1
p318
aV+1
p319
aV+1
p320
aV+1
p321
aV+1
p322
aV+1
p323
aV+1
p324
aV+1
p325
aV+1
p326
aV+1
p327
asS"[('R', -1.0, u'-1', u'-1')]"
p328
(lp329
V-1
p330
aV-1
p331
asS"[('R.0', 1.0, u'1', u'1')]"
p332
(lp333
V1
p334
aV1
p335
aV1
p336
aV1
p337
aV1
p338
aV1
p339
aV1
p340
aV1
p341
aV1
p342
aV1
p343
aV1
p344
aV1
p345
aV1
p346
aV1
p347
aV1
p348
aV1
p349
aV1
p350
aV1
p351
aV1
p352
aV1
p353
aV1
p354
aV1
p355
aV1
p356
aV1
p357
aV1
p358
aV1
p359
aV1
p360
aV1
p361
aV1
p362
aV1
p363
aV1
p364
aV1
p365
aV1
p366
aV1
p367
aV1
p368
aV1
p369
aV1
p370
aV1
p371
aV1
p372
aV1
p373
aV1
p374
aV1
p375
aV1
p376
aV1
p377
aV1
p378
aV1
p379
aV1
p380
aV1
p381
aV1
p382
aV1
p383
aV1
p384
aV1
p385
aV1
p386
aV1
p387
aV1
p388
aV1
p389
aV1
p390
aV1
p391
aV1
p392
aV1
p393
aV1
p394
aV1
p395
aV1
p396
aV1
p397
aV1
p398
aV1
p399
aV1
p400
aV1
p401
aV1
p402
aV1
p403
aV1
p404
aV1
p405
aV1
p406
aV1
p407
aV1
p408
aV1
p409
aV1
p410
aV1
p411
aV1
p412
aV1
p413
aV1
p414
aV1
p415
aV1
p416
aV1
p417
aV1
p418
aV1
p419
aV1
p420
aV1
p421
aV1
p422
aV1
p423
aV1
p424
aV1
p425
aV1
p426
aV1
p427
aV1
p428
aV1
p429
assV5
p430
g2
(g3
tp431
Rp432
g6
(lp433
V1.96*sqrt(100\u2217(1000/n)\u2217(1\u22121000/n))
p434
aV1.96*sqrt(100*(1000/n)*(1\u22121000/n))
p435
aV4
p436
aVyes
p437
aVenter+1
p438
aVyes
p439
aVyes
p440
aVno
p441
aVyes
p442
aV0
p443
aV0
p444
aV2
p445
aVyes
p446
aVyes
p447
aVno
p448
aVno
p449
aV+!
p450
asS"[('R', 1.0, u'1', u'1')]"
p451
(lp452
V-1
p453
aV-1
p454
aV-1
p455
aV-1
p456
aV-1
p457
aV-1
p458
aV-1
p459
aV-1
p460
aV-1
p461
aV-1
p462
aV-1
p463
aV-1
p464
aV-1
p465
aV-1
p466
aV-1
p467
aV-1
p468
aV-1
p469
aV-1
p470
aV-1
p471
aV-1
p472
aV-1
p473
aV-1
p474
aV-1
p475
aV-1
p476
aV-1
p477
aV-1
p478
aV-1
p479
aV-1
p480
aV-1
p481
aV-1
p482
aV-1
p483
aV-1
p484
aV-1
p485
aV-1
p486
aV-1
p487
aV-1
p488
aV-1
p489
aV-1
p490
aV-1
p491
aV-1
p492
aV-1
p493
aV-1
p494
aV-1
p495
aV-1
p496
aV-1
p497
aV-1
p498
aV-1
p499
aV-1
p500
aV-1
p501
aV-1
p502
aV-1
p503
aV-1
p504
assV4
p505
g2
(g3
tp506
Rp507
g6
(lp508
V1\u22122\u2217Q(1.96)
p509
aV1\u22122*Q(1.96)
p510
aV1-2*Q(1.96
p511
aV95%
p512
aV1\u22122\u2217Q(1.96)
p513
aV1\u22122*Q(1.96)
p514
aV4
p515
aVyes
p516
aVenter+1
p517
aVyes
p518
aVyes
p519
aVyes
p520
aVyes
p521
aV2
p522
aVno
p523
aVno
p524
aVyes
p525
aV+
p526
asS"[('R', 1.0, u'1', u'1')]"
p527
(lp528
V-1
p529
aV-1
p530
aV-1
p531
aV-1
p532
aV-1
p533
aV-1
p534
aV-1
p535
aV-1
p536
aV-1
p537
aV-1
p538
aV-1
p539
aV-1
p540
aV-1
p541
aV-1
p542
aV-1
p543
aV-1
p544
aV-1
p545
aV-1
p546
aV-1
p547
aV-1
p548
aV-1
p549
aV-1
p550
aV-1
p551
aV-1
p552
aV-1
p553
aV-1
p554
aV-1
p555
aV-1
p556
aV-1
p557
aV-1
p558
aV-1
p559
aV-1
p560
aV-1
p561
aV-1
p562
aV-1
p563
aV-1
p564
aV-1
p565
aV-1
p566
aV-1
p567
aV-1
p568
aV-1
p569
aV-1
p570
aV-1
p571
aV-1
p572
aV-1
p573
aV-1
p574
aV-1
p575
aV-1
p576
ass.