(dp0
V1
p1
ccollections
defaultdict
p2
(c__builtin__
list
p3
tp4
Rp5
S'Digits'
p6
(lp7
(V4^2
p8
V4
p9
tp10
a(g8
V8
p11
tp12
a(V4^2
p13
V56
p14
tp15
a(V4^2
p16
V8
p17
tp18
a(V4^2
p19
V28
p20
tp21
a(g19
V29
p22
tp23
a(V4^2
p24
V56
p25
tp26
a(V4^2
p27
V4
p28
tp29
a(g27
V340
p30
tp31
a(g27
V28
p32
tp33
a(V4^2
p34
V32
p35
tp36
a(V4^2
p37
V8
p38
tp39
a(g37
V20
p40
tp41
a(V4^2
p42
V8
p43
tp44
a(V4^2
p45
V1
p46
tp47
a(V4^2
p48
V8
p49
tp50
a(V4^2
p51
V8
p52
tp53
a(V4^2
p54
V46
p55
tp56
a(g54
V8
p57
tp58
a(g54
V2
p59
tp60
a(g54
V1
p61
tp62
a(g54
V0
p63
tp64
a(g54
V3
p65
tp66
a(g54
V4
p67
tp68
a(g54
V5
p69
tp70
a(g54
V6
p71
tp72
a(g54
V7
p73
tp74
a(g54
V8
p75
tp76
a(g54
V1
p77
tp78
a(g54
V2
p79
tp80
a(g54
V3
p81
tp82
a(g54
V4
p83
tp84
a(g54
V5
p85
tp86
a(g54
V6
p87
tp88
a(g54
V7
p89
tp90
a(g54
V8
p91
tp92
a(g54
V9
p93
tp94
a(g54
V10
p95
tp96
a(V4^2
p97
V32
p98
tp99
a(V4^2
p100
V8
p101
tp102
a(V4^2
p103
V4
p104
tp105
a(g103
V8
p106
tp107
a(V4^2
p108
V2
p109
tp110
a(g108
V1
p111
tp112
a(g108
V2
p113
tp114
a(V4^2
p115
V4
p116
tp117
a(V4^2
p118
V1081
p119
tp120
a(g118
V314457495
p121
tp122
a(g118
V98071494144624000
p123
tp124
a(g118
V1081
p125
tp126
a(g118
V314457495
p127
tp128
a(g118
V47
p129
tp130
a(g118
V46
p131
tp132
a(g118
V1175
p133
tp134
a(g118
V4
p135
tp136
a(g118
V178365
p137
tp138
a(g118
V2162
p139
tp140
a(g118
V2162
p141
tp142
a(V4^2
p143
V32
p144
tp145
a(V4^2
p146
V32
p147
tp148
a(V4^2
p149
V28
p150
tp151
a(g149
V132
p152
tp153
a(g149
V156
p154
tp155
a(g149
V340
p156
tp157
a(V4^2
p158
V1
p159
tp160
a(V4^2
p161
V2
p162
tp163
a(g161
V4
p164
tp165
a(V4^2
p166
V2
p167
tp168
a(g166
V1
p169
tp170
a(V4^2
p171
V4
p172
tp173
a(V4^2
p174
V8
p175
tp176
a(g166
V8
p177
tp178
a(V4^2
p179
V2
p180
tp181
a(g179
V7
p182
tp183
a(V4^2
p184
V4
p185
tp186
a(V4^2
p187
V8
p188
tp189
a(V4^2
p190
V178
p191
tp192
a(g187
V32
p193
tp194
a(V4^2
p195
V8
p196
tp197
a(V4^2
p198
V32
p199
tp200
a(V4^2
p201
V12
p202
tp203
a(V4^2
p204
V8
p205
tp206
a(V4^2
p207
V32
p208
tp209
a(V4^2
p210
V42
p211
tp212
a(g210
V32
p213
tp214
a(V4^2
p215
V1
p216
tp217
a(V4^2
p218
V1
p219
tp220
a(V4^2
p221
V1065021
p222
tp223
a(V4^2
p224
V663
p225
tp226
a(g224
V616
p227
tp228
a(g224
V340
p229
tp230
a(V4^2
p231
V32
p232
tp233
a(g224
V616
p234
tp235
a(g224
V976
p236
tp237
a(g224
V585
p238
tp239
a(V4^2
p240
V178
p241
tp242
a(V4^2
p243
V8
p244
tp245
a(g243
V56
p246
tp247
a(V4^2
p248
V8
p249
tp250
a(g240
V178
p251
tp252
a(V4^2
p253
V8
p254
tp255
a(g253
V184
p256
tp257
a(g253
V178
p258
tp259
a(g253
V340
p260
tp261
a(V4^2
p262
V8
p263
tp264
a(g262
V56
p265
tp266
a(V4^2
p267
V8
p268
tp269
a(V4^2
p270
V340
p271
tp272
a(g270
V178
p273
tp274
a(g270
V616
p275
tp276
a(g270
V340
p277
tp278
a(g270
V976
p279
tp280
a(g270
V585
p281
tp282
a(g270
V616
p283
tp284
a(g270
V1042
p285
tp286
a(g270
V1050
p287
tp288
a(V4^2
p289
V2
p290
tp291
a(g270
V1073
p292
tp293
a(V4^2
p294
V4
p295
tp296
a(g270
V741
p297
tp298
a(V4^2
p299
V8
p300
tp301
a(g270
V8
p302
tp303
a(g270
V28
p304
tp305
a(g270
V1073
p306
tp307
a(g270
V1042
p308
tp309
a(V4^2
p310
V32
p311
tp312
asS"['R.1']"
p313
(lp314
(V4^2
p315
VC(8,2)
p316
(lp317
(S'R.1'
p318
F2.0
V2
p319
g319
tp320
aVj5phung
p321
(lp322
V2015-10-16 18:10:25
p323
tp324
a(g315
VC(8,2)*C(47,2)*2
p325
(lp326
(S'R.1'
p327
F2.0
g319
g319
tp328
aVj5phung
p329
g322
V2015-10-16 18:32:08
p330
tp331
a(V4^2
p332
VC(8,2)
p333
(lp334
(S'R.1'
p335
F2.0
g319
g319
tp336
aVbeyounge
p337
(lp338
V2015-10-17 06:00:06
p339
tp340
a(V4^2
p341
VC(45,2)
p342
(lp343
(S'R.1'
p344
F2.0
g319
g319
tp345
aVglcohen
p346
(lp347
V2015-10-18 01:08:14
p348
tp349
a(g341
VC(52-5,2)
p350
(lp351
(S'R.1'
p352
F2.0
g319
g319
tp353
aVglcohen
p354
g347
V2015-10-18 01:08:49
p355
tp356
a(V4^2
p357
VC(8,2)
p358
(lp359
(S'R.1'
p360
F2.0
g319
g319
tp361
aVt1tran
p362
(lp363
V2015-10-18 03:53:39
p364
tp365
a(g357
VC(8,2)
p366
(lp367
(S'R.1'
p368
F2.0
g319
g319
tp369
aVt1tran
p370
g363
V2015-10-18 04:03:50
p371
tp372
a(g16
VC(2*4,2)
p373
(lp374
(S'R.1'
p375
F2.0
g319
g319
tp376
aVthwan
p377
(lp378
V2015-10-19 16:04:37
p379
tp380
a(g16
VC(8,2)
p381
(lp382
(S'R.1'
p383
F2.0
g319
g319
tp384
aVthwan
p385
g378
V2015-10-19 16:08:26
p386
tp387
a(V4^2
p388
V8*7*50*49*48*47*46/2!
p389
(lp390
(S'R.1'
p391
F2.0
g319
V2!
p392
tp393
aVjguanzho
p394
(lp395
V2015-10-19 22:43:02
p396
tp397
a(V4^2
p398
VC(8, 2)
p399
(lp400
(S'R.1'
p401
F2.0
g319
g319
tp402
aVggaddi
p403
(lp404
V2015-10-20 01:05:15
p405
tp406
a(V4^2
p407
VC(47, 2)
p408
(lp409
(S'R.1'
p410
F2.0
g319
g319
tp411
aVrwthomps
p412
(lp413
V2015-10-20 23:01:34
p414
tp415
a(g407
VC(8, 2)
p416
(lp417
(S'R.1'
p418
F2.0
g319
g319
tp419
aVrwthomps
p420
g413
V2015-10-20 23:03:21
p421
tp422
a(g37
VC(7,2)
p423
(lp424
(S'R.1'
p425
F2.0
g319
g319
tp426
aVjnatale
p427
(lp428
V2015-10-21 00:57:54
p429
tp430
a(V4^2
p431
VC(47,2)
p432
(lp433
(S'R.1'
p434
F2.0
g319
g319
tp435
aVmitopete
p436
(lp437
V2015-10-21 02:06:38
p438
tp439
a(V4^2
p440
VC(8,2)
p441
(lp442
(S'R.1'
p443
F2.0
g319
g319
tp444
aVb3hwang
p445
(lp446
V2015-10-21 02:17:53
p447
tp448
a(V4^2
p449
VC(47,2)
p450
(lp451
(S'R.1'
p452
F2.0
g319
g319
tp453
aVklala
p454
(lp455
V2015-10-21 03:48:33
p456
tp457
a(V4^2
p458
VC(15,2)
p459
(lp460
(S'R.1'
p461
F2.0
g319
g319
tp462
aVdkurli
p463
(lp464
V2015-10-21 04:05:01
p465
tp466
a(V4^2
p467
VC(47,2)
p468
(lp469
(S'R.1'
p470
F2.0
g319
g319
tp471
aVkrau
p472
(lp473
V2015-10-21 04:05:09
p474
tp475
a(g458
VC(47,2)
p476
(lp477
(S'R.1'
p478
F2.0
g319
g319
tp479
aVdkurli
p480
g464
V2015-10-21 04:05:22
p481
tp482
a(g115
VC(8,2)
p483
(lp484
(S'R.1'
p485
F2.0
g319
g319
tp486
aVjap009
p487
(lp488
V2015-10-21 07:37:48
p489
tp490
a(V4^2
p491
VC(47,2)
p492
(lp493
(S'R.1'
p494
F2.0
g319
g319
tp495
aVlywong
p496
(lp497
V2015-10-21 07:49:46
p498
tp499
a(g51
VC(47,2)
p500
(lp501
(S'R.1'
p502
F2.0
g319
g319
tp503
aVyos017
p504
(lp505
V2015-10-21 08:10:16
p506
tp507
a(g51
VC(47,2)
p508
(lp509
(S'R.1'
p510
F2.0
g319
g319
tp511
aVyos017
p512
g505
V2015-10-21 08:11:46
p513
tp514
a(g54
VC(47,2)
p515
(lp516
(S'R.1'
p517
F2.0
g319
g319
tp518
aVmtrafeca
p519
(lp520
V2015-10-21 08:31:08
p521
tp522
a(V4^2
p523
VC(47,4)*2
p524
(lp525
(S'R.1'
p526
F2.0
g319
g319
tp527
aVsghouse
p528
(lp529
V2015-10-21 17:37:55
p530
tp531
a(V4^2
p532
VC(4^2, 2)
p533
(lp534
(S'R.1'
p535
F2.0
g319
g319
tp536
aVttimmons
p537
(lp538
V2015-10-21 18:24:31
p539
tp540
a(V4^2
p541
VC(47,2)
p542
(lp543
(S'R.1'
p544
F2.0
g319
g319
tp545
aVvsamant
p546
(lp547
V2015-10-21 18:58:43
p548
tp549
a(g103
VC(47,2)
p550
(lp551
(S'R.1'
p552
F2.0
g319
g319
tp553
aVsayao
p554
(lp555
V2015-10-21 19:17:08
p556
tp557
a(V4^2
p558
VC(52-5,2)
p559
(lp560
(S'R.1'
p561
F2.0
g319
g319
tp562
aVmbl003
p563
(lp564
V2015-10-21 19:29:07
p565
tp566
a(V4^2
p567
VC(47,2)
p568
(lp569
(S'R.1'
p570
F2.0
g319
g319
tp571
aVachava
p572
(lp573
V2015-10-21 22:10:26
p574
tp575
a(V4^2
p576
VC(52-5,2)
p577
(lp578
(S'R.1'
p579
F2.0
g319
g319
tp580
aVtpmach
p581
(lp582
V2015-10-21 22:18:17
p583
tp584
a(V4^2
p585
VC(8,2)
p586
(lp587
(S'R.1'
p588
F2.0
g319
g319
tp589
aVhachrist
p590
(lp591
V2015-10-21 22:37:07
p592
tp593
a(g118
V4*47*2
p594
(lp595
(S'R.1'
p596
F2.0
g319
g319
tp597
aVc1wei
p598
(lp599
V2015-10-21 22:38:50
p600
tp601
a(g146
V4*4*2
p602
(lp603
(S'R.1'
p604
F2.0
g319
g319
tp605
aVctgraves
p606
(lp607
V2015-10-21 23:15:02
p608
tp609
a(g201
VC(47,2)
p610
(lp611
(S'R.1'
p612
F2.0
g319
g319
tp613
aVjjm019
p614
(lp615
V2015-10-21 23:19:37
p616
tp617
a(g146
VC(16,2)
p618
(lp619
(S'R.1'
p620
F2.0
g319
g319
tp621
aVctgraves
p622
g607
V2015-10-21 23:46:02
p623
tp624
a(g523
VC(43,2)
p625
(lp626
(S'R.1'
p627
F2.0
g319
g319
tp628
aVsghouse
p629
g529
V2015-10-22 00:01:23
p630
tp631
a(g523
VC(47,2)
p632
(lp633
(S'R.1'
p634
F2.0
g319
g319
tp635
aVsghouse
p636
g529
V2015-10-22 00:03:08
p637
tp638
a(g523
VC(47,8)*2
p639
(lp640
(S'R.1'
p641
F2.0
g319
g319
tp642
aVsghouse
p643
g529
V2015-10-22 00:04:56
p644
tp645
a(g523
VC(47,4)*2
p646
(lp647
(S'R.1'
p648
F2.0
g319
g319
tp649
aVsghouse
p650
g529
V2015-10-22 00:13:28
p651
tp652
a(V4^2
p653
VC(47,2)
p654
(lp655
(S'R.1'
p656
F2.0
g319
g319
tp657
aVajvanega
p658
(lp659
V2015-10-22 01:19:36
p660
tp661
a(V4^2
p662
VC(47,2)
p663
(lp664
(S'R.1'
p665
F2.0
g319
g319
tp666
aVcstringh
p667
(lp668
V2015-10-22 01:36:36
p669
tp670
a(V4^2
p671
VC(47, 2)
p672
(lp673
(S'R.1'
p674
F2.0
g319
g319
tp675
aVv4sharma
p676
(lp677
V2015-10-22 01:55:17
p678
tp679
a(g171
VC(47,4)*2
p680
(lp681
(S'R.1'
p682
F2.0
g319
g319
tp683
aVnnh002
p684
(lp685
V2015-10-22 03:30:01
p686
tp687
a(g174
VC(47,2)
p688
(lp689
(S'R.1'
p690
F2.0
g319
g319
tp691
aVk4ma
p692
(lp693
V2015-10-22 03:33:07
p694
tp695
a(V4^2
p696
VC(8,2)
p697
(lp698
(S'R.1'
p699
F2.0
g319
g319
tp700
aVhaw081
p701
(lp702
V2015-10-22 04:16:10
p703
tp704
a(g696
VC(52-5,2)
p705
(lp706
(S'R.1'
p707
F2.0
g319
g319
tp708
aVhaw081
p709
g702
V2015-10-22 04:18:42
p710
tp711
a(g696
VC(52-5,2)
p712
(lp713
(S'R.1'
p714
F2.0
g319
g319
tp715
aVhaw081
p716
g702
V2015-10-22 05:28:12
p717
tp718
a(g696
VC(47,2)
p719
(lp720
(S'R.1'
p721
F2.0
g319
g319
tp722
aVhaw081
p723
g702
V2015-10-22 05:56:28
p724
tp725
a(g696
VC(16,2)
p726
(lp727
(S'R.1'
p728
F2.0
g319
g319
tp729
aVhaw081
p730
g702
V2015-10-22 05:57:10
p731
tp732
a(g195
VC(47,2)
p733
(lp734
(S'R.1'
p735
F2.0
g319
g319
tp736
aVvsosnovs
p737
(lp738
V2015-10-22 06:40:04
p739
tp740
a(g195
VC(8,2)
p741
(lp742
(S'R.1'
p743
F2.0
g319
g319
tp744
aVvsosnovs
p745
g738
V2015-10-22 06:42:26
p746
tp747
a(g201
VC(52-5,2)
p748
(lp749
(S'R.1'
p750
F2.0
g319
g319
tp751
aVjjm019
p752
g615
V2015-10-22 08:13:00
p753
tp754
a(g240
VC(47,2)
p755
(lp756
(S'R.1'
p757
F2.0
g319
g319
tp758
aVppanourg
p759
(lp760
V2015-10-22 11:02:21
p761
tp762
a(V4^2
p763
VC(47,2)
p764
(lp765
(S'R.1'
p766
F2.0
g319
g319
tp767
aVmjethani
p768
(lp769
V2015-10-22 14:41:50
p770
tp771
a(V4^2
p772
VC(47,2)
p773
(lp774
(S'R.1'
p775
F2.0
g319
g319
tp776
aVdcrume
p777
(lp778
V2015-10-22 18:06:19
p779
tp780
a(g772
VC(45,2)
p781
(lp782
(S'R.1'
p783
F2.0
g319
g319
tp784
aVdcrume
p785
g778
V2015-10-22 18:06:57
p786
tp787
a(V4^2
p788
VC(8,2)
p789
(lp790
(S'R.1'
p791
F2.0
g319
g319
tp792
aVl5han
p793
(lp794
V2015-10-22 18:29:03
p795
tp796
a(V4^2
p797
VC(47,2)
p798
(lp799
(S'R.1'
p800
F2.0
g319
g319
tp801
aVsachadal
p802
(lp803
V2015-10-22 19:07:33
p804
tp805
a(g231
VC(47,2)
p806
(lp807
(S'R.1'
p808
F2.0
g319
g319
tp809
aVmuy002
p810
(lp811
V2015-10-22 20:50:36
p812
tp813
a(V4^2
p814
VC(8, 2)
p815
(lp816
(S'R.1'
p817
F2.0
g319
g319
tp818
aVv3doan
p819
(lp820
V2015-10-22 20:51:43
p821
tp822
a(g231
VC(47,2)
p823
(lp824
(S'R.1'
p825
F2.0
g319
g319
tp826
aVmuy002
p827
g811
V2015-10-22 21:09:36
p828
tp829
a(V4^2
p830
VC(8,2)
p831
(lp832
(S'R.1'
p833
F2.0
g319
g319
tp834
aVcagatep
p835
(lp836
V2015-10-22 21:14:27
p837
tp838
a(g830
V(C(1, 1) + C(4, 1)) * 2
p839
(lp840
(S'R.1'
p841
F2.0
g319
g319
tp842
aVcagatep
p843
g836
V2015-10-22 21:17:22
p844
tp845
a(g248
VC(8,2)
p846
(lp847
(S'R.1'
p848
F2.0
g319
g319
tp849
aVyhhan
p850
(lp851
V2015-10-22 21:36:15
p852
tp853
a(g248
V8*4*2
p854
(lp855
(S'R.1'
p856
F2.0
g319
g319
tp857
aVyhhan
p858
g851
V2015-10-22 21:37:04
p859
tp860
a(g248
V4*4*2
p861
(lp862
(S'R.1'
p863
F2.0
g319
g319
tp864
aVyhhan
p865
g851
V2015-10-22 21:37:13
p866
tp867
a(g248
VC(47,2)
p868
(lp869
(S'R.1'
p870
F2.0
g319
g319
tp871
aVyhhan
p872
g851
V2015-10-22 21:37:48
p873
tp874
a(g248
VC(4,2)*2
p875
(lp876
(S'R.1'
p877
F2.0
g319
g319
tp878
aVyhhan
p879
g851
V2015-10-22 21:39:36
p880
tp881
a(V4^2
p882
VC(47,2)
p883
(lp884
(S'R.1'
p885
F2.0
g319
g319
tp886
aVkosung
p887
(lp888
V2015-10-22 21:41:07
p889
tp890
a(g243
VC(47,2)
p891
(lp892
(S'R.1'
p893
F2.0
g319
g319
tp894
aVtcn013
p895
(lp896
V2015-10-22 21:56:09
p897
tp898
a(g243
VC(8,2)
p899
(lp900
(S'R.1'
p901
F2.0
g319
g319
tp902
aVtcn013
p903
g896
V2015-10-22 21:59:43
p904
tp905
a(g253
V184-2
p906
(lp907
(S'R.1'
p908
F2.0
g319
g319
tp909
aVrohan
p910
(lp911
V2015-10-22 22:40:10
p912
tp913
a(V4^2
p914
VC(5,2)
p915
(lp916
(S'R.1'
p917
F2.0
g319
g319
tp918
aVatorr
p919
(lp920
V2015-10-22 22:48:47
p921
tp922
a(g267
VC(16,2)
p923
(lp924
(S'R.1'
p925
F2.0
g319
g319
tp926
aVtdurrer
p927
(lp928
V2015-10-22 23:29:45
p929
tp930
a(g310
VC(8,2)
p931
(lp932
(S'R.1'
p933
F2.0
g319
g319
tp934
aVdando
p935
(lp936
V2015-10-23 00:07:55
p937
tp938
a(g310
VC(47,2)
p939
(lp940
(S'R.1'
p941
F2.0
g319
g319
tp942
aVdando
p943
g936
V2015-10-23 00:20:30
p944
tp945
a(g294
VC(8, 2)
p946
(lp947
(S'R.1'
p948
F2.0
g319
g319
tp949
aVdgunawan
p950
(lp951
V2015-10-23 00:28:02
p952
tp953
a(g294
VC(8, 2) *2
p954
(lp955
(S'R.1'
p956
F2.0
g319
g319
tp957
aVdgunawan
p958
g951
V2015-10-23 00:28:45
p959
tp960
asS"['R.0', 'R.1']"
p961
(lp962
(g458
VC(4,1)*2
p963
(lp964
(S'R.0'
p965
F4.0
V4
p966
VC(4,1)
p967
tp968
a(S'R.1'
p969
F2.0
g319
g319
tp970
aVdkurli
p971
g464
V2015-10-21 04:06:33
p972
tp973
a(g195
VC(4,2)
p974
(lp975
(S'R.0'
p976
F4.0
g966
g966
tp977
a(S'R.1'
p978
F2.0
g319
g319
tp979
aVvsosnovs
p980
g738
V2015-10-22 06:42:35
p981
tp982
a(g830
VC(4,1) * 2
p983
(lp984
(S'R.0'
p985
F4.0
g966
VC(4,1)
p986
tp987
a(S'R.1'
p988
F2.0
g319
g319
tp989
aVcagatep
p990
g836
V2015-10-22 21:16:33
p991
tp992
a(g248
VC(4,2)
p993
(lp994
(S'R.0'
p995
F4.0
g966
g966
tp996
a(S'R.1'
p997
F2.0
g319
g319
tp998
aVyhhan
p999
g851
V2015-10-22 21:39:14
p1000
tp1001
a(g248
VC(4,1)*2
p1002
(lp1003
(S'R.0'
p1004
F4.0
g966
VC(4,1)
p1005
tp1006
a(S'R.1'
p1007
F2.0
g319
g319
tp1008
aVyhhan
p1009
g851
V2015-10-22 21:39:42
p1010
tp1011
asS"['R.0']"
p1012
(lp1013
(V4^2
p1014
V4+4
p1015
(lp1016
(S'R.0'
p1017
F4.0
g966
g966
tp1018
aVkthui
p1019
(lp1020
V2015-10-18 08:29:31
p1021
tp1022
a(V4^2
p1023
V4*47
p1024
(lp1025
(S'R.0'
p1026
F4.0
g966
g966
tp1027
aVdjk006
p1028
(lp1029
V2015-10-21 18:00:01
p1030
tp1031
a(g1023
V4*46
p1032
(lp1033
(S'R.0'
p1034
F4.0
g966
g966
tp1035
aVdjk006
p1036
g1029
V2015-10-21 18:00:13
p1037
tp1038
a(g558
VC(4,1)+C(4,1)
p1039
(lp1040
(S'R.0'
p1041
F4.0
g966
VC(4,1)
p1042
tp1043
aVmbl003
p1044
g564
V2015-10-21 19:30:55
p1045
tp1046
a(g576
V4C(52-5,2)
p1047
(lp1048
(S'R.0'
p1049
F4.0
g966
g966
tp1050
aVtpmach
p1051
g582
V2015-10-21 22:18:44
p1052
tp1053
a(g118
V4*47
p1054
(lp1055
(S'R.0'
p1056
F4.0
g966
g966
tp1057
aVc1wei
p1058
g599
V2015-10-21 22:38:42
p1059
tp1060
a(V4^2
p1061
V4+C(8,2)
p1062
(lp1063
(S'R.0'
p1064
F4.0
g966
g966
tp1065
aVeaherman
p1066
(lp1067
V2015-10-22 14:58:22
p1068
tp1069
a(g830
VC(4, 1) + C(4, 1)
p1070
(lp1071
(S'R.0'
p1072
F4.0
g966
VC(4, 1)
p1073
tp1074
aVcagatep
p1075
g836
V2015-10-22 21:17:04
p1076
tp1077
asS'Wrong_Sign'
p1078
(lp1079
(g16
VC(52-5,2)-(C(52-5-2,1)*C(52-5-2,1))
p1080
tp1081
a(V4^2
p1082
VC(47,4)-C(39,8)
p1083
tp1084
a(g240
V((7*4^7)-C(47,7))*4^2
p1085
tp1086
a(g294
VC((52-5), 2) - C((52-12-5), 3)
p1087
tp1088
asS'Fraction'
p1089
(lp1090
(V4^2
p1091
V(4*4)/C(52,7)
p1092
tp1093
a(g42
V1/(47!/(2*45!))
p1094
tp1095
a(V4^2
p1096
VC(52,5)+(16/(C(47,5)))
p1097
tp1098
a(V4^2
p1099
V4*8/C(52-5,2)
p1100
tp1101
a(g388
V47!/(8!*39!)
p1102
tp1103
a(g51
VC(47,2)/2!
p1104
tp1105
a(g1023
V(47!/(45!2!))-(35!/(33!2!))
p1106
tp1107
a(g108
V2 / (47*46)
p1108
tp1109
a(g772
V(4/47)(4/46) 
p1110
tp1111
a(g772
V[(47*46) - (43*42)]/(47*46)
p1112
tp1113
a(V4^2
p1114
V2/C(52-5,2)
p1115
tp1116
a(g1114
V1/C(52-5,2)
p1117
tp1118
a(g215
V1/C(47,2)
p1119
tp1120
a(g763
V2/(C(47,2))
p1121
tp1122
a(g763
V2/(C(45,2))
p1123
tp1124
a(g763
V3/(C(45,2))
p1125
tp1126
a(g763
V2/(C(47,2))
p1127
tp1128
a(g763
V8/(C(47,2))
p1129
tp1130
a(g763
V16/(C(47,2))
p1131
tp1132
a(g763
VC(32,2)/(C(47,2))
p1133
tp1134
a(g763
V16/(C(47,2)-16)
p1135
tp1136
a(g763
V(C(47,2))-(16/(C(47,2)-16))
p1137
tp1138
a(V4^2
p1139
V8/C(47,2)
p1140
tp1141
a(g1139
V16/C(47,2)
p1142
tp1143
a(g231
VC(4,1)/(52-5)
p1144
tp1145
a(g231
VC(4,1)/(52-5)
p1146
tp1147
assV3
p1148
g2
(g3
tp1149
Rp1150
g6
(lp1151
(VC(47,2)
p1152
V47
p1153
tp1154
a(g1152
V194
p1155
tp1156
a(VC(47,2)
p1157
V20
p1158
tp1159
a(VC(47,2)
p1160
V2162
p1161
tp1162
a(VC(47,2)
p1163
V4
p1164
tp1165
a(VC(47,2)
p1166
V2162
p1167
tp1168
a(VC(47,2)
p1169
V2
p1170
tp1171
a(g1169
V7
p1172
tp1173
a(VC(47,2)
p1174
V56
p1175
tp1176
a(VC(47,2)
p1177
V178
p1178
tp1179
a(VC(47,2)
p1180
V194
p1181
tp1182
asS"['R.0']"
p1183
(lp1184
(VC(47,2)
p1185
V47*46
p1186
(lp1187
(S'R.0'
p1188
F47.0
V47
p1189
V47
p1190
tp1191
aVacvuong
p1192
(lp1193
V2015-10-18 01:34:34
p1194
tp1195
a(g1152
V47*46
p1196
(lp1197
(S'R.0'
p1198
F47.0
V47
p1199
V47
p1200
tp1201
aVkquong
p1202
(lp1203
V2015-10-18 05:19:23
p1204
tp1205
a(VC(47,2)
p1206
VC(47,5)
p1207
(lp1208
(S'R.0'
p1209
F47.0
V47
p1210
V47
p1211
tp1212
aVw4shin
p1213
(lp1214
V2015-10-19 19:31:01
p1215
tp1216
a(VC(47,2)
p1217
V47*46
p1218
(lp1219
(S'R.0'
p1220
F47.0
V47
p1221
V47
p1222
tp1223
aVdpereira
p1224
(lp1225
V2015-10-19 20:27:30
p1226
tp1227
a(VC(47,2)
p1228
V47*46
p1229
(lp1230
(S'R.0'
p1231
F47.0
V47
p1232
V47
p1233
tp1234
aVachinn
p1235
(lp1236
V2015-10-19 22:29:37
p1237
tp1238
a(g1228
V47*46
p1239
(lp1240
(S'R.0'
p1241
F47.0
V47
p1242
V47
p1243
tp1244
aVachinn
p1245
g1236
V2015-10-19 23:38:03
p1246
tp1247
a(VC(47,2)
p1248
V47*46
p1249
(lp1250
(S'R.0'
p1251
F47.0
V47
p1252
V47
p1253
tp1254
aVabasu
p1255
(lp1256
V2015-10-20 23:47:52
p1257
tp1258
a(g1248
V47*46
p1259
(lp1260
(S'R.0'
p1261
F47.0
V47
p1262
V47
p1263
tp1264
aVabasu
p1265
g1256
V2015-10-20 23:50:26
p1266
tp1267
a(VC(47,2)
p1268
V47*46
p1269
(lp1270
(S'R.0'
p1271
F47.0
V47
p1272
V47
p1273
tp1274
aVjnatale
p1275
g428
V2015-10-21 02:08:41
p1276
tp1277
a(VC(47,2)
p1278
V47*46
p1279
(lp1280
(S'R.0'
p1281
F47.0
V47
p1282
V47
p1283
tp1284
aVdcgriffi
p1285
(lp1286
V2015-10-21 04:11:00
p1287
tp1288
a(VC(47,2)
p1289
V47*46
p1290
(lp1291
(S'R.0'
p1292
F47.0
V47
p1293
V47
p1294
tp1295
aVrsmurlo
p1296
(lp1297
V2015-10-21 18:00:56
p1298
tp1299
a(VC(47,2)
p1300
V47*46
p1301
(lp1302
(S'R.0'
p1303
F47.0
V47
p1304
V47
p1305
tp1306
aVdlt009
p1307
(lp1308
V2015-10-22 06:55:24
p1309
tp1310
a(VC(47,2)
p1311
V47*46
p1312
(lp1313
(S'R.0'
p1314
F47.0
V47
p1315
V47
p1316
tp1317
aVjhc010
p1318
(lp1319
V2015-10-22 08:30:12
p1320
tp1321
a(VC(47,2)
p1322
VC(47,5)
p1323
(lp1324
(S'R.0'
p1325
F47.0
V47
p1326
V47
p1327
tp1328
aVtcn013
p1329
g896
V2015-10-22 21:53:29
p1330
tp1331
a(VC(47,2)
p1332
V47*46
p1333
(lp1334
(S'R.0'
p1335
F47.0
V47
p1336
V47
p1337
tp1338
aVagarango
p1339
(lp1340
V2015-10-22 21:55:35
p1341
tp1342
a(VC(47,2)
p1343
V47*46
p1344
(lp1345
(S'R.0'
p1346
F47.0
V47
p1347
V47
p1348
tp1349
aVakg009
p1350
(lp1351
V2015-10-22 23:58:39
p1352
tp1353
asS"['R.1']"
p1354
(lp1355
(g1268
V47*46*2
p1356
(lp1357
(S'R.1'
p1358
F2.0
g319
g319
tp1359
aVjnatale
p1360
g428
V2015-10-21 02:10:11
p1361
tp1362
a(VC(47,2)
p1363
VC(48,2)
p1364
(lp1365
(S'R.1'
p1366
F2.0
g319
g319
tp1367
aVhah008
p1368
(lp1369
V2015-10-21 19:51:51
p1370
tp1371
a(g1174
VC(52,2)
p1372
(lp1373
(S'R.1'
p1374
F2.0
g319
g319
tp1375
aVctroncos
p1376
(lp1377
V2015-10-22 17:05:25
p1378
tp1379
a(g1174
VC(57,2)
p1380
(lp1381
(S'R.1'
p1382
F2.0
g319
g319
tp1383
aVctroncos
p1384
g1377
V2015-10-22 17:05:30
p1385
tp1386
a(VC(47,2)
p1387
VC(52-7,2)
p1388
(lp1389
(S'R.1'
p1390
F2.0
g319
g319
tp1391
aVjyc018
p1392
(lp1393
V2015-10-22 23:26:09
p1394
tp1395
asg1089
(lp1396
(VC(47,2)
p1397
V4*8/C(52-5,2)
p1398
tp1399
a(VC(47,2)
p1400
V(16+178)/(C(47,2))
p1401
tp1402
a(VC(47,2)
p1403
V32/C(47,2)
p1404
tp1405
a(VC(47,2)
p1406
V(C(52-5,2)-C(52-5-4,2)+4^2)/C(52-5,2)
p1407
tp1408
a(VC(47,2)
p1409
V16/(C(47,2)-C(43,2))
p1410
tp1411
asS'redirect'
p1412
(lp1413
(VC(47,2)
p1414
V5!
p1415
tp1416
a(VC(47,2)
p1417
VC(47,2)+5
p1418
tp1419
a(VC(47,2)
p1420
V52!/((52-5)!5!)
p1421
tp1422
a(g1206
VC(52,5)
p1423
tp1424
a(g1228
V46*45
p1425
tp1426
a(g1174
VC(52,12)
p1427
tp1428
assV2
p1429
g2
(g3
tp1430
Rp1431
g6
(lp1432
(VC(52-5,2)-C(52-5-4,2)
p1433
V4
p1434
tp1435
a(VC(52-5,2)-C(52-5-4,2)
p1436
V4
p1437
tp1438
a(g1436
V12
p1439
tp1440
a(g1436
V7
p1441
tp1442
a(g1436
V8
p1443
tp1444
a(g1436
V6
p1445
tp1446
a(VC(52-5,2)-C(52-5-4,2)
p1447
V12
p1448
tp1449
a(g1447
V12
p1450
tp1451
a(g1447
V16
p1452
tp1453
a(VC(52-5,2)-C(52-5-4,2)
p1454
V6
p1455
tp1456
a(VC(52-5,2)-C(52-5-4,2)
p1457
V4
p1458
tp1459
a(VC(52-5,2)-C(52-5-4,2)
p1460
V4
p1461
tp1462
a(g1460
V4
p1463
tp1464
a(VC(52-5,2)-C(52-5-4,2)
p1465
V184
p1466
tp1467
a(g1465
V188
p1468
tp1469
a(g1465
V180
p1470
tp1471
a(VC(52-5,2)-C(52-5-4,2)
p1472
V4
p1473
tp1474
a(g1472
V12
p1475
tp1476
a(g1472
V8
p1477
tp1478
a(g1472
V6
p1479
tp1480
a(g1472
V1
p1481
tp1482
a(g1472
V2
p1483
tp1484
a(g1472
V3
p1485
tp1486
a(g1472
V5
p1487
tp1488
a(g1472
V7
p1489
tp1490
a(g1472
V9
p1491
tp1492
a(g1472
V10
p1493
tp1494
a(g1472
V11
p1495
tp1496
a(g1472
V12
p1497
tp1498
a(g1472
V13
p1499
tp1500
a(g1472
V14
p1501
tp1502
a(g1472
V15
p1503
tp1504
a(g1472
V17
p1505
tp1506
a(g1472
V18
p1507
tp1508
a(g1472
V19
p1509
tp1510
a(g1472
V20
p1511
tp1512
a(g1472
V8
p1513
tp1514
a(g1472
V4
p1515
tp1516
a(g1472
V8
p1517
tp1518
a(g1472
V32
p1519
tp1520
a(g1472
V24
p1521
tp1522
a(VC(52-5,2)-C(52-5-4,2)
p1523
V8
p1524
tp1525
a(g1523
V6
p1526
tp1527
a(g1523
V172
p1528
tp1529
a(g1523
V112
p1530
tp1531
a(VC(52-5,2)-C(52-5-4,2)
p1532
V184
p1533
tp1534
a(VC(52-5,2)-C(52-5-4,2)
p1535
V36
p1536
tp1537
a(g1535
V32
p1538
tp1539
a(g1535
V36
p1540
tp1541
a(g1535
V32
p1542
tp1543
a(g1535
V5
p1544
tp1545
a(g1535
V152
p1546
tp1547
a(g1535
V216
p1548
tp1549
a(g1535
V208
p1550
tp1551
a(g1535
V52
p1552
tp1553
a(g1535
V54
p1554
tp1555
a(VC(52-5,2)-C(52-5-4,2)
p1556
V4
p1557
tp1558
a(VC(52-5,2)-C(52-5-4,2)
p1559
V12
p1560
tp1561
a(g1535
V216
p1562
tp1563
a(VC(52-5,2)-C(52-5-4,2)
p1564
V184
p1565
tp1566
a(g1564
V144
p1567
tp1568
a(g1564
V174
p1569
tp1570
a(g1564
V12
p1571
tp1572
a(VC(52-5,2)-C(52-5-4,2)
p1573
V6180020
p1574
tp1575
a(VC(52-5,2)-C(52-5-4,2)
p1576
V184
p1577
tp1578
a(g1576
V172
p1579
tp1580
a(g1576
V188
p1581
tp1582
a(g1573
V12
p1583
tp1584
a(g1576
V200
p1585
tp1586
a(g1576
V4
p1587
tp1588
a(VC(52-5,2)-C(52-5-4,2)
p1589
V184
p1590
tp1591
a(g1589
V185
p1592
tp1593
a(VC(52-5,2)-C(52-5-4,2)
p1594
V188
p1595
tp1596
a(g1576
V356
p1597
tp1598
a(g1576
V135
p1599
tp1600
a(g1576
V368
p1601
tp1602
a(g1576
V92
p1603
tp1604
a(VC(52-5,2)-C(52-5-4,2)
p1605
V4
p1606
tp1607
a(g1605
V135
p1608
tp1609
a(VC(52-5,2)-C(52-5-4,2)
p1610
V369
p1611
tp1612
a(g1610
V760
p1613
tp1614
a(VC(52-5,2)-C(52-5-4,2)
p1615
V184
p1616
tp1617
a(VC(52-5,2)-C(52-5-4,2)
p1618
V12
p1619
tp1620
a(g1615
V172
p1621
tp1622
a(g1615
V4
p1623
tp1624
a(g1615
V46
p1625
tp1626
a(g1615
V50
p1627
tp1628
a(g1618
V4070
p1629
tp1630
a(g1618
V2070
p1631
tp1632
a(g1618
V2256
p1633
tp1634
a(VC(52-5,2)-C(52-5-4,2)
p1635
V16
p1636
tp1637
a(VC(52-5,2)-C(52-5-4,2)
p1638
V4
p1639
tp1640
a(g1638
V3
p1641
tp1642
a(g1638
V4
p1643
tp1644
a(g1638
V49
p1645
tp1646
a(g1638
V50
p1647
tp1648
a(VC(52-5,2)-C(52-5-4,2)
p1649
V184
p1650
tp1651
a(g1638
V16
p1652
tp1653
a(g1635
V12
p1654
tp1655
a(g1638
V4
p1656
tp1657
a(g1638
V8
p1658
tp1659
a(VC(52-5,2)-C(52-5-4,2)
p1660
V12
p1661
tp1662
a(g1660
V4
p1663
tp1664
a(g1660
V8
p1665
tp1666
a(g1660
V1222
p1667
tp1668
a(g1660
V12
p1669
tp1670
a(VC(52-5,2)-C(52-5-4,2)
p1671
V6
p1672
tp1673
a(VC(52-5,2)-C(52-5-4,2)
p1674
V4
p1675
tp1676
a(g1674
V12
p1677
tp1678
a(g1674
V10
p1679
tp1680
a(g1674
V9
p1681
tp1682
a(g1674
V14
p1683
tp1684
a(VC(52-5,2)-C(52-5-4,2)
p1685
V12
p1686
tp1687
a(g1685
V47
p1688
tp1689
a(g1685
V4
p1690
tp1691
a(VC(52-5,2)-C(52-5-4,2)
p1692
V4
p1693
tp1694
a(VC(52-5,2)-C(52-5-4,2)
p1695
V3
p1696
tp1697
a(VC(52-5,2)-C(52-5-4,2)
p1698
V6
p1699
tp1700
a(VC(52-5,2)-C(52-5-4,2)
p1701
V1533939
p1702
tp1703
a(VC(52-5,2)-C(52-5-4,2)
p1704
V4
p1705
tp1706
a(VC(52-5,2)-C(52-5-4,2)
p1707
V8
p1708
tp1709
a(g1707
V4
p1710
tp1711
a(g1707
V1
p1712
tp1713
a(g1707
V2
p1714
tp1715
a(g1707
V3
p1716
tp1717
a(g1707
V4
p1718
tp1719
a(g1707
V8
p1720
tp1721
a(g1707
V12
p1722
tp1723
a(g1707
V46
p1724
tp1725
a(g1707
V47
p1726
tp1727
a(g1707
V50
p1728
tp1729
a(g1707
V16
p1730
tp1731
a(g1707
V32
p1732
tp1733
a(VC(52-5,2)-C(52-5-4,2)
p1734
V16
p1735
tp1736
a(g1734
V6
p1737
tp1738
a(VC(52-5,2)-C(52-5-4,2)
p1739
V47
p1740
tp1741
a(g1734
V2
p1742
tp1743
a(g1734
V1
p1744
tp1745
a(g1734
V6
p1746
tp1747
a(VC(52-5,2)-C(52-5-4,2)
p1748
V4
p1749
tp1750
a(VC(52-5,2)-C(52-5-4,2)
p1751
V4
p1752
tp1753
a(g1751
V8
p1754
tp1755
a(g1751
V12
p1756
tp1757
a(VC(52-5,2)-C(52-5-4,2)
p1758
V184
p1759
tp1760
a(VC(52-5,2)-C(52-5-4,2)
p1761
V4
p1762
tp1763
a(g1761
V8
p1764
tp1765
a(g1761
V12
p1766
tp1767
a(g1761
V7
p1768
tp1769
a(g1761
V10
p1770
tp1771
a(g1761
V2
p1772
tp1773
a(g1761
V3
p1774
tp1775
a(g1761
V6
p1776
tp1777
a(g1761
V20
p1778
tp1779
a(VC(52-5,2)-C(52-5-4,2)
p1780
V4
p1781
tp1782
a(VC(52-5,2)-C(52-5-4,2)
p1783
V314457495
p1784
tp1785
a(g1783
V1081
p1786
tp1787
a(VC(52-5,2)-C(52-5-4,2)
p1788
V12
p1789
tp1790
a(g1783
V47
p1791
tp1792
a(g1783
V1081
p1793
tp1794
a(g1783
V1081
p1795
tp1796
a(g1783
V1175
p1797
tp1798
a(g1783
V1081
p1799
tp1800
a(g1783
V1081
p1801
tp1802
a(g1783
V1081
p1803
tp1804
a(g1783
V1081
p1805
tp1806
a(g1783
V1081
p1807
tp1808
a(g1783
V1081
p1809
tp1810
a(g1783
V1081
p1811
tp1812
a(g1783
V1081
p1813
tp1814
a(g1783
V16
p1815
tp1816
a(VC(52-5,2)-C(52-5-4,2)
p1817
V46
p1818
tp1819
a(VC(52-5,2)-C(52-5-4,2)
p1820
V4
p1821
tp1822
a(VC(52-5,2)-C(52-5-4,2)
p1823
V8
p1824
tp1825
a(g1823
V4
p1826
tp1827
a(g1823
V598
p1828
tp1829
a(VC(52-5,2)-C(52-5-4,2)
p1830
V184
p1831
tp1832
a(g1830
V12
p1833
tp1834
a(g1823
V184
p1835
tp1836
a(g1830
V16
p1837
tp1838
a(VC(52-5,2)-C(52-5-4,2)
p1839
V4
p1840
tp1841
a(g1839
V52
p1842
tp1843
a(g1839
V12
p1844
tp1845
a(VC(52-5,2)-C(52-5-4,2)
p1846
V4
p1847
tp1848
a(g1846
V47
p1849
tp1850
a(VC(52-5,2)-C(52-5-4,2)
p1851
V4
p1852
tp1853
a(VC(52-5,2)-C(52-5-4,2)
p1854
V180
p1855
tp1856
a(g1846
V7
p1857
tp1858
a(g1846
V5
p1859
tp1860
a(g1846
V6
p1861
tp1862
a(g1846
V18
p1863
tp1864
a(g1846
V16
p1865
tp1866
a(g1846
V18
p1867
tp1868
a(g1846
V19
p1869
tp1870
a(g1846
V20
p1871
tp1872
a(g1846
V21
p1873
tp1874
a(g1854
V184
p1875
tp1876
a(g1854
V92
p1877
tp1878
a(g1854
V152
p1879
tp1880
a(VC(52-5,2)-C(52-5-4,2)
p1881
V46
p1882
tp1883
a(g1839
V1
p1884
tp1885
a(g1839
V50
p1886
tp1887
a(g1839
V49
p1888
tp1889
a(g1839
V48
p1890
tp1891
a(g1839
V16
p1892
tp1893
a(g1839
V47
p1894
tp1895
a(g1881
V12
p1896
tp1897
a(g1881
V3
p1898
tp1899
a(VC(52-5,2)-C(52-5-4,2)
p1900
V4
p1901
tp1902
a(VC(52-5,2)-C(52-5-4,2)
p1903
V4
p1904
tp1905
a(VC(52-5,2)-C(52-5-4,2)
p1906
V2
p1907
tp1908
a(g1906
V18
p1909
tp1910
a(g1903
V12
p1911
tp1912
a(g1906
V4
p1913
tp1914
a(VC(52-5,2)-C(52-5-4,2)
p1915
V4
p1916
tp1917
a(g1906
V64
p1918
tp1919
a(g1906
V32
p1920
tp1921
a(VC(52-5,2)-C(52-5-4,2)
p1922
V8
p1923
tp1924
a(g1922
V4
p1925
tp1926
a(g1922
V4
p1927
tp1928
a(g1922
V2
p1929
tp1930
a(VC(52-5,2)-C(52-5-4,2)
p1931
V2
p1932
tp1933
a(g1931
V7
p1934
tp1935
a(g1922
V1
p1936
tp1937
a(g1903
V16
p1938
tp1939
a(g1903
V8
p1940
tp1941
a(g1903
V12
p1942
tp1943
a(VC(52-5,2)-C(52-5-4,2)
p1944
V8
p1945
tp1946
a(VC(52-5,2)-C(52-5-4,2)
p1947
V32
p1948
tp1949
a(g1903
V7
p1950
tp1951
a(g1903
V14
p1952
tp1953
a(g1903
V18
p1954
tp1955
a(VC(52-5,2)-C(52-5-4,2)
p1956
V4
p1957
tp1958
a(VC(52-5,2)-C(52-5-4,2)
p1959
V4
p1960
tp1961
a(VC(52-5,2)-C(52-5-4,2)
p1962
V46
p1963
tp1964
a(VC(52-5,2)-C(52-5-4,2)
p1965
V4
p1966
tp1967
a(VC(52-5,2)-C(52-5-4,2)
p1968
V1081
p1969
tp1970
a(g1968
V12
p1971
tp1972
a(VC(52-5,2)-C(52-5-4,2)
p1973
V27
p1974
tp1975
a(g1973
V25
p1976
tp1977
a(g1973
V26
p1978
tp1979
a(VC(52-5,2)-C(52-5-4,2)
p1980
V12
p1981
tp1982
a(g1980
V16
p1983
tp1984
a(g1980
V46
p1985
tp1986
a(g1980
V31
p1987
tp1988
a(g1980
V46
p1989
tp1990
a(VC(52-5,2)-C(52-5-4,2)
p1991
V4
p1992
tp1993
a(g1991
V184
p1994
tp1995
a(g1991
V41
p1996
tp1997
a(VC(52-5,2)-C(52-5-4,2)
p1998
V46
p1999
tp2000
a(VC(52-5,2)-C(52-5-4,2)
p2001
V8
p2002
tp2003
a(VC(52-5,2)-C(52-5-4,2)
p2004
V12
p2005
tp2006
a(g2004
V4
p2007
tp2008
a(g2004
V6
p2009
tp2010
a(g2004
V184
p2011
tp2012
a(g2004
V176
p2013
tp2014
a(g2004
V91
p2015
tp2016
a(VC(52-5,2)-C(52-5-4,2)
p2017
V184
p2018
tp2019
a(VC(52-5,2)-C(52-5-4,2)
p2020
V4
p2021
tp2022
a(VC(52-5,2)-C(52-5-4,2)
p2023
V3445
p2024
tp2025
a(g1962
V46
p2026
tp2027
a(VC(52-5,2)-C(52-5-4,2)
p2028
V8
p2029
tp2030
a(g2028
V20
p2031
tp2032
a(g2028
V14
p2033
tp2034
a(g2028
V91
p2035
tp2036
a(VC(52-5,2)-C(52-5-4,2)
p2037
V2
p2038
tp2039
a(g2037
V32
p2040
tp2041
a(g2037
V32
p2042
tp2043
a(g2037
V46
p2044
tp2045
a(g2037
V16
p2046
tp2047
a(g2037
V12
p2048
tp2049
a(g2037
V44
p2050
tp2051
a(VC(52-5,2)-C(52-5-4,2)
p2052
V4
p2053
tp2054
a(g2052
V16
p2055
tp2056
a(g2052
V12
p2057
tp2058
a(VC(52-5,2)-C(52-5-4,2)
p2059
V4
p2060
tp2061
a(VC(52-5,2)-C(52-5-4,2)
p2062
V4
p2063
tp2064
a(g2062
V16
p2065
tp2066
a(g2062
V4
p2067
tp2068
a(VC(52-5,2)-C(52-5-4,2)
p2069
V46
p2070
tp2071
a(VC(52-5,2)-C(52-5-4,2)
p2072
V225
p2073
tp2074
a(VC(52-5,2)-C(52-5-4,2)
p2075
V4
p2076
tp2077
a(VC(52-5,2)-C(52-5-4,2)
p2078
V12
p2079
tp2080
a(g2078
V6
p2081
tp2082
a(g2078
V12
p2083
tp2084
a(g2078
V24
p2085
tp2086
a(VC(52-5,2)-C(52-5-4,2)
p2087
V12
p2088
tp2089
a(VC(52-5,2)-C(52-5-4,2)
p2090
V8
p2091
tp2092
a(g2078
V909
p2093
tp2094
a(VC(52-5,2)-C(52-5-4,2)
p2095
V4
p2096
tp2097
a(VC(52-5,2)-C(52-5-4,2)
p2098
V348
p2099
tp2100
a(g2098
V184
p2101
tp2102
a(g2098
V172
p2103
tp2104
a(g2095
V12
p2105
tp2106
a(VC(52-5,2)-C(52-5-4,2)
p2107
V184
p2108
tp2109
a(VC(52-5,2)-C(52-5-4,2)
p2110
V4
p2111
tp2112
a(VC(52-5,2)-C(52-5-4,2)
p2113
V4
p2114
tp2115
a(g2113
V2
p2116
tp2117
a(VC(52-5,2)-C(52-5-4,2)
p2118
V4
p2119
tp2120
a(g2118
V12
p2121
tp2122
a(VC(52-5,2)-C(52-5-4,2)
p2123
V32
p2124
tp2125
a(g2123
V24
p2126
tp2127
a(g2123
V20
p2128
tp2129
a(VC(52-5,2)-C(52-5-4,2)
p2130
V4
p2131
tp2132
asS"['R.1.0.0.0', 'R.1.0.0.1']"
p2133
(lp2134
(g2113
VC(4,1) * (C(52 - 5,1) - C(47 - 4,1))
p2135
(lp2136
(S'R.1.0.0.0'
p2137
F52.0
V52
p2138
V52
p2139
tp2140
a(S'R.1.0.0.1'
p2141
F5.0
V5
p2142
g2142
tp2143
aVatorr
p2144
g920
V2015-10-22 23:39:44
p2145
tp2146
asS"['R.1.0']"
p2147
(lp2148
(g1472
V47*46-43*42
p2149
(lp2150
(S'R.1.0'
p2151
F43.0
V52-5-4
p2152
V43
p2153
tp2154
aVkthui
p2155
g1020
V2015-10-18 09:12:37
p2156
tp2157
a(g1559
V4*46+43*4
p2158
(lp2159
(S'R.1.0'
p2160
F43.0
V52-5-4
p2161
V43
p2162
tp2163
aVachinn
p2164
g1236
V2015-10-19 22:27:48
p2165
tp2166
a(VC(52-5,2)-C(52-5-4,2)
p2167
VC(52,7)-C(43,5)
p2168
(lp2169
(S'R.1.0'
p2170
F43.0
V52-5-4
p2171
V43
p2172
tp2173
aVmitopete
p2174
g437
V2015-10-21 01:47:53
p2175
tp2176
a(g1685
V47*46 - 43*42
p2177
(lp2178
(S'R.1.0'
p2179
F43.0
V52-5-4
p2180
V43
p2181
tp2182
aVdcgriffi
p2183
g1286
V2015-10-21 04:04:18
p2184
tp2185
a(VC(52-5,2)-C(52-5-4,2)
p2186
V47*46 - 43*42
p2187
(lp2188
(S'R.1.0'
p2189
F43.0
V52-5-4
p2190
V43
p2191
tp2192
aVdan029
p2193
(lp2194
V2015-10-22 00:45:09
p2195
tp2196
a(VC(52-5,2)-C(52-5-4,2)
p2197
V4*46+43*4
p2198
(lp2199
(S'R.1.0'
p2200
F43.0
V52-5-4
p2201
V43
p2202
tp2203
aVh4tu
p2204
(lp2205
V2015-10-22 16:48:26
p2206
tp2207
a(g2118
V4*C(46,1)+C(43,1)*4
p2208
(lp2209
(S'R.1.0'
p2210
F43.0
V52-5-4
p2211
VC(43,1)
p2212
tp2213
aVakg009
p2214
g1351
V2015-10-23 00:11:51
p2215
tp2216
asS"['R.1']"
p2217
(lp2218
(g1447
VC(4,2)*C(43,2)
p2219
(lp2220
(S'R.1'
p2221
I903
VC(52-5-4,2)
p2222
VC(43,2)
p2223
tp2224
aVj5phung
p2225
g322
V2015-10-16 19:20:04
p2226
tp2227
a(g2069
VC(45,2)-C(43,2)
p2228
(lp2229
(S'R.1'
p2230
I903
VC(52-5-4,2)
p2231
VC(43,2)
p2232
tp2233
aVrraiyyan
p2234
(lp2235
V2015-10-22 23:38:05
p2236
tp2237
asS"['R.1.1']"
p2238
(lp2239
(g1436
VC(4,1)+C(4,2)
p2240
(lp2241
(S'R.1.1'
p2242
F2.0
g319
g319
tp2243
aVlguintu
p2244
(lp2245
V2015-10-16 07:00:51
p2246
tp2247
a(g1447
VC(4,1)C(47,2)
p2248
(lp2249
(S'R.1.1'
p2250
F2.0
g319
g319
tp2251
aVj5phung
p2252
g322
V2015-10-16 19:13:49
p2253
tp2254
a(g1447
VC(4,1)*C(4,2)
p2255
(lp2256
(S'R.1.1'
p2257
F2.0
g319
g319
tp2258
aVj5phung
p2259
g322
V2015-10-16 19:15:05
p2260
tp2261
a(g1447
V4*3*C(46,2)
p2262
(lp2263
(S'R.1.1'
p2264
F2.0
g319
g319
tp2265
aVj5phung
p2266
g322
V2015-10-16 19:30:55
p2267
tp2268
a(g1447
V12*C(47,2)
p2269
(lp2270
(S'R.1.1'
p2271
F2.0
g319
g319
tp2272
aVj5phung
p2273
g322
V2015-10-16 19:36:17
p2274
tp2275
a(g1447
V47-C(4,2)
p2276
(lp2277
(S'R.1.1'
p2278
F2.0
g319
g319
tp2279
aVj5phung
p2280
g322
V2015-10-16 23:48:56
p2281
tp2282
a(g1472
V4*3+4*47*2
p2283
(lp2284
(S'R.1.1'
p2285
F2.0
g319
g319
tp2286
aVkthui
p2287
g1020
V2015-10-18 08:45:33
p2288
tp2289
a(g1472
V4*3+4*46*2
p2290
(lp2291
(S'R.1.1'
p2292
F2.0
g319
g319
tp2293
aVkthui
p2294
g1020
V2015-10-18 08:45:38
p2295
tp2296
a(VC(52-5,2)-C(52-5-4,2)
p2297
VC(4,1)*C(52-6,1) + C(4,2)
p2298
(lp2299
(S'R.1.1'
p2300
F2.0
g319
g319
tp2301
aVggaddi
p2302
g404
V2015-10-20 01:09:08
p2303
tp2304
a(g2297
VC(4,1)*C(52-5,1) + C(4,2)
p2305
(lp2306
(S'R.1.1'
p2307
F2.0
g319
g319
tp2308
aVggaddi
p2309
g404
V2015-10-20 01:09:15
p2310
tp2311
a(g2297
VC(4,1)*C(52-6,1) + C(52-5,1)*C(4,1) +C(4,2)
p2312
(lp2313
(S'R.1.1'
p2314
F2.0
g319
g319
tp2315
aVggaddi
p2316
g404
V2015-10-20 01:09:50
p2317
tp2318
a(g2297
VP(4,1)*P(52-6,1) + P(52-5,1)*P(4,1) +P(4,2)
p2319
(lp2320
(S'R.1.1'
p2321
F2.0
g319
g319
tp2322
aVggaddi
p2323
g404
V2015-10-20 01:10:58
p2324
tp2325
a(g1618
V46*C(4,2)
p2326
(lp2327
(S'R.1.1'
p2328
F2.0
g319
g319
tp2329
aVtol003
p2330
(lp2331
V2015-10-21 00:25:31
p2332
tp2333
a(g1638
V4 * 45 * C(7,2)
p2334
(lp2335
(S'R.1.1'
p2336
F2.0
g319
g319
tp2337
aVjnatale
p2338
g428
V2015-10-21 01:06:48
p2339
tp2340
a(g1674
VC(4,1)+C(4,2)
p2341
(lp2342
(S'R.1.1'
p2343
F2.0
g319
g319
tp2344
aVvolim
p2345
(lp2346
V2015-10-21 03:06:45
p2347
tp2348
a(g1685
V12 + 4*43*2
p2349
(lp2350
(S'R.1.1'
p2351
F2.0
g319
g319
tp2352
aVdcgriffi
p2353
g1286
V2015-10-21 04:11:35
p2354
tp2355
a(g1685
V47*C(4,2)
p2356
(lp2357
(S'R.1.1'
p2358
F2.0
g319
g319
tp2359
aVdcgriffi
p2360
g1286
V2015-10-21 04:12:20
p2361
tp2362
a(g1707
VC(4,2)*47*C(47,2)
p2363
(lp2364
(S'R.1.1'
p2365
F2.0
g319
g319
tp2366
aVmtrafeca
p2367
g520
V2015-10-21 08:41:43
p2368
tp2369
a(VC(52-5,2)-C(52-5-4,2)
p2370
VC(4,1)*C(47,2)
p2371
(lp2372
(S'R.1.1'
p2373
F2.0
g319
g319
tp2374
aVabjara
p2375
(lp2376
V2015-10-21 18:48:35
p2377
tp2378
a(g2186
V4*46+4*46 - C(4,2)
p2379
(lp2380
(S'R.1.1'
p2381
F2.0
g319
g319
tp2382
aVdan029
p2383
g2194
V2015-10-22 00:43:39
p2384
tp2385
a(g1846
V4 * C(47,2)
p2386
(lp2387
(S'R.1.1'
p2388
F2.0
g319
g319
tp2389
aVcstringh
p2390
g668
V2015-10-22 01:46:36
p2391
tp2392
a(g1851
VC(47,3)-C(47,2)
p2393
(lp2394
(S'R.1.1'
p2395
F2.0
g319
g319
tp2396
aVtpmach
p2397
g582
V2015-10-22 03:00:05
p2398
tp2399
a(g1851
VC(47,4)-C(47,2)
p2400
(lp2401
(S'R.1.1'
p2402
F2.0
g319
g319
tp2403
aVtpmach
p2404
g582
V2015-10-22 03:00:27
p2405
tp2406
a(g1944
VC(4,1)*C(52,2)
p2407
(lp2408
(S'R.1.1'
p2409
F2.0
g319
g319
tp2410
aVewbrenna
p2411
(lp2412
V2015-10-22 05:34:08
p2413
tp2414
a(g2197
V47*46-12/2
p2415
(lp2416
(S'R.1.1'
p2417
F2.0
g319
g319
tp2418
aVh4tu
p2419
g2205
V2015-10-22 16:49:28
p2420
tp2421
a(g2107
V4*(52-1-5)- C(3,2)
p2422
(lp2423
(S'R.1.1'
p2424
F2.0
g319
g319
tp2425
aVjyc018
p2426
g1393
V2015-10-22 23:19:59
p2427
tp2428
a(VC(52-5,2)-C(52-5-4,2)
p2429
VC(52,5) - C(48,2)
p2430
(lp2431
(S'R.1.1'
p2432
F2.0
g319
g319
tp2433
aVssamudra
p2434
(lp2435
V2015-10-23 00:53:04
p2436
tp2437
a(g2429
VC(52,5) - C(49,2) + C(48,2)
p2438
(lp2439
(S'R.1.1'
p2440
F2.0
g319
g319
tp2441
aVssamudra
p2442
g2435
V2015-10-23 00:56:35
p2443
tp2444
asS"['R.0', 'R.1']"
p2445
(lp2446
(VC(52-5,2)-C(52-5-4,2)
p2447
VC(52-5,2)C(52-5-4,2)
p2448
(lp2449
(S'R.0'
p2450
I1081
VC(52-5,2)
p2451
VC(52-5,2)
p2452
tp2453
a(S'R.1'
p2454
I903
VC(52-5-4,2)
p2455
VC(52-5-4,2)
p2456
tp2457
aVmbl003
p2458
g564
V2015-10-21 19:36:46
p2459
tp2460
asS"['R.1.0.0.0']"
p2461
(lp2462
(g1851
V4C(52-4-5,1)
p2463
(lp2464
(S'R.1.0.0.0'
p2465
F52.0
V52
p2466
V52
p2467
tp2468
aVtpmach
p2469
g582
V2015-10-22 01:42:09
p2470
tp2471
a(VC(52-5,2)-C(52-5-4,2)
p2472
VC(4,1)(C(52-6-3,1))
p2473
(lp2474
(S'R.1.0.0.0'
p2475
F52.0
V52
p2476
V52
p2477
tp2478
aVhaw081
p2479
g702
V2015-10-22 04:15:49
p2480
tp2481
asS"['R.0']"
p2482
(lp2483
(g1436
VC(47,2)*C(4,1)
p2484
(lp2485
(S'R.0'
p2486
I1081
VC(52-5,2)
p2487
VC(47,2)
p2488
tp2489
aVlguintu
p2490
g2245
V2015-10-16 06:57:15
p2491
tp2492
a(g1436
VC(47,2) - C(45,2)
p2493
(lp2494
(S'R.0'
p2495
I1081
VC(52-5,2)
p2496
VC(47,2)
p2497
tp2498
aVlguintu
p2499
g2245
V2015-10-16 07:02:00
p2500
tp2501
a(g1447
VC(47,2)-C(12,2)
p2502
(lp2503
(S'R.0'
p2504
I1081
VC(52-5,2)
p2505
VC(47,2)
p2506
tp2507
aVj5phung
p2508
g322
V2015-10-16 23:50:46
p2509
tp2510
a(g1447
VC(47,2)-C(4,2)
p2511
(lp2512
(S'R.0'
p2513
I1081
VC(52-5,2)
p2514
VC(47,2)
p2515
tp2516
aVj5phung
p2517
g322
V2015-10-16 23:51:08
p2518
tp2519
a(g1465
V47!/(2!(47-2)!) - 12
p2520
(lp2521
(S'R.0'
p2522
I1081
VC(52-5,2)
p2523
V47!/(2!(47-2)!)
p2524
tp2525
aVkquong
p2526
g1203
V2015-10-18 05:09:58
p2527
tp2528
a(g1635
VC(47,2) - C(45, 2)
p2529
(lp2530
(S'R.0'
p2531
I1081
VC(52-5,2)
p2532
VC(47,2)
p2533
tp2534
aVgthorn
p2535
(lp2536
V2015-10-21 00:51:55
p2537
tp2538
a(g1635
VC(47,2) - C(46, 2)
p2539
(lp2540
(S'R.0'
p2541
I1081
VC(52-5,2)
p2542
VC(47,2)
p2543
tp2544
aVgthorn
p2545
g2536
V2015-10-21 01:25:26
p2546
tp2547
a(g1674
VC(47,2)-C(42,2)
p2548
(lp2549
(S'R.0'
p2550
I1081
VC(52-5,2)
p2551
VC(47,2)
p2552
tp2553
aVvolim
p2554
g2346
V2015-10-21 03:47:56
p2555
tp2556
a(g1685
VC(47,2)*46
p2557
(lp2558
(S'R.0'
p2559
I1081
VC(52-5,2)
p2560
VC(47,2)
p2561
tp2562
aVdcgriffi
p2563
g1286
V2015-10-21 03:56:11
p2564
tp2565
a(VC(52-5,2)-C(52-5-4,2)
p2566
VC(47,2)-C(42,1)
p2567
(lp2568
(S'R.0'
p2569
I1081
VC(52-5,2)
p2570
VC(47,2)
p2571
tp2572
aVdkurli
p2573
g464
V2015-10-21 04:14:09
p2574
tp2575
a(g2566
VC(47,2)-C(42,2)
p2576
(lp2577
(S'R.0'
p2578
I1081
VC(52-5,2)
p2579
VC(47,2)
p2580
tp2581
aVdkurli
p2582
g464
V2015-10-21 04:14:17
p2583
tp2584
a(g2566
VC(47,2)-C(4,1)
p2585
(lp2586
(S'R.0'
p2587
I1081
VC(52-5,2)
p2588
VC(47,2)
p2589
tp2590
aVdkurli
p2591
g464
V2015-10-21 04:14:35
p2592
tp2593
a(VC(52-5,2)-C(52-5-4,2)
p2594
VC(47,2)-43
p2595
(lp2596
(S'R.0'
p2597
I1081
VC(52-5,2)
p2598
VC(47,2)
p2599
tp2600
aVkrau
p2601
g473
V2015-10-21 04:14:49
p2602
tp2603
a(g1704
VC(47,2)-4
p2604
(lp2605
(S'R.0'
p2606
I1081
VC(52-5,2)
p2607
VC(47,2)
p2608
tp2609
aVyos017
p2610
g505
V2015-10-21 08:36:44
p2611
tp2612
a(g1704
VC(47,2)-C(46,2)
p2613
(lp2614
(S'R.0'
p2615
I1081
VC(52-5,2)
p2616
VC(47,2)
p2617
tp2618
aVyos017
p2619
g505
V2015-10-21 08:39:17
p2620
tp2621
a(g1707
VC(47,2)-4
p2622
(lp2623
(S'R.0'
p2624
I1081
VC(52-5,2)
p2625
VC(47,2)
p2626
tp2627
aVmtrafeca
p2628
g520
V2015-10-21 09:17:26
p2629
tp2630
a(g1707
VC(47,2)-8
p2631
(lp2632
(S'R.0'
p2633
I1081
VC(52-5,2)
p2634
VC(47,2)
p2635
tp2636
aVmtrafeca
p2637
g520
V2015-10-21 09:17:42
p2638
tp2639
a(g1707
VC(47,2)-16
p2640
(lp2641
(S'R.0'
p2642
I1081
VC(52-5,2)
p2643
VC(47,2)
p2644
tp2645
aVmtrafeca
p2646
g520
V2015-10-21 09:19:20
p2647
tp2648
a(g1707
VC(47,2)-16
p2649
(lp2650
(S'R.0'
p2651
I1081
VC(52-5,2)
p2652
VC(47,2)
p2653
tp2654
aVmtrafeca
p2655
g520
V2015-10-21 09:21:57
p2656
tp2657
a(g1707
VC(47,2)-(47-8)
p2658
(lp2659
(S'R.0'
p2660
I1081
VC(52-5,2)
p2661
VC(47,2)
p2662
tp2663
aVmtrafeca
p2664
g520
V2015-10-21 09:30:41
p2665
tp2666
a(g1707
VC(47,2)-(46-8)
p2667
(lp2668
(S'R.0'
p2669
I1081
VC(52-5,2)
p2670
VC(47,2)
p2671
tp2672
aVmtrafeca
p2673
g520
V2015-10-21 09:30:49
p2674
tp2675
a(g1707
VC(47,2)-(8)
p2676
(lp2677
(S'R.0'
p2678
I1081
VC(52-5,2)
p2679
VC(47,2)
p2680
tp2681
aVmtrafeca
p2682
g520
V2015-10-21 09:31:05
p2683
tp2684
a(g1707
VC(47,2)-(64)
p2685
(lp2686
(S'R.0'
p2687
I1081
VC(52-5,2)
p2688
VC(47,2)
p2689
tp2690
aVmtrafeca
p2691
g520
V2015-10-21 09:31:14
p2692
tp2693
a(g1707
VC(47,2)-16
p2694
(lp2695
(S'R.0'
p2696
I1081
VC(52-5,2)
p2697
VC(47,2)
p2698
tp2699
aVmtrafeca
p2700
g520
V2015-10-21 09:31:26
p2701
tp2702
a(g1707
VC(47,2)-C(39,2)
p2703
(lp2704
(S'R.0'
p2705
I1081
VC(52-5,2)
p2706
VC(47,2)
p2707
tp2708
aVmtrafeca
p2709
g520
V2015-10-21 09:32:13
p2710
tp2711
a(g1707
VC(47,2)-C(45,2)
p2712
(lp2713
(S'R.0'
p2714
I1081
VC(52-5,2)
p2715
VC(47,2)
p2716
tp2717
aVmtrafeca
p2718
g520
V2015-10-21 09:32:40
p2719
tp2720
a(g1707
VC(47,2)-(44)
p2721
(lp2722
(S'R.0'
p2723
I1081
VC(52-5,2)
p2724
VC(47,2)
p2725
tp2726
aVmtrafeca
p2727
g520
V2015-10-21 09:35:17
p2728
tp2729
a(g1707
VC(47,2)-(43)
p2730
(lp2731
(S'R.0'
p2732
I1081
VC(52-5,2)
p2733
VC(47,2)
p2734
tp2735
aVmtrafeca
p2736
g520
V2015-10-21 09:35:26
p2737
tp2738
a(VC(52-5,2)-C(52-5-4,2)
p2739
VC(47,2)-C(39,2)
p2740
(lp2741
(S'R.0'
p2742
I1081
VC(52-5,2)
p2743
VC(47,2)
p2744
tp2745
aVchc286
p2746
(lp2747
V2015-10-21 09:59:22
p2748
tp2749
a(VC(52-5,2)-C(52-5-4,2)
p2750
VC(47,2)- (4*46)
p2751
(lp2752
(S'R.0'
p2753
I1081
VC(52-5,2)
p2754
VC(47,2)
p2755
tp2756
aVawollner
p2757
(lp2758
V2015-10-21 17:57:02
p2759
tp2760
a(VC(52-5,2)-C(52-5-4,2)
p2761
VC(52-5,2) - (52-5-4)
p2762
(lp2763
(S'R.0'
p2764
I1081
VC(52-5,2)
p2765
VC(52-5,2)
p2766
tp2767
aVttimmons
p2768
g538
V2015-10-21 18:48:24
p2769
tp2770
a(VC(52-5,2)-C(52-5-4,2)
p2771
VC(47,2)-43
p2772
(lp2773
(S'R.0'
p2774
I1081
VC(52-5,2)
p2775
VC(47,2)
p2776
tp2777
aVvsamant
p2778
g547
V2015-10-21 19:06:44
p2779
tp2780
a(g2771
VC(47,2)-C(47,46)
p2781
(lp2782
(S'R.0'
p2783
I1081
VC(52-5,2)
p2784
VC(47,2)
p2785
tp2786
aVvsamant
p2787
g547
V2015-10-21 19:07:35
p2788
tp2789
a(g1761
V(C(47,2)*(52-6))
p2790
(lp2791
(S'R.0'
p2792
I1081
VC(52-5,2)
p2793
VC(47,2)
p2794
tp2795
aVdcastlem
p2796
(lp2797
V2015-10-21 20:59:38
p2798
tp2799
a(g1761
V(C(47,2)-(52-6))
p2800
(lp2801
(S'R.0'
p2802
I1081
VC(52-5,2)
p2803
VC(47,2)
p2804
tp2805
aVdcastlem
p2806
g2797
V2015-10-21 20:59:45
p2807
tp2808
a(g1761
VC(47,2)*(52-6)
p2809
(lp2810
(S'R.0'
p2811
I1081
VC(52-5,2)
p2812
VC(47,2)
p2813
tp2814
aVdcastlem
p2815
g2797
V2015-10-21 21:02:52
p2816
tp2817
a(g1761
VC(47,2)-(52-6)
p2818
(lp2819
(S'R.0'
p2820
I1081
VC(52-5,2)
p2821
VC(47,2)
p2822
tp2823
aVdcastlem
p2824
g2797
V2015-10-21 21:04:58
p2825
tp2826
a(g1761
VC(47,2)*(52-6)
p2827
(lp2828
(S'R.0'
p2829
I1081
VC(52-5,2)
p2830
VC(47,2)
p2831
tp2832
aVdcastlem
p2833
g2797
V2015-10-21 21:07:43
p2834
tp2835
a(g1761
VC(47,2)-(52-6)
p2836
(lp2837
(S'R.0'
p2838
I1081
VC(52-5,2)
p2839
VC(47,2)
p2840
tp2841
aVdcastlem
p2842
g2797
V2015-10-21 21:07:50
p2843
tp2844
a(VC(52-5,2)-C(52-5-4,2)
p2845
VC(47,2) - C(46,2)
p2846
(lp2847
(S'R.0'
p2848
I1081
VC(52-5,2)
p2849
VC(47,2)
p2850
tp2851
aVjap009
p2852
g488
V2015-10-21 21:55:51
p2853
tp2854
a(g1820
VC(47,2)-C(42,2)
p2855
(lp2856
(S'R.0'
p2857
I1081
VC(52-5,2)
p2858
VC(47,2)
p2859
tp2860
aVyypan
p2861
(lp2862
V2015-10-21 23:09:51
p2863
tp2864
a(g1915
VC(47,2)-C(4,2)
p2865
(lp2866
(S'R.0'
p2867
I1081
VC(52-5,2)
p2868
VC(47,2)
p2869
tp2870
aVnnh002
p2871
g685
V2015-10-22 03:27:49
p2872
tp2873
a(g1915
VC(47,2)-4
p2874
(lp2875
(S'R.0'
p2876
I1081
VC(52-5,2)
p2877
VC(47,2)
p2878
tp2879
aVnnh002
p2880
g685
V2015-10-22 03:28:05
p2881
tp2882
a(g1922
V(47!/[2!45!]) - (46!/[2!44!])
p2883
(lp2884
(S'R.0'
p2885
I1081
VC(52-5,2)
p2886
V47!/[2!45!]
p2887
tp2888
aVl8ngo
p2889
(lp2890
V2015-10-22 04:04:54
p2891
tp2892
a(g1922
V47!/[2!45!] - 12
p2893
(lp2894
(S'R.0'
p2895
I1081
VC(52-5,2)
p2896
V47!/[2!45!]
p2897
tp2898
aVl8ngo
p2899
g2890
V2015-10-22 04:19:16
p2900
tp2901
a(g1922
V47!/[2!45!] - 4
p2902
(lp2903
(S'R.0'
p2904
I1081
VC(52-5,2)
p2905
V47!/[2!45!]
p2906
tp2907
aVl8ngo
p2908
g2890
V2015-10-22 04:19:24
p2909
tp2910
a(g1922
V47!/[2!45!] - 7
p2911
(lp2912
(S'R.0'
p2913
I1081
VC(52-5,2)
p2914
V47!/[2!45!]
p2915
tp2916
aVl8ngo
p2917
g2890
V2015-10-22 04:19:34
p2918
tp2919
a(g1922
V47!/[2!45!] - 8
p2920
(lp2921
(S'R.0'
p2922
I1081
VC(52-5,2)
p2923
V47!/[2!45!]
p2924
tp2925
aVl8ngo
p2926
g2890
V2015-10-22 04:19:43
p2927
tp2928
a(g1922
V47!/[2!45!] - [13*4]
p2929
(lp2930
(S'R.0'
p2931
I1081
VC(52-5,2)
p2932
V47!/[2!45!]
p2933
tp2934
aVl8ngo
p2935
g2890
V2015-10-22 04:27:14
p2936
tp2937
a(g1922
V47!/[2!45!] - 47!/[1!46!]
p2938
(lp2939
(S'R.0'
p2940
I1081
VC(52-5,2)
p2941
V47!/[2!45!]
p2942
tp2943
aVl8ngo
p2944
g2890
V2015-10-22 04:29:08
p2945
tp2946
a(g1922
V47!/[2!45!]-[45!/[2!43!]]
p2947
(lp2948
(S'R.0'
p2949
I1081
VC(52-5,2)
p2950
V47!/[2!45!]
p2951
tp2952
aVl8ngo
p2953
g2890
V2015-10-22 04:36:20
p2954
tp2955
a(g1922
V47!/[2!45!]-43
p2956
(lp2957
(S'R.0'
p2958
I1081
VC(52-5,2)
p2959
V47!/[2!45!]
p2960
tp2961
aVl8ngo
p2962
g2890
V2015-10-22 04:37:58
p2963
tp2964
a(g1903
VC(47,2)-11*11
p2965
(lp2966
(S'R.0'
p2967
I1081
VC(52-5,2)
p2968
VC(47,2)
p2969
tp2970
aVhsc052
p2971
(lp2972
V2015-10-22 05:11:39
p2973
tp2974
a(g1944
VC(47,2)-C(42,2)
p2975
(lp2976
(S'R.0'
p2977
I1081
VC(52-5,2)
p2978
VC(47,2)
p2979
tp2980
aVewbrenna
p2981
g2412
V2015-10-22 05:37:45
p2982
tp2983
a(g1980
VC(47,2) - 48
p2984
(lp2985
(S'R.0'
p2986
I1081
VC(52-5,2)
p2987
VC(47,2)
p2988
tp2989
aVjjm019
p2990
g615
V2015-10-22 08:52:52
p2991
tp2992
a(g1980
VC(47,2) - C(46,2)
p2993
(lp2994
(S'R.0'
p2995
I1081
VC(52-5,2)
p2996
VC(47,2)
p2997
tp2998
aVjjm019
p2999
g615
V2015-10-22 09:03:31
p3000
tp3001
a(g2001
VC(47,2) - 43
p3002
(lp3003
(S'R.0'
p3004
I1081
VC(52-5,2)
p3005
VC(47,2)
p3006
tp3007
aVpnquach
p3008
(lp3009
V2015-10-22 09:12:34
p3010
tp3011
a(g2017
VC(47, 2)*C(4, 2)
p3012
(lp3013
(S'R.0'
p3014
I1081
VC(52-5,2)
p3015
VC(47, 2)
p3016
tp3017
aVv4zhang
p3018
(lp3019
V2015-10-22 10:07:20
p3020
tp3021
a(g2197
V47*46/2-12/2
p3022
(lp3023
(S'R.0'
p3024
I1081
VC(52-5,2)
p3025
V47*46/2
p3026
tp3027
aVh4tu
p3028
g2205
V2015-10-22 16:49:52
p3029
tp3030
a(VC(52-5,2)-C(52-5-4,2)
p3031
V1081-741
p3032
(lp3033
(S'R.0'
p3034
I1081
VC(52-5,2)
p3035
V1081
p3036
tp3037
aVanl114
p3038
(lp3039
V2015-10-22 17:06:28
p3040
tp3041
a(g1962
VC(47,2)-C(46,2)
p3042
(lp3043
(S'R.0'
p3044
I1081
VC(52-5,2)
p3045
VC(47,2)
p3046
tp3047
aVdsriniva
p3048
(lp3049
V2015-10-22 17:57:20
p3050
tp3051
a(g1962
VC(47,2)-C(46,2)
p3052
(lp3053
(S'R.0'
p3054
I1081
VC(52-5,2)
p3055
VC(47,2)
p3056
tp3057
aVdsriniva
p3058
g3049
V2015-10-22 18:02:26
p3059
tp3060
a(g2052
VC(47,2)C(4,2)
p3061
(lp3062
(S'R.0'
p3063
I1081
VC(52-5,2)
p3064
VC(47,2)
p3065
tp3066
aVsachadal
p3067
g803
V2015-10-22 19:43:18
p3068
tp3069
a(VC(52-5,2)-C(52-5-4,2)
p3070
VC(52-5,2)-1024
p3071
(lp3072
(S'R.0'
p3073
I1081
VC(52-5,2)
p3074
VC(52-5,2)
p3075
tp3076
aVairanmeh
p3077
(lp3078
V2015-10-22 20:37:46
p3079
tp3080
a(VC(52-5,2)-C(52-5-4,2)
p3081
VC(47,2)-4
p3082
(lp3083
(S'R.0'
p3084
I1081
VC(52-5,2)
p3085
VC(47,2)
p3086
tp3087
aVtcn013
p3088
g896
V2015-10-22 21:56:09
p3089
tp3090
a(g3081
VC(47,2)-8
p3091
(lp3092
(S'R.0'
p3093
I1081
VC(52-5,2)
p3094
VC(47,2)
p3095
tp3096
aVtcn013
p3097
g896
V2015-10-22 21:56:46
p3098
tp3099
a(g3081
VC(47,2)-C(42,2)
p3100
(lp3101
(S'R.0'
p3102
I1081
VC(52-5,2)
p3103
VC(47,2)
p3104
tp3105
aVtcn013
p3106
g896
V2015-10-22 21:57:19
p3107
tp3108
a(g2069
VC(47,2)-C(44,2)
p3109
(lp3110
(S'R.0'
p3111
I1081
VC(52-5,2)
p3112
VC(47,2)
p3113
tp3114
aVrraiyyan
p3115
g2235
V2015-10-22 23:36:16
p3116
tp3117
a(g2130
VC(52-5, 2) - C(52-5-12, 2)
p3118
(lp3119
(S'R.0'
p3120
I1081
VC(52-5,2)
p3121
VC(52-5, 2)
p3122
tp3123
aVdgunawan
p3124
g951
V2015-10-23 00:36:52
p3125
tp3126
asg1078
(lp3127
(g1447
V1-C(4,2)
p3128
tp3129
a(g1447
V47-C(12,2)
p3130
tp3131
a(g1465
V52!/(2!(52-2)!)-47!/(2!(47-2))
p3132
tp3133
a(g1465
V(47!/(2!(47-2)!)) - (47!/12!(47-12)!)
p3134
tp3135
a(g1472
V47!/((47-2)!2!)-43*42
p3136
tp3137
a(g1532
V[(52-5)!/(2!47!)]-[(52-5-4)!/(2!41!)]
p3138
tp3139
a(g1559
VC(47,2)-(44*43)
p3140
tp3141
a(g1559
VC(47,2)-(43*42)
p3142
tp3143
a(g1674
V2(4*45)-12
p3144
tp3145
a(VC(52-5,2)-C(52-5-4,2)
p3146
VC(4,1) - C(52-6, 1)
p3147
tp3148
a(g1685
VC(47,2) - 43*42
p3149
tp3150
a(g1707
VC(47,2)-(47*46)
p3151
tp3152
a(g1707
VC(47,2)-(46*46)
p3153
tp3154
a(g1707
VC(47,2)-(46*45)
p3155
tp3156
a(g1707
VC(47,2)-(43*42)
p3157
tp3158
a(g2761
VC(52,2) - C(52,4)
p3159
tp3160
a(g2761
V(52-5)-(52-4)
p3161
tp3162
a(g2771
VC(47,2)-C(47,43)
p3163
tp3164
a(g1761
VC(4,2)-(52-6)
p3165
tp3166
a(g1761
VC(4,1)*(52-6)-(C(47,44))
p3167
tp3168
a(g1761
VC(4,1)*(52-6)-(C(52,48))
p3169
tp3170
a(VC(52-5,2)-C(52-5-4,2)
p3171
VC(47,2)-C(47,43)
p3172
tp3173
a(VC(52-5,2)-C(52-5-4,2)
p3174
VC(47,2)-C(43,5)
p3175
tp3176
a(g3174
VC(47,2)-C(43,4)
p3177
tp3178
a(g3174
VC(47,2)-C(43,3)
p3179
tp3180
a(VC(52-5,2)-C(52-5-4,2)
p3181
V1- C(52-5-4, 2)
p3182
tp3183
a(g3181
V1- C(52-5-4, 4)
p3184
tp3185
a(g1839
V1-(46!)
p3186
tp3187
a(g1922
V47!/[2!45!] - [13*4**12]
p3188
tp3189
a(g1922
V47!/[2!45!]-[43!/[2!39!]]
p3190
tp3191
a(g1903
VC(47,2)-44*44
p3192
tp3193
a(VC(52-5,2)-C(52-5-4,2)
p3194
VC(43,2) - C(47,2)
p3195
tp3196
a(VC(52-5,2)-C(52-5-4,2)
p3197
V[C(47,2)]-[C(47,47-8)]
p3198
tp3199
a(g3197
V[C(4,1)][52-6]-8
p3200
tp3201
a(g3197
V[C(4,1)][52-6]-4
p3202
tp3203
a(g3197
V[C(4,1)][52-6]-2
p3204
tp3205
a(VC(52-5,2)-C(52-5-4,2)
p3206
VC(52-5,2)-C(52-4,2)
p3207
tp3208
a(g3070
VC(52-5,2)-20*10*19
p3209
tp3210
a(VC(52-5,2)-C(52-5-4,2)
p3211
VC(47,2) - C(47,43)
p3212
tp3213
a(g2113
VC(52 - 5,1) - C(52 - 4,1)
p3214
tp3215
asS"['R.1.0.0']"
p3216
(lp3217
(VC(52-5,2)-C(52-5-4,2)
p3218
VC(4,1)C(52-5-1,1)
p3219
(lp3220
(S'R.1.0.0'
p3221
F47.0
V52-5
p3222
V52-5
p3223
tp3224
aVt1tran
p3225
g363
V2015-10-18 03:58:53
p3226
tp3227
a(g1460
V4*C(52-5-1,1)
p3228
(lp3229
(S'R.1.0.0'
p3230
F47.0
V52-5
p3231
V52-5
p3232
tp3233
aVtjke
p3234
(lp3235
V2015-10-18 04:56:52
p3236
tp3237
a(g1460
V4*C(52-5-4,1)
p3238
(lp3239
(S'R.1.0.0'
p3240
F47.0
V52-5
p3241
V52-5
p3242
tp3243
aVtjke
p3244
g3235
V2015-10-18 04:57:26
p3245
tp3246
a(g1980
V4[C(47,2) - C(46,2)]
p3247
(lp3248
(S'R.1.0.0'
p3249
F47.0
V52-5
p3250
V47
p3251
tp3252
aVjjm019
p3253
g615
V2015-10-22 09:04:27
p3254
tp3255
a(g2113
V(C(4,1) * (52 - 6)) - C(47 - 4,1)
p3256
(lp3257
(S'R.1.0.0'
p3258
F47.0
V52-5
p3259
V47
p3260
tp3261
aVatorr
p3262
g920
V2015-10-22 23:44:47
p3263
tp3264
asg1089
(lp3265
(g1472
V4+4*46/3*2
p3266
tp3267
a(g1472
V4+4*47/3*2
p3268
tp3269
a(g1532
V[(52-5)!/(2!45!)]-[(52-5-4)!/(2!43!)]
p3270
tp3271
a(VC(52-5,2)-C(52-5-4,2)
p3272
V(4^5(4)(46!/45!))/(52!/(7!45!))
p3273
tp3274
a(g1638
V3*4/52
p3275
tp3276
a(g1638
V3*(4/45)
p3277
tp3278
a(g1685
V2/47
p3279
tp3280
a(g1638
VC(47,2) / 45
p3281
tp3282
a(VC(52-5,2)-C(52-5-4,2)
p3283
V4*8/C(52-5,2)
p3284
tp3285
a(VC(52-5,2)-C(52-5-4,2)
p3286
V(47!/(42!5!))
p3287
tp3288
a(g3286
V(47!/(42!5!))
p3289
tp3290
a(g3181
V1- (C(52-5-4, 2)/C(52-4, 2))
p3291
tp3292
a(g3181
V1- (C(52-5-4, 2)/C(52-5, 2))
p3293
tp3294
a(g1846
V4/47
p3295
tp3296
a(g1944
V1-(C(48,2)/C(52,2))
p3297
tp3298
a(g2017
VC(47, 2)/C(4, 2)
p3299
tp3300
a(VC(52-5,2)-C(52-5-4,2)
p3301
V4/(C(47,2)+C(46,2))
p3302
tp3303
a(VC(52-5,2)-C(52-5-4,2)
p3304
V(13-3)*4^5*C(52-5,2)/C(52,7)
p3305
tp3306
a(g2078
V1533936/1533939
p3307
tp3308
a(g2078
V1533923/1533939
p3309
tp3310
a(g2113
VC(52 - 5,1) / C(47 - 4,1)
p3311
tp3312
asS"['R.1.0.1']"
p3313
(lp3314
(g2113
VC(52 - 5,1) * C(47 - 4,1)
p3315
(lp3316
(S'R.1.0.1'
p3317
F4.0
g966
g966
tp3318
aVatorr
p3319
g920
V2015-10-22 23:38:44
p3320
tp3321
a(g2113
VC(52 - 5,1) + C(47 - 4,1)
p3322
(lp3323
(S'R.1.0.1'
p3324
F4.0
g966
g966
tp3325
aVatorr
p3326
g920
V2015-10-22 23:38:58
p3327
tp3328
asS"['R.0', 'R.1.0.1', 'R.1.1']"
p3329
(lp3330
(g1922
V47!/[2!45!] - [13*4*2]
p3331
(lp3332
(S'R.0'
p3333
I1081
VC(52-5,2)
p3334
V47!/[2!45!]
p3335
tp3336
a(S'R.1.0.1'
p3337
F4.0
g966
g966
tp3338
a(S'R.1.1'
p3339
F2.0
g319
g319
tp3340
aVl8ngo
p3341
g2890
V2015-10-22 04:27:25
p3342
tp3343
assV4
p3344
g2
(g3
tp3345
Rp3346
g6
(lp3347
(V[C(52-5,2)-C(52-5-4,2)+4^2]/[C(52-5,2)]
p3348
V4
p3349
tp3350
a(V[C(52-5,2)-C(52-5-4,2)+4^2]/[C(52-5,2)]
p3351
V2
p3352
tp3353
a(g3351
V7
p3354
tp3355
asS"['R.0.0']"
p3356
(lp3357
(V[C(52-5,2)-C(52-5-4,2)+4^2]/[C(52-5,2)]
p3358
V((C(5,5)*(C(47,2)-C(43,2)))+(C(5,5)*C(8,2)))/((47!/(2!45!)))
p3359
(lp3360
(S'R.0.0'
p3361
F178.0
VC(52-5,2)-C(52-5-4,2)
p3362
VC(5,5)*(C(47,2)-C(43,2))
p3363
tp3364
aVccn001
p3365
(lp3366
V2015-10-21 03:14:58
p3367
tp3368
a(g3358
V((C(5,5)*(C(47,2)-C(43,2)))+(C(5,5)*C(16,2)))/((47!/(2!45!)))
p3369
(lp3370
(S'R.0.0'
p3371
F178.0
VC(52-5,2)-C(52-5-4,2)
p3372
VC(5,5)*(C(47,2)-C(43,2))
p3373
tp3374
aVccn001
p3375
g3366
V2015-10-21 03:25:37
p3376
tp3377
asS"['R.0.0.1', 'R.0.1']"
p3378
(lp3379
(V[C(52-5,2)-C(52-5-4,2)+4^2]/[C(52-5,2)]
p3380
V(C(52,2)-C(52-5-4,2)+4^2)/C(52-5,2)
p3381
(lp3382
(S'R.0.0.1'
p3383
I903
VC(52-5-4,2)
p3384
VC(52-5-4,2)
p3385
tp3386
a(S'R.0.1'
p3387
F16.0
V4^2
p3388
V4^2
p3389
tp3390
aVctroncos
p3391
g1377
V2015-10-22 17:06:16
p3392
tp3393
asg1078
(lp3394
(V[C(52-5,2)-C(52-5-4,2)+4^2]/[C(52-5,2)]
p3395
V(4**2+ C(52-5,2)-C(52-4,2))/C(47,2)
p3396
tp3397
asg1412
(lp3398
(V[C(52-5,2)-C(52-5-4,2)+4^2]/[C(52-5,2)]
p3399
V20/C(47,2)
p3400
tp3401
a(V[C(52-5,2)-C(52-5-4,2)+4^2]/[C(52-5,2)]
p3402
VC(4,1)^2/C(47,2)
p3403
tp3404
a(V[C(52-5,2)-C(52-5-4,2)+4^2]/[C(52-5,2)]
p3405
V[16+4*46]/[C(47,2)]
p3406
tp3407
a(V[C(52-5,2)-C(52-5-4,2)+4^2]/[C(52-5,2)]
p3408
V(22)/(C(47,2))
p3409
tp3410
a(V[C(52-5,2)-C(52-5-4,2)+4^2]/[C(52-5,2)]
p3411
V((C(8,2)+5)+(C(4,1)+5+C(46,1)))/(C(47,2)+5)
p3412
tp3413
a(V[C(52-5,2)-C(52-5-4,2)+4^2]/[C(52-5,2)]
p3414
V24/C(47,2)
p3415
tp3416
a(g3414
V200/C(47,2)
p3417
tp3418
a(g3414
V22/C(47,2)
p3419
tp3420
a(g3414
V188/C(47,2)
p3421
tp3422
a(g3414
V128/C(47,2)
p3423
tp3424
a(V[C(52-5,2)-C(52-5-4,2)+4^2]/[C(52-5,2)]
p3425
V[C(2*4,2)+C(52-5,2)-C(52-5-4,2)]/C(47,2)
p3426
tp3427
a(g3425
V[C(52-5,2)-C(52-5-8,2)+C(52-5,2)-C(52-5-4,2)]/C(47,2)
p3428
tp3429
a(g3425
V[C(8,2)+C(52-5,2)-C(52-5-4,2)]/C(47,2)
p3430
tp3431
a(V[C(52-5,2)-C(52-5-4,2)+4^2]/[C(52-5,2)]
p3432
V(C(13,2)*C(4,2)+C(13,1)*C(4,1)*C(46,1))/(C(47,2))
p3433
tp3434
a(g3425
V[C(52-5,2)-C(52-5-2,2)+C(52-5,2)-C(52-5-4,2)]/C(47,2)
p3435
tp3436
a(g3425
V[8+C(52-5,2)-C(52-5-4,2)]/C(47,2)
p3437
tp3438
a(V[C(52-5,2)-C(52-5-4,2)+4^2]/[C(52-5,2)]
p3439
V(4*4 + (C(4,1)*46))/(C(47,2))
p3440
tp3441
a(V[C(52-5,2)-C(52-5-4,2)+4^2]/[C(52-5,2)]
p3442
V200/1081
p3443
tp3444
a(V[C(52-5,2)-C(52-5-4,2)+4^2]/[C(52-5,2)]
p3445
V0.2257
p3446
tp3447
a(g3442
V356/1082
p3448
tp3449
a(g3442
V135/1082
p3450
tp3451
a(g3442
V368/1082
p3452
tp3453
a(g3442
V108/1082
p3454
tp3455
a(V[C(52-5,2)-C(52-5-4,2)+4^2]/[C(52-5,2)]
p3456
V8/[47!/(2!45!)]
p3457
tp3458
a(g3456
V518/[47!/(2!45!)]
p3459
tp3460
a(g3456
V206/[47!/(2!45!)]
p3461
tp3462
a(V[C(52-5,2)-C(52-5-4,2)+4^2]/[C(52-5,2)]
p3463
V((16) + (4 * 46))/(C(47,2))
p3464
tp3465
a(V[C(52-5,2)-C(52-5-4,2)+4^2]/[C(52-5,2)]
p3466
V(16 + 46*C(4,1))/C(47,2)
p3467
tp3468
a(g3466
V(16 + 47*C(4,1))/C(47,2)
p3469
tp3470
a(V[C(52-5,2)-C(52-5-4,2)+4^2]/[C(52-5,2)]
p3471
V4*8/C(52-5,2)
p3472
tp3473
a(g3466
V(16 + 46*4)/C(47,2)
p3474
tp3475
a(V[C(52-5,2)-C(52-5-4,2)+4^2]/[C(52-5,2)]
p3476
V200/1081
p3477
tp3478
a(V[C(52-5,2)-C(52-5-4,2)+4^2]/[C(52-5,2)]
p3479
V(32+2*46)/C(47,2)
p3480
tp3481
a(g3479
V(16+46)/C(47,2)
p3482
tp3483
a(g3479
V(16+4*46)/C(47,2)
p3484
tp3485
a(V[C(52-5,2)-C(52-5-4,2)+4^2]/[C(52-5,2)]
p3486
V36/1081
p3487
tp3488
a(g3486
V136/1081
p3489
tp3490
a(g3486
V754/1081
p3491
tp3492
a(g3486
V524/1081
p3493
tp3494
a(V[C(52-5,2)-C(52-5-4,2)+4^2]/[C(52-5,2)]
p3495
V0.090656799
p3496
tp3497
a(g3495
V0.185013876
p3498
tp3499
a(g3495
V0.09990749
p3500
tp3501
a(g3495
V0.155411656
p3502
tp3503
a(V[C(52-5,2)-C(52-5-4,2)+4^2]/[C(52-5,2)]
p3504
V10/1081
p3505
tp3506
a(g3504
V32/C(47,2)
p3507
tp3508
a(g3504
V24/C(47,2)
p3509
tp3510
a(g3504
V12/C(47,2)
p3511
tp3512
a(g3504
V20/C(47,2)
p3513
tp3514
a(V[C(52-5,2)-C(52-5-4,2)+4^2]/[C(52-5,2)]
p3515
V20/C(47,2)
p3516
tp3517
a(g3515
V(16+4*46)/C(47,2)
p3518
tp3519
a(V[C(52-5,2)-C(52-5-4,2)+4^2]/[C(52-5,2)]
p3520
V24/(C(47,2))
p3521
tp3522
a(g3520
V(C(47,2) - 43)/(C(47,2))
p3523
tp3524
a(V[C(52-5,2)-C(52-5-4,2)+4^2]/[C(52-5,2)]
p3525
V28/1081
p3526
tp3527
a(g3525
V20/1081
p3528
tp3529
a(g3525
V22/1081
p3530
tp3531
a(g3525
V200/1081
p3532
tp3533
a(g3525
V192/1081
p3534
tp3535
a(g3525
V107/1081
p3536
tp3537
a(g3380
VC(52,12)
p3538
tp3539
a(g3380
V(C(52-5,2)-C(52-5-4,2)+4^2)
p3540
tp3541
a(V[C(52-5,2)-C(52-5-4,2)+4^2]/[C(52-5,2)]
p3542
V24/1081
p3543
tp3544
a(g3542
V36/1081
p3545
tp3546
a(g3542
V30/1081
p3547
tp3548
a(g3542
V107/1081
p3549
tp3550
a(V[C(52-5,2)-C(52-5-4,2)+4^2]/[C(52-5,2)]
p3551
V[C(8,2)+C(47,2)-C(43,2)]/[C(47,2)]
p3552
tp3553
a(V[C(52-5,2)-C(52-5-4,2)+4^2]/[C(52-5,2)]
p3554
V3/(C(47,2))
p3555
tp3556
a(g3554
V48/(C(47,2))
p3557
tp3558
a(g3554
V(4*28)/(C(47,2))
p3559
tp3560
a(g3554
V(16+32)/(C(47,2))
p3561
tp3562
a(g3554
V(4*46)/(C(47,2))
p3563
tp3564
a(g3554
V(16 + 4*46)/(C(47,2))
p3565
tp3566
a(g3554
V(16 + 46)/(C(47,2))
p3567
tp3568
a(g3554
V(16 + 4*42)/(C(47,2))
p3569
tp3570
a(g3554
V(16 + 4*38)/(C(47,2))
p3571
tp3572
a(g3554
V(16 + 16)/(C(47,2))
p3573
tp3574
a(g3554
V(16 + 12)/(C(47,2))
p3575
tp3576
a(g3554
V(16 + 44)/(C(47,2))
p3577
tp3578
a(V[C(52-5,2)-C(52-5-4,2)+4^2]/[C(52-5,2)]
p3579
V188/1081
p3580
tp3581
asS"['R.0']"
p3582
(lp3583
(V[C(52-5,2)-C(52-5-4,2)+4^2]/[C(52-5,2)]
p3584
V16+178+1081/ C(47,2)
p3585
(lp3586
(S'R.0'
p3587
F194.0
VC(52-5,2)-C(52-5-4,2)+4^2
p3588
V16+178
p3589
tp3590
aVvsosnovs
p3591
g738
V2015-10-22 06:47:35
p3592
tp3593
a(V[C(52-5,2)-C(52-5-4,2)+4^2]/[C(52-5,2)]
p3594
V16+12/2 + (2*4*43)/2+C(47,2)
p3595
(lp3596
(S'R.0'
p3597
F194.0
VC(52-5,2)-C(52-5-4,2)+4^2
p3598
V16+12/2 + (2*4*43)/2
p3599
tp3600
aVakhmelni
p3601
(lp3602
V2015-10-22 22:30:09
p3603
tp3604
asS"['R.0.0', 'R.0.1']"
p3605
(lp3606
(g3402
V(C(47,2)-C(43,2))*C(4,1)^2/C(47,2)
p3607
(lp3608
(S'R.0.0'
p3609
F178.0
VC(52-5,2)-C(52-5-4,2)
p3610
VC(47,2)-C(43,2)
p3611
tp3612
a(S'R.0.1'
p3613
F16.0
V4^2
p3614
VC(4,1)^2
p3615
tp3616
aVj5phung
p3617
g322
V2015-10-16 23:55:04
p3618
tp3619
asS"['R.0.0.1']"
p3620
(lp3621
(V[C(52-5,2)-C(52-5-4,2)+4^2]/[C(52-5,2)]
p3622
V(16+C(52-5-4,2)-12)/(C(47,2))
p3623
(lp3624
(S'R.0.0.1'
p3625
I903
VC(52-5-4,2)
p3626
VC(52-5-4,2)
p3627
tp3628
aVbakang
p3629
(lp3630
V2015-10-22 07:31:46
p3631
tp3632
asS"['R.0.1']"
p3633
(lp3634
(g3402
V12*C(4,1)^2/C(47,2)
p3635
(lp3636
(S'R.0.1'
p3637
F16.0
V4^2
p3638
VC(4,1)^2
p3639
tp3640
aVj5phung
p3641
g322
V2015-10-16 19:44:26
p3642
tp3643
a(g3504
V(C(4,2)+16)/C(47,2)
p3644
(lp3645
(S'R.0.1'
p3646
F16.0
V4^2
p3647
V16
p3648
tp3649
aVhsc052
p3650
g2972
V2015-10-22 04:43:01
p3651
tp3652
a(g3504
V(C(4,2)+4+4+16)/C(47,2)
p3653
(lp3654
(S'R.0.1'
p3655
F16.0
V4^2
p3656
V16
p3657
tp3658
aVhsc052
p3659
g2972
V2015-10-22 04:43:29
p3660
tp3661
a(g3504
V(C(4,2)+C(4,1)+16)/C(47,2)
p3662
(lp3663
(S'R.0.1'
p3664
F16.0
V4^2
p3665
V16
p3666
tp3667
aVhsc052
p3668
g2972
V2015-10-22 04:55:09
p3669
tp3670
asS"['R.0.0.1.1']"
p3671
(lp3672
(g3432
V(C(52,5)*C(13,2)*C(4,2)+C(52,5)*C(13,1)*C(4,1)*C(46,1))/(C(52,5))
p3673
(lp3674
(S'R.0.0.1.1'
p3675
F2.0
g319
g319
tp3676
aVw4shin
p3677
g1214
V2015-10-19 19:30:48
p3678
tp3679
ass.