(dp0
V1
p1
(dp2
Vb3hwang
p3
(dp4
S'part1_correct_attempt'
p5
(lp6
S'0:00:04'
p7
aV1+2+3+4+5
p8
asS'first_attempt'
p9
V2015-10-21 01:22:52
p10
sS'part1_incorrect_attempt'
p11
(lp12
(S'0:00:00'
p13
V1+2+3+4
p14
tp15
assVttimmons
p16
(dp17
S'part1_correct_attempt'
p18
(lp19
S'0:04:33'
p20
aV1+2+3+4+5
p21
asg9
V2015-10-20 16:38:57
p22
sS'part1_incorrect_attempt'
p23
(lp24
(S'0:00:00'
p25
V[(5^2)/2] - [1/2]
p26
tp27
assVctroncos
p28
(dp29
S'part1_correct_attempt'
p30
(lp31
S'0:09:53'
p32
aV1+2+3+4+5
p33
asg9
V2015-10-17 23:26:20
p34
sS'part1_incorrect_attempt'
p35
(lp36
(S'0:00:00'
p37
V(5^2)/2 - ((1/2))
p38
tp39
assVaggouw
p40
(dp41
S'part1_correct_attempt'
p42
(lp43
S'23:46:31'
p44
aV1+2+3+4+5
p45
asg9
V2015-10-17 00:29:15
p46
sS'part1_incorrect_attempt'
p47
(lp48
(S'0:00:00'
p49
V(25/2) - (1/2)
p50
tp51
a(S'0:00:00'
p52
V5!
p53
tp54
assVglcohen
p55
(dp56
S'part1_correct_attempt'
p57
(lp58
S'0:39:32'
p59
aV1+2+3+4+5
p60
asg9
V2015-10-17 22:01:27
p61
sS'part1_incorrect_attempt'
p62
(lp63
(S'0:00:00'
p64
VC(5,2)
p65
tp66
a(S'0:28:34'
p67
V22-5
p68
tp69
assVppanourg
p70
(dp71
S'part1_correct_attempt'
p72
(lp73
S'0:00:06'
p74
aV1+2+3+4+5
p75
asg9
V2015-10-22 06:17:50
p76
sS'part1_incorrect_attempt'
p77
(lp78
(S'0:00:00'
p79
V1+2+3+4
p80
tp81
assVspw006
p82
(dp83
S'part1_correct_attempt'
p84
(lp85
S'0:13:24'
p86
aV1+2+3+4+5
p87
asg9
V2015-10-20 00:34:15
p88
sS'part1_incorrect_attempt'
p89
(lp90
(S'0:00:00'
p91
V1+4+9+16
p92
tp93
a(S'0:00:04'
p94
V1+4+9+16+25
p95
tp96
assVmasaro
p97
(dp98
S'part1_correct_attempt'
p99
(lp100
S'14:19:30'
p101
aV15
p102
asg9
V2015-10-16 06:58:26
p103
sS'part1_incorrect_attempt'
p104
(lp105
(S'0:00:00'
p106
V25/2 - 1/2
p107
tp108
assVanislam
p109
(dp110
S'part1_correct_attempt'
p111
(lp112
S'0:00:55'
p113
aV5+4+3+2+1
p114
asg9
V2015-10-22 08:16:06
p115
sS'part1_incorrect_attempt'
p116
(lp117
(S'0:00:00'
p118
V5!
p119
tp120
assVsachadal
p121
(dp122
S'part1_correct_attempt'
p123
(lp124
S'0:00:14'
p125
aV15
p126
asg9
V2015-10-22 06:21:40
p127
sS'part1_incorrect_attempt'
p128
(lp129
(S'0:00:00'
p130
V6*3
p131
tp132
assVasetters
p133
(dp134
S'part1_correct_attempt'
p135
(lp136
S'0:00:53'
p137
aV1+2+3+4+5
p138
asg9
V2015-10-19 05:12:50
p139
sS'part1_incorrect_attempt'
p140
(lp141
(S'0:00:00'
p142
V1+2+3+4
p143
tp144
assVctgraves
p145
(dp146
S'part1_correct_attempt'
p147
(lp148
S'0:07:40'
p149
aV5*6/2
p150
asg9
V2015-10-21 00:48:52
p151
sS'part1_incorrect_attempt'
p152
(lp153
(S'0:00:00'
p154
V5*5/2-1/2
p155
tp156
a(S'0:02:45'
p157
V5*5/2-1*1/2
p158
tp159
assValhung
p160
(dp161
S'part1_correct_attempt'
p162
(lp163
S'8:03:11'
p164
aV(5*6)/2
p165
asg9
V2015-10-22 08:46:38
p166
sS'part1_incorrect_attempt'
p167
(lp168
(S'0:00:00'
p169
V(1/2)*(5^2-1)
p170
tp171
assVj5phung
p172
(dp173
S'part1_correct_attempt'
p174
(lp175
S'0:42:07'
p176
aV15
p177
asg9
V2015-10-16 14:59:34
p178
sS'part1_incorrect_attempt'
p179
(lp180
(S'0:00:00'
p181
V5^5
p182
tp183
assVp4kumar
p184
(dp185
S'part1_correct_attempt'
p186
(lp187
S'0:08:37'
p188
aV1+2+3+4+5
p189
asg9
V2015-10-20 21:47:07
p190
sS'part1_incorrect_attempt'
p191
(lp192
(S'0:00:00'
p193
V25/2-1/2
p194
tp195
a(S'0:07:14'
p196
V(5-1)
p197
tp198
assVs2chaudh
p199
(dp200
S'part1_correct_attempt'
p201
(lp202
S'0:00:13'
p203
aV15
p204
asg9
V2015-10-19 16:09:48
p205
sS'part1_incorrect_attempt'
p206
(lp207
(S'0:00:00'
p208
V5*4*3*2*1
p209
tp210
assVdcrume
p211
(dp212
S'part1_correct_attempt'
p213
(lp214
S'0:11:23'
p215
aV15
p216
asg9
V2015-10-21 18:02:58
p217
sS'part1_incorrect_attempt'
p218
(lp219
(S'0:00:00'
p220
V.5 + 4  + (9/2) + 8
p221
tp222
assVgsrandha
p223
(dp224
S'part1_correct_attempt'
p225
(lp226
S'23:21:52'
p227
aV5+4+3+2+1
p228
asg9
V2015-10-16 00:48:24
p229
sS'part1_incorrect_attempt'
p230
(lp231
(S'0:00:00'
p232
V5!
p233
tp234
assVhaw081
p235
(dp236
S'part1_correct_attempt'
p237
(lp238
S'0:08:17'
p239
aV1+2+3+4+5
p240
asg9
V2015-10-18 05:11:34
p241
sS'part1_incorrect_attempt'
p242
(lp243
(S'0:00:00'
p244
V0.5((5)^2-1)
p245
tp246
assVjhc010
p247
(dp248
S'part1_correct_attempt'
p249
(lp250
S'0:04:14'
p251
aV1+2+3+4+5
p252
asg9
V2015-10-22 05:27:36
p253
sS'part1_incorrect_attempt'
p254
(lp255
(S'0:00:00'
p256
V5!
p257
tp258
a(S'0:04:09'
p259
V1+2+3+4
p260
tp261
assVanl114
p262
(dp263
S'part1_correct_attempt'
p264
(lp265
S'0:01:21'
p266
aV1+2+3+4+5
p267
asg9
V2015-10-22 08:03:45
p268
sS'part1_incorrect_attempt'
p269
(lp270
(S'0:00:00'
p271
V4+3+2+1
p272
tp273
assVrlhagen
p274
(dp275
S'part1_correct_attempt'
p276
(lp277
S'0:22:47'
p278
aV1+2+3+4+5
p279
asg9
V2015-10-18 15:16:38
p280
sS'part1_incorrect_attempt'
p281
(lp282
(S'0:00:00'
p283
V5!
p284
tp285
a(S'0:01:55'
p286
V2!
p287
tp288
assVagarango
p289
(dp290
S'part1_correct_attempt'
p291
(lp292
S'5:30:14'
p293
aV15
p294
asg9
V2015-10-20 20:01:53
p295
sS'part1_incorrect_attempt'
p296
(lp297
(S'0:00:00'
p298
V(2)+(3)+(4)+(5)
p299
tp300
a(S'0:02:28'
p301
V(4)+(9)+(16)+(25)
p302
tp303
assVssamudra
p304
(dp305
S'part1_correct_attempt'
p306
(lp307
S'0:11:31'
p308
aV15
p309
asg9
V2015-10-22 22:11:24
p310
sS'part1_incorrect_attempt'
p311
(lp312
(S'0:00:00'
p313
V25/2*100
p314
tp315
assVthwan
p316
(dp317
S'part1_correct_attempt'
p318
(lp319
S'0:03:11'
p320
aV1+2+3+4+5
p321
asg9
V2015-10-17 21:47:32
p322
sS'part1_incorrect_attempt'
p323
(lp324
(S'0:00:00'
p325
V(5^2-1^2)/2
p326
tp327
assVl8ngo
p328
(dp329
S'part1_correct_attempt'
p330
(lp331
S'0:29:15'
p332
aV1+2+3+4+5
p333
asg9
V2015-10-16 21:00:03
p334
sS'part1_incorrect_attempt'
p335
(lp336
(S'0:00:00'
p337
V5^22 - 5
p338
tp339
assVlcardoso
p340
(dp341
S'part1_correct_attempt'
p342
(lp343
S'0:02:39'
p344
aV1+2+3+4+5
p345
asg9
V2015-10-22 17:23:20
p346
sS'part1_incorrect_attempt'
p347
(lp348
(S'0:00:00'
p349
V220*((5^2-1)/440)
p350
tp351
assVmcatozzi
p352
(dp353
S'part1_correct_attempt'
p354
(lp355
S'0:00:04'
p356
aV15
p357
asg9
V2015-10-20 22:05:27
p358
sS'part1_incorrect_attempt'
p359
(lp360
(S'0:00:00'
p361
V20*21/2
p362
tp363
assVaadhakal
p364
(dp365
S'part1_correct_attempt'
p366
(lp367
S'0:00:11'
p368
aV5+4+3+2+1
p369
asg9
V2015-10-21 19:25:02
p370
sS'part1_incorrect_attempt'
p371
(lp372
(S'0:00:00'
p373
V5!
p374
tp375
assVedescobe
p376
(dp377
S'part1_correct_attempt'
p378
(lp379
S'0:07:52'
p380
aV15
p381
asg9
V2015-10-18 09:53:08
p382
sS'part1_incorrect_attempt'
p383
(lp384
(S'0:00:00'
p385
V.5*(25-1)
p386
tp387
assVw4shin
p388
(dp389
S'part1_correct_attempt'
p390
(lp391
S'0:00:55'
p392
aV1+2+3+4+5
p393
asg9
V2015-10-17 20:23:23
p394
sS'part1_incorrect_attempt'
p395
(lp396
(S'0:00:00'
p397
V(1/2)*(25-1)
p398
tp399
assVacs008
p400
(dp401
S'part1_correct_attempt'
p402
(lp403
S'1 day, 5:15:13'
p404
aV1+2+3+4+5
p405
asg9
V2015-10-20 23:43:45
p406
sS'part1_incorrect_attempt'
p407
(lp408
(S'0:00:00'
p409
V5!
p410
tp411
a(S'0:00:00'
p412
V25/2-1/2
p413
tp414
assVhmshah
p415
(dp416
S'part1_correct_attempt'
p417
(lp418
S'12:15:07'
p419
aV1+2+3+4+5
p420
asg9
V2015-10-22 09:25:01
p421
sS'part1_incorrect_attempt'
p422
(lp423
(S'0:00:00'
p424
VC(24,5)
p425
tp426
assVwcwhite
p427
(dp428
g9
V2015-10-22 22:58:16
p429
sS'part1_incorrect_attempt'
p430
(lp431
(S'0:00:00'
p432
V5!
p433
tp434
assVv4sharma
p435
(dp436
S'part1_correct_attempt'
p437
(lp438
S'0:07:03'
p439
aV1+2+3+4+5
p440
asg9
V2015-10-20 21:04:25
p441
sS'part1_incorrect_attempt'
p442
(lp443
(S'0:00:00'
p444
V(4+9+16+25)/2
p445
tp446
assVaordookh
p447
(dp448
S'part1_correct_attempt'
p449
(lp450
S'0:13:45'
p451
aV15
p452
asg9
V2015-10-21 21:08:07
p453
sS'part1_incorrect_attempt'
p454
(lp455
(S'0:00:00'
p456
V5.0
p457
tp458
assVralhadda
p459
(dp460
g9
V2015-10-22 18:01:05
p461
sS'part1_incorrect_attempt'
p462
(lp463
(S'0:00:00'
p464
V25-1
p465
tp466
a(S'0:07:12'
p467
V5^2
p468
tp469
a(S'3:19:57'
p470
V5^2
p471
tp472
assVytc012
p473
(dp474
S'part1_correct_attempt'
p475
(lp476
S'0:38:17'
p477
aV15
p478
asg9
V2015-10-20 09:24:47
p479
sS'part1_incorrect_attempt'
p480
(lp481
(S'0:00:00'
p482
V25/2-1/2
p483
tp484
a(S'0:32:13'
p485
V5!
p486
tp487
a(S'0:32:17'
p488
V5!/24
p489
tp490
assVmtrafeca
p491
(dp492
S'part1_correct_attempt'
p493
(lp494
S'23:26:33'
p495
aV1+2+3+4+5
p496
asg9
V2015-10-20 08:13:41
p497
sS'part1_incorrect_attempt'
p498
(lp499
(S'0:00:00'
p500
V22-1
p501
tp502
assVmjethani
p503
(dp504
S'part1_correct_attempt'
p505
(lp506
S'1:48:17'
p507
aV1+2+3+4+5
p508
asg9
V2015-10-21 20:22:43
p509
sS'part1_incorrect_attempt'
p510
(lp511
(S'0:00:00'
p512
V((23^2)/2) - 1/2
p513
tp514
a(S'0:01:04'
p515
V(25/2)-(1/2)
p516
tp517
asssV2
p518
(dp519
Vphodgson
p520
(dp521
S'part2_correct_attempt'
p522
(lp523
S'0:02:39'
p524
aV26*25*.5
p525
asg9
V2015-10-21 00:42:37
p526
sS'part2_incorrect_attempt'
p527
(lp528
(S'0:00:26'
p529
V25*24* .5
p530
tp531
assVh4tu
p532
(dp533
S'part2_correct_attempt'
p534
(lp535
S'0:02:51'
p536
aV(1+20)*10
p537
asg9
V2015-10-22 00:43:01
p538
sS'part2_incorrect_attempt'
p539
(lp540
(S'0:02:21'
p541
V(1+20)*5
p542
tp543
assVtcn013
p544
(dp545
S'part2_correct_attempt'
p546
(lp547
S'0:02:04'
p548
aV253
p549
asg9
V2015-10-22 00:04:33
p550
sS'part2_incorrect_attempt'
p551
(lp552
(S'0:00:00'
p553
V28+9+21+25+29+33+37+41+22
p554
tp555
assVyjshin
p556
(dp557
S'part2_correct_attempt'
p558
(lp559
S'0:00:00'
p560
aV1+2+3+4+5+6+7+8+9+10+11+12+13+14+15+16+17+18+19+20+21+22+23+24
p561
asg9
V2015-10-22 13:49:44
p562
sS'part2_incorrect_attempt'
p563
(lp564
(S'-2 days, 1:04:40'
p565
V576/2
p566
tp567
assVccn001
p568
(dp569
S'part2_correct_attempt'
p570
(lp571
S'0:00:00'
p572
aV22+21+20+19+18+17+16+15+14+13+12+11+10+9+8+7+6+5+4+3+2+1
p573
asg9
V2015-10-20 18:22:50
p574
sS'part2_incorrect_attempt'
p575
(lp576
(S'-3 days, 9:18:03'
p577
V22^2/2
p578
tp579
assVfichoi
p580
(dp581
S'part2_correct_attempt'
p582
(lp583
S'0:00:09'
p584
aV1+2+3+4+5+6+7+8+9+10+11+12+13+14+15+16+17+18+19+20+21+22+23+24
p585
asg9
V2015-10-22 00:41:35
p586
sS'part2_incorrect_attempt'
p587
(lp588
(S'0:00:00'
p589
V1+2+3+4+5+6+7+8+9+10+11+12+13+14+15+16+17+18+19+20+21+22+23+24+25
p590
tp591
assVewbrenna
p592
(dp593
S'part2_correct_attempt'
p594
(lp595
S'0:01:37'
p596
aV23+22+21+20+19+18+17+16+15+14+13+12+11+10+9+8+7+6+5+4+3+2+1
p597
asg9
V2015-10-22 06:19:35
p598
sS'part2_incorrect_attempt'
p599
(lp600
(S'0:00:48'
p601
V3!
p602
tp603
a(S'0:00:54'
p604
V23!
p605
tp606
assVkrau
p607
(dp608
S'part2_correct_attempt'
p609
(lp610
S'0:01:01'
p611
aV276
p612
asg9
V2015-10-21 03:26:24
p613
sS'part2_incorrect_attempt'
p614
(lp615
(S'-1 day, 19:34:24'
p616
V23/23
p617
tp618
assVl5han
p619
(dp620
S'part2_correct_attempt'
p621
(lp622
S'0:00:00'
p623
aV 300
p624
asg9
V2015-10-22 06:20:30
p625
sS'part2_incorrect_attempt'
p626
(lp627
(S'-1 day, 23:48:56'
p628
V 24
p629
tp630
a(S'-1 day, 23:49:07'
p631
V 24.0
p632
tp633
assVctgraves
p634
(dp635
S'part2_correct_attempt'
p636
(lp637
S'0:00:00'
p638
aV25*26/2
p639
asg9
V2015-10-21 00:56:32
p640
sS'part2_incorrect_attempt'
p641
(lp642
(S'-1 day, 23:51:14'
p643
V25*25
p644
tp645
assValhung
p646
(dp647
S'part2_correct_attempt'
p648
(lp649
S'0:00:00'
p650
aV(21*22)/2
p651
asg9
V2015-10-22 16:49:49
p652
sS'part2_incorrect_attempt'
p653
(lp654
(S'-1 day, 15:56:49'
p655
V(1/2)*(21^2-1)
p656
tp657
assVbeyounge
p658
(dp659
S'part2_correct_attempt'
p660
(lp661
S'0:00:42'
p662
aV231
p663
asg9
V2015-10-17 07:24:05
p664
sS'part2_incorrect_attempt'
p665
(lp666
(S'-1 day, 21:15:42'
p667
V21/21
p668
tp669
a(S'-1 day, 23:35:32'
p670
V21/21
p671
tp672
assVj5phung
p673
(dp674
S'part2_correct_attempt'
p675
(lp676
S'0:00:26'
p677
aV325
p678
asg9
V2015-10-16 15:41:41
p679
sS'part2_incorrect_attempt'
p680
(lp681
(S'-1 day, 23:17:53'
p682
V25^25
p683
tp684
assVn2patil
p685
(dp686
S'part2_correct_attempt'
p687
(lp688
S'0:01:58'
p689
aV1+2+3+4+5+6+7+8+9+10+11+12+13+14+15+16+17+18+19+20+21+22+23+24
p690
asg9
V2015-10-17 18:12:00
p691
sS'part2_incorrect_attempt'
p692
(lp693
(S'0:01:23'
p694
V1+2+3+4+5+6+7+8+9+10+11+12+13+14+15+16+17+18+19+20+21+22+23+24+25
p695
tp696
assVjmiclat
p697
(dp698
S'part2_correct_attempt'
p699
(lp700
S'0:26:58'
p701
aV1+2+3+4+5+6+7+8+9+10+11+12+13+14+15+16+17+18+19+20+21+22+23+24
p702
asg9
V2015-10-20 19:08:23
p703
sS'part2_incorrect_attempt'
p704
(lp705
(S'0:25:46'
p706
V1+2+3+4+5+6+7+8+9+10+11+12+13+14+15+16+17+18+19+20+21+22+23+24+25
p707
tp708
assVksmurlo
p709
(dp710
S'part2_correct_attempt'
p711
(lp712
S'0:00:00'
p713
aV22+21+20+19+18+17+16+15+14+13+12+11+10+9+8+7+6+5+4+3+2+1
p714
asg9
V2015-10-20 22:57:57
p715
sS'part2_incorrect_attempt'
p716
(lp717
(S'-1 day, 23:59:21'
p718
V22/22
p719
tp720
assVhaw081
p721
(dp722
S'part2_correct_attempt'
p723
(lp724
S'0:00:40'
p725
aV1+2+3+4+5+6+7+8+9+10+11+12+13+14+15+16+17+18+19+21+20
p726
asg9
V2015-10-18 05:19:51
p727
sS'part2_incorrect_attempt'
p728
(lp729
(S'0:00:24'
p730
V1+2+3+4+5+6+7+8+9+10+11+12+13+14+15+16+17+18+19+21+21
p731
tp732
assVjhc010
p733
(dp734
S'part2_correct_attempt'
p735
(lp736
S'0:02:08'
p737
aV22*10+11
p738
asg9
V2015-10-22 05:31:50
p739
sS'part2_incorrect_attempt'
p740
(lp741
(S'0:00:59'
p742
V22*10
p743
tp744
a(S'0:01:03'
p745
V22*10+1
p746
tp747
a(S'0:02:04'
p748
V22*11+11
p749
tp750
assVrlhagen
p751
(dp752
S'part2_correct_attempt'
p753
(lp754
S'0:00:30'
p755
aV1+2+3+4+5+6+7+8+9+10+11+12+13+14+15+16+17+18+19+20+21+22+23
p756
asg9
V2015-10-18 15:39:25
p757
sS'part2_incorrect_attempt'
p758
(lp759
(S'-1 day, 23:37:13'
p760
V23!
p761
tp762
assVc2qiu
p763
(dp764
S'part2_correct_attempt'
p765
(lp766
S'0:00:16'
p767
aV26*12.5
p768
asg9
V2015-10-22 15:08:56
p769
sS'part2_incorrect_attempt'
p770
(lp771
(S'-1 day, 5:42:41'
p772
V25*26*51/6
p773
tp774
assVganajera
p775
(dp776
S'part2_correct_attempt'
p777
(lp778
S'0:00:00'
p779
aV24((24+1)/2)
p780
asg9
V2015-10-16 00:52:29
p781
sS'part2_incorrect_attempt'
p782
(lp783
(S'-1 day, 23:47:24'
p784
V(24^2)/2
p785
tp786
assVralhadda
p787
(dp788
g9
V2015-10-22 21:21:02
p789
sS'part2_incorrect_attempt'
p790
(lp791
(S'0:00:00'
p792
V21^2
p793
tp794
assVs6deng
p795
(dp796
g9
V2015-10-21 20:30:46
p797
sS'part2_incorrect_attempt'
p798
(lp799
(S'0:00:00'
p800
V(25^2)
p801
tp802
assVdgunawan
p803
(dp804
S'part2_correct_attempt'
p805
(lp806
S'0:00:20'
p807
aV24(25)/2
p808
asg9
V2015-10-21 01:32:20
p809
sS'part2_incorrect_attempt'
p810
(lp811
(S'0:00:00'
p812
V21(20)/2
p813
tp814
a(S'0:00:08'
p815
V24(23)/2
p816
tp817
assVrraiyyan
p818
(dp819
S'part2_correct_attempt'
p820
(lp821
S'0:04:59'
p822
aV(23*22)/2
p823
asg9
V2015-10-20 06:52:10
p824
sS'part2_incorrect_attempt'
p825
(lp826
(S'0:04:40'
p827
V(22*21)/2
p828
tp829
assVavasavad
p830
(dp831
S'part2_correct_attempt'
p832
(lp833
S'0:00:52'
p834
aV1+2+3+4+5+6+7+8+9+10+11+12+13+14+15+16+17+18+19+20+21+22+23+24
p835
asg9
V2015-10-22 19:39:20
p836
sS'part2_incorrect_attempt'
p837
(lp838
(S'0:00:38'
p839
V1+2+3+4+5+6+7+8+9+10+11+12+113+14+15+16+17+18+19+20+21+22+23+24
p840
tp841
assVthwan
p842
(dp843
S'part2_correct_attempt'
p844
(lp845
S'0:00:00'
p846
aV1+2+3+4+5+6+7+8+9+10+11+12+13+14+15+16+17+18+19+20+21+22+23
p847
asg9
V2015-10-17 21:50:43
p848
sS'part2_incorrect_attempt'
p849
(lp850
(S'-1 day, 23:56:49'
p851
V(23^2-1^2)/2
p852
tp853
assVl8ngo
p854
(dp855
S'part2_correct_attempt'
p856
(lp857
S'0:00:00'
p858
aV1+2+3+4+5+6+7+8+9+10+11+12+13+14+15+16+17+18+19+20+21+22
p859
asg9
V2015-10-16 21:29:18
p860
sS'part2_incorrect_attempt'
p861
(lp862
(S'-1 day, 22:44:03'
p863
V[22^2]/2
p864
tp865
assVajabasa
p866
(dp867
S'part2_correct_attempt'
p868
(lp869
S'0:01:03'
p870
aV1+2+3+4+5+6+7+8+9+10+11+12+13+14+15+16+17+18+19+20+21+22+23+24
p871
asg9
V2015-10-22 01:06:03
p872
sS'part2_incorrect_attempt'
p873
(lp874
(S'0:00:36'
p875
V1+2+3+4+5+6+7+8+9+10+11+12+13+14+15+16+17+18+19+20+21+22+23+24+25
p876
tp877
assVlcardoso
p878
(dp879
S'part2_correct_attempt'
p880
(lp881
S'0:00:26'
p882
aV1+2+3+4+5+6+7+8+9+10+11+12+13+14+15+16+17+18+19+20+21
p883
asg9
V2015-10-22 17:25:59
p884
sS'part2_incorrect_attempt'
p885
(lp886
(S'-1 day, 23:55:12'
p887
V(21^2-1)/440
p888
tp889
a(S'-1 day, 23:57:21'
p890
V220*((21^2-1)/440)
p891
tp892
assVp4kumar
p893
(dp894
S'part2_correct_attempt'
p895
(lp896
S'0:00:22'
p897
aV25(25+1)/2
p898
asg9
V2015-10-20 21:55:44
p899
sS'part2_incorrect_attempt'
p900
(lp901
(S'-1 day, 23:51:23'
p902
V625/2-1/2
p903
tp904
a(S'0:00:17'
p905
V25(25-1)/2
p906
tp907
assVm8woo
p908
(dp909
S'part2_correct_attempt'
p910
(lp911
S'1 day, 18:22:02'
p912
aV25*26/2
p913
asg9
V2015-10-21 01:46:10
p914
sS'part2_incorrect_attempt'
p915
(lp916
(S'0:00:00'
p917
V25*24/2
p918
tp919
a(S'0:00:20'
p920
V25*12
p921
tp922
assVedescobe
p923
(dp924
S'part2_correct_attempt'
p925
(lp926
S'-1 day, 23:59:52'
p927
aV276
p928
asg9
V2015-10-18 10:01:00
p929
sS'part2_incorrect_attempt'
p930
(lp931
(S'-1 day, 23:52:08'
p932
V.5(23^2-1)
p933
tp934
assVw4shin
p935
(dp936
S'part2_correct_attempt'
p937
(lp938
S'0:00:39'
p939
aV1+2+3+4+5+6+7+8+9+10+11+12+13+14+15+16+17+18+19+20+21+22+23+24
p940
asg9
V2015-10-17 20:24:18
p941
sS'part2_incorrect_attempt'
p942
(lp943
(S'-1 day, 23:56:15'
p944
V(1/24)*24
p945
tp946
a(S'0:00:25'
p947
V1+2+3+4+5+6+8+9+10+11+12+13+14+15+16+17+18+19+20+21+22+23+24
p948
tp949
assVanvan
p950
(dp951
S'part2_correct_attempt'
p952
(lp953
S'0:08:56'
p954
aV25*26/2
p955
asg9
V2015-10-21 23:05:19
p956
sS'part2_incorrect_attempt'
p957
(lp958
(S'-1 day, 19:48:20'
p959
V25.0
p960
tp961
assVdpereira
p962
(dp963
S'part2_correct_attempt'
p964
(lp965
S'0:00:51'
p966
aV1+2+3+4+5+6+7+8+9+10+11+12+13+14+15+16+17+18+19+20+21+22+23+24+25
p967
asg9
V2015-10-19 05:47:18
p968
sS'part2_incorrect_attempt'
p969
(lp970
(S'0:00:19'
p971
V26*25
p972
tp973
assVppanourg
p974
(dp975
S'part2_correct_attempt'
p976
(lp977
S'0:01:02'
p978
aV1+2+3+4+5+6+7+8+9+10+11+12+13+14+15+16+17+18+19+20+21+22
p979
asg9
V2015-10-22 06:17:56
p980
sS'part2_incorrect_attempt'
p981
(lp982
(S'-1 day, 23:59:54'
p983
V1+2+3
p984
tp985
assVhaliew
p986
(dp987
S'part2_correct_attempt'
p988
(lp989
S'0:01:27'
p990
aV21+20+19+18+17+16+15+14+13+12+11+10+9+8+7+6+5+4+3+2+1
p991
asg9
V2015-10-22 01:35:16
p992
sS'part2_incorrect_attempt'
p993
(lp994
(S'0:00:36'
p995
V21+20+19+18+17+1+15+14+13+12+11+10+9+8+7+6+5+4+3+2+1
p996
tp997
assVqfu
p998
(dp999
S'part2_correct_attempt'
p1000
(lp1001
S'0:00:00'
p1002
aV12*25
p1003
asg9
V2015-10-16 03:35:27
p1004
sS'part2_incorrect_attempt'
p1005
(lp1006
(S'-1 day, 22:28:47'
p1007
V(24*24)/2
p1008
tp1009
a(S'-1 day, 22:30:47'
p1010
V(24*24)
p1011
tp1012
assVkquong
p1013
(dp1014
S'part2_correct_attempt'
p1015
(lp1016
S'0:02:12'
p1017
aV20+19+18+17+16+15+14+13+12+11+10+9+8+7+6+5+4+3+2+1
p1018
asg9
V2015-10-17 19:01:53
p1019
sS'part2_incorrect_attempt'
p1020
(lp1021
(S'0:01:58'
p1022
V20+19+18+17+16+15+14+13+12+11+10+9+8+7+6+5+4+2+1
p1023
tp1024
assVlalacson
p1025
(dp1026
S'part2_correct_attempt'
p1027
(lp1028
S'0:00:57'
p1029
aV(23*(23+1))/2
p1030
asg9
V2015-10-22 05:15:51
p1031
sS'part2_incorrect_attempt'
p1032
(lp1033
(S'0:00:00'
p1034
V23*(23-1)
p1035
tp1036
a(S'0:00:34'
p1037
V(23*(23-1))/2
p1038
tp1039
assVtak068
p1040
(dp1041
S'part2_correct_attempt'
p1042
(lp1043
S'0:00:35'
p1044
aV253
p1045
asg9
V2015-10-20 08:15:07
p1046
sS'part2_incorrect_attempt'
p1047
(lp1048
(S'-1 day, 22:08:40'
p1049
V(22^2)/2
p1050
tp1051
assVjyc018
p1052
(dp1053
S'part2_correct_attempt'
p1054
(lp1055
S'1 day, 17:43:51'
p1056
aV1+2+3+4+5+6+7+8+9+10+11+12+13+14+15+16+17+18+19+20
p1057
asg9
V2015-10-19 22:43:43
p1058
sS'part2_incorrect_attempt'
p1059
(lp1060
(S'0:01:51'
p1061
V1/2*(1+4+9+16+25+36+49+64+81+100+121+144+169+196+225+16*16+17*17+18*18+19*19)
p1062
tp1063
a(S'1 day, 17:42:31'
p1064
V1/2*(1+4+9+16+25+36+49+64+81+100+121+144+169+196+225+16*16+17*17+18*18+19*19+400)
p1065
tp1066
assVaordookh
p1067
(dp1068
S'part2_correct_attempt'
p1069
(lp1070
S'0:00:00'
p1071
aV276
p1072
asg9
V2015-10-21 21:21:52
p1073
sS'part2_incorrect_attempt'
p1074
(lp1075
(S'-1 day, 23:46:15'
p1076
V23.0
p1077
tp1078
assVmitopete
p1079
(dp1080
S'part2_correct_attempt'
p1081
(lp1082
S'0:00:00'
p1083
aV253
p1084
asg9
V2015-10-19 02:17:45
p1085
sS'part2_incorrect_attempt'
p1086
(lp1087
(S'-1 day, 23:44:37'
p1088
V22^2/(2)
p1089
tp1090
assVytc012
p1091
(dp1092
S'part2_correct_attempt'
p1093
(lp1094
S'0:00:55'
p1095
aV25*12
p1096
asg9
V2015-10-20 10:03:04
p1097
sS'part2_incorrect_attempt'
p1098
(lp1099
(S'0:00:26'
p1100
V26*11
p1101
tp1102
a(S'0:00:30'
p1103
V26*10
p1104
tp1105
a(S'0:00:33'
p1106
V26*12
p1107
tp1108
assVakg009
p1109
(dp1110
S'part2_correct_attempt'
p1111
(lp1112
S'0:00:37'
p1113
aV253
p1114
asg9
V2015-10-22 21:39:38
p1115
sS'part2_incorrect_attempt'
p1116
(lp1117
(S'-1 day, 23:54:47'
p1118
V22/22
p1119
tp1120
asss.