(dp0
V1
p1
(dp2
Vb3hwang
p3
(dp4
S'part1_correct_attempt'
p5
(lp6
S'0:03:52'
p7
aV2*8
p8
asS'first_attempt'
p9
V2015-10-21 02:16:42
p10
sS'part1_incorrect_attempt'
p11
(lp12
(S'0:00:00'
p13
VC(47,2) + C(47,1)
p14
tp15
a(S'0:00:48'
p16
VC(8,2) + C(4,1)
p17
tp18
assVfichoi
p19
(dp20
S'part1_correct_attempt'
p21
(lp22
S'0:18:38'
p23
aV16
p24
asg9
V2015-10-22 04:51:26
p25
sS'part1_incorrect_attempt'
p26
(lp27
(S'0:00:00'
p28
VC(47,2) - C(43, 2)
p29
tp30
a(S'0:13:38'
p31
VC(47,2) - C(39, 2)
p32
tp33
a(S'0:00:00'
p34
VC(47,2) - C(43, 1) - C(39, 1)
p35
tp36
a(S'0:00:12'
p37
VC(47,2) - (C(43, 1) + C(39, 1))
p38
tp39
assVccn001
p40
(dp41
S'part1_correct_attempt'
p42
(lp43
S'5:02:06'
p44
aVC(5,5)*16
p45
asg9
V2015-10-20 22:24:35
p46
sS'part1_incorrect_attempt'
p47
(lp48
(S'0:00:00'
p49
V(4^5)(12!/(2!10!))(4^5)(8!/(2!6!))
p50
tp51
a(S'0:00:00'
p52
VC(5,5)*C(8,2)
p53
tp54
a(S'0:09:03'
p55
VC(5,5)*(C(47,2)-C(39,2))
p56
tp57
a(S'0:10:39'
p58
VC(5,5)*C(16,2)
p59
tp60
assVlywong
p61
(dp62
S'part1_correct_attempt'
p63
(lp64
S'2:03:53'
p65
aVC(47,2)-(C(47,2)-16)
p66
asg9
V2015-10-21 07:51:32
p67
sS'part1_incorrect_attempt'
p68
(lp69
(S'0:00:00'
p70
VC(47,2)-C(43,2)
p71
tp72
a(S'0:00:56'
p73
VC(47,2)-C(39,2)
p74
tp75
a(S'0:01:45'
p76
VC(47,2)-16
p77
tp78
a(S'0:04:43'
p79
VC(47,2)+16
p80
tp81
a(S'1:58:26'
p82
VC(47,2)-16
p83
tp84
a(S'2:00:47'
p85
VC(47,2)+16
p86
tp87
a(S'2:01:42'
p88
VC(47,2)-C(39,2)
p89
tp90
assVvsamant
p91
(dp92
S'part1_correct_attempt'
p93
(lp94
S'0:03:38'
p95
aVC(4,1)*C(4,1)
p96
asg9
V2015-10-21 18:56:55
p97
sS'part1_incorrect_attempt'
p98
(lp99
(S'0:00:00'
p100
V2*4
p101
tp102
a(S'0:00:35'
p103
V7*4+2*4
p104
tp105
a(S'0:03:08'
p106
VC(47,1)+C(46,1)
p107
tp108
assVdando
p109
(dp110
S'part1_correct_attempt'
p111
(lp112
S'0:10:43'
p113
aV16
p114
asg9
V2015-10-23 00:10:07
p115
sS'part1_incorrect_attempt'
p116
(lp117
(S'0:00:00'
p118
VC(8,2) * C(4,1)
p119
tp120
a(S'0:01:18'
p121
VC(8,1) * C(4,1)
p122
tp123
a(S'0:07:29'
p124
VC(47,2) (C(47,2) - C(8,1) - C(4,1))
p125
tp126
a(S'0:07:39'
p127
VC(47,2) - (C(47,2) - C(8,1) - C(4,1))
p128
tp129
a(S'0:10:35'
p130
VC(47,2) - 16
p131
tp132
assVkbielawi
p133
(dp134
S'part1_correct_attempt'
p135
(lp136
S'0:05:11'
p137
aV4^2
p138
asg9
V2015-10-22 17:13:14
p139
sS'part1_incorrect_attempt'
p140
(lp141
(S'0:00:00'
p142
V(13-3)*4^5*C(52-5,2)
p143
tp144
a(S'0:01:23'
p145
V4*4^3*C(52-5,2)
p146
tp147
a(S'0:01:44'
p148
V4*4^3*C((52-5),2)
p149
tp150
assVglcohen
p151
(dp152
S'part1_correct_attempt'
p153
(lp154
S'2 days, 14:12:03'
p155
aVC(4,1)C(4,1)
p156
asg9
V2015-10-18 01:08:35
p157
sS'part1_incorrect_attempt'
p158
(lp159
(S'0:00:00'
p160
VC(52,7)
p161
tp162
a(S'0:00:22'
p163
VC(52,5)
p164
tp165
a(S'0:00:00'
p166
VC(46,1)*C(47,1)
p167
tp168
a(S'0:04:15'
p169
V(C(46,1)*C(47,1))* 6180020
p170
tp171
a(S'0:04:37'
p172
V(C(47,2))* 6180020
p173
tp174
a(S'0:08:18'
p175
V(C(47,2)*6180020)*(4/46)*(4/47)
p176
tp177
assVjguanzho
p178
(dp179
S'part1_correct_attempt'
p180
(lp181
S'1 day, 6:48:32'
p182
aV4**2
p183
asg9
V2015-10-19 22:42:13
p184
sS'part1_incorrect_attempt'
p185
(lp186
(S'0:00:00'
p187
V8*7*50*49*48*47*46
p188
tp189
a(S'0:02:31'
p190
V(8!/(2!*6!))*(50!/(5!*45!))
p191
tp192
assVatorr
p193
(dp194
S'part1_correct_attempt'
p195
(lp196
S'0:14:32'
p197
aV16
p198
asg9
V2015-10-22 23:14:53
p199
sS'part1_incorrect_attempt'
p200
(lp201
(S'0:00:00'
p202
V(47 * 46) *  (4^5) * 47 * 46
p203
tp204
assVany027
p205
(dp206
S'part1_correct_attempt'
p207
(lp208
S'0:00:56'
p209
aV16
p210
asg9
V2015-10-19 20:30:06
p211
sS'part1_incorrect_attempt'
p212
(lp213
(S'0:00:00'
p214
VC(47,8)
p215
tp216
assVrwthomps
p217
(dp218
S'part1_correct_attempt'
p219
(lp220
S'0:00:22'
p221
aV16
p222
asg9
V2015-10-20 23:03:39
p223
sS'part1_incorrect_attempt'
p224
(lp225
(S'0:00:00'
p226
VC(4, 2) + C(4, 2)
p227
tp228
assVm8woo
p229
(dp230
S'part1_correct_attempt'
p231
(lp232
S'0:00:49'
p233
aVC(4,1)^2
p234
asg9
V2015-10-22 21:20:37
p235
sS'part1_incorrect_attempt'
p236
(lp237
(S'0:00:00'
p238
VC(4,1)^2*C(45,2)
p239
tp240
assVsachadal
p241
(dp242
S'part1_correct_attempt'
p243
(lp244
S'0:08:10'
p245
aV4*4
p246
asg9
V2015-10-22 19:23:28
p247
sS'part1_incorrect_attempt'
p248
(lp249
(S'0:00:00'
p250
VC(47,2)*C(4,1)*C(4,1)
p251
tp252
assVdcrume
p253
(dp254
S'part1_correct_attempt'
p255
(lp256
S'1 day, 2:00:00'
p257
aV16
p258
asg9
V2015-10-21 20:04:57
p259
sS'part1_incorrect_attempt'
p260
(lp261
(S'0:00:00'
p262
VC(52,4)*(52-6)
p263
tp264
a(S'0:00:00'
p265
VC(52,7) - C(47,2)
p266
tp267
a(S'0:00:00'
p268
VC(47,1)*C(46,1)
p269
tp270
assVctgraves
p271
(dp272
S'part1_correct_attempt'
p273
(lp274
S'0:28:03'
p275
aV16
p276
asg9
V2015-10-21 23:18:19
p277
sS'part1_incorrect_attempt'
p278
(lp279
(S'0:00:00'
p280
VC(52,2)-C(52-8,2)
p281
tp282
a(S'0:00:40'
p283
VC(52-5,2)-C(52-5-8,2)
p284
tp285
a(S'0:01:34'
p286
V(52-5)!/(2!*(52-7)! ) - (52-5-8)!/(2!*(52-5-8-2)!)
p287
tp288
a(S'0:01:58'
p289
V(52-5)!-  (52-5-8)!
p290
tp291
a(S'0:23:59'
p292
V4*4 + 4*4
p293
tp294
a(S'0:25:51'
p295
VC(52-5, 2) - C(52-5-4,2)
p296
tp297
a(S'0:26:27'
p298
VC(4,1)
p299
tp300
assVdkurli
p301
(dp302
S'part1_correct_attempt'
p303
(lp304
S'0:03:41'
p305
aVC(4,1)*4
p306
asg9
V2015-10-21 04:03:07
p307
sS'part1_incorrect_attempt'
p308
(lp309
(S'0:00:00'
p310
V47*46
p311
tp312
a(S'0:00:36'
p313
V47*46-15
p314
tp315
a(S'0:02:03'
p316
V15*46
p317
tp318
assVbeyounge
p319
(dp320
S'part1_correct_attempt'
p321
(lp322
S'0:00:25'
p323
aVC(4,1) * C(4,1)
p324
asg9
V2015-10-17 06:04:57
p325
sS'part1_incorrect_attempt'
p326
(lp327
(S'0:00:00'
p328
V2*C(4,1)
p329
tp330
assVmbl003
p331
(dp332
S'part1_correct_attempt'
p333
(lp334
S'0:04:18'
p335
aVC(4,1)*C(4,1)
p336
asg9
V2015-10-21 19:30:15
p337
sS'part1_incorrect_attempt'
p338
(lp339
(S'0:00:00'
p340
VC(52-5,8)
p341
tp342
assVnhn018
p343
(dp344
S'part1_correct_attempt'
p345
(lp346
S'0:09:50'
p347
aV4^2
p348
asg9
V2015-10-22 20:11:28
p349
sS'part1_incorrect_attempt'
p350
(lp351
(S'0:00:00'
p352
V(13-3)*4^5*C(52-5,2)
p353
tp354
a(S'0:05:04'
p355
V4*4^3*C(52-5,2)
p356
tp357
assVj5phung
p358
(dp359
S'part1_correct_attempt'
p360
(lp361
S'1:01:01'
p362
aVC(4,1)^2
p363
asg9
V2015-10-16 18:09:55
p364
sS'part1_incorrect_attempt'
p365
(lp366
(S'0:00:00'
p367
V8*7
p368
tp369
a(S'0:11:28'
p370
VC(8,2)*C(47,2)*C(7,5)
p371
tp372
a(S'0:12:40'
p373
VC(8,2)*C(47,2)*9
p374
tp375
a(S'0:13:16'
p376
VC(8,2)*C(47,2)*10
p377
tp378
a(S'0:14:16'
p379
VC(8,2)*C(47,2)*6180020
p380
tp381
a(S'0:15:18'
p382
VC(8,2)*C(47,2)*C(13,5)*C(13,2)
p383
tp384
a(S'0:16:01'
p385
VC(8,2)*C(47,2)*C(13,5)*C(47,2)
p386
tp387
a(S'0:16:29'
p388
VC(8,2)*C(47,2)*C(13,5)
p389
tp390
a(S'0:16:52'
p391
VC(8,2)*C(47,2)*40
p392
tp393
a(S'0:17:51'
p394
VC(8,2)*C(47,2)*4^10
p395
tp396
a(S'0:19:58'
p397
VC(8,2)*C(47,2)*13*(5^5-C(5,1))
p398
tp399
a(S'0:20:28'
p400
VC(8,2)*C(47,2)*13
p401
tp402
a(S'0:21:16'
p403
VC(8,2)*C(47,2)*C(13,5)
p404
tp405
a(S'0:22:21'
p406
VC(8,2)*C(47,2)*3
p407
tp408
a(S'0:26:34'
p409
VC(8,2)*C(47,2)*9
p410
tp411
a(S'0:26:41'
p412
VC(8,2)*C(47,2)*9*4
p413
tp414
a(S'0:27:05'
p415
VC(8,2)*C(47,2)*9*4*C(46,2)
p416
tp417
a(S'0:46:09'
p418
VC(8,2)*C(47,2)*C(13,5)*C(42,2)
p419
tp420
a(S'0:47:15'
p421
VC(8,2)*C(47,2)*4*C(13,5)*C(47,2)
p422
tp423
a(S'0:47:22'
p424
VC(8,2)*C(47,2)*C(13,5)*C(47,2)
p425
tp426
a(S'0:53:49'
p427
VC(8,2)*C(47,2)*C(13,5)*C(8,2)
p428
tp429
a(S'0:55:27'
p430
VC(47,8)*C(47,2)*C(13,5)*C(8,2)
p431
tp432
assVp4kumar
p433
(dp434
S'part1_correct_attempt'
p435
(lp436
S'0:17:26'
p437
aV16
p438
asg9
V2015-10-22 21:36:49
p439
sS'part1_incorrect_attempt'
p440
(lp441
(S'0:00:00'
p442
VC(52, 7) - C(52 - 5 - 2*4, 7)
p443
tp444
a(S'0:08:17'
p445
VC(52, 1)*5*C(4, 1)*C(4, 1)
p446
tp447
a(S'0:09:17'
p448
V5*C(52, 1)*C(2*4, 2)
p449
tp450
a(S'0:10:09'
p451
VC(52, 1)*C(52, 1)*C(52, 1)*C(52, 1)*C(52, 1)*C(2*4, 2)
p452
tp453
a(S'0:11:20'
p454
VC(52, 1)*C(51,1)*C(50, 1)*C(49, 1)*C(48, 1)*C(2*4, 2)
p455
tp456
a(S'0:11:54'
p457
VC(52, 1)*C(51,1)*C(50, 1)*C(49, 1)*C(48, 1)*P(2*4, 2)
p458
tp459
a(S'0:12:11'
p460
VC(52, 5)*P(2*4, 2)
p461
tp462
assVs2chaudh
p463
(dp464
S'part1_correct_attempt'
p465
(lp466
S'1 day, 6:23:43'
p467
aV16
p468
asg9
V2015-10-20 20:29:42
p469
sS'part1_incorrect_attempt'
p470
(lp471
(S'0:00:00'
p472
VC(48,2)-C(8,2)
p473
tp474
assVtpmach
p475
(dp476
S'part1_correct_attempt'
p477
(lp478
S'1:16:32'
p479
aV16
p480
asg9
V2015-10-22 01:43:33
p481
sS'part1_incorrect_attempt'
p482
(lp483
(S'0:00:00'
p484
VC(52-5,8)
p485
tp486
assVgsrandha
p487
(dp488
S'part1_correct_attempt'
p489
(lp490
S'0:00:32'
p491
aV1.0*4**2
p492
asg9
V2015-10-18 23:56:45
p493
sS'part1_incorrect_attempt'
p494
(lp495
(S'0:00:00'
p496
V1.0*C(47,2)
p497
tp498
a(S'0:00:10'
p499
V1.0*C(52-5,2)-C(52-5-4,2)
p500
tp501
assVhaw081
p502
(dp503
S'part1_correct_attempt'
p504
(lp505
S'1:49:08'
p506
aV16
p507
asg9
V2015-10-22 04:08:55
p508
sS'part1_incorrect_attempt'
p509
(lp510
(S'0:00:00'
p511
VC(52,5)*C(52-5,2)
p512
tp513
a(S'0:00:52'
p514
VC(13,5)*C(52-5,2)
p515
tp516
a(S'0:01:03'
p517
VC(13,5)*C(8,2)
p518
tp519
a(S'0:03:47'
p520
VC(8,2)*(52-5)
p521
tp522
a(S'0:09:35'
p523
VC(52-5,4)
p524
tp525
a(S'0:10:12'
p526
VC(52-5,1)C(52-6,1)
p527
tp528
a(S'0:00:00'
p529
VC(52-5,1)C(52-6,1)
p530
tp531
a(S'0:04:22'
p532
VC(52-5,1)+C(52-6,1)
p533
tp534
a(S'0:26:19'
p535
VC(47,2)-16
p536
tp537
a(S'0:28:15'
p538
VC(47,2)-C(47-16,2)
p539
tp540
assVvqt004
p541
(dp542
S'part1_correct_attempt'
p543
(lp544
S'0:07:38'
p545
aV4*4
p546
asg9
V2015-10-22 13:17:17
p547
sS'part1_incorrect_attempt'
p548
(lp549
(S'0:00:00'
p550
V2*4
p551
tp552
assVrsmurlo
p553
(dp554
S'part1_correct_attempt'
p555
(lp556
S'0:01:06'
p557
aV4*4
p558
asg9
V2015-10-21 17:39:16
p559
sS'part1_incorrect_attempt'
p560
(lp561
(S'0:00:00'
p562
VC(47,4)C(46,4)
p563
tp564
assVtcn013
p565
(dp566
S'part1_correct_attempt'
p567
(lp568
S'0:02:10'
p569
aV16
p570
asg9
V2015-10-22 21:57:50
p571
sS'part1_incorrect_attempt'
p572
(lp573
(S'0:00:00'
p574
VC(47,2) - C(39,2)
p575
tp576
a(S'0:01:47'
p577
VC(47,2) - C(8,2)
p578
tp579
assVanl114
p580
(dp581
S'part1_correct_attempt'
p582
(lp583
S'0:18:28'
p584
aV16
p585
asg9
V2015-10-22 16:54:21
p586
sS'part1_incorrect_attempt'
p587
(lp588
(S'0:00:00'
p589
V311875200*1081
p590
tp591
a(S'0:04:45'
p592
V2598960*1081
p593
tp594
a(S'0:00:00'
p595
V1086008*1081
p596
tp597
a(S'0:01:07'
p598
V1086008*28
p599
tp600
a(S'0:06:50'
p601
VC(47,2)-C(39,2)
p602
tp603
a(S'0:08:56'
p604
VC(47,2)-C(39,2)-96
p605
tp606
assVjnatale
p607
(dp608
S'part1_correct_attempt'
p609
(lp610
S'0:06:17'
p611
aV16
p612
asg9
V2015-10-21 00:57:50
p613
sS'part1_incorrect_attempt'
p614
(lp615
(S'0:00:00'
p616
VC(7,2)*8
p617
tp618
assVrlhagen
p619
(dp620
S'part1_correct_attempt'
p621
(lp622
S'0:24:29'
p623
aV16
p624
asg9
V2015-10-18 18:55:13
p625
sS'part1_incorrect_attempt'
p626
(lp627
(S'0:00:00'
p628
V47!/(2!(47-2)!)
p629
tp630
a(S'0:04:17'
p631
V39!/(2!(39-2)!)
p632
tp633
a(S'0:05:51'
p634
V(47!/(2!(47-2)!))-(39!/(2!(39-2)!))
p635
tp636
a(S'0:12:18'
p637
V(47!/(2!(47-2)!))-(39!/(2!(39-2)!))
p638
tp639
a(S'0:18:44'
p640
V(43!/(1!(43-1)!))*(39!/(1!(39-1)!))
p641
tp642
a(S'0:19:16'
p643
V(43!/(1!(43-1)!))+(39!/(1!(39-1)!))
p644
tp645
a(S'0:20:47'
p646
V(8!/(2!(8-2)!))
p647
tp648
a(S'0:21:44'
p649
V(8!/(1!(8-1)!))*(7!/(1!(7-1)!))
p650
tp651
assVnnh002
p652
(dp653
S'part1_correct_attempt'
p654
(lp655
S'1:09:05'
p656
aV16
p657
asg9
V2015-10-22 03:24:47
p658
sS'part1_incorrect_attempt'
p659
(lp660
(S'0:00:00'
p661
VC(47,8)
p662
tp663
a(S'0:04:38'
p664
VC(47,2)-C(39,2)
p665
tp666
assVvsosnovs
p667
(dp668
S'part1_correct_attempt'
p669
(lp670
S'0:05:07'
p671
aV16
p672
asg9
V2015-10-22 06:39:41
p673
sS'part1_incorrect_attempt'
p674
(lp675
(S'0:00:00'
p676
VC(47,5)
p677
tp678
assVv3doan
p679
(dp680
S'part1_correct_attempt'
p681
(lp682
S'0:03:26'
p683
aV16
p684
asg9
V2015-10-22 20:50:58
p685
sS'part1_incorrect_attempt'
p686
(lp687
(S'0:00:00'
p688
VC(47, 8)
p689
tp690
a(S'0:01:59'
p691
V2 * 4 * 4
p692
tp693
assVjap009
p694
(dp695
S'part1_correct_attempt'
p696
(lp697
S'14:16:23'
p698
aVC(4,1)C(4,1)
p699
asg9
V2015-10-21 07:35:10
p700
sS'part1_incorrect_attempt'
p701
(lp702
(S'0:00:00'
p703
VC(47,8)
p704
tp705
a(S'0:00:00'
p706
V8*7
p707
tp708
a(S'0:00:12'
p709
V8*4
p710
tp711
assVdgunawan
p712
(dp713
S'part1_correct_attempt'
p714
(lp715
S'0:45:23'
p716
aV8 * 2
p717
asg9
V2015-10-22 23:45:14
p718
sS'part1_incorrect_attempt'
p719
(lp720
(S'0:00:00'
p721
VC((52-5), 2) - C(12, 3)
p722
tp723
assVmsaguiar
p724
(dp725
S'part1_correct_attempt'
p726
(lp727
S'0:31:35'
p728
aV4**2
p729
asg9
V2015-10-21 03:59:46
p730
sS'part1_incorrect_attempt'
p731
(lp732
(S'0:00:00'
p733
V16+(4(46))
p734
tp735
assVhachrist
p736
(dp737
S'part1_correct_attempt'
p738
(lp739
S'0:04:01'
p740
aV16
p741
asg9
V2015-10-21 22:34:05
p742
sS'part1_incorrect_attempt'
p743
(lp744
(S'0:00:00'
p745
VC(47,2) - C(43,2)
p746
tp747
a(S'0:01:30'
p748
VC(47,2) - C(45,2)
p749
tp750
a(S'0:02:05'
p751
VC(47,2) - C(39,2)
p752
tp753
assVjdeon
p754
(dp755
S'part1_correct_attempt'
p756
(lp757
S'0:09:51'
p758
aV4*4
p759
asg9
V2015-10-22 04:49:14
p760
sS'part1_incorrect_attempt'
p761
(lp762
(S'0:00:00'
p763
V8*4
p764
tp765
a(S'0:00:12'
p766
V2*4*4
p767
tp768
assVt1tran
p769
(dp770
S'part1_correct_attempt'
p771
(lp772
S'0:15:37'
p773
aV4*4
p774
asg9
V2015-10-18 03:50:22
p775
sS'part1_incorrect_attempt'
p776
(lp777
(S'0:00:00'
p778
VC(8,2)+5
p779
tp780
a(S'0:11:06'
p781
VC(47,2)-C(47-8,2)
p782
tp783
a(S'0:12:37'
p784
VC(47,2)-C(47-4,2)
p785
tp786
assVthwan
p787
(dp788
S'part1_correct_attempt'
p789
(lp790
S'4:08:58'
p791
aV16
p792
asg9
V2015-10-19 16:07:25
p793
sS'part1_incorrect_attempt'
p794
(lp795
(S'0:00:00'
p796
VC(52-5,2)-C(52-5-8,2)
p797
tp798
a(S'0:00:00'
p799
VC(52-5,2)-C(52-5-2,2)
p800
tp801
assVtcuddy
p802
(dp803
S'part1_correct_attempt'
p804
(lp805
S'0:15:57'
p806
aV16
p807
asg9
V2015-10-17 21:22:07
p808
sS'part1_incorrect_attempt'
p809
(lp810
(S'0:00:00'
p811
V47!/(2!45!) - 8
p812
tp813
assVdlgoldbe
p814
(dp815
S'part1_correct_attempt'
p816
(lp817
S'0:01:09'
p818
aV4*4
p819
asg9
V2015-10-22 17:22:08
p820
sS'part1_incorrect_attempt'
p821
(lp822
(S'0:00:00'
p823
V(C(47,2)) - (C(43,2))
p824
tp825
assVl8ngo
p826
(dp827
S'part1_correct_attempt'
p828
(lp829
S'1:11:53'
p830
aV4*4
p831
asg9
V2015-10-22 02:58:27
p832
sS'part1_incorrect_attempt'
p833
(lp834
(S'0:00:00'
p835
V47!/[2!45!]
p836
tp837
a(S'0:00:00'
p838
V47!/[2!45!]
p839
tp840
assVsippolit
p841
(dp842
S'part1_correct_attempt'
p843
(lp844
S'0:02:01'
p845
aV4^2
p846
asg9
V2015-10-20 16:31:13
p847
sS'part1_incorrect_attempt'
p848
(lp849
(S'0:00:00'
p850
VC(47,43)*C(46,42)
p851
tp852
a(S'0:00:21'
p853
VC(47,43)-C(46,42)
p854
tp855
assVdjk006
p856
(dp857
S'part1_correct_attempt'
p858
(lp859
S'0:02:12'
p860
aV16
p861
asg9
V2015-10-21 18:05:02
p862
sS'part1_incorrect_attempt'
p863
(lp864
(S'0:00:00'
p865
V(47!/(45!2!))-(43!/(41!2!))
p866
tp867
a(S'0:00:41'
p868
V(47!/(45!2!))-(39!/(37!2!))
p869
tp870
a(S'0:01:34'
p871
V(47!/(45!2!))-(39!/(37!2!))
p872
tp873
assVmcatozzi
p874
(dp875
S'part1_correct_attempt'
p876
(lp877
S'0:04:40'
p878
aV16
p879
asg9
V2015-10-21 00:11:49
p880
sS'part1_incorrect_attempt'
p881
(lp882
(S'0:00:00'
p883
V16+204
p884
tp885
assVeaherman
p886
(dp887
S'part1_correct_attempt'
p888
(lp889
S'0:31:34'
p890
aV[C(47,2) ]-[C(52-5,2)-16]
p891
asg9
V2015-10-22 14:59:46
p892
sS'part1_incorrect_attempt'
p893
(lp894
(S'0:00:00'
p895
V(4)(8)(7)
p896
tp897
a(S'0:00:14'
p898
V(8)(7)
p899
tp900
a(S'0:00:23'
p901
V(8)(3)
p902
tp903
a(S'0:00:30'
p904
V(8)(4)
p905
tp906
a(S'0:05:10'
p907
VC(52-5,8)C(52-6,4)
p908
tp909
a(S'0:11:07'
p910
V(8)(4)(52-5)
p911
tp912
a(S'0:15:00'
p913
VC(52-5,2)-32
p914
tp915
assVedescobe
p916
(dp917
S'part1_correct_attempt'
p918
(lp919
S'0:14:30'
p920
aV16
p921
asg9
V2015-10-18 11:27:10
p922
sS'part1_incorrect_attempt'
p923
(lp924
(S'0:00:00'
p925
VC(47,2)-C(43,2)
p926
tp927
a(S'0:00:25'
p928
VC(47,2)-C(39,2)
p929
tp930
assVw4shin
p931
(dp932
S'part1_correct_attempt'
p933
(lp934
S'0:21:28'
p935
aV4*4
p936
asg9
V2015-10-19 19:30:48
p937
sS'part1_incorrect_attempt'
p938
(lp939
(S'0:00:00'
p940
VC(52,5)*C(13,2)*C(4,2)
p941
tp942
a(S'0:01:52'
p943
VC(13,2)*C(4,2)
p944
tp945
assVanvan
p946
(dp947
g9
V2015-10-22 11:19:00
p948
sS'part1_incorrect_attempt'
p949
(lp950
(S'0:00:00'
p951
V48*16
p952
tp953
assVachava
p954
(dp955
S'part1_correct_attempt'
p956
(lp957
S'0:18:48'
p958
aV16
p959
asg9
V2015-10-21 22:13:36
p960
sS'part1_incorrect_attempt'
p961
(lp962
(S'0:00:00'
p963
V(C(47,2) * 20) * 8
p964
tp965
a(S'0:00:19'
p966
V20 8
p967
tp968
a(S'0:00:00'
p969
V6*8
p970
tp971
a(S'0:00:15'
p972
V(6*4)*8
p973
tp974
assVc1sorian
p975
(dp976
S'part1_correct_attempt'
p977
(lp978
S'0:00:57'
p979
aV16
p980
asg9
V2015-10-21 21:37:07
p981
sS'part1_incorrect_attempt'
p982
(lp983
(S'0:00:00'
p984
VC(47,2)-C(39,2)
p985
tp986
assVjtfrankl
p987
(dp988
S'part1_correct_attempt'
p989
(lp990
S'2:06:25'
p991
aV4*4
p992
asg9
V2015-10-21 00:31:31
p993
sS'part1_incorrect_attempt'
p994
(lp995
(S'0:00:00'
p996
VC(52,5)*(C(47,8) +C(46,4))
p997
tp998
assVssamudra
p999
(dp1000
g9
V2015-10-23 00:50:00
p1001
sS'part1_incorrect_attempt'
p1002
(lp1003
(S'0:00:00'
p1004
VC(47,3) - C(46,2)
p1005
tp1006
assVc1wei
p1007
(dp1008
S'part1_correct_attempt'
p1009
(lp1010
S'0:34:59'
p1011
aV16
p1012
asg9
V2015-10-21 22:14:08
p1013
sS'part1_incorrect_attempt'
p1014
(lp1015
(S'0:00:00'
p1016
V47*46
p1017
tp1018
a(S'0:00:00'
p1019
V47*46
p1020
tp1021
a(S'0:00:45'
p1022
V47*46
p1023
tp1024
a(S'0:00:00'
p1025
V4*47*2178365
p1026
tp1027
a(S'0:04:02'
p1028
V178365*46
p1029
tp1030
a(S'0:04:03'
p1031
V178365*46
p1032
tp1033
a(S'0:05:14'
p1034
V2162-1081
p1035
tp1036
assVarc013
p1037
(dp1038
S'part1_correct_attempt'
p1039
(lp1040
S'0:06:06'
p1041
aV16
p1042
asg9
V2015-10-21 10:16:12
p1043
sS'part1_incorrect_attempt'
p1044
(lp1045
(S'0:00:00'
p1046
VC(47,2) - C(39, 2)
p1047
tp1048
a(S'0:02:04'
p1049
VC(47,2) - C(39, 2)-12
p1050
tp1051
assVmitopete
p1052
(dp1053
S'part1_correct_attempt'
p1054
(lp1055
S'1:19:06'
p1056
aV16
p1057
asg9
V2015-10-21 01:46:15
p1058
sS'part1_incorrect_attempt'
p1059
(lp1060
(S'0:00:00'
p1061
V(C(52,7)-C(39,5))+(C(52,7)-C(43,5))
p1062
tp1063
a(S'0:00:19'
p1064
V(C(52,7)-C(39,5))+((C(52,7)-C(43,5)))
p1065
tp1066
a(S'0:01:38'
p1067
VC(52,7)-C(39,5)
p1068
tp1069
a(S'0:15:33'
p1070
VC(47,2)-C(43,2)
p1071
tp1072
a(S'0:17:15'
p1073
VC(47,2)-C(39,2)
p1074
tp1075
a(S'0:22:46'
p1076
VC(47,2)-C(39,2)
p1077
tp1078
a(S'0:00:00'
p1079
VC(52,2)-C(46,2)
p1080
tp1081
a(S'0:04:29'
p1082
VC(47,2)-C(39,2)
p1083
tp1084
assVajabasa
p1085
(dp1086
S'part1_correct_attempt'
p1087
(lp1088
S'0:10:38'
p1089
aVC(47, 2)-(C(47,2)-16)
p1090
asg9
V2015-10-22 06:21:18
p1091
sS'part1_incorrect_attempt'
p1092
(lp1093
(S'0:00:00'
p1094
VC(47, 2)-C(43,2)
p1095
tp1096
a(S'0:04:35'
p1097
VC(47, 2)-8*4
p1098
tp1099
a(S'0:07:20'
p1100
VC(47, 2)-C(39, 1)-C(42, 1)
p1101
tp1102
assVsyip
p1103
(dp1104
S'part1_correct_attempt'
p1105
(lp1106
S'0:32:01'
p1107
aV4*4
p1108
asg9
V2015-10-18 21:34:28
p1109
sS'part1_incorrect_attempt'
p1110
(lp1111
(S'0:00:00'
p1112
V8*4
p1113
tp1114
assVajvanega
p1115
(dp1116
S'part1_correct_attempt'
p1117
(lp1118
S'0:02:39'
p1119
aV16
p1120
asg9
V2015-10-22 01:19:23
p1121
sS'part1_incorrect_attempt'
p1122
(lp1123
(S'0:00:00'
p1124
VC(47,5)
p1125
tp1126
assVcagatep
p1127
(dp1128
S'part1_correct_attempt'
p1129
(lp1130
S'0:00:21'
p1131
aV(C(4, 1) + C(4,1)) * 2
p1132
asg9
V2015-10-22 21:17:10
p1133
sS'part1_incorrect_attempt'
p1134
(lp1135
(S'0:00:00'
p1136
VC(8, 1) + C(4, 1)
p1137
tp1138
assVsghouse
p1139
(dp1140
S'part1_correct_attempt'
p1141
(lp1142
S'23:59:41'
p1143
aV16
p1144
asg9
V2015-10-21 00:14:01
p1145
sS'part1_incorrect_attempt'
p1146
(lp1147
(S'0:00:00'
p1148
V47*46*45*44*43*42*41*40/(8*7*6*5*4*3*2)
p1149
tp1150
a(S'0:00:00'
p1151
VC(47,2)*4
p1152
tp1153
a(S'0:00:00'
p1154
VC(47,8)
p1155
tp1156
assVggaddi
p1157
(dp1158
S'part1_correct_attempt'
p1159
(lp1160
S'0:00:26'
p1161
aVC(4,1)*C(4,1)
p1162
asg9
V2015-10-20 01:07:11
p1163
sS'part1_incorrect_attempt'
p1164
(lp1165
(S'0:00:00'
p1166
VC(8, 1) + C(4, 1)
p1167
tp1168
assVmuy002
p1169
(dp1170
S'part1_correct_attempt'
p1171
(lp1172
S'0:13:27'
p1173
aV16
p1174
asg9
V2015-10-22 20:57:52
p1175
sS'part1_incorrect_attempt'
p1176
(lp1177
(S'0:00:00'
p1178
VC(4,1)
p1179
tp1180
a(S'0:07:40'
p1181
VC(47,2)-C(4,1)
p1182
tp1183
a(S'0:11:16'
p1184
VC(47,2)-C(43,2)
p1185
tp1186
assVmjethani
p1187
(dp1188
S'part1_correct_attempt'
p1189
(lp1190
S'0:27:01'
p1191
aV16
p1192
asg9
V2015-10-22 14:39:52
p1193
sS'part1_incorrect_attempt'
p1194
(lp1195
(S'0:00:00'
p1196
VC(47,5)
p1197
tp1198
a(S'0:00:39'
p1199
VC(45,5)
p1200
tp1201
assVksmurlo
p1202
(dp1203
S'part1_correct_attempt'
p1204
(lp1205
S'0:06:36'
p1206
aV4*4
p1207
asg9
V2015-10-20 23:53:31
p1208
sS'part1_incorrect_attempt'
p1209
(lp1210
(S'0:00:00'
p1211
V8*4
p1212
tp1213
assVklala
p1214
(dp1215
S'part1_correct_attempt'
p1216
(lp1217
S'0:05:19'
p1218
aV4*4
p1219
asg9
V2015-10-21 03:47:39
p1220
sS'part1_incorrect_attempt'
p1221
(lp1222
(S'0:00:00'
p1223
VC(47,2) - C(39,2)
p1224
tp1225
a(S'0:00:35'
p1226
VC(47,2) - (4*4)
p1227
tp1228
assVj2phung
p1229
(dp1230
S'part1_correct_attempt'
p1231
(lp1232
S'0:58:03'
p1233
aV16
p1234
asg9
V2015-10-22 04:39:36
p1235
sS'part1_incorrect_attempt'
p1236
(lp1237
(S'0:00:00'
p1238
V(47!/(2!45!))-(39!/(2!37!))
p1239
tp1240
a(S'0:00:00'
p1241
V(4*(52-6)) - 16
p1242
tp1243
a(S'0:00:00'
p1244
V(47!/(2!45!)) - (84*2)
p1245
tp1246
a(S'0:01:24'
p1247
V(47!/(2!45!)) - (88*2)
p1248
tp1249
a(S'0:04:42'
p1250
V(47!/(2!45!)) - (172*2)
p1251
tp1252
asssV3
p1253
(dp1254
Vb3hwang
p1255
(dp1256
S'part3_correct_attempt'
p1257
(lp1258
S'0:14:44'
p1259
aVC(47,2)
p1260
asS'part2_correct_attempt'
p1261
(lp1262
S'0:12:11'
p1263
aVC(47,2)-C(43,2)
p1264
asS'part1_correct_attempt'
p1265
(lp1266
S'0:00:00'
p1267
ag8
asg9
V2015-10-21 02:20:34
p1268
sS'part3_incorrect_attempt'
p1269
(lp1270
(S'0:12:53'
p1271
V20*C(47,2)
p1272
tp1273
a(S'0:13:23'
p1274
VC(20,5)*C(47,2)
p1275
tp1276
a(S'0:13:43'
p1277
V5*C(47,2)
p1278
tp1279
a(S'0:14:20'
p1280
V5+C(47,2)
p1281
tp1282
a(S'0:14:33'
p1283
V5*C(47,2)
p1284
tp1285
assVr2fisher
p1286
(dp1287
S'part3_correct_attempt'
p1288
(lp1289
S'0:08:32'
p1290
aVC(47,2)
p1291
asS'part2_correct_attempt'
p1292
(lp1293
S'0:07:11'
p1294
aVC(47,2)-C(43,2)
p1295
asS'part1_correct_attempt'
p1296
(lp1297
S'0:00:00'
p1298
aV16
p1299
asg9
V2015-10-22 23:48:30
p1300
sS'part3_incorrect_attempt'
p1301
(lp1302
(S'0:08:04'
p1303
VC(47,2)-C(43,2) + 16
p1304
tp1305
assVkquong
p1306
(dp1307
S'part3_correct_attempt'
p1308
(lp1309
S'0:44:45'
p1310
aV47!/(2!(47-2)!)
p1311
asS'part2_correct_attempt'
p1312
(lp1313
S'0:38:36'
p1314
aV(47!/(2!(47-2)!)) - 43!/(2!(43-2)!)
p1315
asS'part1_correct_attempt'
p1316
(lp1317
S'0:00:00'
p1318
aV16
p1319
asg9
V2015-10-18 04:37:47
p1320
sS'part3_incorrect_attempt'
p1321
(lp1322
(S'0:42:43'
p1323
V16 + (47!/(2!(47-2)!)) - 43!/(2!(43-2)!)
p1324
tp1325
a(S'0:43:48'
p1326
V 16 + 178
p1327
tp1328
assVvasharma
p1329
(dp1330
S'part3_correct_attempt'
p1331
(lp1332
S'0:07:16'
p1333
aVC(47,2)
p1334
asS'part2_correct_attempt'
p1335
(lp1336
S'0:06:32'
p1337
aVC(52-5,2)-C(52-5-4,2)
p1338
asS'part1_correct_attempt'
p1339
(lp1340
S'0:00:00'
p1341
aV16
p1342
asg9
V2015-10-21 23:54:47
p1343
sS'part3_incorrect_attempt'
p1344
(lp1345
(S'0:06:51'
p1346
VC(47,1)
p1347
tp1348
assVabasu
p1349
(dp1350
S'part3_correct_attempt'
p1351
(lp1352
S'0:11:37'
p1353
aVC(47,2)
p1354
asS'part2_correct_attempt'
p1355
(lp1356
S'0:07:32'
p1357
aVC(47,2) - C(43,2)
p1358
asS'part1_correct_attempt'
p1359
(lp1360
S'0:00:00'
p1361
aV16
p1362
asg9
V2015-10-20 23:39:42
p1363
sS'part3_incorrect_attempt'
p1364
(lp1365
(S'0:09:32'
p1366
V178+16
p1367
tp1368
a(S'0:10:09'
p1369
VC(52,7)-C(47,7)
p1370
tp1371
assVacvuong
p1372
(dp1373
S'part3_correct_attempt'
p1374
(lp1375
S'0:29:56'
p1376
aVC(47,2)
p1377
asS'part2_correct_attempt'
p1378
(lp1379
S'0:26:14'
p1380
aVC(47,2) - C(43,2)
p1381
asS'part1_correct_attempt'
p1382
(lp1383
S'0:00:00'
p1384
aV16
p1385
asg9
V2015-10-18 01:07:49
p1386
sS'part3_incorrect_attempt'
p1387
(lp1388
(S'0:27:17'
p1389
V4*4*4*4*4
p1390
tp1391
a(S'0:27:51'
p1392
V4*4*4*4*4*47*46
p1393
tp1394
assVvolim
p1395
(dp1396
S'part3_correct_attempt'
p1397
(lp1398
S'0:43:56'
p1399
aVC(47,2)
p1400
asS'part2_correct_attempt'
p1401
(lp1402
S'0:42:52'
p1403
aVC(47,2)-C(43,2)
p1404
asS'part1_correct_attempt'
p1405
(lp1406
S'0:00:00'
p1407
aV16
p1408
asg9
V2015-10-21 03:06:06
p1409
sS'part3_incorrect_attempt'
p1410
(lp1411
(S'0:43:37'
p1412
V16+(C(47,2)-C(43,2))
p1413
tp1414
assVany027
p1415
(dp1416
S'part3_correct_attempt'
p1417
(lp1418
S'0:10:09'
p1419
aVC(47,2)
p1420
asS'part2_correct_attempt'
p1421
(lp1422
S'0:08:59'
p1423
aVC(47,2) - C(43,2)
p1424
asS'part1_correct_attempt'
p1425
(lp1426
S'0:00:00'
p1427
ag210
asg9
V2015-10-19 20:31:02
p1428
sS'part3_incorrect_attempt'
p1429
(lp1430
(S'0:09:39'
p1431
VC(47,2) - C(43,2) +16
p1432
tp1433
assVmcatozzi
p1434
(dp1435
S'part3_correct_attempt'
p1436
(lp1437
S'0:21:29'
p1438
aVC(47,2)
p1439
asS'part2_correct_attempt'
p1440
(lp1441
S'0:10:21'
p1442
aVC(47,2) - C(43,2)
p1443
asS'part1_correct_attempt'
p1444
(lp1445
S'0:00:00'
p1446
ag879
asg9
V2015-10-21 00:16:29
p1447
sS'part3_incorrect_attempt'
p1448
(lp1449
(S'0:20:47'
p1450
VC(47,2) - C(43,2) + 16
p1451
tp1452
assVc1sorian
p1453
(dp1454
S'part3_correct_attempt'
p1455
(lp1456
S'0:05:38'
p1457
aVC(47,2)
p1458
asS'part2_correct_attempt'
p1459
(lp1460
S'0:04:09'
p1461
aVC(47,2)-C(43,2)
p1462
asS'part1_correct_attempt'
p1463
(lp1464
S'0:00:00'
p1465
ag980
asg9
V2015-10-21 21:38:04
p1466
sS'part3_incorrect_attempt'
p1467
(lp1468
(S'0:05:08'
p1469
VC(52,5)
p1470
tp1471
a(S'0:05:24'
p1472
VC(52,7)
p1473
tp1474
assVt2li
p1475
(dp1476
S'part3_correct_attempt'
p1477
(lp1478
S'0:01:47'
p1479
aVC(47,2)
p1480
asS'part2_correct_attempt'
p1481
(lp1482
S'0:00:33'
p1483
aVC(47,2)-C(43,2)
p1484
asS'part1_correct_attempt'
p1485
(lp1486
S'0:00:00'
p1487
aV16
p1488
asg9
V2015-10-22 23:29:22
p1489
sS'part3_incorrect_attempt'
p1490
(lp1491
(S'0:00:41'
p1492
VC(52-5,2)-C(52-5-4,2)
p1493
tp1494
a(S'0:01:38'
p1495
V16+C(47,2)-C(43,2)
p1496
tp1497
assVv3doan
p1498
(dp1499
S'part3_correct_attempt'
p1500
(lp1501
S'0:12:06'
p1502
aVC(47, 2)
p1503
asS'part2_correct_attempt'
p1504
(lp1505
S'0:03:31'
p1506
aVC(47,2) - C(43,2)
p1507
asS'part1_correct_attempt'
p1508
(lp1509
S'0:00:00'
p1510
ag684
asg9
V2015-10-22 20:54:24
p1511
sS'part3_incorrect_attempt'
p1512
(lp1513
(S'0:08:11'
p1514
V16 + C(47,2) - C(43,2)
p1515
tp1516
asssV2
p1517
(dp1518
Vgthorn
p1519
(dp1520
S'part2_correct_attempt'
p1521
(lp1522
S'0:36:58'
p1523
aVC(47,2) - C(43, 2)
p1524
asg9
V2015-10-21 00:49:24
p1525
sS'part2_incorrect_attempt'
p1526
(lp1527
(S'0:04:30'
p1528
V16 * 13 - 5
p1529
tp1530
a(S'0:04:35'
p1531
V16 * 13 - 6
p1532
tp1533
assVphodgson
p1534
(dp1535
S'part2_correct_attempt'
p1536
(lp1537
S'0:01:43'
p1538
aVC(47,2) - C(47-4,2)
p1539
asg9
V2015-10-21 05:39:09
p1540
sS'part2_incorrect_attempt'
p1541
(lp1542
(S'0:00:00'
p1543
V4*(52-6)
p1544
tp1545
a(S'0:00:06'
p1546
V4*(52-5)
p1547
tp1548
assVv4zhang
p1549
(dp1550
S'part2_correct_attempt'
p1551
(lp1552
S'0:10:07'
p1553
aVC(47,2)-C(43, 2)
p1554
asg9
V2015-10-22 09:58:19
p1555
sS'part2_incorrect_attempt'
p1556
(lp1557
(S'0:00:00'
p1558
VC(4, 2)
p1559
tp1560
a(S'0:00:08'
p1561
VC(4, 1)*C(3, 1)
p1562
tp1563
a(S'0:01:13'
p1564
VC(4, 1)*C(46, 1)
p1565
tp1566
a(S'0:01:19'
p1567
VC(4, 1)*C(45, 1)
p1568
tp1569
a(S'0:01:54'
p1570
VC(4, 2)
p1571
tp1572
a(S'0:07:06'
p1573
VC(4, 2)*C(46, 1)
p1574
tp1575
a(S'0:07:11'
p1576
VC(4, 1)*C(46, 1)
p1577
tp1578
a(S'0:07:27'
p1579
VC(4, 1)*C(3, 1)
p1580
tp1581
assVkbielawi
p1582
(dp1583
S'part2_correct_attempt'
p1584
(lp1585
S'0:00:00'
p1586
aVC(52-5,2)-C(52-5-4,2)
p1587
asg9
V2015-10-22 17:18:25
p1588
sS'part2_incorrect_attempt'
p1589
(lp1590
(S'-1 day, 23:56:50'
p1591
V4*4^5
p1592
tp1593
assVjguanzho
p1594
(dp1595
S'part2_correct_attempt'
p1596
(lp1597
S'0:01:57'
p1598
aVC(47,2)-C(43,2)
p1599
asg9
V2015-10-21 05:30:45
p1600
sS'part2_incorrect_attempt'
p1601
(lp1602
(S'-2 days, 17:11:28'
p1603
V4*51*50*49*48*47*46
p1604
tp1605
a(S'-2 days, 17:12:17'
p1606
V4*51*50*49*48*47*46/2!
p1607
tp1608
a(S'-2 days, 17:13:59'
p1609
V(4!/5!)*(51!/(6!*44!))
p1610
tp1611
a(S'-1 day, 23:06:39'
p1612
V47!/(4!*43!)
p1613
tp1614
a(S'0:00:21'
p1615
V4**2
p1616
tp1617
a(S'0:00:45'
p1618
V4*3
p1619
tp1620
assValakamsa
p1621
(dp1622
S'part2_correct_attempt'
p1623
(lp1624
S'0:02:08'
p1625
aV4*C(43,1) + C(4,2)
p1626
asg9
V2015-10-17 23:51:15
p1627
sS'part2_incorrect_attempt'
p1628
(lp1629
(S'0:00:00'
p1630
V4*46
p1631
tp1632
assVjhc010
p1633
(dp1634
S'part2_correct_attempt'
p1635
(lp1636
S'0:03:29'
p1637
aVC(47,2) - C(43,2)
p1638
asg9
V2015-10-22 08:26:18
p1639
sS'part2_incorrect_attempt'
p1640
(lp1641
(S'0:01:46'
p1642
V4*46
p1643
tp1644
assVjjm019
p1645
(dp1646
S'part2_correct_attempt'
p1647
(lp1648
S'-1 day, 23:59:43'
p1649
aVC(52-5,2)-C(52-5-4,2)
p1650
asg9
V2015-10-22 10:30:15
p1651
sS'part2_incorrect_attempt'
p1652
(lp1653
(S'-1 day, 12:49:22'
p1654
VC(43,2)
p1655
tp1656
a(S'-1 day, 22:09:42'
p1657
V4^8
p1658
tp1659
a(S'-1 day, 22:11:12'
p1660
V4(46)
p1661
tp1662
a(S'-1 day, 22:19:50'
p1663
V4*46
p1664
tp1665
assVmhale
p1666
(dp1667
S'part2_correct_attempt'
p1668
(lp1669
S'0:08:34'
p1670
aVC(47, 2) - C(43, 2)
p1671
asg9
V2015-10-21 07:07:23
p1672
sS'part2_incorrect_attempt'
p1673
(lp1674
(S'0:00:29'
p1675
V4 * 46
p1676
tp1677
a(S'0:01:30'
p1678
V4 * 3
p1679
tp1680
a(S'0:02:05'
p1681
V4 * 47
p1682
tp1683
assVctgraves
p1684
(dp1685
g9
V2015-10-21 23:46:22
p1686
sS'part2_incorrect_attempt'
p1687
(lp1688
(S'-1 day, 23:55:56'
p1689
V4*(52-6)
p1690
tp1691
assVdkurli
p1692
(dp1693
S'part2_correct_attempt'
p1694
(lp1695
S'0:08:05'
p1696
aVC(47,2)-C(43,2)
p1697
asg9
V2015-10-21 04:06:48
p1698
sS'part2_incorrect_attempt'
p1699
(lp1700
(S'0:00:41'
p1701
VC(4,1)*46
p1702
tp1703
a(S'0:00:56'
p1704
VC(4,1)*46*2
p1705
tp1706
a(S'0:01:07'
p1707
VC(4,1)*46+C(4,1)*47
p1708
tp1709
a(S'0:03:19'
p1710
V4*46
p1711
tp1712
a(S'0:03:23'
p1713
V4*46*2
p1714
tp1715
a(S'0:04:20'
p1716
VC(4,1)*47
p1717
tp1718
a(S'0:04:28'
p1719
VC(4,1)*46
p1720
tp1721
a(S'0:04:33'
p1722
VC(4,1)*46*2
p1723
tp1724
assVnhn018
p1725
(dp1726
S'part2_correct_attempt'
p1727
(lp1728
S'0:00:00'
p1729
aVC(47,2)-C(52-5-4,2)
p1730
asg9
V2015-10-22 20:21:18
p1731
sS'part2_incorrect_attempt'
p1732
(lp1733
(S'-1 day, 23:55:14'
p1734
V4*4^5
p1735
tp1736
assVdan029
p1737
(dp1738
S'part2_correct_attempt'
p1739
(lp1740
S'0:05:01'
p1741
aVC(47,2) - C(43,2)
p1742
asg9
V2015-10-22 00:40:33
p1743
sS'part2_incorrect_attempt'
p1744
(lp1745
(S'0:01:06'
p1746
V4*46
p1747
tp1748
a(S'0:01:20'
p1749
V4*3
p1750
tp1751
a(S'0:02:03'
p1752
VC(4,1)*C(47,1)
p1753
tp1754
a(S'0:02:13'
p1755
VC(4,1)*C(46,1)
p1756
tp1757
assVhaw081
p1758
(dp1759
S'part2_correct_attempt'
p1760
(lp1761
S'-1 day, 23:58:25'
p1762
aVC(47,2)-C(47-4,2)
p1763
asg9
V2015-10-22 05:58:03
p1764
sS'part2_incorrect_attempt'
p1765
(lp1766
(S'-1 day, 22:15:29'
p1767
VC(4,1)C(52-6,1)(52-5)
p1768
tp1769
a(S'-1 day, 22:15:39'
p1770
VC(4,1)C(52-6,1)
p1771
tp1772
a(S'-1 day, 22:16:02'
p1773
VC(4,1)C(52-24,1)
p1774
tp1775
a(S'-1 day, 22:17:06'
p1776
VC(4,1)(52-5-4)
p1777
tp1778
a(S'-1 day, 22:17:16'
p1779
VC(4,1)(52-4)
p1780
tp1781
assVvqt004
p1782
(dp1783
S'part2_correct_attempt'
p1784
(lp1785
S'0:05:20'
p1786
aV178
p1787
asg9
V2015-10-22 13:24:55
p1788
sS'part2_incorrect_attempt'
p1789
(lp1790
(S'0:02:11'
p1791
V4*(52-9)
p1792
tp1793
assVr9jiang
p1794
(dp1795
S'part2_correct_attempt'
p1796
(lp1797
S'0:33:56'
p1798
aV178
p1799
asg9
V2015-10-18 22:25:16
p1800
sS'part2_incorrect_attempt'
p1801
(lp1802
(S'0:01:17'
p1803
V4*46
p1804
tp1805
assVrlhagen
p1806
(dp1807
S'part2_correct_attempt'
p1808
(lp1809
S'-1 day, 23:51:09'
p1810
aV(47!/(2!(47-2)!))-(43!/(2!(43-2)!))
p1811
asg9
V2015-10-18 19:19:42
p1812
sS'part2_incorrect_attempt'
p1813
(lp1814
(S'-1 day, 23:39:48'
p1815
V43!/(2!(43-2)!)
p1816
tp1817
assVavasavad
p1818
(dp1819
S'part2_correct_attempt'
p1820
(lp1821
S'0:02:51'
p1822
aVC(47,2) - C(43,2)
p1823
asg9
V2015-10-22 19:55:10
p1824
sS'part2_incorrect_attempt'
p1825
(lp1826
(S'0:00:33'
p1827
VC(4,2)
p1828
tp1829
a(S'0:01:25'
p1830
V4 * 46
p1831
tp1832
assVbtn023
p1833
(dp1834
S'part2_correct_attempt'
p1835
(lp1836
S'0:10:19'
p1837
aV1081 - 903
p1838
asg9
V2015-10-21 17:38:47
p1839
sS'part2_incorrect_attempt'
p1840
(lp1841
(S'0:01:09'
p1842
V4*2
p1843
tp1844
a(S'0:02:22'
p1845
V4*3
p1846
tp1847
assVdgunawan
p1848
(dp1849
S'part2_correct_attempt'
p1850
(lp1851
S'0:09:56'
p1852
aVC(52-5, 2) - C(52-5-4, 2)
p1853
asg9
V2015-10-23 00:30:37
p1854
sS'part2_incorrect_attempt'
p1855
(lp1856
(S'0:00:18'
p1857
VC(4, 1)
p1858
tp1859
assVtcuddy
p1860
(dp1861
S'part2_correct_attempt'
p1862
(lp1863
S'0:29:00'
p1864
aV47!/(2!45!)-(43!/(2!41!))
p1865
asg9
V2015-10-17 21:38:04
p1866
sS'part2_incorrect_attempt'
p1867
(lp1868
(S'0:02:53'
p1869
V4*46
p1870
tp1871
assVl8ngo
p1872
(dp1873
S'part2_correct_attempt'
p1874
(lp1875
S'0:28:20'
p1876
aV47!/[2!45!]-43!/[2!41!]
p1877
asg9
V2015-10-22 04:10:20
p1878
sS'part2_incorrect_attempt'
p1879
(lp1880
(S'0:00:20'
p1881
V4*4
p1882
tp1883
a(S'0:00:45'
p1884
V4+4
p1885
tp1886
a(S'0:06:51'
p1887
V4*3
p1888
tp1889
a(S'0:07:01'
p1890
V4+3
p1891
tp1892
a(S'0:20:43'
p1893
V1+ 46
p1894
tp1895
a(S'0:21:32'
p1896
V[1+ 46] * 2
p1897
tp1898
a(S'0:22:25'
p1899
V12+ 4*46
p1900
tp1901
a(S'0:22:41'
p1902
V[12+ 4*46]*2
p1903
tp1904
assVdando
p1905
(dp1906
S'part2_correct_attempt'
p1907
(lp1908
S'0:03:33'
p1909
aVC(47,2) - C(43,2)
p1910
asg9
V2015-10-23 00:20:50
p1911
sS'part2_incorrect_attempt'
p1912
(lp1913
(S'-1 day, 23:49:17'
p1914
VC(4,1) * C(4,1)
p1915
tp1916
assVdsriniva
p1917
(dp1918
S'part2_correct_attempt'
p1919
(lp1920
S'0:06:27'
p1921
aVC(47,2)-C(43,2)
p1922
asg9
V2015-10-22 17:56:16
p1923
sS'part2_incorrect_attempt'
p1924
(lp1925
(S'0:00:27'
p1926
V4*46*2
p1927
tp1928
a(S'0:00:33'
p1929
V4*46
p1930
tp1931
a(S'0:02:43'
p1932
V4*46
p1933
tp1934
a(S'0:04:15'
p1935
VC(16,2)
p1936
tp1937
assVchc286
p1938
(dp1939
S'part2_correct_attempt'
p1940
(lp1941
S'0:16:20'
p1942
aVC(47,2)-C(43,2)
p1943
asg9
V2015-10-21 09:48:00
p1944
sS'part2_incorrect_attempt'
p1945
(lp1946
(S'0:01:01'
p1947
V4*48
p1948
tp1949
a(S'0:01:43'
p1950
V4*46
p1951
tp1952
a(S'0:08:03'
p1953
V4*43
p1954
tp1955
a(S'0:10:33'
p1956
VC(46,2)-C(38,2)
p1957
tp1958
assVabasu
p1959
(dp1960
S'part2_correct_attempt'
p1961
(lp1962
S'0:07:32'
p1963
ag1358
asg9
g1363
sS'part2_incorrect_attempt'
p1964
(lp1965
(S'0:00:33'
p1966
V4*46
p1967
tp1968
a(S'0:06:12'
p1969
VC(46,2)
p1970
tp1971
assVsayao
p1972
(dp1973
S'part2_correct_attempt'
p1974
(lp1975
S'2:28:27'
p1976
aVC(52-5,2)-C(52-5-4,2)
p1977
asg9
V2015-10-21 19:17:59
p1978
sS'part2_incorrect_attempt'
p1979
(lp1980
(S'0:00:42'
p1981
V4*13
p1982
tp1983
a(S'0:01:20'
p1984
V4*13*4
p1985
tp1986
a(S'0:02:56'
p1987
V4*7*4*5*3
p1988
tp1989
a(S'0:03:27'
p1990
VC(4,1)+C(28+15,1)
p1991
tp1992
a(S'0:03:52'
p1993
VC(4,1)*C(28+15,1)
p1994
tp1995
a(S'0:04:25'
p1996
V43*4
p1997
tp1998
a(S'0:08:01'
p1999
V4*(28+15)
p2000
tp2001
a(S'0:10:55'
p2002
VC(4,1)*(28+15)
p2003
tp2004
assVksrijong
p2005
(dp2006
S'part2_correct_attempt'
p2007
(lp2008
S'0:03:29'
p2009
aVC(47,2)-C(43,2)
p2010
asg9
V2015-10-22 06:19:40
p2011
sS'part2_incorrect_attempt'
p2012
(lp2013
(S'0:00:54'
p2014
V4*C(43,1)
p2015
tp2016
a(S'0:01:28'
p2017
VC(43,1)
p2018
tp2019
assVssamudra
p2020
(dp2021
g9
V2015-10-23 00:55:29
p2022
sS'part2_incorrect_attempt'
p2023
(lp2024
(S'0:00:00'
p2025
VC(52,5) - C(49,3)
p2026
tp2027
assVc1wei
p2028
(dp2029
S'part2_correct_attempt'
p2030
(lp2031
S'0:00:57'
p2032
aV1081-903
p2033
asg9
V2015-10-21 22:49:07
p2034
sS'part2_incorrect_attempt'
p2035
(lp2036
(S'-1 day, 23:56:19'
p2037
V2162-47-46
p2038
tp2039
assVarc013
p2040
(dp2041
S'part2_correct_attempt'
p2042
(lp2043
S'0:01:22'
p2044
aVC(47,2)-C(43,2)
p2045
asg9
V2015-10-21 10:22:18
p2046
sS'part2_incorrect_attempt'
p2047
(lp2048
(S'0:00:36'
p2049
V4*C(46,1)
p2050
tp2051
assVmitopete
p2052
(dp2053
S'part2_correct_attempt'
p2054
(lp2055
S'-1 day, 22:56:27'
p2056
aVC(47,2)
p2057
asg9
V2015-10-21 03:05:21
p2058
sS'part2_incorrect_attempt'
p2059
(lp2060
(S'-1 day, 22:46:37'
p2061
VC(4,1)*(52-6)
p2062
tp2063
a(S'-1 day, 22:50:22'
p2064
VC(4,1)*(52)
p2065
tp2066
assVyos017
p2067
(dp2068
S'part2_correct_attempt'
p2069
(lp2070
S'0:21:03'
p2071
aVC(47,2)-C(43,2)
p2072
asg9
V2015-10-21 08:21:16
p2073
sS'part2_incorrect_attempt'
p2074
(lp2075
(S'0:09:14'
p2076
VC(4,1)*47
p2077
tp2078
a(S'0:10:17'
p2079
VC(4,1)*52
p2080
tp2081
a(S'0:10:32'
p2082
V52 
p2083
tp2084
a(S'0:10:50'
p2085
VC(52,5) 
p2086
tp2087
assVhabuamar
p2088
(dp2089
S'part2_correct_attempt'
p2090
(lp2091
S'0:03:01'
p2092
aVC(4,2)+C(4,1)*C(43,1)
p2093
asg9
V2015-10-16 19:59:39
p2094
sS'part2_incorrect_attempt'
p2095
(lp2096
(S'0:01:25'
p2097
VC(4,2)+C(4,1)*C(12,1)
p2098
tp2099
assVm8woo
p2100
(dp2101
S'part2_correct_attempt'
p2102
(lp2103
S'0:06:11'
p2104
aVC(47,2)-C(43,2)
p2105
asg9
V2015-10-22 21:21:26
p2106
sS'part2_incorrect_attempt'
p2107
(lp2108
(S'0:00:38'
p2109
VC(4,1)*C(46,1)
p2110
tp2111
a(S'0:04:25'
p2112
V4*46/2
p2113
tp2114
a(S'0:04:33'
p2115
V4*46
p2116
tp2117
assVggaddi
p2118
(dp2119
S'part2_correct_attempt'
p2120
(lp2121
S'0:04:55'
p2122
aVC(52-5,2) - C(52-9,2)
p2123
asg9
V2015-10-20 01:07:37
p2124
sS'part2_incorrect_attempt'
p2125
(lp2126
(S'-1 day, 23:57:38'
p2127
VC(4,1) + C(52-6, 1)
p2128
tp2129
a(S'0:00:09'
p2130
VC(4,1)* C(52-6, 1)
p2131
tp2132
a(S'0:00:18'
p2133
VC(4,1)
p2134
tp2135
a(S'0:03:41'
p2136
VP(4,1)
p2137
tp2138
assVb3hwang
p2139
(dp2140
S'part2_correct_attempt'
p2141
(lp2142
S'0:12:11'
p2143
ag1264
asg9
g1268
sS'part2_incorrect_attempt'
p2144
(lp2145
(S'0:00:14'
p2146
V4*4
p2147
tp2148
a(S'0:04:03'
p2149
V4*(52-6)
p2150
tp2151
a(S'0:05:26'
p2152
V8*(52-6)
p2153
tp2154
a(S'0:06:42'
p2155
V(4*46)
p2156
tp2157
a(S'0:08:02'
p2158
V3*8
p2159
tp2160
a(S'0:10:44'
p2161
VC(46,2)-C(42,2)
p2162
tp2163
assVlrlai
p2164
(dp2165
S'part2_correct_attempt'
p2166
(lp2167
S'0:36:58'
p2168
aVC(52-5,2) - C(52-5-4, 2)
p2169
asg9
V2015-10-22 03:23:24
p2170
sS'part2_incorrect_attempt'
p2171
(lp2172
(S'0:06:01'
p2173
V4*4 + 4*4
p2174
tp2175
assVlguintu
p2176
(dp2177
S'part2_correct_attempt'
p2178
(lp2179
S'0:07:18'
p2180
aVC(47,2) - C(43,2)
p2181
asg9
V2015-10-16 06:55:38
p2182
sS'part2_incorrect_attempt'
p2183
(lp2184
(S'0:05:25'
p2185
VC(4,2)
p2186
tp2187
a(S'0:05:31'
p2188
VC(4,1)
p2189
tp2190
assVc1sorian
p2191
(dp2192
S'part2_correct_attempt'
p2193
(lp2194
S'0:04:09'
p2195
ag1462
asg9
g1466
sS'part2_incorrect_attempt'
p2196
(lp2197
(S'0:00:50'
p2198
VC(4,1)*46
p2199
tp2200
a(S'0:01:22'
p2201
VC(4,2)
p2202
tp2203
a(S'0:03:17'
p2204
VC(4,1)*2*46
p2205
tp2206
assVabjara
p2207
(dp2208
S'part2_correct_attempt'
p2209
(lp2210
S'3:21:48'
p2211
aVC(47,2) - C(43,2)
p2212
asg9
V2015-10-21 18:45:35
p2213
sS'part2_incorrect_attempt'
p2214
(lp2215
(S'0:03:28'
p2216
VC(4,1)*C(46,1)
p2217
tp2218
assVasp025
p2219
(dp2220
S'part2_correct_attempt'
p2221
(lp2222
S'0:08:46'
p2223
aVC(47,2)-C(43,2)
p2224
asg9
V2015-10-21 19:03:49
p2225
sS'part2_incorrect_attempt'
p2226
(lp2227
(S'0:03:35'
p2228
VC(47,1)
p2229
tp2230
a(S'0:05:20'
p2231
VC(47,4)
p2232
tp2233
assVkrau
p2234
(dp2235
S'part2_correct_attempt'
p2236
(lp2237
S'0:08:00'
p2238
aVC(47,2)-C(43,2)
p2239
asg9
V2015-10-21 04:07:04
p2240
sS'part2_incorrect_attempt'
p2241
(lp2242
(S'0:02:58'
p2243
VC(4,1) * 2
p2244
tp2245
a(S'0:03:31'
p2246
V4*4
p2247
tp2248
a(S'0:04:47'
p2249
V43*4
p2250
tp2251
a(S'0:04:54'
p2252
V43*4 *2
p2253
tp2254
a(S'0:05:33'
p2255
V4*2*46
p2256
tp2257
assVkthui
p2258
(dp2259
S'part2_correct_attempt'
p2260
(lp2261
S'0:40:18'
p2262
aV47!/((47-2)!2!)-43!/((43-2)!2!)
p2263
asg9
V2015-10-18 08:33:27
p2264
sS'part2_incorrect_attempt'
p2265
(lp2266
(S'0:00:00'
p2267
V4*4
p2268
tp2269
a(S'0:08:50'
p2270
V4+4
p2271
tp2272
a(S'0:09:12'
p2273
V4*3
p2274
tp2275
a(S'0:09:22'
p2276
V4*3*2
p2277
tp2278
a(S'0:11:22'
p2279
V4*3+4*46+47*4
p2280
tp2281
a(S'0:11:28'
p2282
V4*3+4*46
p2283
tp2284
a(S'0:11:33'
p2285
V4*3+4*47
p2286
tp2287
a(S'0:14:32'
p2288
V4*3+4*46+47*4
p2289
tp2290
a(S'0:19:42'
p2291
V4+4*46/3+4*47/3
p2292
tp2293
a(S'0:27:06'
p2294
V4*46
p2295
tp2296
a(S'0:27:12'
p2297
V4*47
p2298
tp2299
a(S'0:27:20'
p2300
V4*46*2
p2301
tp2302
a(S'0:27:25'
p2303
V4*47*2
p2304
tp2305
a(S'0:30:36'
p2306
V47!/((47-4)!4!)
p2307
tp2308
assVbeyounge
p2309
(dp2310
S'part2_correct_attempt'
p2311
(lp2312
S'0:13:51'
p2313
aVC(47,2) - C(43,2)
p2314
asg9
V2015-10-17 06:05:22
p2315
sS'part2_incorrect_attempt'
p2316
(lp2317
(S'0:01:11'
p2318
VC(4,1) * C(46,1)
p2319
tp2320
a(S'0:02:15'
p2321
VC(4,1) * C(42,1)
p2322
tp2323
a(S'0:04:14'
p2324
VC(4,1) * C(46,1)
p2325
tp2326
a(S'0:08:34'
p2327
VC(4,2)
p2328
tp2329
a(S'0:09:19'
p2330
VC(4,1) * C(3,1)
p2331
tp2332
a(S'0:09:44'
p2333
VC(4,1) * C(4,1)
p2334
tp2335
a(S'0:09:56'
p2336
VC(4,1)
p2337
tp2338
a(S'0:11:48'
p2339
VC(4,2)
p2340
tp2341
assVjic212
p2342
(dp2343
S'part2_correct_attempt'
p2344
(lp2345
S'0:08:44'
p2346
aVC(47,2)-C(43,2)
p2347
asg9
V2015-10-22 22:52:29
p2348
sS'part2_incorrect_attempt'
p2349
(lp2350
(S'0:00:32'
p2351
V4*46
p2352
tp2353
a(S'0:01:01'
p2354
V4*3
p2355
tp2356
a(S'0:04:06'
p2357
V2*4*46
p2358
tp2359
a(S'0:04:21'
p2360
V4*46
p2361
tp2362
assVtpmach
p2363
(dp2364
S'part2_correct_attempt'
p2365
(lp2366
S'0:01:15'
p2367
aVC(47,2)-C(43,2)
p2368
asg9
V2015-10-22 03:00:05
p2369
sS'part2_incorrect_attempt'
p2370
(lp2371
(S'-1 day, 19:47:52'
p2372
VC(52-5,4)
p2373
tp2374
a(S'-1 day, 19:49:25'
p2375
VC(52-5,2)
p2376
tp2377
assVc2qiu
p2378
(dp2379
S'part2_correct_attempt'
p2380
(lp2381
S'1:54:50'
p2382
aVC(52-5,2)-C(52-5-4,2)
p2383
asg9
V2015-10-22 16:13:03
p2384
sS'part2_incorrect_attempt'
p2385
(lp2386
(S'0:00:00'
p2387
VC(2,1)*C(47,4)
p2388
tp2389
assVrraiyyan
p2390
(dp2391
S'part2_correct_attempt'
p2392
(lp2393
S'3:23:14'
p2394
aVC(47,2)-C(43,2)
p2395
asg9
V2015-10-22 20:15:25
p2396
sS'part2_incorrect_attempt'
p2397
(lp2398
(S'0:01:57'
p2399
V46*4
p2400
tp2401
a(S'3:09:43'
p2402
VC(4,2)
p2403
tp2404
a(S'3:23:03'
p2405
VC(45,2)-C(41,2)
p2406
tp2407
assVt1tran
p2408
(dp2409
S'part2_correct_attempt'
p2410
(lp2411
S'-1 day, 23:54:33'
p2412
aVC(47,2)-C(47-4,2)
p2413
asg9
V2015-10-18 04:05:59
p2414
sS'part2_incorrect_attempt'
p2415
(lp2416
(S'-1 day, 23:44:23'
p2417
VC(4,1)+5+C(46,1)
p2418
tp2419
assVjel075
p2420
(dp2421
S'part2_correct_attempt'
p2422
(lp2423
S'0:02:28'
p2424
aVC(47,2)-C(43,2)
p2425
asg9
V2015-10-21 22:21:39
p2426
sS'part2_incorrect_attempt'
p2427
(lp2428
(S'0:00:00'
p2429
VC(45,2)-C(41,2)
p2430
tp2431
assVw4shin
p2432
(dp2433
S'part2_correct_attempt'
p2434
(lp2435
S'0:00:00'
p2436
aV4*C(43,1)+C(4,2)
p2437
asg9
V2015-10-19 19:52:16
p2438
sS'part2_incorrect_attempt'
p2439
(lp2440
(S'-1 day, 23:38:32'
p2441
VC(52,5)*C(13,1)*C(4,1)*C(46,1)
p2442
tp2443
a(S'-1 day, 23:40:24'
p2444
VC(13,1)*C(4,1)*C(46,1)
p2445
tp2446
assVbakang
p2447
(dp2448
S'part2_correct_attempt'
p2449
(lp2450
S'0:42:20'
p2451
aVC(52-5,2)-C(52-5-4,2)
p2452
asg9
V2015-10-22 07:18:57
p2453
sS'part2_incorrect_attempt'
p2454
(lp2455
(S'0:00:40'
p2456
V4*46
p2457
tp2458
a(S'0:03:47'
p2459
V4*45
p2460
tp2461
a(S'0:05:22'
p2462
V4*46
p2463
tp2464
a(S'0:05:30'
p2465
V4*42
p2466
tp2467
a(S'0:08:03'
p2468
V4*46
p2469
tp2470
a(S'0:08:22'
p2471
VC(43,2)
p2472
tp2473
a(S'0:09:02'
p2474
VC(47,2)
p2475
tp2476
a(S'0:09:53'
p2477
VC(52-5-4,2)
p2478
tp2479
a(S'0:11:51'
p2480
VC(52-5-4,2)-12
p2481
tp2482
a(S'0:12:49'
p2483
VC(52-5-4,2)-12
p2484
tp2485
a(S'0:33:07'
p2486
VC(52-5-4,2)
p2487
tp2488
a(S'0:35:06'
p2489
V4*46
p2490
tp2491
a(S'0:35:49'
p2492
V4*43
p2493
tp2494
a(S'0:37:07'
p2495
V4*47
p2496
tp2497
a(S'0:38:56'
p2498
V46*4
p2499
tp2500
a(S'0:40:43'
p2501
V43*42
p2502
tp2503
a(S'0:41:04'
p2504
VC(52-5-4,2)
p2505
tp2506
assVakg009
p2507
(dp2508
S'part2_correct_attempt'
p2509
(lp2510
S'0:20:46'
p2511
aVC(47,2)-C(43,2)
p2512
asg9
V2015-10-22 23:54:21
p2513
sS'part2_incorrect_attempt'
p2514
(lp2515
(S'0:01:02'
p2516
V4*46
p2517
tp2518
a(S'0:01:12'
p2519
V4*47
p2520
tp2521
a(S'0:04:18'
p2522
V(52-5)
p2523
tp2524
a(S'0:18:31'
p2525
VC(43,1)*4*2
p2526
tp2527
assVjtfrankl
p2528
(dp2529
S'part2_correct_attempt'
p2530
(lp2531
S'0:07:05'
p2532
aVC(47,2)-C(43,2)
p2533
asg9
V2015-10-21 02:37:56
p2534
sS'part2_incorrect_attempt'
p2535
(lp2536
(S'0:00:25'
p2537
V4*46
p2538
tp2539
a(S'0:01:03'
p2540
V6*46
p2541
tp2542
a(S'0:02:25'
p2543
VC(4,2)
p2544
tp2545
a(S'0:04:50'
p2546
VC(4,1)*45
p2547
tp2548
a(S'0:05:50'
p2549
VC(4,1)*46
p2550
tp2551
assVcstringh
p2552
(dp2553
S'part2_correct_attempt'
p2554
(lp2555
S'0:18:27'
p2556
aVC(47,2) - C(43,2)
p2557
asg9
V2015-10-22 01:38:15
p2558
sS'part2_incorrect_attempt'
p2559
(lp2560
(S'0:01:26'
p2561
V4 * 46
p2562
tp2563
a(S'0:01:40'
p2564
V4 * 45
p2565
tp2566
a(S'0:02:02'
p2567
V4 * 47
p2568
tp2569
a(S'0:03:08'
p2570
VC(47,2)
p2571
tp2572
a(S'0:04:40'
p2573
V47*4
p2574
tp2575
a(S'0:04:51'
p2576
V47*4 + 1
p2577
tp2578
a(S'0:05:26'
p2579
V4*3
p2580
tp2581
a(S'0:06:31'
p2582
V4*46
p2583
tp2584
a(S'0:08:14'
p2585
V4 * C(47,1)
p2586
tp2587
a(S'0:08:36'
p2588
V4 * C(46,1)
p2589
tp2590
a(S'0:09:20'
p2591
V4 + 47
p2592
tp2593
a(S'0:09:47'
p2594
V4 + 43
p2595
tp2596
a(S'0:09:54'
p2597
V4 * 43
p2598
tp2599
a(S'0:10:51'
p2600
V4 * 12
p2601
tp2602
a(S'0:11:43'
p2603
V4*13
p2604
tp2605
a(S'0:12:32'
p2606
VC(52, 47)
p2607
tp2608
a(S'0:12:43'
p2609
VC(52, 47) + 4
p2610
tp2611
a(S'0:12:58'
p2612
V52 + 47
p2613
tp2614
a(S'0:13:15'
p2615
V52 - 47
p2616
tp2617
assVj5phung
p2618
(dp2619
S'part2_correct_attempt'
p2620
(lp2621
S'4:43:40'
p2622
aVC(47,2)-C(43,2)
p2623
asg9
V2015-10-16 19:10:56
p2624
sS'part2_incorrect_attempt'
p2625
(lp2626
(S'-1 day, 22:58:59'
p2627
V4*47
p2628
tp2629
a(S'-1 day, 23:10:27'
p2630
VC(4,1)*C(47,2)*C(7,5)
p2631
tp2632
a(S'-1 day, 23:19:38'
p2633
VC(4,1)*C(47,2)*13
p2634
tp2635
a(S'-1 day, 23:21:12'
p2636
VC(4,1)*C(47,2)*2
p2637
tp2638
a(S'-1 day, 23:21:20'
p2639
VC(4,1)*C(47,2)*3
p2640
tp2641
a(S'0:00:09'
p2642
VC(4,1)
p2643
tp2644
a(S'0:00:38'
p2645
VC(4,1)*C(45,1)
p2646
tp2647
a(S'0:00:49'
p2648
VC(4,1)*C(46,1)
p2649
tp2650
a(S'0:02:04'
p2651
VC(4,2)
p2652
tp2653
a(S'0:04:23'
p2654
VC(4,1)*C(13,1)
p2655
tp2656
a(S'0:04:57'
p2657
VC(4,1)*C(47,1)
p2658
tp2659
a(S'0:05:06'
p2660
VC(4,1)*C(43,1)
p2661
tp2662
a(S'0:05:43'
p2663
VC(4,1)*C(3,1)
p2664
tp2665
a(S'0:06:01'
p2666
VC(4,2)
p2667
tp2668
a(S'0:06:11'
p2669
VC(4,1)^2
p2670
tp2671
a(S'0:07:00'
p2672
VC(4,1)*C(47,1)*C(3,1)*C(46,1)
p2673
tp2674
a(S'0:08:42'
p2675
V4*3*43*42
p2676
tp2677
a(S'0:10:09'
p2678
VC(4,2)
p2679
tp2680
a(S'0:10:23'
p2681
V4*3
p2682
tp2683
a(S'0:20:50'
p2684
VC(4,2)*C(45,2)
p2685
tp2686
a(S'0:20:57'
p2687
VC(4,2)*C(47,2)
p2688
tp2689
a(S'0:22:09'
p2690
VC(4,2)*C(45,2)
p2691
tp2692
a(S'0:24:10'
p2693
VC(4,1)*C(46,1)
p2694
tp2695
a(S'0:28:45'
p2696
V2*C(4,2)
p2697
tp2698
a(S'0:29:00'
p2699
V2*C(4,1)*64
p2700
tp2701
a(S'0:29:15'
p2702
V2*C(4,1)*46
p2703
tp2704
a(S'0:29:39'
p2705
V2(C(4,1)*46)+C(4,2)
p2706
tp2707
a(S'0:30:19'
p2708
V2(C(4,1)*43)+C(4,2)
p2709
tp2710
a(S'0:31:31'
p2711
V2*4*43+4*3
p2712
tp2713
a(S'0:31:45'
p2714
V2*4*43
p2715
tp2716
a(S'0:32:10'
p2717
V4*43
p2718
tp2719
a(S'0:32:20'
p2720
V4*46
p2721
tp2722
a(S'0:32:28'
p2723
V4*46*2
p2724
tp2725
a(S'0:32:35'
p2726
V4*46*2-1
p2727
tp2728
a(S'0:32:42'
p2729
V4*46*2-12
p2730
tp2731
a(S'0:43:35'
p2732
V2*C(4,2)
p2733
tp2734
a(S'4:37:20'
p2735
V2^13-C(4,2)
p2736
tp2737
a(S'4:38:18'
p2738
V47-12
p2739
tp2740
assVrbdoming
p2741
(dp2742
S'part2_correct_attempt'
p2743
(lp2744
S'0:12:37'
p2745
aVC(47,2)-C(43,2)
p2746
asg9
V2015-10-21 18:21:57
p2747
sS'part2_incorrect_attempt'
p2748
(lp2749
(S'0:00:41'
p2750
V46*4
p2751
tp2752
a(S'0:03:05'
p2753
VC(47,4)
p2754
tp2755
a(S'0:06:38'
p2756
V4*43
p2757
tp2758
a(S'0:07:46'
p2759
V47*46
p2760
tp2761
a(S'0:10:12'
p2762
V46*4
p2763
tp2764
assVqfu
p2765
(dp2766
S'part2_correct_attempt'
p2767
(lp2768
S'0:04:48'
p2769
aVC(47,2)-C(43,2)
p2770
asg9
V2015-10-16 03:06:10
p2771
sS'part2_incorrect_attempt'
p2772
(lp2773
(S'0:01:10'
p2774
V4*4*C(48,1)
p2775
tp2776
a(S'0:02:15'
p2777
V4*C(48,1)
p2778
tp2779
a(S'0:02:42'
p2780
V4*C(46,1)
p2781
tp2782
assVdcastlem
p2783
(dp2784
S'part2_correct_attempt'
p2785
(lp2786
S'0:28:59'
p2787
aVC(47,2)-C(43,2)
p2788
asg9
V2015-10-21 20:55:07
p2789
sS'part2_incorrect_attempt'
p2790
(lp2791
(S'0:02:31'
p2792
V(C(4,2)*(52-6))-16
p2793
tp2794
a(S'0:03:06'
p2795
V(C(4,2)*(52-6))
p2796
tp2797
a(S'0:09:59'
p2798
VC(47,3)-(52-6)
p2799
tp2800
a(S'0:10:33'
p2801
VC(47,1)-(52-6)
p2802
tp2803
a(S'0:10:40'
p2804
VC(47,5)-(52-6)
p2805
tp2806
a(S'0:16:26'
p2807
VC(4,1)*(52-6)-3
p2808
tp2809
a(S'0:23:52'
p2810
V52-16
p2811
tp2812
a(S'0:24:05'
p2813
VC(52,2)
p2814
tp2815
a(S'0:24:10'
p2816
VC(52,7)
p2817
tp2818
a(S'0:27:40'
p2819
V(C(4,1)*(52-6))-16
p2820
tp2821
assVhsc052
p2822
(dp2823
S'part2_correct_attempt'
p2824
(lp2825
S'1:49:04'
p2826
aVC(47,2)-C(43,2)
p2827
asg9
V2015-10-22 03:23:27
p2828
sS'part2_incorrect_attempt'
p2829
(lp2830
(S'1:17:48'
p2831
V4+4+4*3
p2832
tp2833
a(S'1:19:34'
p2834
VC(4,2)
p2835
tp2836
a(S'1:20:02'
p2837
VC(4,2)+4+4
p2838
tp2839
a(S'1:31:42'
p2840
VC(4,2)+C(4,1)
p2841
tp2842
a(S'1:37:48'
p2843
VC(47,4)
p2844
tp2845
assVdac064
p2846
(dp2847
S'part2_correct_attempt'
p2848
(lp2849
S'0:05:19'
p2850
aVC(47,2) - C(43,2) 
p2851
asg9
V2015-10-22 20:51:27
p2852
sS'part2_incorrect_attempt'
p2853
(lp2854
(S'0:00:36'
p2855
V4 * (C(46,1))
p2856
tp2857
a(S'0:01:47'
p2858
VC(4,1)C(46,1)
p2859
tp2860
assVv3doan
p2861
(dp2862
S'part2_correct_attempt'
p2863
(lp2864
S'0:03:31'
p2865
ag1507
asg9
g1511
sS'part2_incorrect_attempt'
p2866
(lp2867
(S'0:00:24'
p2868
V4 * 46
p2869
tp2870
a(S'0:02:36'
p2871
VC(4,2) * 46
p2872
tp2873
assVsghouse
p2874
(dp2875
S'part2_correct_attempt'
p2876
(lp2877
S'0:05:52'
p2878
aVC(47,2)-C(43,2)
p2879
asg9
V2015-10-22 00:13:42
p2880
sS'part2_incorrect_attempt'
p2881
(lp2882
(S'0:00:30'
p2883
V4*46
p2884
tp2885
assVjyc018
p2886
(dp2887
S'part2_correct_attempt'
p2888
(lp2889
S'0:07:07'
p2890
aV184-6
p2891
asg9
V2015-10-22 23:16:45
p2892
sS'part2_incorrect_attempt'
p2893
(lp2894
(S'0:01:05'
p2895
V4*(52-7)
p2896
tp2897
a(S'0:01:43'
p2898
V4*(52-5)
p2899
tp2900
a(S'0:02:06'
p2901
V4*(52-1-5)
p2902
tp2903
assVh4tu
p2904
(dp2905
S'part2_correct_attempt'
p2906
(lp2907
S'0:05:58'
p2908
aVC(47,2)-C(43,2)
p2909
asg9
V2015-10-22 16:45:09
p2910
sS'part2_incorrect_attempt'
p2911
(lp2912
(S'0:01:46'
p2913
V4*46
p2914
tp2915
a(S'0:02:15'
p2916
V4*46+47*3
p2917
tp2918
a(S'0:02:41'
p2919
V4*46+47*4
p2920
tp2921
assVjix029
p2922
(dp2923
S'part2_correct_attempt'
p2924
(lp2925
S'0:01:41'
p2926
aV1081-903
p2927
asg9
V2015-10-20 21:13:06
p2928
sS'part2_incorrect_attempt'
p2929
(lp2930
(S'0:00:00'
p2931
V4*48
p2932
tp2933
assVkebao
p2934
(dp2935
S'part2_correct_attempt'
p2936
(lp2937
S'0:02:45'
p2938
aV(C(4,1)*(52-7))-2
p2939
asg9
V2015-10-22 15:43:58
p2940
sS'part2_incorrect_attempt'
p2941
(lp2942
(S'-1 day, 23:55:06'
p2943
V(C(4,1)*(52-6))
p2944
tp2945
a(S'-1 day, 23:55:28'
p2946
V(C(4,1)*(52-7))
p2947
tp2948
a(S'0:02:37'
p2949
V(C(4,1)*(52-7))-1
p2950
tp2951
assVglcohen
p2952
(dp2953
S'part2_correct_attempt'
p2954
(lp2955
S'0:08:04'
p2956
aVC(47,2)-C(43,2)
p2957
asg9
V2015-10-20 15:20:38
p2958
sS'part2_incorrect_attempt'
p2959
(lp2960
(S'0:01:21'
p2961
VC(4,2)
p2962
tp2963
a(S'0:02:52'
p2964
VC(4,2)*(C(4,1)C(4,1))
p2965
tp2966
a(S'0:04:40'
p2967
VC(4,1)C(46,1)
p2968
tp2969
a(S'0:06:29'
p2970
VC(4,1)C(46,1)+1
p2971
tp2972
a(S'0:06:37'
p2973
VC(4,1)C(46,1)+3
p2974
tp2975
assVacvuong
p2976
(dp2977
S'part2_correct_attempt'
p2978
(lp2979
S'0:26:14'
p2980
ag1381
asg9
g1386
sS'part2_incorrect_attempt'
p2981
(lp2982
(S'0:00:00'
p2983
V4*46
p2984
tp2985
a(S'0:12:21'
p2986
V4*12
p2987
tp2988
a(S'0:13:45'
p2989
V8*46
p2990
tp2991
a(S'0:23:12'
p2992
VC(46,2) - C(44,2)
p2993
tp2994
a(S'0:23:34'
p2995
VC(46,1) - C(44,1)
p2996
tp2997
a(S'0:25:13'
p2998
VC(46,2) - C(42,2)
p2999
tp3000
assVsachadal
p3001
(dp3002
S'part2_correct_attempt'
p3003
(lp3004
S'0:17:53'
p3005
aVC(47,2) - C(43,2)
p3006
asg9
V2015-10-22 19:31:38
p3007
sS'part2_incorrect_attempt'
p3008
(lp3009
(S'-1 day, 23:54:57'
p3010
V4*C(46,1)*4
p3011
tp3012
a(S'0:02:38'
p3013
V4*43
p3014
tp3015
a(S'0:02:45'
p3016
V4*42
p3017
tp3018
assVawollner
p3019
(dp3020
S'part2_correct_attempt'
p3021
(lp3022
S'0:04:06'
p3023
aVC(47,2)- C(43,2)
p3024
asg9
V2015-10-21 17:53:11
p3025
sS'part2_incorrect_attempt'
p3026
(lp3027
(S'0:00:00'
p3028
V4*46
p3029
tp3030
assVpvl001
p3031
(dp3032
S'part2_correct_attempt'
p3033
(lp3034
S'0:10:33'
p3035
aVC(47,2) - C(43,2)
p3036
asg9
V2015-10-19 22:35:54
p3037
sS'part2_incorrect_attempt'
p3038
(lp3039
(S'0:00:12'
p3040
V4 * 3
p3041
tp3042
a(S'0:02:30'
p3043
V4 * 46
p3044
tp3045
a(S'0:05:10'
p3046
V4 * 45
p3047
tp3048
a(S'0:05:43'
p3049
V4 * 46 / 2
p3050
tp3051
a(S'0:06:05'
p3052
V4 * 46 * 2
p3053
tp3054
a(S'0:06:28'
p3055
VC(4,2)
p3056
tp3057
a(S'0:07:47'
p3058
V4 * 46 * 2 - 1
p3059
tp3060
a(S'0:08:53'
p3061
V(4 * 46)/2 - 1
p3062
tp3063
assVjcj006
p3064
(dp3065
S'part2_correct_attempt'
p3066
(lp3067
S'0:01:30'
p3068
aV4*46-6
p3069
asg9
V2015-10-21 22:58:29
p3070
sS'part2_incorrect_attempt'
p3071
(lp3072
(S'-1 day, 23:59:17'
p3073
V2*46
p3074
tp3075
a(S'0:00:34'
p3076
V4*46
p3077
tp3078
assVdlt009
p3079
(dp3080
S'part2_correct_attempt'
p3081
(lp3082
S'0:11:27'
p3083
aVC(47,2)-C(43,2)
p3084
asg9
V2015-10-22 06:53:48
p3085
sS'part2_incorrect_attempt'
p3086
(lp3087
(S'0:00:00'
p3088
V4*46
p3089
tp3090
assVmbl003
p3091
(dp3092
S'part2_correct_attempt'
p3093
(lp3094
S'0:02:30'
p3095
aVC(52-5,2)-C(52-5-4,2)
p3096
asg9
V2015-10-21 19:34:33
p3097
sS'part2_incorrect_attempt'
p3098
(lp3099
(S'0:00:58'
p3100
VC(4,1)*C(4,1)
p3101
tp3102
a(S'0:01:35'
p3103
VC(4,2)
p3104
tp3105
assVksmurlo
p3106
(dp3107
S'part2_correct_attempt'
p3108
(lp3109
S'0:04:57'
p3110
aVC(47,2)-C(43,2)
p3111
asg9
V2015-10-21 00:00:07
p3112
sS'part2_incorrect_attempt'
p3113
(lp3114
(S'0:00:00'
p3115
V4*46
p3116
tp3117
a(S'0:00:59'
p3118
V4*46*2
p3119
tp3120
a(S'0:01:07'
p3121
V4*46/2
p3122
tp3123
a(S'0:04:41'
p3124
VC(46,2)-C(42,2)
p3125
tp3126
assVttimmons
p3127
(dp3128
S'part2_correct_attempt'
p3129
(lp3130
S'0:23:42'
p3131
aVC(52-5,2) - C(52-5-4,2)
p3132
asg9
V2015-10-21 18:25:30
p3133
sS'part2_incorrect_attempt'
p3134
(lp3135
(S'0:01:47'
p3136
VC(52-6+4, 2)
p3137
tp3138
a(S'0:02:08'
p3139
V52-6+4
p3140
tp3141
a(S'0:02:26'
p3142
V(52-6)*4
p3143
tp3144
a(S'0:06:06'
p3145
V(C(4,1)*C(52-6,1))
p3146
tp3147
a(S'0:07:53'
p3148
V(C(4,1)*(52-6))
p3149
tp3150
a(S'0:10:29'
p3151
VC((C(4,1)*(52-6)),2)
p3152
tp3153
a(S'0:13:26'
p3154
V(C(4,1)*(52-6))-4
p3155
tp3156
a(S'0:13:33'
p3157
V(C(4,1)*(52-6))-3
p3158
tp3159
a(S'0:14:36'
p3160
V(52-6)*3
p3161
tp3162
a(S'0:15:00'
p3163
VC(52-6,2)*C(4,1)
p3164
tp3165
a(S'0:16:10'
p3166
VC(4,1)*(52-6)-((52-5)*C(3,1))
p3167
tp3168
a(S'0:18:36'
p3169
V(52-5)-3
p3170
tp3171
a(S'0:21:11'
p3172
V(52-5)-4
p3173
tp3174
a(S'0:21:25'
p3175
VC(52-5-4,2)
p3176
tp3177
assVjnatale
p3178
(dp3179
S'part2_correct_attempt'
p3180
(lp3181
S'1:35:22'
p3182
aVC(47,2) - C(43,2)
p3183
asg9
V2015-10-21 01:04:07
p3184
sS'part2_incorrect_attempt'
p3185
(lp3186
(S'0:00:54'
p3187
V4*45
p3188
tp3189
a(S'0:02:25'
p3190
V4 * 45
p3191
tp3192
a(S'0:02:30'
p3193
V4 * 45 * 2
p3194
tp3195
a(S'0:03:04'
p3196
V4 * 46
p3197
tp3198
a(S'0:03:33'
p3199
V4*46*2
p3200
tp3201
a(S'0:13:59'
p3202
V4*19
p3203
tp3204
a(S'0:14:05'
p3205
V4*18
p3206
tp3207
a(S'0:15:23'
p3208
V4 * 46
p3209
tp3210
a(S'0:28:06'
p3211
V4 * 45
p3212
tp3213
a(S'0:28:37'
p3214
V4 * 45 * 2
p3215
tp3216
a(S'0:30:07'
p3217
V4 * 46 * 2
p3218
tp3219
a(S'0:34:46'
p3220
V4 * 3 / 2
p3221
tp3222
a(S'0:35:08'
p3223
V4 * 3
p3224
tp3225
a(S'0:37:03'
p3226
V4 * 49
p3227
tp3228
a(S'0:37:09'
p3229
V4 * 41
p3230
tp3231
a(S'0:37:15'
p3232
V4 * 42
p3233
tp3234
a(S'0:40:43'
p3235
VC(4,1) * 42
p3236
tp3237
a(S'0:40:47'
p3238
VC(4,1) * 46
p3239
tp3240
a(S'0:41:22'
p3241
V4 * 46
p3242
tp3243
a(S'1:10:09'
p3244
V4 *46
p3245
tp3246
assVganajera
p3247
(dp3248
S'part2_correct_attempt'
p3249
(lp3250
S'2:55:28'
p3251
aVC(47,2)-C(43,2)
p3252
asg9
V2015-10-17 21:18:27
p3253
sS'part2_incorrect_attempt'
p3254
(lp3255
(S'0:00:00'
p3256
V4*46
p3257
tp3258
a(S'0:05:07'
p3259
V4*3
p3260
tp3261
assVnnh002
p3262
(dp3263
S'part2_correct_attempt'
p3264
(lp3265
S'-1 day, 22:55:08'
p3266
aVC(47,2)-C(43,2)
p3267
asg9
V2015-10-22 04:33:52
p3268
sS'part2_incorrect_attempt'
p3269
(lp3270
(S'-1 day, 22:50:55'
p3271
VC(47,4)
p3272
tp3273
assVakhmelni
p3274
(dp3275
S'part2_correct_attempt'
p3276
(lp3277
S'0:04:45'
p3278
aV12/2 + (2*4*43)/2
p3279
asg9
V2015-10-22 22:24:10
p3280
sS'part2_incorrect_attempt'
p3281
(lp3282
(S'0:00:23'
p3283
VC(52,7)
p3284
tp3285
assVtol003
p3286
(dp3287
S'part2_correct_attempt'
p3288
(lp3289
S'0:11:45'
p3290
aVC(47,2)-C(43,2)
p3291
asg9
V2015-10-21 00:19:10
p3292
sS'part2_incorrect_attempt'
p3293
(lp3294
(S'0:00:00'
p3295
VC(4,2)
p3296
tp3297
a(S'0:07:06'
p3298
VC(47,2)
p3299
tp3300
assVaakumar
p3301
(dp3302
S'part2_correct_attempt'
p3303
(lp3304
S'15:37:19'
p3305
aVC(47,2)-C(43,2)
p3306
asg9
V2015-10-19 07:10:07
p3307
sS'part2_incorrect_attempt'
p3308
(lp3309
(S'15:35:04'
p3310
V6*46
p3311
tp3312
a(S'15:35:34'
p3313
V6*43
p3314
tp3315
assVkew017
p3316
(dp3317
S'part2_correct_attempt'
p3318
(lp3319
S'0:12:06'
p3320
aVC(52-5,2)-C(52-5-4,2)
p3321
asg9
V2015-10-22 20:11:58
p3322
sS'part2_incorrect_attempt'
p3323
(lp3324
(S'0:03:53'
p3325
VC(4,2)
p3326
tp3327
a(S'0:05:48'
p3328
V2*4
p3329
tp3330
a(S'0:08:31'
p3331
V4*(52-5-1)
p3332
tp3333
a(S'0:08:37'
p3334
V4*(52-5)
p3335
tp3336
a(S'0:08:45'
p3337
V(52-5)
p3338
tp3339
a(S'0:09:39'
p3340
V4*(52-5-1)
p3341
tp3342
a(S'0:10:04'
p3343
V(52-5-1)
p3344
tp3345
assVyeh013
p3346
(dp3347
S'part2_correct_attempt'
p3348
(lp3349
S'0:08:55'
p3350
aV178
p3351
asg9
V2015-10-22 08:53:45
p3352
sS'part2_incorrect_attempt'
p3353
(lp3354
(S'0:01:25'
p3355
V4*46
p3356
tp3357
assVeaherman
p3358
(dp3359
S'part2_correct_attempt'
p3360
(lp3361
S'0:11:53'
p3362
aVC(47,2)-C(43,2)
p3363
asg9
V2015-10-22 15:31:20
p3364
sS'part2_incorrect_attempt'
p3365
(lp3366
(S'0:01:25'
p3367
VC(8,2)
p3368
tp3369
assVasetters
p3370
(dp3371
S'part2_correct_attempt'
p3372
(lp3373
S'0:22:13'
p3374
aV12/2 + ((2*4*43)/2)
p3375
asg9
V2015-10-20 07:07:53
p3376
sS'part2_incorrect_attempt'
p3377
(lp3378
(S'0:00:39'
p3379
V4*46
p3380
tp3381
a(S'0:00:59'
p3382
V4*46/2
p3383
tp3384
a(S'0:02:55'
p3385
V4*47
p3386
tp3387
a(S'0:03:05'
p3388
V4*47/2
p3389
tp3390
a(S'0:03:41'
p3391
V4*46
p3392
tp3393
a(S'0:04:16'
p3394
V47*4 + 4*46
p3395
tp3396
a(S'0:05:12'
p3397
V2*4*46
p3398
tp3399
a(S'0:05:41'
p3400
V4*46+4*47
p3401
tp3402
a(S'0:06:20'
p3403
V47*46
p3404
tp3405
a(S'0:07:08'
p3406
V4*3 + 47 *4 + 4*43
p3407
tp3408
a(S'0:08:07'
p3409
V4*46
p3410
tp3411
a(S'0:08:32'
p3412
V4*46/2
p3413
tp3414
assVtdurrer
p3415
(dp3416
g9
V2015-10-22 23:32:12
p3417
sS'part2_incorrect_attempt'
p3418
(lp3419
(S'0:04:45'
p3420
VC(4,1)*C(46,1)
p3421
tp3422
a(S'0:06:15'
p3423
VC(4,1)*C(46,43)
p3424
tp3425
a(S'0:07:56'
p3426
VC(4,1)*(52-5-4)
p3427
tp3428
a(S'0:10:00'
p3429
VC(52-5-4,1)*C(4,1)
p3430
tp3431
a(S'0:10:11'
p3432
VC(52-5-4,1)+C(4,1)
p3433
tp3434
assVcsl030
p3435
(dp3436
S'part2_correct_attempt'
p3437
(lp3438
S'0:06:52'
p3439
aVC(47,2) - C(43,2)
p3440
asg9
V2015-10-22 04:04:09
p3441
sS'part2_incorrect_attempt'
p3442
(lp3443
(S'0:00:10'
p3444
V4 * 3
p3445
tp3446
a(S'0:01:02'
p3447
V4 * C(46, 1)
p3448
tp3449
a(S'0:01:48'
p3450
V4 * 46 * 2
p3451
tp3452
a(S'0:03:17'
p3453
V4 * 46 - 1
p3454
tp3455
a(S'0:03:24'
p3456
V4 * 46 - 2
p3457
tp3458
a(S'0:04:38'
p3459
V4 * (46) - 4
p3460
tp3461
assVyhhan
p3462
(dp3463
S'part2_correct_attempt'
p3464
(lp3465
S'1:39:30'
p3466
aV43*4 + C(4,2)
p3467
asg9
V2015-10-22 21:39:52
p3468
sS'part2_incorrect_attempt'
p3469
(lp3470
(S'0:01:15'
p3471
V8+12
p3472
tp3473
a(S'1:39:08'
p3474
V43*4 + 12
p3475
tp3476
assVvolim
p3477
(dp3478
S'part2_correct_attempt'
p3479
(lp3480
S'0:42:52'
p3481
ag1404
asg9
g1409
sS'part2_incorrect_attempt'
p3482
(lp3483
(S'0:06:42'
p3484
VC(52-5,2)*C(13,1)*C(4,1)
p3485
tp3486
a(S'0:08:04'
p3487
V2(C(13,1)*C(4,1))+(C(13,1)*C(4,2))
p3488
tp3489
a(S'0:08:22'
p3490
V(C(13,1)*C(4,1))+(C(13,1)*C(4,2))
p3491
tp3492
a(S'0:10:30'
p3493
V((12^4)^2)
p3494
tp3495
a(S'0:10:58'
p3496
V((46^4)^2)
p3497
tp3498
a(S'0:11:42'
p3499
V46^4
p3500
tp3501
a(S'0:11:56'
p3502
V(52-6)^4
p3503
tp3504
a(S'0:19:04'
p3505
V(46^4)+(46^4)
p3506
tp3507
a(S'0:20:41'
p3508
V(46^4)+(46^4)-12
p3509
tp3510
a(S'0:21:42'
p3511
V(46^4)+(45^4)
p3512
tp3513
a(S'0:25:49'
p3514
VC(13,1)*C(4,1)*C(45,1)
p3515
tp3516
a(S'0:25:58'
p3517
VC(13,1)*C(45,1)
p3518
tp3519
a(S'0:33:55'
p3520
V(4*45)
p3521
tp3522
a(S'0:34:18'
p3523
V(4*45)+(4*44)
p3524
tp3525
a(S'0:35:02'
p3526
V2(4*42)+12
p3527
tp3528
assVv4sharma
p3529
(dp3530
S'part2_correct_attempt'
p3531
(lp3532
S'0:07:00'
p3533
aVC(47,2) - C(43,2)
p3534
asg9
V2015-10-22 02:50:33
p3535
sS'part2_incorrect_attempt'
p3536
(lp3537
(S'0:02:37'
p3538
VC(4,2)
p3539
tp3540
assVatorr
p3541
(dp3542
g9
V2015-10-22 23:29:25
p3543
sS'part2_incorrect_attempt'
p3544
(lp3545
(S'0:01:41'
p3546
VC(52,2) - C(48,2)
p3547
tp3548
a(S'0:01:57'
p3549
VC(52,1) - C(48,1)
p3550
tp3551
a(S'0:03:12'
p3552
V52 - 4
p3553
tp3554
a(S'0:05:40'
p3555
VC(52 - 5,1)
p3556
tp3557
a(S'0:06:32'
p3558
VC(52 - 5,1) - 12
p3559
tp3560
a(S'0:07:30'
p3561
VC(52 - 5,1) - C(52 - 9,1)
p3562
tp3563
a(S'0:08:11'
p3564
VC(52 - 5,1) - C(47 - 4,1)
p3565
tp3566
a(S'0:11:10'
p3567
V((C(52 - 5,1) * C(4,1)) - C(47 - 4,1))
p3568
tp3569
a(S'0:11:54'
p3570
VC(52 - 5,1) - C(47 - 4,1)
p3571
tp3572
a(S'0:13:15'
p3573
V(C(52 - 5,1) - C(47 - 4,1)) * C(4,1)
p3574
tp3575
a(S'0:18:26'
p3576
VC(4,1) * C(47,1) - C(43,1)
p3577
tp3578
a(S'0:18:34'
p3579
VC(4,1) (C(47,1) - C(43,1))
p3580
tp3581
a(S'0:18:46'
p3582
VC(4,1) * (C(47,1) - C(43,1))
p3583
tp3584
assVcagatep
p3585
(dp3586
S'part2_correct_attempt'
p3587
(lp3588
S'0:07:37'
p3589
aVC(47, 2) - C(43, 2)
p3590
asg9
V2015-10-22 21:17:31
p3591
sS'part2_incorrect_attempt'
p3592
(lp3593
(S'-1 day, 23:56:56'
p3594
VC(4,1) + C(46,1)
p3595
tp3596
a(S'0:00:16'
p3597
V(C(4,1) + C(46,1)) * 2
p3598
tp3599
a(S'0:00:49'
p3600
VC(4, 1)
p3601
tp3602
a(S'0:00:56'
p3603
VC(4, 1) * 2
p3604
tp3605
a(S'0:01:22'
p3606
VC(4, 1) + C(46, 1)
p3607
tp3608
a(S'0:03:14'
p3609
VC(4, 2)
p3610
tp3611
a(S'0:03:36'
p3612
V2(C(4, 1) + C(46, 1))
p3613
tp3614
assVtjke
p3615
(dp3616
S'part2_correct_attempt'
p3617
(lp3618
S'0:04:00'
p3619
aVC(47,2)-C(43,2)
p3620
asg9
V2015-10-18 04:56:52
p3621
sS'part2_incorrect_attempt'
p3622
(lp3623
(S'0:01:25'
p3624
V4*47
p3625
tp3626
a(S'0:01:59'
p3627
V4*46
p3628
tp3629
a(S'0:02:08'
p3630
V4*(47-4)
p3631
tp3632
assVskarimik
p3633
(dp3634
S'part2_correct_attempt'
p3635
(lp3636
S'0:33:24'
p3637
aVC(47,2)-C(43,2)
p3638
asg9
V2015-10-17 22:10:47
p3639
sS'part2_incorrect_attempt'
p3640
(lp3641
(S'0:00:00'
p3642
V(4!/(2!2!))*45
p3643
tp3644
a(S'0:02:19'
p3645
V(4)*46
p3646
tp3647
a(S'0:13:42'
p3648
V(4)*43
p3649
tp3650
a(S'0:19:03'
p3651
V2*(4)*46
p3652
tp3653
a(S'0:20:33'
p3654
V4*42
p3655
tp3656
assVr2fisher
p3657
(dp3658
S'part2_correct_attempt'
p3659
(lp3660
S'0:07:11'
p3661
ag1295
asg9
g1300
sS'part2_incorrect_attempt'
p3662
(lp3663
(S'0:01:30'
p3664
V4*46
p3665
tp3666
assVt2shin
p3667
(dp3668
S'part2_correct_attempt'
p3669
(lp3670
S'0:06:22'
p3671
aV(47!/(2!45!))-(43!/(2!41!))
p3672
asg9
V2015-10-22 23:20:42
p3673
sS'part2_incorrect_attempt'
p3674
(lp3675
(S'0:02:22'
p3676
V4*46
p3677
tp3678
assVvsamant
p3679
(dp3680
S'part2_correct_attempt'
p3681
(lp3682
S'0:09:27'
p3683
aVC(47,2)-C(43,2)
p3684
asg9
V2015-10-21 19:00:33
p3685
sS'part2_incorrect_attempt'
p3686
(lp3687
(S'0:03:29'
p3688
VC(4,1)*C(47,1)
p3689
tp3690
assVaportuga
p3691
(dp3692
S'part2_correct_attempt'
p3693
(lp3694
S'0:02:36'
p3695
aV1081-903
p3696
asg9
V2015-10-21 07:52:40
p3697
sS'part2_incorrect_attempt'
p3698
(lp3699
(S'0:01:39'
p3700
V1533939-962598
p3701
tp3702
assVppanourg
p3703
(dp3704
S'part2_correct_attempt'
p3705
(lp3706
S'-1 day, 23:30:39'
p3707
aV1081
p3708
asg9
V2015-10-22 21:47:48
p3709
sS'part2_incorrect_attempt'
p3710
(lp3711
(S'-1 day, 13:14:33'
p3712
V7*4^7
p3713
tp3714
assVewbrenna
p3715
(dp3716
S'part2_correct_attempt'
p3717
(lp3718
S'1:51:53'
p3719
aVC(47,2)-C(43,2)
p3720
asg9
V2015-10-22 04:41:25
p3721
sS'part2_incorrect_attempt'
p3722
(lp3723
(S'0:01:00'
p3724
V4*52*2
p3725
tp3726
a(S'0:01:24'
p3727
VC(52,1)*4
p3728
tp3729
a(S'0:05:30'
p3730
VC(52,1)*4*2
p3731
tp3732
a(S'0:05:37'
p3733
VC(52,1)
p3734
tp3735
a(S'0:05:44'
p3736
VC(52,1)^2
p3737
tp3738
a(S'0:05:56'
p3739
VC(52,1)*3
p3740
tp3741
a(S'0:06:10'
p3742
VC(52,1)*4
p3743
tp3744
a(S'0:06:17'
p3745
VC(52,1)*8
p3746
tp3747
a(S'0:06:23'
p3748
VC(52,1)*16
p3749
tp3750
a(S'0:06:44'
p3751
VC(52,1)*2
p3752
tp3753
a(S'0:10:16'
p3754
VC(52,2)-C(48,2)
p3755
tp3756
a(S'0:51:36'
p3757
VC(52,2)-C(47,2)
p3758
tp3759
a(S'0:52:51'
p3760
VC(4,1)*C(52,2)*2
p3761
tp3762
a(S'0:55:09'
p3763
VC(52,2)
p3764
tp3765
a(S'0:55:48'
p3766
VC(52,2)-C(48,2)
p3767
tp3768
a(S'0:56:29'
p3769
VC(52,2)-C(42,2)
p3770
tp3771
a(S'0:56:50'
p3772
V52*4*2
p3773
tp3774
a(S'0:59:15'
p3775
VC(52,2)-C(48,2)
p3776
tp3777
a(S'1:00:29'
p3778
VC(52,2)-C(47,2)
p3779
tp3780
a(S'1:00:36'
p3781
VC(52,2)-C(48,2)
p3782
tp3783
a(S'1:00:41'
p3784
VC(52,2)-C(48,2)-1
p3785
tp3786
a(S'1:00:49'
p3787
VC(52,2)-C(48,2)-2
p3788
tp3789
a(S'1:00:56'
p3790
VC(52,2)-C(48,2)+2
p3791
tp3792
a(S'1:01:03'
p3793
VC(52,2)-C(48,2)+1
p3794
tp3795
a(S'1:48:45'
p3796
V46*4
p3797
tp3798
a(S'1:50:43'
p3799
VC(52,2)-C(48,2)
p3800
tp3801
assVany027
p3802
(dp3803
S'part2_correct_attempt'
p3804
(lp3805
S'0:08:59'
p3806
ag1424
asg9
g1428
sS'part2_incorrect_attempt'
p3807
(lp3808
(S'0:02:27'
p3809
VP(47,2)
p3810
tp3811
a(S'0:04:01'
p3812
V4 * C(46,1)
p3813
tp3814
a(S'0:04:13'
p3815
V4 + C(46,1)
p3816
tp3817
a(S'0:04:45'
p3818
V4 * C(46,1)
p3819
tp3820
a(S'0:04:54'
p3821
V4 * C(45,1)
p3822
tp3823
a(S'0:05:04'
p3824
V4 * C(47,1)
p3825
tp3826
a(S'0:05:12'
p3827
V4 * C(44,1)
p3828
tp3829
a(S'0:06:29'
p3830
V4 * C(43,1)
p3831
tp3832
assVrwthomps
p3833
(dp3834
S'part2_correct_attempt'
p3835
(lp3836
S'0:03:23'
p3837
aVC(47, 2) - C(43, 2)
p3838
asg9
V2015-10-20 23:04:01
p3839
sS'part2_incorrect_attempt'
p3840
(lp3841
(S'0:01:00'
p3842
V4 * 43
p3843
tp3844
a(S'0:02:24'
p3845
V4 * (52 - 5 - 4)
p3846
tp3847
assVs1powers
p3848
(dp3849
S'part2_correct_attempt'
p3850
(lp3851
S'0:04:29'
p3852
aV4*43 + 4!/(2!2!)
p3853
asg9
V2015-10-21 20:00:29
p3854
sS'part2_incorrect_attempt'
p3855
(lp3856
(S'0:00:37'
p3857
V3*4 * 46!
p3858
tp3859
a(S'0:00:45'
p3860
V3*4 * 46
p3861
tp3862
a(S'0:00:56'
p3863
V4*46
p3864
tp3865
a(S'0:03:08'
p3866
V4*46 8
p3867
tp3868
a(S'0:03:33'
p3869
V4*45 + 4!/(2!2!)
p3870
tp3871
a(S'0:03:53'
p3872
V4*42 + 4!/(2!2!)
p3873
tp3874
assVvsosnovs
p3875
(dp3876
S'part2_correct_attempt'
p3877
(lp3878
S'0:01:54'
p3879
aVC(47,2)-C(43,2)
p3880
asg9
V2015-10-22 06:44:48
p3881
sS'part2_incorrect_attempt'
p3882
(lp3883
(S'0:01:45'
p3884
VC(47,2)
p3885
tp3886
assVk5law
p3887
(dp3888
S'part2_correct_attempt'
p3889
(lp3890
S'0:00:58'
p3891
aV[(52-5)!/(2!45!)]-[(52-5-4)!/(2!41!)]
p3892
asg9
V2015-10-19 06:58:32
p3893
sS'part2_incorrect_attempt'
p3894
(lp3895
(S'0:00:25'
p3896
V[(52-5)!/(2!47!)]-[(52-5-4)!/(2!43!)]
p3897
tp3898
assVs2chaudh
p3899
(dp3900
S'part2_correct_attempt'
p3901
(lp3902
S'0:37:15'
p3903
aVC(47,2)- C(43, 2)
p3904
asg9
V2015-10-22 02:53:25
p3905
sS'part2_incorrect_attempt'
p3906
(lp3907
(S'0:04:40'
p3908
V47 2 43 2
p3909
tp3910
assVj6quach
p3911
(dp3912
S'part2_correct_attempt'
p3913
(lp3914
S'0:34:15'
p3915
aVC(47,2) - C(43,2)
p3916
asg9
V2015-10-22 18:50:13
p3917
sS'part2_incorrect_attempt'
p3918
(lp3919
(S'0:06:03'
p3920
V4*28
p3921
tp3922
a(S'0:08:56'
p3923
V4*46
p3924
tp3925
a(S'0:28:32'
p3926
V4*42
p3927
tp3928
a(S'0:29:05'
p3929
V4*38
p3930
tp3931
assVbmilton
p3932
(dp3933
S'part2_correct_attempt'
p3934
(lp3935
S'0:11:28'
p3936
aV(C(4,1) * C(52-6, 1)) - 6
p3937
asg9
V2015-10-21 03:30:11
p3938
sS'part2_incorrect_attempt'
p3939
(lp3940
(S'0:02:38'
p3941
VC(52-5,4) * C(52-6,1)
p3942
tp3943
a(S'0:03:58'
p3944
V C(52-6,1)
p3945
tp3946
a(S'0:07:25'
p3947
V(C(4,1) * C(52-6,1)) - 3
p3948
tp3949
a(S'0:09:53'
p3950
V(C(4,1) * C(52-6,1)) - 1
p3951
tp3952
a(S'0:10:35'
p3953
VC(43,2)
p3954
tp3955
a(S'0:11:15'
p3956
VC(4,1) * C(52-6, 1)
p3957
tp3958
assVdcgriffi
p3959
(dp3960
S'part2_correct_attempt'
p3961
(lp3962
S'0:52:16'
p3963
aVC(47,2) - C(43,2)
p3964
asg9
V2015-10-21 03:41:56
p3965
sS'part2_incorrect_attempt'
p3966
(lp3967
(S'0:08:01'
p3968
V47*46-16
p3969
tp3970
a(S'0:09:36'
p3971
VC(47,2)
p3972
tp3973
a(S'0:10:34'
p3974
V4*47
p3975
tp3976
a(S'0:11:12'
p3977
V4*47+4*46
p3978
tp3979
a(S'0:11:44'
p3980
V47+46
p3981
tp3982
a(S'0:12:45'
p3983
V47*46*4
p3984
tp3985
a(S'0:14:49'
p3986
V47*4 + 46*4
p3987
tp3988
a(S'0:18:52'
p3989
V4*46
p3990
tp3991
a(S'0:19:45'
p3992
V47*4+16
p3993
tp3994
a(S'0:19:59'
p3995
V43*4+16
p3996
tp3997
a(S'0:25:11'
p3998
V4 + (4*8) + (3*5)
p3999
tp4000
a(S'0:29:04'
p4001
V4*46 + 4*46 - 3
p4002
tp4003
a(S'0:29:29'
p4004
V12 + 4*43
p4005
tp4006
a(S'0:38:30'
p4007
V47*4
p4008
tp4009
a(S'0:39:14'
p4010
V46*4
p4011
tp4012
a(S'0:41:47'
p4013
V46*C(4,1)
p4014
tp4015
a(S'0:42:21'
p4016
V47*C(4,1)
p4017
tp4018
a(S'0:48:36'
p4019
V(47-1)*4
p4020
tp4021
a(S'0:48:59'
p4022
V46*4
p4023
tp4024
a(S'0:50:36'
p4025
V46*4*2
p4026
tp4027
a(S'0:50:45'
p4028
V46*4/2
p4029
tp4030
assVrsmurlo
p4031
(dp4032
S'part2_correct_attempt'
p4033
(lp4034
S'0:17:19'
p4035
aVC(47,2)-C(43,2)
p4036
asg9
V2015-10-21 17:40:22
p4037
sS'part2_incorrect_attempt'
p4038
(lp4039
(S'0:02:30'
p4040
V4*46
p4041
tp4042
a(S'0:03:05'
p4043
V4*3
p4044
tp4045
a(S'0:05:57'
p4046
V4*43+4*3
p4047
tp4048
assVagarango
p4049
(dp4050
S'part2_correct_attempt'
p4051
(lp4052
S'0:48:53'
p4053
aV178
p4054
asg9
V2015-10-22 21:03:26
p4055
sS'part2_incorrect_attempt'
p4056
(lp4057
(S'0:18:44'
p4058
V4*46
p4059
tp4060
a(S'0:19:03'
p4061
V(4*46)/2
p4062
tp4063
a(S'0:23:36'
p4064
V4*47
p4065
tp4066
a(S'0:23:42'
p4067
V4*46
p4068
tp4069
a(S'0:44:27'
p4070
V4*43
p4071
tp4072
assVachinn
p4073
(dp4074
S'part2_correct_attempt'
p4075
(lp4076
S'1:24:06'
p4077
aVC(47,2)-(43*42)/2
p4078
asg9
V2015-10-19 22:14:18
p4079
sS'part2_incorrect_attempt'
p4080
(lp4081
(S'0:02:19'
p4082
V4*46
p4083
tp4084
a(S'0:02:59'
p4085
VC(4,2)
p4086
tp4087
a(S'0:03:07'
p4088
V4*3*2
p4089
tp4090
a(S'0:14:40'
p4091
V4*46+42*4
p4092
tp4093
a(S'0:14:58'
p4094
V4*46+44*4
p4095
tp4096
a(S'1:21:01'
p4097
V4*3
p4098
tp4099
assVkalang
p4100
(dp4101
S'part2_correct_attempt'
p4102
(lp4103
S'0:01:20'
p4104
aVC(52-5,2)-C(52-9,2)
p4105
asg9
V2015-10-22 20:53:19
p4106
sS'part2_incorrect_attempt'
p4107
(lp4108
(S'0:00:20'
p4109
VC(52,2)
p4110
tp4111
a(S'0:00:26'
p4112
VC(52-4,2)
p4113
tp4114
a(S'0:00:32'
p4115
VC(52-5,2)
p4116
tp4117
assVmcatozzi
p4118
(dp4119
S'part2_correct_attempt'
p4120
(lp4121
S'0:10:21'
p4122
ag1443
asg9
g1447
sS'part2_incorrect_attempt'
p4123
(lp4124
(S'0:08:10'
p4125
V46*4
p4126
tp4127
assVjnn015
p4128
(dp4129
S'part2_correct_attempt'
p4130
(lp4131
S'0:03:25'
p4132
aVC(47,2) - C(43,2)
p4133
asg9
V2015-10-22 23:14:06
p4134
sS'part2_incorrect_attempt'
p4135
(lp4136
(S'-1 day, 23:59:51'
p4137
V46*4
p4138
tp4139
assVdpereira
p4140
(dp4141
S'part2_correct_attempt'
p4142
(lp4143
S'1 day, 6:19:50'
p4144
aVC(47,2) - C(43,2)
p4145
asg9
V2015-10-19 20:18:29
p4146
sS'part2_incorrect_attempt'
p4147
(lp4148
(S'0:00:51'
p4149
V4*(52-6)
p4150
tp4151
a(S'0:00:57'
p4152
V4*(52-6)*2
p4153
tp4154
a(S'0:01:17'
p4155
V4*3
p4156
tp4157
a(S'0:05:15'
p4158
V4*46
p4159
tp4160
a(S'0:09:43'
p4161
VC(4,1)*C(46,1)
p4162
tp4163
a(S'0:09:51'
p4164
VC(4,1)*C(46,1)*2
p4165
tp4166
a(S'0:10:58'
p4167
VC(4,1) * 46
p4168
tp4169
a(S'0:12:03'
p4170
VC(4,2)
p4171
tp4172
a(S'0:13:01'
p4173
VC(4,1) * 46 * 2
p4174
tp4175
a(S'21:55:28'
p4176
VC(4,1) * 48
p4177
tp4178
a(S'21:57:15'
p4179
VC(4,1) * (52-9)
p4180
tp4181
a(S'21:57:44'
p4182
V4*3
p4183
tp4184
a(S'21:58:03'
p4185
VC(4,1) * 46
p4186
tp4187
a(S'23:52:12'
p4188
VC(47,4)*46
p4189
tp4190
a(S'23:54:38'
p4191
VC(47,4)*46*2
p4192
tp4193
assVhaliew
p4194
(dp4195
S'part2_correct_attempt'
p4196
(lp4197
S'0:42:36'
p4198
aVC(47,2)-C(43,2)
p4199
asg9
V2015-10-22 00:20:33
p4200
sS'part2_incorrect_attempt'
p4201
(lp4202
(S'0:14:05'
p4203
V184*2
p4204
tp4205
a(S'0:21:01'
p4206
VC(4,1)*C(3,1)
p4207
tp4208
assVkquong
p4209
(dp4210
S'part2_correct_attempt'
p4211
(lp4212
S'0:38:36'
p4213
ag1315
asg9
g1320
sS'part2_incorrect_attempt'
p4214
(lp4215
(S'0:00:00'
p4216
V4 * 51
p4217
tp4218
a(S'0:00:21'
p4219
V4 * 52
p4220
tp4221
a(S'0:00:47'
p4222
V4 * 46
p4223
tp4224
a(S'0:00:53'
p4225
V4 * 47
p4226
tp4227
a(S'0:02:59'
p4228
V4 * 12
p4229
tp4230
a(S'0:04:37'
p4231
V4*3
p4232
tp4233
a(S'0:07:36'
p4234
V46 * 4
p4235
tp4236
a(S'0:07:42'
p4237
V45 * 4
p4238
tp4239
a(S'0:18:23'
p4240
V4 * 47 -1
p4241
tp4242
a(S'0:18:31'
p4243
V4 * 46 -1
p4244
tp4245
a(S'0:19:21'
p4246
V47!/(2!(47-2))
p4247
tp4248
a(S'0:24:50'
p4249
V47!/(2!(47-2))- 12
p4250
tp4251
a(S'0:25:41'
p4252
V4*46/2
p4253
tp4254
a(S'0:29:27'
p4255
V4 *43
p4256
tp4257
a(S'0:29:35'
p4258
V4 *44
p4259
tp4260
assVvasharma
p4261
(dp4262
S'part2_correct_attempt'
p4263
(lp4264
S'0:06:32'
p4265
ag1338
asg9
g1343
sS'part2_incorrect_attempt'
p4266
(lp4267
(S'0:02:31'
p4268
VC(52-7,1)
p4269
tp4270
a(S'0:03:07'
p4271
VC(52-7,1)-41
p4272
tp4273
a(S'0:03:28'
p4274
VC(52-7,1)-C(41,1)
p4275
tp4276
a(S'0:03:53'
p4277
VC(52-5,1)-43
p4278
tp4279
a(S'0:04:07'
p4280
VC(52-5,1)-4
p4281
tp4282
assVsyip
p4283
(dp4284
S'part2_correct_attempt'
p4285
(lp4286
S'0:03:35'
p4287
aVC(47,2) - C(43,2)
p4288
asg9
V2015-10-18 22:06:29
p4289
sS'part2_incorrect_attempt'
p4290
(lp4291
(S'-1 day, 23:27:59'
p4292
V2*4*46
p4293
tp4294
a(S'0:00:00'
p4295
V4*46
p4296
tp4297
assVyypan
p4298
(dp4299
S'part2_correct_attempt'
p4300
(lp4301
S'0:09:23'
p4302
aVC(47,2)-C(43,2)
p4303
asg9
V2015-10-21 23:01:51
p4304
sS'part2_incorrect_attempt'
p4305
(lp4306
(S'0:01:54'
p4307
VC(52,1)-C(51,1)
p4308
tp4309
a(S'0:02:52'
p4310
V4*43
p4311
tp4312
a(S'0:03:21'
p4313
V4*C(43,1)
p4314
tp4315
assVajvanega
p4316
(dp4317
S'part2_correct_attempt'
p4318
(lp4319
S'1:35:31'
p4320
aVC(47,2)-C(43,2)
p4321
asg9
V2015-10-22 01:22:02
p4322
sS'part2_incorrect_attempt'
p4323
(lp4324
(S'0:04:04'
p4325
VC(52,2) 
p4326
tp4327
a(S'0:04:29'
p4328
VC(50,2)
p4329
tp4330
a(S'0:06:08'
p4331
V4*52
p4332
tp4333
a(S'0:06:26'
p4334
V4*C(52,1)
p4335
tp4336
a(S'0:06:40'
p4337
V4*(C(52,1))
p4338
tp4339
a(S'1:19:52'
p4340
VC(47,12)
p4341
tp4342
a(S'1:20:20'
p4343
VC(47,2)
p4344
tp4345
a(S'1:20:32'
p4346
VC(47,4)
p4347
tp4348
a(S'1:20:44'
p4349
VC(47,1)
p4350
tp4351
a(S'1:23:28'
p4352
VC(47,4)
p4353
tp4354
a(S'1:25:18'
p4355
VC(47,4)+C(47,3)
p4356
tp4357
a(S'1:25:49'
p4358
VC(47,4)+C(46,3)
p4359
tp4360
a(S'1:29:14'
p4361
V4*C(46,1)
p4362
tp4363
a(S'1:30:34'
p4364
V4*C(47,1)
p4365
tp4366
a(S'1:31:32'
p4367
V16*4
p4368
tp4369
assVzhw110
p4370
(dp4371
S'part2_correct_attempt'
p4372
(lp4373
S'0:10:16'
p4374
aVC(47,2)-C(43,2)
p4375
asg9
V2015-10-22 07:09:18
p4376
sS'part2_incorrect_attempt'
p4377
(lp4378
(S'0:02:22'
p4379
V4*46
p4380
tp4381
assVmtrafeca
p4382
(dp4383
S'part2_correct_attempt'
p4384
(lp4385
S'0:33:57'
p4386
aVC(47,2)-C(43,2)
p4387
asg9
V2015-10-21 09:01:50
p4388
sS'part2_incorrect_attempt'
p4389
(lp4390
(S'-1 day, 23:29:18'
p4391
V46*(C(47,1))
p4392
tp4393
a(S'-1 day, 23:34:05'
p4394
VC(46,1)
p4395
tp4396
a(S'-1 day, 23:35:09'
p4397
V4*46
p4398
tp4399
a(S'-1 day, 23:35:25'
p4400
V4*47
p4401
tp4402
a(S'-1 day, 23:35:51'
p4403
VC(4,1)*47
p4404
tp4405
a(S'-1 day, 23:38:39'
p4406
VC(4,2)*47
p4407
tp4408
a(S'-1 day, 23:40:56'
p4409
V4*47
p4410
tp4411
a(S'-1 day, 23:41:07'
p4412
V8*47
p4413
tp4414
a(S'0:03:03'
p4415
V46*8
p4416
tp4417
a(S'0:03:10'
p4418
V46*4
p4419
tp4420
a(S'0:03:22'
p4421
V47*4
p4422
tp4423
a(S'0:03:30'
p4424
V47*8
p4425
tp4426
a(S'0:04:43'
p4427
V46*4
p4428
tp4429
a(S'0:05:10'
p4430
V(46*4)+(46*4)
p4431
tp4432
a(S'0:07:57'
p4433
VC(47,4)46
p4434
tp4435
a(S'0:08:16'
p4436
VC(4,1)46
p4437
tp4438
a(S'0:10:13'
p4439
VC(4,1)47
p4440
tp4441
a(S'0:10:20'
p4442
VC(4,1)45
p4443
tp4444
a(S'0:10:36'
p4445
VC(8,1)46
p4446
tp4447
a(S'0:13:25'
p4448
V4*47
p4449
tp4450
a(S'0:13:33'
p4451
V8*47
p4452
tp4453
a(S'0:13:40'
p4454
V2*47
p4455
tp4456
a(S'0:18:09'
p4457
V46*16
p4458
tp4459
a(S'0:18:17'
p4460
V47*16
p4461
tp4462
a(S'0:19:53'
p4463
V47-16
p4464
tp4465
a(S'0:23:23'
p4466
V16*45
p4467
tp4468
a(S'0:23:29'
p4469
V16*46
p4470
tp4471
a(S'0:23:37'
p4472
V16*47
p4473
tp4474
assVkosung
p4475
(dp4476
S'part2_correct_attempt'
p4477
(lp4478
S'0:37:35'
p4479
aV178
p4480
asg9
V2015-10-22 22:39:12
p4481
sS'part2_incorrect_attempt'
p4482
(lp4483
(S'0:00:51'
p4484
VC(4,1)*C(46,1)
p4485
tp4486
a(S'0:27:55'
p4487
VC(4,1)*C(46,1)*2-12
p4488
tp4489
a(S'0:28:28'
p4490
V4*42+12
p4491
tp4492
asssV4
p4493
(dp4494
Vjag028
p4495
(dp4496
S'part4_incorrect_attempt'
p4497
(lp4498
(S'0:01:18'
p4499
V[C(47,2)-C(43,2)]/C(47,2)
p4500
tp4501
asS'part2_correct_attempt'
p4502
(lp4503
S'0:00:24'
p4504
aVC(47,2)-C(43,2)
p4505
asS'part4_correct_attempt'
p4506
(lp4507
S'0:01:57'
p4508
aV[(C(47,2)-C(43,2))+16]/C(47,2)
p4509
asS'part3_correct_attempt'
p4510
(lp4511
S'0:00:38'
p4512
aVC(47,2)
p4513
asS'part1_correct_attempt'
p4514
(lp4515
S'0:00:00'
p4516
aV16
p4517
asg9
V2015-10-22 17:08:52
p4518
ssVaggouw
p4519
(dp4520
S'part4_incorrect_attempt'
p4521
(lp4522
(S'0:01:58'
p4523
V[C(4,1)*C(4,1)]+[C(47,2)-C(43,2)]/C(47,2)
p4524
tp4525
asS'part2_correct_attempt'
p4526
(lp4527
S'0:00:32'
p4528
aVC(47,2)-C(43,2)
p4529
asS'part4_correct_attempt'
p4530
(lp4531
S'0:02:13'
p4532
aV[[C(4,1)*C(4,1)]+[C(47,2)-C(43,2)]]/C(47,2)
p4533
asS'part3_correct_attempt'
p4534
(lp4535
S'0:00:32'
p4536
aVC(47,2)
p4537
asS'part1_correct_attempt'
p4538
(lp4539
S'0:00:00'
p4540
aVC(4,1)*C(4,1)
p4541
asg9
V2015-10-21 08:50:34
p4542
ssVrohan
p4543
(dp4544
S'part4_correct_attempt'
p4545
(lp4546
S'0:07:51'
p4547
aV194/1081
p4548
asS'part3_correct_attempt'
p4549
(lp4550
S'0:04:07'
p4551
aV1081
p4552
asS'part1_correct_attempt'
p4553
(lp4554
S'0:00:00'
p4555
aV16
p4556
asg9
V2015-10-22 22:49:42
p4557
sS'part4_incorrect_attempt'
p4558
(lp4559
(S'0:07:34'
p4560
V32/1081
p4561
tp4562
assVcfgutier
p4563
(dp4564
S'part4_incorrect_attempt'
p4565
(lp4566
(S'0:31:37'
p4567
V16 + [(47!)/(2!*45!)]-[(43!)/(2!*41!)]
p4568
tp4569
asS'part2_correct_attempt'
p4570
(lp4571
S'0:00:37'
p4572
aV[(47!)/(2!*45!)]-[(43!)/(2!*41!)]
p4573
asS'part4_correct_attempt'
p4574
(lp4575
S'0:32:21'
p4576
aV[16 + [(47!)/(2!*45!)]-[(43!)/(2!*41!)]] / (47!/(2!*45!))
p4577
asS'part3_correct_attempt'
p4578
(lp4579
S'0:00:54'
p4580
aV[(47!)/(2!*45!)]
p4581
asS'part1_correct_attempt'
p4582
(lp4583
S'0:00:00'
p4584
aV16
p4585
asg9
V2015-10-22 08:30:07
p4586
ssVvsosnovs
p4587
(dp4588
S'part4_correct_attempt'
p4589
(lp4590
S'0:03:23'
p4591
aV(16+178)/ C(47,2)
p4592
asS'part2_correct_attempt'
p4593
(lp4594
S'0:01:54'
p4595
ag3880
asS'part1_correct_attempt'
p4596
(lp4597
S'0:00:00'
p4598
ag672
asg9
g3881
sS'part4_incorrect_attempt'
p4599
(lp4600
(S'0:03:01'
p4601
V(16+178+1081)/ C(47,2)
p4602
tp4603
assVnhn018
p4604
(dp4605
S'part4_incorrect_attempt'
p4606
(lp4607
(S'0:00:00'
p4608
V42^2+C(47,2)-C(52-5-4,2)/C(47,2)
p4609
tp4610
a(S'0:00:22'
p4611
V(42^2+C(47,2)-C(52-5-4,2))/C(47,2)
p4612
tp4613
asS'part2_correct_attempt'
p4614
(lp4615
S'0:00:00'
p4616
ag1730
asS'part4_correct_attempt'
p4617
(lp4618
S'0:00:37'
p4619
aV(4^2+C(47,2)-C(52-5-4,2))/C(47,2)
p4620
asS'part3_correct_attempt'
p4621
(lp4622
S'0:00:00'
p4623
aVC(47,2)
p4624
asS'part1_correct_attempt'
p4625
(lp4626
S'0:00:00'
p4627
ag348
asg9
g1731
ssVj5phung
p4628
(dp4629
S'part4_incorrect_attempt'
p4630
(lp4631
(S'4:43:57'
p4632
VC(47,2)-C(43,2)*C(4,1)^2/C(47,2)
p4633
tp4634
a(S'4:44:46'
p4635
VC(47,2)-C(43,2)+C(4,1)^2/C(47,2)
p4636
tp4637
a(S'4:45:01'
p4638
V(C(47,2)-C(43,2)+C(4,1)^2/C(47,2))
p4639
tp4640
asS'part2_correct_attempt'
p4641
(lp4642
S'4:43:40'
p4643
ag2623
asS'part4_correct_attempt'
p4644
(lp4645
S'4:45:11'
p4646
aV(C(47,2)-C(43,2)+C(4,1)^2)/C(47,2)
p4647
asS'part3_correct_attempt'
p4648
(lp4649
S'-1 day, 23:06:14'
p4650
aVC(47,2)
p4651
asS'part1_correct_attempt'
p4652
(lp4653
S'0:00:00'
p4654
ag363
asg9
g2624
ssVdcgriffi
p4655
(dp4656
S'part4_incorrect_attempt'
p4657
(lp4658
(S'0:52:34'
p4659
V(16 + 46*4)/(C(47,2) - C(43,2))
p4660
tp4661
asS'part2_correct_attempt'
p4662
(lp4663
S'0:52:16'
p4664
ag3964
asS'part4_correct_attempt'
p4665
(lp4666
S'0:53:05'
p4667
aV(16 + (C(47,2) - C(43,2)))/C(47,2)
p4668
asS'part3_correct_attempt'
p4669
(lp4670
S'0:34:48'
p4671
aVC(47,2)
p4672
asS'part1_correct_attempt'
p4673
(lp4674
S'0:00:00'
p4675
aV16
p4676
asg9
g3965
ssVrsmurlo
p4677
(dp4678
S'part4_incorrect_attempt'
p4679
(lp4680
(S'0:21:44'
p4681
V16+178/1081
p4682
tp4683
asS'part2_correct_attempt'
p4684
(lp4685
S'0:17:19'
p4686
ag4036
asS'part4_correct_attempt'
p4687
(lp4688
S'0:21:58'
p4689
aV(16+178)/1081
p4690
asS'part3_correct_attempt'
p4691
(lp4692
S'0:20:47'
p4693
aV47*46/2
p4694
asS'part1_correct_attempt'
p4695
(lp4696
S'0:00:00'
p4697
ag558
asg9
g4037
ssVpnquach
p4698
(dp4699
S'part4_incorrect_attempt'
p4700
(lp4701
(S'0:04:25'
p4702
V(C(47,2) - C(43,2))/(C(47,2))
p4703
tp4704
asS'part2_correct_attempt'
p4705
(lp4706
S'0:04:13'
p4707
aVC(47,2) - C(43,2)
p4708
asS'part4_correct_attempt'
p4709
(lp4710
S'0:05:06'
p4711
aV(16+(C(47,2) - C(43,2)))/(C(47,2))
p4712
asS'part3_correct_attempt'
p4713
(lp4714
S'0:00:00'
p4715
aVC(47,2)
p4716
asS'part1_correct_attempt'
p4717
(lp4718
S'0:00:00'
p4719
aV16
p4720
asg9
V2015-10-22 09:09:30
p4721
ssVasrana
p4722
(dp4723
S'part4_incorrect_attempt'
p4724
(lp4725
(S'0:09:52'
p4726
V.18
p4727
tp4728
asS'part2_correct_attempt'
p4729
(lp4730
S'0:08:11'
p4731
aV178
p4732
asS'part4_correct_attempt'
p4733
(lp4734
S'0:10:26'
p4735
aV194/1081
p4736
asS'part3_correct_attempt'
p4737
(lp4738
S'0:09:19'
p4739
aV1081
p4740
asS'part1_correct_attempt'
p4741
(lp4742
S'0:00:00'
p4743
aV16
p4744
asg9
V2015-10-22 21:08:31
p4745
ssVmrchin
p4746
(dp4747
S'part4_incorrect_attempt'
p4748
(lp4749
(S'0:00:25'
p4750
V.179
p4751
tp4752
asS'part2_correct_attempt'
p4753
(lp4754
S'0:00:00'
p4755
aV178
p4756
asS'part4_correct_attempt'
p4757
(lp4758
S'0:00:44'
p4759
aV.179463
p4760
asS'part3_correct_attempt'
p4761
(lp4762
S'0:00:25'
p4763
aV1081
p4764
asS'part1_correct_attempt'
p4765
(lp4766
S'0:00:00'
p4767
aV16
p4768
asg9
V2015-10-22 18:46:20
p4769
ssVakhmelni
p4770
(dp4771
S'part4_incorrect_attempt'
p4772
(lp4773
(S'0:06:56'
p4774
V(16+12/2 + (2*4*43)/2+C(47,2))/C(47,2)
p4775
tp4776
asS'part2_correct_attempt'
p4777
(lp4778
S'0:04:45'
p4779
ag3279
asS'part4_correct_attempt'
p4780
(lp4781
S'0:07:31'
p4782
aV(16+C(47,2)-C(43,2))/C(47,2)
p4783
asS'part3_correct_attempt'
p4784
(lp4785
S'0:05:32'
p4786
aVC(47,2)
p4787
asS'part1_correct_attempt'
p4788
(lp4789
S'0:00:00'
p4790
aV16
p4791
asg9
g3280
ssVaakumar
p4792
(dp4793
S'part4_incorrect_attempt'
p4794
(lp4795
(S'15:38:07'
p4796
V[16+C(52,5)-C(40,5)]/C(47,2)
p4797
tp4798
asS'part2_correct_attempt'
p4799
(lp4800
S'15:37:19'
p4801
ag3306
asS'part4_correct_attempt'
p4802
(lp4803
S'15:38:27'
p4804
aV[16+C(47,2)-C(43,2)]/C(47,2)
p4805
asS'part3_correct_attempt'
p4806
(lp4807
S'15:37:44'
p4808
aVC(47,2)
p4809
asS'part1_correct_attempt'
p4810
(lp4811
S'0:00:00'
p4812
aV16
p4813
asg9
g3307
ssVpthsu
p4814
(dp4815
S'part4_incorrect_attempt'
p4816
(lp4817
(S'0:00:10'
p4818
VC(52-5,2)-C(52-5-4,2)+4^2/C(52-5,2)
p4819
tp4820
asS'part2_correct_attempt'
p4821
(lp4822
S'0:00:00'
p4823
aVC(52-5,2)-C(52-5-4,2)
p4824
asS'part4_correct_attempt'
p4825
(lp4826
S'0:00:26'
p4827
aV(C(52-5,2)-C(52-5-4,2)+4^2)/C(52-5,2)
p4828
asS'part3_correct_attempt'
p4829
(lp4830
S'0:00:00'
p4831
aVC(47,2)
p4832
asS'part1_correct_attempt'
p4833
(lp4834
S'0:00:00'
p4835
aV4^2
p4836
asg9
V2015-10-17 00:04:32
p4837
ssVhah008
p4838
(dp4839
S'part4_incorrect_attempt'
p4840
(lp4841
(S'0:02:01'
p4842
VC(47,2) - C(43,2) / C(47,2)
p4843
tp4844
a(S'0:02:10'
p4845
VC(47,2) - C(43,2) + 16 / C(47,2)
p4846
tp4847
a(S'0:02:18'
p4848
VC(47,2) - (C(43,2) + 16) / C(47,2)
p4849
tp4850
asS'part2_correct_attempt'
p4851
(lp4852
S'0:00:39'
p4853
aVC(47,2) - C(43,2)
p4854
asS'part4_correct_attempt'
p4855
(lp4856
S'0:09:33'
p4857
aV((C(47,2) - C(43,2)) + 16) / C(47,2)
p4858
asS'part3_correct_attempt'
p4859
(lp4860
S'0:01:17'
p4861
aVC(47,2)
p4862
asS'part1_correct_attempt'
p4863
(lp4864
S'0:00:00'
p4865
aV4^2
p4866
asg9
V2015-10-21 19:50:40
p4867
ssVarc013
p4868
(dp4869
S'part4_incorrect_attempt'
p4870
(lp4871
(S'0:03:12'
p4872
V16+C(47,2)-C(43,2)
p4873
tp4874
asS'part2_correct_attempt'
p4875
(lp4876
S'0:01:22'
p4877
ag2045
asS'part4_correct_attempt'
p4878
(lp4879
S'0:03:37'
p4880
aV(16+C(47,2)-C(43,2))/C(47,2)
p4881
asS'part3_correct_attempt'
p4882
(lp4883
S'0:02:33'
p4884
aVC(47, 2)
p4885
asS'part1_correct_attempt'
p4886
(lp4887
S'0:00:00'
p4888
ag1042
asg9
g2046
ssVedcole
p4889
(dp4890
S'part4_incorrect_attempt'
p4891
(lp4892
(S'0:07:46'
p4893
V(C(47, 2) - C(43, 2))/C(47, 2)
p4894
tp4895
asS'part2_correct_attempt'
p4896
(lp4897
S'0:06:29'
p4898
aVC(47, 2) - C(43, 2)
p4899
asS'part4_correct_attempt'
p4900
(lp4901
S'0:08:13'
p4902
aV(16 + C(47, 2) - C(43, 2))/C(47, 2)
p4903
asS'part3_correct_attempt'
p4904
(lp4905
S'0:07:11'
p4906
aVC(47, 2)
p4907
asS'part1_correct_attempt'
p4908
(lp4909
S'0:00:00'
p4910
aV4*4
p4911
asg9
V2015-10-21 17:55:44
p4912
ssVmitopete
p4913
(dp4914
S'part4_correct_attempt'
p4915
(lp4916
S'0:01:37'
p4917
aV(16+(C(47,2)-C(43,2)))/C(47,2)
p4918
asS'part2_correct_attempt'
p4919
(lp4920
S'-1 day, 22:56:27'
p4921
ag2057
asS'part1_correct_attempt'
p4922
(lp4923
S'0:00:00'
p4924
ag1057
asg9
g2058
sS'part4_incorrect_attempt'
p4925
(lp4926
(S'0:01:14'
p4927
V16+C(47,2)-C(43,2)/C(47,2)
p4928
tp4929
assVzhz159
p4930
(dp4931
S'part4_incorrect_attempt'
p4932
(lp4933
(S'1:52:28'
p4934
V0.1646623
p4935
tp4936
a(S'1:53:00'
p4937
V0.1776133
p4938
tp4939
asS'part2_correct_attempt'
p4940
(lp4941
S'1:52:28'
p4942
aV178
p4943
asS'part4_correct_attempt'
p4944
(lp4945
S'1:53:42'
p4946
aV0.179463
p4947
asS'part3_correct_attempt'
p4948
(lp4949
S'0:10:41'
p4950
aV1081
p4951
asS'part1_correct_attempt'
p4952
(lp4953
S'0:00:00'
p4954
aV16
p4955
asg9
V2015-10-22 01:41:35
p4956
ssVaordookh
p4957
(dp4958
S'part4_incorrect_attempt'
p4959
(lp4960
(S'0:01:53'
p4961
VC(47,2)-(C(47,2)-16)+C(47,2)-C(43,2)/C(47,2)
p4962
tp4963
asS'part2_correct_attempt'
p4964
(lp4965
S'0:00:00'
p4966
aVC(47,2)-C(43,2)
p4967
asS'part4_correct_attempt'
p4968
(lp4969
S'0:02:11'
p4970
aV(C(47,2)-(C(47,2)-16)+C(47,2)-C(43,2))/C(47,2)
p4971
asS'part3_correct_attempt'
p4972
(lp4973
S'0:00:48'
p4974
aVC(47,2)
p4975
asS'part1_correct_attempt'
p4976
(lp4977
S'0:00:00'
p4978
aVC(47,2)-(C(47,2)-16)
p4979
asg9
V2015-10-22 05:42:46
p4980
ssVkosung
p4981
(dp4982
S'part4_incorrect_attempt'
p4983
(lp4984
(S'0:37:35'
p4985
V182/1081
p4986
tp4987
asS'part2_correct_attempt'
p4988
(lp4989
S'0:37:35'
p4990
ag4480
asS'part4_correct_attempt'
p4991
(lp4992
S'0:37:44'
p4993
aV194/1081
p4994
asS'part3_correct_attempt'
p4995
(lp4996
S'0:33:00'
p4997
aVC(47,2)
p4998
asS'part1_correct_attempt'
p4999
(lp5000
S'0:00:00'
p5001
aVC(4,1)*C(4,1) 
p5002
asg9
g4481
ssVj2phung
p5003
(dp5004
S'part4_incorrect_attempt'
p5005
(lp5006
(S'0:02:16'
p5007
V(16)+((47!/(2!45!)) - (43!/(2!41!)))/(47!/(2!45!))
p5008
tp5009
asS'part2_correct_attempt'
p5010
(lp5011
S'-1 day, 23:17:24'
p5012
aV(47!/(2!45!)) - (43!/(2!41!))
p5013
asS'part4_correct_attempt'
p5014
(lp5015
S'0:02:35'
p5016
aV((16)+((47!/(2!45!)) - (43!/(2!41!))))/(47!/(2!45!))
p5017
asS'part3_correct_attempt'
p5018
(lp5019
S'-1 day, 22:59:09'
p5020
aV47!/(2!45!)
p5021
asS'part1_correct_attempt'
p5022
(lp5023
S'0:00:00'
p5024
ag1234
asg9
V2015-10-22 05:37:39
p5025
sss.