(dp0
V1
p1
(dp2
Vphodgson
p3
(dp4
S'part1_correct_attempt'
p5
(lp6
S'0:00:27'
p7
aV.5 * .07 / (.5 * .1)
p8
asS'first_attempt'
p9
V2015-10-21 05:14:08
p10
sS'part1_incorrect_attempt'
p11
(lp12
(S'0:00:00'
p13
V.5 * .07 / .1
p14
tp15
assVv4zhang
p16
(dp17
S'part1_correct_attempt'
p18
(lp19
S'0:03:00'
p20
aV(.06*.5)/.055
p21
asg9
V2015-10-22 08:17:28
p22
sS'part1_incorrect_attempt'
p23
(lp24
(S'0:00:00'
p25
V.2727
p26
tp27
assVkew060
p28
(dp29
S'part1_correct_attempt'
p30
(lp31
S'0:01:17'
p32
aV0.06*0.5/(0.06*0.5+0.03*0.5)
p33
asg9
V2015-10-22 22:35:20
p34
sS'part1_incorrect_attempt'
p35
(lp36
(S'0:00:00'
p37
V0.06*0.5/(0.6*0.5+0.3*0.5)
p38
tp39
assVsrl006
p40
(dp41
S'part1_correct_attempt'
p42
(lp43
S'0:01:05'
p44
aV.5833333
p45
asg9
V2015-10-22 04:45:56
p46
sS'part1_incorrect_attempt'
p47
(lp48
(S'0:00:00'
p49
V.06
p50
tp51
assVseleon
p52
(dp53
S'part1_correct_attempt'
p54
(lp55
S'0:00:08'
p56
aV.06/(.06 + .03)
p57
asg9
V2015-10-22 03:27:29
p58
sS'part1_incorrect_attempt'
p59
(lp60
(S'0:00:00'
p61
V.06/(.06*.03)
p62
tp63
assVjhc010
p64
(dp65
S'part1_correct_attempt'
p66
(lp67
S'0:04:24'
p68
aV7/12
p69
asg9
V2015-10-22 07:18:44
p70
sS'part1_incorrect_attempt'
p71
(lp72
(S'0:00:00'
p73
V0.06*(0.07/0.05)
p74
tp75
a(S'0:00:10'
p76
V(0.07/0.05)
p77
tp78
a(S'0:03:29'
p79
V.06*.07/.06
p80
tp81
assVjjm019
p82
(dp83
S'part1_correct_attempt'
p84
(lp85
S'1 day, 10:32:07'
p86
aV.06*0.5/0.055
p87
asg9
V2015-10-20 16:12:49
p88
sS'part1_incorrect_attempt'
p89
(lp90
(S'0:00:00'
p91
V0.025
p92
tp93
a(S'0:11:44'
p94
V.055
p95
tp96
a(S'0:13:43'
p97
V.5
p98
tp99
assVl5han
p100
(dp101
S'part1_correct_attempt'
p102
(lp103
S'0:00:56'
p104
aV[0.08*0.5]/[0.08*0.5+0.04*0.5]
p105
asg9
V2015-10-22 06:50:26
p106
sS'part1_incorrect_attempt'
p107
(lp108
(S'0:00:00'
p109
V[0.08*0.5]/[0.08*0.2+0.04*0.5]
p110
tp111
assVctgraves
p112
(dp113
S'part1_correct_attempt'
p114
(lp115
S'0:00:41'
p116
aV(0.06*0.5)/(0.06*0.5+0.03*0.5)
p117
asg9
V2015-10-21 01:21:52
p118
sS'part1_incorrect_attempt'
p119
(lp120
(S'0:00:00'
p121
V(0.06*0.5)/(0.06*0.5+0.03+0.5)
p122
tp123
assVnhn018
p124
(dp125
S'part1_correct_attempt'
p126
(lp127
S'0:00:46'
p128
aV8/12
p129
asg9
V2015-10-22 19:30:46
p130
sS'part1_incorrect_attempt'
p131
(lp132
(S'0:00:00'
p133
V.75
p134
tp135
assVj5phung
p136
(dp137
S'part1_correct_attempt'
p138
(lp139
S'0:00:18'
p140
aV0.06*.5/(0.06*.5+0.05*.5)
p141
asg9
V2015-10-16 16:58:26
p142
sS'part1_incorrect_attempt'
p143
(lp144
(S'0:00:00'
p145
V0.06*.5/(0.06+0.5)
p146
tp147
assVhaw081
p148
(dp149
S'part1_correct_attempt'
p150
(lp151
S'0:00:53'
p152
aV0.07*0.5/(0.07*0.5+0.04*0.5)
p153
asg9
V2015-10-18 06:34:01
p154
sS'part1_incorrect_attempt'
p155
(lp156
(S'0:00:00'
p157
V0.07*0.04/0.11
p158
tp159
a(S'0:00:17'
p160
V0.07*0.5/0.11
p161
tp162
assVmnrahman
p163
(dp164
S'part1_correct_attempt'
p165
(lp166
S'2:53:51'
p167
aV(0.07)/(0.07+0.04)
p168
asg9
V2015-10-22 17:26:01
p169
sS'part1_incorrect_attempt'
p170
(lp171
(S'0:00:00'
p172
V0.7
p173
tp174
a(S'0:00:34'
p175
V0.6
p176
tp177
a(S'0:00:50'
p178
V0.5
p179
tp180
a(S'0:00:00'
p181
V0.4
p182
tp183
a(S'0:00:07'
p184
V0.3
p185
tp186
a(S'0:00:12'
p187
V0.2
p188
tp189
a(S'0:00:17'
p190
V0.1
p191
tp192
a(S'0:00:22'
p193
V0.8
p194
tp195
a(S'0:00:27'
p196
V0.9
p197
tp198
a(S'0:00:34'
p199
V1.0
p200
tp201
a(S'0:00:40'
p202
V1.1
p203
tp204
a(S'0:00:46'
p205
V.11
p206
tp207
a(S'0:00:00'
p208
V((0.07*0.7))/((0.07*0.7)+(0.4*0.7))
p209
tp210
assVrlhagen
p211
(dp212
S'part1_correct_attempt'
p213
(lp214
S'0:01:57'
p215
aV(0.08*0.5)/(0.08*0.5+0.05*0.5)
p216
asg9
V2015-10-18 16:59:43
p217
sS'part1_incorrect_attempt'
p218
(lp219
(S'0:00:00'
p220
V(0.08*0.5)/(0.08/0.5+0.05/0.5)
p221
tp222
assVasrana
p223
(dp224
S'part1_correct_attempt'
p225
(lp226
S'0:07:18'
p227
aV.6153846154
p228
asg9
V2015-10-22 19:16:02
p229
sS'part1_incorrect_attempt'
p230
(lp231
(S'0:00:00'
p232
V.04
p233
tp234
assVavasavad
p235
(dp236
S'part1_correct_attempt'
p237
(lp238
S'20:25:36'
p239
aV6/11
p240
asg9
V2015-10-20 23:42:14
p241
sS'part1_incorrect_attempt'
p242
(lp243
(S'0:00:00'
p244
V(1/20)/(9/100)
p245
tp246
a(S'0:00:49'
p247
V[(1/20)*(1/2)]/(9/100)
p248
tp249
assVlalacson
p250
(dp251
S'part1_correct_attempt'
p252
(lp253
S'0:00:09'
p254
aV8/13
p255
asg9
V2015-10-22 05:52:21
p256
sS'part1_incorrect_attempt'
p257
(lp258
(S'0:00:00'
p259
V(8/13)/.13
p260
tp261
assVppanourg
p262
(dp263
S'part1_correct_attempt'
p264
(lp265
S'0:30:52'
p266
aV(.06*.5)/(.5*.06 + .5*.04)
p267
asg9
V2015-10-22 09:36:43
p268
sS'part1_incorrect_attempt'
p269
(lp270
(S'0:00:00'
p271
V.1
p272
tp273
a(S'0:00:00'
p274
V(.06*.1)/.5
p275
tp276
a(S'0:07:08'
p277
V(.06)(.06*.5+.4*.5)/.5
p278
tp279
a(S'0:07:25'
p280
V(.06)(.06*.5+.04*.5)/.5
p281
tp282
a(S'0:09:29'
p283
V(.06)((.06*.5+.04*.5)/2)/.5
p284
tp285
a(S'0:10:31'
p286
V.5
p287
tp288
a(S'0:10:53'
p289
V.5*.06
p290
tp291
a(S'0:13:05'
p292
V(.06)((.06+.04)/2)/.5
p293
tp294
a(S'0:13:16'
p295
V(.06)((.06+.04))/.5
p296
tp297
assVssamudra
p298
(dp299
S'part1_correct_attempt'
p300
(lp301
S'0:01:19'
p302
aV2/3
p303
asg9
V2015-10-22 22:14:24
p304
sS'part1_incorrect_attempt'
p305
(lp306
(S'0:00:00'
p307
V0.12
p308
tp309
assVpthsu
p310
(dp311
S'part1_correct_attempt'
p312
(lp313
S'0:02:04'
p314
aV0.66666666666666666666666666666667
p315
asg9
V2015-10-16 23:38:57
p316
sS'part1_incorrect_attempt'
p317
(lp318
(S'0:00:00'
p319
V.5
p320
tp321
assVtcuddy
p322
(dp323
S'part1_correct_attempt'
p324
(lp325
S'11:03:26'
p326
aV(.5)(.07)/[(.5)(.07)+(.5)(.04)]
p327
asg9
V2015-10-17 06:09:13
p328
sS'part1_incorrect_attempt'
p329
(lp330
(S'0:00:00'
p331
V(.5)(.07)
p332
tp333
a(S'0:00:47'
p334
V(.11)(.5)/(.07)
p335
tp336
a(S'0:01:40'
p337
V(.07)(.5)/(.11)
p338
tp339
a(S'0:02:11'
p340
V(.07)(.5)(.5)/(.11)
p341
tp342
a(S'10:51:54'
p343
V[(.5)(.04)]
p344
tp345
assVdando
p346
(dp347
S'part1_correct_attempt'
p348
(lp349
S'2 days, 8:28:07'
p350
aV.7
p351
asg9
V2015-10-20 15:34:15
p352
sS'part1_incorrect_attempt'
p353
(lp354
(S'0:00:00'
p355
V.5
p356
tp357
assVsayao
p358
(dp359
S'part1_correct_attempt'
p360
(lp361
S'0:01:21'
p362
aV.07/(.07+.04)
p363
asg9
V2015-10-21 16:25:39
p364
sS'part1_incorrect_attempt'
p365
(lp366
(S'0:00:00'
p367
V.07
p368
tp369
assVjguanzho
p370
(dp371
S'part1_correct_attempt'
p372
(lp373
S'0:00:25'
p374
aV.06*.5/(0.06*.5+.05*.5)
p375
asg9
V2015-10-16 20:12:57
p376
sS'part1_incorrect_attempt'
p377
(lp378
(S'0:00:00'
p379
V.06*.5/(0.06-.05)
p380
tp381
assVc1wei
p382
(dp383
S'part1_correct_attempt'
p384
(lp385
S'0:01:13'
p386
aV0.6153
p387
asg9
V2015-10-21 21:25:06
p388
sS'part1_incorrect_attempt'
p389
(lp390
(S'0:00:00'
p391
V0.12307
p392
tp393
assVmitopete
p394
(dp395
S'part1_correct_attempt'
p396
(lp397
S'0:02:52'
p398
aV(0.08*0.50)/((0.08*0.50)+(0.05*0.50))
p399
asg9
V2015-10-19 02:54:48
p400
sS'part1_incorrect_attempt'
p401
(lp402
(S'0:00:00'
p403
V0.50
p404
tp405
a(S'0:01:46'
p406
V(0.08*0.50)/0.13
p407
tp408
assVtak068
p409
(dp410
S'part1_correct_attempt'
p411
(lp412
S'0:00:53'
p413
aV0.8/(1.2)
p414
asg9
V2015-10-20 09:26:21
p415
sS'part1_incorrect_attempt'
p416
(lp417
(S'0:00:00'
p418
V0.8
p419
tp420
assVyos017
p421
(dp422
S'part1_correct_attempt'
p423
(lp424
S'0:04:55'
p425
aV(0.5*0.07)/[(0.5*0.07)+(0.5*0.05)]
p426
asg9
V2015-10-21 02:17:37
p427
sS'part1_incorrect_attempt'
p428
(lp429
(S'0:00:00'
p430
V0.5*0.07
p431
tp432
assVsmall
p433
(dp434
S'part1_correct_attempt'
p435
(lp436
S'11:08:14'
p437
aV(0.06*0.5)/(0.06*0.5 + 0.03*0.5)
p438
asg9
V2015-10-22 13:16:40
p439
sS'part1_incorrect_attempt'
p440
(lp441
(S'0:00:00'
p442
V54/5000
p443
tp444
assVb3hwang
p445
(dp446
S'part1_correct_attempt'
p447
(lp448
S'0:00:11'
p449
aV0.06/.09
p450
asg9
V2015-10-21 04:58:32
p451
sS'part1_incorrect_attempt'
p452
(lp453
(S'0:00:00'
p454
V0.06/.1
p455
tp456
assVccn001
p457
(dp458
S'part1_correct_attempt'
p459
(lp460
S'0:02:24'
p461
aV(0.06(0.5))/((0.06)(0.5)+0.03(0.5))
p462
asg9
V2015-10-18 04:33:55
p463
sS'part1_incorrect_attempt'
p464
(lp465
(S'0:00:00'
p466
V0.06
p467
tp468
a(S'0:00:59'
p469
V0.06(0.5)/0.9
p470
tp471
a(S'0:01:24'
p472
V0.06(0.5)/0.09
p473
tp474
assVlrlai
p475
(dp476
S'part1_correct_attempt'
p477
(lp478
S'0:09:06'
p479
aV.08*.5/(.08*.5 + .5*.05)
p480
asg9
V2015-10-21 19:00:24
p481
sS'part1_incorrect_attempt'
p482
(lp483
(S'0:00:00'
p484
V.08*.5 + .5*.05
p485
tp486
assVc1sorian
p487
(dp488
S'part1_correct_attempt'
p489
(lp490
S'0:03:16'
p491
aV.07*.5/.055
p492
asg9
V2015-10-21 20:58:08
p493
sS'part1_incorrect_attempt'
p494
(lp495
(S'0:00:00'
p496
V.5
p497
tp498
assVasp025
p499
(dp500
S'part1_correct_attempt'
p501
(lp502
S'0:00:09'
p503
aV0.5454
p504
asg9
V2015-10-21 17:43:46
p505
sS'part1_incorrect_attempt'
p506
(lp507
(S'0:00:00'
p508
V0.54
p509
tp510
assVsachadal
p511
(dp512
S'part1_correct_attempt'
p513
(lp514
S'0:04:38'
p515
aV(0.06*0.5)/((0.06*0.5)+(0.03*0.5))
p516
asg9
V2015-10-22 17:51:44
p517
sS'part1_incorrect_attempt'
p518
(lp519
(S'0:00:00'
p520
V((0.06)*(0.09))/(0.5)
p521
tp522
assVkrau
p523
(dp524
S'part1_correct_attempt'
p525
(lp526
S'0:09:53'
p527
aV.07/.11
p528
asg9
V2015-10-20 20:11:47
p529
sS'part1_incorrect_attempt'
p530
(lp531
(S'0:00:00'
p532
V.07
p533
tp534
a(S'0:05:26'
p535
V.07*.5/.11
p536
tp537
a(S'0:07:03'
p538
V.00385
p539
tp540
a(S'0:07:53'
p541
V.07*.5/.11
p542
tp543
assVkthui
p544
(dp545
S'part1_correct_attempt'
p546
(lp547
S'0:03:14'
p548
aV(0.08*0.5)/(0.08*0.5+0.05*0.5)
p549
asg9
V2015-10-18 06:41:01
p550
sS'part1_incorrect_attempt'
p551
(lp552
(S'0:00:00'
p553
V0.08*0.5+0.05*0.5
p554
tp555
a(S'0:01:55'
p556
V0.08
p557
tp558
assVmroknich
p559
(dp560
g9
V2015-10-22 05:44:39
p561
sS'part1_incorrect_attempt'
p562
(lp563
(S'0:00:00'
p564
V1.25
p565
tp566
a(S'0:00:14'
p567
V.25
p568
tp569
a(S'0:00:00'
p570
V.125
p571
tp572
a(S'0:00:20'
p573
V1-.125
p574
tp575
a(S'0:00:00'
p576
V(.66667)*(.004678)
p577
tp578
assValhung
p579
(dp580
S'part1_correct_attempt'
p581
(lp582
S'8:15:55'
p583
aV[(0.07)*(0.5)]/[(0.07)*(0.5)+(0.03)*(0.5)]
p584
asg9
V2015-10-22 09:08:05
p585
sS'part1_incorrect_attempt'
p586
(lp587
(S'0:00:00'
p588
V.035
p589
tp590
assVtpmach
p591
(dp592
S'part1_correct_attempt'
p593
(lp594
S'3 days, 2:29:49'
p595
aV0.6
p596
asg9
V2015-10-19 00:13:12
p597
sS'part1_incorrect_attempt'
p598
(lp599
(S'0:00:00'
p600
V0.04
p601
tp602
a(S'0:00:42'
p603
V0.06
p604
tp605
a(S'0:00:00'
p606
V0.03
p607
tp608
assVdis003
p609
(dp610
S'part1_correct_attempt'
p611
(lp612
S'0:03:45'
p613
aV(.08)/(.12)
p614
asg9
V2015-10-22 06:37:05
p615
sS'part1_incorrect_attempt'
p616
(lp617
(S'0:00:00'
p618
V(.8)(.5)/(.12)
p619
tp620
a(S'0:02:15'
p621
V(.08)(.05)/(.12)
p622
tp623
a(S'0:02:29'
p624
V(.08)(.05)
p625
tp626
a(S'0:03:15'
p627
V(.08)(.5)
p628
tp629
a(S'0:03:28'
p630
V(.08)(.5)/(.12)
p631
tp632
assVrraiyyan
p633
(dp634
S'part1_correct_attempt'
p635
(lp636
S'0:00:58'
p637
aV0.07*0.5/0.05
p638
asg9
V2015-10-22 05:52:43
p639
sS'part1_incorrect_attempt'
p640
(lp641
(S'0:00:00'
p642
V0.07*0.5/0.08
p643
tp644
assVt1tran
p645
(dp646
S'part1_correct_attempt'
p647
(lp648
S'0:49:21'
p649
aV(7/100*.5)/(7/100*.5+4/100*.5)
p650
asg9
V2015-10-18 01:36:10
p651
sS'part1_incorrect_attempt'
p652
(lp653
(S'0:00:00'
p654
V7/100/1/2
p655
tp656
a(S'0:09:38'
p657
V1/2*7/100
p658
tp659
a(S'0:09:48'
p660
V1/2*(7/100)
p661
tp662
assVdsmonaha
p663
(dp664
S'part1_correct_attempt'
p665
(lp666
S'0:02:35'
p667
aV.7
p668
asg9
V2015-10-19 15:38:58
p669
sS'part1_incorrect_attempt'
p670
(lp671
(S'0:00:00'
p672
V.35
p673
tp674
assVthwan
p675
(dp676
S'part1_correct_attempt'
p677
(lp678
S'19:22:02'
p679
aV0.5*0.08/(0.5*0.08+0.5*0.03)
p680
asg9
V2015-10-18 04:20:55
p681
sS'part1_incorrect_attempt'
p682
(lp683
(S'0:00:00'
p684
V(0.08-0.5*0.03)/0.05
p685
tp686
a(S'0:01:29'
p687
V(0.08-0.5*0.03)/0.5
p688
tp689
a(S'0:02:03'
p690
V(0.08-0.5*0.03)
p691
tp692
assVkrkelkar
p693
(dp694
S'part1_correct_attempt'
p695
(lp696
S'0:05:40'
p697
aV[(.08)*(.5)] / [ (.08)*(.5)+(.03)*(.5) ]
p698
asg9
V2015-10-21 21:22:57
p699
sS'part1_incorrect_attempt'
p700
(lp701
(S'0:00:00'
p702
V(.08)*(1/2)+(.03)*(1/2)
p703
tp704
assVhmnaing
p705
(dp706
S'part1_correct_attempt'
p707
(lp708
S'1 day, 4:43:43'
p709
aV(0.07*0.5)/((0.07*0.5)+ (0.04*0.5))
p710
asg9
V2015-10-20 22:01:08
p711
sS'part1_incorrect_attempt'
p712
(lp713
(S'0:00:00'
p714
V0.07*0.5/0.13
p715
tp716
a(S'0:00:10'
p717
V0.07/0.5*0.13
p718
tp719
a(S'0:05:40'
p720
V0.07/0.13
p721
tp722
a(S'0:00:00'
p723
V(0.07*0.5)+ (0.04*0.5)
p724
tp725
a(S'0:00:00'
p726
V(0.7*0.5)/((0.07*0.5)+ (0.04*0.5))
p727
tp728
assVedescobe
p729
(dp730
S'part1_correct_attempt'
p731
(lp732
S'0:02:20'
p733
aV.04/(.04+.5*.05)
p734
asg9
V2015-10-18 10:48:42
p735
sS'part1_incorrect_attempt'
p736
(lp737
(S'0:00:00'
p738
V.5*.08
p739
tp740
assVetemlock
p741
(dp742
S'part1_correct_attempt'
p743
(lp744
S'0:09:44'
p745
aV0.6
p746
asg9
V2015-10-21 09:21:39
p747
sS'part1_incorrect_attempt'
p748
(lp749
(S'0:00:00'
p750
V0.04/0.05
p751
tp752
a(S'0:00:06'
p753
V0.04/0.5
p754
tp755
a(S'0:00:19'
p756
V0.06/0.5
p757
tp758
a(S'0:00:32'
p759
V0.006/0.5
p760
tp761
a(S'0:09:40'
p762
V0.4
p763
tp764
assVmuy002
p765
(dp766
S'part1_correct_attempt'
p767
(lp768
S'0:01:59'
p769
aV(0.06)(0.5)/(0.06*0.5+0.05*0.5)
p770
asg9
V2015-10-22 21:37:08
p771
sS'part1_incorrect_attempt'
p772
(lp773
(S'0:00:00'
p774
V(0.06*(0.11))/(0.5)
p775
tp776
a(S'0:00:58'
p777
V(0.06*((0.06*0.5)+(0.05*0.5)))/(0.5)
p778
tp779
assVjtfrankl
p780
(dp781
S'part1_correct_attempt'
p782
(lp783
S'0:02:00'
p784
aV(.5*.07)/(.5*.07+.5*.04)
p785
asg9
V2015-10-20 23:16:26
p786
sS'part1_incorrect_attempt'
p787
(lp788
(S'0:00:00'
p789
V.5*.07
p790
tp791
assVrbdoming
p792
(dp793
S'part1_correct_attempt'
p794
(lp795
S'0:02:45'
p796
aV(0.08*0.5)/(0.5*0.08+0.5*0.05)
p797
asg9
V2015-10-18 00:27:45
p798
sS'part1_incorrect_attempt'
p799
(lp800
(S'0:00:00'
p801
V0.5
p802
tp803
assVralhadda
p804
(dp805
S'part1_correct_attempt'
p806
(lp807
S'0:56:50'
p808
aV0.6
p809
asg9
V2015-10-22 16:44:47
p810
sS'part1_incorrect_attempt'
p811
(lp812
(S'0:00:00'
p813
V0.3
p814
tp815
a(S'0:03:21'
p816
V0.48
p817
tp818
a(S'0:04:27'
p819
V0.96
p820
tp821
a(S'0:09:15'
p822
V0.943
p823
tp824
a(S'0:11:05'
p825
V0.943396
p826
tp827
a(S'0:00:00'
p828
V0.625
p829
tp830
a(S'0:00:40'
p831
V0.943396
p832
tp833
a(S'0:00:51'
p834
V0.94
p835
tp836
a(S'0:01:50'
p837
V0.943
p838
tp839
assVbpandayk
p840
(dp841
S'part1_correct_attempt'
p842
(lp843
S'0:26:36'
p844
aV0.667
p845
asg9
V2015-10-22 04:02:59
p846
sS'part1_incorrect_attempt'
p847
(lp848
(S'0:00:00'
p849
V0.01523
p850
tp851
a(S'0:00:00'
p852
V0.666
p853
tp854
assVbkoli
p855
(dp856
S'part1_correct_attempt'
p857
(lp858
S'0:14:04'
p859
aV(0.06)/(0.06+0.04)
p860
asg9
V2015-10-22 20:05:11
p861
sS'part1_incorrect_attempt'
p862
(lp863
(S'0:00:00'
p864
V0.9
p865
tp866
a(S'0:00:10'
p867
V0.10
p868
tp869
a(S'0:11:13'
p870
V((0.06)(0.6))/(((0.06)(0.6))+((0.4)(0.6)))
p871
tp872
a(S'0:00:00'
p873
V((0.06)(0.5))/(((0.06)(0.5))+((0.4)(0.5)))
p874
tp875
assVk3tan
p876
(dp877
S'part1_correct_attempt'
p878
(lp879
S'0:15:36'
p880
aV0.03/0.055
p881
asg9
V2015-10-22 21:48:43
p882
sS'part1_incorrect_attempt'
p883
(lp884
(S'0:00:00'
p885
V0.03/0.045
p886
tp887
a(S'0:00:00'
p888
V0.05/0.045
p889
tp890
a(S'0:00:00'
p891
V0.05/0.055
p892
tp893
a(S'0:00:04'
p894
V0.06/0.055
p895
tp896
assVctroncos
p897
(dp898
S'part1_correct_attempt'
p899
(lp900
S'0:54:16'
p901
aV0.5833
p902
asg9
V2015-10-22 03:20:45
p903
sS'part1_incorrect_attempt'
p904
(lp905
(S'0:00:00'
p906
V0.5
p907
tp908
a(S'0:00:00'
p909
V0.2916
p910
tp911
a(S'0:00:00'
p912
V0.035
p913
tp914
a(S'0:01:36'
p915
V0.0105
p916
tp917
a(S'0:02:33'
p918
V0.3
p919
tp920
a(S'0:02:43'
p921
V0.29167
p922
tp923
assVlywong
p924
(dp925
S'part1_correct_attempt'
p926
(lp927
S'8:30:18'
p928
aV.70
p929
asg9
V2015-10-20 23:17:49
p930
sS'part1_incorrect_attempt'
p931
(lp932
(S'0:00:00'
p933
V.35
p934
tp935
a(S'0:00:00'
p936
V.035
p937
tp938
assVjix029
p939
(dp940
S'part1_correct_attempt'
p941
(lp942
S'0:02:09'
p943
aV.06*.5/(.5*.06+.5*.03)
p944
asg9
V2015-10-20 19:50:37
p945
sS'part1_incorrect_attempt'
p946
(lp947
(S'0:00:00'
p948
V.06*.5
p949
tp950
a(S'0:01:41'
p951
V.06*.5/.5
p952
tp953
assVhkhodada
p954
(dp955
S'part1_correct_attempt'
p956
(lp957
S'3 days, 4:32:12'
p958
aV2/3
p959
asg9
V2015-10-17 19:29:02
p960
sS'part1_incorrect_attempt'
p961
(lp962
(S'0:00:00'
p963
V40/10000
p964
tp965
a(S'0:00:54'
p966
V4000/80000
p967
tp968
a(S'0:00:00'
p969
V8/100
p970
tp971
a(S'0:00:08'
p972
V1/2
p973
tp974
a(S'0:00:40'
p975
V4/100
p976
tp977
a(S'0:11:16'
p978
V2/25
p979
tp980
a(S'0:00:00'
p981
V4/12
p982
tp983
assVglcohen
p984
(dp985
S'part1_correct_attempt'
p986
(lp987
S'0:00:10'
p988
aV7/11
p989
asg9
V2015-10-17 23:35:49
p990
sS'part1_incorrect_attempt'
p991
(lp992
(S'0:00:00'
p993
V7/12
p994
tp995
assVacvuong
p996
(dp997
S'part1_correct_attempt'
p998
(lp999
S'0:00:46'
p1000
aV(0.07*0.5)/(0.07*0.5+0.04*0.5)
p1001
asg9
V2015-10-18 00:28:12
p1002
sS'part1_incorrect_attempt'
p1003
(lp1004
(S'0:00:00'
p1005
V0.07*0.5+0.04*0.5
p1006
tp1007
assVthk002
p1008
(dp1009
S'part1_correct_attempt'
p1010
(lp1011
S'0:18:52'
p1012
aV0.6
p1013
asg9
V2015-10-20 21:06:53
p1014
sS'part1_incorrect_attempt'
p1015
(lp1016
(S'0:00:00'
p1017
V3/100
p1018
tp1019
a(S'0:01:02'
p1020
V2/600
p1021
tp1022
a(S'0:05:49'
p1023
V10/100
p1024
tp1025
assVpvl001
p1026
(dp1027
S'part1_correct_attempt'
p1028
(lp1029
S'0:09:31'
p1030
aV.50 * .07 / ((.07 * .50) + (.05 * .50))
p1031
asg9
V2015-10-19 02:51:11
p1032
sS'part1_incorrect_attempt'
p1033
(lp1034
(S'0:00:00'
p1035
V0.50
p1036
tp1037
assVt2li
p1038
(dp1039
S'part1_correct_attempt'
p1040
(lp1041
S'0:01:27'
p1042
aV(0.07*0.5)/(0.05*0.5 + 0.07*0.5)
p1043
asg9
V2015-10-22 23:09:54
p1044
sS'part1_incorrect_attempt'
p1045
(lp1046
(S'0:00:00'
p1047
V(0.05*0.5)/(0.05*0.5 + 0.01*0.5)
p1048
tp1049
a(S'0:00:17'
p1050
V(0.05*0.5)/(0.05*0.5 + 0.01*0.5)
p1051
tp1052
a(S'0:00:27'
p1053
V(0.05*0.5)/(0.05*0.5 + 0.07*0.5)
p1054
tp1055
assVdlt009
p1056
(dp1057
S'part1_correct_attempt'
p1058
(lp1059
S'0:03:51'
p1060
aV0.615
p1061
asg9
V2015-10-22 05:55:35
p1062
sS'part1_incorrect_attempt'
p1063
(lp1064
(S'0:00:00'
p1065
V0.08
p1066
tp1067
a(S'0:01:03'
p1068
V.307
p1069
tp1070
a(S'0:01:09'
p1071
V.3077
p1072
tp1073
a(S'0:01:18'
p1074
V.3
p1075
tp1076
a(S'0:03:21'
p1077
V0.065
p1078
tp1079
assVmbl003
p1080
(dp1081
S'part1_correct_attempt'
p1082
(lp1083
S'0:02:21'
p1084
aV(.5*.08)/((.5*.08)+(.5*.03))
p1085
asg9
V2015-10-18 20:25:32
p1086
sS'part1_incorrect_attempt'
p1087
(lp1088
(S'0:00:00'
p1089
V.5*.08+.03*.5
p1090
tp1091
a(S'0:00:47'
p1092
V(.5*.08)+(.5*.03)
p1093
tp1094
assVn2patil
p1095
(dp1096
S'part1_correct_attempt'
p1097
(lp1098
S'2:29:42'
p1099
aV.04/.065
p1100
asg9
V2015-10-21 02:51:12
p1101
sS'part1_incorrect_attempt'
p1102
(lp1103
(S'0:00:00'
p1104
V.5
p1105
tp1106
assVganajera
p1107
(dp1108
S'part1_correct_attempt'
p1109
(lp1110
S'0:10:28'
p1111
aV(.08*.5)/.065
p1112
asg9
V2015-10-16 01:59:27
p1113
sS'part1_incorrect_attempt'
p1114
(lp1115
(S'0:00:00'
p1116
V0.065
p1117
tp1118
a(S'0:03:15'
p1119
V.06
p1120
tp1121
a(S'0:06:08'
p1122
V.04/.06
p1123
tp1124
assVnnh002
p1125
(dp1126
S'part1_correct_attempt'
p1127
(lp1128
S'0:07:09'
p1129
aV2/3
p1130
asg9
V2015-10-21 23:29:19
p1131
sS'part1_incorrect_attempt'
p1132
(lp1133
(S'0:00:00'
p1134
V.12
p1135
tp1136
a(S'0:05:14'
p1137
V1/3
p1138
tp1139
a(S'0:06:42'
p1140
V0.04
p1141
tp1142
assVakhmelni
p1143
(dp1144
S'part1_correct_attempt'
p1145
(lp1146
S'2:03:17'
p1147
aV((7/100)(.5))/(6/100)
p1148
asg9
V2015-10-22 20:02:52
p1149
sS'part1_incorrect_attempt'
p1150
(lp1151
(S'0:00:00'
p1152
V5/7
p1153
tp1154
assVtol003
p1155
(dp1156
S'part1_correct_attempt'
p1157
(lp1158
S'0:00:17'
p1159
aV.7
p1160
asg9
V2015-10-20 22:48:06
p1161
sS'part1_incorrect_attempt'
p1162
(lp1163
(S'0:00:00'
p1164
V.35
p1165
tp1166
assVaakumar
p1167
(dp1168
S'part1_correct_attempt'
p1169
(lp1170
S'0:15:00'
p1171
aV.04/.055
p1172
asg9
V2015-10-19 04:50:04
p1173
sS'part1_incorrect_attempt'
p1174
(lp1175
(S'0:00:00'
p1176
V.055
p1177
tp1178
assVkew017
p1179
(dp1180
S'part1_correct_attempt'
p1181
(lp1182
S'0:01:54'
p1183
aV6/11
p1184
asg9
V2015-10-22 18:14:22
p1185
sS'part1_incorrect_attempt'
p1186
(lp1187
(S'0:00:00'
p1188
V1/0.05
p1189
tp1190
assVq3wen
p1191
(dp1192
S'part1_correct_attempt'
p1193
(lp1194
S'0:00:26'
p1195
aV2/3
p1196
asg9
V2015-10-21 22:46:45
p1197
sS'part1_incorrect_attempt'
p1198
(lp1199
(S'0:00:00'
p1200
V1/3
p1201
tp1202
assVyeh013
p1203
(dp1204
S'part1_correct_attempt'
p1205
(lp1206
S'0:02:01'
p1207
aV7/10
p1208
asg9
V2015-10-22 08:04:52
p1209
sS'part1_incorrect_attempt'
p1210
(lp1211
(S'0:00:00'
p1212
V7/200
p1213
tp1214
assVeaherman
p1215
(dp1216
S'part1_correct_attempt'
p1217
(lp1218
S'11:50:24'
p1219
aV8/13
p1220
asg9
V2015-10-22 05:37:00
p1221
sS'part1_incorrect_attempt'
p1222
(lp1223
(S'0:00:00'
p1224
V.0064
p1225
tp1226
a(S'0:01:19'
p1227
V.064
p1228
tp1229
a(S'0:01:32'
p1230
V6.4
p1231
tp1232
a(S'0:01:43'
p1233
V.64
p1234
tp1235
a(S'0:00:00'
p1236
V.0052/.5
p1237
tp1238
a(S'0:00:00'
p1239
V.052/.5
p1240
tp1241
assVjjchung
p1242
(dp1243
S'part1_correct_attempt'
p1244
(lp1245
S'0:04:07'
p1246
aV6/10
p1247
asg9
V2015-10-21 02:46:01
p1248
sS'part1_incorrect_attempt'
p1249
(lp1250
(S'0:00:00'
p1251
V.024/.05
p1252
tp1253
assVcsl030
p1254
(dp1255
S'part1_correct_attempt'
p1256
(lp1257
S'0:02:41'
p1258
aV(.5 * .06)/ ((.5 * .06) + (.5*.04))
p1259
asg9
V2015-10-22 00:10:05
p1260
sS'part1_incorrect_attempt'
p1261
(lp1262
(S'0:00:00'
p1263
V.5 * .06
p1264
tp1265
assVytc012
p1266
(dp1267
S'part1_correct_attempt'
p1268
(lp1269
S'0:04:59'
p1270
aV0.06(0.5)/((0.06)(0.5)+(0.05)(0.5))
p1271
asg9
V2015-10-21 10:29:23
p1272
sS'part1_incorrect_attempt'
p1273
(lp1274
(S'0:00:00'
p1275
V(6/100)0.5/0.11
p1276
tp1277
assVdlgoldbe
p1278
(dp1279
S'part1_correct_attempt'
p1280
(lp1281
S'0:00:26'
p1282
aV((0.08)*(0.5))/0.06
p1283
asg9
V2015-10-22 06:18:05
p1284
sS'part1_incorrect_attempt'
p1285
(lp1286
(S'0:00:00'
p1287
V((0.08)*(0.5))/(0.12)
p1288
tp1289
assVyig015
p1290
(dp1291
S'part1_correct_attempt'
p1292
(lp1293
S'0:00:36'
p1294
aV7/10
p1295
asg9
V2015-10-22 09:00:06
p1296
sS'part1_incorrect_attempt'
p1297
(lp1298
(S'0:00:00'
p1299
V7/5
p1300
tp1301
assVagoldsht
p1302
(dp1303
S'part1_correct_attempt'
p1304
(lp1305
S'0:21:26'
p1306
aV.08/(.13)
p1307
asg9
V2015-10-20 05:10:29
p1308
sS'part1_incorrect_attempt'
p1309
(lp1310
(S'0:00:00'
p1311
V((.08*.5)*.5)/((.08*.5)*.5)+(.03*.5*.5)
p1312
tp1313
assVagian
p1314
(dp1315
S'part1_correct_attempt'
p1316
(lp1317
S'0:00:07'
p1318
aV0.07/(0.07+0.04)
p1319
asg9
V2015-10-22 20:35:58
p1320
sS'part1_incorrect_attempt'
p1321
(lp1322
(S'0:00:00'
p1323
V0.07/0.07+0.04
p1324
tp1325
assVvsamant
p1326
(dp1327
S'part1_correct_attempt'
p1328
(lp1329
S'0:00:09'
p1330
aV.06*.5/(.06*.5+.04*.5)
p1331
asg9
V2015-10-16 18:10:39
p1332
sS'part1_incorrect_attempt'
p1333
(lp1334
(S'0:00:00'
p1335
V.06*.5/(.06*.5+.05*.5)
p1336
tp1337
assVfichoi
p1338
(dp1339
S'part1_correct_attempt'
p1340
(lp1341
S'0:02:58'
p1342
aV0.6154
p1343
asg9
V2015-10-22 02:58:36
p1344
sS'part1_incorrect_attempt'
p1345
(lp1346
(S'0:00:00'
p1347
V0.065
p1348
tp1349
a(S'0:00:05'
p1350
V0.065*100
p1351
tp1352
a(S'0:02:31'
p1353
V0.5
p1354
tp1355
a(S'0:02:53'
p1356
V0.61
p1357
tp1358
assVany027
p1359
(dp1360
S'part1_correct_attempt'
p1361
(lp1362
S'0:07:56'
p1363
aV(0.07 * 0.50) / ( (0.07 * 0.50) + (0.05 * 0.50) )
p1364
asg9
V2015-10-19 19:17:51
p1365
sS'part1_incorrect_attempt'
p1366
(lp1367
(S'0:00:00'
p1368
V0.07
p1369
tp1370
assVrwthomps
p1371
(dp1372
S'part1_correct_attempt'
p1373
(lp1374
S'0:04:14'
p1375
aV(.07 * .5) / (.07 * .5 + .03 * .5)
p1376
asg9
V2015-10-20 22:21:23
p1377
sS'part1_incorrect_attempt'
p1378
(lp1379
(S'0:00:00'
p1380
V(.07 * .5 * .5) / (.07 * .5 * .03 * .5)
p1381
tp1382
a(S'0:00:38'
p1383
V(.07 * .5) / (.07 * .5 * .03 * .5)
p1384
tp1385
assVvsosnovs
p1386
(dp1387
S'part1_correct_attempt'
p1388
(lp1389
S'0:03:06'
p1390
aV.07/.12
p1391
asg9
V2015-10-21 06:52:46
p1392
sS'part1_incorrect_attempt'
p1393
(lp1394
(S'0:00:00'
p1395
V.7*.5
p1396
tp1397
a(S'0:00:11'
p1398
V.07*.5
p1399
tp1400
a(S'0:00:23'
p1401
V.5
p1402
tp1403
a(S'0:01:02'
p1404
V.5*.12
p1405
tp1406
a(S'0:01:48'
p1407
V(.5*.07)/.07
p1408
tp1409
a(S'0:01:55'
p1410
V(.5*.07)/.12
p1411
tp1412
assVjdeon
p1413
(dp1414
S'part1_correct_attempt'
p1415
(lp1416
S'0:00:49'
p1417
aV(.06 * .5)/(.06 * .5 + .04 *.5)
p1418
asg9
V2015-10-21 22:47:41
p1419
sS'part1_incorrect_attempt'
p1420
(lp1421
(S'0:00:00'
p1422
V(.06 * .5)/(.1)
p1423
tp1424
assVp4kumar
p1425
(dp1426
S'part1_correct_attempt'
p1427
(lp1428
S'1:11:18'
p1429
aV0.07/0.12
p1430
asg9
V2015-10-22 16:19:05
p1431
sS'part1_incorrect_attempt'
p1432
(lp1433
(S'0:00:00'
p1434
V7/13
p1435
tp1436
a(S'0:00:00'
p1437
V0.07/(0.07*0.5 + 0.05*0.5)
p1438
tp1439
assVs2chaudh
p1440
(dp1441
S'part1_correct_attempt'
p1442
(lp1443
S'0:06:05'
p1444
aV7/10
p1445
asg9
V2015-10-19 17:05:59
p1446
sS'part1_incorrect_attempt'
p1447
(lp1448
(S'0:00:00'
p1449
V(.007*.05)/.1
p1450
tp1451
a(S'0:00:13'
p1452
V(.07*.5)/.1
p1453
tp1454
a(S'0:00:49'
p1455
V(.07*.43)/.1
p1456
tp1457
assVjmiclat
p1458
(dp1459
S'part1_correct_attempt'
p1460
(lp1461
S'0:01:00'
p1462
aV(0.50)(0.06)/[(0.05)(0.50) + (0.06)(0.50)]
p1463
asg9
V2015-10-19 23:11:51
p1464
sS'part1_incorrect_attempt'
p1465
(lp1466
(S'0:00:00'
p1467
V(0.50)(0.06)/(0.11)
p1468
tp1469
assVbmilton
p1470
(dp1471
S'part1_correct_attempt'
p1472
(lp1473
S'0:00:40'
p1474
aV.08*.5/(.08*.5 + .04*.5)
p1475
asg9
V2015-10-21 03:00:28
p1476
sS'part1_incorrect_attempt'
p1477
(lp1478
(S'0:00:00'
p1479
V.08/(.08*.5 + .04*.5)
p1480
tp1481
assVdcgriffi
p1482
(dp1483
S'part1_correct_attempt'
p1484
(lp1485
S'0:00:26'
p1486
aV.04/.06
p1487
asg9
V2015-10-21 01:41:10
p1488
sS'part1_incorrect_attempt'
p1489
(lp1490
(S'0:00:00'
p1491
V.04/(.12)
p1492
tp1493
assVcfgutier
p1494
(dp1495
S'part1_correct_attempt'
p1496
(lp1497
S'12:30:16'
p1498
aV(.08*.5)/((.08*.5)+(.03*.5))
p1499
asg9
V2015-10-22 09:42:26
p1500
sS'part1_incorrect_attempt'
p1501
(lp1502
(S'0:00:00'
p1503
V.0088/.11
p1504
tp1505
a(S'0:00:21'
p1506
V.8
p1507
tp1508
assVdkostins
p1509
(dp1510
S'part1_correct_attempt'
p1511
(lp1512
S'0:01:01'
p1513
aV.06/.1
p1514
asg9
V2015-10-20 22:28:18
p1515
sS'part1_incorrect_attempt'
p1516
(lp1517
(S'0:00:00'
p1518
V.06
p1519
tp1520
assVtwsalim
p1521
(dp1522
S'part1_correct_attempt'
p1523
(lp1524
S'0:05:47'
p1525
aV0.54545454
p1526
asg9
V2015-10-20 05:06:19
p1527
sS'part1_incorrect_attempt'
p1528
(lp1529
(S'0:00:00'
p1530
V0.54
p1531
tp1532
assVs6deng
p1533
(dp1534
g9
V2015-10-21 22:50:57
p1535
sS'part1_incorrect_attempt'
p1536
(lp1537
(S'0:00:00'
p1538
V5/13
p1539
tp1540
a(S'0:05:12'
p1541
V0.08*.5
p1542
tp1543
a(S'0:05:22'
p1544
V(0.08*.5) / 1
p1545
tp1546
a(S'0:06:06'
p1547
V(8/100)(1/2)
p1548
tp1549
assVkalang
p1550
(dp1551
S'part1_correct_attempt'
p1552
(lp1553
S'0:06:26'
p1554
aV6/11
p1555
asg9
V2015-10-22 02:35:16
p1556
sS'part1_incorrect_attempt'
p1557
(lp1558
(S'0:00:00'
p1559
V.05/(.05+.06)
p1560
tp1561
a(S'0:00:24'
p1562
V.05/((.05+.06)*2)
p1563
tp1564
a(S'0:00:31'
p1565
V.05/((.05+.06))
p1566
tp1567
a(S'0:05:02'
p1568
V5/6
p1569
tp1570
a(S'0:05:21'
p1571
V5/11
p1572
tp1573
assVaalhaida
p1574
(dp1575
S'part1_correct_attempt'
p1576
(lp1577
S'0:08:05'
p1578
aV.6666
p1579
asg9
V2015-10-22 19:12:38
p1580
sS'part1_incorrect_attempt'
p1581
(lp1582
(S'0:00:00'
p1583
V.5
p1584
tp1585
a(S'0:01:44'
p1586
V.6
p1587
tp1588
a(S'0:01:50'
p1589
V.06
p1590
tp1591
a(S'0:01:55'
p1592
V.05
p1593
tp1594
a(S'0:00:00'
p1595
V3.33
p1596
tp1597
a(S'0:00:59'
p1598
V6.66
p1599
tp1600
assVhah008
p1601
(dp1602
S'part1_correct_attempt'
p1603
(lp1604
S'13:12:19'
p1605
aV(1/2 * (7/100)) / ((1/2 * (7/100)) + (1/2 * (4/100)))
p1606
asg9
V2015-10-21 07:08:33
p1607
sS'part1_incorrect_attempt'
p1608
(lp1609
(S'0:00:00'
p1610
V(7 * 50) / 11
p1611
tp1612
a(S'0:00:08'
p1613
V0.318182
p1614
tp1615
a(S'0:20:03'
p1616
V0.5
p1617
tp1618
a(S'0:00:00'
p1619
V(1/2 * 7/100) / ((1/2 * 7/100) * (1/2 * 4/100))
p1620
tp1621
a(S'0:00:54'
p1622
V(1/2 * 7/100) / ((1/2 * (7/100)) * (1/2 * (4/100)))
p1623
tp1624
a(S'0:01:08'
p1625
V(1/2 * (7/100)) / ((1/2 * (7/100)) * (1/2 * (4/100)))
p1626
tp1627
a(S'0:03:42'
p1628
V(50 * (7/100)) / ((50 * (7/100)) * (50 * (4/100)))
p1629
tp1630
assVacs008
p1631
(dp1632
S'part1_correct_attempt'
p1633
(lp1634
S'0:03:11'
p1635
aV(0.07*0.5)/(0.5*0.07+0.5*0.04)
p1636
asg9
V2015-10-22 03:59:35
p1637
sS'part1_incorrect_attempt'
p1638
(lp1639
(S'0:00:00'
p1640
V(0.07*0.5)/(0.05*0.07+0.05*0.04)
p1641
tp1642
assVdtea
p1643
(dp1644
S'part1_correct_attempt'
p1645
(lp1646
S'0:25:47'
p1647
aV(0.06)*.5/(.5*.06+.5*.04)
p1648
asg9
V2015-10-22 21:39:17
p1649
sS'part1_incorrect_attempt'
p1650
(lp1651
(S'0:00:00'
p1652
V0.06
p1653
tp1654
a(S'0:00:00'
p1655
V(.5*.06+.5*.04)*0.5/(.5*.06+.5*.04)
p1656
tp1657
a(S'0:00:00'
p1658
V.5*.06+.5*.04
p1659
tp1660
a(S'0:00:00'
p1661
V(0.06)*.05(.5*.06+.5*.04)
p1662
tp1663
a(S'0:00:07'
p1664
V(0.06)*.5(.5*.06+.5*.04)
p1665
tp1666
a(S'0:00:54'
p1667
V(0.06)*.5
p1668
tp1669
assVlahawkin
p1670
(dp1671
S'part1_correct_attempt'
p1672
(lp1673
S'0:00:49'
p1674
aV(.06*.5)/((.06*.5)+(.05*.5))
p1675
asg9
V2015-10-19 04:17:11
p1676
sS'part1_incorrect_attempt'
p1677
(lp1678
(S'0:00:00'
p1679
V(.06*.5)+(.05+.5)
p1680
tp1681
a(S'0:00:36'
p1682
V(.06*.5)/((.06*.5)+(.05+.5))
p1683
tp1684
assVedcole
p1685
(dp1686
S'part1_correct_attempt'
p1687
(lp1688
S'16:57:47'
p1689
aV2/3
p1690
asg9
V2015-10-20 01:02:33
p1691
sS'part1_incorrect_attempt'
p1692
(lp1693
(S'0:00:00'
p1694
V(.5)(.06)
p1695
tp1696
a(S'0:01:14'
p1697
V(.06)/(.03)
p1698
tp1699
a(S'0:01:55'
p1700
V((.06)/(.03))/.5
p1701
tp1702
a(S'0:02:11'
p1703
V((.06)/(.03))*(.5)
p1704
tp1705
a(S'0:04:16'
p1706
V((.06)*(.5))/((.06)*(.03))
p1707
tp1708
a(S'0:00:00'
p1709
V((.06)*(.09))/(.5)
p1710
tp1711
a(S'0:03:07'
p1712
V((.06)*(.045))/(.5)
p1713
tp1714
assVaordookh
p1715
(dp1716
S'part1_correct_attempt'
p1717
(lp1718
S'5:35:10'
p1719
aV0.07*0.5/0.055
p1720
asg9
V2015-10-21 22:25:25
p1721
sS'part1_incorrect_attempt'
p1722
(lp1723
(S'0:00:00'
p1724
V.63
p1725
tp1726
a(S'0:01:38'
p1727
V.64
p1728
tp1729
a(S'0:00:00'
p1730
V.07/.055
p1731
tp1732
assVkquong
p1733
(dp1734
S'part1_correct_attempt'
p1735
(lp1736
S'0:12:50'
p1737
aV.08* .5/(.08 * .5 + .03 * .5)
p1738
asg9
V2015-10-17 22:32:02
p1739
sS'part1_incorrect_attempt'
p1740
(lp1741
(S'0:00:00'
p1742
V.08 * .05/(.08 * .05 + .3 * .5)
p1743
tp1744
a(S'0:01:36'
p1745
V.08/(.08 * .05 + .3 * .5)
p1746
tp1747
a(S'0:02:16'
p1748
V.08* .05(.08 * .5 + .3 * .5)
p1749
tp1750
a(S'0:02:26'
p1751
V.08* .05/(.08 * .5 + .3 * .5)
p1752
tp1753
a(S'0:12:15'
p1754
V.08* .05/(.08 * .5 + .03 * .5)
p1755
tp1756
assVvasharma
p1757
(dp1758
S'part1_correct_attempt'
p1759
(lp1760
S'0:00:57'
p1761
aV.06/(.06 +.05)
p1762
asg9
V2015-10-20 18:47:54
p1763
sS'part1_incorrect_attempt'
p1764
(lp1765
(S'0:00:00'
p1766
V.06*.5 + .5*.05
p1767
tp1768
a(S'0:00:25'
p1769
V.06/(.06*.5 + .5*.05)
p1770
tp1771
assVajvanega
p1772
(dp1773
S'part1_correct_attempt'
p1774
(lp1775
S'0:00:33'
p1776
aV.7272
p1777
asg9
V2015-10-20 23:25:14
p1778
sS'part1_incorrect_attempt'
p1779
(lp1780
(S'0:00:00'
p1781
V.72
p1782
tp1783
assVj6quach
p1784
(dp1785
S'part1_correct_attempt'
p1786
(lp1787
S'0:03:31'
p1788
aV.6153846
p1789
asg9
V2015-10-22 17:28:11
p1790
sS'part1_incorrect_attempt'
p1791
(lp1792
(S'0:00:00'
p1793
V.16
p1794
tp1795
a(S'0:01:16'
p1796
V.307
p1797
tp1798
assVmjethani
p1799
(dp1800
S'part1_correct_attempt'
p1801
(lp1802
S'0:07:10'
p1803
aV((0.07)(0.5))/(0.055)
p1804
asg9
V2015-10-21 23:04:41
p1805
sS'part1_incorrect_attempt'
p1806
(lp1807
(S'0:00:00'
p1808
V0.5
p1809
tp1810
a(S'0:06:48'
p1811
V((0.07)(0.05))/(0.055)
p1812
tp1813
asss.