(dp0
V1
p1
ccollections
defaultdict
p2
(c__builtin__
list
p3
tp4
Rp5
S'Digits'
p6
(lp7
(V4*8
p8
V3
p9
tp10
a(g8
V12
p11
tp12
a(g8
V6
p13
tp14
a(g8
V2
p15
tp16
a(V4*8
p17
V4
p18
tp19
a(g17
V2
p20
tp21
a(V4*8
p22
V12
p23
tp24
a(g22
V3
p25
tp26
a(g22
V16
p27
tp28
a(g22
V8
p29
tp30
a(g22
V16
p31
tp32
a(g22
V64
p33
tp34
a(V4*8
p35
V64
p36
tp37
a(V4*8
p38
V8
p39
tp40
a(V4*8
p41
V12
p42
tp43
a(V4*8
p44
V3,6
p45
tp46
a(g44
V2
p47
tp48
a(g44
V12
p49
tp50
a(g44
V16
p51
tp52
a(g44
V64
p53
tp54
a(V4*8
p55
V2
p56
tp57
a(V4*8
p58
V128
p59
tp60
a(g58
V64
p61
tp62
a(g58
V256
p63
tp64
a(V4*8
p65
V9
p66
tp67
a(g65
V10
p68
tp69
a(g65
V11
p70
tp71
a(g65
V12
p72
tp73
a(g65
V13
p74
tp75
a(V4*8
p76
V8
p77
tp78
a(V4*8
p79
V2
p80
tp81
a(g79
V4
p82
tp83
a(V4*8
p84
V12
p85
tp86
a(g84
V24
p87
tp88
a(V4*8
p89
V132
p90
tp91
a(g89
V8
p92
tp93
a(g89
V24
p94
tp95
a(V4*8
p96
V2
p97
tp98
a(V4*8
p99
V12
p100
tp101
a(g99
V8
p102
tp103
a(g99
V16
p104
tp105
a(g79
V3
p106
tp107
a(V4*8
p108
V2
p109
tp110
a(V4*8
p111
V48
p112
tp113
a(V4*8
p114
V12
p115
tp116
a(V4*8
p117
V4
p118
tp119
a(V4*8
p120
V64
p121
tp122
a(g120
V8
p123
tp124
a(g114
V64
p125
tp126
a(V4*8
p127
V12
p128
tp129
a(g127
V3
p130
tp131
a(V4*8
p132
V2
p133
tp134
a(g132
V16
p135
tp136
a(V4*8
p137
V6
p138
tp139
a(g137
V3
p140
tp141
a(V4*8
p142
V12
p143
tp144
a(V4*8
p145
V12
p146
tp147
a(V4*8
p148
V2
p149
tp150
a(g148
V18
p151
tp152
a(g148
V48
p153
tp154
a(V4*8
p155
V12
p156
tp157
a(g155
V6
p158
tp159
a(V4*8
p160
V8
p161
tp162
a(g160
V8
p163
tp164
a(V4*8
p165
V56
p166
tp167
a(V4*8
p168
V12
p169
tp170
a(V4*8
p171
V20
p172
tp173
a(g171
V16
p174
tp175
a(V4*8
p176
V16
p177
tp178
a(g176
V4
p179
tp180
a(g176
V8
p181
tp182
a(V4*8
p183
V12
p184
tp185
a(V4*8
p186
V16
p187
tp188
a(V4*8
p189
V8
p190
tp191
a(g189
V16
p192
tp193
a(g189
V220
p194
tp195
a(g189
V110
p196
tp197
a(V4*8
p198
V8
p199
tp200
a(V4*8
p201
V12
p202
tp203
a(g201
V64
p204
tp205
a(V4*8
p206
V4,4,4
p207
tp208
a(g206
V4
p209
tp210
a(g206
V16
p211
tp212
a(V4*8
p213
V64
p214
tp215
a(V4*8
p216
V20
p217
tp218
a(V4*8
p219
V8
p220
tp221
a(V4*8
p222
V2
p223
tp224
a(V4*8
p225
V12
p226
tp227
a(g225
V6
p228
tp229
a(g225
V8
p230
tp231
a(g225
V2
p232
tp233
a(g225
V4
p234
tp235
a(g225
V3
p236
tp237
a(V4*8
p238
V12
p239
tp240
a(g225
V64
p241
tp242
a(V4*8
p243
V8
p244
tp245
a(g243
V12
p246
tp247
a(g137
V2
p248
tp249
a(g41
V16
p250
tp251
a(g41
V12
p252
tp253
a(g41
V64
p254
tp255
a(V4*8
p256
V16
p257
tp258
a(g256
V12
p259
tp260
a(V4*8
p261
V16
p262
tp263
a(V4*8
p264
V2
p265
tp266
a(V4*8
p267
V64
p268
tp269
a(V4*8
p270
V8
p271
tp272
a(g270
V16
p273
tp274
a(g261
V8
p275
tp276
a(g261
V12
p277
tp278
a(V4*8
p279
V2
p280
tp281
a(V4*8
p282
V16
p283
tp284
a(V4*8
p285
V3
p286
tp287
a(g285
V47
p288
tp289
a(g285
V2
p290
tp291
a(g285
V6
p292
tp293
a(g285
V3
p294
tp295
a(V4*8
p296
V2
p297
tp298
a(V4*8
p299
V8
p300
tp301
a(g299
V2
p302
tp303
a(V4*8
p304
V12
p305
tp306
a(g304
V64
p307
tp308
a(g304
V24
p309
tp310
a(V4*8
p311
V16215
p312
tp313
a(g225
V16
p314
tp315
a(V4*8
p316
V8
p317
tp318
a(V4*8
p319
V24
p320
tp321
a(V4*8
p322
V11
p323
tp324
a(g322
V12
p325
tp326
a(V4*8
p327
V8
p328
tp329
a(g256
V6
p330
tp331
a(g322
V8
p332
tp333
a(g322
V6
p334
tp335
a(V4*8
p336
V12
p337
tp338
a(V4*8
p339
V2
p340
tp341
a(g339
V16
p342
tp343
a(g339
V64
p344
tp345
a(V4*8
p346
V16
p347
tp348
a(g346
V4
p349
tp350
a(V4*8
p351
V16
p352
tp353
a(g351
V64
p354
tp355
a(g351
V80
p356
tp357
a(V4*8
p358
V8
p359
tp360
a(g322
V12
p361
tp362
a(g336
V48
p363
tp364
a(g336
V24
p365
tp366
a(g327
V4
p367
tp368
a(V4*8
p369
V3
p370
tp371
a(g369
V12
p372
tp373
a(g369
V8
p374
tp375
a(g327
V12
p376
tp377
a(g327
V5
p378
tp379
a(g327
V6
p380
tp381
a(g327
V7
p382
tp383
a(g327
V8
p384
tp385
a(g327
V9
p386
tp387
a(g327
V10
p388
tp389
a(g327
V11
p390
tp391
a(g327
V12
p392
tp393
a(g327
V13
p394
tp395
a(g327
V14
p396
tp397
a(g327
V15
p398
tp399
a(g327
V16
p400
tp401
a(g327
V17
p402
tp403
a(g327
V18
p404
tp405
a(g327
V19
p406
tp407
a(g327
V20
p408
tp409
a(g327
V21
p410
tp411
a(g327
V22
p412
tp413
a(g327
V23
p414
tp415
a(g327
V24
p416
tp417
a(g327
V25
p418
tp419
a(g327
V26
p420
tp421
a(g327
V27
p422
tp423
a(g327
V28
p424
tp425
a(g327
V29
p426
tp427
a(g327
V230
p428
tp429
a(g327
V30
p430
tp431
a(g327
V4
p432
tp433
a(g327
V3
p434
tp435
a(g327
V2
p436
tp437
a(g327
V1
p438
tp439
a(V4*8
p440
V8
p441
tp442
a(g440
V2
p443
tp444
a(g440
V16
p445
tp446
a(V4*8
p447
V12
p448
tp449
a(V4*8
p450
V1081
p451
tp452
a(g450
V2
p453
tp454
a(g322
V64
p455
tp456
a(V4*8
p457
V2
p458
tp459
a(g457
V3
p460
tp461
a(V4*8
p462
V4
p463
tp464
a(V4*8
p465
V12
p466
tp467
a(g465
V8
p468
tp469
a(V4*8
p470
V16
p471
tp472
a(g470
V2
p473
tp474
a(g470
V6
p475
tp476
a(V4*8
p477
V16
p478
tp479
a(g477
V64
p480
tp481
a(V4*8
p482
V2
p483
tp484
a(V4*8
p485
V13
p486
tp487
a(g485
V47
p488
tp489
a(g485
V36
p490
tp491
a(g485
V12
p492
tp493
a(g485
V8
p494
tp495
a(V4*8
p496
V2
p497
tp498
a(V4*8
p499
V2
p500
tp501
a(g499
V12
p502
tp503
a(g499
V8
p504
tp505
a(V4*8
p506
V16
p507
tp508
a(g506
V8
p509
tp510
a(V4*8
p511
V5
p512
tp513
a(g496
V23
p514
tp515
a(g511
V2
p516
tp517
a(g496
V3
p518
tp519
a(g511
V8
p520
tp521
a(g511
V12
p522
tp523
a(V4*8
p524
V48
p525
tp526
a(V4*8
p527
V12
p528
tp529
a(g527
V2
p530
tp531
a(g457
V1
p532
tp533
a(V4*8
p534
V48
p535
tp536
a(V4*8
p537
V12
p538
tp539
a(g537
V8
p540
tp541
a(g537
V3
p542
tp543
a(V4*8
p544
V12
p545
tp546
a(V4*8
p547
V8
p548
tp549
a(V4*8
p550
V2
p551
tp552
a(g550
V8
p553
tp554
a(V4*8
p555
V6
p556
tp557
a(g285
V2
p558
tp559
a(g285
V1
p560
tp561
a(g285
V4
p562
tp563
a(g285
V2
p564
tp565
a(g285
V4
p566
tp567
a(V4*8
p568
V2
p569
tp570
a(g568
V3
p571
tp572
a(g568
V1
p573
tp574
a(g568
V8
p575
tp576
a(g555
V3
p577
tp578
a(V4*8
p579
V2
p580
tp581
a(V4*8
p582
V2
p583
tp584
a(V4*8
p585
V3
p586
tp587
a(g585
V2
p588
tp589
a(g585
V4
p590
tp591
a(g585
V1
p592
tp593
a(g585
V5
p594
tp595
a(g585
V12
p596
tp597
a(g585
V8
p598
tp599
a(V4*8
p600
V64
p601
tp602
a(g585
V20
p603
tp604
a(g585
V16
p605
tp606
a(V4*8
p607
V12
p608
tp609
a(g607
V8
p610
tp611
a(V4*8
p612
V16
p613
tp614
a(V4*8
p615
V12
p616
tp617
a(V4*8
p618
V1225
p619
tp620
a(V4*8
p621
V8
p622
tp623
a(V4*8
p624
V1
p625
tp626
a(g624
V2
p627
tp628
a(g624
V3
p629
tp630
a(g624
V4
p631
tp632
a(g624
V5
p633
tp634
a(g624
V6
p635
tp636
a(g624
V7
p637
tp638
a(g624
V8
p639
tp640
a(g624
V9
p641
tp642
a(g624
V10
p643
tp644
a(g624
V11
p645
tp646
a(V4*8
p647
V8
p648
tp649
a(V4*8
p650
V10
p651
tp652
a(g650
V24
p653
tp654
a(g285
V6
p655
tp656
a(g285
V3
p657
tp658
a(g285
V1
p659
tp660
a(g285
V5
p661
tp662
a(g285
V12
p663
tp664
a(g285
V4
p665
tp666
a(V4*8
p667
V2
p668
tp669
a(g285
V2
p670
tp671
a(g667
V12
p672
tp673
a(V4*8
p674
V2
p675
tp676
a(g674
V8
p677
tp678
a(g674
V4
p679
tp680
a(g285
V12
p681
tp682
a(g674
V3
p683
tp684
asS"['R.0']"
p685
(lp686
(V4*8
p687
V4**3
p688
(lp689
(S'R.0'
p690
F4.0
V4
p691
g691
tp692
aVjguanzho
p693
(lp694
V2015-10-16 20:17:03
p695
tp696
a(g687
V4*(13!/(10!*3!))
p697
(lp698
(S'R.0'
p699
F4.0
g691
g691
tp700
aVjguanzho
p701
g694
V2015-10-17 02:54:48
p702
tp703
a(V4*8
p704
V4*C(8,2)
p705
(lp706
(S'R.0'
p707
F4.0
g691
g691
tp708
aVbeyounge
p709
(lp710
V2015-10-17 05:07:10
p711
tp712
a(V4*8
p713
VC(4,1) * C(47,1)
p714
(lp715
(S'R.0'
p716
F4.0
g691
VC(4,1)
p717
tp718
aVglcohen
p719
(lp720
V2015-10-17 23:44:54
p721
tp722
a(V4*8
p723
V4C(2,1)C(4,1)^2
p724
(lp725
(S'R.0'
p726
F4.0
g691
g691
tp727
aVt1tran
p728
(lp729
V2015-10-18 02:31:31
p730
tp731
a(V4*8
p732
V4^3
p733
(lp734
(S'R.0'
p735
F4.0
g691
g691
tp736
aVrlhagen
p737
(lp738
V2015-10-18 17:30:34
p739
tp740
a(g65
V4+4
p741
(lp742
(S'R.0'
p743
F4.0
g691
g691
tp744
aVgsrandha
p745
(lp746
V2015-10-18 23:29:34
p747
tp748
a(V4*8
p749
V4^2
p750
(lp751
(S'R.0'
p752
F4.0
g691
g691
tp753
aVhpc001
p754
(lp755
V2015-10-19 07:08:57
p756
tp757
a(g160
V4^3
p758
(lp759
(S'R.0'
p760
F4.0
g691
g691
tp761
aVmitopete
p762
(lp763
V2015-10-20 22:29:11
p764
tp765
a(g160
V4!
p766
(lp767
(S'R.0'
p768
F4.0
g691
g691
tp769
aVmitopete
p770
g763
V2015-10-20 22:34:48
p771
tp772
a(V4*8
p773
V4*16
p774
(lp775
(S'R.0'
p776
F4.0
g691
g691
tp777
aVksmurlo
p778
(lp779
V2015-10-20 23:42:31
p780
tp781
a(g206
V4!
p782
(lp783
(S'R.0'
p784
F4.0
g691
g691
tp785
aVvsosnovs
p786
(lp787
V2015-10-21 07:01:01
p788
tp789
a(g243
V4*4
p790
(lp791
(S'R.0'
p792
F4.0
g691
g691
tp793
aVsayao
p794
(lp795
V2015-10-21 16:30:47
p796
tp797
a(g243
V4^4
p798
(lp799
(S'R.0'
p800
F4.0
g691
g691
tp801
aVsayao
p802
g795
V2015-10-21 16:33:04
p803
tp804
a(g261
V4*4
p805
(lp806
(S'R.0'
p807
F4.0
g691
g691
tp808
aVdcastlem
p809
(lp810
V2015-10-21 18:27:24
p811
tp812
a(V4*8
p813
V4*4
p814
(lp815
(S'R.0'
p816
F4.0
g691
g691
tp817
aVs1powers
p818
(lp819
V2015-10-21 18:34:05
p820
tp821
a(g261
V4^3
p822
(lp823
(S'R.0'
p824
F4.0
g691
g691
tp825
aVdcastlem
p826
g810
V2015-10-21 19:16:34
p827
tp828
a(g264
V4*12
p829
(lp830
(S'R.0'
p831
F4.0
g691
g691
tp832
aVdcrume
p833
(lp834
V2015-10-21 19:34:04
p835
tp836
a(g264
V4^3
p837
(lp838
(S'R.0'
p839
F4.0
g691
g691
tp840
aVdcrume
p841
g834
V2015-10-21 19:35:14
p842
tp843
a(V4*8
p844
V4+C(46,2)
p845
(lp846
(S'R.0'
p847
F4.0
g691
g691
tp848
aVtpmach
p849
(lp850
V2015-10-21 20:32:36
p851
tp852
a(g844
V4+4*C(46,2)
p853
(lp854
(S'R.0'
p855
F4.0
g691
g691
tp856
aVtpmach
p857
g850
V2015-10-21 20:32:54
p858
tp859
a(g282
V4^3
p860
(lp861
(S'R.0'
p862
F4.0
g691
g691
tp863
aVc1wei
p864
(lp865
V2015-10-21 21:28:41
p866
tp867
a(g299
V4*4
p868
(lp869
(S'R.0'
p870
F4.0
g691
g691
tp871
aVyypan
p872
(lp873
V2015-10-21 22:11:27
p874
tp875
a(V4*8
p876
V4*3
p877
(lp878
(S'R.0'
p879
F4.0
g691
g691
tp880
aVdgunawan
p881
(lp882
V2015-10-22 01:18:29
p883
tp884
a(g844
V4C(43,1)
p885
(lp886
(S'R.0'
p887
F4.0
g691
g691
tp888
aVtpmach
p889
g850
V2015-10-22 01:22:14
p890
tp891
a(g844
V4+C(43,1)
p892
(lp893
(S'R.0'
p894
F4.0
g691
g691
tp895
aVtpmach
p896
g850
V2015-10-22 01:22:21
p897
tp898
a(g844
V4+2C(43,1)
p899
(lp900
(S'R.0'
p901
F4.0
g691
g691
tp902
aVtpmach
p903
g850
V2015-10-22 01:22:47
p904
tp905
a(V4*8
p906
V4*4
p907
(lp908
(S'R.0'
p909
F4.0
g691
g691
tp910
aVajabasa
p911
(lp912
V2015-10-22 02:06:51
p913
tp914
a(g327
V4 + 4
p915
(lp916
(S'R.0'
p917
F4.0
g691
g691
tp918
aVcsl030
p919
(lp920
V2015-10-22 02:21:45
p921
tp922
a(g470
V4*3
p923
(lp924
(S'R.0'
p925
F4.0
g691
g691
tp926
aVagarango
p927
(lp928
V2015-10-22 05:49:44
p929
tp930
a(V4*8
p931
V4^3
p932
(lp933
(S'R.0'
p934
F4.0
g691
g691
tp935
aVeaherman
p936
(lp937
V2015-10-22 06:32:25
p938
tp939
a(V4*8
p940
V4^2
p941
(lp942
(S'R.0'
p943
F4.0
g691
g691
tp944
aVlcardoso
p945
(lp946
V2015-10-22 20:52:43
p947
tp948
asS"['R.1']"
p949
(lp950
(g336
V8*4*4*8
p951
(lp952
(S'R.1'
p953
F8.0
V8
p954
g954
tp955
aVk4ma
p956
(lp957
V2015-10-22 02:36:31
p958
tp959
a(g346
V16+8
p960
(lp961
(S'R.1'
p962
F8.0
g954
g954
tp963
aVkalang
p964
(lp965
V2015-10-22 02:46:22
p966
tp967
asS'Fraction'
p968
(lp969
(g8
V3/47
p970
tp971
a(g22
V12/47
p972
tp973
a(g713
VC(4,1) / C(47,1)
p974
tp975
a(g713
V(C(4,1) / C(47,1)) * (C(4,2)/C(47,1))
p976
tp977
a(g713
V(C(4,1) / C(47,1)) * (C(8,1)/C(47,1))
p978
tp979
a(V4*8
p980
V4*(47!/(8!39!))
p981
tp982
a(g41
V1/38 + 1/37 + 1/36
p983
tp984
a(g41
V12/47
p985
tp986
a(g980
V4*(46!/(6!40!))
p987
tp988
a(g267
V3/4
p989
tp990
a(V4*8
p991
V36/C(52,5)
p992
tp993
a(V4*8
p994
V4 + 8/47
p995
tp996
a(V4*8
p997
V4*8/[C(52-5,2)]
p998
tp999
a(V4*8
p1000
V1-3/C(52-7,2)
p1001
tp1002
a(g351
V3/50
p1003
tp1004
a(V4*8
p1005
V4/47 * 8/46 * 2
p1006
tp1007
a(g1005
V12/47 * 11/46
p1008
tp1009
a(g1005
V12/47 * 11/46 * 2
p1010
tp1011
a(V4*8
p1012
V4/(52-5)*(4/(52-6)+4/(52-6))
p1013
tp1014
a(g1012
V(2*4/(52-5))*(4/(52-6)+4/(52-6))
p1015
tp1016
a(g1012
V(2*4^2/C(52-5,2))
p1017
tp1018
a(V4*8
p1019
V(C(4,1)^2*C(13,1)^2) /C(48,2)
p1020
tp1021
a(g1019
V(C(4,1)^3*C(13,1)^3) /C(48,2)
p1022
tp1023
a(V4*8
p1024
V4/47+8/47
p1025
tp1026
a(g1024
V4/47+8/46
p1027
tp1028
a(g1024
V(4/47)*(8/46)
p1029
tp1030
a(g773
V(16/47*4/46)
p1031
tp1032
a(g773
V(16/47)*(4/46)
p1033
tp1034
a(g773
V(16/47)*(4/46)/2
p1035
tp1036
a(g773
V(4/47)*(4/46)/2
p1037
tp1038
a(g183
V(11/47)(10/46)
p1039
tp1040
a(g183
V(4/47)(8/46)
p1041
tp1042
a(g183
V((4/47)(8/46))/2
p1043
tp1044
a(g189
V1/50
p1045
tp1046
a(g189
V(1/50)*(2/48)
p1047
tp1048
a(g876
V(4 * 4 * 4) / (52 - 5)
p1049
tp1050
a(g876
V(3*4)/ (52 - 5)
p1051
tp1052
a(g876
V(4/52)(8/51)
p1053
tp1054
a(g876
V(4/52)(8/52)
p1055
tp1056
a(g876
V(12!/52)
p1057
tp1058
a(g206
V(3/47)*(8/46)
p1059
tp1060
a(V4*8
p1061
V(4*47!)/(8!*39!)
p1062
tp1063
a(g1061
V(4*46!)/(8!*39!)
p1064
tp1065
a(g261
V12/47
p1066
tp1067
a(V4*8
p1068
V(47!/(43!4!))+(47!/(39!8!))
p1069
tp1070
a(V4*8
p1071
V0.0908623702333231*0.1817247404666461
p1072
tp1073
a(V4*8
p1074
V0.02413273
p1075
tp1076
a(g369
V0.2590
p1077
tp1078
a(g369
V0.0148
p1079
tp1080
a(g369
V0.0926
p1081
tp1082
a(V4*8
p1083
V4/47*8/46
p1084
tp1085
a(g1083
V(4/47)*(8/46)
p1086
tp1087
a(g1083
V(4/52)*(8/52)
p1088
tp1089
a(g1083
V1/52*4/52
p1090
tp1091
a(g1083
V(1/52)*(4/52)
p1092
tp1093
a(g1083
V(4/52)*(8/52)
p1094
tp1095
a(g1083
V(4/52)+(8/52)
p1096
tp1097
a(V4*8
p1098
V2/(47*47)
p1099
tp1100
a(g1098
V2/(47*46)
p1101
tp1102
a(g1098
V32/(47*46)
p1103
tp1104
a(V4*8
p1105
V2*(16/(47*46))
p1106
tp1107
a(g496
V3/C(47, 3)
p1108
tp1109
a(V4*8
p1110
V(4*4*4)/(47!/(2!*45!))
p1111
tp1112
a(g1110
V(4) + ((4*4)/(46!/45!))
p1113
tp1114
a(g1110
V4/47 + (4*4)/46
p1115
tp1116
a(g1110
V4/47 + (4+4)/46
p1117
tp1118
a(g547
V11/48
p1119
tp1120
a(g547
V11/52
p1121
tp1122
a(g547
V11/51
p1123
tp1124
a(g547
V11/50
p1125
tp1126
a(g547
V11/49
p1127
tp1128
a(g547
V8/44
p1129
tp1130
a(V4*8
p1131
VC(47,4)/P(47,3)
p1132
tp1133
a(g1131
VC(47,4)/P(47,3)+C(43,8)/P(43,8)
p1134
tp1135
a(g1131
VC(47,4)/P(47,3)+C(43,8)/P(43,8)+C(47,8)/P(47,8)
p1136
tp1137
a(g1131
VC(47,4)/P(43,4)
p1138
tp1139
a(g624
V32/C(47,2)
p1140
tp1141
a(g285
V(10 * (4^5 - 4)/C(52,5))
p1142
tp1143
asS"['R.0', 'R.1']"
p1144
(lp1145
(V4*8
p1146
VC(4,1)+C(8,1)
p1147
(lp1148
(S'R.0'
p1149
F4.0
g691
VC(4,1)
p1150
tp1151
a(S'R.1'
p1152
F8.0
g954
VC(8,1)
p1153
tp1154
aVmbl003
p1155
(lp1156
V2015-10-18 20:30:02
p1157
tp1158
a(g76
V4+8
p1159
(lp1160
(S'R.0'
p1161
F4.0
g691
g691
tp1162
a(S'R.1'
p1163
F8.0
g954
g954
tp1164
aVthwan
p1165
(lp1166
V2015-10-18 23:48:47
p1167
tp1168
a(g108
V4 + C(8,1)
p1169
(lp1170
(S'R.0'
p1171
F4.0
g691
g691
tp1172
a(S'R.1'
p1173
F8.0
g954
VC(8,1)
p1174
tp1175
aVany027
p1176
(lp1177
V2015-10-19 19:42:42
p1178
tp1179
a(g108
V4 + P(8,1)
p1180
(lp1181
(S'R.0'
p1182
F4.0
g691
g691
tp1183
a(S'R.1'
p1184
F8.0
g954
VP(8,1)
p1185
tp1186
aVany027
p1187
g1177
V2015-10-19 19:42:51
p1188
tp1189
a(g994
V4+8
p1190
(lp1191
(S'R.0'
p1192
F4.0
g691
g691
tp1193
a(S'R.1'
p1194
F8.0
g954
g954
tp1195
aVstarinia
p1196
(lp1197
V2015-10-20 00:57:39
p1198
tp1199
a(g994
V4 + 8
p1200
(lp1201
(S'R.0'
p1202
F4.0
g691
g691
tp1203
a(S'R.1'
p1204
F8.0
g954
g954
tp1205
aVstarinia
p1206
g1197
V2015-10-20 01:00:21
p1207
tp1208
a(V4*8
p1209
VC(4, 1) + C(8, 1)
p1210
(lp1211
(S'R.0'
p1212
F4.0
g691
VC(4, 1)
p1213
tp1214
a(S'R.1'
p1215
F8.0
g954
VC(8, 1)
p1216
tp1217
aVedcole
p1218
(lp1219
V2015-10-21 18:25:33
p1220
tp1221
a(V4*8
p1222
V4 + 8
p1223
(lp1224
(S'R.0'
p1225
F4.0
g691
g691
tp1226
a(S'R.1'
p1227
F8.0
g954
g954
tp1228
aVcstringh
p1229
(lp1230
V2015-10-21 22:17:37
p1231
tp1232
a(g844
V4+C(8,1)
p1233
(lp1234
(S'R.0'
p1235
F4.0
g691
g691
tp1236
a(S'R.1'
p1237
F8.0
g954
VC(8,1)
p1238
tp1239
aVtpmach
p1240
g850
V2015-10-22 01:25:40
p1241
tp1242
assV2
p1243
g2
(g3
tp1244
Rp1245
g6
(lp1246
(V4*8/[C(52-5,2)]
p1247
V93
p1248
tp1249
a(V4*8/[C(52-5,2)]
p1250
V16
p1251
tp1252
a(g1250
V56
p1253
tp1254
a(V4*8/[C(52-5,2)]
p1255
V47
p1256
tp1257
a(g1255
V47
p1258
tp1259
a(g1255
V1
p1260
tp1261
a(g1255
V47
p1262
tp1263
a(V4*8/[C(52-5,2)]
p1264
V8
p1265
tp1266
a(V4*8/[C(52-5,2)]
p1267
V1081
p1268
tp1269
a(g1267
V903
p1270
tp1271
asS"['R.0.0']"
p1272
(lp1273
(V4*8/[C(52-5,2)]
p1274
V(4/52)^2
p1275
(lp1276
(S'R.0.0'
p1277
F4.0
g691
g691
tp1278
aVj5phung
p1279
(lp1280
V2015-10-16 17:11:59
p1281
tp1282
a(g1274
V(4/47)*(8/46)
p1283
(lp1284
(S'R.0.0'
p1285
F4.0
g691
g691
tp1286
aVj5phung
p1287
g1280
V2015-10-16 17:26:45
p1288
tp1289
a(V4*8/[C(52-5,2)]
p1290
V4*(13!/(10!*3!)) / (47!/(44!*3!))
p1291
(lp1292
(S'R.0.0'
p1293
F4.0
g691
g691
tp1294
aVjguanzho
p1295
g694
V2015-10-17 02:54:48
p1296
tp1297
a(g1290
V(4/48)*(8/47)
p1298
(lp1299
(S'R.0.0'
p1300
F4.0
g691
g691
tp1301
aVjguanzho
p1302
g694
V2015-10-17 03:05:19
p1303
tp1304
a(g1290
V4/47 + 8/47
p1305
(lp1306
(S'R.0.0'
p1307
F4.0
g691
g691
tp1308
aVjguanzho
p1309
g694
V2015-10-17 03:15:35
p1310
tp1311
a(g1290
V4/47 + 8/46
p1312
(lp1313
(S'R.0.0'
p1314
F4.0
g691
g691
tp1315
aVjguanzho
p1316
g694
V2015-10-17 03:15:39
p1317
tp1318
a(V4*8/[C(52-5,2)]
p1319
V(4/47) * (8/47)
p1320
(lp1321
(S'R.0.0'
p1322
F4.0
g691
g691
tp1323
aVglcohen
p1324
g720
V2015-10-18 00:28:28
p1325
tp1326
a(g1319
V(4/47) * (8/46)
p1327
(lp1328
(S'R.0.0'
p1329
F4.0
g691
g691
tp1330
aVglcohen
p1331
g720
V2015-10-18 00:28:35
p1332
tp1333
a(V4*8/[C(52-5,2)]
p1334
V(4/(52-5)*(4/(52-6)+4/(52-7)))
p1335
(lp1336
(S'R.0.0'
p1337
F4.0
g691
g691
tp1338
aVhaw081
p1339
(lp1340
V2015-10-18 06:50:12
p1341
tp1342
a(V4*8/[C(52-5,2)]
p1343
V(4/47)*(8/43)
p1344
(lp1345
(S'R.0.0'
p1346
F4.0
g691
g691
tp1347
aVyil035
p1348
(lp1349
V2015-10-19 04:25:03
p1350
tp1351
a(V4*8/[C(52-5,2)]
p1352
V(4/47)*(8/46)
p1353
(lp1354
(S'R.0.0'
p1355
F4.0
g691
g691
tp1356
aVabasu
p1357
(lp1358
V2015-10-19 05:18:07
p1359
tp1360
a(g1352
V(4/47)*(8/46)
p1361
(lp1362
(S'R.0.0'
p1363
F4.0
g691
g691
tp1364
aVabasu
p1365
g1358
V2015-10-19 05:24:45
p1366
tp1367
a(g1343
V(4/47)*(8/46)
p1368
(lp1369
(S'R.0.0'
p1370
F4.0
g691
g691
tp1371
aVyil035
p1372
g1349
V2015-10-19 05:59:56
p1373
tp1374
a(V4*8/[C(52-5,2)]
p1375
V(4/47)*(8/46)
p1376
(lp1377
(S'R.0.0'
p1378
F4.0
g691
g691
tp1379
aVachinn
p1380
(lp1381
V2015-10-19 21:35:14
p1382
tp1383
a(V4*8/[C(52-5,2)]
p1384
V(4/47)*(8/46)
p1385
(lp1386
(S'R.0.0'
p1387
F4.0
g691
g691
tp1388
aVspw006
p1389
(lp1390
V2015-10-20 20:19:24
p1391
tp1392
a(V4*8/[C(52-5,2)]
p1393
V(4/47)*(8/46)
p1394
(lp1395
(S'R.0.0'
p1396
F4.0
g691
g691
tp1397
aVrsmurlo
p1398
(lp1399
V2015-10-20 20:35:14
p1400
tp1401
a(g1393
V(4/47)+(8/46)
p1402
(lp1403
(S'R.0.0'
p1404
F4.0
g691
g691
tp1405
aVrsmurlo
p1406
g1399
V2015-10-20 20:38:42
p1407
tp1408
a(g1393
V(4/47)*(8/46)
p1409
(lp1410
(S'R.0.0'
p1411
F4.0
g691
g691
tp1412
aVrsmurlo
p1413
g1399
V2015-10-20 20:38:52
p1414
tp1415
a(V4*8/[C(52-5,2)]
p1416
V4/47 8/46
p1417
(lp1418
(S'R.0.0'
p1419
F4.0
g691
g691
tp1420
aVjtfrankl
p1421
(lp1422
V2015-10-20 23:22:25
p1423
tp1424
a(g1416
V(4/47) (8/46)
p1425
(lp1426
(S'R.0.0'
p1427
F4.0
g691
g691
tp1428
aVjtfrankl
p1429
g1422
V2015-10-20 23:23:28
p1430
tp1431
a(V4*8/[C(52-5,2)]
p1432
V(4/47)*(8/46)
p1433
(lp1434
(S'R.0.0'
p1435
F4.0
g691
g691
tp1436
aVdjk006
p1437
(lp1438
V2015-10-20 23:50:25
p1439
tp1440
a(g1432
V4/47 * (8/46)
p1441
(lp1442
(S'R.0.0'
p1443
F4.0
g691
g691
tp1444
aVdjk006
p1445
g1438
V2015-10-20 23:58:06
p1446
tp1447
a(V4*8/[C(52-5,2)]
p1448
V(4/47)+(8/47)
p1449
(lp1450
(S'R.0.0'
p1451
F4.0
g691
g691
tp1452
aVmtrafeca
p1453
(lp1454
V2015-10-21 05:17:22
p1455
tp1456
a(g1448
V(4/47)(8/47)
p1457
(lp1458
(S'R.0.0'
p1459
F4.0
g691
g691
tp1460
aVmtrafeca
p1461
g1454
V2015-10-21 05:17:47
p1462
tp1463
a(g1448
V(4/47)(8/46)
p1464
(lp1465
(S'R.0.0'
p1466
F4.0
g691
g691
tp1467
aVmtrafeca
p1468
g1454
V2015-10-21 05:17:58
p1469
tp1470
a(g1448
V(4/47)+(8/46)
p1471
(lp1472
(S'R.0.0'
p1473
F4.0
g691
g691
tp1474
aVmtrafeca
p1475
g1454
V2015-10-21 05:18:03
p1476
tp1477
a(V4*8/[C(52-5,2)]
p1478
V(4/47)*(8/46)
p1479
(lp1480
(S'R.0.0'
p1481
F4.0
g691
g691
tp1482
aVvsosnovs
p1483
g787
V2015-10-21 07:06:50
p1484
tp1485
a(g1478
V(4/47)*(8/47)
p1486
(lp1487
(S'R.0.0'
p1488
F4.0
g691
g691
tp1489
aVvsosnovs
p1490
g787
V2015-10-21 07:07:13
p1491
tp1492
a(V4*8/[C(52-5,2)]
p1493
V4/47 + 8/43
p1494
(lp1495
(S'R.0.0'
p1496
F4.0
g691
g691
tp1497
aVcstringh
p1498
g1230
V2015-10-21 22:49:07
p1499
tp1500
a(g1493
V(4/47) * (8/43)
p1501
(lp1502
(S'R.0.0'
p1503
F4.0
g691
g691
tp1504
aVcstringh
p1505
g1230
V2015-10-21 22:49:34
p1506
tp1507
a(g1493
V(4/47) * (8/46)
p1508
(lp1509
(S'R.0.0'
p1510
F4.0
g691
g691
tp1511
aVcstringh
p1512
g1230
V2015-10-21 22:49:46
p1513
tp1514
a(g1493
V(4/46) * (8/45)
p1515
(lp1516
(S'R.0.0'
p1517
F4.0
g691
g691
tp1518
aVcstringh
p1519
g1230
V2015-10-21 22:50:30
p1520
tp1521
a(g1493
V(4/46) +  (8/45)
p1522
(lp1523
(S'R.0.0'
p1524
F4.0
g691
g691
tp1525
aVcstringh
p1526
g1230
V2015-10-21 23:06:29
p1527
tp1528
a(g1493
V(4/47) + (8/46)
p1529
(lp1530
(S'R.0.0'
p1531
F4.0
g691
g691
tp1532
aVcstringh
p1533
g1230
V2015-10-21 23:06:37
p1534
tp1535
a(g1493
V(4/47) * (8/46)
p1536
(lp1537
(S'R.0.0'
p1538
F4.0
g691
g691
tp1539
aVcstringh
p1540
g1230
V2015-10-21 23:06:43
p1541
tp1542
a(g1493
V(4/47) + (8/47)
p1543
(lp1544
(S'R.0.0'
p1545
F4.0
g691
g691
tp1546
aVcstringh
p1547
g1230
V2015-10-21 23:07:11
p1548
tp1549
a(g1493
V(4/47) * (8/47)
p1550
(lp1551
(S'R.0.0'
p1552
F4.0
g691
g691
tp1553
aVcstringh
p1554
g1230
V2015-10-21 23:07:19
p1555
tp1556
a(g1493
V(4/47) + (4/47)
p1557
(lp1558
(S'R.0.0'
p1559
F4.0
g691
g691
tp1560
aVcstringh
p1561
g1230
V2015-10-21 23:12:38
p1562
tp1563
a(g1493
V(4/47) + (8/47)
p1564
(lp1565
(S'R.0.0'
p1566
F4.0
g691
g691
tp1567
aVcstringh
p1568
g1230
V2015-10-21 23:12:45
p1569
tp1570
a(g1493
V(4/47) + (8/44)
p1571
(lp1572
(S'R.0.0'
p1573
F4.0
g691
g691
tp1574
aVcstringh
p1575
g1230
V2015-10-21 23:12:55
p1576
tp1577
a(g1493
V(4/47) * (8/44)
p1578
(lp1579
(S'R.0.0'
p1580
F4.0
g691
g691
tp1581
aVcstringh
p1582
g1230
V2015-10-21 23:13:06
p1583
tp1584
a(g1493
V(4/47) * (8/45)
p1585
(lp1586
(S'R.0.0'
p1587
F4.0
g691
g691
tp1588
aVcstringh
p1589
g1230
V2015-10-21 23:13:13
p1590
tp1591
a(g1493
V(4/47) * (8/46)
p1592
(lp1593
(S'R.0.0'
p1594
F4.0
g691
g691
tp1595
aVcstringh
p1596
g1230
V2015-10-21 23:13:17
p1597
tp1598
a(g1493
V((4*4)/47)
p1599
(lp1600
(S'R.0.0'
p1601
F4.0
g691
g691
tp1602
aVcstringh
p1603
g1230
V2015-10-21 23:13:52
p1604
tp1605
a(V4*8/[C(52-5,2)]
p1606
V(4/47)(8/46)
p1607
(lp1608
(S'R.0.0'
p1609
F4.0
g691
g691
tp1610
aVnnh002
p1611
(lp1612
V2015-10-21 23:38:58
p1613
tp1614
a(V4*8/[C(52-5,2)]
p1615
V(4/47)*(8/46)
p1616
(lp1617
(S'R.0.0'
p1618
F4.0
g691
g691
tp1619
aVhsc052
p1620
(lp1621
V2015-10-22 02:54:02
p1622
tp1623
a(V4*8/[C(52-5,2)]
p1624
V(4/47)(8/46)
p1625
(lp1626
(S'R.0.0'
p1627
F4.0
g691
g691
tp1628
aVctroncos
p1629
(lp1630
V2015-10-22 04:58:02
p1631
tp1632
a(g1624
V(4/47)(8/47)
p1633
(lp1634
(S'R.0.0'
p1635
F4.0
g691
g691
tp1636
aVctroncos
p1637
g1630
V2015-10-22 05:20:27
p1638
tp1639
a(g1624
V4/47 + 8/47
p1640
(lp1641
(S'R.0.0'
p1642
F4.0
g691
g691
tp1643
aVctroncos
p1644
g1630
V2015-10-22 05:22:10
p1645
tp1646
a(V4*8/[C(52-5,2)]
p1647
V(4/47)(8/46)
p1648
(lp1649
(S'R.0.0'
p1650
F4.0
g691
g691
tp1651
aVdlt009
p1652
(lp1653
V2015-10-22 06:04:21
p1654
tp1655
a(V4*8/[C(52-5,2)]
p1656
V(4/(52-5))*(8/(55-6))
p1657
(lp1658
(S'R.0.0'
p1659
F4.0
g691
g691
tp1660
aVdtea
p1661
(lp1662
V2015-10-22 22:09:55
p1663
tp1664
a(g1656
V(4/(52-5))*(8/(52-6))
p1665
(lp1666
(S'R.0.0'
p1667
F4.0
g691
g691
tp1668
aVdtea
p1669
g1662
V2015-10-22 22:12:42
p1670
tp1671
a(g1656
V(4/(52-5))*(8/(52-5))
p1672
(lp1673
(S'R.0.0'
p1674
F4.0
g691
g691
tp1675
aVdtea
p1676
g1662
V2015-10-22 22:12:48
p1677
tp1678
asS"['R.0', 'R.1.0.0']"
p1679
(lp1680
(V4*8/[C(52-5,2)]
p1681
V32/ (C(52,5) - 5)
p1682
(lp1683
(S'R.0'
p1684
F32.0
V4*8
p1685
V32
p1686
tp1687
a(S'R.1.0.0'
p1688
F52.0
V52
p1689
V52
p1690
tp1691
aVachava
p1692
(lp1693
V2015-10-20 07:01:46
p1694
tp1695
a(g1681
V32/ (C(52,2) - 5)
p1696
(lp1697
(S'R.0'
p1698
F32.0
V4*8
p1699
V32
p1700
tp1701
a(S'R.1.0.0'
p1702
F52.0
V52
p1703
V52
p1704
tp1705
aVachava
p1706
g1693
V2015-10-20 07:02:16
p1707
tp1708
a(g1681
V32/ (C(52,2) - C(50,2))
p1709
(lp1710
(S'R.0'
p1711
F32.0
V4*8
p1712
V32
p1713
tp1714
a(S'R.1.0.0'
p1715
F52.0
V52
p1716
V52
p1717
tp1718
aVachava
p1719
g1693
V2015-10-20 07:06:24
p1720
tp1721
a(V4*8/[C(52-5,2)]
p1722
V(4*8)/(52!/(5!*47!))
p1723
(lp1724
(S'R.0'
p1725
F32.0
V4*8
p1726
V4*8
p1727
tp1728
a(S'R.1.0.0'
p1729
F52.0
V52
p1730
V52
p1731
tp1732
aVyos017
p1733
(lp1734
V2015-10-21 07:33:56
p1735
tp1736
a(g1722
V(4*8)/(52!/47!)
p1737
(lp1738
(S'R.0'
p1739
F32.0
V4*8
p1740
V4*8
p1741
tp1742
a(S'R.1.0.0'
p1743
F52.0
V52
p1744
V52
p1745
tp1746
aVyos017
p1747
g1734
V2015-10-21 07:35:08
p1748
tp1749
asS"['R.1.0']"
p1750
(lp1751
(V4*8/[C(52-5,2)]
p1752
V16/(47*46)
p1753
(lp1754
(S'R.1.0'
p1755
F47.0
V52-5
p1756
V47
p1757
tp1758
aVkquong
p1759
(lp1760
V2015-10-17 23:29:29
p1761
tp1762
a(V4*8/[C(52-5,2)]
p1763
V256/C(47,3)
p1764
(lp1765
(S'R.1.0'
p1766
F47.0
V52-5
p1767
V47
p1768
tp1769
aVr9jiang
p1770
(lp1771
V2015-10-18 21:13:50
p1772
tp1773
a(V4*8/[C(52-5,2)]
p1774
V144/(47*46)
p1775
(lp1776
(S'R.1.0'
p1777
F47.0
V52-5
p1778
V47
p1779
tp1780
aVaakumar
p1781
(lp1782
V2015-10-19 05:37:24
p1783
tp1784
a(g1352
V((12/47)(12/46))/(47*46)
p1785
(lp1786
(S'R.1.0'
p1787
F47.0
V52-5
p1788
V47
p1789
tp1790
aVabasu
p1791
g1358
V2015-10-19 05:37:25
p1792
tp1793
a(V4*8/[C(52-5,2)]
p1794
V16/(47*46)
p1795
(lp1796
(S'R.1.0'
p1797
F47.0
V52-5
p1798
V47
p1799
tp1800
aVdcgriffi
p1801
(lp1802
V2015-10-21 01:42:47
p1803
tp1804
a(V4*8/[C(52-5,2)]
p1805
V4/C((52-5),4)
p1806
(lp1807
(S'R.1.0'
p1808
F47.0
V52-5
p1809
V52-5
p1810
tp1811
aVskodigal
p1812
(lp1813
V2015-10-22 00:45:09
p1814
tp1815
a(g1805
V4/C(47,4)
p1816
(lp1817
(S'R.1.0'
p1818
F47.0
V52-5
p1819
V47
p1820
tp1821
aVskodigal
p1822
g1813
V2015-10-22 00:50:45
p1823
tp1824
a(g1478
VC(32,2)/C(47,3)
p1825
(lp1826
(S'R.1.0'
p1827
F47.0
V52-5
p1828
V47
p1829
tp1830
aVvsosnovs
p1831
g787
V2015-10-22 15:55:53
p1832
tp1833
a(V4*8/[C(52-5,2)]
p1834
V16/[47*46]
p1835
(lp1836
(S'R.1.0'
p1837
F47.0
V52-5
p1838
V47
p1839
tp1840
aVavasavad
p1841
(lp1842
V2015-10-22 19:32:32
p1843
tp1844
asS"['R.0.0', 'R.0.1', 'R.1']"
p1845
(lp1846
(V4*8/[C(52-5,2)]
p1847
V(C(4,1)+C(8,1))/(C(52-5,2))
p1848
(lp1849
(S'R.0.0'
p1850
F4.0
g691
VC(4,1)
p1851
tp1852
a(S'R.0.1'
p1853
F8.0
g954
VC(8,1)
p1854
tp1855
a(S'R.1'
p1856
I1081
VC(52-5,2)
p1857
VC(52-5,2)
p1858
tp1859
aVmbl003
p1860
g1156
V2015-10-18 20:35:02
p1861
tp1862
asS"['R.1']"
p1863
(lp1864
(V4*8/[C(52-5,2)]
p1865
V(3*4^2)/C(52-5,2)
p1866
(lp1867
(S'R.1'
p1868
I1081
VC(52-5,2)
p1869
VC(52-5,2)
p1870
tp1871
aVjcl084
p1872
(lp1873
V2015-10-20 02:57:58
p1874
tp1875
a(g1247
VC(32,2)/C(47,2)
p1876
(lp1877
(S'R.1'
p1878
I1081
VC(52-5,2)
p1879
VC(47,2)
p1880
tp1881
aVdsmonaha
p1882
(lp1883
V2015-10-20 16:55:55
p1884
tp1885
a(V4*8/[C(52-5,2)]
p1886
V12/(47!/(2!45!))
p1887
(lp1888
(S'R.1'
p1889
I1081
VC(52-5,2)
p1890
V47!/(2!45!)
p1891
tp1892
aVccn001
p1893
(lp1894
V2015-10-20 20:18:59
p1895
tp1896
a(V4*8/[C(52-5,2)]
p1897
V1/C(47,2)
p1898
(lp1899
(S'R.1'
p1900
I1081
VC(52-5,2)
p1901
VC(47,2)
p1902
tp1903
aVthk002
p1904
(lp1905
V2015-10-20 22:47:27
p1906
tp1907
a(g1897
V3/C(47,2)
p1908
(lp1909
(S'R.1'
p1910
I1081
VC(52-5,2)
p1911
VC(47,2)
p1912
tp1913
aVthk002
p1914
g1905
V2015-10-20 22:47:31
p1915
tp1916
a(V4*8/[C(52-5,2)]
p1917
V12/[47!/[2!45!]]
p1918
(lp1919
(S'R.1'
p1920
I1081
VC(52-5,2)
p1921
V47!/[2!45!]
p1922
tp1923
aVl8ngo
p1924
(lp1925
V2015-10-21 17:52:14
p1926
tp1927
a(V4*8/[C(52-5,2)]
p1928
V16/C(52-5, 2)
p1929
(lp1930
(S'R.1'
p1931
I1081
VC(52-5,2)
p1932
VC(52-5, 2)
p1933
tp1934
aVhmnaing
p1935
(lp1936
V2015-10-21 18:06:35
p1937
tp1938
a(V4*8/[C(52-5,2)]
p1939
V64/C(47,2)
p1940
(lp1941
(S'R.1'
p1942
I1081
VC(52-5,2)
p1943
VC(47,2)
p1944
tp1945
aVdan029
p1946
(lp1947
V2015-10-22 00:14:23
p1948
tp1949
a(g1805
V2/C((52-5),2)
p1950
(lp1951
(S'R.1'
p1952
I1081
VC(52-5,2)
p1953
VC((52-5),2)
p1954
tp1955
aVskodigal
p1956
g1813
V2015-10-22 00:48:20
p1957
tp1958
a(g1805
V2/C(47,2)
p1959
(lp1960
(S'R.1'
p1961
I1081
VC(52-5,2)
p1962
VC(47,2)
p1963
tp1964
aVskodigal
p1965
g1813
V2015-10-22 00:51:01
p1966
tp1967
a(g1264
V2C(52-5,2)
p1968
(lp1969
(S'R.1'
p1970
I1081
VC(52-5,2)
p1971
VC(52-5,2)
p1972
tp1973
aVtpmach
p1974
g850
V2015-10-22 01:31:01
p1975
tp1976
a(g1647
V[C(32,2)-C(28,2)]/[C(47,2)]
p1977
(lp1978
(S'R.1'
p1979
I1081
VC(52-5,2)
p1980
VC(47,2)
p1981
tp1982
aVdlt009
p1983
g1653
V2015-10-22 07:15:32
p1984
tp1985
a(g1647
V[C(47,2)-C(32,2)]/[C(47,2)]
p1986
(lp1987
(S'R.1'
p1988
I1081
VC(52-5,2)
p1989
VC(47,2)
p1990
tp1991
aVdlt009
p1992
g1653
V2015-10-22 07:17:18
p1993
tp1994
a(V4*8/[C(52-5,2)]
p1995
V(2/C((52-5),2))
p1996
(lp1997
(S'R.1'
p1998
I1081
VC(52-5,2)
p1999
VC((52-5),2)
p2000
tp2001
aVjjm019
p2002
(lp2003
V2015-10-22 07:42:30
p2004
tp2005
a(g1647
V[C(32,2)]/[C(47,2)]
p2006
(lp2007
(S'R.1'
p2008
I1081
VC(52-5,2)
p2009
VC(47,2)
p2010
tp2011
aVdlt009
p2012
g1653
V2015-10-22 07:53:46
p2013
tp2014
a(g1647
V[C(47,2)-C(32,2)]/[C(47,2)]
p2015
(lp2016
(S'R.1'
p2017
I1081
VC(52-5,2)
p2018
VC(47,2)
p2019
tp2020
aVdlt009
p2021
g1653
V2015-10-22 07:54:05
p2022
tp2023
a(g1647
V[C(47,2)-C(15,2)]/[C(47,2)]
p2024
(lp2025
(S'R.1'
p2026
I1081
VC(52-5,2)
p2027
VC(47,2)
p2028
tp2029
aVdlt009
p2030
g1653
V2015-10-22 07:59:28
p2031
tp2032
a(g1647
V[C(32,2)]/[C(47,2)]
p2033
(lp2034
(S'R.1'
p2035
I1081
VC(52-5,2)
p2036
VC(47,2)
p2037
tp2038
aVdlt009
p2039
g1653
V2015-10-22 08:01:20
p2040
tp2041
a(V4*8/[C(52-5,2)]
p2042
V23/(47!/(45!2!))
p2043
(lp2044
(S'R.1'
p2045
I1081
VC(52-5,2)
p2046
V47!/(45!2!)
p2047
tp2048
aVcfgutier
p2049
(lp2050
V2015-10-22 08:23:02
p2051
tp2052
a(V4*8/[C(52-5,2)]
p2053
V2/C(47, 2)
p2054
(lp2055
(S'R.1'
p2056
I1081
VC(52-5,2)
p2057
VC(47, 2)
p2058
tp2059
aVhmshah
p2060
(lp2061
V2015-10-22 09:27:22
p2062
tp2063
a(g2053
V3/C(47, 2)
p2064
(lp2065
(S'R.1'
p2066
I1081
VC(52-5,2)
p2067
VC(47, 2)
p2068
tp2069
aVhmshah
p2070
g2061
V2015-10-22 09:27:26
p2071
tp2072
a(V4*8/[C(52-5,2)]
p2073
V(3*4^2)/(C(52-5,2))
p2074
(lp2075
(S'R.1'
p2076
I1081
VC(52-5,2)
p2077
VC(52-5,2)
p2078
tp2079
aVr1gu
p2080
(lp2081
V2015-10-22 10:51:52
p2082
tp2083
a(V4*8/[C(52-5,2)]
p2084
V2/(47!/(2!*45!))
p2085
(lp2086
(S'R.1'
p2087
I1081
VC(52-5,2)
p2088
V47!/(2!*45!)
p2089
tp2090
aVdlgoldbe
p2091
(lp2092
V2015-10-22 15:34:23
p2093
tp2094
a(g1478
VC(32,2)/C(47,2)
p2095
(lp2096
(S'R.1'
p2097
I1081
VC(52-5,2)
p2098
VC(47,2)
p2099
tp2100
aVvsosnovs
p2101
g787
V2015-10-22 15:56:04
p2102
tp2103
a(g1478
V2/(C(47,2))
p2104
(lp2105
(S'R.1'
p2106
I1081
VC(52-5,2)
p2107
VC(47,2)
p2108
tp2109
aVvsosnovs
p2110
g787
V2015-10-22 16:06:26
p2111
tp2112
a(g1478
V2/(C(47,2))
p2113
(lp2114
(S'R.1'
p2115
I1081
VC(52-5,2)
p2116
VC(47,2)
p2117
tp2118
aVvsosnovs
p2119
g787
V2015-10-22 16:06:46
p2120
tp2121
a(g1478
VC(52,5)-(C(47,2))
p2122
(lp2123
(S'R.1'
p2124
I1081
VC(52-5,2)
p2125
VC(47,2)
p2126
tp2127
aVvsosnovs
p2128
g787
V2015-10-22 16:07:17
p2129
tp2130
a(V4*8/[C(52-5,2)]
p2131
VC(12,2)/C(47,2)
p2132
(lp2133
(S'R.1'
p2134
I1081
VC(52-5,2)
p2135
VC(47,2)
p2136
tp2137
aVj6quach
p2138
(lp2139
V2015-10-22 17:41:58
p2140
tp2141
a(g2131
V2/C(47,2)
p2142
(lp2143
(S'R.1'
p2144
I1081
VC(52-5,2)
p2145
VC(47,2)
p2146
tp2147
aVj6quach
p2148
g2139
V2015-10-22 17:44:43
p2149
tp2150
a(g2131
V8/C(47,2)
p2151
(lp2152
(S'R.1'
p2153
I1081
VC(52-5,2)
p2154
VC(47,2)
p2155
tp2156
aVj6quach
p2157
g2139
V2015-10-22 17:49:34
p2158
tp2159
a(g1834
V16/C(47,2)
p2160
(lp2161
(S'R.1'
p2162
I1081
VC(52-5,2)
p2163
VC(47,2)
p2164
tp2165
aVavasavad
p2166
g1842
V2015-10-22 19:05:38
p2167
tp2168
a(g1834
V16/[47!/(2!*45!)]
p2169
(lp2170
(S'R.1'
p2171
I1081
VC(52-5,2)
p2172
V47!/(2!*45!)
p2173
tp2174
aVavasavad
p2175
g1842
V2015-10-22 19:31:53
p2176
tp2177
a(g1834
V16/C(47,2)
p2178
(lp2179
(S'R.1'
p2180
I1081
VC(52-5,2)
p2181
VC(47,2)
p2182
tp2183
aVavasavad
p2184
g1842
V2015-10-22 20:08:53
p2185
tp2186
a(V4*8/[C(52-5,2)]
p2187
V(3*4^2)/C(52-5,2)
p2188
(lp2189
(S'R.1'
p2190
I1081
VC(52-5,2)
p2191
VC(52-5,2)
p2192
tp2193
aVm4bui
p2194
(lp2195
V2015-10-22 21:31:04
p2196
tp2197
a(V4*8/[C(52-5,2)]
p2198
V194/1081
p2199
(lp2200
(S'R.1'
p2201
I1081
VC(52-5,2)
p2202
V1081
p2203
tp2204
aVrohan
p2205
(lp2206
V2015-10-22 22:54:46
p2207
tp2208
a(V4*8/[C(52-5,2)]
p2209
V16/1081
p2210
(lp2211
(S'R.1'
p2212
I1081
VC(52-5,2)
p2213
V1081
p2214
tp2215
aVpsable
p2216
(lp2217
V2015-10-22 23:04:41
p2218
tp2219
asS"['R.1.0', 'R.1.1']"
p2220
(lp2221
(g1897
V1/(47^2)
p2222
(lp2223
(S'R.1.0'
p2224
F47.0
V52-5
p2225
V47
p2226
tp2227
a(S'R.1.1'
p2228
F2.0
V2
p2229
g2229
tp2230
aVthk002
p2231
g1905
V2015-10-20 22:42:51
p2232
tp2233
asS'redirect'
p2234
(lp2235
(g1290
V8!/(3!*5!)/(48!/(3!*45!))
p2236
tp2237
a(V4*8/[C(52-5,2)]
p2238
VC(3,2)C(4,1)^2/C(49,3)
p2239
tp2240
a(g1763
V128/C(50,3)
p2241
tp2242
a(g1763
V64/C(50,3)
p2243
tp2244
a(V4*8/[C(52-5,2)]
p2245
V((4*8)/2)/(C(48,2))
p2246
tp2247
a(V4*8/[C(52-5,2)]
p2248
V3/1225
p2249
tp2250
a(V4*8/[C(52-5,2)]
p2251
VC(52-5,2) - C(52-5-4,2)
p2252
tp2253
a(V4*8/[C(52-5,2)]
p2254
V12/47
p2255
tp2256
a(g1247
VC(32,2)/47
p2257
tp2258
a(g1247
VC(32,2)/C(52,5)
p2259
tp2260
a(V4*8/[C(52-5,2)]
p2261
V(4/52*4/52)+(4/52*4/52)
p2262
tp2263
a(g2261
V(4/52*(4/52))+(4/52*(4/52))
p2264
tp2265
a(g2261
V(4/47*(4/27))2
p2266
tp2267
a(g2261
V(4/47*(4/47))2
p2268
tp2269
a(g1250
V.000021547
p2270
tp2271
a(g1432
V12/47
p2272
tp2273
a(V4*8/[C(52-5,2)]
p2274
V8/(49*48)
p2275
tp2276
a(V4*8/[C(52-5,2)]
p2277
V47!/44!3!
p2278
tp2279
a(g2277
V47!/(44!3!)
p2280
tp2281
a(V4*8/[C(52-5,2)]
p2282
VC(47,2)
p2283
tp2284
a(g2282
VC(47,12)
p2285
tp2286
a(g2282
VC(3,2)
p2287
tp2288
a(g1493
VC(47, 2)
p2289
tp2290
a(V4*8/[C(52-5,2)]
p2291
V12/47
p2292
tp2293
a(g1267
V47/52
p2294
tp2295
a(V4*8/[C(52-5,2)]
p2296
V12/52
p2297
tp2298
a(V4*8/[C(52-5,2)]
p2299
V2/C(44,2)
p2300
tp2301
a(V4*8/[C(52-5,2)]
p2302
V11/48
p2303
tp2304
a(g2302
V11/49
p2305
tp2306
a(g2302
V11/47
p2307
tp2308
a(g2302
V8/44
p2309
tp2310
a(g2302
V4*4*4
p2311
tp2312
a(V4*8/[C(52-5,2)]
p2313
V[(4/47)*(8/43)]+[(8/47)*(4/46)]
p2314
tp2315
a(V4*8/[C(52-5,2)]
p2316
V12/47*11/46
p2317
tp2318
a(V4*8/[C(52-5,2)]
p2319
V3/1225
p2320
tp2321
a(g2319
V0.25
p2322
tp2323
a(g1656
V12/52
p2324
tp2325
a(V4*8/[C(52-5,2)]
p2326
V10/C(52,5)
p2327
tp2328
asS"['R.1.1']"
p2329
(lp2330
(V4*8/[C(52-5,2)]
p2331
VC(47,1)+C(46,2)
p2332
(lp2333
(S'R.1.1'
p2334
F2.0
g2229
g2229
tp2335
aVs6deng
p2336
(lp2337
V2015-10-21 23:12:14
p2338
tp2339
a(g1478
VC(52,5)-C(32,2)
p2340
(lp2341
(S'R.1.1'
p2342
F2.0
g2229
g2229
tp2343
aVvsosnovs
p2344
g787
V2015-10-22 05:29:51
p2345
tp2346
a(g1478
VC(52,5)-C(32,2)
p2347
(lp2348
(S'R.1.1'
p2349
F2.0
g2229
g2229
tp2350
aVvsosnovs
p2351
g787
V2015-10-22 15:52:38
p2352
tp2353
a(g1478
VC(47,3)-C(32,2)
p2354
(lp2355
(S'R.1.1'
p2356
F2.0
g2229
g2229
tp2357
aVvsosnovs
p2358
g787
V2015-10-22 15:55:41
p2359
tp2360
a(g1478
V3/C(32,2)
p2361
(lp2362
(S'R.1.1'
p2363
F2.0
g2229
g2229
tp2364
aVvsosnovs
p2365
g787
V2015-10-22 15:56:15
p2366
tp2367
a(V4*8/[C(52-5,2)]
p2368
V(1/32)/(C(42, 2))
p2369
(lp2370
(S'R.1.1'
p2371
F2.0
g2229
g2229
tp2372
aVtdurrer
p2373
(lp2374
V2015-10-22 23:00:40
p2375
tp2376
asS"['R.0.0', 'R.1']"
p2377
(lp2378
(g1647
V[4*C(8,2)]/[C(47,2)]
p2379
(lp2380
(S'R.0.0'
p2381
F4.0
g691
g691
tp2382
a(S'R.1'
p2383
I1081
VC(52-5,2)
p2384
VC(47,2)
p2385
tp2386
aVdlt009
p2387
g1653
V2015-10-22 07:11:57
p2388
tp2389
asS"['R.0', 'R.1.0', 'R.1.1']"
p2390
(lp2391
(V4*8/[C(52-5,2)]
p2392
V32/47^2
p2393
(lp2394
(S'R.0'
p2395
F32.0
V4*8
p2396
V32
p2397
tp2398
a(S'R.1.0'
p2399
F47.0
V52-5
p2400
V47
p2401
tp2402
a(S'R.1.1'
p2403
F2.0
g2229
g2229
tp2404
aVaggouw
p2405
(lp2406
V2015-10-18 02:34:17
p2407
tp2408
a(g1897
V32/(47^2)
p2409
(lp2410
(S'R.0'
p2411
F32.0
V4*8
p2412
V32
p2413
tp2414
a(S'R.1.0'
p2415
F47.0
V52-5
p2416
V47
p2417
tp2418
a(S'R.1.1'
p2419
F2.0
g2229
g2229
tp2420
aVthk002
p2421
g1905
V2015-10-20 22:46:27
p2422
tp2423
a(V4*8/[C(52-5,2)]
p2424
V32/(47^2)
p2425
(lp2426
(S'R.0'
p2427
F32.0
V4*8
p2428
V32
p2429
tp2430
a(S'R.1.0'
p2431
F47.0
V52-5
p2432
V47
p2433
tp2434
a(S'R.1.1'
p2435
F2.0
g2229
g2229
tp2436
aVvolim
p2437
(lp2438
V2015-10-21 02:33:46
p2439
tp2440
asS"['R.0']"
p2441
(lp2442
(g1274
V(32/47)
p2443
(lp2444
(S'R.0'
p2445
F32.0
V4*8
p2446
V32
p2447
tp2448
aVj5phung
p2449
g1280
V2015-10-16 17:19:27
p2450
tp2451
a(g1290
V4*8 / (47!/(44!*3!))
p2452
(lp2453
(S'R.0'
p2454
F32.0
V4*8
p2455
V4*8
p2456
tp2457
aVjguanzho
p2458
g694
V2015-10-17 02:55:43
p2459
tp2460
a(V4*8/[C(52-5,2)]
p2461
V32/(46!/(2!44!))
p2462
(lp2463
(S'R.0'
p2464
F32.0
V4*8
p2465
V32
p2466
tp2467
aVtcuddy
p2468
(lp2469
V2015-10-17 20:30:32
p2470
tp2471
a(g1752
V32/ (64*63*62)
p2472
(lp2473
(S'R.0'
p2474
F32.0
V4*8
p2475
V32
p2476
tp2477
aVkquong
p2478
g1760
V2015-10-17 23:04:36
p2479
tp2480
a(g1752
V32/ (64*64)
p2481
(lp2482
(S'R.0'
p2483
F32.0
V4*8
p2484
V32
p2485
tp2486
aVkquong
p2487
g1760
V2015-10-17 23:04:48
p2488
tp2489
a(g1319
V32/C(47,1)
p2490
(lp2491
(S'R.0'
p2492
F32.0
V4*8
p2493
V32
p2494
tp2495
aVglcohen
p2496
g720
V2015-10-17 23:47:09
p2497
tp2498
a(g1319
V32/47
p2499
(lp2500
(S'R.0'
p2501
F32.0
V4*8
p2502
V32
p2503
tp2504
aVglcohen
p2505
g720
V2015-10-17 23:47:26
p2506
tp2507
a(V4*8/[C(52-5,2)]
p2508
V32/47
p2509
(lp2510
(S'R.0'
p2511
F32.0
V4*8
p2512
V32
p2513
tp2514
aVacvuong
p2515
(lp2516
V2015-10-18 00:38:38
p2517
tp2518
a(g2392
V32/47
p2519
(lp2520
(S'R.0'
p2521
F32.0
V4*8
p2522
V32
p2523
tp2524
aVaggouw
p2525
g2406
V2015-10-18 02:36:27
p2526
tp2527
a(g1334
V(4*(4+4))/(52-5)
p2528
(lp2529
(S'R.0'
p2530
F32.0
V4*8
p2531
V4*(4+4)
p2532
tp2533
aVhaw081
p2534
g1340
V2015-10-18 06:49:26
p2535
tp2536
a(V4*8/[C(52-5,2)]
p2537
V(4*(4+4))/47
p2538
(lp2539
(S'R.0'
p2540
F32.0
V4*8
p2541
V4*(4+4)
p2542
tp2543
aVkthui
p2544
(lp2545
V2015-10-18 07:07:31
p2546
tp2547
a(g1847
V32/(52-5)
p2548
(lp2549
(S'R.0'
p2550
F32.0
V4*8
p2551
V32
p2552
tp2553
aVmbl003
p2554
g1156
V2015-10-18 20:32:42
p2555
tp2556
a(g2248
V32/2162
p2557
(lp2558
(S'R.0'
p2559
F32.0
V4*8
p2560
V32
p2561
tp2562
aVgsrandha
p2563
g746
V2015-10-19 05:08:44
p2564
tp2565
a(g2248
V32/(52*51)
p2566
(lp2567
(S'R.0'
p2568
F32.0
V4*8
p2569
V32
p2570
tp2571
aVgsrandha
p2572
g746
V2015-10-19 05:10:31
p2573
tp2574
a(g2248
V32/(50*51)
p2575
(lp2576
(S'R.0'
p2577
F32.0
V4*8
p2578
V32
p2579
tp2580
aVgsrandha
p2581
g746
V2015-10-19 05:10:38
p2582
tp2583
a(g2248
V32/(50*49)
p2584
(lp2585
(S'R.0'
p2586
F32.0
V4*8
p2587
V32
p2588
tp2589
aVgsrandha
p2590
g746
V2015-10-19 05:10:45
p2591
tp2592
a(g2248
V32/(48*49)
p2593
(lp2594
(S'R.0'
p2595
F32.0
V4*8
p2596
V32
p2597
tp2598
aVgsrandha
p2599
g746
V2015-10-19 05:10:52
p2600
tp2601
a(g2248
V32/(48*47)
p2602
(lp2603
(S'R.0'
p2604
F32.0
V4*8
p2605
V32
p2606
tp2607
aVgsrandha
p2608
g746
V2015-10-19 05:10:57
p2609
tp2610
a(g2248
V32/(46*47)
p2611
(lp2612
(S'R.0'
p2613
F32.0
V4*8
p2614
V32
p2615
tp2616
aVgsrandha
p2617
g746
V2015-10-19 05:11:02
p2618
tp2619
a(g2248
V32/(46*45)
p2620
(lp2621
(S'R.0'
p2622
F32.0
V4*8
p2623
V32
p2624
tp2625
aVgsrandha
p2626
g746
V2015-10-19 05:11:08
p2627
tp2628
a(g2248
V32/(44*45)
p2629
(lp2630
(S'R.0'
p2631
F32.0
V4*8
p2632
V32
p2633
tp2634
aVgsrandha
p2635
g746
V2015-10-19 05:11:14
p2636
tp2637
a(g2248
V32/(44*43)
p2638
(lp2639
(S'R.0'
p2640
F32.0
V4*8
p2641
V32
p2642
tp2643
aVgsrandha
p2644
g746
V2015-10-19 05:11:20
p2645
tp2646
a(g2248
V32/(42*43)
p2647
(lp2648
(S'R.0'
p2649
F32.0
V4*8
p2650
V32
p2651
tp2652
aVgsrandha
p2653
g746
V2015-10-19 05:11:33
p2654
tp2655
a(g2248
V32/(42*41)
p2656
(lp2657
(S'R.0'
p2658
F32.0
V4*8
p2659
V32
p2660
tp2661
aVgsrandha
p2662
g746
V2015-10-19 05:11:38
p2663
tp2664
a(g1774
V32/C(52,5)
p2665
(lp2666
(S'R.0'
p2667
F32.0
V4*8
p2668
V32
p2669
tp2670
aVaakumar
p2671
g1782
V2015-10-19 05:25:12
p2672
tp2673
a(g1774
V32/C(52,5)
p2674
(lp2675
(S'R.0'
p2676
F32.0
V4*8
p2677
V32
p2678
tp2679
aVaakumar
p2680
g1782
V2015-10-19 05:44:17
p2681
tp2682
a(V4*8/[C(52-5,2)]
p2683
V32/[47!/(5!42!)]
p2684
(lp2685
(S'R.0'
p2686
F32.0
V4*8
p2687
V32
p2688
tp2689
aVk5law
p2690
(lp2691
V2015-10-19 06:41:04
p2692
tp2693
a(g1247
V32/47
p2694
(lp2695
(S'R.0'
p2696
F32.0
V4*8
p2697
V32
p2698
tp2699
aVdsmonaha
p2700
g1883
V2015-10-19 16:05:10
p2701
tp2702
a(g1681
V4 * (4+4) / C(52,3)
p2703
(lp2704
(S'R.0'
p2705
F32.0
V4*8
p2706
V4 * (4+4)
p2707
tp2708
aVachava
p2709
g1693
V2015-10-19 19:13:59
p2710
tp2711
a(g1681
V4 * (4+4) / C(52,5)
p2712
(lp2713
(S'R.0'
p2714
F32.0
V4*8
p2715
V4 * (4+4)
p2716
tp2717
aVachava
p2718
g1693
V2015-10-19 19:14:03
p2719
tp2720
a(g1681
V4 * (4+4) / (C(13,2)* C(52,3))
p2721
(lp2722
(S'R.0'
p2723
F32.0
V4*8
p2724
V4 * (4+4)
p2725
tp2726
aVachava
p2727
g1693
V2015-10-19 19:15:07
p2728
tp2729
a(g1681
V(4 * (4+4)) / (C(13,2)* C(52,3))
p2730
(lp2731
(S'R.0'
p2732
F32.0
V4*8
p2733
V4 * (4+4)
p2734
tp2735
aVachava
p2736
g1693
V2015-10-19 19:15:12
p2737
tp2738
a(g1681
V(4 * (4+4)) /C(50,3)
p2739
(lp2740
(S'R.0'
p2741
F32.0
V4*8
p2742
V4 * (4+4)
p2743
tp2744
aVachava
p2745
g1693
V2015-10-19 19:15:49
p2746
tp2747
a(g1681
V(4 * (4+4)) /C(50,5)
p2748
(lp2749
(S'R.0'
p2750
F32.0
V4*8
p2751
V4 * (4+4)
p2752
tp2753
aVachava
p2754
g1693
V2015-10-19 19:18:09
p2755
tp2756
a(g1681
V(4 * (4+4)) / (50*49)
p2757
(lp2758
(S'R.0'
p2759
F32.0
V4*8
p2760
V4 * (4+4)
p2761
tp2762
aVachava
p2763
g1693
V2015-10-19 19:21:24
p2764
tp2765
a(g1681
V(4 * (4+4)) / (50*49*48)
p2766
(lp2767
(S'R.0'
p2768
F32.0
V4*8
p2769
V4 * (4+4)
p2770
tp2771
aVachava
p2772
g1693
V2015-10-19 19:21:43
p2773
tp2774
a(g1681
V32/ (2* C(50,3))
p2775
(lp2776
(S'R.0'
p2777
F32.0
V4*8
p2778
V32
p2779
tp2780
aVachava
p2781
g1693
V2015-10-19 19:24:08
p2782
tp2783
a(g1681
V32/ C(52,5)
p2784
(lp2785
(S'R.0'
p2786
F32.0
V4*8
p2787
V32
p2788
tp2789
aVachava
p2790
g1693
V2015-10-19 19:25:27
p2791
tp2792
a(g1681
V32/ C(47,1)
p2793
(lp2794
(S'R.0'
p2795
F32.0
V4*8
p2796
V32
p2797
tp2798
aVachava
p2799
g1693
V2015-10-19 19:26:10
p2800
tp2801
a(V4*8/[C(52-5,2)]
p2802
VC(32, 2)
p2803
(lp2804
(S'R.0'
p2805
F32.0
V4*8
p2806
V32
p2807
tp2808
aVany027
p2809
g1177
V2015-10-19 19:45:57
p2810
tp2811
a(g1375
V32/(46*47)
p2812
(lp2813
(S'R.0'
p2814
F32.0
V4*8
p2815
V32
p2816
tp2817
aVachinn
p2818
g1381
V2015-10-19 21:35:38
p2819
tp2820
a(g1681
V32/ C(52,5)
p2821
(lp2822
(S'R.0'
p2823
F32.0
V4*8
p2824
V32
p2825
tp2826
aVachava
p2827
g1693
V2015-10-20 01:55:38
p2828
tp2829
a(g1681
V32/ C(52,4)
p2830
(lp2831
(S'R.0'
p2832
F32.0
V4*8
p2833
V32
p2834
tp2835
aVachava
p2836
g1693
V2015-10-20 01:55:42
p2837
tp2838
a(g1681
V32/ C(50,4)
p2839
(lp2840
(S'R.0'
p2841
F32.0
V4*8
p2842
V32
p2843
tp2844
aVachava
p2845
g1693
V2015-10-20 01:55:52
p2846
tp2847
a(V4*8/[C(52-5,2)]
p2848
V32 / (C(48, 3))
p2849
(lp2850
(S'R.0'
p2851
F32.0
V4*8
p2852
V32
p2853
tp2854
aVv3doan
p2855
(lp2856
V2015-10-20 04:23:40
p2857
tp2858
a(g2848
V32 / (C(52, 3))
p2859
(lp2860
(S'R.0'
p2861
F32.0
V4*8
p2862
V32
p2863
tp2864
aVv3doan
p2865
g2856
V2015-10-20 04:56:48
p2866
tp2867
a(g1681
V32/ C(48,3)
p2868
(lp2869
(S'R.0'
p2870
F32.0
V4*8
p2871
V32
p2872
tp2873
aVachava
p2874
g1693
V2015-10-20 06:41:43
p2875
tp2876
a(g1681
V32/ C(48,1)
p2877
(lp2878
(S'R.0'
p2879
F32.0
V4*8
p2880
V32
p2881
tp2882
aVachava
p2883
g1693
V2015-10-20 06:41:49
p2884
tp2885
a(g1681
V32/ (C(50,2) - 5)
p2886
(lp2887
(S'R.0'
p2888
F32.0
V4*8
p2889
V32
p2890
tp2891
aVachava
p2892
g1693
V2015-10-20 07:04:22
p2893
tp2894
a(g1681
V32/ (C(52,2) - C(50,2) - 3)
p2895
(lp2896
(S'R.0'
p2897
F32.0
V4*8
p2898
V32
p2899
tp2900
aVachava
p2901
g1693
V2015-10-20 07:06:31
p2902
tp2903
a(V4*8/[C(52-5,2)]
p2904
V32/94
p2905
(lp2906
(S'R.0'
p2907
F32.0
V4*8
p2908
V32
p2909
tp2910
aVsippolit
p2911
(lp2912
V2015-10-20 07:13:55
p2913
tp2914
a(g2904
V32/93
p2915
(lp2916
(S'R.0'
p2917
F32.0
V4*8
p2918
V32
p2919
tp2920
aVsippolit
p2921
g2912
V2015-10-20 07:14:38
p2922
tp2923
a(g1247
V32/47
p2924
(lp2925
(S'R.0'
p2926
F32.0
V4*8
p2927
V32
p2928
tp2929
aVdsmonaha
p2930
g1883
V2015-10-20 17:14:03
p2931
tp2932
a(V4*8/[C(52-5,2)]
p2933
V(4*8)/(52-5)
p2934
(lp2935
(S'R.0'
p2936
F32.0
V4*8
p2937
V4*8
p2938
tp2939
aVttimmons
p2940
(lp2941
V2015-10-20 17:30:02
p2942
tp2943
a(V4*8/[C(52-5,2)]
p2944
V32/18424
p2945
(lp2946
(S'R.0'
p2947
F32.0
V4*8
p2948
V32
p2949
tp2950
aVjix029
p2951
(lp2952
V2015-10-20 20:04:31
p2953
tp2954
a(V4*8/[C(52-5,2)]
p2955
V32/47
p2956
(lp2957
(S'R.0'
p2958
F32.0
V4*8
p2959
V32
p2960
tp2961
aVhaliew
p2962
(lp2963
V2015-10-20 21:50:25
p2964
tp2965
a(g2955
V32/52
p2966
(lp2967
(S'R.0'
p2968
F32.0
V4*8
p2969
V32
p2970
tp2971
aVhaliew
p2972
g2963
V2015-10-20 21:51:01
p2973
tp2974
a(V4*8/[C(52-5,2)]
p2975
V32/(52 - 5)
p2976
(lp2977
(S'R.0'
p2978
F32.0
V4*8
p2979
V32
p2980
tp2981
aVrwthomps
p2982
(lp2983
V2015-10-20 22:30:19
p2984
tp2985
a(V4*8/[C(52-5,2)]
p2986
V32/(52*52)
p2987
(lp2988
(S'R.0'
p2989
F32.0
V4*8
p2990
V32
p2991
tp2992
aVmcatozzi
p2993
(lp2994
V2015-10-20 22:50:56
p2995
tp2996
a(g2986
V32/104
p2997
(lp2998
(S'R.0'
p2999
F32.0
V4*8
p3000
V32
p3001
tp3002
aVmcatozzi
p3003
g2994
V2015-10-20 22:51:14
p3004
tp3005
a(g2986
V32/(48*47)
p3006
(lp3007
(S'R.0'
p3008
F32.0
V4*8
p3009
V32
p3010
tp3011
aVmcatozzi
p3012
g2994
V2015-10-20 23:08:40
p3013
tp3014
a(g1250
V32/56
p3015
(lp3016
(S'R.0'
p3017
F32.0
V4*8
p3018
V32
p3019
tp3020
aVtol003
p3021
(lp3022
V2015-10-20 23:08:52
p3023
tp3024
a(g2986
V32/(48*47*16)
p3025
(lp3026
(S'R.0'
p3027
F32.0
V4*8
p3028
V32
p3029
tp3030
aVmcatozzi
p3031
g2994
V2015-10-20 23:08:57
p3032
tp3033
a(V4*8/[C(52-5,2)]
p3034
V32/52
p3035
(lp3036
(S'R.0'
p3037
F32.0
V4*8
p3038
V32
p3039
tp3040
aVctgraves
p3041
(lp3042
V2015-10-21 01:56:28
p3043
tp3044
a(g2424
V32/47
p3045
(lp3046
(S'R.0'
p3047
F32.0
V4*8
p3048
V32
p3049
tp3050
aVvolim
p3051
g2438
V2015-10-21 02:33:30
p3052
tp3053
a(g1448
V32/(47!/(3!*44!))
p3054
(lp3055
(S'R.0'
p3056
F32.0
V4*8
p3057
V32
p3058
tp3059
aVmtrafeca
p3060
g1454
V2015-10-21 05:21:14
p3061
tp3062
a(g1448
V32/47
p3063
(lp3064
(S'R.0'
p3065
F32.0
V4*8
p3066
V32
p3067
tp3068
aVmtrafeca
p3069
g1454
V2015-10-21 05:25:50
p3070
tp3071
a(g1334
V4*8/(52-5)
p3072
(lp3073
(S'R.0'
p3074
F32.0
V4*8
p3075
V4*8
p3076
tp3077
aVhaw081
p3078
g1340
V2015-10-21 06:03:39
p3079
tp3080
a(g1722
V(4*8)/(52!/5!*47!)
p3081
(lp3082
(S'R.0'
p3083
F32.0
V4*8
p3084
V4*8
p3085
tp3086
aVyos017
p3087
g1734
V2015-10-21 07:33:37
p3088
tp3089
a(V4*8/[C(52-5,2)]
p3090
V4*8 / C(49,3)
p3091
(lp3092
(S'R.0'
p3093
F32.0
V4*8
p3094
V4*8
p3095
tp3096
aVhah008
p3097
(lp3098
V2015-10-21 07:34:42
p3099
tp3100
a(g1722
V(4*8)/(52!/5!*47!)
p3101
(lp3102
(S'R.0'
p3103
F32.0
V4*8
p3104
V4*8
p3105
tp3106
aVyos017
p3107
g1734
V2015-10-21 07:34:50
p3108
tp3109
a(g1722
V(4*8)/(47!/(5!*42!))
p3110
(lp3111
(S'R.0'
p3112
F32.0
V4*8
p3113
V4*8
p3114
tp3115
aVyos017
p3116
g1734
V2015-10-21 07:40:43
p3117
tp3118
a(g2274
V32/(49*48)
p3119
(lp3120
(S'R.0'
p3121
F32.0
V4*8
p3122
V32
p3123
tp3124
aVjel075
p3125
(lp3126
V2015-10-21 07:45:49
p3127
tp3128
a(V4*8/[C(52-5,2)]
p3129
V32/1128
p3130
(lp3131
(S'R.0'
p3132
F32.0
V4*8
p3133
V32
p3134
tp3135
aVbtn023
p3136
(lp3137
V2015-10-21 17:16:25
p3138
tp3139
a(V4*8/[C(52-5,2)]
p3140
V32/2162
p3141
(lp3142
(S'R.0'
p3143
F32.0
V4*8
p3144
V32
p3145
tp3146
aVrbdoming
p3147
(lp3148
V2015-10-21 18:10:29
p3149
tp3150
a(V4*8/[C(52-5,2)]
p3151
V4*8/(47*46*45)
p3152
(lp3153
(S'R.0'
p3154
F32.0
V4*8
p3155
V4*8
p3156
tp3157
aVs1powers
p3158
g819
V2015-10-21 18:34:33
p3159
tp3160
a(g3151
V4*8/(47!/44!3!)
p3161
(lp3162
(S'R.0'
p3163
F32.0
V4*8
p3164
V4*8
p3165
tp3166
aVs1powers
p3167
g819
V2015-10-21 18:34:57
p3168
tp3169
a(g3151
V4*8/(47!/(44!3!))
p3170
(lp3171
(S'R.0'
p3172
F32.0
V4*8
p3173
V4*8
p3174
tp3175
aVs1powers
p3176
g819
V2015-10-21 18:35:06
p3177
tp3178
a(g3151
V4*8/(47*46*45)
p3179
(lp3180
(S'R.0'
p3181
F32.0
V4*8
p3182
V4*8
p3183
tp3184
aVs1powers
p3185
g819
V2015-10-21 18:37:12
p3186
tp3187
a(V4*8/[C(52-5,2)]
p3188
V32/(C(47,4)+C(46,8))
p3189
(lp3190
(S'R.0'
p3191
F32.0
V4*8
p3192
V32
p3193
tp3194
aVvsamant
p3195
(lp3196
V2015-10-21 18:45:16
p3197
tp3198
a(g1255
V32/47
p3199
(lp3200
(S'R.0'
p3201
F32.0
V4*8
p3202
V32
p3203
tp3204
aVdkostins
p3205
(lp3206
V2015-10-21 19:12:04
p3207
tp3208
a(g1255
V32/47
p3209
(lp3210
(S'R.0'
p3211
F32.0
V4*8
p3212
V32
p3213
tp3214
aVdkostins
p3215
g3206
V2015-10-21 19:13:51
p3216
tp3217
a(g1255
V32/47
p3218
(lp3219
(S'R.0'
p3220
F32.0
V4*8
p3221
V32
p3222
tp3223
aVdkostins
p3224
g3206
V2015-10-21 19:16:52
p3225
tp3226
a(V4*8/[C(52-5,2)]
p3227
V(C(4,1)*C(8,1))/(C(50,3))
p3228
(lp3229
(S'R.0'
p3230
F32.0
V4*8
p3231
VC(4,1)*C(8,1)
p3232
tp3233
aVytc012
p3234
(lp3235
V2015-10-21 21:43:35
p3236
tp3237
a(V4*8/[C(52-5,2)]
p3238
V32/(47!/(2!5!))
p3239
(lp3240
(S'R.0'
p3241
F32.0
V4*8
p3242
V32
p3243
tp3244
aVanvan
p3245
(lp3246
V2015-10-21 22:57:49
p3247
tp3248
a(g3238
V32/(47!/(42!5!))
p3249
(lp3250
(S'R.0'
p3251
F32.0
V4*8
p3252
V32
p3253
tp3254
aVanvan
p3255
g3246
V2015-10-21 22:57:58
p3256
tp3257
a(g1493
V(32/47)
p3258
(lp3259
(S'R.0'
p3260
F32.0
V4*8
p3261
V32
p3262
tp3263
aVcstringh
p3264
g1230
V2015-10-21 23:10:12
p3265
tp3266
a(g1493
V((4*8)/47)
p3267
(lp3268
(S'R.0'
p3269
F32.0
V4*8
p3270
V4*8
p3271
tp3272
aVcstringh
p3273
g1230
V2015-10-21 23:13:40
p3274
tp3275
a(V4*8/[C(52-5,2)]
p3276
V32/(52-5)
p3277
(lp3278
(S'R.0'
p3279
F32.0
V4*8
p3280
V32
p3281
tp3282
aVewbrenna
p3283
(lp3284
V2015-10-21 23:27:14
p3285
tp3286
a(g3276
V32/(52-5)
p3287
(lp3288
(S'R.0'
p3289
F32.0
V4*8
p3290
V32
p3291
tp3292
aVewbrenna
p3293
g3284
V2015-10-21 23:27:50
p3294
tp3295
a(g3276
V32/(52*51)
p3296
(lp3297
(S'R.0'
p3298
F32.0
V4*8
p3299
V32
p3300
tp3301
aVewbrenna
p3302
g3284
V2015-10-21 23:40:20
p3303
tp3304
a(V4*8/[C(52-5,2)]
p3305
V32/(C(52,5))
p3306
(lp3307
(S'R.0'
p3308
F32.0
V4*8
p3309
V32
p3310
tp3311
aVv4sharma
p3312
(lp3313
V2015-10-22 01:10:15
p3314
tp3315
a(g1264
V32/(C(52,7))
p3316
(lp3317
(S'R.0'
p3318
F32.0
V4*8
p3319
V32
p3320
tp3321
aVtpmach
p3322
g850
V2015-10-22 01:35:41
p3323
tp3324
a(V4*8/[C(52-5,2)]
p3325
V32/(47*46*45)
p3326
(lp3327
(S'R.0'
p3328
F32.0
V4*8
p3329
V32
p3330
tp3331
aVajabasa
p3332
g912
V2015-10-22 02:07:56
p3333
tp3334
a(g1995
VC(32,2)
p3335
(lp3336
(S'R.0'
p3337
F32.0
V4*8
p3338
V32
p3339
tp3340
aVjjm019
p3341
g2003
V2015-10-22 04:30:25
p3342
tp3343
a(g1624
V32/47
p3344
(lp3345
(S'R.0'
p3346
F32.0
V4*8
p3347
V32
p3348
tp3349
aVctroncos
p3350
g1630
V2015-10-22 04:57:05
p3351
tp3352
a(g3325
V32/(C(48,3))
p3353
(lp3354
(S'R.0'
p3355
F32.0
V4*8
p3356
V32
p3357
tp3358
aVajabasa
p3359
g912
V2015-10-22 05:36:45
p3360
tp3361
a(g3325
V32/(C(52,3))
p3362
(lp3363
(S'R.0'
p3364
F32.0
V4*8
p3365
V32
p3366
tp3367
aVajabasa
p3368
g912
V2015-10-22 05:36:51
p3369
tp3370
a(g3325
V32/(C(46,3))
p3371
(lp3372
(S'R.0'
p3373
F32.0
V4*8
p3374
V32
p3375
tp3376
aVajabasa
p3377
g912
V2015-10-22 05:36:56
p3378
tp3379
a(g3325
V32/(C(52,3))
p3380
(lp3381
(S'R.0'
p3382
F32.0
V4*8
p3383
V32
p3384
tp3385
aVajabasa
p3386
g912
V2015-10-22 05:39:35
p3387
tp3388
a(V4*8/[C(52-5,2)]
p3389
V32/45
p3390
(lp3391
(S'R.0'
p3392
F32.0
V4*8
p3393
V32
p3394
tp3395
aVyhhan
p3396
(lp3397
V2015-10-22 05:46:23
p3398
tp3399
a(g3389
V(32/1980)
p3400
(lp3401
(S'R.0'
p3402
F32.0
V4*8
p3403
V32
p3404
tp3405
aVyhhan
p3406
g3397
V2015-10-22 05:49:25
p3407
tp3408
a(V4*8/[C(52-5,2)]
p3409
V32/47
p3410
(lp3411
(S'R.0'
p3412
F32.0
V4*8
p3413
V32
p3414
tp3415
aVagarango
p3416
g928
V2015-10-22 06:09:22
p3417
tp3418
a(g3409
V32/78
p3419
(lp3420
(S'R.0'
p3421
F32.0
V4*8
p3422
V32
p3423
tp3424
aVagarango
p3425
g928
V2015-10-22 06:11:02
p3426
tp3427
a(g3409
V32/55
p3428
(lp3429
(S'R.0'
p3430
F32.0
V4*8
p3431
V32
p3432
tp3433
aVagarango
p3434
g928
V2015-10-22 06:17:18
p3435
tp3436
a(g3409
V32/66
p3437
(lp3438
(S'R.0'
p3439
F32.0
V4*8
p3440
V32
p3441
tp3442
aVagarango
p3443
g928
V2015-10-22 06:17:33
p3444
tp3445
a(g3409
V32/45
p3446
(lp3447
(S'R.0'
p3448
F32.0
V4*8
p3449
V32
p3450
tp3451
aVagarango
p3452
g928
V2015-10-22 06:17:50
p3453
tp3454
a(g3409
V32/1326
p3455
(lp3456
(S'R.0'
p3457
F32.0
V4*8
p3458
V32
p3459
tp3460
aVagarango
p3461
g928
V2015-10-22 06:21:01
p3462
tp3463
a(V4*8/[C(52-5,2)]
p3464
V32/(13*13)
p3465
(lp3466
(S'R.0'
p3467
F32.0
V4*8
p3468
V32
p3469
tp3470
aVjhc010
p3471
(lp3472
V2015-10-22 07:30:11
p3473
tp3474
a(g3464
V32/(13*12)
p3475
(lp3476
(S'R.0'
p3477
F32.0
V4*8
p3478
V32
p3479
tp3480
aVjhc010
p3481
g3472
V2015-10-22 07:30:16
p3482
tp3483
a(V4*8/[C(52-5,2)]
p3484
V32/C(52,5)
p3485
(lp3486
(S'R.0'
p3487
F32.0
V4*8
p3488
V32
p3489
tp3490
aVjfalcone
p3491
(lp3492
V2015-10-22 08:32:13
p3493
tp3494
a(V4*8/[C(52-5,2)]
p3495
V32/(C(48,3))
p3496
(lp3497
(S'R.0'
p3498
F32.0
V4*8
p3499
V32
p3500
tp3501
aVv4zhang
p3502
(lp3503
V2015-10-22 08:35:20
p3504
tp3505
a(g3495
V32/(C(48, 1)*C(47, 1))
p3506
(lp3507
(S'R.0'
p3508
F32.0
V4*8
p3509
V32
p3510
tp3511
aVv4zhang
p3512
g3503
V2015-10-22 08:38:56
p3513
tp3514
a(V4*8/[C(52-5,2)]
p3515
V32/2162
p3516
(lp3517
(S'R.0'
p3518
F32.0
V4*8
p3519
V32
p3520
tp3521
aVanl114
p3522
(lp3523
V2015-10-22 09:16:04
p3524
tp3525
a(V4*8/[C(52-5,2)]
p3526
V32/42
p3527
(lp3528
(S'R.0'
p3529
F32.0
V4*8
p3530
V32
p3531
tp3532
aVnisharma
p3533
(lp3534
V2015-10-22 14:55:49
p3535
tp3536
a(g1478
VC(32,2)
p3537
(lp3538
(S'R.0'
p3539
F32.0
V4*8
p3540
V32
p3541
tp3542
aVvsosnovs
p3543
g787
V2015-10-22 15:52:50
p3544
tp3545
a(g1478
VC(32,2)
p3546
(lp3547
(S'R.0'
p3548
F32.0
V4*8
p3549
V32
p3550
tp3551
aVvsosnovs
p3552
g787
V2015-10-22 15:53:35
p3553
tp3554
a(V4*8/[C(52-5,2)]
p3555
V32/(52*27)
p3556
(lp3557
(S'R.0'
p3558
F32.0
V4*8
p3559
V32
p3560
tp3561
aVs2chaudh
p3562
(lp3563
V2015-10-22 17:31:29
p3564
tp3565
a(g2313
V[4*(4+4)]/47
p3566
(lp3567
(S'R.0'
p3568
F32.0
V4*8
p3569
V4*(4+4)
p3570
tp3571
aValhung
p3572
(lp3573
V2015-10-22 17:35:42
p3574
tp3575
a(V4*8/[C(52-5,2)]
p3576
V32/47
p3577
(lp3578
(S'R.0'
p3579
F32.0
V4*8
p3580
V32
p3581
tp3582
aVdac064
p3583
(lp3584
V2015-10-22 20:18:57
p3585
tp3586
a(g3576
V32/52
p3587
(lp3588
(S'R.0'
p3589
F32.0
V4*8
p3590
V32
p3591
tp3592
aVdac064
p3593
g3584
V2015-10-22 20:19:37
p3594
tp3595
a(V4*8/[C(52-5,2)]
p3596
V32/47
p3597
(lp3598
(S'R.0'
p3599
F32.0
V4*8
p3600
V32
p3601
tp3602
aVtcn013
p3603
(lp3604
V2015-10-22 21:00:29
p3605
tp3606
a(g1656
V32/(4*47)
p3607
(lp3608
(S'R.0'
p3609
F32.0
V4*8
p3610
V32
p3611
tp3612
aVdtea
p3613
g1662
V2015-10-22 22:08:05
p3614
tp3615
a(g1656
V32/(4*4*47)
p3616
(lp3617
(S'R.0'
p3618
F32.0
V4*8
p3619
V32
p3620
tp3621
aVdtea
p3622
g1662
V2015-10-22 22:08:54
p3623
tp3624
a(g2209
V32/47
p3625
(lp3626
(S'R.0'
p3627
F32.0
V4*8
p3628
V32
p3629
tp3630
aVpsable
p3631
g2217
V2015-10-22 23:06:18
p3632
tp3633
a(g2209
V32/2162
p3634
(lp3635
(S'R.0'
p3636
F32.0
V4*8
p3637
V32
p3638
tp3639
aVpsable
p3640
g2217
V2015-10-22 23:08:02
p3641
tp3642
a(V4*8/[C(52-5,2)]
p3643
V32/(52-5)
p3644
(lp3645
(S'R.0'
p3646
F32.0
V4*8
p3647
V32
p3648
tp3649
aVr2fisher
p3650
(lp3651
V2015-10-22 23:10:55
p3652
tp3653
asS"['R.0', 'R.1.1']"
p3654
(lp3655
(g1681
V4 * (4+4) / C(52,2)
p3656
(lp3657
(S'R.0'
p3658
F32.0
V4*8
p3659
V4 * (4+4)
p3660
tp3661
a(S'R.1.1'
p3662
F2.0
g2229
g2229
tp3663
aVachava
p3664
g1693
V2015-10-19 19:14:19
p3665
tp3666
a(g1681
V4 * (4+4) / C(13,2)
p3667
(lp3668
(S'R.0'
p3669
F32.0
V4*8
p3670
V4 * (4+4)
p3671
tp3672
a(S'R.1.1'
p3673
F2.0
g2229
g2229
tp3674
aVachava
p3675
g1693
V2015-10-19 19:14:37
p3676
tp3677
a(g1681
V(4 * (4+4)) / (50*49/2)
p3678
(lp3679
(S'R.0'
p3680
F32.0
V4*8
p3681
V4 * (4+4)
p3682
tp3683
a(S'R.1.1'
p3684
F2.0
g2229
g2229
tp3685
aVachava
p3686
g1693
V2015-10-19 19:21:17
p3687
tp3688
a(g1681
V32/ C(52,2)
p3689
(lp3690
(S'R.0'
p3691
F32.0
V4*8
p3692
V32
p3693
tp3694
a(S'R.1.1'
p3695
F2.0
g2229
g2229
tp3696
aVachava
p3697
g1693
V2015-10-19 19:23:14
p3698
tp3699
a(V4*8/[C(52-5,2)]
p3700
V32/(C(42,2))
p3701
(lp3702
(S'R.0'
p3703
F32.0
V4*8
p3704
V32
p3705
tp3706
a(S'R.1.1'
p3707
F2.0
g2229
g2229
tp3708
aVpvl001
p3709
(lp3710
V2015-10-19 22:24:44
p3711
tp3712
a(g3700
V32/(C(52,2))
p3713
(lp3714
(S'R.0'
p3715
F32.0
V4*8
p3716
V32
p3717
tp3718
a(S'R.1.1'
p3719
F2.0
g2229
g2229
tp3720
aVpvl001
p3721
g3710
V2015-10-19 22:25:01
p3722
tp3723
a(g3700
V32/(C(49,2))
p3724
(lp3725
(S'R.0'
p3726
F32.0
V4*8
p3727
V32
p3728
tp3729
a(S'R.1.1'
p3730
F2.0
g2229
g2229
tp3731
aVpvl001
p3732
g3710
V2015-10-19 22:25:10
p3733
tp3734
a(V4*8/[C(52-5,2)]
p3735
V32/C(52, 2)
p3736
(lp3737
(S'R.0'
p3738
F32.0
V4*8
p3739
V32
p3740
tp3741
a(S'R.1.1'
p3742
F2.0
g2229
g2229
tp3743
aVhak014
p3744
(lp3745
V2015-10-20 00:41:27
p3746
tp3747
a(g1681
V32/ C(52,2)
p3748
(lp3749
(S'R.0'
p3750
F32.0
V4*8
p3751
V32
p3752
tp3753
a(S'R.1.1'
p3754
F2.0
g2229
g2229
tp3755
aVachava
p3756
g1693
V2015-10-20 01:55:28
p3757
tp3758
a(g1681
V32/ C(50, 2)
p3759
(lp3760
(S'R.0'
p3761
F32.0
V4*8
p3762
V32
p3763
tp3764
a(S'R.1.1'
p3765
F2.0
g2229
g2229
tp3766
aVachava
p3767
g1693
V2015-10-20 01:56:16
p3768
tp3769
a(g1681
V32/ C(11,2)
p3770
(lp3771
(S'R.0'
p3772
F32.0
V4*8
p3773
V32
p3774
tp3775
a(S'R.1.1'
p3776
F2.0
g2229
g2229
tp3777
aVachava
p3778
g1693
V2015-10-20 01:56:25
p3779
tp3780
a(g1681
V32/ C(11,2)^2
p3781
(lp3782
(S'R.0'
p3783
F32.0
V4*8
p3784
V32
p3785
tp3786
a(S'R.1.1'
p3787
F2.0
g2229
g2229
tp3788
aVachava
p3789
g1693
V2015-10-20 01:56:39
p3790
tp3791
a(g1681
V32/ C(50,2)
p3792
(lp3793
(S'R.0'
p3794
F32.0
V4*8
p3795
V32
p3796
tp3797
a(S'R.1.1'
p3798
F2.0
g2229
g2229
tp3799
aVachava
p3800
g1693
V2015-10-20 06:40:41
p3801
tp3802
a(g1681
V32/ C(48,2)
p3803
(lp3804
(S'R.0'
p3805
F32.0
V4*8
p3806
V32
p3807
tp3808
a(S'R.1.1'
p3809
F2.0
g2229
g2229
tp3810
aVachava
p3811
g1693
V2015-10-20 06:41:25
p3812
tp3813
a(g1681
V32/ C(48,2)
p3814
(lp3815
(S'R.0'
p3816
F32.0
V4*8
p3817
V32
p3818
tp3819
a(S'R.1.1'
p3820
F2.0
g2229
g2229
tp3821
aVachava
p3822
g1693
V2015-10-20 06:41:57
p3823
tp3824
a(V4*8/[C(52-5,2)]
p3825
V32 / C(52, 2)
p3826
(lp3827
(S'R.0'
p3828
F32.0
V4*8
p3829
V32
p3830
tp3831
a(S'R.1.1'
p3832
F2.0
g2229
g2229
tp3833
aVklala
p3834
(lp3835
V2015-10-20 19:34:57
p3836
tp3837
a(g2986
V32/(52^2)
p3838
(lp3839
(S'R.0'
p3840
F32.0
V4*8
p3841
V32
p3842
tp3843
a(S'R.1.1'
p3844
F2.0
g2229
g2229
tp3845
aVmcatozzi
p3846
g2994
V2015-10-20 23:08:23
p3847
tp3848
a(g1432
V4*8/(47*46*2)
p3849
(lp3850
(S'R.0'
p3851
F32.0
V4*8
p3852
V4*8
p3853
tp3854
a(S'R.1.1'
p3855
F2.0
g2229
g2229
tp3856
aVdjk006
p3857
g1438
V2015-10-20 23:56:37
p3858
tp3859
a(g3090
V4*8 / C(49,2)
p3860
(lp3861
(S'R.0'
p3862
F32.0
V4*8
p3863
V4*8
p3864
tp3865
a(S'R.1.1'
p3866
F2.0
g2229
g2229
tp3867
aVhah008
p3868
g3098
V2015-10-21 07:34:46
p3869
tp3870
a(V4*8/[C(52-5,2)]
p3871
V32/C(45,2)
p3872
(lp3873
(S'R.0'
p3874
F32.0
V4*8
p3875
V32
p3876
tp3877
a(S'R.1.1'
p3878
F2.0
g2229
g2229
tp3879
aVetemlock
p3880
(lp3881
V2015-10-21 09:40:35
p3882
tp3883
a(V4*8/[C(52-5,2)]
p3884
V32/C(52,2)
p3885
(lp3886
(S'R.0'
p3887
F32.0
V4*8
p3888
V32
p3889
tp3890
a(S'R.1.1'
p3891
F2.0
g2229
g2229
tp3892
aVsayao
p3893
g795
V2015-10-21 16:34:01
p3894
tp3895
a(g1847
V(4*8)C(52,2)
p3896
(lp3897
(S'R.0'
p3898
F32.0
V4*8
p3899
V4*8
p3900
tp3901
a(S'R.1.1'
p3902
F2.0
g2229
g2229
tp3903
aVmbl003
p3904
g1156
V2015-10-21 20:02:10
p3905
tp3906
a(g1847
V(4*8)/C(52,2)
p3907
(lp3908
(S'R.0'
p3909
F32.0
V4*8
p3910
V4*8
p3911
tp3912
a(S'R.1.1'
p3913
F2.0
g2229
g2229
tp3914
aVmbl003
p3915
g1156
V2015-10-21 20:02:17
p3916
tp3917
a(g3227
V(C(4,1)*C(8,1))/(C(48,2))
p3918
(lp3919
(S'R.0'
p3920
F32.0
V4*8
p3921
VC(4,1)*C(8,1)
p3922
tp3923
a(S'R.1.1'
p3924
F2.0
g2229
g2229
tp3925
aVytc012
p3926
g3235
V2015-10-21 21:44:13
p3927
tp3928
a(g3305
V32/(C(52,2))
p3929
(lp3930
(S'R.0'
p3931
F32.0
V4*8
p3932
V32
p3933
tp3934
a(S'R.1.1'
p3935
F2.0
g2229
g2229
tp3936
aVv4sharma
p3937
g3313
V2015-10-22 01:17:17
p3938
tp3939
a(g3305
V32/(C(49,2))
p3940
(lp3941
(S'R.0'
p3942
F32.0
V4*8
p3943
V32
p3944
tp3945
a(S'R.1.1'
p3946
F2.0
g2229
g2229
tp3947
aVv4sharma
p3948
g3313
V2015-10-22 01:17:55
p3949
tp3950
a(V4*8/[C(52-5,2)]
p3951
V(2*4*4)/(C(48,2))
p3952
(lp3953
(S'R.0'
p3954
F32.0
V4*8
p3955
V2*4*4
p3956
tp3957
a(S'R.1.1'
p3958
F2.0
g2229
g2229
tp3959
aVjdeon
p3960
(lp3961
V2015-10-22 02:39:22
p3962
tp3963
a(g3484
V32/C(52,2)
p3964
(lp3965
(S'R.0'
p3966
F32.0
V4*8
p3967
V32
p3968
tp3969
a(S'R.1.1'
p3970
F2.0
g2229
g2229
tp3971
aVjfalcone
p3972
g3492
V2015-10-22 08:31:19
p3973
tp3974
a(g3495
V32/(C(48, 2))
p3975
(lp3976
(S'R.0'
p3977
F32.0
V4*8
p3978
V32
p3979
tp3980
a(S'R.1.1'
p3981
F2.0
g2229
g2229
tp3982
aVv4zhang
p3983
g3503
V2015-10-22 08:36:00
p3984
tp3985
a(g2368
V(32)/(C(42, 2))
p3986
(lp3987
(S'R.0'
p3988
F32.0
V4*8
p3989
V32
p3990
tp3991
a(S'R.1.1'
p3992
F2.0
g2229
g2229
tp3993
aVtdurrer
p3994
g2374
V2015-10-22 23:00:48
p3995
tp3996
a(V4*8/[C(52-5,2)]
p3997
V32/C(48,2)
p3998
(lp3999
(S'R.0'
p4000
F32.0
V4*8
p4001
V32
p4002
tp4003
a(S'R.1.1'
p4004
F2.0
g2229
g2229
tp4005
aVt2li
p4006
(lp4007
V2015-10-22 23:18:11
p4008
tp4009
asS'Wrong_Sign'
p4010
(lp4011
(g1681
V32/ (C(52,2) - C(52,2) - C(52,3))
p4012
tp4013
a(g1681
V32/ (C(52,2) - C(13,2) - C(52,3))
p4014
tp4015
a(g2933
V1-3*4
p4016
tp4017
a(g1647
V[C(47,2)-3C(43,2)]/[C(47,2)]
p4018
tp4019
a(g1478
VC(32,2)- C(20,5)
p4020
tp4021
a(g1478
V1- (C(47,2))
p4022
tp4023
asS"['R.1.0.0']"
p4024
(lp4025
(g1805
V4/C(52-7,4)
p4026
(lp4027
(S'R.1.0.0'
p4028
F52.0
V52
p4029
V52
p4030
tp4031
aVskodigal
p4032
g1813
V2015-10-22 00:44:33
p4033
tp4034
a(g1805
V4/C((52-7),4)
p4035
(lp4036
(S'R.1.0.0'
p4037
F52.0
V52
p4038
V52
p4039
tp4040
aVskodigal
p4041
g1813
V2015-10-22 00:44:48
p4042
tp4043
asS"['R.0', 'R.1']"
p4044
(lp4045
(g1656
V(4*8)C(52-5,2)
p4046
(lp4047
(S'R.0'
p4048
F32.0
V4*8
p4049
V4*8
p4050
tp4051
a(S'R.1'
p4052
I1081
VC(52-5,2)
p4053
VC(52-5,2)
p4054
tp4055
aVdtea
p4056
g1662
V2015-10-22 22:37:46
p4057
tp4058
a(g1656
V(4*8)*C(52-5,2)
p4059
(lp4060
(S'R.0'
p4061
F32.0
V4*8
p4062
V4*8
p4063
tp4064
a(S'R.1'
p4065
I1081
VC(52-5,2)
p4066
VC(52-5,2)
p4067
tp4068
aVdtea
p4069
g1662
V2015-10-22 22:37:58
p4070
tp4071
asS"['R.0.1']"
p4072
(lp4073
(V4*8/[C(52-5,2)]
p4074
VC(56-5,2)*(4+4)/(56-5)
p4075
(lp4076
(S'R.0.1'
p4077
F8.0
g954
V4+4
p4078
tp4079
aVtjke
p4080
(lp4081
V2015-10-17 23:35:05
p4082
tp4083
a(g1752
V32/47 * 8/46
p4084
(lp4085
(S'R.0.1'
p4086
F8.0
g954
g954
tp4087
aVkquong
p4088
g1760
V2015-10-18 03:51:18
p4089
tp4090
a(g1334
V(4*8)*8/((52-5))
p4091
(lp4092
(S'R.0.1'
p4093
F8.0
g954
g954
tp4094
aVhaw081
p4095
g1340
V2015-10-21 06:05:58
p4096
tp4097
a(V4*8/[C(52-5,2)]
p4098
V4/47*8/46
p4099
(lp4100
(S'R.0.1'
p4101
F8.0
g954
g954
tp4102
aVarc013
p4103
(lp4104
V2015-10-21 09:35:58
p4105
tp4106
a(g3151
V4/47*8/39
p4107
(lp4108
(S'R.0.1'
p4109
F8.0
g954
g954
tp4110
aVs1powers
p4111
g819
V2015-10-21 18:48:43
p4112
tp4113
a(g1493
V4/47 * 8/43
p4114
(lp4115
(S'R.0.1'
p4116
F8.0
g954
g954
tp4117
aVcstringh
p4118
g1230
V2015-10-21 22:49:22
p4119
tp4120
asS"['R.0', 'R.1.0.0', 'R.1.1']"
p4121
(lp4122
(g2424
V32/C(52-7,2)
p4123
(lp4124
(S'R.0'
p4125
F32.0
V4*8
p4126
V32
p4127
tp4128
a(S'R.1.0.0'
p4129
F52.0
V52
p4130
V52
p4131
tp4132
a(S'R.1.1'
p4133
F2.0
g2229
g2229
tp4134
aVvolim
p4135
g2438
V2015-10-21 02:38:01
p4136
tp4137
asS"['R.0', 'R.1.0']"
p4138
(lp4139
(V4*8/[C(52-5,2)]
p4140
V32/(47*46)
p4141
(lp4142
(S'R.0'
p4143
F32.0
V4*8
p4144
V32
p4145
tp4146
a(S'R.1.0'
p4147
F47.0
V52-5
p4148
V47
p4149
tp4150
aVzig006
p4151
(lp4152
V2015-10-17 00:05:53
p4153
tp4154
a(g1752
V32/(47*46)
p4155
(lp4156
(S'R.0'
p4157
F32.0
V4*8
p4158
V32
p4159
tp4160
a(S'R.1.0'
p4161
F47.0
V52-5
p4162
V47
p4163
tp4164
aVkquong
p4165
g1760
V2015-10-17 23:25:06
p4166
tp4167
a(g1319
V32/(47*46)
p4168
(lp4169
(S'R.0'
p4170
F32.0
V4*8
p4171
V32
p4172
tp4173
a(S'R.1.0'
p4174
F47.0
V52-5
p4175
V47
p4176
tp4177
aVglcohen
p4178
g720
V2015-10-17 23:51:20
p4179
tp4180
a(g2392
V32/((47)*(46))
p4181
(lp4182
(S'R.0'
p4183
F32.0
V4*8
p4184
V32
p4185
tp4186
a(S'R.1.0'
p4187
F47.0
V52-5
p4188
V47
p4189
tp4190
aVaggouw
p4191
g2406
V2015-10-18 02:39:51
p4192
tp4193
a(g1334
V(4*(4+4))/C(52-5,3)
p4194
(lp4195
(S'R.0'
p4196
F32.0
V4*8
p4197
V4*(4+4)
p4198
tp4199
a(S'R.1.0'
p4200
F47.0
V52-5
p4201
V52-5
p4202
tp4203
aVhaw081
p4204
g1340
V2015-10-18 06:48:54
p4205
tp4206
a(V4*8/[C(52-5,2)]
p4207
V32/(47*46)
p4208
(lp4209
(S'R.0'
p4210
F32.0
V4*8
p4211
V32
p4212
tp4213
a(S'R.1.0'
p4214
F47.0
V52-5
p4215
V47
p4216
tp4217
aVrlhagen
p4218
g738
V2015-10-18 17:33:41
p4219
tp4220
a(g1847
V32/((52-5)*(51-5))
p4221
(lp4222
(S'R.0'
p4223
F32.0
V4*8
p4224
V32
p4225
tp4226
a(S'R.1.0'
p4227
F47.0
V52-5
p4228
V52-5
p4229
tp4230
aVmbl003
p4231
g1156
V2015-10-18 20:33:14
p4232
tp4233
a(g1847
V(4*8)/(47*46)
p4234
(lp4235
(S'R.0'
p4236
F32.0
V4*8
p4237
V4*8
p4238
tp4239
a(S'R.1.0'
p4240
F47.0
V52-5
p4241
V47
p4242
tp4243
aVmbl003
p4244
g1156
V2015-10-18 20:36:55
p4245
tp4246
a(g1763
V32/C(47,3)
p4247
(lp4248
(S'R.0'
p4249
F32.0
V4*8
p4250
V32
p4251
tp4252
a(S'R.1.0'
p4253
F47.0
V52-5
p4254
V47
p4255
tp4256
aVr9jiang
p4257
g1771
V2015-10-18 21:14:02
p4258
tp4259
a(V4*8/[C(52-5,2)]
p4260
V32/(47*46)
p4261
(lp4262
(S'R.0'
p4263
F32.0
V4*8
p4264
V32
p4265
tp4266
a(S'R.1.0'
p4267
F47.0
V52-5
p4268
V47
p4269
tp4270
aVthwan
p4271
g1166
V2015-10-18 23:54:38
p4272
tp4273
a(g2248
V32/(47*46)
p4274
(lp4275
(S'R.0'
p4276
F32.0
V4*8
p4277
V32
p4278
tp4279
a(S'R.1.0'
p4280
F47.0
V52-5
p4281
V47
p4282
tp4283
aVgsrandha
p4284
g746
V2015-10-19 05:14:20
p4285
tp4286
a(g1352
V(32)/(47*46)
p4287
(lp4288
(S'R.0'
p4289
F32.0
V4*8
p4290
V32
p4291
tp4292
a(S'R.1.0'
p4293
F47.0
V52-5
p4294
V47
p4295
tp4296
aVabasu
p4297
g1358
V2015-10-19 05:18:53
p4298
tp4299
a(g1352
V(8*4)/(47*46)
p4300
(lp4301
(S'R.0'
p4302
F32.0
V4*8
p4303
V8*4
p4304
tp4305
a(S'R.1.0'
p4306
F47.0
V52-5
p4307
V47
p4308
tp4309
aVabasu
p4310
g1358
V2015-10-19 05:25:05
p4311
tp4312
a(g1774
V32/(47*46)
p4313
(lp4314
(S'R.0'
p4315
F32.0
V4*8
p4316
V32
p4317
tp4318
a(S'R.1.0'
p4319
F47.0
V52-5
p4320
V47
p4321
tp4322
aVaakumar
p4323
g1782
V2015-10-19 05:46:45
p4324
tp4325
a(g1352
V32/(47*46)
p4326
(lp4327
(S'R.0'
p4328
F32.0
V4*8
p4329
V32
p4330
tp4331
a(S'R.1.0'
p4332
F47.0
V52-5
p4333
V47
p4334
tp4335
aVabasu
p4336
g1358
V2015-10-19 05:48:32
p4337
tp4338
a(g1247
V32/(47*46)
p4339
(lp4340
(S'R.0'
p4341
F32.0
V4*8
p4342
V32
p4343
tp4344
a(S'R.1.0'
p4345
F47.0
V52-5
p4346
V47
p4347
tp4348
aVdsmonaha
p4349
g1883
V2015-10-19 16:05:47
p4350
tp4351
a(g2848
V32 / (C(47, 3))
p4352
(lp4353
(S'R.0'
p4354
F32.0
V4*8
p4355
V32
p4356
tp4357
a(S'R.1.0'
p4358
F47.0
V52-5
p4359
V47
p4360
tp4361
aVv3doan
p4362
g2856
V2015-10-20 04:56:54
p4363
tp4364
a(g1681
V32/ (C(47,5))
p4365
(lp4366
(S'R.0'
p4367
F32.0
V4*8
p4368
V32
p4369
tp4370
a(S'R.1.0'
p4371
F47.0
V52-5
p4372
V47
p4373
tp4374
aVachava
p4375
g1693
V2015-10-20 07:07:56
p4376
tp4377
a(g2904
V32/(47*46)
p4378
(lp4379
(S'R.0'
p4380
F32.0
V4*8
p4381
V32
p4382
tp4383
a(S'R.1.0'
p4384
F47.0
V52-5
p4385
V47
p4386
tp4387
aVsippolit
p4388
g2912
V2015-10-20 07:15:03
p4389
tp4390
a(V4*8/[C(52-5,2)]
p4391
V32/(47*46)
p4392
(lp4393
(S'R.0'
p4394
F32.0
V4*8
p4395
V32
p4396
tp4397
a(S'R.1.0'
p4398
F47.0
V52-5
p4399
V47
p4400
tp4401
aVmasaro
p4402
(lp4403
V2015-10-20 15:04:12
p4404
tp4405
a(V4*8/[C(52-5,2)]
p4406
V32/(47 * 46)
p4407
(lp4408
(S'R.0'
p4409
F32.0
V4*8
p4410
V32
p4411
tp4412
a(S'R.1.0'
p4413
F47.0
V52-5
p4414
V47
p4415
tp4416
aVdando
p4417
(lp4418
V2015-10-20 15:47:33
p4419
tp4420
a(g2254
V32/(47*46)
p4421
(lp4422
(S'R.0'
p4423
F32.0
V4*8
p4424
V32
p4425
tp4426
a(S'R.1.0'
p4427
F47.0
V52-5
p4428
V47
p4429
tp4430
aVsghouse
p4431
(lp4432
V2015-10-20 15:51:18
p4433
tp4434
a(g2933
V(4*8)/((52-5)*(52-6))
p4435
(lp4436
(S'R.0'
p4437
F32.0
V4*8
p4438
V4*8
p4439
tp4440
a(S'R.1.0'
p4441
F47.0
V52-5
p4442
V52-5
p4443
tp4444
aVttimmons
p4445
g2941
V2015-10-20 17:31:06
p4446
tp4447
a(g2975
V32/(47 * 46)
p4448
(lp4449
(S'R.0'
p4450
F32.0
V4*8
p4451
V32
p4452
tp4453
a(S'R.1.0'
p4454
F47.0
V52-5
p4455
V47
p4456
tp4457
aVrwthomps
p4458
g2983
V2015-10-20 22:31:59
p4459
tp4460
a(V4*8/[C(52-5,2)]
p4461
V32/P(47,5)
p4462
(lp4463
(S'R.0'
p4464
F32.0
V4*8
p4465
V32
p4466
tp4467
a(S'R.1.0'
p4468
F47.0
V52-5
p4469
V47
p4470
tp4471
aVawollner
p4472
(lp4473
V2015-10-20 22:42:43
p4474
tp4475
a(g4461
V32/C(47,5)
p4476
(lp4477
(S'R.0'
p4478
F32.0
V4*8
p4479
V32
p4480
tp4481
a(S'R.1.0'
p4482
F47.0
V52-5
p4483
V47
p4484
tp4485
aVawollner
p4486
g4473
V2015-10-20 22:42:51
p4487
tp4488
a(g2261
V32/(47*46)
p4489
(lp4490
(S'R.0'
p4491
F32.0
V4*8
p4492
V32
p4493
tp4494
a(S'R.1.0'
p4495
F47.0
V52-5
p4496
V47
p4497
tp4498
aVlahawkin
p4499
(lp4500
V2015-10-20 23:11:22
p4501
tp4502
a(V4*8/[C(52-5,2)]
p4503
V32/(47*46)
p4504
(lp4505
(S'R.0'
p4506
F32.0
V4*8
p4507
V32
p4508
tp4509
a(S'R.1.0'
p4510
F47.0
V52-5
p4511
V47
p4512
tp4513
aVksmurlo
p4514
g779
V2015-10-20 23:43:28
p4515
tp4516
a(g1432
V4*8/(47*46)
p4517
(lp4518
(S'R.0'
p4519
F32.0
V4*8
p4520
V4*8
p4521
tp4522
a(S'R.1.0'
p4523
F47.0
V52-5
p4524
V47
p4525
tp4526
aVdjk006
p4527
g1438
V2015-10-20 23:55:40
p4528
tp4529
a(g1432
V32/(47*46)
p4530
(lp4531
(S'R.0'
p4532
F32.0
V4*8
p4533
V32
p4534
tp4535
a(S'R.1.0'
p4536
F47.0
V52-5
p4537
V47
p4538
tp4539
aVdjk006
p4540
g1438
V2015-10-21 00:00:27
p4541
tp4542
a(g3034
V4*8/(52-5)!
p4543
(lp4544
(S'R.0'
p4545
F32.0
V4*8
p4546
V4*8
p4547
tp4548
a(S'R.1.0'
p4549
F47.0
V52-5
p4550
V52-5
p4551
tp4552
aVctgraves
p4553
g3042
V2015-10-21 01:30:19
p4554
tp4555
a(g1794
V32/(47*46)
p4556
(lp4557
(S'R.0'
p4558
F32.0
V4*8
p4559
V32
p4560
tp4561
a(S'R.1.0'
p4562
F47.0
V52-5
p4563
V47
p4564
tp4565
aVdcgriffi
p4566
g1802
V2015-10-21 01:43:15
p4567
tp4568
a(g2424
V32/(47*46)
p4569
(lp4570
(S'R.0'
p4571
F32.0
V4*8
p4572
V32
p4573
tp4574
a(S'R.1.0'
p4575
F47.0
V52-5
p4576
V47
p4577
tp4578
aVvolim
p4579
g2438
V2015-10-21 02:34:24
p4580
tp4581
a(g3305
V32/(47*46)
p4582
(lp4583
(S'R.0'
p4584
F32.0
V4*8
p4585
V32
p4586
tp4587
a(S'R.1.0'
p4588
F47.0
V52-5
p4589
V47
p4590
tp4591
aVv4sharma
p4592
g3313
V2015-10-21 05:05:21
p4593
tp4594
a(g1334
V(4*8)/((52-5)(52-7))
p4595
(lp4596
(S'R.0'
p4597
F32.0
V4*8
p4598
V4*8
p4599
tp4600
a(S'R.1.0'
p4601
F47.0
V52-5
p4602
V52-5
p4603
tp4604
aVhaw081
p4605
g1340
V2015-10-21 06:05:40
p4606
tp4607
a(g1722
V(4*8)/(47!)
p4608
(lp4609
(S'R.0'
p4610
F32.0
V4*8
p4611
V4*8
p4612
tp4613
a(S'R.1.0'
p4614
F47.0
V52-5
p4615
V47
p4616
tp4617
aVyos017
p4618
g1734
V2015-10-21 07:37:35
p4619
tp4620
a(g2274
V32/(47*47)
p4621
(lp4622
(S'R.0'
p4623
F32.0
V4*8
p4624
V32
p4625
tp4626
a(S'R.1.0'
p4627
F47.0
V52-5
p4628
V47
p4629
tp4630
aVjel075
p4631
g3126
V2015-10-21 07:49:10
p4632
tp4633
a(g2274
V32/(47*46)
p4634
(lp4635
(S'R.0'
p4636
F32.0
V4*8
p4637
V32
p4638
tp4639
a(S'R.1.0'
p4640
F47.0
V52-5
p4641
V47
p4642
tp4643
aVjel075
p4644
g3126
V2015-10-21 07:49:28
p4645
tp4646
a(g3151
V4*8 / (47*46)
p4647
(lp4648
(S'R.0'
p4649
F32.0
V4*8
p4650
V4*8
p4651
tp4652
a(S'R.1.0'
p4653
F47.0
V52-5
p4654
V47
p4655
tp4656
aVs1powers
p4657
g819
V2015-10-21 18:53:11
p4658
tp4659
a(g2282
V32/(C(47,3))
p4660
(lp4661
(S'R.0'
p4662
F32.0
V4*8
p4663
V32
p4664
tp4665
a(S'R.1.0'
p4666
F47.0
V52-5
p4667
V47
p4668
tp4669
aVdcastlem
p4670
g810
V2015-10-21 20:36:57
p4671
tp4672
a(V4*8/[C(52-5,2)]
p4673
V32/(47*46)
p4674
(lp4675
(S'R.0'
p4676
F32.0
V4*8
p4677
V32
p4678
tp4679
a(S'R.1.0'
p4680
F47.0
V52-5
p4681
V47
p4682
tp4683
aVjcj006
p4684
(lp4685
V2015-10-21 22:10:38
p4686
tp4687
a(g3276
V32/(47*46)
p4688
(lp4689
(S'R.0'
p4690
F32.0
V4*8
p4691
V32
p4692
tp4693
a(S'R.1.0'
p4694
F47.0
V52-5
p4695
V47
p4696
tp4697
aVewbrenna
p4698
g3284
V2015-10-21 23:28:24
p4699
tp4700
a(g1805
V32/C(47,32)
p4701
(lp4702
(S'R.0'
p4703
F32.0
V4*8
p4704
V32
p4705
tp4706
a(S'R.1.0'
p4707
F47.0
V52-5
p4708
V47
p4709
tp4710
aVskodigal
p4711
g1813
V2015-10-22 00:52:18
p4712
tp4713
a(g1264
V32/(C(47,12))
p4714
(lp4715
(S'R.0'
p4716
F32.0
V4*8
p4717
V32
p4718
tp4719
a(S'R.1.0'
p4720
F47.0
V52-5
p4721
V47
p4722
tp4723
aVtpmach
p4724
g850
V2015-10-22 01:36:40
p4725
tp4726
a(g3325
V32/47!
p4727
(lp4728
(S'R.0'
p4729
F32.0
V4*8
p4730
V32
p4731
tp4732
a(S'R.1.0'
p4733
F47.0
V52-5
p4734
V47
p4735
tp4736
aVajabasa
p4737
g912
V2015-10-22 02:07:33
p4738
tp4739
a(g3325
V32/(47*46)
p4740
(lp4741
(S'R.0'
p4742
F32.0
V4*8
p4743
V32
p4744
tp4745
a(S'R.1.0'
p4746
F47.0
V52-5
p4747
V47
p4748
tp4749
aVajabasa
p4750
g912
V2015-10-22 02:07:51
p4751
tp4752
a(V4*8/[C(52-5,2)]
p4753
V32/C(47,32)
p4754
(lp4755
(S'R.0'
p4756
F32.0
V4*8
p4757
V32
p4758
tp4759
a(S'R.1.0'
p4760
F47.0
V52-5
p4761
V47
p4762
tp4763
aVkalang
p4764
g965
V2015-10-22 02:54:20
p4765
tp4766
a(V4*8/[C(52-5,2)]
p4767
V(8*4)/(C(47,5))
p4768
(lp4769
(S'R.0'
p4770
F32.0
V4*8
p4771
V8*4
p4772
tp4773
a(S'R.1.0'
p4774
F47.0
V52-5
p4775
V47
p4776
tp4777
aVaysee
p4778
(lp4779
V2015-10-22 03:42:46
p4780
tp4781
a(g3325
V32/(C(47,3))
p4782
(lp4783
(S'R.0'
p4784
F32.0
V4*8
p4785
V32
p4786
tp4787
a(S'R.1.0'
p4788
F47.0
V52-5
p4789
V47
p4790
tp4791
aVajabasa
p4792
g912
V2015-10-22 05:36:39
p4793
tp4794
a(V4*8/[C(52-5,2)]
p4795
V4*4*2/(C(47,3))
p4796
(lp4797
(S'R.0'
p4798
F32.0
V4*8
p4799
V4*4*2
p4800
tp4801
a(S'R.1.0'
p4802
F47.0
V52-5
p4803
V47
p4804
tp4805
aVrraiyyan
p4806
(lp4807
V2015-10-22 06:26:17
p4808
tp4809
a(g3464
V32/(47*46)
p4810
(lp4811
(S'R.0'
p4812
F32.0
V4*8
p4813
V32
p4814
tp4815
a(S'R.1.0'
p4816
F47.0
V52-5
p4817
V47
p4818
tp4819
aVjhc010
p4820
g3472
V2015-10-22 07:25:22
p4821
tp4822
a(g3464
V32/(47*46)
p4823
(lp4824
(S'R.0'
p4825
F32.0
V4*8
p4826
V32
p4827
tp4828
a(S'R.1.0'
p4829
F47.0
V52-5
p4830
V47
p4831
tp4832
aVjhc010
p4833
g3472
V2015-10-22 07:45:03
p4834
tp4835
a(V4*8/[C(52-5,2)]
p4836
V32/(47*46)
p4837
(lp4838
(S'R.0'
p4839
F32.0
V4*8
p4840
V32
p4841
tp4842
a(S'R.1.0'
p4843
F47.0
V52-5
p4844
V47
p4845
tp4846
aVppanourg
p4847
(lp4848
V2015-10-22 10:12:58
p4849
tp4850
a(g2084
V32/(47/(2!*45!))
p4851
(lp4852
(S'R.0'
p4853
F32.0
V4*8
p4854
V32
p4855
tp4856
a(S'R.1.0'
p4857
F47.0
V52-5
p4858
V47
p4859
tp4860
aVdlgoldbe
p4861
g2092
V2015-10-22 15:55:12
p4862
tp4863
a(V4*8/[C(52-5,2)]
p4864
V32/(47*46)
p4865
(lp4866
(S'R.0'
p4867
F32.0
V4*8
p4868
V32
p4869
tp4870
a(S'R.1.0'
p4871
F47.0
V52-5
p4872
V47
p4873
tp4874
aVh4tu
p4875
(lp4876
V2015-10-22 16:06:14
p4877
tp4878
a(g3576
V32 / (47 * 46 )
p4879
(lp4880
(S'R.0'
p4881
F32.0
V4*8
p4882
V32
p4883
tp4884
a(S'R.1.0'
p4885
F47.0
V52-5
p4886
V47
p4887
tp4888
aVdac064
p4889
g3584
V2015-10-22 20:20:20
p4890
tp4891
a(g3596
V32/(47*46)
p4892
(lp4893
(S'R.0'
p4894
F32.0
V4*8
p4895
V32
p4896
tp4897
a(S'R.1.0'
p4898
F47.0
V52-5
p4899
V47
p4900
tp4901
aVtcn013
p4902
g3604
V2015-10-22 21:01:57
p4903
tp4904
a(V4*8/[C(52-5,2)]
p4905
V32/(47*46)
p4906
(lp4907
(S'R.0'
p4908
F32.0
V4*8
p4909
V32
p4910
tp4911
a(S'R.1.0'
p4912
F47.0
V52-5
p4913
V47
p4914
tp4915
aVakg009
p4916
(lp4917
V2015-10-22 22:26:53
p4918
tp4919
a(g3643
V32/(52-5)!
p4920
(lp4921
(S'R.0'
p4922
F32.0
V4*8
p4923
V32
p4924
tp4925
a(S'R.1.0'
p4926
F47.0
V52-5
p4927
V52-5
p4928
tp4929
aVr2fisher
p4930
g3651
V2015-10-22 23:13:04
p4931
tp4932
asS"['R.0.0', 'R.1.0']"
p4933
(lp4934
(g3464
V(4*32)/(47*46)
p4935
(lp4936
(S'R.0.0'
p4937
F4.0
g691
g691
tp4938
a(S'R.1.0'
p4939
F47.0
V52-5
p4940
V47
p4941
tp4942
aVjhc010
p4943
g3472
V2015-10-22 07:30:39
p4944
tp4945
ass.