(dp0
V1
p1
ccollections
defaultdict
p2
(c__builtin__
list
p3
tp4
Rp5
S'Digits'
p6
(lp7
(V0.636363636363636
p8
V4
p9
tp10
a(V0.583333333333333
p11
V50
p12
tp13
a(V0.583333333333333
p14
V7
p15
tp16
a(V0.666666666666667
p17
V1
p18
tp19
a(V0.666666666666667
p20
V2
p21
tp22
ass.