(dp0
V1
p1
ccollections
defaultdict
p2
(c__builtin__
list
p3
tp4
Rp5
S'Digits'
p6
(lp7
(V3
p8
V2
p9
tp10
a(g8
V1
p11
tp12
a(g8
V4
p13
tp14
a(V3
p15
V6
p16
tp17
a(V3
p18
V2
p19
tp20
a(V3
p21
V24
p22
tp23
a(g21
V6
p24
tp25
a(V3
p26
V2
p27
tp28
a(g26
V4
p29
tp30
a(V3
p31
V2
p32
tp33
a(V3
p34
V4
p35
tp36
a(V3
p37
V2
p38
tp39
a(g37
V4
p40
tp41
a(V3
p42
V1
p43
tp44
a(g42
V2
p45
tp46
a(V3
p47
V2
p48
tp49
a(V3
p50
V2
p51
tp52
a(V3
p53
V1,225
p54
tp55
a(g53
V1225
p56
tp57
a(g53
V32
p58
tp59
a(V3
p60
V1,225
p61
tp62
a(g60
V1225
p63
tp64
a(V3
p65
V2
p66
tp67
a(V3
p68
V2
p69
tp70
a(V3
p71
V6
p72
tp73
a(g71
V8
p74
tp75
a(g71
V6
p76
tp77
a(g71
V4
p78
tp79
a(V3
p80
V0
p81
tp82
a(g80
V2
p83
tp84
a(V3
p85
V1
p86
tp87
a(V3
p88
V32
p89
tp90
a(g88
V2
p91
tp92
a(V3
p93
V2
p94
tp95
a(g93
V1
p96
tp97
a(V3
p98
V2
p99
tp100
a(g98
V4
p101
tp102
a(V3
p103
V1
p104
tp105
a(g103
V2
p106
tp107
a(V3
p108
V32
p109
tp110
a(g108
V48
p111
tp112
a(g108
V4
p113
tp114
a(g108
V6
p115
tp116
a(V3
p117
V2
p118
tp119
a(g117
V4
p120
tp121
a(V3
p122
V16
p123
tp124
a(g122
V32
p125
tp126
a(g122
V4
p127
tp128
a(V3
p129
V2
p130
tp131
a(g129
V4
p132
tp133
a(V3
p134
V2
p135
tp136
a(g134
V4
p137
tp138
a(g134
V1
p139
tp140
a(g134
V2
p141
tp142
a(V3
p143
V4
p144
tp145
a(V3
p146
V2
p147
tp148
a(V3
p149
V16
p150
tp151
a(g149
V4
p152
tp153
a(V3
p154
V2
p155
tp156
a(g154
V4
p157
tp158
a(V3
p159
V2
p160
tp161
a(g149
V2
p162
tp163
a(g149
V4
p164
tp165
a(g149
V16
p166
tp167
a(g149
V1
p168
tp169
a(g149
V2
p170
tp171
a(g149
V4
p172
tp173
a(V3
p174
V4
p175
tp176
a(g174
V2
p177
tp178
a(g174
V1
p179
tp180
a(V3
p181
V16
p182
tp183
a(g181
V64
p184
tp185
a(g181
V48
p186
tp187
a(g181
V96
p188
tp189
a(g181
V6
p190
tp191
a(V3
p192
V4
p193
tp194
a(V3
p195
V12
p196
tp197
a(g195
V16
p198
tp199
a(g195
V64
p200
tp201
a(g195
V24
p202
tp203
a(g195
V32
p204
tp205
a(V3
p206
V2
p207
tp208
a(V3
p209
V2
p210
tp211
a(V3
p212
V4
p213
tp214
a(g212
V6
p215
tp216
a(V3
p217
V2
p218
tp219
a(V3
p220
V4
p221
tp222
a(g220
V2
p223
tp224
a(V3
p225
V6
p226
tp227
a(V3
p228
V6
p229
tp230
a(V3
p231
V2
p232
tp233
a(V3
p234
V12
p235
tp236
a(V3
p237
V1
p238
tp239
a(g237
V2
p240
tp241
a(V3
p242
V2
p243
tp244
a(V3
p245
V8
p246
tp247
a(g245
V4
p248
tp249
a(g245
V16
p250
tp251
a(g245
V2
p252
tp253
a(V3
p254
V2
p255
tp256
a(V3
p257
V6
p258
tp259
a(g257
V2
p260
tp261
a(g257
V8
p262
tp263
a(g257
V24
p264
tp265
a(g257
V16
p266
tp267
a(g257
V2
p268
tp269
a(g257
V1
p270
tp271
a(g257
V2
p272
tp273
a(V3
p274
V2
p275
tp276
a(g274
V4
p277
tp278
a(g245
V5
p279
tp280
a(V3
p281
V2715
p282
tp283
a(g149
V4
p284
tp285
a(g149
V2
p286
tp287
a(g149
V8
p288
tp289
a(g149
V1
p290
tp291
a(g149
V2
p292
tp293
a(V3
p294
V2
p295
tp296
a(V3
p297
V1
p298
tp299
a(g297
V2
p300
tp301
a(V3
p302
V5
p303
tp304
a(V3
p305
V2
p306
tp307
a(V3
p308
V2
p309
tp310
a(V3
p311
V48
p312
tp313
a(g311
V64
p314
tp315
a(g311
V8
p316
tp317
a(g311
V4
p318
tp319
a(g311
V32
p320
tp321
a(g311
V4
p322
tp323
a(g311
V2
p324
tp325
a(V3
p326
V2
p327
tp328
a(g326
V4
p329
tp330
a(g326
V6
p331
tp332
a(g326
V8
p333
tp334
a(g326
V6
p335
tp336
a(V3
p337
V12
p338
tp339
a(g337
V2
p340
tp341
a(V3
p342
V2
p343
tp344
a(g342
V4
p345
tp346
a(V3
p347
V2
p348
tp349
a(V3
p350
V4
p351
tp352
a(V3
p353
V2
p354
tp355
a(V3
p356
V2
p357
tp358
a(V3
p359
V2
p360
tp361
a(V3
p362
V32
p363
tp364
a(V3
p365
V2
p366
tp367
a(g365
V8
p368
tp369
a(g365
V4
p370
tp371
a(V3
p372
V4
p373
tp374
a(g372
V2
p375
tp376
a(g362
V64
p377
tp378
a(g362
V48
p379
tp380
a(g365
V2
p381
tp382
a(g365
V1
p383
tp384
a(g365
V16
p385
tp386
a(g365
V1
p387
tp388
a(g365
V2
p389
tp390
a(g365
V1
p391
tp392
a(V3
p393
V2
p394
tp395
a(g393
V4
p396
tp397
a(V3
p398
V4
p399
tp400
a(V3
p401
V2
p402
tp403
a(g401
V4
p404
tp405
a(V3
p406
V2
p407
tp408
a(g406
V89
p409
tp410
a(g406
V87
p411
tp412
a(V3
p413
V48
p414
tp415
a(V3
p416
V32
p417
tp418
a(g416
V2
p419
tp420
a(g416
V4
p421
tp422
a(V3
p423
V5
p424
tp425
a(V3
p426
V4
p427
tp428
a(V3
p429
V4
p430
tp431
a(g429
V4
p432
tp433
a(g429
V8
p434
tp435
a(g429
V16
p436
tp437
a(g429
V2
p438
tp439
a(g429
V8
p440
tp441
a(g429
V6
p442
tp443
a(g429
V9
p444
tp445
a(g429
V5
p446
tp447
a(g429
V6
p448
tp449
a(g429
V7
p450
tp451
a(g429
V8
p452
tp453
a(g429
V10
p454
tp455
a(V3
p456
V2
p457
tp458
a(g456
V4
p459
tp460
a(V3
p461
V1
p462
tp463
a(V3
p464
V2
p465
tp466
a(g372
V2
p467
tp468
a(V3
p469
V32
p470
tp471
a(g469
V2
p472
tp473
a(V3
p474
V2
p475
tp476
a(V3
p477
V2
p478
tp479
a(g477
V1
p480
tp481
a(g234
V32
p482
tp483
a(g234
V2
p484
tp485
a(V3
p486
V2
p487
tp488
a(g486
V4
p489
tp490
a(g486
V16
p491
tp492
a(V3
p493
V4
p494
tp495
a(g493
V4
p496
tp497
a(V3
p498
V2
p499
tp500
a(V3
p501
V129
p502
tp503
a(g501
V249
p504
tp505
a(g501
V6
p506
tp507
a(V3
p508
V2
p509
tp510
a(g508
V4
p511
tp512
a(g508
V8
p513
tp514
a(g508
V6
p515
tp516
a(V3
p517
V2
p518
tp519
a(V3
p520
V2
p521
tp522
a(V3
p523
V6
p524
tp525
a(V3
p526
V1
p527
tp528
a(V3
p529
V4
p530
tp531
a(g529
V2
p532
tp533
a(g529
V1
p534
tp535
a(V3
p536
V4
p537
tp538
a(V3
p539
V2
p540
tp541
a(V3
p542
V2
p543
tp544
a(g542
V4
p545
tp546
a(g542
V2
p547
tp548
a(g542
V148995
p549
tp550
a(g542
V990
p551
tp552
a(g542
V1980
p553
tp554
a(V3
p555
V4
p556
tp557
a(g555
V2
p558
tp559
a(g555
V2
p560
tp561
a(g542
V148995
p562
tp563
a(g542
V1
p564
tp565
a(g542
V2
p566
tp567
a(V3
p568
V2
p569
tp570
a(V3
p571
V2
p572
tp573
a(V3
p574
V178
p575
tp576
a(g574
V261
p577
tp578
a(g574
V91
p579
tp580
a(g574
V820
p581
tp582
a(V3
p583
V2
p584
tp585
a(g574
V2
p586
tp587
asS'Wrong_Sign'
p588
(lp589
(V3
p590
V(1-3)/C(52-7,2)
p591
tp592
a(V3
p593
V(1-3)/C(52-7,2)
p594
tp595
a(V3
p596
V-2/C(45,2)
p597
tp598
asS"['R']"
p599
(lp600
(V3
p601
V3
p602
(lp603
(S'R'
p604
F3.0
g601
g602
tp605
aVaggouw
p606
(lp607
V2015-10-21 08:53:12
p608
tp609
asS'Fraction'
p610
(lp611
(g53
V3/990
p612
tp613
a(g53
V3/990
p614
tp615
a(g53
V1-3/C(52-7,2)
p616
tp617
a(V3
p618
V1-3/C(52-7,2)
p619
tp620
a(g60
V1-3/C(52-7,2)
p621
tp622
a(g60
V1-3/C(52-7,2)
p623
tp624
a(g590
V1-3/C(52-7,2)
p625
tp626
a(V3
p627
V1- 3/C(52-7,2)
p628
tp629
a(g627
V1-3/C(52-7,2)
p630
tp631
a(V3
p632
V1 - (3/C(52-7,2))
p633
tp634
a(g632
V1-3/C(52-7,2)
p635
tp636
a(V3
p637
V1-3/C(52-7,2)
p638
tp639
a(g593
V1-3/C(52-7,2)
p640
tp641
a(g593
V1-3/C(52-7,2)
p642
tp643
a(g593
V1-3/C(52-5,2)
p644
tp645
a(V3
p646
V8/(45!/(2!43!))
p647
tp648
a(g646
V6/(45!/(2!43!))
p649
tp650
a(V3
p651
V1-3/C(52-7,2)
p652
tp653
a(V3
p654
V3/990
p655
tp656
a(g654
V1-(3/990)
p657
tp658
a(V3
p659
V1-3/C(52-7,2)
p660
tp661
a(V3
p662
V1-[3/C(45,2)]
p663
tp664
a(g662
V1-3/C(45,2)
p665
tp666
a(g225
V1-3/C(45,2)
p667
tp668
a(g225
V3/C(45,2)
p669
tp670
a(V3
p671
V3/1225
p672
tp673
a(V3
p674
V1-3/C(52-7,2)
p675
tp676
a(V3
p677
V3/C(52-7,2)
p678
tp679
a(g677
V48/C(52-7,2)
p680
tp681
a(V3
p682
V1-3/990
p683
tp684
a(g682
V1-3/990
p685
tp686
a(g682
V(1-3/990)*(1-3/903)
p687
tp688
a(V3
p689
V1-3/C(52-7,2)
p690
tp691
a(V3
p692
V1-3/C(52-7,2)
p693
tp694
a(g461
V1-3/C(52-7,2)
p695
tp696
a(V3
p697
V1-3/C(52-7,2)
p698
tp699
a(V3
p700
V1-(3/C(52-7,2))
p701
tp702
a(V3
p703
V1-3/C(45,2)
p704
tp705
a(g703
V1-2/C(45,2)
p706
tp707
a(g703
V1-3/C(45,2)
p708
tp709
a(g542
V1/45
p710
tp711
a(g542
V(1/45)^2
p712
tp713
a(g542
V2/45
p714
tp715
a(V3
p716
V1-(3/(C(45,2)))
p717
tp718
a(g716
V1-3/C(52-7,2)
p719
tp720
a(g716
V1-(3/C(52-7,2))
p721
tp722
a(g574
V820/903
p723
tp724
assV2
p725
g2
(g3
tp726
Rp727
g6
(lp728
(V1-3/[C(52-7,2)]
p729
V1
p730
tp731
a(V1-3/[C(52-7,2)]
p732
V1
p733
tp734
a(V1-3/[C(52-7,2)]
p735
V1
p736
tp737
a(V1-3/[C(52-7,2)]
p738
V0
p739
tp740
a(V1-3/[C(52-7,2)]
p741
V5
p742
tp743
a(V1-3/[C(52-7,2)]
p744
V1
p745
tp746
a(g744
V1
p747
tp748
a(V1-3/[C(52-7,2)]
p749
V990
p750
tp751
a(g749
V987
p752
tp753
asS'redirect'
p754
(lp755
(V1-3/[C(52-7,2)]
p756
V3/1225
p757
tp758
a(g756
V.25
p759
tp760
a(g756
V2/1225
p761
tp762
a(g756
V99.7
p763
tp764
a(V1-3/[C(52-7,2)]
p765
V(1-3/C(52-7,2))*(1-3/C(52-9,2))
p766
tp767
a(V1-3/[C(52-7,2)]
p768
V(1-3/C(52-7,2))*(1-3/C(52-9,2))
p769
tp770
a(V1-3/[C(52-7,2)]
p771
V(1-3/C(52-7,2))*(1-3/C(52-9,2))
p772
tp773
a(V1-3/[C(52-7,2)]
p774
VC(52-7,2)/C(52,2)
p775
tp776
a(g774
V(1-3/C(52-7,2))*(1-3/C(52-9,2))
p777
tp778
a(V1-3/[C(52-7,2)]
p779
V(1 - (3/C(52-7,2)))*(1 - (3/C(52-9,2)))
p780
tp781
a(V1-3/[C(52-7,2)]
p782
V989/990
p783
tp784
a(V1-3/[C(52-7,2)]
p785
V(1-3/C(52-7,2))*(1-3/C(52-9,2))
p786
tp787
a(g785
V(1-3/C(52-5,2))*(1-3/C(52-9,2))
p788
tp789
a(V1-3/[C(52-7,2)]
p790
VC(8,2)/C(47,5)
p791
tp792
a(g790
VC(64,2)/C(47,5)
p793
tp794
a(V1-3/[C(52-7,2)]
p795
V(1-3/C(52-7,2))*(1-3/C(52-9,2))
p796
tp797
a(V1-3/[C(52-7,2)]
p798
V(1-3/C(52-7,2))*(1-3/C(52-9,2))
p799
tp800
a(V1-3/[C(52-7,2)]
p801
V3/1225
p802
tp803
a(V1-3/[C(52-7,2)]
p804
V2598948/2598960
p805
tp806
a(V1-3/[C(52-7,2)]
p807
V(1-3/C(52-7,2))*(1-3/C(52-9,2))
p808
tp809
a(V1-3/[C(52-7,2)]
p810
V157/165
p811
tp812
a(g810
V32/495
p813
tp814
a(g810
V8/990
p815
tp816
a(g810
V820/990
p817
tp818
a(g810
V903/990
p819
tp820
a(g810
V988/990
p821
tp822
a(g795
V1.0*(C(5,2)+2*6+3*2+3)/C(52-5,2)
p823
tp824
a(g795
V(1-3/C(52-7,2))*(1-3/C(52-9,2))
p825
tp826
a(V1-3/[C(52-7,2)]
p827
V0.0121212121
p828
tp829
a(g827
V0.00202020202
p830
tp831
a(V1-3/[C(52-7,2)]
p832
V2/C(45,2)
p833
tp834
a(V1-3/[C(52-7,2)]
p835
V(C(45,2)-1)/C(45,2)
p836
tp837
a(V1-3/[C(52-7,2)]
p838
V0.8
p839
tp840
a(g838
V48/49
p841
tp842
a(V1-3/[C(52-7,2)]
p843
V48/1081
p844
tp845
a(V1-3/[C(52-7,2)]
p846
V(1-3/C(52-7,2))*(1-3/C(52-9,2))
p847
tp848
a(V1-3/[C(52-7,2)]
p849
VC(20,5)
p850
tp851
a(g804
V32/C(45,2)
p852
tp853
a(g804
V2/C(45,2)
p854
tp855
a(V1-3/[C(52-7,2)]
p856
V(1-3/C(52-7,2))*(1-3/C(52-9,2))
p857
tp858
a(V1-3/[C(52-7,2)]
p859
V(1-(3/C(52-7,2)))*(1-(3/C(52-9,2)))
p860
tp861
a(V1-3/[C(52-7,2)]
p862
V(1-3/C(45,2))*(1-3/C(43,2))
p863
tp864
a(V1-3/[C(52-7,2)]
p865
V2/C(45,2)
p866
tp867
a(V1-3/[C(52-7,2)]
p868
V(1-3/C(52-7,2))*(1-3/C(52-9,2))
p869
tp870
asS"['R.1.0']"
p871
(lp872
(V1-3/[C(52-7,2)]
p873
V(C(43,2)-3/C(43,2))
p874
(lp875
(S'R.1.0'
p876
F3.0
V3
p877
g877
tp878
aVdkurli
p879
(lp880
V2015-10-21 04:17:23
p881
tp882
asS"['R.1']"
p883
(lp884
(V1-3/[C(52-7,2)]
p885
VC(52-5-2,2)-3/C(52-5-2,2)
p886
(lp887
(S'R.1'
p888
F0.0030303030303030303
V3/[C(52-7,2)]
p889
V3/C(52-5-2,2)
p890
tp891
aVsayao
p892
(lp893
V2015-10-21 22:46:54
p894
tp895
a(V1-3/[C(52-7,2)]
p896
VC(45, 2) - 3/ C(45,2)
p897
(lp898
(S'R.1'
p899
F0.0030303030303030303
V3/[C(52-7,2)]
p900
V3/ C(45,2)
p901
tp902
aVcsl030
p903
(lp904
V2015-10-22 04:20:19
p905
tp906
asS"['R.1.1']"
p907
(lp908
(V1-3/[C(52-7,2)]
p909
V1-(45!/(2!43!6!39!))/(45!/(2!43!))
p910
(lp911
(S'R.1.1'
p912
I990
VC(52-7,2)
p913
V45!/(2!43!)
p914
tp915
aVanvan
p916
(lp917
V2015-10-22 03:20:21
p918
tp919
a(g909
V1-(45!/(2!43!3!42!))/(45!/(2!43!))
p920
(lp921
(S'R.1.1'
p922
I990
VC(52-7,2)
p923
V45!/(2!43!)
p924
tp925
aVanvan
p926
g917
V2015-10-22 03:20:43
p927
tp928
asS"['R.0', 'R.1']"
p929
(lp930
(V1-3/[C(52-7,2)]
p931
V1/ (3/C(45,2))
p932
(lp933
(S'R.0'
p934
F1.0
V1
p935
g935
tp936
a(S'R.1'
p937
F0.0030303030303030303
V3/[C(52-7,2)]
p938
V3/C(45,2)
p939
tp940
aVskodigal
p941
(lp942
V2015-10-22 01:32:05
p943
tp944
asS"['R.0']"
p945
(lp946
(V1-3/[C(52-7,2)]
p947
V1-2/C(47,2)
p948
(lp949
(S'R.0'
p950
F1.0
g935
g935
tp951
aVqfu
p952
(lp953
V2015-10-16 03:19:06
p954
tp955
a(V1-3/[C(52-7,2)]
p956
V1-((1/45)*(1/44)*3)
p957
(lp958
(S'R.0'
p959
F1.0
g935
g935
tp960
aVj5phung
p961
(lp962
V2015-10-17 00:30:39
p963
tp964
a(V1-3/[C(52-7,2)]
p965
V1/3
p966
(lp967
(S'R.0'
p968
F1.0
g935
g935
tp969
aVrlhagen
p970
(lp971
V2015-10-18 19:28:59
p972
tp973
a(g965
V1-2/45
p974
(lp975
(S'R.0'
p976
F1.0
g935
g935
tp977
aVrlhagen
p978
g971
V2015-10-18 19:32:57
p979
tp980
a(g965
V1-(1/45*1/44)
p981
(lp982
(S'R.0'
p983
F1.0
g935
g935
tp984
aVrlhagen
p985
g971
V2015-10-18 19:36:12
p986
tp987
a(g965
V1-((1/45)*(1/44))
p988
(lp989
(S'R.0'
p990
F1.0
g935
g935
tp991
aVrlhagen
p992
g971
V2015-10-18 19:36:25
p993
tp994
a(V1-3/[C(52-7,2)]
p995
V1/330
p996
(lp997
(S'R.0'
p998
F1.0
g935
g935
tp999
aVr9jiang
p1000
(lp1001
V2015-10-18 23:47:02
p1002
tp1003
a(V1-3/[C(52-7,2)]
p1004
V1-(1/50)*(1/49)
p1005
(lp1006
(S'R.0'
p1007
F1.0
g935
g935
tp1008
aVkrau
p1009
(lp1010
V2015-10-20 20:30:46
p1011
tp1012
a(g1004
V1-3*(1/50)*(1/49)
p1013
(lp1014
(S'R.0'
p1015
F1.0
g935
g935
tp1016
aVkrau
p1017
g1010
V2015-10-20 20:33:01
p1018
tp1019
a(V1-3/[C(52-7,2)]
p1020
V1- 2/C(47,2)
p1021
(lp1022
(S'R.0'
p1023
F1.0
g935
g935
tp1024
aVabasu
p1025
(lp1026
V2015-10-20 23:58:31
p1027
tp1028
a(V1-3/[C(52-7,2)]
p1029
V1/C(47,2)
p1030
(lp1031
(S'R.0'
p1032
F1.0
g935
g935
tp1033
aVabjara
p1034
(lp1035
V2015-10-21 23:04:19
p1036
tp1037
a(V1-3/[C(52-7,2)]
p1038
V1-(C(52,3))/(C(52,7))
p1039
(lp1040
(S'R.0'
p1041
F1.0
g935
g935
tp1042
aVn2patil
p1043
(lp1044
V2015-10-21 23:11:21
p1045
tp1046
a(g738
V1/C(52-7,2)
p1047
(lp1048
(S'R.0'
p1049
F1.0
g935
g935
tp1050
aVs2chaudh
p1051
(lp1052
V2015-10-22 04:55:30
p1053
tp1054
a(g832
V1-(C(45,2)/C(52,2))
p1055
(lp1056
(S'R.0'
p1057
F1.0
g935
g935
tp1058
aVaordookh
p1059
(lp1060
V2015-10-22 05:55:47
p1061
tp1062
a(V1-3/[C(52-7,2)]
p1063
V1-C(52,3)/52^3
p1064
(lp1065
(S'R.0'
p1066
F1.0
g935
g935
tp1067
aVmuy002
p1068
(lp1069
V2015-10-22 06:50:38
p1070
tp1071
a(V1-3/[C(52-7,2)]
p1072
V1-[2/C(47,2)]
p1073
(lp1074
(S'R.0'
p1075
F1.0
g935
g935
tp1076
aVdlt009
p1077
(lp1078
V2015-10-22 07:23:47
p1079
tp1080
a(g1072
V1-[(1/45)(1/45)]
p1081
(lp1082
(S'R.0'
p1083
F1.0
g935
g935
tp1084
aVdlt009
p1085
g1078
V2015-10-22 07:26:42
p1086
tp1087
a(g1072
V1-[(1/45)(1/44)]
p1088
(lp1089
(S'R.0'
p1090
F1.0
g935
g935
tp1091
aVdlt009
p1092
g1078
V2015-10-22 07:26:49
p1093
tp1094
a(g838
V1/4
p1095
(lp1096
(S'R.0'
p1097
F1.0
g935
g935
tp1098
aVzhw110
p1099
(lp1100
V2015-10-22 07:28:09
p1101
tp1102
a(g1072
V1-[(2/45)*(1/44)]
p1103
(lp1104
(S'R.0'
p1105
F1.0
g935
g935
tp1106
aVdlt009
p1107
g1078
V2015-10-22 07:28:12
p1108
tp1109
a(g849
V1/C(52,2)
p1110
(lp1111
(S'R.0'
p1112
F1.0
g935
g935
tp1113
aVctroncos
p1114
(lp1115
V2015-10-22 17:09:15
p1116
tp1117
a(V1-3/[C(52-7,2)]
p1118
V1/(C(52-7,2)-3)
p1119
(lp1120
(S'R.0'
p1121
F1.0
g935
g935
tp1122
aVkalang
p1123
(lp1124
V2015-10-22 20:59:06
p1125
tp1126
a(g1118
V1- 1/(C(52-7,2)-3)
p1127
(lp1128
(S'R.0'
p1129
F1.0
g935
g935
tp1130
aVkalang
p1131
g1124
V2015-10-22 20:59:12
p1132
tp1133
a(V1-3/[C(52-7,2)]
p1134
V1/4
p1135
(lp1136
(S'R.0'
p1137
F1.0
g935
g935
tp1138
aVkosung
p1139
(lp1140
V2015-10-22 23:07:09
p1141
tp1142
a(g1134
V1/3
p1143
(lp1144
(S'R.0'
p1145
F1.0
g935
g935
tp1146
aVkosung
p1147
g1140
V2015-10-22 23:07:41
p1148
tp1149
asS"['R.0', 'R.1.1']"
p1150
(lp1151
(V1-3/[C(52-7,2)]
p1152
V1-((1+1))/C(52-7,2)
p1153
(lp1154
(S'R.0'
p1155
F1.0
g935
g935
tp1156
a(S'R.1.1'
p1157
I990
VC(52-7,2)
p1158
VC(52-7,2)
p1159
tp1160
aVt1tran
p1161
(lp1162
V2015-10-18 04:13:43
p1163
tp1164
a(g965
V1-((2(C(45,1) + C(44,1)))/C(45,2))
p1165
(lp1166
(S'R.0'
p1167
F1.0
g935
g935
tp1168
a(S'R.1.1'
p1169
I990
VC(52-7,2)
p1170
VC(45,2)
p1171
tp1172
aVrlhagen
p1173
g971
V2015-10-18 19:47:20
p1174
tp1175
a(g965
V1-(((C(45,1) + C(44,1)))/C(45,2))
p1176
(lp1177
(S'R.0'
p1178
F1.0
g935
g935
tp1179
a(S'R.1.1'
p1180
I990
VC(52-7,2)
p1181
VC(45,2)
p1182
tp1183
aVrlhagen
p1184
g971
V2015-10-18 19:47:32
p1185
tp1186
a(g965
V1-(((C(45,1) + C(45,1)))/C(45,2))
p1187
(lp1188
(S'R.0'
p1189
F1.0
g935
g935
tp1190
a(S'R.1.1'
p1191
I990
VC(52-7,2)
p1192
VC(45,2)
p1193
tp1194
aVrlhagen
p1195
g971
V2015-10-18 19:47:46
p1196
tp1197
a(g965
V1-((2(C(45,1) + C(44,1)))/C(45,2))
p1198
(lp1199
(S'R.0'
p1200
F1.0
g935
g935
tp1201
a(S'R.1.1'
p1202
I990
VC(52-7,2)
p1203
VC(45,2)
p1204
tp1205
aVrlhagen
p1206
g971
V2015-10-18 19:50:11
p1207
tp1208
a(g965
V1-((2(C(45,1) + C(44,1)))/C(45,2))
p1209
(lp1210
(S'R.0'
p1211
F1.0
g935
g935
tp1212
a(S'R.1.1'
p1213
I990
VC(52-7,2)
p1214
VC(45,2)
p1215
tp1216
aVrlhagen
p1217
g971
V2015-10-18 19:50:55
p1218
tp1219
a(V1-3/[C(52-7,2)]
p1220
V1-1/C(45,2)
p1221
(lp1222
(S'R.0'
p1223
F1.0
g935
g935
tp1224
a(S'R.1.1'
p1225
I990
VC(52-7,2)
p1226
VC(45,2)
p1227
tp1228
aVtwsalim
p1229
(lp1230
V2015-10-20 17:51:59
p1231
tp1232
a(g1220
V1-2/C(45,2)
p1233
(lp1234
(S'R.0'
p1235
F1.0
g935
g935
tp1236
a(S'R.1.1'
p1237
I990
VC(52-7,2)
p1238
VC(45,2)
p1239
tp1240
aVtwsalim
p1241
g1230
V2015-10-20 17:53:05
p1242
tp1243
a(g1220
V1-1/C(45,2)
p1244
(lp1245
(S'R.0'
p1246
F1.0
g935
g935
tp1247
a(S'R.1.1'
p1248
I990
VC(52-7,2)
p1249
VC(45,2)
p1250
tp1251
aVtwsalim
p1252
g1230
V2015-10-20 17:54:04
p1253
tp1254
a(g790
V1-(8/(45!/(2!43!)))
p1255
(lp1256
(S'R.0'
p1257
F1.0
g935
g935
tp1258
a(S'R.1.1'
p1259
I990
VC(52-7,2)
p1260
V45!/(2!43!)
p1261
tp1262
aVccn001
p1263
(lp1264
V2015-10-20 22:36:09
p1265
tp1266
a(g1020
V1-2/C(45,2)
p1267
(lp1268
(S'R.0'
p1269
F1.0
g935
g935
tp1270
a(S'R.1.1'
p1271
I990
VC(52-7,2)
p1272
VC(45,2)
p1273
tp1274
aVabasu
p1275
g1026
V2015-10-20 23:59:11
p1276
tp1277
a(V1-3/[C(52-7,2)]
p1278
V1-16/990
p1279
(lp1280
(S'R.0'
p1281
F1.0
g935
g935
tp1282
a(S'R.1.1'
p1283
I990
VC(52-7,2)
p1284
V990
p1285
tp1286
aVyil035
p1287
(lp1288
V2015-10-21 00:03:23
p1289
tp1290
a(g1278
V1-32/990
p1291
(lp1292
(S'R.0'
p1293
F1.0
g935
g935
tp1294
a(S'R.1.1'
p1295
I990
VC(52-7,2)
p1296
V990
p1297
tp1298
aVyil035
p1299
g1288
V2015-10-21 00:03:48
p1300
tp1301
a(g1278
V1-4/990
p1302
(lp1303
(S'R.0'
p1304
F1.0
g935
g935
tp1305
a(S'R.1.1'
p1306
I990
VC(52-7,2)
p1307
V990
p1308
tp1309
aVyil035
p1310
g1288
V2015-10-21 00:05:29
p1311
tp1312
a(V1-3/[C(52-7,2)]
p1313
V1-(6/C(45,2))
p1314
(lp1315
(S'R.0'
p1316
F1.0
g935
g935
tp1317
a(S'R.1.1'
p1318
I990
VC(52-7,2)
p1319
VC(45,2)
p1320
tp1321
aVksmurlo
p1322
(lp1323
V2015-10-21 00:12:31
p1324
tp1325
a(V1-3/[C(52-7,2)]
p1326
V1-(2/(45!/(2*43!)))
p1327
(lp1328
(S'R.0'
p1329
F1.0
g935
g935
tp1330
a(S'R.1.1'
p1331
I990
VC(52-7,2)
p1332
V45!/(2*43!)
p1333
tp1334
aVdcgriffi
p1335
(lp1336
V2015-10-21 02:12:22
p1337
tp1338
a(V1-3/[C(52-7,2)]
p1339
V1 - (4/C(52-7,2))
p1340
(lp1341
(S'R.0'
p1342
F1.0
g935
g935
tp1343
a(S'R.1.1'
p1344
I990
VC(52-7,2)
p1345
VC(52-7,2)
p1346
tp1347
aVbmilton
p1348
(lp1349
V2015-10-21 03:46:17
p1350
tp1351
a(V1-3/[C(52-7,2)]
p1352
V1-(6/(C(45,2)))
p1353
(lp1354
(S'R.0'
p1355
F1.0
g935
g935
tp1356
a(S'R.1.1'
p1357
I990
VC(52-7,2)
p1358
VC(45,2)
p1359
tp1360
aVb3hwang
p1361
(lp1362
V2015-10-21 20:25:32
p1363
tp1364
a(V1-3/[C(52-7,2)]
p1365
V1-1/990
p1366
(lp1367
(S'R.0'
p1368
F1.0
g935
g935
tp1369
a(S'R.1.1'
p1370
I990
VC(52-7,2)
p1371
V990
p1372
tp1373
aVzig006
p1374
(lp1375
V2015-10-21 20:38:51
p1376
tp1377
a(g1365
V1-2/990
p1378
(lp1379
(S'R.0'
p1380
F1.0
g935
g935
tp1381
a(S'R.1.1'
p1382
I990
VC(52-7,2)
p1383
V990
p1384
tp1385
aVzig006
p1386
g1375
V2015-10-21 20:39:02
p1387
tp1388
a(V1-3/[C(52-7,2)]
p1389
V1 - (2/(C(45,2)))
p1390
(lp1391
(S'R.0'
p1392
F1.0
g935
g935
tp1393
a(S'R.1.1'
p1394
I990
VC(52-7,2)
p1395
VC(45,2)
p1396
tp1397
aVvsosnovs
p1398
(lp1399
V2015-10-22 05:01:51
p1400
tp1401
a(g832
V1-(2/C(45,2))
p1402
(lp1403
(S'R.0'
p1404
F1.0
g935
g935
tp1405
a(S'R.1.1'
p1406
I990
VC(52-7,2)
p1407
VC(45,2)
p1408
tp1409
aVaordookh
p1410
g1060
V2015-10-22 05:54:42
p1411
tp1412
a(g832
V1-(1/C(45,2))
p1413
(lp1414
(S'R.0'
p1415
F1.0
g935
g935
tp1416
a(S'R.1.1'
p1417
I990
VC(52-7,2)
p1418
VC(45,2)
p1419
tp1420
aVaordookh
p1421
g1060
V2015-10-22 05:55:11
p1422
tp1423
a(V1-3/[C(52-7,2)]
p1424
V1-(2/C(52-7,2))
p1425
(lp1426
(S'R.0'
p1427
F1.0
g935
g935
tp1428
a(S'R.1.1'
p1429
I990
VC(52-7,2)
p1430
VC(52-7,2)
p1431
tp1432
aVjjm019
p1433
(lp1434
V2015-10-22 07:37:56
p1435
tp1436
a(g1424
V1-6/(C(52-7,2))
p1437
(lp1438
(S'R.0'
p1439
F1.0
g935
g935
tp1440
a(S'R.1.1'
p1441
I990
VC(52-7,2)
p1442
VC(52-7,2)
p1443
tp1444
aVjjm019
p1445
g1434
V2015-10-22 07:58:12
p1446
tp1447
a(V1-3/[C(52-7,2)]
p1448
V1-([4^3]/[C(45, 2)])
p1449
(lp1450
(S'R.0'
p1451
F1.0
g935
g935
tp1452
a(S'R.1.1'
p1453
I990
VC(52-7,2)
p1454
VC(45, 2)
p1455
tp1456
aVv4zhang
p1457
(lp1458
V2015-10-22 10:15:16
p1459
tp1460
a(g1448
V1-([16+16+16]/[C(45, 2)])
p1461
(lp1462
(S'R.0'
p1463
F1.0
g935
g935
tp1464
a(S'R.1.1'
p1465
I990
VC(52-7,2)
p1466
VC(45, 2)
p1467
tp1468
aVv4zhang
p1469
g1458
V2015-10-22 10:15:49
p1470
tp1471
a(V1-3/[C(52-7,2)]
p1472
V1 - (48/C(45,2))
p1473
(lp1474
(S'R.0'
p1475
F1.0
g935
g935
tp1476
a(S'R.1.1'
p1477
I990
VC(52-7,2)
p1478
VC(45,2)
p1479
tp1480
aVanl114
p1481
(lp1482
V2015-10-22 17:34:00
p1483
tp1484
a(V1-3/[C(52-7,2)]
p1485
V1-(249/990)
p1486
(lp1487
(S'R.0'
p1488
F1.0
g935
g935
tp1489
a(S'R.1.1'
p1490
I990
VC(52-7,2)
p1491
V990
p1492
tp1493
aVarvenega
p1494
(lp1495
V2015-10-22 21:17:26
p1496
tp1497
a(g1485
V1-(741/990)
p1498
(lp1499
(S'R.0'
p1500
F1.0
g935
g935
tp1501
a(S'R.1.1'
p1502
I990
VC(52-7,2)
p1503
V990
p1504
tp1505
aVarvenega
p1506
g1495
V2015-10-22 21:19:54
p1507
tp1508
a(g1485
V1-(861/990)
p1509
(lp1510
(S'R.0'
p1511
F1.0
g935
g935
tp1512
a(S'R.1.1'
p1513
I990
VC(52-7,2)
p1514
V990
p1515
tp1516
aVarvenega
p1517
g1495
V2015-10-22 21:21:36
p1518
tp1519
a(g1485
V1- (129/990)
p1520
(lp1521
(S'R.0'
p1522
F1.0
g935
g935
tp1523
a(S'R.1.1'
p1524
I990
VC(52-7,2)
p1525
V990
p1526
tp1527
aVarvenega
p1528
g1495
V2015-10-22 21:22:12
p1529
tp1530
a(g1485
V1- (666/990)
p1531
(lp1532
(S'R.0'
p1533
F1.0
g935
g935
tp1534
a(S'R.1.1'
p1535
I990
VC(52-7,2)
p1536
V990
p1537
tp1538
aVarvenega
p1539
g1495
V2015-10-22 21:25:46
p1540
tp1541
a(g1485
V1-(360/990)
p1542
(lp1543
(S'R.0'
p1544
F1.0
g935
g935
tp1545
a(S'R.1.1'
p1546
I990
VC(52-7,2)
p1547
V990
p1548
tp1549
aVarvenega
p1550
g1495
V2015-10-22 21:27:00
p1551
tp1552
a(g1485
V1-(660/990)
p1553
(lp1554
(S'R.0'
p1555
F1.0
g935
g935
tp1556
a(S'R.1.1'
p1557
I990
VC(52-7,2)
p1558
V990
p1559
tp1560
aVarvenega
p1561
g1495
V2015-10-22 21:27:13
p1562
tp1563
a(g1485
V1-(630/990)
p1564
(lp1565
(S'R.0'
p1566
F1.0
g935
g935
tp1567
a(S'R.1.1'
p1568
I990
VC(52-7,2)
p1569
V990
p1570
tp1571
aVarvenega
p1572
g1495
V2015-10-22 21:27:19
p1573
tp1574
a(g1485
V1-(249/990)
p1575
(lp1576
(S'R.0'
p1577
F1.0
g935
g935
tp1578
a(S'R.1.1'
p1579
I990
VC(52-7,2)
p1580
V990
p1581
tp1582
aVarvenega
p1583
g1495
V2015-10-22 21:30:00
p1584
tp1585
a(g1485
V1-(903/990)
p1586
(lp1587
(S'R.0'
p1588
F1.0
g935
g935
tp1589
a(S'R.1.1'
p1590
I990
VC(52-7,2)
p1591
V990
p1592
tp1593
aVarvenega
p1594
g1495
V2015-10-22 21:31:10
p1595
tp1596
a(g1063
V1-(C(6,2)/C(45,2))
p1597
(lp1598
(S'R.0'
p1599
F1.0
g935
g935
tp1600
a(S'R.1.1'
p1601
I990
VC(52-7,2)
p1602
VC(45,2)
p1603
tp1604
aVmuy002
p1605
g1069
V2015-10-22 21:32:51
p1606
tp1607
a(g1063
V1-(6/C(45,2))
p1608
(lp1609
(S'R.0'
p1610
F1.0
g935
g935
tp1611
a(S'R.1.1'
p1612
I990
VC(52-7,2)
p1613
VC(45,2)
p1614
tp1615
aVmuy002
p1616
g1069
V2015-10-22 21:33:07
p1617
tp1618
a(g1063
V1-(24/C(45,2))
p1619
(lp1620
(S'R.0'
p1621
F1.0
g935
g935
tp1622
a(S'R.1.1'
p1623
I990
VC(52-7,2)
p1624
VC(45,2)
p1625
tp1626
aVmuy002
p1627
g1069
V2015-10-22 21:33:51
p1628
tp1629
a(g1063
V1-(16/C(45,2))
p1630
(lp1631
(S'R.0'
p1632
F1.0
g935
g935
tp1633
a(S'R.1.1'
p1634
I990
VC(52-7,2)
p1635
VC(45,2)
p1636
tp1637
aVmuy002
p1638
g1069
V2015-10-22 21:34:21
p1639
tp1640
asg588
(lp1641
(g956
V1-(2+1)
p1642
tp1643
a(g956
V1-(C(45,2)-C(3,1))
p1644
tp1645
a(g956
V1-(C(45,2)-C(4,2))
p1646
tp1647
a(g965
V1-3
p1648
tp1649
a(g965
V1-(((C(45,2) + C(45,2)))/C(45,2))
p1650
tp1651
a(g965
V1-(((C(45,1) *C(44,1)))/C(45,2))
p1652
tp1653
a(g965
V1-((2(C(45,1) *C(44,1)))/C(45,2))
p1654
tp1655
a(g965
V1-((2(C(45,1) * C(44,1)))/C(45,2))
p1656
tp1657
a(g995
V3/C(45,2)-3
p1658
tp1659
a(V1-3/[C(52-7,2)]
p1660
V(1-3)/[52!/(2!50!)]
p1661
tp1662
a(g1660
V(1-3)/[(52-7)!/(2!45!)]
p1663
tp1664
a(g1660
V(1-3)/[(52-7)!/(2!43!)]
p1665
tp1666
a(V1-3/[C(52-7,2)]
p1667
V3/C(45, 2)-C(43, 2)
p1668
tp1669
a(V1-3/[C(52-7,2)]
p1670
V1- C(45, 2)
p1671
tp1672
a(V1-3/[C(52-7,2)]
p1673
V(1 - 3/C(47,2)) * (1 - C(43,2))
p1674
tp1675
a(V1-3/[C(52-7,2)]
p1676
V1-C(3,1)
p1677
tp1678
a(V1-3/[C(52-7,2)]
p1679
V1-(C(47,2)-3)
p1680
tp1681
a(g1038
V1-(C(52,3))
p1682
tp1683
a(g1029
V-2/C(47,2)
p1684
tp1685
a(g1038
V1-(1225)
p1686
tp1687
a(V1-3/[C(52-7,2)]
p1688
V1- (3*[45!/[2!43!]])
p1689
tp1690
a(g738
V1-C(3,1)
p1691
tp1692
a(g1063
V1-C(52,3)
p1693
tp1694
a(g738
V1-(3/45*22)
p1695
tp1696
a(V1-3/[C(52-7,2)]
p1697
V1-C(47,2)
p1698
tp1699
a(V1-3/[C(52-7,2)]
p1700
V-2/C(45,2)
p1701
tp1702
a(V1-3/[C(52-7,2)]
p1703
V-2/C(45,2)
p1704
tp1705
a(g1700
V(1-3)/C(45,2)
p1706
tp1707
a(V1-3/[C(52-7,2)]
p1708
V1-C(52-7,2)
p1709
tp1710
a(g1708
V1-C(45,2)
p1711
tp1712
asS"['R.0', 'R.1.1.1']"
p1713
(lp1714
(g947
V1-1/C(47,2)
p1715
(lp1716
(S'R.0'
p1717
F1.0
g935
g935
tp1718
a(S'R.1.1.1'
p1719
F2.0
V2
p1720
g1720
tp1721
aVqfu
p1722
g953
V2015-10-16 03:20:01
p1723
tp1724
a(g774
V1 - (3/C(52-7,2))/C(52,2)
p1725
(lp1726
(S'R.0'
p1727
F1.0
g935
g935
tp1728
a(S'R.1.1.1'
p1729
F2.0
g1720
g1720
tp1730
aVstarinia
p1731
(lp1732
V2015-10-20 03:24:26
p1733
tp1734
a(g1020
V1- 12/C(47,2)
p1735
(lp1736
(S'R.0'
p1737
F1.0
g935
g935
tp1738
a(S'R.1.1.1'
p1739
F2.0
g1720
g1720
tp1740
aVabasu
p1741
g1026
V2015-10-20 23:55:48
p1742
tp1743
asS"['R.0', 'R.1.0', 'R.1.1.0']"
p1744
(lp1745
(g956
V1-(3/(45*42))
p1746
(lp1747
(S'R.0'
p1748
F1.0
g935
g935
tp1749
a(S'R.1.0'
p1750
F3.0
g877
g877
tp1751
a(S'R.1.1.0'
p1752
F45.0
V52-7
p1753
V45
p1754
tp1755
aVj5phung
p1756
g962
V2015-10-17 00:33:35
p1757
tp1758
a(V1-3/[C(52-7,2)]
p1759
V1- (3/C(45,5))
p1760
(lp1761
(S'R.0'
p1762
F1.0
g935
g935
tp1763
a(S'R.1.0'
p1764
F3.0
g877
g877
tp1765
a(S'R.1.1.0'
p1766
F45.0
V52-7
p1767
V45
p1768
tp1769
aVnisharma
p1770
(lp1771
V2015-10-22 15:00:07
p1772
tp1773
asS"['R.0', 'R.1.0']"
p1774
(lp1775
(g965
V1-3/45
p1776
(lp1777
(S'R.0'
p1778
F1.0
g935
g935
tp1779
a(S'R.1.0'
p1780
F3.0
g877
g877
tp1781
aVrlhagen
p1782
g971
V2015-10-18 19:32:32
p1783
tp1784
a(V1-3/[C(52-7,2)]
p1785
V1-3/45
p1786
(lp1787
(S'R.0'
p1788
F1.0
g935
g935
tp1789
a(S'R.1.0'
p1790
F3.0
g877
g877
tp1791
aVw4shin
p1792
(lp1793
V2015-10-19 20:01:01
p1794
tp1795
a(V1-3/[C(52-7,2)]
p1796
V1-(3/45)
p1797
(lp1798
(S'R.0'
p1799
F1.0
g935
g935
tp1800
a(S'R.1.0'
p1801
F3.0
g877
g877
tp1802
aVmtrafeca
p1803
(lp1804
V2015-10-21 07:13:45
p1805
tp1806
a(g1796
V1-(3/47)
p1807
(lp1808
(S'R.0'
p1809
F1.0
g935
g935
tp1810
a(S'R.1.0'
p1811
F3.0
g877
g877
tp1812
aVmtrafeca
p1813
g1804
V2015-10-21 07:14:15
p1814
tp1815
a(V1-3/[C(52-7,2)]
p1816
V1- (3/5!)
p1817
(lp1818
(S'R.0'
p1819
F1.0
g935
g935
tp1820
a(S'R.1.0'
p1821
F3.0
g877
g877
tp1822
aVv4sharma
p1823
(lp1824
V2015-10-21 17:33:57
p1825
tp1826
a(V1-3/[C(52-7,2)]
p1827
V1- (3/1980)
p1828
(lp1829
(S'R.0'
p1830
F1.0
g935
g935
tp1831
a(S'R.1.0'
p1832
F3.0
g877
g877
tp1833
aVrbdoming
p1834
(lp1835
V2015-10-21 18:08:19
p1836
tp1837
a(V1-3/[C(52-7,2)]
p1838
V1-(3/45)
p1839
(lp1840
(S'R.0'
p1841
F1.0
g935
g935
tp1842
a(S'R.1.0'
p1843
F3.0
g877
g877
tp1844
aVlrlai
p1845
(lp1846
V2015-10-21 19:51:31
p1847
tp1848
a(g1676
V1-(C(3,1))/C(47,3)
p1849
(lp1850
(S'R.0'
p1851
F1.0
g935
g935
tp1852
a(S'R.1.0'
p1853
F3.0
g877
VC(3,1)
p1854
tp1855
aVdcastlem
p1856
(lp1857
V2015-10-21 21:29:01
p1858
tp1859
a(V1-3/[C(52-7,2)]
p1860
V1-[3/C(52,3)]
p1861
(lp1862
(S'R.0'
p1863
F1.0
g935
g935
tp1864
a(S'R.1.0'
p1865
F3.0
g877
g877
tp1866
aVhkhodada
p1867
(lp1868
V2015-10-21 23:06:18
p1869
tp1870
a(g1038
V1-(3/(C(52,3)))
p1871
(lp1872
(S'R.0'
p1873
F1.0
g935
g935
tp1874
a(S'R.1.0'
p1875
F3.0
g877
g877
tp1876
aVn2patil
p1877
g1044
V2015-10-21 23:14:42
p1878
tp1879
a(g1038
V1-(3/(C(52,7)))
p1880
(lp1881
(S'R.0'
p1882
F1.0
g935
g935
tp1883
a(S'R.1.0'
p1884
F3.0
g877
g877
tp1885
aVn2patil
p1886
g1044
V2015-10-21 23:14:47
p1887
tp1888
a(V1-3/[C(52-7,2)]
p1889
V1-3/C(52,7)
p1890
(lp1891
(S'R.0'
p1892
F1.0
g935
g935
tp1893
a(S'R.1.0'
p1894
F3.0
g877
g877
tp1895
aVvqt004
p1896
(lp1897
V2015-10-22 13:32:02
p1898
tp1899
ass.