(dp0
V11
p1
(dp2
Vbkoli
p3
(dp4
S'part5_correct_attempt'
p5
(lp6
S'0:00:53'
p7
aV2/16+4/16+2/16
p8
asS'part9_correct_attempt'
p9
(lp10
S'0:01:25'
p11
aV1*(1/16+2/16+1/16)+2*(2/16+4/16+2/16)+3*(1/16+2/16+1/16)
p12
asS'part11_incorrect_attempt'
p13
(lp14
(S'0:03:04'
p15
V1*(1/16+2/16+1/16)+2*(2/16+4/16+2/16)+3*(1/16+2/16+1/16)+1
p16
tp17
asS'part10_correct_attempt'
p18
(lp19
S'0:01:44'
p20
aV1*(1/16+2/16+1/16)+2*(2/16+4/16+2/16)+3*(1/16+2/16+1/16)
p21
asS'part8_correct_attempt'
p22
(lp23
S'0:01:25'
p24
aV1
p25
asS'part7_correct_attempt'
p26
(lp27
S'0:01:25'
p28
aV1
p29
asS'part2_correct_attempt'
p30
(lp31
S'0:00:16'
p32
aV2/16+4/16+2/16
p33
asS'part6_correct_attempt'
p34
(lp35
S'0:01:05'
p36
aV1/16+2/16+1/16
p37
asS'part4_correct_attempt'
p38
(lp39
S'0:00:42'
p40
aV1/16+2/16+1/16
p41
asS'part3_correct_attempt'
p42
(lp43
S'0:00:29'
p44
aV1/16+2/16+1/16
p45
asS'part1_correct_attempt'
p46
(lp47
S'0:00:00'
p48
aV1/16+2/16+1/16
p49
asS'first_attempt'
p50
V2015-10-27 05:48:38
p51
sS'part11_correct_attempt'
p52
(lp53
S'0:05:02'
p54
aV2*(1*(1/16+2/16+1/16)+2*(2/16+4/16+2/16)+3*(1/16+2/16+1/16))
p55
assVagian
p56
(dp57
S'part5_correct_attempt'
p58
(lp59
S'0:00:52'
p60
aV2/16+4/16+2/16
p61
asS'part9_correct_attempt'
p62
(lp63
S'0:02:28'
p64
aV(1/16+2/16+1/16)+2(2/16+4/16+2/16)+3(1/16+2/16+1/16)
p65
asS'part11_incorrect_attempt'
p66
(lp67
(S'0:04:52'
p68
V1/16+4/16+3/16 + 2/16+8/16+6/16 + 1/16+4/16+3/16
p69
tp70
asS'part10_correct_attempt'
p71
(lp72
S'0:02:33'
p73
aV(1/16+2/16+1/16)+2(2/16+4/16+2/16)+3(1/16+2/16+1/16)
p74
asS'part8_correct_attempt'
p75
(lp76
S'0:01:04'
p77
aV1
p78
asS'part7_correct_attempt'
p79
(lp80
S'0:01:04'
p81
aV1
p82
asS'part2_correct_attempt'
p83
(lp84
S'0:00:28'
p85
aV2/16+4/16+2/16
p86
asS'part6_correct_attempt'
p87
(lp88
S'0:00:52'
p89
aV1/16+2/16+1/16
p90
asS'part4_correct_attempt'
p91
(lp92
S'0:00:52'
p93
aV1/16+2/16+1/16
p94
asS'part3_correct_attempt'
p95
(lp96
S'0:00:40'
p97
aV1/16+2/16+1/16
p98
asS'part1_correct_attempt'
p99
(lp100
S'0:00:00'
p101
aV1/16+2/16+1/16
p102
asg50
V2015-10-30 22:32:56
p103
sS'part11_correct_attempt'
p104
(lp105
S'0:06:43'
p106
aV4
p107
assVaggouw
p108
(dp109
S'part5_correct_attempt'
p110
(lp111
S'0:00:40'
p112
aV8/16
p113
asS'part9_correct_attempt'
p114
(lp115
S'0:01:12'
p116
aV(1*(4/16))+(2*(8/16))+(3*(4/16))
p117
asS'part11_incorrect_attempt'
p118
(lp119
(S'0:02:06'
p120
V1*(1/16+2/16+1/16)+2*(2/16+4/16+2/16)+3*(1/16+2/16+1/16)+1
p121
tp122
asS'part10_correct_attempt'
p123
(lp124
S'0:01:22'
p125
aV(1*(4/16))+(2*(8/16))+(3*(4/16))
p126
asS'part8_correct_attempt'
p127
(lp128
S'0:01:03'
p129
aV1
p130
asS'part7_correct_attempt'
p131
(lp132
S'0:00:59'
p133
aV1
p134
asS'part2_correct_attempt'
p135
(lp136
S'0:00:09'
p137
aV8/16
p138
asS'part6_correct_attempt'
p139
(lp140
S'0:00:55'
p141
aV4/16
p142
asS'part4_correct_attempt'
p143
(lp144
S'0:00:30'
p145
aV4/16
p146
asS'part3_correct_attempt'
p147
(lp148
S'0:00:24'
p149
aV4/16
p150
asS'part1_correct_attempt'
p151
(lp152
S'0:00:00'
p153
aV4/16
p154
asg50
V2015-10-27 03:29:36
p155
sS'part11_correct_attempt'
p156
(lp157
S'3 days, 18:45:54'
p158
aV1*(1/16+2/16+1/16)+2*(2/16+4/16+2/16)+3*(1/16+2/16+1/16) + 1*(1/16+2/16+1/16)+2*(2/16+4/16+2/16)+3*(1/16+2/16+1/16)
p159
asssV10
p160
(dp161
Vggaddi
p162
(dp163
S'part5_correct_attempt'
p164
(lp165
S'0:00:00'
p166
aV(2+4+2)/16
p167
asS'part10_incorrect_attempt'
p168
(lp169
(S'0:00:00'
p170
V(1+2+1)/16+(2+4+2)/16+(1+2+1)/16
p171
tp172
asS'part10_correct_attempt'
p173
(lp174
S'0:01:05'
p175
aV1*(1+2+1)/16+2*(2+4+2)/16+3*(1+2+1)/16
p176
asS'part8_correct_attempt'
p177
(lp178
S'0:00:00'
p179
aV1
p180
asS'part7_correct_attempt'
p181
(lp182
S'0:00:00'
p183
aV1
p184
asS'part2_correct_attempt'
p185
(lp186
S'0:00:00'
p187
aV(2+4+2)/16
p188
asS'part6_correct_attempt'
p189
(lp190
S'0:00:00'
p191
aV(1+2+1)/16
p192
asS'part4_correct_attempt'
p193
(lp194
S'0:00:00'
p195
aV(1+2+1)/16
p196
asS'part3_correct_attempt'
p197
(lp198
S'0:00:00'
p199
aV(1+2+1)/16
p200
asS'part1_correct_attempt'
p201
(lp202
S'0:00:00'
p203
aV(1+2+1)/16
p204
asg50
V2015-10-27 15:37:26
p205
ssVstarinia
p206
(dp207
S'part5_correct_attempt'
p208
(lp209
S'0:00:00'
p210
aV8/16
p211
asS'part10_incorrect_attempt'
p212
(lp213
(S'0:00:00'
p214
V4/16 + 8/16 + 4/16
p215
tp216
asS'part10_correct_attempt'
p217
(lp218
S'5:25:51'
p219
aV1/16 + 2/16+1/16 + 4/16+ 8/16+4/16+3/16+ 6/16+3/16
p220
asS'part8_correct_attempt'
p221
(lp222
S'-1 day, 23:49:42'
p223
aV1
p224
asS'part7_correct_attempt'
p225
(lp226
S'-1 day, 23:49:42'
p227
aV1
p228
asS'part2_correct_attempt'
p229
(lp230
S'0:00:00'
p231
aV8/16
p232
asS'part6_correct_attempt'
p233
(lp234
S'0:00:00'
p235
aV4/16
p236
asS'part4_correct_attempt'
p237
(lp238
S'0:00:00'
p239
aV4/16
p240
asS'part3_correct_attempt'
p241
(lp242
S'0:00:00'
p243
aV4/16
p244
asS'part1_correct_attempt'
p245
(lp246
S'0:00:00'
p247
aV4/16
p248
asg50
V2015-10-29 20:56:54
p249
ssVhachrist
p250
(dp251
S'part5_correct_attempt'
p252
(lp253
S'0:01:07'
p254
aV8/16
p255
asS'part10_incorrect_attempt'
p256
(lp257
(S'0:04:35'
p258
V4/16 + 8/16 + 4/16
p259
tp260
asS'part10_correct_attempt'
p261
(lp262
S'0:13:02'
p263
aV2
p264
asS'part8_correct_attempt'
p265
(lp266
S'0:01:07'
p267
aV1
p268
asS'part7_correct_attempt'
p269
(lp270
S'0:01:07'
p271
aV1
p272
asS'part2_correct_attempt'
p273
(lp274
S'0:01:07'
p275
aV8/16
p276
asS'part6_correct_attempt'
p277
(lp278
S'0:01:07'
p279
aV4/16 
p280
asS'part4_correct_attempt'
p281
(lp282
S'0:01:07'
p283
aV4/16
p284
asS'part3_correct_attempt'
p285
(lp286
S'0:01:07'
p287
aV4/16
p288
asS'part1_correct_attempt'
p289
(lp290
S'0:00:00'
p291
aV4/16
p292
asg50
V2015-10-26 01:47:33
p293
sssV13
p294
(dp295
Vk5law
p296
(dp297
S'part5_correct_attempt'
p298
(lp299
S'0:00:00'
p300
aV8/16
p301
asS'part13_incorrect_attempt'
p302
(lp303
(S'0:15:01'
p304
V[[4/16]+[2*(8/16)]+[3*(4/16)]]+[[4/16]+[2*(8/16)]+[3*(4/16)]]
p305
tp306
asS'part9_correct_attempt'
p307
(lp308
S'0:10:33'
p309
aV[4/16]+[2*(8/16)]+[3*(4/16)]
p310
asS'part13_correct_attempt'
p311
(lp312
S'0:16:40'
p313
aV[[[4/16]+[2*(8/16)]+[3*(4/16)]]+[[4/16]+[2*(8/16)]+[3*(4/16)]]]-[[4/16]+[2*(8/16)]+[3*(4/16)]]*[[4/16]+[2*(8/16)]+[3*(4/16)]]
p314
asS'part10_correct_attempt'
p315
(lp316
S'0:11:28'
p317
aV[4/16]+[2*(8/16)]+[3*(4/16)]
p318
asS'part8_correct_attempt'
p319
(lp320
S'0:00:08'
p321
aV1
p322
asS'part7_correct_attempt'
p323
(lp324
S'0:00:00'
p325
aV1
p326
asS'part12_correct_attempt'
p327
(lp328
S'0:11:28'
p329
aV[[4/16]+[2*(8/16)]+[3*(4/16)]]+[[4/16]+[2*(8/16)]+[3*(4/16)]]
p330
asS'part2_correct_attempt'
p331
(lp332
S'0:00:00'
p333
aV8/16
p334
asS'part6_correct_attempt'
p335
(lp336
S'0:00:00'
p337
aV4/16
p338
asS'part4_correct_attempt'
p339
(lp340
S'0:00:00'
p341
aV4/16
p342
asS'part3_correct_attempt'
p343
(lp344
S'0:00:00'
p345
aV4/16
p346
asS'part1_correct_attempt'
p347
(lp348
S'0:00:00'
p349
aV4/16
p350
asg50
V2015-10-26 06:52:27
p351
ssVagian
p352
(dp353
S'part5_correct_attempt'
p354
(lp355
S'0:00:52'
p356
ag61
asS'part13_incorrect_attempt'
p357
(lp358
(S'0:07:41'
p359
V1*1/16+2*2/16+3*1/16+2*2/16+4*4/16+6*2/16+3*1/16+6*2/16+9*1/16
p360
tp361
asS'part9_correct_attempt'
p362
(lp363
S'0:02:28'
p364
ag65
asS'part13_correct_attempt'
p365
(lp366
S'0:08:24'
p367
aV0
p368
asS'part10_correct_attempt'
p369
(lp370
S'0:02:33'
p371
ag74
asS'part8_correct_attempt'
p372
(lp373
S'0:01:04'
p374
ag78
asS'part7_correct_attempt'
p375
(lp376
S'0:01:04'
p377
ag82
asS'part12_correct_attempt'
p378
(lp379
S'0:06:43'
p380
aV4
p381
asS'part2_correct_attempt'
p382
(lp383
S'0:00:28'
p384
ag86
asS'part6_correct_attempt'
p385
(lp386
S'0:00:52'
p387
ag90
asS'part4_correct_attempt'
p388
(lp389
S'0:00:52'
p390
ag94
asS'part3_correct_attempt'
p391
(lp392
S'0:00:40'
p393
ag98
asS'part1_correct_attempt'
p394
(lp395
S'0:00:00'
p396
ag102
asg50
g103
ssVr1gu
p397
(dp398
S'part5_correct_attempt'
p399
(lp400
S'0:00:28'
p401
aV8/16
p402
asS'part13_incorrect_attempt'
p403
(lp404
(S'0:05:36'
p405
V4-1
p406
tp407
asS'part9_correct_attempt'
p408
(lp409
S'0:01:28'
p410
aV(4+16+12)/16
p411
asS'part13_correct_attempt'
p412
(lp413
S'0:06:44'
p414
aV4-4
p415
asS'part10_correct_attempt'
p416
(lp417
S'0:01:28'
p418
aV(4+16+12)/16
p419
asS'part8_correct_attempt'
p420
(lp421
S'0:01:28'
p422
aV1
p423
asS'part7_correct_attempt'
p424
(lp425
S'0:01:28'
p426
aV1
p427
asS'part12_correct_attempt'
p428
(lp429
S'0:05:10'
p430
aV(1+4+3+4+16+12+3+12+9)/16
p431
asS'part2_correct_attempt'
p432
(lp433
S'0:00:00'
p434
aV8/16
p435
asS'part6_correct_attempt'
p436
(lp437
S'0:00:28'
p438
aV4/16
p439
asS'part4_correct_attempt'
p440
(lp441
S'0:00:28'
p442
aV4/16
p443
asS'part3_correct_attempt'
p444
(lp445
S'0:00:28'
p446
aV4/16
p447
asS'part1_correct_attempt'
p448
(lp449
S'0:00:00'
p450
aV4/16
p451
asg50
V2015-10-30 09:17:08
p452
ssVffhaddad
p453
(dp454
S'part5_correct_attempt'
p455
(lp456
S'0:01:23'
p457
aV2/16+4/16+2/16
p458
asS'part13_incorrect_attempt'
p459
(lp460
(S'0:16:22'
p461
V[1*.25+2*.5+3*.25]*[1*.25+2*.5+3*.25]-[([1*.25+2*.5+3*.25]*[1*.25+2*.5+3*.25])*(1*.25+2*.5+3*.25)]
p462
tp463
a(S'0:17:11'
p464
V[1*.25+2*.5+3*.25]*[1*.25+2*.5+3*.25]
p465
tp466
asS'part9_correct_attempt'
p467
(lp468
S'0:03:58'
p469
aV1*.25+2*.5+3*.25
p470
asS'part13_correct_attempt'
p471
(lp472
S'0:17:44'
p473
aV[1*.25+2*.5+3*.25]*[1*.25+2*.5+3*.25]-[[1*.25+2*.5+3*.25]*[1*.25+2*.5+3*.25]]
p474
asS'part10_correct_attempt'
p475
(lp476
S'0:06:24'
p477
aV1*.25+2*.5+3*.25
p478
asS'part8_correct_attempt'
p479
(lp480
S'0:02:34'
p481
aV1
p482
asS'part7_correct_attempt'
p483
(lp484
S'0:02:20'
p485
aV1
p486
asS'part12_correct_attempt'
p487
(lp488
S'0:15:33'
p489
aV[1*.25+2*.5+3*.25]*[1*.25+2*.5+3*.25]
p490
asS'part2_correct_attempt'
p491
(lp492
S'0:00:27'
p493
aV2/16+4/16+2/16
p494
asS'part6_correct_attempt'
p495
(lp496
S'0:02:06'
p497
aV1/16+2/16+1/16
p498
asS'part4_correct_attempt'
p499
(lp500
S'0:01:53'
p501
aV1/16+2/16+1/16
p502
asS'part3_correct_attempt'
p503
(lp504
S'0:00:43'
p505
aV1/16+2/16+1/16
p506
asS'part1_correct_attempt'
p507
(lp508
S'0:00:00'
p509
aV1/16+2/16+1/16
p510
asg50
V2015-10-25 19:50:00
p511
ssVjjm019
p512
(dp513
S'part5_correct_attempt'
p514
(lp515
S'0:00:00'
p516
aV8/16
p517
asS'part13_incorrect_attempt'
p518
(lp519
(S'2 days, 20:22:33'
p520
V4-2
p521
tp522
asS'part9_correct_attempt'
p523
(lp524
S'2 days, 20:20:06'
p525
aV1(4/16)+2(8/16)+3(4/16)
p526
asS'part13_correct_attempt'
p527
(lp528
S'2 days, 20:23:01'
p529
aV4-4
p530
asS'part10_correct_attempt'
p531
(lp532
S'2 days, 20:20:06'
p533
aV1(4/16)+2(8/16)+3(4/16)
p534
asS'part8_correct_attempt'
p535
(lp536
S'0:00:00'
p537
aV1
p538
asS'part7_correct_attempt'
p539
(lp540
S'0:00:00'
p541
aV1
p542
asS'part12_correct_attempt'
p543
(lp544
S'2 days, 20:21:57'
p545
aV1(8/16)+2(1)+3(8/16)
p546
asS'part2_correct_attempt'
p547
(lp548
S'0:00:00'
p549
aV8/16
p550
asS'part6_correct_attempt'
p551
(lp552
S'0:00:00'
p553
aV4/16
p554
asS'part4_correct_attempt'
p555
(lp556
S'0:00:00'
p557
aV4/16
p558
asS'part3_correct_attempt'
p559
(lp560
S'0:00:00'
p561
aV4/16
p562
asS'part1_correct_attempt'
p563
(lp564
S'0:00:00'
p565
aV4/16
p566
asg50
V2015-10-25 23:56:23
p567
sssV12
p568
(dp569
Vmuy002
p570
(dp571
S'part5_correct_attempt'
p572
(lp573
S'0:00:00'
p574
aV8/16
p575
asS'part8_correct_attempt'
p576
(lp577
S'0:00:00'
p578
aV1
p579
asS'part7_correct_attempt'
p580
(lp581
S'0:00:11'
p582
aV1
p583
asS'part12_correct_attempt'
p584
(lp585
S'0:31:41'
p586
aV64/16
p587
asS'part2_correct_attempt'
p588
(lp589
S'0:00:00'
p590
aV8/16
p591
asS'part12_incorrect_attempt'
p592
(lp593
(S'0:30:17'
p594
V64/4
p595
tp596
asS'part6_correct_attempt'
p597
(lp598
S'0:00:00'
p599
aV4/16
p600
asS'part4_correct_attempt'
p601
(lp602
S'0:00:00'
p603
aV4/16
p604
asS'part3_correct_attempt'
p605
(lp606
S'0:00:00'
p607
aV4/16
p608
asS'part1_correct_attempt'
p609
(lp610
S'0:00:00'
p611
aV4/16
p612
asg50
V2015-10-28 03:14:24
p613
ssVhachrist
p614
(dp615
S'part5_correct_attempt'
p616
(lp617
S'0:01:07'
p618
ag255
asS'part8_correct_attempt'
p619
(lp620
S'0:01:07'
p621
ag268
asS'part7_correct_attempt'
p622
(lp623
S'0:01:07'
p624
ag272
asS'part12_correct_attempt'
p625
(lp626
S'0:13:02'
p627
aV4
p628
asS'part2_correct_attempt'
p629
(lp630
S'0:01:07'
p631
ag276
asS'part12_incorrect_attempt'
p632
(lp633
(S'0:04:35'
p634
V(4/16 + 8/16 + 4/16) * (4/16 + 8/16 + 4/16)
p635
tp636
asS'part6_correct_attempt'
p637
(lp638
S'0:01:07'
p639
ag280
asS'part4_correct_attempt'
p640
(lp641
S'0:01:07'
p642
ag284
asS'part3_correct_attempt'
p643
(lp644
S'0:01:07'
p645
ag288
asS'part1_correct_attempt'
p646
(lp647
S'0:00:00'
p648
ag292
asg50
g293
ssVr1gu
p649
(dp650
S'part5_correct_attempt'
p651
(lp652
S'0:00:28'
p653
ag402
asS'part8_correct_attempt'
p654
(lp655
S'0:01:28'
p656
ag423
asS'part7_correct_attempt'
p657
(lp658
S'0:01:28'
p659
ag427
asS'part12_correct_attempt'
p660
(lp661
S'0:05:10'
p662
ag431
asS'part2_correct_attempt'
p663
(lp664
S'0:00:00'
p665
ag435
asS'part12_incorrect_attempt'
p666
(lp667
(S'0:03:19'
p668
V(1+4+3+8+20+12+7+16+9)/16
p669
tp670
asS'part6_correct_attempt'
p671
(lp672
S'0:00:28'
p673
ag439
asS'part4_correct_attempt'
p674
(lp675
S'0:00:28'
p676
ag443
asS'part3_correct_attempt'
p677
(lp678
S'0:00:28'
p679
ag447
asS'part1_correct_attempt'
p680
(lp681
S'0:00:00'
p682
ag451
asg50
g452
ssVt1tran
p683
(dp684
S'part5_correct_attempt'
p685
(lp686
S'0:00:00'
p687
aV8/16
p688
asS'part8_correct_attempt'
p689
(lp690
S'0:00:20'
p691
aV1
p692
asS'part7_correct_attempt'
p693
(lp694
S'0:00:20'
p695
aV1
p696
asS'part12_correct_attempt'
p697
(lp698
S'7:58:17'
p699
aV2(1/4(1+3)+1/2(2))
p700
asS'part2_correct_attempt'
p701
(lp702
S'0:00:00'
p703
aV8/16
p704
asS'part12_incorrect_attempt'
p705
(lp706
(S'0:06:38'
p707
V2(4/16+8/16+4/16)
p708
tp709
asS'part6_correct_attempt'
p710
(lp711
S'0:00:00'
p712
aV4/16
p713
asS'part4_correct_attempt'
p714
(lp715
S'0:00:00'
p716
aV4/16
p717
asS'part3_correct_attempt'
p718
(lp719
S'0:00:00'
p720
aV4/16
p721
asS'part1_correct_attempt'
p722
(lp723
S'0:00:00'
p724
aV4/16
p725
asg50
V2015-10-23 21:44:23
p726
ssVtpmach
p727
(dp728
S'part5_correct_attempt'
p729
(lp730
S'0:00:46'
p731
aV(2+4+2)/16
p732
asS'part8_correct_attempt'
p733
(lp734
S'0:02:50'
p735
aV1
p736
asS'part7_correct_attempt'
p737
(lp738
S'0:01:45'
p739
aV1
p740
asS'part12_correct_attempt'
p741
(lp742
S'2 days, 1:37:27'
p743
aV2*2
p744
asS'part2_correct_attempt'
p745
(lp746
S'0:00:00'
p747
aV(2+4+2)/16
p748
asS'part12_incorrect_attempt'
p749
(lp750
(S'2 days, 1:35:45'
p751
V(1+2+3)*2+(1+2+3)*2
p752
tp753
asS'part6_correct_attempt'
p754
(lp755
S'0:00:46'
p756
aV(1+2+1)/16
p757
asS'part4_correct_attempt'
p758
(lp759
S'0:00:46'
p760
aV(1+2+1)/16
p761
asS'part3_correct_attempt'
p762
(lp763
S'0:00:00'
p764
aV(1+2+1)/16
p765
asS'part1_correct_attempt'
p766
(lp767
S'0:00:00'
p768
aV1/16+2/16+1/16
p769
asg50
V2015-10-23 22:37:35
p770
ssVstarinia
p771
(dp772
S'part5_correct_attempt'
p773
(lp774
S'0:00:00'
p775
ag211
asS'part8_correct_attempt'
p776
(lp777
S'-1 day, 23:49:42'
p778
ag224
asS'part7_correct_attempt'
p779
(lp780
S'-1 day, 23:49:42'
p781
ag228
asS'part12_correct_attempt'
p782
(lp783
S'5:26:40'
p784
aV(1*1*1/16)+(2*1*2/16)+(3*1*1/16) + (1*3*1/16)+(2*3*2/16)+(3*3*1/16) + (2*1*2/16) + (2*2*4/16)+(3*2*2/16)
p785
asS'part2_correct_attempt'
p786
(lp787
S'0:00:00'
p788
ag232
asS'part12_incorrect_attempt'
p789
(lp790
(S'0:00:00'
p791
V4/16 + 8/16 + 4/16 + 4/16 + 8/16 + 4/16
p792
tp793
asS'part6_correct_attempt'
p794
(lp795
S'0:00:00'
p796
ag236
asS'part4_correct_attempt'
p797
(lp798
S'0:00:00'
p799
ag240
asS'part3_correct_attempt'
p800
(lp801
S'0:00:00'
p802
ag244
asS'part1_correct_attempt'
p803
(lp804
S'0:00:00'
p805
ag248
asg50
g249
ssVbpandayk
p806
(dp807
S'part5_correct_attempt'
p808
(lp809
S'0:00:33'
p810
aV8/16
p811
asS'part8_correct_attempt'
p812
(lp813
S'0:00:47'
p814
aV1
p815
asS'part7_correct_attempt'
p816
(lp817
S'0:00:57'
p818
aV1
p819
asS'part12_correct_attempt'
p820
(lp821
S'0:03:21'
p822
aV(32*32)/(16*16)
p823
asS'part2_correct_attempt'
p824
(lp825
S'0:00:33'
p826
aV8/16
p827
asS'part12_incorrect_attempt'
p828
(lp829
(S'0:02:52'
p830
V32*32/16
p831
tp832
asS'part6_correct_attempt'
p833
(lp834
S'0:00:33'
p835
aV4/16
p836
asS'part4_correct_attempt'
p837
(lp838
S'0:00:33'
p839
aV4/16
p840
asS'part3_correct_attempt'
p841
(lp842
S'0:00:33'
p843
aV4/16
p844
asS'part1_correct_attempt'
p845
(lp846
S'0:00:00'
p847
aV4/16
p848
asg50
V2015-10-30 17:58:33
p849
ssVwmiao
p850
(dp851
S'part5_correct_attempt'
p852
(lp853
S'0:00:00'
p854
aV8/16
p855
asS'part8_correct_attempt'
p856
(lp857
S'0:00:00'
p858
aV1
p859
asS'part7_correct_attempt'
p860
(lp861
S'0:00:00'
p862
aV1
p863
asS'part12_correct_attempt'
p864
(lp865
S'0:05:48'
p866
aV1*1/16+2*2/16+3*1/16+2*2/16+4*4/16+6*2/16+3*1/16+6*2/16+9*1/16
p867
asS'part2_correct_attempt'
p868
(lp869
S'0:00:00'
p870
aV8/16
p871
asS'part12_incorrect_attempt'
p872
(lp873
(S'0:04:47'
p874
V2*(1*4/16+4*8/16+9*4/16)
p875
tp876
asS'part6_correct_attempt'
p877
(lp878
S'0:00:00'
p879
aV4/16
p880
asS'part4_correct_attempt'
p881
(lp882
S'0:00:00'
p883
aV4/16
p884
asS'part3_correct_attempt'
p885
(lp886
S'0:00:00'
p887
aV4/16
p888
asS'part1_correct_attempt'
p889
(lp890
S'0:00:00'
p891
aV4/16
p892
asg50
V2015-10-29 18:00:40
p893
sssV15
p894
(dp895
Vstarinia
p896
(dp897
S'part15_correct_attempt'
p898
(lp899
S'5:30:35'
p900
aV0
p901
asS'part15_incorrect_attempt'
p902
(lp903
(S'0:00:00'
p904
V-1
p905
tp906
asg50
g249
ssVrraiyyan
p907
(dp908
S'part15_correct_attempt'
p909
(lp910
S'0:02:48'
p911
aV0
p912
asS'part15_incorrect_attempt'
p913
(lp914
(S'0:02:39'
p915
V-1
p916
tp917
asg50
V2015-10-28 01:08:26
p918
ssVhachrist
p919
(dp920
S'part15_correct_attempt'
p921
(lp922
S'0:04:55'
p923
aV0
p924
asS'part15_incorrect_attempt'
p925
(lp926
(S'0:04:48'
p927
V-1
p928
tp929
asg50
g293
ssVt1tran
p930
(dp931
S'part15_correct_attempt'
p932
(lp933
S'7:59:20'
p934
aV0
p935
asS'part15_incorrect_attempt'
p936
(lp937
(S'7:58:30'
p938
V-1
p939
tp940
asg50
g726
ssVr2fisher
p941
(dp942
S'part15_correct_attempt'
p943
(lp944
S'0:04:39'
p945
aV0
p946
asS'part15_incorrect_attempt'
p947
(lp948
(S'0:04:32'
p949
V-1
p950
tp951
asg50
V2015-10-26 23:25:07
p952
ssVdcastlem
p953
(dp954
S'part15_correct_attempt'
p955
(lp956
S'0:42:01'
p957
aV0
p958
asS'part15_incorrect_attempt'
p959
(lp960
(S'0:41:55'
p961
V-1
p962
tp963
asg50
V2015-10-30 21:56:14
p964
ssVkrkelkar
p965
(dp966
S'part15_correct_attempt'
p967
(lp968
S'0:00:15'
p969
aV0
p970
asS'part15_incorrect_attempt'
p971
(lp972
(S'0:00:00'
p973
V-1
p974
tp975
asg50
V2015-10-23 08:16:52
p976
ssVlguintu
p977
(dp978
S'part15_correct_attempt'
p979
(lp980
S'0:03:11'
p981
aV0
p982
asS'part15_incorrect_attempt'
p983
(lp984
(S'0:03:04'
p985
V-1
p986
tp987
asg50
V2015-10-24 23:54:12
p988
ssVlywong
p989
(dp990
S'part15_correct_attempt'
p991
(lp992
S'0:04:11'
p993
aV0
p994
asS'part15_incorrect_attempt'
p995
(lp996
(S'0:03:56'
p997
V-1
p998
tp999
a(S'0:04:00'
p1000
V-11
p1001
tp1002
asg50
V2015-10-28 08:38:01
p1003
ssVany027
p1004
(dp1005
S'part15_correct_attempt'
p1006
(lp1007
S'0:06:25'
p1008
aV0
p1009
asS'part15_incorrect_attempt'
p1010
(lp1011
(S'0:06:18'
p1012
V-1
p1013
tp1014
asg50
V2015-10-26 04:57:49
p1015
ssVakg009
p1016
(dp1017
S'part15_correct_attempt'
p1018
(lp1019
S'0:29:32'
p1020
aV0
p1021
asS'part15_incorrect_attempt'
p1022
(lp1023
(S'0:29:13'
p1024
V-1
p1025
tp1026
asg50
V2015-10-30 21:08:55
p1027
ssVasetters
p1028
(dp1029
S'part15_correct_attempt'
p1030
(lp1031
S'0:07:20'
p1032
aV0
p1033
asS'part15_incorrect_attempt'
p1034
(lp1035
(S'0:07:14'
p1036
V-1
p1037
tp1038
asg50
V2015-10-27 20:00:23
p1039
ssVe9brown
p1040
(dp1041
S'part15_correct_attempt'
p1042
(lp1043
S'0:00:45'
p1044
aV0
p1045
asS'part15_incorrect_attempt'
p1046
(lp1047
(S'0:00:40'
p1048
V-1
p1049
tp1050
asg50
V2015-10-27 23:18:13
p1051
ssVanvan
p1052
(dp1053
S'part15_correct_attempt'
p1054
(lp1055
S'2:09:14'
p1056
aV0
p1057
asS'part15_incorrect_attempt'
p1058
(lp1059
(S'2:09:07'
p1060
V-1
p1061
tp1062
asg50
V2015-10-30 16:13:55
p1063
ssVv3doan
p1064
(dp1065
S'part15_correct_attempt'
p1066
(lp1067
S'2:20:43'
p1068
aV0
p1069
asS'part15_incorrect_attempt'
p1070
(lp1071
(S'2:20:36'
p1072
V-1
p1073
tp1074
asg50
V2015-10-27 02:54:28
p1075
sssV1
p1076
(dp1077
Vb3hwang
p1078
(dp1079
S'part1_correct_attempt'
p1080
(lp1081
S'0:55:12'
p1082
aV4/16
p1083
asg50
V2015-10-28 02:11:28
p1084
sS'part1_incorrect_attempt'
p1085
(lp1086
(S'0:00:00'
p1087
V1/16
p1088
tp1089
assVrwthomps
p1090
(dp1091
S'part1_correct_attempt'
p1092
(lp1093
S'0:00:50'
p1094
aV4/16
p1095
asg50
V2015-10-30 20:39:16
p1096
sS'part1_incorrect_attempt'
p1097
(lp1098
(S'0:00:00'
p1099
V3/16
p1100
tp1101
assVagoldsht
p1102
(dp1103
S'part1_correct_attempt'
p1104
(lp1105
S'0:00:25'
p1106
aV4/16
p1107
asg50
V2015-10-29 05:18:45
p1108
sS'part1_incorrect_attempt'
p1109
(lp1110
(S'0:00:00'
p1111
V3/6
p1112
tp1113
a(S'0:00:14'
p1114
V4/6
p1115
tp1116
assVctroncos
p1117
(dp1118
S'part1_correct_attempt'
p1119
(lp1120
S'0:01:26'
p1121
aV(2/16)*2
p1122
asg50
V2015-10-29 16:21:35
p1123
sS'part1_incorrect_attempt'
p1124
(lp1125
(S'0:00:00'
p1126
V1/16
p1127
tp1128
assVt2shin
p1129
(dp1130
S'part1_correct_attempt'
p1131
(lp1132
S'0:00:59'
p1133
aV1/4
p1134
asg50
V2015-10-28 00:26:24
p1135
sS'part1_incorrect_attempt'
p1136
(lp1137
(S'0:00:00'
p1138
V1/16
p1139
tp1140
assVgalu
p1141
(dp1142
S'part1_correct_attempt'
p1143
(lp1144
S'0:02:41'
p1145
aV4/16
p1146
asg50
V2015-10-30 23:48:58
p1147
sS'part1_incorrect_attempt'
p1148
(lp1149
(S'0:00:00'
p1150
V1/16
p1151
tp1152
a(S'0:02:07'
p1153
V2/16
p1154
tp1155
assVkbielawi
p1156
(dp1157
S'part1_correct_attempt'
p1158
(lp1159
S'1 day, 1:38:43'
p1160
aV4/16
p1161
asg50
V2015-10-26 22:06:45
p1162
sS'part1_incorrect_attempt'
p1163
(lp1164
(S'0:00:00'
p1165
V1/16
p1166
tp1167
assVglcohen
p1168
(dp1169
S'part1_correct_attempt'
p1170
(lp1171
S'0:00:59'
p1172
aV4/16
p1173
asg50
V2015-10-27 15:50:27
p1174
sS'part1_incorrect_attempt'
p1175
(lp1176
(S'0:00:00'
p1177
V1/16
p1178
tp1179
assVachava
p1180
(dp1181
S'part1_correct_attempt'
p1182
(lp1183
S'0:00:56'
p1184
aV1/16+(2/16)+(1/16)
p1185
asg50
V2015-10-28 08:03:04
p1186
sS'part1_incorrect_attempt'
p1187
(lp1188
(S'0:00:00'
p1189
V1/16
p1190
tp1191
assVd6he
p1192
(dp1193
S'part1_correct_attempt'
p1194
(lp1195
S'0:00:45'
p1196
aV4/16
p1197
asg50
V2015-10-28 20:30:02
p1198
sS'part1_incorrect_attempt'
p1199
(lp1200
(S'0:00:00'
p1201
V1/16
p1202
tp1203
assVspw006
p1204
(dp1205
S'part1_correct_attempt'
p1206
(lp1207
S'1:11:55'
p1208
aV1/4
p1209
asg50
V2015-10-28 00:27:46
p1210
sS'part1_incorrect_attempt'
p1211
(lp1212
(S'0:00:00'
p1213
V1/16
p1214
tp1215
a(S'0:00:05'
p1216
V15/16
p1217
tp1218
assVany027
p1219
(dp1220
S'part1_correct_attempt'
p1221
(lp1222
S'0:00:22'
p1223
aV(1/16) + (2/16) + (1/16)
p1224
asg50
V2015-10-26 04:57:27
p1225
sS'part1_incorrect_attempt'
p1226
(lp1227
(S'0:00:00'
p1228
V1/16
p1229
tp1230
assVanislam
p1231
(dp1232
S'part1_correct_attempt'
p1233
(lp1234
S'0:01:51'
p1235
aV1/4
p1236
asg50
V2015-10-29 23:28:22
p1237
sS'part1_incorrect_attempt'
p1238
(lp1239
(S'0:00:00'
p1240
V1/4 + 1 + 3/4
p1241
tp1242
a(S'0:01:29'
p1243
V1/4 + 1 + 3/4
p1244
tp1245
assVs1powers
p1246
(dp1247
S'part1_correct_attempt'
p1248
(lp1249
S'0:01:06'
p1250
aV1/4
p1251
asg50
V2015-10-27 23:37:28
p1252
sS'part1_incorrect_attempt'
p1253
(lp1254
(S'0:00:00'
p1255
V1/16
p1256
tp1257
assVdcrume
p1258
(dp1259
S'part1_correct_attempt'
p1260
(lp1261
S'0:01:02'
p1262
aV4/16
p1263
asg50
V2015-10-28 20:30:10
p1264
sS'part1_incorrect_attempt'
p1265
(lp1266
(S'0:00:00'
p1267
V3/16
p1268
tp1269
assVmroknich
p1270
(dp1271
S'part1_correct_attempt'
p1272
(lp1273
S'0:02:04'
p1274
aV4/16
p1275
asg50
V2015-10-26 04:35:52
p1276
sS'part1_incorrect_attempt'
p1277
(lp1278
(S'0:00:00'
p1279
V1/16
p1280
tp1281
assVvsosnovs
p1282
(dp1283
S'part1_correct_attempt'
p1284
(lp1285
S'0:00:13'
p1286
aV4/16
p1287
asg50
V2015-10-30 06:17:07
p1288
sS'part1_incorrect_attempt'
p1289
(lp1290
(S'0:00:00'
p1291
V2/16
p1292
tp1293
a(S'0:00:07'
p1294
V1/16
p1295
tp1296
assVdkurli
p1297
(dp1298
S'part1_correct_attempt'
p1299
(lp1300
S'0:01:34'
p1301
aV1/4
p1302
asg50
V2015-10-29 22:41:37
p1303
sS'part1_incorrect_attempt'
p1304
(lp1305
(S'0:00:00'
p1306
V1/16
p1307
tp1308
assVjag028
p1309
(dp1310
S'part1_correct_attempt'
p1311
(lp1312
S'0:00:29'
p1313
aV1/4
p1314
asg50
V2015-10-30 14:20:22
p1315
sS'part1_incorrect_attempt'
p1316
(lp1317
(S'0:00:00'
p1318
V1/16
p1319
tp1320
assVs2chaudh
p1321
(dp1322
S'part1_correct_attempt'
p1323
(lp1324
S'0:00:49'
p1325
aV1/4
p1326
asg50
V2015-10-29 02:34:57
p1327
sS'part1_incorrect_attempt'
p1328
(lp1329
(S'0:00:00'
p1330
V.5
p1331
tp1332
assVkthui
p1333
(dp1334
S'part1_correct_attempt'
p1335
(lp1336
S'0:02:39'
p1337
aV4/16
p1338
asg50
V2015-10-25 02:49:21
p1339
sS'part1_incorrect_attempt'
p1340
(lp1341
(S'0:00:00'
p1342
V1/16
p1343
tp1344
assVksmurlo
p1345
(dp1346
S'part1_correct_attempt'
p1347
(lp1348
S'0:00:21'
p1349
aV4/16
p1350
asg50
V2015-10-27 07:22:14
p1351
sS'part1_incorrect_attempt'
p1352
(lp1353
(S'0:00:00'
p1354
V(4/3)/16
p1355
tp1356
assVqtluong
p1357
(dp1358
S'part1_correct_attempt'
p1359
(lp1360
S'0:00:29'
p1361
aV1/4
p1362
asg50
V2015-10-29 07:37:30
p1363
sS'part1_incorrect_attempt'
p1364
(lp1365
(S'0:00:00'
p1366
V1/3
p1367
tp1368
assVjew037
p1369
(dp1370
S'part1_correct_attempt'
p1371
(lp1372
S'0:01:05'
p1373
aV(1/16 + 2/16 + 1/16)
p1374
asg50
V2015-10-28 18:38:49
p1375
sS'part1_incorrect_attempt'
p1376
(lp1377
(S'0:00:00'
p1378
V1/16
p1379
tp1380
assVcfgutier
p1381
(dp1382
S'part1_correct_attempt'
p1383
(lp1384
S'7:17:16'
p1385
aV4/16
p1386
asg50
V2015-10-29 18:52:55
p1387
sS'part1_incorrect_attempt'
p1388
(lp1389
(S'0:00:00'
p1390
V1/16
p1391
tp1392
assVanl114
p1393
(dp1394
S'part1_correct_attempt'
p1395
(lp1396
S'0:00:13'
p1397
aV4/16
p1398
asg50
V2015-10-30 21:45:22
p1399
sS'part1_incorrect_attempt'
p1400
(lp1401
(S'0:00:00'
p1402
V1/16
p1403
tp1404
assVjnatale
p1405
(dp1406
S'part1_correct_attempt'
p1407
(lp1408
S'0:03:04'
p1409
aV(1/16) + (1/8) + (1/16)
p1410
asg50
V2015-10-26 05:27:42
p1411
sS'part1_incorrect_attempt'
p1412
(lp1413
(S'0:00:00'
p1414
V1/16
p1415
tp1416
assVavasavad
p1417
(dp1418
S'part1_correct_attempt'
p1419
(lp1420
S'5:01:14'
p1421
aV1/4
p1422
asg50
V2015-10-27 23:28:57
p1423
sS'part1_incorrect_attempt'
p1424
(lp1425
(S'0:00:00'
p1426
V1/16
p1427
tp1428
a(S'0:02:23'
p1429
V1/16 * 1/16
p1430
tp1431
a(S'0:02:41'
p1432
V1/(16*16)
p1433
tp1434
assVlalacson
p1435
(dp1436
S'part1_correct_attempt'
p1437
(lp1438
S'0:01:19'
p1439
aV4/16
p1440
asg50
V2015-10-29 04:43:36
p1441
sS'part1_incorrect_attempt'
p1442
(lp1443
(S'0:00:00'
p1444
V1/16
p1445
tp1446
assVjap009
p1447
(dp1448
S'part1_correct_attempt'
p1449
(lp1450
S'0:00:20'
p1451
aV4/16
p1452
asg50
V2015-10-30 10:50:36
p1453
sS'part1_incorrect_attempt'
p1454
(lp1455
(S'0:00:00'
p1456
V3/16
p1457
tp1458
assVdgunawan
p1459
(dp1460
S'part1_correct_attempt'
p1461
(lp1462
S'0:00:22'
p1463
aV4/16
p1464
asg50
V2015-10-29 23:46:30
p1465
sS'part1_incorrect_attempt'
p1466
(lp1467
(S'0:00:00'
p1468
V1/16
p1469
tp1470
assVrraiyyan
p1471
(dp1472
S'part1_correct_attempt'
p1473
(lp1474
S'0:05:55'
p1475
aV1/4
p1476
asg50
V2015-10-28 01:02:31
p1477
sS'part1_incorrect_attempt'
p1478
(lp1479
(S'0:00:00'
p1480
V1/16
p1481
tp1482
a(S'0:05:35'
p1483
V1/16
p1484
tp1485
assVr1gu
p1486
(dp1487
S'part1_correct_attempt'
p1488
(lp1489
S'0:03:06'
p1490
ag451
asg50
V2015-10-30 09:14:02
p1491
sS'part1_incorrect_attempt'
p1492
(lp1493
(S'0:00:00'
p1494
V1/16
p1495
tp1496
assVaurodrig
p1497
(dp1498
S'part1_correct_attempt'
p1499
(lp1500
S'0:04:28'
p1501
aV4/16
p1502
asg50
V2015-10-30 05:11:43
p1503
sS'part1_incorrect_attempt'
p1504
(lp1505
(S'0:00:00'
p1506
V1/16
p1507
tp1508
assVtcn013
p1509
(dp1510
S'part1_correct_attempt'
p1511
(lp1512
S'0:05:54'
p1513
aV1/4
p1514
asg50
V2015-10-27 00:44:16
p1515
sS'part1_incorrect_attempt'
p1516
(lp1517
(S'0:00:00'
p1518
V1/16
p1519
tp1520
a(S'0:05:08'
p1521
V4/(16*3)
p1522
tp1523
assVdtea
p1524
(dp1525
S'part1_correct_attempt'
p1526
(lp1527
S'0:00:08'
p1528
aV4/16
p1529
asg50
V2015-10-30 23:56:34
p1530
sS'part1_incorrect_attempt'
p1531
(lp1532
(S'0:00:00'
p1533
V1/16
p1534
tp1535
assVsmall
p1536
(dp1537
S'part1_correct_attempt'
p1538
(lp1539
S'0:06:31'
p1540
aV1/4
p1541
asg50
V2015-10-30 23:41:10
p1542
sS'part1_incorrect_attempt'
p1543
(lp1544
(S'0:00:00'
p1545
V1/16
p1546
tp1547
assVjel075
p1548
(dp1549
S'part1_correct_attempt'
p1550
(lp1551
S'0:00:32'
p1552
aV1/4
p1553
asg50
V2015-10-29 02:12:00
p1554
sS'part1_incorrect_attempt'
p1555
(lp1556
(S'0:00:00'
p1557
V1/12
p1558
tp1559
assVabasu
p1560
(dp1561
S'part1_correct_attempt'
p1562
(lp1563
S'0:02:45'
p1564
aV4/16
p1565
asg50
V2015-10-25 01:09:30
p1566
sS'part1_incorrect_attempt'
p1567
(lp1568
(S'0:00:00'
p1569
V1/16
p1570
tp1571
a(S'0:01:23'
p1572
V3/16
p1573
tp1574
assVc1sorian
p1575
(dp1576
S'part1_correct_attempt'
p1577
(lp1578
S'0:01:02'
p1579
aV4/16
p1580
asg50
V2015-10-28 22:00:19
p1581
sS'part1_incorrect_attempt'
p1582
(lp1583
(S'0:00:00'
p1584
V1/16
p1585
tp1586
assVhaliew
p1587
(dp1588
S'part1_correct_attempt'
p1589
(lp1590
S'0:00:24'
p1591
aV4/16
p1592
asg50
V2015-10-29 02:14:08
p1593
sS'part1_incorrect_attempt'
p1594
(lp1595
(S'0:00:00'
p1596
V3/16
p1597
tp1598
assVcsl030
p1599
(dp1600
S'part1_correct_attempt'
p1601
(lp1602
S'0:02:26'
p1603
aV4/16
p1604
asg50
V2015-10-29 23:45:36
p1605
sS'part1_incorrect_attempt'
p1606
(lp1607
(S'0:00:00'
p1608
V1/16^2
p1609
tp1610
assVralhadda
p1611
(dp1612
S'part1_correct_attempt'
p1613
(lp1614
S'0:02:01'
p1615
aV4/16
p1616
asg50
V2015-10-24 04:46:25
p1617
sS'part1_incorrect_attempt'
p1618
(lp1619
(S'0:00:00'
p1620
V1/16
p1621
tp1622
assVstarinia
p1623
(dp1624
S'part1_correct_attempt'
p1625
(lp1626
S'0:10:18'
p1627
ag248
asg50
V2015-10-29 20:46:36
p1628
sS'part1_incorrect_attempt'
p1629
(lp1630
(S'0:00:00'
p1631
V1/16
p1632
tp1633
assVbpandayk
p1634
(dp1635
S'part1_correct_attempt'
p1636
(lp1637
S'0:02:20'
p1638
ag848
asg50
V2015-10-30 17:56:13
p1639
sS'part1_incorrect_attempt'
p1640
(lp1641
(S'0:00:00'
p1642
V1/16
p1643
tp1644
assVs6deng
p1645
(dp1646
S'part1_correct_attempt'
p1647
(lp1648
S'0:07:00'
p1649
aV4/16
p1650
asg50
V2015-10-30 06:59:14
p1651
sS'part1_incorrect_attempt'
p1652
(lp1653
(S'0:00:00'
p1654
V1/16
p1655
tp1656
a(S'0:00:58'
p1657
V2/3
p1658
tp1659
a(S'0:01:04'
p1660
V1/3
p1661
tp1662
a(S'0:04:04'
p1663
V1/2
p1664
tp1665
assVamquinte
p1666
(dp1667
S'part1_correct_attempt'
p1668
(lp1669
S'0:13:18'
p1670
aV4/16
p1671
asg50
V2015-10-30 19:22:49
p1672
sS'part1_incorrect_attempt'
p1673
(lp1674
(S'0:00:00'
p1675
V1/16
p1676
tp1677
assVatorr
p1678
(dp1679
S'part1_correct_attempt'
p1680
(lp1681
S'0:00:30'
p1682
aV1/4
p1683
asg50
V2015-10-29 06:56:29
p1684
sS'part1_incorrect_attempt'
p1685
(lp1686
(S'0:00:00'
p1687
V1/16
p1688
tp1689
assVaordookh
p1690
(dp1691
S'part1_correct_attempt'
p1692
(lp1693
S'0:05:56'
p1694
aV4/16
p1695
asg50
V2015-10-29 03:13:47
p1696
sS'part1_incorrect_attempt'
p1697
(lp1698
(S'0:00:00'
p1699
V1/16
p1700
tp1701
assVsrl006
p1702
(dp1703
S'part1_correct_attempt'
p1704
(lp1705
S'0:00:27'
p1706
aV.25
p1707
asg50
V2015-10-30 00:34:42
p1708
sS'part1_incorrect_attempt'
p1709
(lp1710
(S'0:00:00'
p1711
V.5
p1712
tp1713
assVmtrafeca
p1714
(dp1715
S'part1_correct_attempt'
p1716
(lp1717
S'0:00:47'
p1718
aV1/4
p1719
asg50
V2015-10-25 06:50:00
p1720
sS'part1_incorrect_attempt'
p1721
(lp1722
(S'0:00:00'
p1723
V1/16
p1724
tp1725
asssV3
p1726
(dp1727
Vgalu
p1728
(dp1729
S'part3_correct_attempt'
p1730
(lp1731
S'0:00:00'
p1732
aV4/16
p1733
asS'part3_incorrect_attempt'
p1734
(lp1735
(S'-1 day, 23:57:19'
p1736
V1/16
p1737
tp1738
a(S'-1 day, 23:59:26'
p1739
V2/16
p1740
tp1741
asg50
V2015-10-30 23:51:39
p1742
ssVr2fisher
p1743
(dp1744
S'part3_correct_attempt'
p1745
(lp1746
S'0:00:23'
p1747
aV1/4
p1748
asS'part3_incorrect_attempt'
p1749
(lp1750
(S'-1 day, 23:59:20'
p1751
V(1+2+1+2*2+2*4+2*2+3+3*2+3)/16
p1752
tp1753
a(S'-1 day, 23:59:39'
p1754
V(1+2+1+2*2+2*4+2*2+3+3*2+3)/16
p1755
tp1756
asg50
g952
ssVctroncos
p1757
(dp1758
S'part3_correct_attempt'
p1759
(lp1760
S'0:00:22'
p1761
aV4/16
p1762
asS'part3_incorrect_attempt'
p1763
(lp1764
(S'-1 day, 23:58:34'
p1765
V2/16
p1766
tp1767
a(S'-1 day, 23:59:15'
p1768
V1/16
p1769
tp1770
asg50
V2015-10-29 16:23:01
p1771
ssVaggouw
p1772
(dp1773
S'part3_correct_attempt'
p1774
(lp1775
S'0:00:24'
p1776
ag150
asS'part3_incorrect_attempt'
p1777
(lp1778
(S'0:00:19'
p1779
V8/16
p1780
tp1781
asg50
g155
ssVglcohen
p1782
(dp1783
S'part3_correct_attempt'
p1784
(lp1785
S'0:00:00'
p1786
aV4/16
p1787
asS'part3_incorrect_attempt'
p1788
(lp1789
(S'-1 day, 23:59:01'
p1790
V1/16
p1791
tp1792
asg50
V2015-10-27 15:51:26
p1793
ssVc1sorian
p1794
(dp1795
S'part3_correct_attempt'
p1796
(lp1797
S'0:00:24'
p1798
aV4/16
p1799
asS'part3_incorrect_attempt'
p1800
(lp1801
(S'-1 day, 23:58:58'
p1802
V1/16
p1803
tp1804
asg50
V2015-10-28 22:01:21
p1805
ssVd6he
p1806
(dp1807
S'part3_correct_attempt'
p1808
(lp1809
S'0:00:00'
p1810
aV4/16
p1811
asS'part3_incorrect_attempt'
p1812
(lp1813
(S'-1 day, 23:59:15'
p1814
V1/16
p1815
tp1816
asg50
V2015-10-28 20:30:47
p1817
ssVany027
p1818
(dp1819
S'part3_correct_attempt'
p1820
(lp1821
S'0:00:52'
p1822
aV(1/16) + (2/16) + (1/16)
p1823
asS'part3_incorrect_attempt'
p1824
(lp1825
(S'-1 day, 23:59:38'
p1826
V1/16
p1827
tp1828
asg50
g1015
ssVrwthomps
p1829
(dp1830
S'part3_correct_attempt'
p1831
(lp1832
S'0:00:00'
p1833
aV4/16
p1834
asS'part3_incorrect_attempt'
p1835
(lp1836
(S'-1 day, 23:59:10'
p1837
V3/16
p1838
tp1839
asg50
V2015-10-30 20:40:06
p1840
ssVkrau
p1841
(dp1842
S'part3_correct_attempt'
p1843
(lp1844
S'0:01:50'
p1845
aV4/16
p1846
asS'part3_incorrect_attempt'
p1847
(lp1848
(S'0:01:33'
p1849
V1/8
p1850
tp1851
asg50
V2015-10-29 22:42:12
p1852
ssVkthui
p1853
(dp1854
S'part3_correct_attempt'
p1855
(lp1856
S'0:00:00'
p1857
aV4/16
p1858
asS'part3_incorrect_attempt'
p1859
(lp1860
(S'-1 day, 23:57:21'
p1861
V1/16
p1862
tp1863
asg50
V2015-10-25 02:52:00
p1864
ssVmroknich
p1865
(dp1866
S'part3_correct_attempt'
p1867
(lp1868
S'0:00:00'
p1869
aV4/16
p1870
asS'part3_incorrect_attempt'
p1871
(lp1872
(S'-1 day, 23:57:56'
p1873
V1/16
p1874
tp1875
asg50
V2015-10-26 04:37:56
p1876
ssVdkurli
p1877
(dp1878
S'part3_correct_attempt'
p1879
(lp1880
S'0:00:00'
p1881
aV1/4
p1882
asS'part3_incorrect_attempt'
p1883
(lp1884
(S'-1 day, 23:58:26'
p1885
V1/16
p1886
tp1887
asg50
V2015-10-29 22:43:11
p1888
ssVs2chaudh
p1889
(dp1890
S'part3_correct_attempt'
p1891
(lp1892
S'0:00:26'
p1893
aV1/4
p1894
asS'part3_incorrect_attempt'
p1895
(lp1896
(S'-1 day, 23:59:11'
p1897
V1/2
p1898
tp1899
asg50
V2015-10-29 02:35:46
p1900
ssVjew037
p1901
(dp1902
S'part3_correct_attempt'
p1903
(lp1904
S'0:00:20'
p1905
aV(1/16 + 2/16 + 1/16)
p1906
asS'part3_incorrect_attempt'
p1907
(lp1908
(S'-1 day, 23:58:55'
p1909
V1/16
p1910
tp1911
asg50
V2015-10-28 18:39:54
p1912
ssVanl114
p1913
(dp1914
S'part3_correct_attempt'
p1915
(lp1916
S'0:01:08'
p1917
aV4/16
p1918
asS'part3_incorrect_attempt'
p1919
(lp1920
(S'-1 day, 23:59:47'
p1921
V1/16
p1922
tp1923
asg50
V2015-10-30 21:45:35
p1924
ssVavasavad
p1925
(dp1926
S'part3_correct_attempt'
p1927
(lp1928
S'0:00:00'
p1929
aV1/4
p1930
asS'part3_incorrect_attempt'
p1931
(lp1932
(S'-1 day, 18:58:46'
p1933
V1/16
p1934
tp1935
asg50
V2015-10-28 04:30:11
p1936
ssVs6deng
p1937
(dp1938
S'part3_correct_attempt'
p1939
(lp1940
S'0:00:00'
p1941
aV4/16
p1942
asS'part3_incorrect_attempt'
p1943
(lp1944
(S'-1 day, 23:53:00'
p1945
V1/16
p1946
tp1947
asg50
V2015-10-30 07:06:14
p1948
ssVrraiyyan
p1949
(dp1950
S'part3_correct_attempt'
p1951
(lp1952
S'0:01:16'
p1953
aV1/4
p1954
asS'part3_incorrect_attempt'
p1955
(lp1956
(S'-1 day, 23:54:05'
p1957
V1/16
p1958
tp1959
asg50
g918
ssVkbielawi
p1960
(dp1961
S'part3_correct_attempt'
p1962
(lp1963
S'0:00:00'
p1964
aV4/16
p1965
asS'part3_incorrect_attempt'
p1966
(lp1967
(S'-2 days, 22:21:17'
p1968
V1/16
p1969
tp1970
asg50
V2015-10-27 23:45:28
p1971
ssVseleon
p1972
(dp1973
S'part3_correct_attempt'
p1974
(lp1975
S'0:01:50'
p1976
aV4/16
p1977
asS'part3_incorrect_attempt'
p1978
(lp1979
(S'0:01:17'
p1980
V5/16
p1981
tp1982
asg50
V2015-10-28 03:21:38
p1983
ssVhaliew
p1984
(dp1985
S'part3_correct_attempt'
p1986
(lp1987
S'0:00:00'
p1988
aV4/16
p1989
asS'part3_incorrect_attempt'
p1990
(lp1991
(S'-1 day, 23:59:36'
p1992
V3/16
p1993
tp1994
asg50
V2015-10-29 02:14:32
p1995
ssVstarinia
p1996
(dp1997
S'part3_correct_attempt'
p1998
(lp1999
S'0:00:00'
p2000
ag244
asS'part3_incorrect_attempt'
p2001
(lp2002
(S'-1 day, 23:49:42'
p2003
V1/16
p2004
tp2005
asg50
g249
ssVbpandayk
p2006
(dp2007
S'part3_correct_attempt'
p2008
(lp2009
S'0:00:33'
p2010
ag844
asS'part3_incorrect_attempt'
p2011
(lp2012
(S'-1 day, 23:57:40'
p2013
V1/16
p2014
tp2015
asg50
g849
ssVamquinte
p2016
(dp2017
S'part3_correct_attempt'
p2018
(lp2019
S'0:00:00'
p2020
aV4/16
p2021
asS'part3_incorrect_attempt'
p2022
(lp2023
(S'-1 day, 23:46:42'
p2024
V1/16
p2025
tp2026
asg50
V2015-10-30 19:36:07
p2027
ssVqtluong
p2028
(dp2029
S'part3_correct_attempt'
p2030
(lp2031
S'0:00:07'
p2032
aV1/4
p2033
asS'part3_incorrect_attempt'
p2034
(lp2035
(S'-1 day, 23:59:31'
p2036
V1/3
p2037
tp2038
a(S'0:00:00'
p2039
V3/4
p2040
tp2041
asg50
V2015-10-29 07:37:59
p2042
ssVsmall
p2043
(dp2044
S'part3_correct_attempt'
p2045
(lp2046
S'0:00:00'
p2047
aV1/4
p2048
asS'part3_incorrect_attempt'
p2049
(lp2050
(S'-1 day, 23:49:53'
p2051
V1/2
p2052
tp2053
a(S'-1 day, 23:51:17'
p2054
V1/4 + 3/4 + 1
p2055
tp2056
a(S'-1 day, 23:51:43'
p2057
V1/4 + 3/4 + 1
p2058
tp2059
a(S'-1 day, 23:52:18'
p2060
V1/4 + 3/4 + 1
p2061
tp2062
a(S'-1 day, 23:52:30'
p2063
V1/4 + 3/4 + 1
p2064
tp2065
a(S'-1 day, 23:52:46'
p2066
V1/4 + 3/4 + 1
p2067
tp2068
a(S'-1 day, 23:53:09'
p2069
V1/4 + 3/4 + 1
p2070
tp2071
a(S'-1 day, 23:53:56'
p2072
V1/16
p2073
tp2074
asg50
V2015-10-30 23:47:41
p2075
sssV2
p2076
(dp2077
Vgalu
p2078
(dp2079
S'part2_correct_attempt'
p2080
(lp2081
S'0:01:25'
p2082
aV8/16
p2083
asg50
g1742
sS'part2_incorrect_attempt'
p2084
(lp2085
(S'-1 day, 23:57:19'
p2086
V2/16
p2087
tp2088
a(S'-1 day, 23:59:26'
p2089
V1/16
p2090
tp2091
a(S'0:00:00'
p2092
V4/16
p2093
tp2094
assVctroncos
p2095
(dp2096
S'part2_correct_attempt'
p2097
(lp2098
S'0:00:22'
p2099
aV8/16
p2100
asg50
g1771
sS'part2_incorrect_attempt'
p2101
(lp2102
(S'-1 day, 23:58:34'
p2103
V2/16
p2104
tp2105
assVt2shin
p2106
(dp2107
S'part2_correct_attempt'
p2108
(lp2109
S'0:00:32'
p2110
aV2/4
p2111
asg50
V2015-10-28 00:27:23
p2112
sS'part2_incorrect_attempt'
p2113
(lp2114
(S'0:00:00'
p2115
V(2/16)^(1/2)
p2116
tp2117
assVkbielawi
p2118
(dp2119
S'part2_correct_attempt'
p2120
(lp2121
S'0:09:15'
p2122
aV8/16
p2123
asg50
g1971
sS'part2_incorrect_attempt'
p2124
(lp2125
(S'-2 days, 22:21:17'
p2126
V2/16
p2127
tp2128
assVglcohen
p2129
(dp2130
S'part2_correct_attempt'
p2131
(lp2132
S'0:00:00'
p2133
aV8/16
p2134
asg50
g1793
sS'part2_incorrect_attempt'
p2135
(lp2136
(S'-1 day, 23:59:01'
p2137
V2/16
p2138
tp2139
assVc1sorian
p2140
(dp2141
S'part2_correct_attempt'
p2142
(lp2143
S'0:00:24'
p2144
aV8/16
p2145
asg50
g1805
sS'part2_incorrect_attempt'
p2146
(lp2147
(S'-1 day, 23:58:58'
p2148
V2/16
p2149
tp2150
assVd6he
p2151
(dp2152
S'part2_correct_attempt'
p2153
(lp2154
S'0:00:00'
p2155
aV8/16
p2156
asg50
g1817
sS'part2_incorrect_attempt'
p2157
(lp2158
(S'-1 day, 23:59:15'
p2159
V2/16
p2160
tp2161
a(S'-1 day, 23:59:24'
p2162
V4/16
p2163
tp2164
assVany027
p2165
(dp2166
S'part2_correct_attempt'
p2167
(lp2168
S'0:00:52'
p2169
aV(2/16) + (4/16) + (2/16)
p2170
asg50
g1015
sS'part2_incorrect_attempt'
p2171
(lp2172
(S'-1 day, 23:59:38'
p2173
V2/16
p2174
tp2175
assVrwthomps
p2176
(dp2177
S'part2_correct_attempt'
p2178
(lp2179
S'0:00:00'
p2180
aV8/16
p2181
asg50
g1840
sS'part2_incorrect_attempt'
p2182
(lp2183
(S'-1 day, 23:59:10'
p2184
V6/16
p2185
tp2186
assVkthui
p2187
(dp2188
S'part2_correct_attempt'
p2189
(lp2190
S'0:00:00'
p2191
aV8/16
p2192
asg50
g1864
sS'part2_incorrect_attempt'
p2193
(lp2194
(S'-1 day, 23:57:21'
p2195
V2/16
p2196
tp2197
assVmroknich
p2198
(dp2199
S'part2_correct_attempt'
p2200
(lp2201
S'0:00:00'
p2202
aV8/16
p2203
asg50
g1876
sS'part2_incorrect_attempt'
p2204
(lp2205
(S'-1 day, 23:57:56'
p2206
V2/16
p2207
tp2208
assVdkurli
p2209
(dp2210
S'part2_correct_attempt'
p2211
(lp2212
S'0:00:00'
p2213
aV1/2
p2214
asg50
g1888
sS'part2_incorrect_attempt'
p2215
(lp2216
(S'-1 day, 23:58:26'
p2217
V2/16
p2218
tp2219
assVamquinte
p2220
(dp2221
S'part2_correct_attempt'
p2222
(lp2223
S'0:00:00'
p2224
aV8/16
p2225
asg50
g2027
sS'part2_incorrect_attempt'
p2226
(lp2227
(S'-1 day, 23:46:42'
p2228
V2/16
p2229
tp2230
assVjew037
p2231
(dp2232
S'part2_correct_attempt'
p2233
(lp2234
S'0:01:04'
p2235
aV(2/16 + 4/16 + 2/16)
p2236
asg50
g1912
sS'part2_incorrect_attempt'
p2237
(lp2238
(S'-1 day, 23:58:55'
p2239
V2/16
p2240
tp2241
a(S'0:00:40'
p2242
V(1/16 + 2/16 + 1/16)
p2243
tp2244
assVanl114
p2245
(dp2246
S'part2_correct_attempt'
p2247
(lp2248
S'0:01:08'
p2249
aV8/16
p2250
asg50
g1924
sS'part2_incorrect_attempt'
p2251
(lp2252
(S'-1 day, 23:59:47'
p2253
V2/16
p2254
tp2255
assVavasavad
p2256
(dp2257
S'part2_correct_attempt'
p2258
(lp2259
S'0:00:00'
p2260
aV1/2
p2261
asg50
g1936
sS'part2_incorrect_attempt'
p2262
(lp2263
(S'-1 day, 18:58:46'
p2264
V2/16
p2265
tp2266
a(S'-1 day, 19:01:09'
p2267
V4/16
p2268
tp2269
assVs6deng
p2270
(dp2271
S'part2_correct_attempt'
p2272
(lp2273
S'0:00:00'
p2274
aV8/16
p2275
asg50
g1948
sS'part2_incorrect_attempt'
p2276
(lp2277
(S'-1 day, 23:53:00'
p2278
V2/16
p2279
tp2280
assVrraiyyan
p2281
(dp2282
S'part2_correct_attempt'
p2283
(lp2284
S'0:01:16'
p2285
aV1/2
p2286
asg50
g918
sS'part2_incorrect_attempt'
p2287
(lp2288
(S'-1 day, 23:54:05'
p2289
V1/8
p2290
tp2291
assVr1gu
p2292
(dp2293
S'part2_correct_attempt'
p2294
(lp2295
S'0:00:00'
p2296
ag435
asg50
g452
sS'part2_incorrect_attempt'
p2297
(lp2298
(S'-1 day, 23:56:54'
p2299
V2/16
p2300
tp2301
assVhaliew
p2302
(dp2303
S'part2_correct_attempt'
p2304
(lp2305
S'0:00:00'
p2306
aV8/16
p2307
asg50
g1995
sS'part2_incorrect_attempt'
p2308
(lp2309
(S'-1 day, 23:59:36'
p2310
V10/16
p2311
tp2312
assVppanourg
p2313
(dp2314
S'part2_correct_attempt'
p2315
(lp2316
S'0:00:53'
p2317
aV8/16
p2318
asg50
V2015-10-30 20:35:08
p2319
sS'part2_incorrect_attempt'
p2320
(lp2321
(S'0:00:00'
p2322
V6/16
p2323
tp2324
assVjtfrankl
p2325
(dp2326
S'part2_correct_attempt'
p2327
(lp2328
S'0:02:58'
p2329
aV.5
p2330
asg50
V2015-10-28 21:16:42
p2331
sS'part2_incorrect_attempt'
p2332
(lp2333
(S'0:02:06'
p2334
V4/16
p2335
tp2336
assVaordookh
p2337
(dp2338
S'part2_correct_attempt'
p2339
(lp2340
S'0:02:16'
p2341
aV8/16
p2342
asg50
V2015-10-29 03:19:43
p2343
sS'part2_incorrect_attempt'
p2344
(lp2345
(S'0:00:00'
p2346
V6/16
p2347
tp2348
assVstarinia
p2349
(dp2350
S'part2_correct_attempt'
p2351
(lp2352
S'0:00:00'
p2353
ag232
asg50
g249
sS'part2_incorrect_attempt'
p2354
(lp2355
(S'-1 day, 23:49:42'
p2356
V2/16
p2357
tp2358
assVbpandayk
p2359
(dp2360
S'part2_correct_attempt'
p2361
(lp2362
S'0:00:33'
p2363
ag827
asg50
g849
sS'part2_incorrect_attempt'
p2364
(lp2365
(S'-1 day, 23:57:40'
p2366
V2/16
p2367
tp2368
assVqtluong
p2369
(dp2370
S'part2_correct_attempt'
p2371
(lp2372
S'0:00:00'
p2373
aV2/4
p2374
asg50
g2042
sS'part2_incorrect_attempt'
p2375
(lp2376
(S'-1 day, 23:59:31'
p2377
V1/3
p2378
tp2379
assVsmall
p2380
(dp2381
S'part2_correct_attempt'
p2382
(lp2383
S'0:00:00'
p2384
aV1/2
p2385
asg50
g2075
sS'part2_incorrect_attempt'
p2386
(lp2387
(S'-1 day, 23:53:56'
p2388
V2/16
p2389
tp2390
asssV5
p2391
(dp2392
Vgalu
p2393
(dp2394
S'part5_correct_attempt'
p2395
(lp2396
S'0:01:25'
p2397
aV8/16
p2398
asS'part5_incorrect_attempt'
p2399
(lp2400
(S'-1 day, 23:57:19'
p2401
V2/16
p2402
tp2403
a(S'-1 day, 23:59:26'
p2404
V1/16
p2405
tp2406
a(S'0:00:00'
p2407
V4/16
p2408
tp2409
asg50
g1742
ssVjtfrankl
p2410
(dp2411
S'part5_correct_attempt'
p2412
(lp2413
S'0:02:58'
p2414
aV1/2
p2415
asS'part5_incorrect_attempt'
p2416
(lp2417
(S'0:02:06'
p2418
V1/4
p2419
tp2420
asg50
g2331
ssVamquinte
p2421
(dp2422
S'part5_correct_attempt'
p2423
(lp2424
S'0:00:00'
p2425
aV8/16
p2426
asS'part5_incorrect_attempt'
p2427
(lp2428
(S'-1 day, 23:46:42'
p2429
V2/16
p2430
tp2431
asg50
g2027
ssVaordookh
p2432
(dp2433
S'part5_correct_attempt'
p2434
(lp2435
S'0:02:16'
p2436
aV8/16
p2437
asS'part5_incorrect_attempt'
p2438
(lp2439
(S'0:00:00'
p2440
V6/16
p2441
tp2442
asg50
g2343
ssVstarinia
p2443
(dp2444
S'part5_correct_attempt'
p2445
(lp2446
S'0:00:00'
p2447
ag211
asS'part5_incorrect_attempt'
p2448
(lp2449
(S'-1 day, 23:49:42'
p2450
V2/16
p2451
tp2452
asg50
g249
ssVaggouw
p2453
(dp2454
S'part5_correct_attempt'
p2455
(lp2456
S'0:00:40'
p2457
ag113
asS'part5_incorrect_attempt'
p2458
(lp2459
(S'0:00:35'
p2460
V4/16
p2461
tp2462
asg50
g155
ssVjew037
p2463
(dp2464
S'part5_correct_attempt'
p2465
(lp2466
S'0:01:04'
p2467
aV(2/16 + 4/16 + 2/16)
p2468
asS'part5_incorrect_attempt'
p2469
(lp2470
(S'0:00:40'
p2471
V(1/16 + 2/16 + 1/16)
p2472
tp2473
asg50
g1912
ssVglcohen
p2474
(dp2475
S'part5_correct_attempt'
p2476
(lp2477
S'0:01:07'
p2478
aV8/16
p2479
asS'part5_incorrect_attempt'
p2480
(lp2481
(S'-1 day, 23:59:01'
p2482
V2/16
p2483
tp2484
asg50
g1793
ssVc1sorian
p2485
(dp2486
S'part5_correct_attempt'
p2487
(lp2488
S'0:00:24'
p2489
aV1/2
p2490
asS'part5_incorrect_attempt'
p2491
(lp2492
(S'-1 day, 23:58:58'
p2493
V2/16
p2494
tp2495
asg50
g1805
ssVanl114
p2496
(dp2497
S'part5_correct_attempt'
p2498
(lp2499
S'0:01:08'
p2500
aV8/16
p2501
asS'part5_incorrect_attempt'
p2502
(lp2503
(S'-1 day, 23:59:47'
p2504
V2/16
p2505
tp2506
asg50
g1924
ssVrwthomps
p2507
(dp2508
S'part5_correct_attempt'
p2509
(lp2510
S'0:00:00'
p2511
aV8/16
p2512
asS'part5_incorrect_attempt'
p2513
(lp2514
(S'-1 day, 23:59:10'
p2515
V6/16
p2516
tp2517
asg50
g1840
ssVavasavad
p2518
(dp2519
S'part5_correct_attempt'
p2520
(lp2521
S'0:00:26'
p2522
aV1/2
p2523
asS'part5_incorrect_attempt'
p2524
(lp2525
(S'-1 day, 18:58:46'
p2526
V2/16
p2527
tp2528
asg50
g1936
ssVkthui
p2529
(dp2530
S'part5_correct_attempt'
p2531
(lp2532
S'0:00:00'
p2533
aV8/16
p2534
asS'part5_incorrect_attempt'
p2535
(lp2536
(S'-1 day, 23:57:21'
p2537
V2/16
p2538
tp2539
asg50
g1864
ssVs6deng
p2540
(dp2541
S'part5_correct_attempt'
p2542
(lp2543
S'0:00:00'
p2544
aV8/16
p2545
asS'part5_incorrect_attempt'
p2546
(lp2547
(S'-1 day, 23:53:00'
p2548
V2/16
p2549
tp2550
asg50
g1948
sssV4
p2551
(dp2552
Vgalu
p2553
(dp2554
S'part4_correct_attempt'
p2555
(lp2556
S'0:00:00'
p2557
aV4/16
p2558
asS'part4_incorrect_attempt'
p2559
(lp2560
(S'-1 day, 23:57:19'
p2561
V1/16
p2562
tp2563
a(S'-1 day, 23:59:26'
p2564
V2/16
p2565
tp2566
asg50
g1742
ssVc1sorian
p2567
(dp2568
S'part4_correct_attempt'
p2569
(lp2570
S'0:00:24'
p2571
aV4/16
p2572
asS'part4_incorrect_attempt'
p2573
(lp2574
(S'-1 day, 23:58:58'
p2575
V1/16
p2576
tp2577
asg50
g1805
ssVstarinia
p2578
(dp2579
S'part4_correct_attempt'
p2580
(lp2581
S'0:00:00'
p2582
ag240
asS'part4_incorrect_attempt'
p2583
(lp2584
(S'-1 day, 23:49:42'
p2585
V1/16
p2586
tp2587
asg50
g249
ssVanl114
p2588
(dp2589
S'part4_correct_attempt'
p2590
(lp2591
S'0:01:08'
p2592
aV4/16
p2593
asS'part4_incorrect_attempt'
p2594
(lp2595
(S'-1 day, 23:59:47'
p2596
V1/16
p2597
tp2598
asg50
g1924
ssVt2shin
p2599
(dp2600
S'part4_correct_attempt'
p2601
(lp2602
S'0:00:43'
p2603
aV1/4
p2604
asS'part4_incorrect_attempt'
p2605
(lp2606
(S'0:00:32'
p2607
V1/16
p2608
tp2609
asg50
g2112
ssVr2fisher
p2610
(dp2611
S'part4_correct_attempt'
p2612
(lp2613
S'0:00:23'
p2614
aV1/4
p2615
asS'part4_incorrect_attempt'
p2616
(lp2617
(S'-1 day, 23:59:39'
p2618
V(1+2+1+2*2+2*4+2*2+3+3*2+3)/16
p2619
tp2620
asg50
g952
ssVffhaddad
p2621
(dp2622
S'part4_correct_attempt'
p2623
(lp2624
S'0:01:53'
p2625
ag502
asS'part4_incorrect_attempt'
p2626
(lp2627
(S'0:01:23'
p2628
V46.9445
p2629
tp2630
asg50
g511
ssVglcohen
p2631
(dp2632
S'part4_correct_attempt'
p2633
(lp2634
S'0:01:07'
p2635
aV4/16
p2636
asS'part4_incorrect_attempt'
p2637
(lp2638
(S'-1 day, 23:59:01'
p2639
V1/16
p2640
tp2641
asg50
g1793
ssVseleon
p2642
(dp2643
S'part4_correct_attempt'
p2644
(lp2645
S'0:01:50'
p2646
aV4/16
p2647
asS'part4_incorrect_attempt'
p2648
(lp2649
(S'0:01:17'
p2650
V5/16
p2651
tp2652
asg50
g1983
ssVamquinte
p2653
(dp2654
S'part4_correct_attempt'
p2655
(lp2656
S'0:00:00'
p2657
aV4/16
p2658
asS'part4_incorrect_attempt'
p2659
(lp2660
(S'-1 day, 23:46:42'
p2661
V1/16
p2662
tp2663
asg50
g2027
ssVrwthomps
p2664
(dp2665
S'part4_correct_attempt'
p2666
(lp2667
S'0:00:00'
p2668
aV4/16
p2669
asS'part4_incorrect_attempt'
p2670
(lp2671
(S'-1 day, 23:59:10'
p2672
V3/16
p2673
tp2674
asg50
g1840
ssVavasavad
p2675
(dp2676
S'part4_correct_attempt'
p2677
(lp2678
S'0:00:26'
p2679
aV1/4
p2680
asS'part4_incorrect_attempt'
p2681
(lp2682
(S'-1 day, 18:58:46'
p2683
V1/16
p2684
tp2685
asg50
g1936
ssVsmall
p2686
(dp2687
S'part4_correct_attempt'
p2688
(lp2689
S'0:00:00'
p2690
aV1/4
p2691
asS'part4_incorrect_attempt'
p2692
(lp2693
(S'-1 day, 23:51:43'
p2694
V1/4 + 3/4 + 1
p2695
tp2696
a(S'-1 day, 23:52:18'
p2697
V1/4 + 3/4 + 1
p2698
tp2699
a(S'-1 day, 23:52:30'
p2700
V1/4 + 3/4 + 1
p2701
tp2702
a(S'-1 day, 23:52:46'
p2703
V1/4 + 3/4 + 1
p2704
tp2705
a(S'-1 day, 23:53:09'
p2706
V1/4 + 3/4 + 1
p2707
tp2708
asg50
g2075
ssVkthui
p2709
(dp2710
S'part4_correct_attempt'
p2711
(lp2712
S'0:00:00'
p2713
aV4/16
p2714
asS'part4_incorrect_attempt'
p2715
(lp2716
(S'-1 day, 23:57:21'
p2717
V1/16
p2718
tp2719
asg50
g1864
ssVs6deng
p2720
(dp2721
S'part4_correct_attempt'
p2722
(lp2723
S'0:00:00'
p2724
aV4/16
p2725
asS'part4_incorrect_attempt'
p2726
(lp2727
(S'-1 day, 23:53:00'
p2728
V1/16
p2729
tp2730
asg50
g1948
sssV7
p2731
(dp2732
sV6
p2733
(dp2734
Vc1sorian
p2735
(dp2736
S'part6_incorrect_attempt'
p2737
(lp2738
(S'-1 day, 23:58:58'
p2739
V1/16
p2740
tp2741
asg50
g1805
sS'part6_correct_attempt'
p2742
(lp2743
S'0:00:24'
p2744
aV1/4
p2745
assVgalu
p2746
(dp2747
S'part6_incorrect_attempt'
p2748
(lp2749
(S'-1 day, 23:57:19'
p2750
V1/16
p2751
tp2752
a(S'-1 day, 23:59:26'
p2753
V2/16
p2754
tp2755
asg50
g1742
sS'part6_correct_attempt'
p2756
(lp2757
S'0:00:00'
p2758
aV4/16
p2759
assVamquinte
p2760
(dp2761
S'part6_incorrect_attempt'
p2762
(lp2763
(S'-1 day, 23:46:42'
p2764
V1/16
p2765
tp2766
asg50
g2027
sS'part6_correct_attempt'
p2767
(lp2768
S'0:00:00'
p2769
aV4/16
p2770
assVstarinia
p2771
(dp2772
S'part6_incorrect_attempt'
p2773
(lp2774
(S'-1 day, 23:49:42'
p2775
V1/16
p2776
tp2777
asg50
g249
sS'part6_correct_attempt'
p2778
(lp2779
S'0:00:00'
p2780
ag236
assVaggouw
p2781
(dp2782
S'part6_incorrect_attempt'
p2783
(lp2784
(S'0:00:50'
p2785
V8/16
p2786
tp2787
asg50
g155
sS'part6_correct_attempt'
p2788
(lp2789
S'0:00:55'
p2790
ag142
assVglcohen
p2791
(dp2792
S'part6_incorrect_attempt'
p2793
(lp2794
(S'-1 day, 23:59:01'
p2795
V1/16
p2796
tp2797
asg50
g1793
sS'part6_correct_attempt'
p2798
(lp2799
S'0:01:07'
p2800
aV4/16
p2801
assVseleon
p2802
(dp2803
S'part6_incorrect_attempt'
p2804
(lp2805
(S'0:01:17'
p2806
V5/16
p2807
tp2808
asg50
g1983
sS'part6_correct_attempt'
p2809
(lp2810
S'0:01:56'
p2811
aV4/16
p2812
assVanl114
p2813
(dp2814
S'part6_incorrect_attempt'
p2815
(lp2816
(S'-1 day, 23:59:47'
p2817
V1/16
p2818
tp2819
asg50
g1924
sS'part6_correct_attempt'
p2820
(lp2821
S'0:01:08'
p2822
aV4/16
p2823
assVrwthomps
p2824
(dp2825
S'part6_incorrect_attempt'
p2826
(lp2827
(S'-1 day, 23:59:10'
p2828
V3/16
p2829
tp2830
asg50
g1840
sS'part6_correct_attempt'
p2831
(lp2832
S'0:00:00'
p2833
aV4/16
p2834
assVavasavad
p2835
(dp2836
S'part6_incorrect_attempt'
p2837
(lp2838
(S'-1 day, 18:58:46'
p2839
V1/16
p2840
tp2841
asg50
g1936
sS'part6_correct_attempt'
p2842
(lp2843
S'0:00:26'
p2844
aV1/4
p2845
assVsmall
p2846
(dp2847
S'part6_incorrect_attempt'
p2848
(lp2849
(S'-1 day, 23:53:09'
p2850
V(1/4 + 3/4 + 1)(1/4 + 3/4 + 1)
p2851
tp2852
asg50
g2075
sS'part6_correct_attempt'
p2853
(lp2854
S'0:00:00'
p2855
aV1/4
p2856
assVkthui
p2857
(dp2858
S'part6_incorrect_attempt'
p2859
(lp2860
(S'-1 day, 23:57:21'
p2861
V1/16
p2862
tp2863
asg50
g1864
sS'part6_correct_attempt'
p2864
(lp2865
S'0:00:00'
p2866
aV4/16
p2867
assVs6deng
p2868
(dp2869
S'part6_incorrect_attempt'
p2870
(lp2871
(S'-1 day, 23:53:00'
p2872
V1/16
p2873
tp2874
asg50
g1948
sS'part6_correct_attempt'
p2875
(lp2876
S'0:00:00'
p2877
aV4/16
p2878
asssV9
p2879
(dp2880
Vdgunawan
p2881
(dp2882
S'part5_correct_attempt'
p2883
(lp2884
S'0:00:29'
p2885
aV8/16
p2886
asS'part9_correct_attempt'
p2887
(lp2888
S'0:02:34'
p2889
aV(1/16)[4(1)+8(2)+4(3)]
p2890
asS'part9_incorrect_attempt'
p2891
(lp2892
(S'0:02:07'
p2893
V(1/16)[4+8+4]
p2894
tp2895
asS'part8_correct_attempt'
p2896
(lp2897
S'0:00:40'
p2898
aV1
p2899
asS'part7_correct_attempt'
p2900
(lp2901
S'0:00:49'
p2902
aV1
p2903
asS'part2_correct_attempt'
p2904
(lp2905
S'0:00:29'
p2906
aV8/16
p2907
asS'part6_correct_attempt'
p2908
(lp2909
S'0:00:29'
p2910
aV4/16
p2911
asS'part4_correct_attempt'
p2912
(lp2913
S'0:00:29'
p2914
aV4/16
p2915
asS'part3_correct_attempt'
p2916
(lp2917
S'0:00:29'
p2918
aV4/16
p2919
asS'part1_correct_attempt'
p2920
(lp2921
S'0:00:00'
p2922
ag1464
asg50
V2015-10-29 23:46:52
p2923
ssVhachrist
p2924
(dp2925
S'part5_correct_attempt'
p2926
(lp2927
S'0:01:07'
p2928
ag255
asS'part9_correct_attempt'
p2929
(lp2930
S'0:12:28'
p2931
aV2
p2932
asS'part9_incorrect_attempt'
p2933
(lp2934
(S'0:04:35'
p2935
V4/16 + 8/16 + 4/16
p2936
tp2937
asS'part8_correct_attempt'
p2938
(lp2939
S'0:01:07'
p2940
ag268
asS'part7_correct_attempt'
p2941
(lp2942
S'0:01:07'
p2943
ag272
asS'part2_correct_attempt'
p2944
(lp2945
S'0:01:07'
p2946
ag276
asS'part6_correct_attempt'
p2947
(lp2948
S'0:01:07'
p2949
ag280
asS'part4_correct_attempt'
p2950
(lp2951
S'0:01:07'
p2952
ag284
asS'part3_correct_attempt'
p2953
(lp2954
S'0:01:07'
p2955
ag288
asS'part1_correct_attempt'
p2956
(lp2957
S'0:00:00'
p2958
ag292
asg50
g293
ssVctroncos
p2959
(dp2960
S'part5_correct_attempt'
p2961
(lp2962
S'0:00:44'
p2963
aV8/16
p2964
asS'part9_correct_attempt'
p2965
(lp2966
S'0:03:06'
p2967
aV(4/16)+2*(8/16)+(4/16)*3
p2968
asS'part9_incorrect_attempt'
p2969
(lp2970
(S'0:02:09'
p2971
V(4/16)+(8/16)+(4/16)
p2972
tp2973
asS'part8_correct_attempt'
p2974
(lp2975
S'0:02:09'
p2976
aV1
p2977
asS'part7_correct_attempt'
p2978
(lp2979
S'0:02:09'
p2980
aV1
p2981
asS'part2_correct_attempt'
p2982
(lp2983
S'0:00:22'
p2984
ag2100
asS'part6_correct_attempt'
p2985
(lp2986
S'0:00:44'
p2987
aV4/16
p2988
asS'part4_correct_attempt'
p2989
(lp2990
S'0:00:44'
p2991
aV4/16
p2992
asS'part3_correct_attempt'
p2993
(lp2994
S'0:00:22'
p2995
ag1762
asS'part1_correct_attempt'
p2996
(lp2997
S'0:00:00'
p2998
ag1122
asg50
g1771
ssVksmurlo
p2999
(dp3000
S'part5_correct_attempt'
p3001
(lp3002
S'0:00:54'
p3003
aV8/16
p3004
asS'part9_correct_attempt'
p3005
(lp3006
S'1 day, 22:37:50'
p3007
aV2
p3008
asS'part9_incorrect_attempt'
p3009
(lp3010
(S'1 day, 22:37:37'
p3011
V(2/16)+(8/16)+(6/16)
p3012
tp3013
asS'part8_correct_attempt'
p3014
(lp3015
S'0:00:54'
p3016
aV1
p3017
asS'part7_correct_attempt'
p3018
(lp3019
S'0:01:55'
p3020
aV1
p3021
asS'part2_correct_attempt'
p3022
(lp3023
S'0:00:54'
p3024
aV8/16
p3025
asS'part6_correct_attempt'
p3026
(lp3027
S'0:00:54'
p3028
aV4/16
p3029
asS'part4_correct_attempt'
p3030
(lp3031
S'0:00:54'
p3032
aV4/16
p3033
asS'part3_correct_attempt'
p3034
(lp3035
S'0:00:54'
p3036
aV4/16
p3037
asS'part1_correct_attempt'
p3038
(lp3039
S'0:00:00'
p3040
ag1350
asg50
V2015-10-27 07:22:35
p3041
ssVstarinia
p3042
(dp3043
S'part5_correct_attempt'
p3044
(lp3045
S'0:00:00'
p3046
ag211
asS'part9_correct_attempt'
p3047
(lp3048
S'5:25:51'
p3049
aV1/16 + 2/16+1/16 + 4/16+ 8/16+4/16+3/16+ 6/16+3/16
p3050
asS'part9_incorrect_attempt'
p3051
(lp3052
(S'0:00:00'
p3053
V4/16 + 8/16 + 4/16
p3054
tp3055
asS'part8_correct_attempt'
p3056
(lp3057
S'-1 day, 23:49:42'
p3058
ag224
asS'part7_correct_attempt'
p3059
(lp3060
S'-1 day, 23:49:42'
p3061
ag228
asS'part2_correct_attempt'
p3062
(lp3063
S'0:00:00'
p3064
ag232
asS'part6_correct_attempt'
p3065
(lp3066
S'0:00:00'
p3067
ag236
asS'part4_correct_attempt'
p3068
(lp3069
S'0:00:00'
p3070
ag240
asS'part3_correct_attempt'
p3071
(lp3072
S'0:00:00'
p3073
ag244
asS'part1_correct_attempt'
p3074
(lp3075
S'0:00:00'
p3076
ag248
asg50
g249
ssVcfgutier
p3077
(dp3078
S'part5_correct_attempt'
p3079
(lp3080
S'0:00:58'
p3081
aV8/16
p3082
asS'part9_correct_attempt'
p3083
(lp3084
S'0:36:23'
p3085
aV32/16
p3086
asS'part9_incorrect_attempt'
p3087
(lp3088
(S'0:34:19'
p3089
V16/16
p3090
tp3091
asS'part8_correct_attempt'
p3092
(lp3093
S'0:01:50'
p3094
aV1
p3095
asS'part7_correct_attempt'
p3096
(lp3097
S'0:01:20'
p3098
aV1
p3099
asS'part2_correct_attempt'
p3100
(lp3101
S'0:00:17'
p3102
aV8/16
p3103
asS'part6_correct_attempt'
p3104
(lp3105
S'0:00:58'
p3106
aV4/16
p3107
asS'part4_correct_attempt'
p3108
(lp3109
S'0:00:58'
p3110
aV4/16
p3111
asS'part3_correct_attempt'
p3112
(lp3113
S'0:00:17'
p3114
aV4/16
p3115
asS'part1_correct_attempt'
p3116
(lp3117
S'0:00:00'
p3118
ag1386
asg50
V2015-10-30 02:10:11
p3119
ssVjblynch
p3120
(dp3121
S'part5_correct_attempt'
p3122
(lp3123
S'0:01:36'
p3124
aV8/16
p3125
asS'part9_correct_attempt'
p3126
(lp3127
S'0:04:54'
p3128
aV(4/16)+(16/16)+(12/16)
p3129
asS'part9_incorrect_attempt'
p3130
(lp3131
(S'0:04:23'
p3132
V(4/16)+(8/16)+(4/16)
p3133
tp3134
asS'part8_correct_attempt'
p3135
(lp3136
S'0:01:36'
p3137
aV1
p3138
asS'part7_correct_attempt'
p3139
(lp3140
S'0:01:57'
p3141
aV1
p3142
asS'part2_correct_attempt'
p3143
(lp3144
S'0:00:00'
p3145
aV8/16
p3146
asS'part6_correct_attempt'
p3147
(lp3148
S'0:01:36'
p3149
aV4/16
p3150
asS'part4_correct_attempt'
p3151
(lp3152
S'0:01:36'
p3153
aV4/16
p3154
asS'part3_correct_attempt'
p3155
(lp3156
S'0:00:00'
p3157
aV4/16
p3158
asS'part1_correct_attempt'
p3159
(lp3160
S'0:00:00'
p3161
aV4/16
p3162
asg50
V2015-10-28 19:07:10
p3163
ssVggaddi
p3164
(dp3165
S'part5_correct_attempt'
p3166
(lp3167
S'0:00:00'
p3168
ag167
asS'part9_correct_attempt'
p3169
(lp3170
S'0:01:05'
p3171
aV1*(1+2+1)/16+2*(2+4+2)/16+3*(1+2+1)/16
p3172
asS'part9_incorrect_attempt'
p3173
(lp3174
(S'0:00:00'
p3175
V(1+2+1)/16+(2+4+2)/16+(1+2+1)/16
p3176
tp3177
asS'part8_correct_attempt'
p3178
(lp3179
S'0:00:00'
p3180
ag180
asS'part7_correct_attempt'
p3181
(lp3182
S'0:00:00'
p3183
ag184
asS'part2_correct_attempt'
p3184
(lp3185
S'0:00:00'
p3186
ag188
asS'part6_correct_attempt'
p3187
(lp3188
S'0:00:00'
p3189
ag192
asS'part4_correct_attempt'
p3190
(lp3191
S'0:00:00'
p3192
ag196
asS'part3_correct_attempt'
p3193
(lp3194
S'0:00:00'
p3195
ag200
asS'part1_correct_attempt'
p3196
(lp3197
S'0:00:00'
p3198
ag204
asg50
g205
ssVs6deng
p3199
(dp3200
S'part5_correct_attempt'
p3201
(lp3202
S'0:00:00'
p3203
ag2545
asS'part9_correct_attempt'
p3204
(lp3205
S'0:01:20'
p3206
aV32/16
p3207
asS'part9_incorrect_attempt'
p3208
(lp3209
(S'0:00:36'
p3210
V16/16
p3211
tp3212
asS'part2_correct_attempt'
p3213
(lp3214
S'0:00:00'
p3215
ag2275
asS'part6_correct_attempt'
p3216
(lp3217
S'0:00:00'
p3218
ag2878
asS'part4_correct_attempt'
p3219
(lp3220
S'0:00:00'
p3221
ag2725
asS'part3_correct_attempt'
p3222
(lp3223
S'0:00:00'
p3224
ag1942
asS'part1_correct_attempt'
p3225
(lp3226
S'0:00:00'
p3227
ag1650
asg50
g1948
ssVvsosnovs
p3228
(dp3229
S'part5_correct_attempt'
p3230
(lp3231
S'0:00:47'
p3232
aV8/16
p3233
asS'part9_correct_attempt'
p3234
(lp3235
S'13:15:46'
p3236
aV1(4/16)+2(1/2)+3(4/16)
p3237
asS'part9_incorrect_attempt'
p3238
(lp3239
(S'0:04:47'
p3240
V(1+2+1+2+4+2+1+2+1)/16
p3241
tp3242
asS'part8_correct_attempt'
p3243
(lp3244
S'0:00:58'
p3245
aV1
p3246
asS'part7_correct_attempt'
p3247
(lp3248
S'0:00:58'
p3249
aV1
p3250
asS'part2_correct_attempt'
p3251
(lp3252
S'0:00:47'
p3253
aV1/2
p3254
asS'part6_correct_attempt'
p3255
(lp3256
S'0:00:47'
p3257
aV4/16
p3258
asS'part4_correct_attempt'
p3259
(lp3260
S'0:00:47'
p3261
aV4/16
p3262
asS'part3_correct_attempt'
p3263
(lp3264
S'0:00:47'
p3265
aV4/16
p3266
asS'part1_correct_attempt'
p3267
(lp3268
S'0:00:00'
p3269
ag1287
asg50
V2015-10-30 06:17:20
p3270
sssV8
p3271
(dp3272
s.