(dp0
V1
p1
ccollections
defaultdict
p2
(c__builtin__
list
p3
tp4
Rp5
S'Nothing'
p6
(lp7
(V3*2
p8
V110
p9
tp10
a(V3*2
p11
V9
p12
tp13
a(V3*2
p14
V1/6
p15
tp16
a(g14
V5!
p17
tp18
a(g14
V5
p19
tp20
a(V3*2
p21
V19
p22
tp23
a(g21
V9
p24
tp25
a(V3*2
p26
V12
p27
tp28
a(V3*2
p29
V8
p30
tp31
a(V3*2
p32
V9
p33
tp34
a(V3*2
p35
V8
p36
tp37
a(V3*2
p38
V5!
p39
tp40
a(V3*2
p41
V15
p42
tp43
a(V3*2
p44
V20
p45
tp46
a(V3*2
p47
V5!/(3!*2!)
p48
tp49
a(V3*2
p50
V8
p51
tp52
a(V3*2
p53
V9
p54
tp55
a(V3*2
p56
V8
p57
tp58
a(V3*2
p59
V8
p60
tp61
a(V3*2
p62
V140
p63
tp64
a(V3*2
p65
V8
p66
tp67
a(V3*2
p68
V8
p69
tp70
a(V3*2
p71
V8
p72
tp73
a(V3*2
p74
V7!/5!
p75
tp76
a(g74
V5!/3!
p77
tp78
a(g74
V5!/(3!2!)
p79
tp80
a(V3*2
p81
V5
p82
tp83
a(V3*2
p84
V9
p85
tp86
a(V3*2
p87
V8
p88
tp89
a(V3*2
p90
V9
p91
tp92
a(V3*2
p93
V12
p94
tp95
asS"['R.1']"
p96
(lp97
(V3*2
p98
V3!*2!
p99
(lp100
(S'R.1'
p101
F2.0
V2
p102
V2!
p103
tp104
atp105
a(g26
V3!2!
p106
(lp107
(S'R.1'
p108
F2.0
g102
V2!
p109
tp110
atp111
a(V3*2
p112
V3!*2!
p113
(lp114
(S'R.1'
p115
F2.0
g102
V2!
p116
tp117
atp118
a(g74
V3!2!
p119
(lp120
(S'R.1'
p121
F2.0
g102
V2!
p122
tp123
atp124
asS"['R']"
p125
(lp126
(V3*2
p127
VC(3,1)*C(2,1)
p128
(lp129
(S'R'
p130
F6.0
g127
g128
tp131
atp132
asS"['R.0']"
p133
(lp134
(V3*2
p135
V3*3
p136
(lp137
(S'R.0'
p138
F3.0
V3
p139
g139
tp140
atp141
assV2
p142
g2
(g3
tp143
Rp144
g6
(lp145
(V13*2*3
p146
V39
p147
tp148
a(V14*2*4
p149
V96
p150
tp151
a(V13*2*2
p152
V60
p153
tp154
a(V11*2*4
p155
V44
p156
tp157
a(V12*2*3
p158
V73
p159
tp160
a(V11*2*4
p161
V8
p162
tp163
a(g161
V44
p164
tp165
a(V13*2*4
p166
V16
p167
tp168
a(g166
V52
p169
tp170
a(V10*2*3
p171
V3*100
p172
tp173
a(g171
V3*10*3*10
p174
tp175
a(V11*2*2
p176
V22
p177
tp178
a(V13*2*2
p179
V338
p180
tp181
a(V12*2*4
p182
V192
p183
tp184
a(g182
V48
p185
tp186
a(V14*2*5
p187
V120
p188
tp189
a(V10*2*3
p190
V50
p191
tp192
a(V11*2*3
p193
V1294920
p194
tp195
a(g193
V26235
p196
tp197
a(g193
V88
p198
tp199
a(g193
V72
p200
tp201
a(V12*2*2
p202
V24
p203
tp204
a(V12*2*2
p205
V24
p206
tp207
a(V14*2*4
p208
V84
p209
tp210
a(V10*2*5
p211
V500
p212
tp213
a(g211
V200
p214
tp215
a(V11*2*2
p216
V22
p217
tp218
a(V13*2*3
p219
V58
p220
tp221
a(V10*2*5
p222
V50
p223
tp224
a(V10*2*3
p225
V30
p226
tp227
a(V13*2*2
p228
V26
p229
tp230
a(V13*2*2
p231
V26
p232
tp233
a(V14*2*3
p234
V56
p235
tp236
a(V12*2*2
p237
V24
p238
tp239
a(V10*2*4
p240
V10*4^2
p241
tp242
a(V14*2*3
p243
V96
p244
tp245
a(V14*2*2
p246
V48
p247
tp248
asS"['R.1']"
p249
(lp250
(V11*2*4
p251
V11*4
p252
(lp253
(S'R.1'
p254
F4.0
V4
p255
g255
tp256
atp257
ass.