(dp0
V1
p1
ccollections
defaultdict
p2
(c__builtin__
list
p3
tp4
Rp5
S"[('R.0', 10.0, u'10', u'10')]"
p6
(lp7
V10*24
p8
aV10!/17!
p9
aV10^2
p10
aV10*24
p11
aV10
p12
aV36!*10
p13
aV10*36
p14
aV10*24
p15
asS"[('R.0', 10.0, u'10', u'10'), ('R.1', 26.0, u'26', u'26')]"
p16
(lp17
V10!*26!
p18
aV10!26!
p19
aV26^10
p20
aV10^26
p21
aV10!/26!
p22
aV(10!)*(26!)
p23
aV10! * 26!
p24
aV(10!)(26!)
p25
aV(10!)(26!)/(36)
p26
aV(10!)(26!)/(36!)
p27
aV10!26!
p28
aV10*10*26*26*10*10*10
p29
aV10! * 26!
p30
aV10! +26!
p31
aV10!*26!
p32
aV10^26
p33
aV1*10^26
p34
aV26^10
p35
aV10^26
p36
asS"[('R.1', 26.0, u'26', u'26')]"
p37
(lp38
V9!*26!
p39
aV9*26
p40
aV9*26
p41
aV26*9
p42
aV9*26
p43
aV9!*26!
p44
aV(9+26)!/(2!33!)
p45
aV9*26
p46
aV9! * 26!
p47
aV9*26
p48
aV9*26
p49
aV9*26
p50
aV26*9
p51
aV9+26
p52
aV9*26
p53
aV9!*26!
p54
aV9*26
p55
aV9*26
p56
aV9*26
p57
aV9*26
p58
aV9*26
p59
aV(26!/(9!*15!))
p60
aV9*26
p61
aV9*26
p62
aV9*26
p63
aV9*26
p64
aV9*26
p65
aV9*26
p66
aV(9*26)/2
p67
aV9+26
p68
aV(9!*26!)/2
p69
aV9*26
p70
aV9*26
p71
aV26 * 9
p72
aV9*26
p73
aV9*26
p74
aV9*26
p75
aV26
p76
aV9*26
p77
asS"[('R', 260.0, u'10*26', u'10*26')]"
p78
(lp79
V10*26/2
p80
asS'Nothing'
p81
(lp82
V130
p83
aV9*24
p84
aV234
p85
aV234
p86
aV243
p87
aV270
p88
aV9^2
p89
aV670
p90
aV6760
p91
aV2600
p92
aV234
p93
aV240
p94
aV240
p95
aV120
p96
aV270
p97
aV9*24
p98
aV236
p99
aV240
p100
aV234
p101
aV35
p102
aV36
p103
aV234
p104
aV240
p105
aV9*15
p106
aV5,311,735
p107
aV5311735
p108
aV270
p109
aV36!
p110
aV234
p111
aV234
p112
aV234
p113
aV234
p114
aV234
p115
aV130
p116
aV9*27
p117
aV234
p118
aV360
p119
aV9*27
p120
aV9*25
p121
aV234
p122
aV234
p123
aV270
p124
asS"[('R', 260.0, u'10*26', u'260')]"
p125
(lp126
V10*260
p127
assV2
p128
g2
(g3
tp129
Rp130
S"[('R.0.1.0', 26.0, u'26', u'26'), ('R.0.1.1', 2.0, u'2', u'2'), ('R.1.1', 3.0, u'3', u'3')]"
p131
(lp132
V3*9*2*26
p133
asS"[('R.0.0.0', 10.0, u'10', u'10'), ('R.0.1', 17576.0, u'26^3', u'26^3')]"
p134
(lp135
V26^3 * 10^3
p136
aV26^3*10^5
p137
asS"[('R', 175760000.0, u'10^2*26^3*10^2', u'10*10*26*26*26*10*10')]"
p138
(lp139
V[10*10*26*26*26*10*10]/[2*3*2*2]
p140
asS"[('R.0.0.0', 10.0, u'10', u'10'), ('R.0.1', 17576.0, u'26^3', u'26**3')]"
p141
(lp142
V(10**3)*(26**3)
p143
asS"[('R.0', 1757600.0, u'10^2*26^3', u'10^2*26^3')]"
p144
(lp145
V10^2*26^3*10
p146
asS"[('R.0.0.0', 10.0, u'10', u'10'), ('R.0.1.0', 26.0, u'26', u'26'), ('R.1', 1000.0, u'10^3', u'1000')]"
p147
(lp148
V10*26*26*1000
p149
asS"[('R.0', 1757600.0, u'10^2*26^3', u'100*(26^3)')]"
p150
(lp151
V100*(26^3)*10
p152
asS"[('R.0.0.0', 10.0, u'10', u'10'), ('R.0.1.0', 26.0, u'26', u'26'), ('R.0.1.1', 2.0, u'2', u'2'), ('R.1.1', 3.0, u'3', u'3')]"
p153
(lp154
V2*10*2*26*3*10
p155
aV3*10*2*26
p156
aVC(10,2)*C(26,2)*C(10,3)
p157
asS"[('R.0.0', 100.0, u'10^2', u'10*10'), ('R.0.1.0', 26.0, u'26', u'26')]"
p158
(lp159
V10*10*26*10
p160
aV10*10*26*10*26
p161
aV10*10*26*10
p162
aV10*10*26*10
p163
aV10*10*26*10
p164
aV10*10*26*10
p165
aV10*10*26*10
p166
aV10*10*26*26*10*10
p167
aV10*10*26*10
p168
aV10*10*26*10
p169
aV10*10*26*10
p170
aV10*10*26*10
p171
aV10*10*26*10
p172
asS"[('R.0.0.1', 2.0, u'2', u'2'), ('R.0.1.1', 3.0, u'3', u'3')]"
p173
(lp174
V2*3*2
p175
aV2*3*2*6
p176
aV2*3*2*2
p177
aV2*3*2
p178
asS"[('R.0.1.1', 3.0, u'3', u'3')]"
p179
(lp180
V21970000/3
p181
asS"[('R.0.1', 17576.0, u'26^3', u'26**3')]"
p182
(lp183
V(9**3)*(26**3)
p184
aV(9**4)*(26**3)
p185
asS"[('R.0.0.1', 2.0, u'2', u'2'), ('R.0.1.0', 26.0, u'26', u'26'), ('R.0.1.1', 3.0, u'3', u'3')]"
p186
(lp187
V9*2+3*26+2*9
p188
aV9*2*3*26*2*9
p189
asS"[('R.0.1.0', 26.0, u'26', u'26')]"
p190
(lp191
V9*8*26*25*24*9*8
p192
aV9*8+26*25+24*9*8
p193
aV9*9+26*26+24*9*9
p194
aV9*9*26*26*26*9*9
p195
aV9*9*26*26*26*9*9
p196
aV9*9*26*26*26*9*9
p197
aV9*9*26*26*26*9*9
p198
aV9*9*26*9
p199
aV20*26*26*30
p200
aV26^7
p201
aV9*9*26*26*26*9*9
p202
aV9*9*26*26*9*9*9
p203
aV9 * 26 * 9 * 26 * 9 * 9
p204
aV9*9*26*26*26*9*9
p205
aV9*9*26*9
p206
asS"[('R.0.0.0', 10.0, u'10', u'10'), ('R.0.1.0', 26.0, u'26', u'26')]"
p207
(lp208
V10*26*10
p209
aV26*26*10*10*10*10
p210
aV10 + 10 + 26 + 26 + 10 + 10 + 10
p211
aV10*26*10
p212
aV10!*10!*26!*10!
p213
aV20!*26!*10!
p214
aV20*26*10
p215
aV10 * 9 * 26 * 25 * 8 * 7 * 6
p216
aV10 * 9 * 26 * 8
p217
aV10!*10!*26!*26!*10!*10!*10!
p218
aV(10!/5!)*(26!*24!)
p219
aV(10!/5!)*(26!/24!)
p220
aV(10!/5!)+(26!/24!)
p221
aV(10!/8!)*(26!/24!)*(10!/7!)
p222
aV10 * 26 * 10 * 10 *10
p223
aV10*9*26*10
p224
aV10 * 26 * 10 * 10 * 10* 10
p225
aV10*26*9*10*9*8
p226
asS"[('R.0.0.0', 10.0, u'10', u'10'), ('R.0.0.1', 2.0, u'2', u'2'), ('R.0.1', 17576.0, u'26^3', u'26*26*26')]"
p227
(lp228
V(10*2)+(26*26*26)+(20)
p229
asS"[('R.0.0', 100.0, u'10^2', u'10*10')]"
p230
(lp231
V10*10*27*27*10*10*10
p232
aV10*10*25*25*25*10*10
p233
aV10*10
p234
asS"[('R', 175760000.0, u'10^2*26^3*10^2', u'10*10*10*10*26*26*26')]"
p235
(lp236
V10*10*10*10*26*26*26*26
p237
asS"[('R.0', 67600.0, u'10^2*26^2', u'10*10*26*26')]"
p238
(lp239
V10*10*26*26*10
p240
asS"[('R', 175760000.0, u'10^2*26^3*10^2', u'10^2*26^3*10^2')]"
p241
(lp242
V10^2*26^3*10^2*3!
p243
asS"[('R.0.0', 100.0, u'10^2', u'10^2'), ('R.0.1.1', 2.0, u'2', u'2')]"
p244
(lp245
V(10^5)*(10^2)
p246
asg81
(lp247
V124
p248
aV27576
p249
aV10000*26*26*26*
p250
aV49400000
p251
aV26000
p252
aV18954
p253
aV26000
p254
aV210
p255
aV17576000
p256
aV72900000
p257
aV260000
p258
aV6460000
p259
aV6760000
p260
aV3130
p261
aV3120
p262
aV31200
p263
aV2600
p264
aV100676
p265
aV26000
p266
aV138240000
p267
aV196830000
p268
aV6760000
p269
aV57600000
p270
aV31200
p271
aV2600
p272
aV780000
p273
aV175,760,000
p274
aV12
p275
aV2028000
p276
aV67,600,000
p277
aV158
p278
aV175,760,000
p279
aV12
p280
aV196,830,000
p281
aV196830000
p282
aV12
p283
aV12
p284
aV24
p285
aV102
p286
aV31,200
p287
aV31200
p288
aV17,576,000
p289
aV6
p290
aV12
p291
aV1560000
p292
aV20280000
p293
aV40560000
p294
aV26000
p295
aV2147483648
p296
aV676000
p297
aV260000
p298
aV26000
p299
aV18954
p300
aV17576000
p301
aV26000
p302
aV6760000
p303
aV1296000
p304
aV676000
p305
aV6760000
p306
aV67,600,000
p307
aV26000
p308
aV115316136
p309
aV18954
p310
aV115316136
p311
aV196830000
p312
aV10\u22c526\u22c59\u22c510\u22c59\u22c58
p313
aV126360000
p314
aV15600
p315
aV372600
p316
aV2600+126
p317
aV6760000
p318
aV 126360000
p319
aV 32760000
p320
aV 78624000
p321
aV 1010880000
p322
aV 49400000
p323
aV 46124000
p324
aV33800
p325
aV26000
p326
aV492804
p327
aV115316136
p328
aV1757600000
p329
aV177957
p330
aV6760000
p331
aV26000
p332
asS"[('R.0.0.0', 10.0, u'10', u'10'), ('R.0.1.0', 26.0, u'26', u'26'), ('R.0.1.1', 2.0, u'2', u'2')]"
p333
(lp334
V10^5*2^26
p335
asS"[('R.0.1.0', 26.0, u'26', u'26'), ('R.0.1.1', 3.0, u'3', u'3')]"
p336
(lp337
V20+(26*3)+(20)
p338
aV20*(26*3)*(20)
p339
aV(26!*8100)/3!
p340
asS"[('R.0.0.0', 10.0, u'10', u'10'), ('R.0.0.1', 2.0, u'2', u'2'), ('R.0.1.0', 26.0, u'26', u'26')]"
p341
(lp342
V10^4 * 26 ^ 2
p343
asS"[('R.0.0', 100.0, u'10^2', u'10^2'), ('R.0.1', 676.0, u'26^2', u'26^2'), ('R.1', 1000.0, u'10^3', u'10^3')]"
p344
(lp345
V10^2 + 26^2 + 10^3
p346
asS"[('R.0.0.0', 10.0, u'10', u'10'), ('R.0.1.0', 26.0, u'26', u'26'), ('R.0.1.1', 3.0, u'3', u'3')]"
p347
(lp348
V6*10^3*26
p349
aV12*10^3*26
p350
aV11*10^3*26
p351
asS"[('R.0', 1757600.0, u'10^2*26^3', u'10*10*26^3')]"
p352
(lp353
V10*10*26^3*1000
p354
asS"[('R.0', 1757600.0, u'10^2*26^3', u'1757600')]"
p355
(lp356
V1757600
p357
asS"[('R.0.0', 100.0, u'10^2', u'100'), ('R.0.1.0', 26.0, u'26', u'26')]"
p358
(lp359
V100*26*10
p360
aV100!*26!*10!
p361
aV100 * 26 * 10
p362
aV100*26*10
p363
asS"[('R.0.0.0', 10.0, u'10', u'10'), ('R.0.1.0', 26.0, u'26', u'26'), ('R.1.1', 3.0, u'3', u'3')]"
p364
(lp365
V10 * 26 * 10 * 10 * 10* 10 * 3
p366
asS"[('R.0.0', 100.0, u'10^2', u'10 * 10'), ('R.0.1.0', 26.0, u'26', u'26')]"
p367
(lp368
V10 * 10 * 26 * 26 * 10 * 10
p369
aV10 * 10 * 26 * 10
p370
aV10 * 10 * 26 * 10 * 10 *10
p371
asS"[('R.0.0.0', 10.0, u'10', u'10'), ('R.0.1', 676.0, u'26^2', u'26*26')]"
p372
(lp373
V26*26*26*10*10*10
p374
asS"[('R.0.1', 17576.0, u'26^3', u'26^3')]"
p375
(lp376
V(9^4)*(26^3)
p377
aV1000*26^3
p378
asS"[('R.0.0', 100.0, u'10^2', u'100'), ('R.0.1.0', 26.0, u'26', u'26'), ('R.0.1.1', 3.0, u'3', u'3')]"
p379
(lp380
V100*(26*3)*100
p381
asS"[('R.0.0', 100.0, u'10^2', u'10^2'), ('R.0.1', 17576.0, u'26^3', u'26^3')]"
p382
(lp383
V10*(26^3)*(10^2)
p384
asS"[('R.0.0', 100.0, u'10^2', u'10^2'), ('R.0.1.0', 26.0, u'26', u'26'), ('R.0.1.1', 3.0, u'3', u'3')]"
p385
(lp386
V10^2*26*3*10
p387
asS"[('R.0.1', 676.0, u'26^2', u'26^2'), ('R.1.1', 3.0, u'3', u'3')]"
p388
(lp389
V(9^2)*(26^2)*(9^3)
p390
asS"[('R.0.0.0', 10.0, u'10', u'10'), ('R.0.0.1', 2.0, u'2', u'2'), ('R.0.1.0', 26.0, u'26', u'26'), ('R.0.1.1', 3.0, u'3', u'3')]"
p391
(lp392
V(10*2)+(26*3)+(20)
p393
aV2*(10)*3*2*26*2*10
p394
aV2*10+3*26+2*10
p395
aV2*10*3*26*2*10
p396
aV2(10)*3(26)*2(10)
p397
asS"[('R.0.0', 100.0, u'10^2', u'5*10*2'), ('R.0.1.0', 26.0, u'26', u'26'), ('R.0.1.1', 2.0, u'2', u'2')]"
p398
(lp399
V5*10*2*26
p400
asS"[('R.0.0.1', 2.0, u'2', u'2!'), ('R.0.1.1', 3.0, u'3', u'3')]"
p401
(lp402
V2!3!2!
p403
aV2!*3!*2!
p404
asS"[('R.0.0', 100.0, u'10^2', u'10*10'), ('R.0.1.1', 3.0, u'3', u'3')]"
p405
(lp406
V10*10*3*2
p407
asS"[('R.0.1.1', 2.0, u'2', u'2'), ('R.1.1', 3.0, u'3', u'3')]"
p408
(lp409
V2*2*3
p410
asS"[('R.0.0', 100.0, u'10^2', u'10*10'), ('R.1', 1000.0, u'10^3', u'1000')]"
p411
(lp412
V10*10*27*27*1000
p413
ass.