(dp0
V1
p1
ccollections
defaultdict
p2
(c__builtin__
list
p3
tp4
Rp5
S'Nothing'
p6
(lp7
(V6
p8
V9
p9
tp10
a(V6
p11
V27
p12
tp13
a(g11
V3!/2!
p14
tp15
a(g11
V3
p16
tp17
a(g11
V3*2*1/2*1
p18
tp19
a(g11
V(3*2*1)/(2*1)
p20
tp21
a(V6
p22
V3
p23
tp24
a(V6
p25
V9
p26
tp27
a(V6
p28
V3
p29
tp30
a(g28
V9
p31
tp32
a(g28
V4
p33
tp34
a(g28
V5
p35
tp36
a(V6
p37
V9
p38
tp39
a(V6
p40
V3^3
p41
tp42
a(V6
p43
V3^3
p44
tp45
a(V6
p46
V3
p47
tp48
a(V6
p49
V9
p50
tp51
a(V6
p52
V9
p53
tp54
a(V6
p55
V3
p56
tp57
a(V6
p58
V27
p59
tp60
a(V6
p61
V27
p62
tp63
a(V6
p64
V9
p65
tp66
a(g64
V8
p67
tp68
a(V6
p69
V9
p70
tp71
a(V6
p72
V3
p73
tp74
a(V6
p75
V9
p76
tp77
a(g75
V27
p78
tp79
a(V6
p80
V8
p81
tp82
a(V6
p83
V3!2!
p84
tp85
a(V6
p86
V9
p87
tp88
a(V6
p89
V3*3*3
p90
tp91
a(V6
p92
V9
p93
tp94
a(V6
p95
V5
p96
tp97
a(V6
p98
VP(3,3)
p99
tp100
a(V6
p101
V540320
p102
tp103
a(g101
V5
p104
tp105
a(V6
p106
V(3!)/2!
p107
tp108
a(V6
p109
V3^2
p110
tp111
a(g109
V2^3
p112
tp113
a(g109
V2^2
p114
tp115
a(V6
p116
V12
p117
tp118
a(V6
p119
VP(3, 3)
p120
tp121
a(V6
p122
V9
p123
tp124
a(g122
V9
p125
tp126
a(g122
V5
p127
tp128
a(V6
p129
V4
p130
tp131
a(g129
V5
p132
tp133
assV2
p134
g2
(g3
tp135
Rp136
g6
(lp137
(V362880
p138
V81
p139
tp140
a(V720
p141
V240
p142
tp143
a(V5040
p144
V26880
p145
tp146
a(V720
p147
V6**6
p148
tp149
a(V40320
p150
V64
p151
tp152
a(V40320
p153
V56
p154
tp155
a(g153
V5040
p156
tp157
a(V120
p158
V3125
p159
tp160
a(V720
p161
V25
p162
tp163
a(g161
V20
p164
tp165
a(g161
V21
p166
tp167
a(g161
V22
p168
tp169
a(g161
V23
p170
tp171
a(g161
V30
p172
tp173
a(g161
V29
p174
tp175
a(g161
V20
p176
tp177
a(g161
V21
p178
tp179
a(g161
V22
p180
tp181
a(g161
V23
p182
tp183
a(g161
V24
p184
tp185
a(g161
V25
p186
tp187
a(V5040
p188
V49
p189
tp190
a(g188
V42
p191
tp192
a(V720
p193
V10368
p194
tp195
a(g193
V1944
p196
tp197
a(V5040
p198
V42
p199
tp200
a(V40320
p201
V40,320
p202
tp203
a(V720
p204
V36
p205
tp206
a(V40320
p207
V8^8
p208
tp209
a(V24
p210
V10
p211
tp212
a(V24
p213
V4
p214
tp215
a(g213
V12
p216
tp217
a(g213
V16
p218
tp219
a(g213
V15
p220
tp221
a(g213
V16
p222
tp223
a(g213
V12
p224
tp225
a(V720
p226
V24883200
p227
tp228
a(V40320
p229
V(P8, 8)
p230
tp231
a(g229
VP(8, 8)
p232
tp233
a(V5040
p234
V823543
p235
tp236
a(V120
p237
V720
p238
tp239
ass.