(dp0
V1
p1
ccollections
defaultdict
p2
(c__builtin__
list
p3
tp4
Rp5
S'Nothing'
p6
(lp7
V{1,2,3,4,5,6,7,8,9,10,11,12,13,14,15,16}
p8
aV7
p9
aV8
p10
aV5/19
p11
aV1
p12
aV5
p13
aV.35
p14
aV7
p15
aV1
p16
aV{1,2,3,4,5,6,7}
p17
aV7
p18
aV7
p19
aV{1,2,3,4,5,6,7}
p20
aV1,2,3,4,5,6,7
p21
aV7/10
p22
aV10`
p23
aV2
p24
aV7
p25
aV{1, 2, 3, 4, 5, 6, 7}
p26
aV1,2,3,4,5,6,7,8,9,10
p27
aV10
p28
aV7/19
p29
aV7
p30
aV7
p31
aV9
p32
aV9
p33
aV{1,2,3,4,5,6,7,8,9,10,11,12}
p34
aV12
p35
aV11
p36
aV6
p37
aV6
p38
aV17/19
p39
aV7
p40
aV1, 2, 3, 4, 5, 6, 7
p41
aV{1, 2, 3, 4, 5, 6, 7}
p42
aV{1,2,3,4,5,6}
p43
aV6
p44
aV{1,2,3,4,5}
p45
aV5
p46
aV1
p47
aV5
p48
aV1,2,3,4,5
p49
aV5
p50
aV4
p51
aV6
p52
aV5
p53
aV12
p54
aV1,2,3,4,5,6,7,8
p55
aV12/14
p56
aV6/7
p57
aV12
p58
aV2
p59
aV{1,2,3,4,5,6,7,8,9,10,11,12}
p60
aV11
p61
aV10
p62
aV17
p63
aV{1,2,3,4,5,6,7,8,9,10,11,12,13,14,15,16,17}
p64
aV17
p65
aV1
p66
aV(|9|)/(|16|)
p67
aV(9)/(16)
p68
aV{1,2,3,4,5,6,7,8,9}
p69
aV9
p70
aV9/16
p71
aV9
p72
aV1/9
p73
aV9/16
p74
aV{1,2,3,4,5,6,7,8,9}
p75
aV1,2,3,4,5,6,7,8,9
p76
aV9
p77
aV10
p78
aV11
p79
aV10
p80
aV{1, 2, 3, ... , 19}
p81
aV14
p82
aV{1,2,3,4,5,6,7,8,9,10,11,12,13,14,15,16}
p83
aV16
p84
aV15
p85
aV7
p86
aV8
p87
aV1,2,3,4,5,6,7,8
p88
aV15
p89
aV{1,2,3,4,5,6,7,8,9,10,11}
p90
aV11
p91
aV11
p92
aV10
p93
aV5
p94
aV1,2,3,4,5
p95
aV9/12
p96
aV16
p97
aV15
p98
aV11
p99
aV9
p100
aV1
p101
aV5
p102
aV1,2,3,4,5
p103
aV{1,2,3,4,5}
p104
aV5
p105
aV1
p106
aV10
p107
aV5
p108
aV3
p109
aV12
p110
aV{1,2,3,4,5,6,7,8,9}
p111
aV1,2,3,4,5,6,7,8,9
p112
aV9
p113
aV{1,2,3,4,5,6,7,8,9}
p114
aV9
p115
aV13/14
p116
aV13
p117
aV1/18
p118
aV10
p119
aV14/19
p120
aV{1, 2, 3, 4, 5, 6, 7, 8, 9, 10, 11, 12, 13, 14}
p121
aV14
p122
aV1,2,3,4,5,6,7,8,9,10
p123
aV1,2,3,4,5,6,7,8
p124
aV8
p125
aV{1,2,3,4,5,6,7,8,9,10,11}
p126
aV1,2,3,4,5,6,7,8,9,10,11
p127
aV{1,2,3,4,5,6,7,8,9}
p128
aV9
p129
aV{1,2,3,4,5,6,7,8,9,10.11,12}
p130
aV12
p131
aV1
p132
aV1
p133
aV7/18
p134
aV{1,2,3,4,5,6,7,8,9,10,11,12,13,14,15,16,17,18}
p135
aV7
p136
aV6
p137
aV7
p138
aV8
p139
aV7
p140
aV8/10
p141
aV1,2,3,4,5,6,7,8,9,10,11,12,13
p142
aV13
p143
aV17
p144
aV{1,2,3,4,5,6,7,8,9,10,11,12,13,14,15,16,17}
p145
aV1
p146
aV12/16
p147
aV9
p148
aV1, 2, 3, ... , 16
p149
assV3
p150
g2
(g3
tp151
Rp152
S"['R.1']"
p153
(lp154
V7/12
p155
aV1/14
p156
aV1/15
p157
aV6/20
p158
aV1/20
p159
aV1/15
p160
aV1/17
p161
aV1/18
p162
aV1/17
p163
aV1/13
p164
aV1/12
p165
aV1/10
p166
aV1/12
p167
aV1/13
p168
aV18/19
p169
aV1/19
p170
aV1/20
p171
aV3/14
p172
aV1/12
p173
aV1/20
p174
aV7/16
p175
asg6
(lp176
V1/11
p177
aV6/7
p178
aV1/8
p179
aV2/3
p180
aV0.0625
p181
aV.94
p182
aV1/16
p183
aV10/(10+9+8+7+6+5+4+3+2+1)
p184
aV10
p185
aV1/18
p186
aV1
p187
aV3/6
p188
aV1/(17/18)
p189
aV1/17
p190
aV1/2
p191
aV18/8
p192
aV1/2
p193
aV9/4
p194
aV1/14
p195
aV15/8
p196
aV1/8
p197
aV1/10
p198
aV1/11
p199
aV17
p200
aV(1*10)^8
p201
aV(1*10) * 8
p202
assV2
p203
g2
(g3
tp204
Rp205
g6
(lp206
V{16}
p207
aV16
p208
aV15
p209
aV12
p210
aV18
p211
aV14
p212
aV6
p213
aV20
p214
aV15
p215
aV10
p216
aV{1,2,3,4,5,6,7,8,9,10}
p217
aV1,2,3,4,5,6,7,8,9,10
p218
aV10/10
p219
aV18
p220
aV3
p221
aV1
p222
aV17
p223
aV10
p224
aV13
p225
aV17
p226
aV1/17
p227
aV19
p228
aV12
p229
aV19
p230
aV17
p231
aV19
p232
aV10
p233
aV17
p234
aV19
p235
aV14
p236
aV1
p237
aV14
p238
aV12
p239
aV20
p240
aV16
p241
aV14
p242
aV9/19
p243
aV17
p244
aV12
p245
aV1
p246
aV10+9+8+7+6+5+4+3+2+1
p247
aV18
p248
aV19
p249
aV37
p250
aV20
p251
aV1/12
p252
aV12
p253
aV1
p254
aV13
p255
aV6
p256
aV14
p257
aV17
p258
aV1/17
p259
aV20
p260
aV20
p261
aV18
p262
aV5
p263
aV9
p264
aV20
p265
aV20
p266
aV10
p267
aV14
p268
aV15
p269
aV13
p270
aV12
p271
aV11
p272
aV15
p273
aV20
p274
aV10
p275
aV16
p276
aV1/16
p277
aV16
p278
aV7
p279
aV10
p280
ass.