(dp0
V1
p1
ccollections
defaultdict
p2
(c__builtin__
list
p3
tp4
Rp5
S'Nothing'
p6
(lp7
V110
p8
aV9
p9
aV5!
p10
aV5
p11
aV19
p12
aV9
p13
aV12
p14
aV8
p15
aV9
p16
aV8
p17
aV5!
p18
aV15
p19
aV20
p20
aV8
p21
aV9
p22
aV8
p23
aV8
p24
aV140
p25
aV8
p26
aV8
p27
aV8
p28
aV7!/5!
p29
aV5
p30
aV9
p31
aV8
p32
aV9
p33
aV12
p34
asS"[('R', 6.0, u'3*2', u'3!')]"
p35
(lp36
V3!*2!
p37
aV3!2!
p38
aV5!/(3!*2!)
p39
aV3!*2!
p40
aV5!/3!
p41
aV5!/(3!2!)
p42
aV3!2!
p43
asS"[('R.0', 3.0, u'3', u'3')]"
p44
(lp45
V3*3
p46
asS"[('R', 6.0, u'3*2', u'6')]"
p47
(lp48
V1/6
p49
asS"[('R', 6.0, u'3*2', u'C(3,1)*C(2,1)')]"
p50
(lp51
VC(3,1)*C(2,1)
p52
assV2
p53
g2
(g3
tp54
Rp55
S"[('R.0', 24.0, u'12*2', u'24')]"
p56
(lp57
V24
p58
aV24
p59
aV24
p60
asS"[('R.0', 22.0, u'11*2', u'22')]"
p61
(lp62
V22
p63
aV22
p64
asS"[('R.1', 3.0, u'3', u'3')]"
p65
(lp66
V3*100
p67
asS"[('R.0.0', 10.0, u'10', u'10'), ('R.0.1', 2.0, u'2', u'2'), ('R.1', 4.0, u'4', u'4')]"
p68
(lp69
V10*4^2
p70
asS"[('R.0.0', 11.0, u'11', u'11'), ('R.1', 4.0, u'4', u'4')]"
p71
(lp72
V11*4
p73
asS"[('R.0.0', 10.0, u'10', u'10'), ('R.1', 3.0, u'3', u'3')]"
p74
(lp75
V3*10*3*10
p76
asS"[('R.0', 26.0, u'13*2', u'26')]"
p77
(lp78
V26
p79
aV26
p80
asg6
(lp81
V39
p82
aV96
p83
aV60
p84
aV44
p85
aV73
p86
aV8
p87
aV44
p88
aV16
p89
aV52
p90
aV338
p91
aV192
p92
aV48
p93
aV120
p94
aV50
p95
aV1294920
p96
aV26235
p97
aV88
p98
aV72
p99
aV84
p100
aV500
p101
aV200
p102
aV58
p103
aV50
p104
aV30
p105
aV56
p106
aV96
p107
aV48
p108
ass.