(dp0
Vkvass
p1
(dp2
S'part3_correct_attempt'
p3
(lp4
V26**3-25**3
p5
aV2015-10-07 14:47:00
p6
asS'part2_correct_attempt'
p7
(lp8
V25**3
p9
aV2015-10-06 06:18:37
p10
asS'part1_correct_attempt'
p11
(lp12
V26**3
p13
aV2015-10-06 06:18:37
p14
asS'part3_incorrect_attempt'
p15
(lp16
(V25*26**2
p17
V2015-10-06 06:18:37
p18
tp19
a(V26**2
p20
V2015-10-06 06:19:07
p21
tp22
a(V3*26**2
p23
V2015-10-06 06:19:55
p24
tp25
assVkbielawi
p26
(dp27
g3
(lp28
V26^5-25^5
p29
aV2015-10-05 19:54:56
p30
asg7
(lp31
V25^5
p32
aV2015-10-05 19:41:05
p33
asg11
(lp34
V26^5
p35
aV2015-10-05 19:41:05
p36
asg15
(lp37
(V25^4
p38
V2015-10-05 19:41:05
p39
tp40
a(V26^4
p41
V2015-10-05 19:41:26
p42
tp43
a(V4*(26^4)
p44
V2015-10-05 19:41:41
p45
tp46
a(V5*(26^4)
p47
V2015-10-05 19:41:50
p48
tp49
a(V5!*(26^4)
p50
V2015-10-05 19:45:28
p51
tp52
a(V4*(26^4)
p53
V2015-10-05 19:53:28
p54
tp55
assVjguanzho
p56
(dp57
g3
(lp58
V26**5 - 25**5
p59
aV2015-10-02 08:58:12
p60
asg7
(lp61
V25**5
p62
aV2015-10-02 08:03:39
p63
asg11
(lp64
V26**5
p65
aV2015-10-02 08:03:39
p66
asg15
(lp67
(V(25**4) * 26
p68
V2015-10-02 08:03:39
p69
tp70
a(V(25**4) * 26 * 5
p71
V2015-10-02 08:03:53
p72
tp73
a(V26**4
p74
V2015-10-02 08:05:18
p75
tp76
a(V5 * 26**4
p77
V2015-10-02 08:05:31
p78
tp79
a(V5 * 26! / (4! * 22!)
p80
V2015-10-02 08:52:38
p81
tp82
assValakamsa
p83
(dp84
g3
(lp85
V25^2*3 + 25*3 + 1
p86
aV2015-10-04 19:48:33
p87
asg7
(lp88
V25^3
p89
aV2015-10-04 19:46:42
p90
asg11
(lp91
V26^3
p92
aV2015-10-04 19:46:42
p93
asg15
(lp94
(V25^2*3
p95
V2015-10-04 19:46:42
p96
tp97
assVjjm019
p98
(dp99
g3
(lp100
V(25*25*3)+(25*3)+(1)
p101
aV2015-10-08 02:39:14
p102
asg7
(lp103
V25^3
p104
aV2015-10-08 01:47:32
p105
asg11
(lp106
V26^3
p107
aV2015-10-08 01:47:21
p108
asg15
(lp109
(V26^2
p110
V2015-10-08 01:48:15
p111
tp112
a(V3*26*26
p113
V2015-10-08 01:48:36
p114
tp115
a(V25^2
p116
V2015-10-08 01:49:04
p117
tp118
a(V25*25*3
p119
V2015-10-08 01:49:55
p120
tp121
a(V25*25*6
p122
V2015-10-08 01:51:39
p123
tp124
a(V26^3
p125
V2015-10-08 01:58:34
p126
tp127
a(V(25*25)+(2*25)+(3)
p128
V2015-10-08 02:36:07
p129
tp130
a(V(25*25*3)+(2*25*3)+(3)
p131
V2015-10-08 02:36:38
p132
tp133
assVctgraves
p134
(dp135
g3
(lp136
V26^5-25^5
p137
aV2015-10-06 00:33:52
p138
asg7
(lp139
V25^5
p140
aV2015-10-06 00:28:08
p141
asg11
(lp142
V26^5
p143
aV2015-10-06 00:28:08
p144
asg15
(lp145
(V26^4
p146
V2015-10-06 00:28:08
p147
tp148
a(V25^4
p149
V2015-10-06 00:28:31
p150
tp151
a(V26^5
p152
V2015-10-06 00:28:45
p153
tp154
a(V26^4
p155
V2015-10-06 00:28:51
p156
tp157
a(V(5!/(4!))26^4
p158
V2015-10-06 00:29:24
p159
tp160
a(V5*26^4
p161
V2015-10-06 00:29:36
p162
tp163
assVnhn018
p164
(dp165
g3
(lp166
V26^4-25^4
p167
aV2015-10-07 03:23:10
p168
asg7
(lp169
V25^4
p170
aV2015-10-07 03:02:14
p171
asg11
(lp172
V26^4
p173
aV2015-10-07 03:02:14
p174
asg15
(lp175
(V25^3
p176
V2015-10-07 03:02:14
p177
tp178
a(V26^3
p179
V2015-10-07 03:02:37
p180
tp181
a(V25^4
p182
V2015-10-07 03:03:04
p183
tp184
a(V25^9
p185
V2015-10-07 03:20:56
p186
tp187
a(V25^9
p188
V2015-10-07 03:22:35
p189
tp190
assVj5phung
p191
(dp192
g3
(lp193
V26*26*26-25*25*25
p194
aV2015-10-02 17:20:12
p195
asg7
(lp196
V25*25*25
p197
aV2015-10-02 17:18:03
p198
asg11
(lp199
V26*26*26
p200
aV2015-10-02 17:17:17
p201
asg15
(lp202
(V25*25*26*3
p203
V2015-10-02 17:18:03
p204
tp205
a(V25*25*26+25*26*26+26*26*26
p206
V2015-10-02 17:18:26
p207
tp208
assVanl114
p209
(dp210
g3
(lp211
V(26^3)-(25^3)
p212
aV2015-10-08 07:00:18
p213
asg7
(lp214
V25^3
p215
aV2015-10-08 06:59:12
p216
asg11
(lp217
V26^3
p218
aV2015-10-08 06:59:12
p219
asg15
(lp220
(V26*26
p221
V2015-10-08 06:59:46
p222
tp223
assVc4du
p224
(dp225
g3
(lp226
V26^5-25^5
p227
aV2015-10-07 07:07:14
p228
asg7
(lp229
V25^5
p230
aV2015-10-07 07:02:55
p231
asg11
(lp232
V26^5
p233
aV2015-10-07 07:02:55
p234
asg15
(lp235
(V26^4
p236
V2015-10-07 07:05:31
p237
tp238
assVctroncos
p239
(dp240
g3
(lp241
sg7
(lp242
V25^3
p243
aV2015-10-08 23:56:01
p244
asg11
(lp245
V26^3
p246
aV2015-10-08 23:53:45
p247
asg15
(lp248
(V26^2
p249
V2015-10-08 23:56:29
p250
tp251
a(V25*24*3
p252
V2015-10-09 00:00:16
p253
tp254
assVrlhagen
p255
(dp256
g3
(lp257
V26^4 - 25^4
p258
aV2015-10-04 23:01:05
p259
asg7
(lp260
V25^4
p261
aV2015-10-04 22:55:34
p262
asg11
(lp263
V26^4
p264
aV2015-10-04 22:55:34
p265
asg15
(lp266
(V26^3
p267
V2015-10-04 22:56:42
p268
tp269
a(V25^3
p270
V2015-10-04 22:58:59
p271
tp272
assVavasavad
p273
(dp274
g3
(lp275
V26^5 - 25^5
p276
aV2015-10-06 06:26:48
p277
asg7
(lp278
V25^5
p279
aV2015-10-06 06:25:54
p280
asg11
(lp281
V26^5
p282
aV2015-10-06 06:25:54
p283
asg15
(lp284
(V25^4 + 1
p285
V2015-10-06 06:25:54
p286
tp287
assVtcn013
p288
(dp289
g3
(lp290
V3*25^2+3*25+1
p291
aV2015-10-07 05:01:24
p292
asg7
(lp293
V25^3
p294
aV2015-10-06 03:56:57
p295
asg11
(lp296
V26^3
p297
aV2015-10-06 03:56:57
p298
asg15
(lp299
(V26^2
p300
V2015-10-06 03:57:51
p301
tp302
a(V3*26^2
p303
V2015-10-06 03:58:12
p304
tp305
a(V3*25^2+4
p306
V2015-10-06 04:03:14
p307
tp308
assVtstevens
p309
(dp310
g3
(lp311
V26^5-25^5
p312
aV2015-10-07 12:19:43
p313
asg7
(lp314
V25^5
p315
aV2015-10-07 12:15:55
p316
asg11
(lp317
V26^5
p318
aV2015-10-07 12:15:55
p319
asg15
(lp320
(V26^4
p321
V2015-10-07 12:15:55
p322
tp323
a(V5*(26^4)
p324
V2015-10-07 12:16:33
p325
tp326
assVpthsu
p327
(dp328
g3
(lp329
V26**5-25**5
p330
aV2015-10-02 04:33:08
p331
asg7
(lp332
V25**5
p333
aV2015-10-02 04:29:29
p334
asg11
(lp335
V26**5
p336
aV2015-10-02 04:29:29
p337
asg15
(lp338
(V26**4
p339
V2015-10-02 04:29:29
p340
tp341
assVtcuddy
p342
(dp343
g3
(lp344
V(26**5)-(25**5)
p345
aV2015-10-02 20:28:38
p346
asg7
(lp347
V25**5
p348
aV2015-10-02 20:23:57
p349
asg11
(lp350
V26**5
p351
aV2015-10-02 20:23:57
p352
asg15
(lp353
(V26*4
p354
V2015-10-02 20:23:57
p355
tp356
a(V26**4
p357
V2015-10-02 20:24:03
p358
tp359
a(V26**4
p360
V2015-10-02 20:25:28
p361
tp362
assVl8ngo
p363
(dp364
g3
(lp365
V(26^6) - (25^6)
p366
aV2015-10-05 04:31:32
p367
asg7
(lp368
V25^6
p369
aV2015-10-05 03:02:26
p370
asg11
(lp371
V26^6
p372
aV2015-10-05 03:02:26
p373
asg15
(lp374
(V25^5
p375
V2015-10-05 03:02:26
p376
tp377
a(V[25^5]*6
p378
V2015-10-05 03:02:54
p379
tp380
a(V26^5
p381
V2015-10-05 03:03:52
p382
tp383
assVdjk006
p384
(dp385
g3
(lp386
V26^5-25^5
p387
aV2015-10-04 23:57:07
p388
asg7
(lp389
V25^5
p390
aV2015-10-04 23:54:43
p391
asg11
(lp392
V26^5
p393
aV2015-10-04 23:54:43
p394
asg15
(lp395
(V26^4
p396
V2015-10-04 23:55:15
p397
tp398
assVaysee
p399
(dp400
g3
(lp401
V64775151
p402
aV2015-10-08 23:17:48
p403
asg7
(lp404
V244140625
p405
aV2015-10-08 23:10:18
p406
asg11
(lp407
V308915776
p408
aV2015-10-08 23:10:18
p409
asg15
(lp410
(V244140625 * 6
p411
V2015-10-08 23:10:18
p412
tp413
a(V6*(7893600)
p414
V2015-10-08 23:12:12
p415
tp416
assVdando
p417
(dp418
g3
(lp419
V1 + 3 * 25 + 3 * 25^2
p420
aV2015-10-04 20:08:37
p421
asg7
(lp422
V25^3
p423
aV2015-10-04 20:01:26
p424
asg11
(lp425
V26^3
p426
aV2015-10-04 20:01:26
p427
asg15
(lp428
(V26^2
p429
V2015-10-04 20:01:26
p430
tp431
a(V3*26^2
p432
V2015-10-04 20:01:53
p433
tp434
a(V3 * (1 * 26 * 26) - 3
p435
V2015-10-04 20:04:42
p436
tp437
a(V3 * (1 * 26 * 26) - 2
p438
V2015-10-04 20:04:50
p439
tp440
a(V3 * (1 * 26 * 26) - 1
p441
V2015-10-04 20:05:00
p442
tp443
a(V3 * (1 * 26 * 26) - 9
p444
V2015-10-04 20:05:11
p445
tp446
assVdsriniva
p447
(dp448
g3
(lp449
V26^6-25^6
p450
aV2015-10-08 17:48:51
p451
asg7
(lp452
V25^6
p453
aV2015-10-08 17:44:48
p454
asg11
(lp455
V26^6
p456
aV2015-10-08 17:44:48
p457
asg15
(lp458
(V6*25^5+26*6
p459
V2015-10-08 17:45:03
p460
tp461
assVa2ahmed
p462
(dp463
g3
(lp464
V(26^4) - (25^4)
p465
aV2015-10-08 17:19:29
p466
asg7
(lp467
V25^4
p468
aV2015-10-08 17:13:15
p469
asg11
(lp470
V26^4
p471
aV2015-10-08 17:13:15
p472
asg15
(lp473
(V4*(26^3)
p474
V2015-10-08 17:13:15
p475
tp476
a(V4*(26^3) + 4*(26^2) + 4*(26) + 1
p477
V2015-10-08 17:15:07
p478
tp479
a(V4*(26^3) + 6*(26^2) + 4*(26) + 1
p480
V2015-10-08 17:17:57
p481
tp482
assVm4salaza
p483
(dp484
g3
(lp485
V26^6-25^6
p486
aV2015-10-07 03:48:03
p487
asg7
(lp488
V25^6
p489
aV2015-10-07 03:46:12
p490
asg11
(lp491
V26^6
p492
aV2015-10-07 03:46:12
p493
asg15
(lp494
(V1+26^5
p495
V2015-10-07 03:46:12
p496
tp497
assVyos017
p498
(dp499
g3
(lp500
V1+(15*25^2)+(20*25^3)+(15*25^4)+(6*25^5)
p501
aV2015-10-02 12:11:53
p502
asg7
(lp503
V25^6
p504
aV2015-10-02 11:51:03
p505
asg11
(lp506
V26^6
p507
aV2015-10-02 11:51:03
p508
asg15
(lp509
(V25^6
p510
V2015-10-02 11:51:03
p511
tp512
a(V25^5
p513
V2015-10-02 11:51:27
p514
tp515
a(V5*26^5
p516
V2015-10-02 11:54:02
p517
tp518
a(V6*26^5
p519
V2015-10-02 11:55:23
p520
tp521
assVsmall
p522
(dp523
g3
(lp524
V26^3 - 25^3
p525
aV2015-10-08 23:44:23
p526
asg7
(lp527
V25^3
p528
aV2015-10-08 23:40:21
p529
asg11
(lp530
V26^3
p531
aV2015-10-08 23:40:08
p532
asg15
(lp533
(V26*26
p534
V2015-10-08 23:40:48
p535
tp536
a(V676*3
p537
V2015-10-08 23:42:22
p538
tp539
a(V676*3 - 2
p540
V2015-10-08 23:43:09
p541
tp542
assVm8woo
p543
(dp544
g3
(lp545
V26^5-25^5
p546
aV2015-10-08 20:52:04
p547
asg7
(lp548
V25^5
p549
aV2015-10-08 20:50:24
p550
asg11
(lp551
V26^5
p552
aV2015-10-08 20:50:24
p553
asg15
(lp554
(V26^4
p555
V2015-10-08 20:50:24
p556
tp557
assVggaddi
p558
(dp559
g3
(lp560
V25^2*3 + 25*3 + 1
p561
aV2015-10-03 01:12:05
p562
asg7
(lp563
V25^3
p564
aV2015-10-03 01:10:14
p565
asg11
(lp566
V26^3
p567
aV2015-10-03 01:10:14
p568
asg15
(lp569
(V25^2*3 + 25*2 + 1
p570
V2015-10-03 01:11:43
p571
tp572
assVa8ho
p573
(dp574
g3
(lp575
V26^3-25^3
p576
aV2015-10-07 06:52:03
p577
asg7
(lp578
V25^3
p579
aV2015-10-07 05:50:38
p580
asg11
(lp581
V26^3
p582
aV2015-10-07 05:50:38
p583
asg15
(lp584
(V3*25*26^2
p585
V2015-10-07 05:53:34
p586
tp587
a(V3*26^2
p588
V2015-10-07 05:54:24
p589
tp590
a(V3(26^2)
p591
V2015-10-07 05:56:04
p592
tp593
a(V3*25^2+1+3*24^2
p594
V2015-10-07 06:48:24
p595
tp596
a(V3*25^2+1+3*24
p597
V2015-10-07 06:49:20
p598
tp599
assVh4tu
p600
(dp601
g3
(lp602
V26^3-25^3
p603
aV2015-10-08 19:04:28
p604
asg7
(lp605
V25^3
p606
aV2015-10-08 19:03:47
p607
asg11
(lp608
V26^3
p609
aV2015-10-08 19:03:17
p610
asg15
(lp611
(V26^2
p612
V2015-10-08 19:03:47
p613
tp614
assVccn001
p615
(dp616
g3
(lp617
V(5!/((1!)(5-1)!))25^4+(5!/((2!)(5-2)!))25^3+(5!/((3!)(5-3)!))25^2+(5!/((4!)(5-4)!))25^1+1
p618
aV2015-10-06 17:40:41
p619
asg7
(lp620
V25^5
p621
aV2015-10-06 06:32:10
p622
asg11
(lp623
V26^5
p624
aV2015-10-06 06:32:10
p625
asg15
(lp626
(V1*26^4
p627
V2015-10-06 06:32:10
p628
tp629
a(V26^4+26^4+26^4+26^4+26^4
p630
V2015-10-06 07:00:18
p631
tp632
assVlrlai
p633
(dp634
g3
(lp635
V26^4 - (25^4)
p636
aV2015-10-05 00:15:37
p637
asg7
(lp638
V25^4
p639
aV2015-10-04 23:28:25
p640
asg11
(lp641
V26^4
p642
aV2015-10-04 23:28:25
p643
asg15
(lp644
(V(25^3) * 3
p645
V2015-10-04 23:28:25
p646
tp647
a(V((25^3) * 5) + ((25^2)*3) + (25*5) + 1
p648
V2015-10-04 23:30:42
p649
tp650
assVasetters
p651
(dp652
g3
(lp653
V26^6-25^6
p654
aV2015-10-02 19:59:49
p655
asg7
(lp656
V25^6
p657
aV2015-10-02 19:57:28
p658
asg11
(lp659
V26^6
p660
aV2015-10-02 19:57:28
p661
asg15
(lp662
(V25^5
p663
V2015-10-02 19:57:28
p664
tp665
a(V25^5*6
p666
V2015-10-02 19:57:39
p667
tp668
assVc1sorian
p669
(dp670
g3
(lp671
V(26^3)-(25^3)
p672
aV2015-10-08 06:02:19
p673
asg7
(lp674
V25^3
p675
aV2015-10-08 05:55:49
p676
asg11
(lp677
V26^3
p678
aV2015-10-08 05:54:51
p679
asg15
(lp680
(V26*26
p681
V2015-10-08 05:56:10
p682
tp683
a(V3*26*26
p684
V2015-10-08 05:56:33
p685
tp686
assVatorr
p687
(dp688
g3
(lp689
V26^3 - 25^3
p690
aV2015-10-05 06:06:15
p691
asg7
(lp692
V25^3
p693
aV2015-10-05 05:57:50
p694
asg11
(lp695
V26^3
p696
aV2015-10-05 05:57:50
p697
asg15
(lp698
(V26^3
p699
V2015-10-05 05:58:02
p700
tp701
a(V26^2
p702
V2015-10-05 05:58:20
p703
tp704
a(V25^2
p705
V2015-10-05 05:58:39
p706
tp707
a(V1 * 26 * 26
p708
V2015-10-05 05:58:50
p709
tp710
a(V26^3
p711
V2015-10-05 06:00:32
p712
tp713
a(V3 * 26^3
p714
V2015-10-05 06:00:47
p715
tp716
a(V26^6
p717
V2015-10-05 06:01:20
p718
tp719
assVcprafull
p720
(dp721
g3
(lp722
V(26^4) - (25^4)
p723
aV2015-10-07 01:35:21
p724
asg7
(lp725
V25*25*25*25
p726
aV2015-10-06 19:29:31
p727
asg11
(lp728
V26*26*26*26
p729
aV2015-10-06 19:29:17
p730
asg15
(lp731
(V26*26*26*4
p732
V2015-10-06 19:30:16
p733
tp734
a(V26*26*26
p735
V2015-10-06 19:30:21
p736
tp737
a(V26*26*26*4
p738
V2015-10-06 19:31:20
p739
tp740
a(V25*25*25*4
p741
V2015-10-07 01:31:03
p742
tp743
assVanislam
p744
(dp745
g3
(lp746
sg7
(lp747
V25^3
p748
aV2015-10-08 23:56:54
p749
asg11
(lp750
V26^3
p751
aV2015-10-08 23:56:54
p752
asg15
(lp753
(V26^2 * 3 - 2
p754
V2015-10-08 23:57:23
p755
tp756
a(V26^2 * 3 - 2 - 1 -1 - 1
p757
V2015-10-08 23:58:26
p758
tp759
a(V26^2 + 26^2 + 26^2 - 1 - 1 - 26 - 26 - 26
p760
V2015-10-09 00:01:59
p761
tp762
assVmroknich
p763
(dp764
g3
(lp765
V26^4-25^4
p766
aV2015-10-06 06:27:25
p767
asg7
(lp768
V25^4
p769
aV2015-10-06 06:11:24
p770
asg11
(lp771
V26^4
p772
aV2015-10-06 06:11:24
p773
asg15
(lp774
(V26^4
p775
V2015-10-06 06:12:04
p776
tp777
a(V(26^3*4)+(26^3*C(4,2))+(26*C(4,3))+1
p778
V2015-10-06 06:19:16
p779
tp780
assValhung
p781
(dp782
g3
(lp783
V26^4-25^4
p784
aV2015-10-08 08:21:09
p785
asg7
(lp786
V25^4
p787
aV2015-10-08 07:58:54
p788
asg11
(lp789
V26^4
p790
aV2015-10-08 07:58:54
p791
asg15
(lp792
(V26^3
p793
V2015-10-08 07:58:54
p794
tp795
a(V4*26^3
p796
V2015-10-08 07:59:23
p797
tp798
a(V4*26!/23!
p799
V2015-10-08 08:00:47
p800
tp801
a(V4!*26^3
p802
V2015-10-08 08:05:11
p803
tp804
a(V4*26^3
p805
V2015-10-08 08:06:21
p806
tp807
assVc2qiu
p808
(dp809
g3
(lp810
V26^6-25^6
p811
aV2015-10-03 18:28:38
p812
asg7
(lp813
V25^6
p814
aV2015-10-03 18:25:48
p815
asg11
(lp816
V26^6
p817
aV2015-10-03 18:25:48
p818
asg15
(lp819
(V6*26^5
p820
V2015-10-03 18:25:48
p821
tp822
assVjcj006
p823
(dp824
g3
(lp825
V26^4-25^4
p826
aV2015-10-08 00:30:25
p827
asg7
(lp828
V25^4
p829
aV2015-10-08 00:29:09
p830
asg11
(lp831
V26^4
p832
aV2015-10-08 00:29:09
p833
asg15
(lp834
(V4*26^3
p835
V2015-10-08 00:29:09
p836
tp837
assVdis003
p838
(dp839
g3
(lp840
V26^5 - 25^5
p841
aV2015-10-08 07:27:26
p842
asg7
(lp843
V25^5
p844
aV2015-10-08 07:26:17
p845
asg11
(lp846
V26^5
p847
aV2015-10-08 07:26:17
p848
asg15
(lp849
(V26^4
p850
V2015-10-08 07:26:17
p851
tp852
assVrraiyyan
p853
(dp854
g3
(lp855
V(1*25*25)*3 + (1*25*1)*3 + 1
p856
aV2015-10-06 07:01:08
p857
asg7
(lp858
V25^3
p859
aV2015-10-06 06:55:02
p860
asg11
(lp861
V26^3
p862
aV2015-10-06 06:55:02
p863
asg15
(lp864
(V3 * 26*25*25
p865
V2015-10-06 06:55:02
p866
tp867
a(V(26*25*25)^3
p868
V2015-10-06 06:55:22
p869
tp870
a(V(26*25*25 * 26*25*26 * 26)^3
p871
V2015-10-06 06:56:58
p872
tp873
assVjhw015
p874
(dp875
g3
(lp876
V26^3 - 25^3
p877
aV2015-10-06 15:21:14
p878
asg7
(lp879
V25^3
p880
aV2015-10-06 15:13:11
p881
asg11
(lp882
V26^3
p883
aV2015-10-06 15:12:52
p884
asg15
(lp885
(V26^2
p886
V2015-10-06 15:14:16
p887
tp888
assVkrkelkar
p889
(dp890
g3
(lp891
V26**3-25**3
p892
aV2015-10-03 07:15:19
p893
asg7
(lp894
V25**3
p895
aV2015-10-03 07:12:29
p896
asg11
(lp897
V26**3
p898
aV2015-10-03 07:12:29
p899
asg15
(lp900
(V3* 26**2
p901
V2015-10-03 07:12:29
p902
tp903
assVlcardoso
p904
(dp905
g3
(lp906
V26*26*26 - 25*25*25
p907
aV2015-10-08 07:10:27
p908
asg7
(lp909
V25*25*25
p910
aV2015-10-08 07:07:35
p911
asg11
(lp912
V26*26*26
p913
aV2015-10-08 07:07:35
p914
asg15
(lp915
(V1*25*25
p916
V2015-10-08 07:07:35
p917
tp918
a(V1*25*25 * (3!/(2!*1!))
p919
V2015-10-08 07:08:26
p920
tp921
assVjel075
p922
(dp923
g3
(lp924
V26*26*26*26-25*25*25*25
p925
aV2015-10-08 04:25:25
p926
asg7
(lp927
V25*25*25*25
p928
aV2015-10-08 00:53:35
p929
asg11
(lp930
V26*26*26*26
p931
aV2015-10-08 00:53:10
p932
asg15
(lp933
(V1*26*26*26
p934
V2015-10-08 00:53:35
p935
tp936
a(V26*26*26*4
p937
V2015-10-08 00:56:38
p938
tp939
a(V26*26*26+26*26*26+26*26*26+26*26*26
p940
V2015-10-08 04:24:04
p941
tp942
assVhmnaing
p943
(dp944
g3
(lp945
V(26^5) - (25^5)
p946
aV2015-10-07 23:10:29
p947
asg7
(lp948
V25^5
p949
aV2015-10-07 18:08:53
p950
asg11
(lp951
V26^5
p952
aV2015-10-07 18:08:53
p953
asg15
(lp954
(V(25^5)*5
p955
V2015-10-07 18:08:53
p956
tp957
assVkgrozav
p958
(dp959
g3
(lp960
V(26^4) - (25^4)
p961
aV2015-10-02 21:32:03
p962
asg7
(lp963
V25^4
p964
aV2015-10-02 21:18:43
p965
asg11
(lp966
V26^4
p967
aV2015-10-02 21:18:30
p968
asg15
(lp969
(V26^3
p970
V2015-10-02 21:19:30
p971
tp972
a(V4*((26^3) + (26^2) + 26)
p973
V2015-10-02 21:30:04
p974
tp975
assVetemlock
p976
(dp977
g3
(lp978
V(26^6)-(25^6)
p979
aV2015-10-02 17:58:11
p980
asg7
(lp981
V25^6
p982
aV2015-10-02 17:50:03
p983
asg11
(lp984
V26^6
p985
aV2015-10-02 17:50:03
p986
asg15
(lp987
(V26^5
p988
V2015-10-02 17:50:03
p989
tp990
assVmuy002
p991
(dp992
g3
(lp993
V26^4-25^4
p994
aV2015-10-07 21:56:51
p995
asg7
(lp996
V25^4
p997
aV2015-10-07 21:55:28
p998
asg11
(lp999
V26^4
p1000
aV2015-10-07 21:55:28
p1001
asg15
(lp1002
(V1*26*26*26
p1003
V2015-10-07 21:55:28
p1004
tp1005
assVjtfrankl
p1006
(dp1007
g3
(lp1008
V26**6-25**6
p1009
aV2015-10-08 02:55:54
p1010
asg7
(lp1011
V25**6
p1012
aV2015-10-07 23:43:24
p1013
asg11
(lp1014
V26**6
p1015
aV2015-10-07 23:43:24
p1016
asg15
(lp1017
(V26**5
p1018
V2015-10-07 23:43:24
p1019
tp1020
a(V(26!/(5!21!))6
p1021
V2015-10-07 23:44:39
p1022
tp1023
a(V(26!/(5!21!))5
p1024
V2015-10-07 23:44:55
p1025
tp1026
a(V(26!/(5!21!))6
p1027
V2015-10-08 02:50:22
p1028
tp1029
assVeshung
p1030
(dp1031
g3
(lp1032
V26^4-25^4
p1033
aV2015-10-08 18:47:34
p1034
asg7
(lp1035
V25^4
p1036
aV2015-10-08 18:41:54
p1037
asg11
(lp1038
V26^4
p1039
aV2015-10-08 18:41:54
p1040
asg15
(lp1041
(V(25^3)*(3)+(25^2)*(6)+(25*3)+1
p1042
V2015-10-08 18:45:54
p1043
tp1044
a(V25^4
p1045
V2015-10-08 18:47:17
p1046
tp1047
assVrbdoming
p1048
(dp1049
g3
(lp1050
V26* 26* 26 - 25*25*25
p1051
aV2015-10-02 21:37:48
p1052
asg7
(lp1053
V25*25*25
p1054
aV2015-10-02 21:26:44
p1055
asg11
(lp1056
V26*26*26
p1057
aV2015-10-02 21:26:44
p1058
asg15
(lp1059
(V26*26*26
p1060
V2015-10-02 21:26:44
p1061
tp1062
a(V3(26*26*25)
p1063
V2015-10-02 21:34:32
p1064
tp1065
assVaurodrig
p1066
(dp1067
g3
(lp1068
V26^6-25^6
p1069
aV2015-10-07 05:04:42
p1070
asg7
(lp1071
V25^6
p1072
aV2015-10-07 04:55:28
p1073
asg11
(lp1074
V26^6
p1075
aV2015-10-07 04:55:05
p1076
asg15
(lp1077
(V6^26-6^25
p1078
V2015-10-07 05:01:48
p1079
tp1080
a(V6^26-1^25
p1081
V2015-10-07 05:02:09
p1082
tp1083
a(V6^26-5^25
p1084
V2015-10-07 05:02:24
p1085
tp1086
assVdcastlem
p1087
(dp1088
g3
(lp1089
V26^5-25^5
p1090
aV2015-10-03 22:33:09
p1091
asg7
(lp1092
V25^5
p1093
aV2015-10-03 22:16:23
p1094
asg11
(lp1095
V26^5
p1096
aV2015-10-03 22:16:23
p1097
asg15
(lp1098
(V26*2
p1099
V2015-10-03 22:18:12
p1100
tp1101
a(V26^2
p1102
V2015-10-03 22:18:20
p1103
tp1104
a(V26^4
p1105
V2015-10-03 22:28:01
p1106
tp1107
assVbkoli
p1108
(dp1109
g3
(lp1110
V26^5-25^5
p1111
aV2015-10-08 17:01:28
p1112
asg7
(lp1113
V25^5
p1114
aV2015-10-08 16:46:14
p1115
asg11
(lp1116
V26^5
p1117
aV2015-10-08 16:45:51
p1118
asg15
(lp1119
(V25*26^4
p1120
V2015-10-08 16:49:14
p1121
tp1122
a(V1*26^4
p1123
V2015-10-08 16:49:38
p1124
tp1125
a(V1+26^4
p1126
V2015-10-08 16:51:21
p1127
tp1128
a(V26^4+1+26^4
p1129
V2015-10-08 16:57:30
p1130
tp1131
assVv3doan
p1132
(dp1133
g3
(lp1134
V3 * 26 * 26 - (26 * 3) + 1
p1135
aV2015-10-04 00:19:37
p1136
asg7
(lp1137
V25 * 25 * 25
p1138
aV2015-10-04 00:06:48
p1139
asg11
(lp1140
V26 * 26 *26
p1141
aV2015-10-04 00:06:48
p1142
asg15
(lp1143
(V26 * 26
p1144
V2015-10-04 00:08:10
p1145
tp1146
a(VC(26, 3)
p1147
V2015-10-04 00:09:04
p1148
tp1149
a(V26 * 26 * 3 - 1 -3
p1150
V2015-10-04 00:13:21
p1151
tp1152
a(V26 * 26 * 3 - 1
p1153
V2015-10-04 00:13:31
p1154
tp1155
a(V26 * 26 * 3 + 2
p1156
V2015-10-04 00:13:41
p1157
tp1158
a(V26 * 26 * 3 + 1
p1159
V2015-10-04 00:13:48
p1160
tp1161
a(V26 * 26 * 3 - 2
p1162
V2015-10-04 00:13:53
p1163
tp1164
a(V26 * 26 * 3 + 1 - 6
p1165
V2015-10-04 00:15:37
p1166
tp1167
a(V26 * 26 - (26 * 3) + 1
p1168
V2015-10-04 00:19:23
p1169
tp1170
assVyil035
p1171
(dp1172
g3
(lp1173
V26^5-25^5
p1174
aV2015-10-07 06:06:44
p1175
asg7
(lp1176
V25^5
p1177
aV2015-10-07 06:05:33
p1178
asg11
(lp1179
V26^5
p1180
aV2015-10-07 06:05:33
p1181
asg15
(lp1182
(V26^4
p1183
V2015-10-07 06:05:33
p1184
tp1185
assVwmiao
p1186
(dp1187
g3
(lp1188
V2115751
p1189
aV2015-10-07 04:54:51
p1190
asg7
(lp1191
V25^5
p1192
aV2015-10-07 04:41:54
p1193
asg11
(lp1194
V26^5
p1195
aV2015-10-07 04:41:54
p1196
asg15
(lp1197
(V26^4
p1198
V2015-10-07 04:41:54
p1199
tp1200
a(V5*26^4
p1201
V2015-10-07 04:42:43
p1202
tp1203
a(V5!*26^4
p1204
V2015-10-07 04:43:04
p1205
tp1206
assVdruble
p1207
(dp1208
g3
(lp1209
V26^4 - 25^4
p1210
aV2015-10-08 21:22:27
p1211
asg7
(lp1212
V25^4
p1213
aV2015-10-08 21:21:34
p1214
asg11
(lp1215
V26^4
p1216
aV2015-10-08 21:21:34
p1217
asg15
(lp1218
(V4*1*26^3
p1219
V2015-10-08 21:21:34
p1220
tp1221
assVlpettit
p1222
(dp1223
g3
(lp1224
V26^4 - 25^4
p1225
aV2015-10-06 15:08:56
p1226
asg7
(lp1227
V25^4
p1228
aV2015-10-06 03:35:42
p1229
asg11
(lp1230
V26^4
p1231
aV2015-10-06 03:35:15
p1232
asg15
(lp1233
(V26^3
p1234
V2015-10-06 03:36:10
p1235
tp1236
a(V4*(26^3)
p1237
V2015-10-06 03:38:49
p1238
tp1239
a(V(26!)/(1!*(25!))
p1240
V2015-10-06 03:43:33
p1241
tp1242
a(V(26!)/(1!*(25!)) * 26^3
p1243
V2015-10-06 03:43:47
p1244
tp1245
a(V4*(26^3) - 4
p1246
V2015-10-06 03:44:52
p1247
tp1248
a(V4*(26^3) - 4!
p1249
V2015-10-06 03:45:33
p1250
tp1251
a(V4*(26^3) - 4*4!
p1252
V2015-10-06 03:45:50
p1253
tp1254
a(V(26^3)
p1255
V2015-10-06 03:51:37
p1256
tp1257
assVb3hwang
p1258
(dp1259
g3
(lp1260
V(26^4)-(25^4)
p1261
aV2015-10-08 23:28:11
p1262
asg7
(lp1263
V25^4
p1264
aV2015-10-08 23:26:45
p1265
asg11
(lp1266
V26^4
p1267
aV2015-10-08 23:26:34
p1268
asg15
(lp1269
(V26^3
p1270
V2015-10-08 23:26:56
p1271
tp1272
a(V4*26^3
p1273
V2015-10-08 23:27:20
p1274
tp1275
assVkebao
p1276
(dp1277
g3
(lp1278
V26^6-25^6
p1279
aV2015-10-03 18:26:19
p1280
asg7
(lp1281
V25^6
p1282
aV2015-10-03 18:11:14
p1283
asg11
(lp1284
V26^6
p1285
aV2015-10-03 18:10:46
p1286
asg15
(lp1287
(V26^5
p1288
V2015-10-03 18:11:55
p1289
tp1290
a(V6!/5!
p1291
V2015-10-03 18:17:12
p1292
tp1293
a(V25^5
p1294
V2015-10-03 18:22:41
p1295
tp1296
assVglcohen
p1297
(dp1298
g3
(lp1299
V(26^3)-(25^3)
p1300
aV2015-10-04 23:29:06
p1301
asg7
(lp1302
V25*25*25
p1303
aV2015-10-04 23:11:58
p1304
asg11
(lp1305
V26*26*26
p1306
aV2015-10-04 23:11:58
p1307
asg15
(lp1308
(V1*26*26
p1309
V2015-10-04 23:11:58
p1310
tp1311
a(V3*26*26
p1312
V2015-10-04 23:12:07
p1313
tp1314
a(V(26*26)(26*26)(26*26)
p1315
V2015-10-04 23:12:34
p1316
tp1317
a(V(26*26)+(26*26)+(26*26)+(26*26)+(3*26)+1
p1318
V2015-10-04 23:20:17
p1319
tp1320
a(V(25*25)+(25*25)+(25*25)+(25*25)+(3*25)+1
p1321
V2015-10-04 23:20:38
p1322
tp1323
a(V(25*25)+(25*25)+(25*25)+(25*25)+(3*25)
p1324
V2015-10-04 23:20:52
p1325
tp1326
a(V25*26*26
p1327
V2015-10-04 23:22:58
p1328
tp1329
a(V3(25*26*26)
p1330
V2015-10-04 23:23:07
p1331
tp1332
a(V2(25*26*26)
p1333
V2015-10-04 23:23:15
p1334
tp1335
a(V3*(1*26*26)
p1336
V2015-10-04 23:23:35
p1337
tp1338
a(V2*(26*26)
p1339
V2015-10-04 23:23:52
p1340
tp1341
a(V3*(26*26)
p1342
V2015-10-04 23:23:57
p1343
tp1344
a(V(26*26)
p1345
V2015-10-04 23:25:56
p1346
tp1347
a(V2(26*26)
p1348
V2015-10-04 23:26:07
p1349
tp1350
a(V4(26*26)
p1351
V2015-10-04 23:26:13
p1352
tp1353
a(V3(26*26)
p1354
V2015-10-04 23:26:46
p1355
tp1356
assVachava
p1357
(dp1358
g3
(lp1359
V26^4-25^4
p1360
aV2015-10-02 07:52:13
p1361
asg7
(lp1362
V25^4
p1363
aV2015-10-02 05:47:08
p1364
asg11
(lp1365
V26^4
p1366
aV2015-10-02 05:30:54
p1367
asg15
(lp1368
(V26*25*25*25
p1369
V2015-10-02 05:47:33
p1370
tp1371
a(V26*25*26*25
p1372
V2015-10-02 05:47:49
p1373
tp1374
a(V26^4
p1375
V2015-10-02 05:49:02
p1376
tp1377
a(V26!/((1!)*(25!))
p1378
V2015-10-02 05:50:51
p1379
tp1380
a(V26*25*25*25
p1381
V2015-10-02 05:53:16
p1382
tp1383
a(V26*26*25*26
p1384
V2015-10-02 05:53:28
p1385
tp1386
a(V26*26*25*25
p1387
V2015-10-02 05:53:32
p1388
tp1389
a(V25*25*25+1
p1390
V2015-10-02 06:09:03
p1391
tp1392
a(V(25*25*25*25)+4
p1393
V2015-10-02 06:09:31
p1394
tp1395
assVd6he
p1396
(dp1397
g3
(lp1398
V(26^6)-(25^6)
p1399
aV2015-10-07 21:26:26
p1400
asg7
(lp1401
V25^6
p1402
aV2015-10-07 21:22:22
p1403
asg11
(lp1404
V26^6
p1405
aV2015-10-07 21:22:22
p1406
asg15
(lp1407
(V5*(26^5)
p1408
V2015-10-07 21:22:34
p1409
tp1410
a(V6*(26^5)
p1411
V2015-10-07 21:22:43
p1412
tp1413
a(V6*(26^5)-1
p1414
V2015-10-07 21:25:16
p1415
tp1416
a(V6*(26^5)-6
p1417
V2015-10-07 21:25:22
p1418
tp1419
assVsachadal
p1420
(dp1421
g3
(lp1422
V(26^4) - (25^4)
p1423
aV2015-10-05 19:13:55
p1424
asg7
(lp1425
V25^4
p1426
aV2015-10-05 19:08:35
p1427
asg11
(lp1428
V26^4
p1429
aV2015-10-05 19:08:14
p1430
asg15
(lp1431
(V26^3
p1432
V2015-10-05 19:08:35
p1433
tp1434
a(V4*26^3
p1435
V2015-10-05 19:10:21
p1436
tp1437
assVawollner
p1438
(dp1439
g3
(lp1440
V26^6-25^6
p1441
aV2015-10-06 16:14:20
p1442
asg7
(lp1443
V25^6
p1444
aV2015-10-06 15:48:11
p1445
asg11
(lp1446
V26^6
p1447
aV2015-10-06 15:48:11
p1448
asg15
(lp1449
(V26^5
p1450
V2015-10-06 15:48:11
p1451
tp1452
a(V26^6
p1453
V2015-10-06 15:48:19
p1454
tp1455
assVdcrume
p1456
(dp1457
g3
(lp1458
sg7
(lp1459
V25^(5)
p1460
aV2015-10-08 17:20:35
p1461
asg11
(lp1462
V26^(5)
p1463
aV2015-10-08 17:20:35
p1464
asg15
(lp1465
(V26^(4)
p1466
V2015-10-08 17:20:35
p1467
tp1468
a(V26^(4) + 26^(3) + 26^(2) + 26 + 1
p1469
V2015-10-08 17:22:29
p1470
tp1471
assVt2li
p1472
(dp1473
g3
(lp1474
V26^4-25^4
p1475
aV2015-10-06 03:49:40
p1476
asg7
(lp1477
V25^4
p1478
aV2015-10-06 03:41:50
p1479
asg11
(lp1480
V26^4
p1481
aV2015-10-06 03:41:50
p1482
asg15
(lp1483
(V25^3
p1484
V2015-10-06 03:44:45
p1485
tp1486
a(V4*26*26*26
p1487
V2015-10-06 03:46:24
p1488
tp1489
a(V26*26*26
p1490
V2015-10-06 03:49:18
p1491
tp1492
assVdlt009
p1493
(dp1494
g3
(lp1495
V(26^5)-(25^5)
p1496
aV2015-10-05 00:36:09
p1497
asg7
(lp1498
V25^5
p1499
aV2015-10-05 00:31:46
p1500
asg11
(lp1501
V26^5
p1502
aV2015-10-05 00:31:46
p1503
asg15
(lp1504
(V26^4
p1505
V2015-10-05 00:31:46
p1506
tp1507
assVn2patil
p1508
(dp1509
g3
(lp1510
V(26^4)-(25^4)
p1511
aV2015-10-08 05:54:10
p1512
asg7
(lp1513
V25^4
p1514
aV2015-10-08 05:33:08
p1515
asg11
(lp1516
V26^4
p1517
aV2015-10-08 05:32:55
p1518
asg15
(lp1519
(V26*26*26*25
p1520
V2015-10-08 05:33:47
p1521
tp1522
a(V26*26*26
p1523
V2015-10-08 05:34:19
p1524
tp1525
a(V26*26*26*4
p1526
V2015-10-08 05:38:31
p1527
tp1528
assVttimmons
p1529
(dp1530
g3
(lp1531
V26^5-25^5
p1532
aV2015-10-04 00:13:22
p1533
asg7
(lp1534
V25^5
p1535
aV2015-10-04 00:10:57
p1536
asg11
(lp1537
V26^5
p1538
aV2015-10-04 00:10:57
p1539
asg15
(lp1540
(V25^4
p1541
V2015-10-04 00:11:09
p1542
tp1543
a(V26*26*26*26
p1544
V2015-10-04 00:11:32
p1545
tp1546
a(V4*26*26*26*26
p1547
V2015-10-04 00:11:48
p1548
tp1549
assVjnatale
p1550
(dp1551
g3
(lp1552
V26^3 - 25^3
p1553
aV2015-10-08 02:50:09
p1554
asg7
(lp1555
V25*25*25
p1556
aV2015-10-08 02:38:18
p1557
asg11
(lp1558
V26*26*26
p1559
aV2015-10-08 02:38:05
p1560
asg15
(lp1561
(V1*26*26
p1562
V2015-10-08 02:38:37
p1563
tp1564
a(V26^3
p1565
V2015-10-08 02:40:41
p1566
tp1567
a(V26*26
p1568
V2015-10-08 02:43:20
p1569
tp1570
a(V(26*26)^3 - 3
p1571
V2015-10-08 02:43:41
p1572
tp1573
a(V(26*26)^3 - 6
p1574
V2015-10-08 02:43:57
p1575
tp1576
a(V(26*26)^3 - 5
p1577
V2015-10-08 02:44:02
p1578
tp1579
a(V(26*26)^3 - 4
p1580
V2015-10-08 02:44:06
p1581
tp1582
a(V(26*26)^3 - 7
p1583
V2015-10-08 02:44:09
p1584
tp1585
a(V(26*26)^3 - 8
p1586
V2015-10-08 02:44:13
p1587
tp1588
assVjblynch
p1589
(dp1590
g3
(lp1591
V26^5 - 25^5
p1592
aV2015-10-05 04:38:11
p1593
asg7
(lp1594
V25^5
p1595
aV2015-10-05 04:37:48
p1596
asg11
(lp1597
V26^5
p1598
aV2015-10-05 04:37:48
p1599
asg15
(lp1600
(V26^4
p1601
V2015-10-05 04:37:48
p1602
tp1603
assVganajera
p1604
(dp1605
g3
(lp1606
V(26^4)-(25^4)
p1607
aV2015-10-03 18:29:28
p1608
asg7
(lp1609
V25^4
p1610
aV2015-10-03 18:27:27
p1611
asg11
(lp1612
V26^4
p1613
aV2015-10-03 18:27:27
p1614
asg15
(lp1615
(V4*26*26*26
p1616
V2015-10-03 18:27:27
p1617
tp1618
assVnnh002
p1619
(dp1620
g3
(lp1621
V26^4-(25^4)
p1622
aV2015-10-07 00:44:04
p1623
asg7
(lp1624
V25^4
p1625
aV2015-10-07 00:43:18
p1626
asg11
(lp1627
V26^4
p1628
aV2015-10-07 00:43:18
p1629
asg15
(lp1630
(V26^3
p1631
V2015-10-07 00:43:18
p1632
tp1633
assVskodigal
p1634
(dp1635
g3
(lp1636
V66351
p1637
aV2015-10-08 02:39:19
p1638
asg7
(lp1639
V25^4
p1640
aV2015-10-08 00:51:25
p1641
asg11
(lp1642
V26^4
p1643
aV2015-10-08 00:51:25
p1644
asg15
(lp1645
(V26^3
p1646
V2015-10-08 00:52:06
p1647
tp1648
a(V(26^4)*4*6*4
p1649
V2015-10-08 01:01:52
p1650
tp1651
a(V(26^4)/4*6*4
p1652
V2015-10-08 01:02:08
p1653
tp1654
assVdtea
p1655
(dp1656
g3
(lp1657
V26**4-25**4
p1658
aV2015-10-08 21:53:07
p1659
asg7
(lp1660
V25**4
p1661
aV2015-10-08 19:00:15
p1662
asg11
(lp1663
V26**4
p1664
aV2015-10-08 19:00:09
p1665
asg15
(lp1666
(V26*26*26
p1667
V2015-10-08 19:00:30
p1668
tp1669
a(V26*26*26*25
p1670
V2015-10-08 19:01:13
p1671
tp1672
a(V26*26*26*4
p1673
V2015-10-08 19:01:54
p1674
tp1675
a(V4*26*C(4,1)
p1676
V2015-10-08 19:03:49
p1677
tp1678
a(V4*26*4
p1679
V2015-10-08 19:04:13
p1680
tp1681
a(V4*26*4!
p1682
V2015-10-08 19:04:18
p1683
tp1684
a(V26**3
p1685
V2015-10-08 21:33:32
p1686
tp1687
a(V26**3
p1688
V2015-10-08 21:52:27
p1689
tp1690
assVeaherman
p1691
(dp1692
g3
(lp1693
V(26^4)-(25^4)
p1694
aV2015-10-05 17:27:35
p1695
asg7
(lp1696
V25^4
p1697
aV2015-10-03 21:08:03
p1698
asg11
(lp1699
V26^4
p1700
aV2015-10-03 21:07:39
p1701
asg15
(lp1702
(V(25)(26)(26)
p1703
V2015-10-03 21:09:10
p1704
tp1705
a(V(25)(26)(26)(26)
p1706
V2015-10-03 21:09:24
p1707
tp1708
a(V(26)(26)(26)
p1709
V2015-10-03 21:09:42
p1710
tp1711
a(V(25^3)(4)
p1712
V2015-10-03 21:15:51
p1713
tp1714
a(V[(26^3)(4)]-24
p1715
V2015-10-03 21:27:34
p1716
tp1717
a(V[(26^3)(4)]-27
p1718
V2015-10-03 21:45:25
p1719
tp1720
a(V[(26^3)(4)]-6
p1721
V2015-10-05 16:59:49
p1722
tp1723
a(V(26^3)
p1724
V2015-10-05 17:00:03
p1725
tp1726
a(V(25^3)(4)+11
p1727
V2015-10-05 17:23:33
p1728
tp1729
assVlguintu
p1730
(dp1731
g3
(lp1732
V26^5-25^5
p1733
aV2015-10-06 16:57:23
p1734
asg7
(lp1735
V25^5
p1736
aV2015-10-06 16:56:19
p1737
asg11
(lp1738
V26^5
p1739
aV2015-10-06 16:56:19
p1740
asg15
(lp1741
(V26^4
p1742
V2015-10-06 16:56:19
p1743
tp1744
assVjjchung
p1745
(dp1746
g3
(lp1747
V(26^3 - 25^3)
p1748
aV2015-10-08 06:40:50
p1749
asg7
(lp1750
V25^3
p1751
aV2015-10-08 06:34:04
p1752
asg11
(lp1753
V26^3
p1754
aV2015-10-08 06:33:53
p1755
asg15
(lp1756
(V26^2
p1757
V2015-10-08 06:34:30
p1758
tp1759
a(V(26^2)*3-2
p1760
V2015-10-08 06:36:16
p1761
tp1762
a(V(26^2)*3-3
p1763
V2015-10-08 06:36:21
p1764
tp1765
a(V(26^2)*3-1
p1766
V2015-10-08 06:36:29
p1767
tp1768
assVvolim
p1769
(dp1770
g3
(lp1771
V(26^6)-(25^6)
p1772
aV2015-10-03 19:08:02
p1773
asg7
(lp1774
V(25)^6
p1775
aV2015-10-03 18:52:37
p1776
asg11
(lp1777
V(26)^6
p1778
aV2015-10-03 18:52:37
p1779
asg15
(lp1780
(V(26)^5
p1781
V2015-10-03 18:52:37
p1782
tp1783
assVralhadda
p1784
(dp1785
g3
(lp1786
sg7
(lp1787
V25*25*25
p1788
aV2015-10-08 17:52:08
p1789
asg11
(lp1790
V26*26*26
p1791
aV2015-10-08 17:51:33
p1792
asg15
(lp1793
(V25*26*26
p1794
V2015-10-08 17:52:27
p1795
tp1796
a(V25*26*24
p1797
V2015-10-08 17:52:33
p1798
tp1799
a(V26*26*26
p1800
V2015-10-08 17:53:40
p1801
tp1802
assVytc012
p1803
(dp1804
g3
(lp1805
V26^6 -25^6
p1806
aV2015-10-06 10:17:44
p1807
asg7
(lp1808
V25^6
p1809
aV2015-10-06 09:52:26
p1810
asg11
(lp1811
V26^6
p1812
aV2015-10-06 09:52:16
p1813
asg15
(lp1814
(V26^5
p1815
V2015-10-06 09:52:44
p1816
tp1817
a(V26^5
p1818
V2015-10-06 09:55:16
p1819
tp1820
a(V6*(26^5)
p1821
V2015-10-06 09:55:27
p1822
tp1823
a(V5*(26^5)
p1824
V2015-10-06 09:55:32
p1825
tp1826
a(V26^5
p1827
V2015-10-06 10:07:11
p1828
tp1829
a(V6*26^5-6!
p1830
V2015-10-06 10:08:38
p1831
tp1832
a(V6*26^5-6
p1833
V2015-10-06 10:08:58
p1834
tp1835
assVtjke
p1836
(dp1837
g3
(lp1838
V26^6-25^6
p1839
aV2015-10-03 23:42:27
p1840
asg7
(lp1841
V25^6
p1842
aV2015-10-03 23:34:41
p1843
asg11
(lp1844
V26^6
p1845
aV2015-10-03 23:34:41
p1846
asg15
(lp1847
(VC(5,1)*26^5
p1848
V2015-10-03 23:34:41
p1849
tp1850
a(V[5!/(4!)]*26^5
p1851
V2015-10-03 23:37:21
p1852
tp1853
assVklala
p1854
(dp1855
g3
(lp1856
V26^4 - 25^4
p1857
aV2015-10-05 20:25:09
p1858
asg7
(lp1859
V25^4
p1860
aV2015-10-05 20:22:54
p1861
asg11
(lp1862
V26^4
p1863
aV2015-10-05 20:22:54
p1864
asg15
(lp1865
(V26^3
p1866
V2015-10-05 20:22:54
p1867
tp1868
assVasp025
p1869
(dp1870
g3
(lp1871
V66351
p1872
aV2015-10-08 17:04:25
p1873
asg7
(lp1874
V25^4
p1875
aV2015-10-08 16:08:11
p1876
asg11
(lp1877
V26^4
p1878
aV2015-10-08 16:07:28
p1879
asg15
(lp1880
(V(25^4)+1
p1881
V2015-10-08 16:10:10
p1882
tp1883
a(V26*25*25*25
p1884
V2015-10-08 16:10:42
p1885
tp1886
a(V(26!26!26!26!)/26^3
p1887
V2015-10-08 16:14:30
p1888
tp1889
a(V(4*26)-1
p1890
V2015-10-08 16:20:20
p1891
tp1892
a(V(4*25)+1
p1893
V2015-10-08 16:20:45
p1894
tp1895
a(V4*25*25*25
p1896
V2015-10-08 17:03:37
p1897
tp1898
assVdlgoldbe
p1899
(dp1900
g3
(lp1901
V(26^5)-(25^5)
p1902
aV2015-10-08 05:22:04
p1903
asg7
(lp1904
V25^5
p1905
aV2015-10-08 05:02:27
p1906
asg11
(lp1907
V26^5
p1908
aV2015-10-08 05:02:14
p1909
asg15
(lp1910
(V5*26^4
p1911
V2015-10-08 05:03:58
p1912
tp1913
a(V26^4
p1914
V2015-10-08 05:04:24
p1915
tp1916
a(V5*((104!)/(4!*100!))
p1917
V2015-10-08 05:09:42
p1918
tp1919
a(V5*(26^4)
p1920
V2015-10-08 05:11:40
p1921
tp1922
a(V5+(26^4)
p1923
V2015-10-08 05:12:37
p1924
tp1925
a(V26^4
p1926
V2015-10-08 05:13:19
p1927
tp1928
a(V(25^4)*5*4*3*2
p1929
V2015-10-08 05:20:22
p1930
tp1931
assVjfalcone
p1932
(dp1933
g3
(lp1934
V(26^4)-(25^4)
p1935
aV2015-10-07 03:52:07
p1936
asg7
(lp1937
V25^4
p1938
aV2015-10-07 03:49:48
p1939
asg11
(lp1940
V26 * 26 * 26 * 26
p1941
aV2015-10-07 03:49:48
p1942
asg15
(lp1943
(V25^2
p1944
V2015-10-07 03:50:18
p1945
tp1946
a(V26^2
p1947
V2015-10-07 03:50:31
p1948
tp1949
a(V(26^3)
p1950
V2015-10-07 03:50:58
p1951
tp1952
a(V25^4
p1953
V2015-10-07 03:51:26
p1954
tp1955
assVeyhu
p1956
(dp1957
g3
(lp1958
V(26^3) - (25^3)
p1959
aV2015-10-02 01:33:45
p1960
asg7
(lp1961
V25^3
p1962
aV2015-10-02 01:26:46
p1963
asg11
(lp1964
V26^3
p1965
aV2015-10-02 01:26:46
p1966
asg15
(lp1967
(V3*26^2
p1968
V2015-10-02 01:26:46
p1969
tp1970
a(V25^2 + 25 + 25 + 1
p1971
V2015-10-02 01:29:25
p1972
tp1973
assVppanourg
p1974
(dp1975
g3
(lp1976
V26^5 - 25^5
p1977
aV2015-10-08 06:32:41
p1978
asg7
(lp1979
V25^5
p1980
aV2015-10-02 08:28:07
p1981
asg11
(lp1982
V26^5
p1983
aV2015-10-02 08:28:07
p1984
asg15
(lp1985
(V26^4
p1986
V2015-10-02 08:28:07
p1987
tp1988
a(V5*26^4
p1989
V2015-10-02 08:30:18
p1990
tp1991
a(V5!*26^4
p1992
V2015-10-08 06:26:16
p1993
tp1994
a(V26^4
p1995
V2015-10-08 06:28:42
p1996
tp1997
assVewbrenna
p1998
(dp1999
g3
(lp2000
V26^5-25^5
p2001
aV2015-10-04 05:08:43
p2002
asg7
(lp2003
V25^5
p2004
aV2015-10-04 04:17:49
p2005
asg11
(lp2006
V26^5
p2007
aV2015-10-04 04:17:49
p2008
asg15
(lp2009
(V5*(26^4)
p2010
V2015-10-04 04:17:49
p2011
tp2012
assVmasaro
p2013
(dp2014
g3
(lp2015
V26^5-25^5
p2016
aV2015-10-05 15:36:39
p2017
asg7
(lp2018
V25^5
p2019
aV2015-10-05 15:33:06
p2020
asg11
(lp2021
V26^5
p2022
aV2015-10-05 15:33:06
p2023
asg15
(lp2024
(V5*26^4
p2025
V2015-10-05 15:33:06
p2026
tp2027
assVrwthomps
p2028
(dp2029
g3
(lp2030
V26^5 - 25^5
p2031
aV2015-10-06 20:12:49
p2032
asg7
(lp2033
V25^5
p2034
aV2015-10-06 20:06:38
p2035
asg11
(lp2036
V26^5
p2037
aV2015-10-06 20:06:38
p2038
asg15
(lp2039
(V26^4
p2040
V2015-10-06 20:06:38
p2041
tp2042
assVpcdo
p2043
(dp2044
g3
(lp2045
V26^6 - 25^6
p2046
aV2015-10-06 20:40:34
p2047
asg7
(lp2048
V25^6
p2049
aV2015-10-06 20:32:57
p2050
asg11
(lp2051
V26^6
p2052
aV2015-10-06 20:30:14
p2053
asg15
(lp2054
(V26^6 - 25^6 - 5*25^5
p2055
V2015-10-06 20:38:49
p2056
tp2057
a(V26^6 - 25^6 - 6*25^5
p2058
V2015-10-06 20:39:51
p2059
tp2060
assVe9brown
p2061
(dp2062
g3
(lp2063
V(25^2)3 + 76
p2064
aV2015-10-08 02:19:22
p2065
asg7
(lp2066
V25^3
p2067
aV2015-10-08 02:11:55
p2068
asg11
(lp2069
V26^3
p2070
aV2015-10-08 02:11:55
p2071
asg15
(lp2072
(V(26^2-4)3
p2073
V2015-10-08 02:14:52
p2074
tp2075
assVvsosnovs
p2076
(dp2077
g3
(lp2078
V(26^6)- 25^6
p2079
aV2015-10-04 18:22:09
p2080
asg7
(lp2081
V25^6
p2082
aV2015-10-04 18:16:40
p2083
asg11
(lp2084
V26^6
p2085
aV2015-10-04 18:16:20
p2086
asg15
(lp2087
(V(25^6)+ 1
p2088
V2015-10-04 18:18:19
p2089
tp2090
a(V6!
p2091
V2015-10-04 18:18:47
p2092
tp2093
a(V6!/5!
p2094
V2015-10-04 18:21:18
p2095
tp2096
assVjdeon
p2097
(dp2098
g3
(lp2099
V(26^3)-(25^3)
p2100
aV2015-10-03 19:47:05
p2101
asg7
(lp2102
V25^3
p2103
aV2015-10-03 19:43:55
p2104
asg11
(lp2105
V26^3
p2106
aV2015-10-03 19:43:42
p2107
asg15
(lp2108
(V26^2
p2109
V2015-10-03 19:44:50
p2110
tp2111
a(V26^2*3 - 2
p2112
V2015-10-03 19:45:26
p2113
tp2114
a(V26^2*3 - 3
p2115
V2015-10-03 19:45:32
p2116
tp2117
a(V(26!/(24!*2!)) * 3
p2118
V2015-10-03 19:46:29
p2119
tp2120
assVb1green
p2121
(dp2122
g3
(lp2123
V26*26*26-25*25*25
p2124
aV2015-10-08 19:37:04
p2125
asg7
(lp2126
V25*25*25
p2127
aV2015-10-08 18:55:10
p2128
asg11
(lp2129
V26*26*26
p2130
aV2015-10-08 18:55:10
p2131
asg15
(lp2132
(V25*26*26
p2133
V2015-10-08 18:57:36
p2134
tp2135
a(V26*26
p2136
V2015-10-08 18:59:02
p2137
tp2138
assVp4kumar
p2139
(dp2140
g3
(lp2141
V(26^5) - (25^5)
p2142
aV2015-10-08 19:25:25
p2143
asg7
(lp2144
V25^5
p2145
aV2015-10-08 19:16:37
p2146
asg11
(lp2147
V26^5
p2148
aV2015-10-08 19:16:37
p2149
asg15
(lp2150
(V(25^4) * 5
p2151
V2015-10-08 19:17:20
p2152
tp2153
a(V(26^4)
p2154
V2015-10-08 19:18:00
p2155
tp2156
assVj6quach
p2157
(dp2158
g3
(lp2159
V26^3 - 25^3
p2160
aV2015-10-06 18:50:00
p2161
asg7
(lp2162
V25^3
p2163
aV2015-10-06 18:21:10
p2164
asg11
(lp2165
V26^3
p2166
aV2015-10-06 18:21:10
p2167
asg15
(lp2168
(V26^2
p2169
V2015-10-06 18:21:10
p2170
tp2171
a(V3*(26^2)
p2172
V2015-10-06 18:25:50
p2173
tp2174
assVgsrandha
p2175
(dp2176
g3
(lp2177
V(26*26*26*26*26*26)-(25*25*25*25*25*25)
p2178
aV2015-10-02 02:16:23
p2179
asg7
(lp2180
V25*25*25*25*25*25
p2181
aV2015-10-02 02:09:19
p2182
asg11
(lp2183
V26*26*26*26*26*26
p2184
aV2015-10-02 02:09:07
p2185
asg15
(lp2186
(V26*26*26*26*26*1
p2187
V2015-10-02 02:10:11
p2188
tp2189
a(V1*26*26*26*26*26
p2190
V2015-10-02 02:10:34
p2191
tp2192
assVbmilton
p2193
(dp2194
g3
(lp2195
V26^3 - 25^3
p2196
aV2015-10-04 01:51:25
p2197
asg7
(lp2198
V25^3
p2199
aV2015-10-04 01:50:00
p2200
asg11
(lp2201
V26^3
p2202
aV2015-10-04 01:49:46
p2203
asg15
(lp2204
(V3*26^2
p2205
V2015-10-04 01:50:00
p2206
tp2207
assVc3chung
p2208
(dp2209
g3
(lp2210
V(26^5)-(25^5)
p2211
aV2015-10-08 17:36:54
p2212
asg7
(lp2213
V25^5
p2214
aV2015-10-07 23:29:37
p2215
asg11
(lp2216
V26^5
p2217
aV2015-10-07 23:29:37
p2218
asg15
(lp2219
(V26^4
p2220
V2015-10-07 23:29:37
p2221
tp2222
a(V(25^4)5
p2223
V2015-10-07 23:33:12
p2224
tp2225
a(V32(26^4)
p2226
V2015-10-07 23:39:46
p2227
tp2228
assVdcgriffi
p2229
(dp2230
g3
(lp2231
V(26^5)-(25^5)
p2232
aV2015-10-08 06:42:19
p2233
asg7
(lp2234
V25^5
p2235
aV2015-10-08 06:38:28
p2236
asg11
(lp2237
V26^5
p2238
aV2015-10-08 06:38:28
p2239
asg15
(lp2240
(V26^4
p2241
V2015-10-08 06:38:28
p2242
tp2243
a(V26^4
p2244
V2015-10-08 06:40:49
p2245
tp2246
a(V5*(26^4)
p2247
V2015-10-08 06:41:27
p2248
tp2249
a(V4*(26^4)
p2250
V2015-10-08 06:41:33
p2251
tp2252
assVrsmurlo
p2253
(dp2254
g3
(lp2255
V(26^4)-(25^4)
p2256
aV2015-10-08 02:35:56
p2257
asg7
(lp2258
V25^4
p2259
aV2015-10-08 02:30:19
p2260
asg11
(lp2261
V26^4
p2262
aV2015-10-08 02:30:19
p2263
asg15
(lp2264
(V4*26^3
p2265
V2015-10-08 02:30:19
p2266
tp2267
a(V(2*(4*25^3))*(6*25^2)+1
p2268
V2015-10-08 02:33:43
p2269
tp2270
a(V(4*25^3)*(6*25^2)*(4*25)+1
p2271
V2015-10-08 02:34:27
p2272
tp2273
assVdkostins
p2274
(dp2275
g3
(lp2276
V(26^6)-(25^6)
p2277
aV2015-10-06 02:10:06
p2278
asg7
(lp2279
V25^6
p2280
aV2015-10-06 01:54:38
p2281
asg11
(lp2282
V26^6
p2283
aV2015-10-06 01:53:38
p2284
asg15
(lp2285
(V26^5
p2286
V2015-10-06 01:55:17
p2287
tp2288
a(V25^5
p2289
V2015-10-06 01:55:27
p2290
tp2291
a(V5(26^5)
p2292
V2015-10-06 01:59:57
p2293
tp2294
a(V6(26^5)
p2295
V2015-10-06 02:00:07
p2296
tp2297
a(V6(26^6)
p2298
V2015-10-06 02:06:49
p2299
tp2300
a(V26^6
p2301
V2015-10-06 02:07:01
p2302
tp2303
assVpnquach
p2304
(dp2305
g3
(lp2306
V26^4 - 25^4
p2307
aV2015-10-08 06:39:17
p2308
asg7
(lp2309
V25^4
p2310
aV2015-10-08 06:37:02
p2311
asg11
(lp2312
V26^4
p2313
aV2015-10-08 06:37:02
p2314
asg15
(lp2315
(V(26^3)*4 - 4
p2316
V2015-10-08 06:37:02
p2317
tp2318
a(V(26^3)*4 - 1
p2319
V2015-10-08 06:37:32
p2320
tp2321
assVwcwhite
p2322
(dp2323
g3
(lp2324
sg7
(lp2325
V25^4
p2326
aV2015-10-08 19:10:33
p2327
asg11
(lp2328
V26^4
p2329
aV2015-10-08 19:09:49
p2330
asg15
(lp2331
(V26^4
p2332
V2015-10-08 19:10:48
p2333
tp2334
a(V26^3
p2335
V2015-10-08 19:10:58
p2336
tp2337
a(V25^3
p2338
V2015-10-08 19:11:10
p2339
tp2340
a(V4*26^4
p2341
V2015-10-08 19:16:56
p2342
tp2343
assVachinn
p2344
(dp2345
g3
(lp2346
V26^6-25^6
p2347
aV2015-10-06 19:54:58
p2348
asg7
(lp2349
V25^6
p2350
aV2015-10-06 19:35:35
p2351
asg11
(lp2352
V26^6
p2353
aV2015-10-06 19:35:35
p2354
asg15
(lp2355
(V26^5
p2356
V2015-10-06 19:35:35
p2357
tp2358
a(V25^5
p2359
V2015-10-06 19:37:06
p2360
tp2361
assVkalang
p2362
(dp2363
g3
(lp2364
V26^6-25^6
p2365
aV2015-10-05 23:07:55
p2366
asg7
(lp2367
V25^6
p2368
aV2015-10-05 22:50:14
p2369
asg11
(lp2370
V26^6
p2371
aV2015-10-05 22:50:05
p2372
asg15
(lp2373
(V25^5
p2374
V2015-10-05 22:50:30
p2375
tp2376
a(V25^6
p2377
V2015-10-05 22:50:37
p2378
tp2379
a(V26^5
p2380
V2015-10-05 22:51:12
p2381
tp2382
a(V6*26^5
p2383
V2015-10-05 23:03:34
p2384
tp2385
a(V6*26^6
p2386
V2015-10-05 23:05:21
p2387
tp2388
a(V26^5
p2389
V2015-10-05 23:06:47
p2390
tp2391
assVmsaguiar
p2392
(dp2393
g3
(lp2394
V26^3-25^3
p2395
aV2015-10-06 04:42:13
p2396
asg7
(lp2397
V25^3
p2398
aV2015-10-06 04:32:43
p2399
asg11
(lp2400
V26^3
p2401
aV2015-10-06 04:32:43
p2402
asg15
(lp2403
(V26*26
p2404
V2015-10-06 04:32:43
p2405
tp2406
a(V3(26*26)
p2407
V2015-10-06 04:33:10
p2408
tp2409
a(V3(1*26*26)
p2410
V2015-10-06 04:38:03
p2411
tp2412
a(V1*26*26
p2413
V2015-10-06 04:39:20
p2414
tp2415
assVaalhaida
p2416
(dp2417
g3
(lp2418
V(26^6)-(25^6)
p2419
aV2015-10-08 12:57:12
p2420
asg7
(lp2421
V25^6
p2422
aV2015-10-08 12:38:07
p2423
asg11
(lp2424
V26^6
p2425
aV2015-10-08 12:38:07
p2426
asg15
(lp2427
(V6*(26^5)
p2428
V2015-10-08 12:38:07
p2429
tp2430
assVhah008
p2431
(dp2432
g3
(lp2433
V26^6- 25^6
p2434
aV2015-10-08 19:44:15
p2435
asg7
(lp2436
V25^6
p2437
aV2015-10-07 23:41:30
p2438
asg11
(lp2439
V26^6
p2440
aV2015-10-08 07:10:44
p2441
asg15
(lp2442
(V26^6
p2443
V2015-10-08 07:11:53
p2444
tp2445
a(V26^5
p2446
V2015-10-08 07:25:05
p2447
tp2448
a(V(26^4)
p2449
V2015-10-08 19:38:30
p2450
tp2451
a(V25^4
p2452
V2015-10-08 19:39:16
p2453
tp2454
a(V26^5
p2455
V2015-10-08 19:39:39
p2456
tp2457
assVajabasa
p2458
(dp2459
g3
(lp2460
V26^4-25^4
p2461
aV2015-10-05 21:37:13
p2462
asg7
(lp2463
V25^4
p2464
aV2015-10-05 21:35:19
p2465
asg11
(lp2466
V26^4
p2467
aV2015-10-05 21:34:18
p2468
asg15
(lp2469
(V26^3
p2470
V2015-10-05 21:35:31
p2471
tp2472
assVjnn015
p2473
(dp2474
g3
(lp2475
V6*25^5 + 6*5*25^4/2! + 6 * 5 * 4 * 25^3/3! + 6*5*4*3 *25^2/4! + 6* 5 * 4 * 3 *2*25/5! + 1
p2476
aV2015-10-03 22:26:25
p2477
asg7
(lp2478
V25^6
p2479
aV2015-10-03 21:43:37
p2480
asg11
(lp2481
V26^6
p2482
aV2015-10-03 21:43:03
p2483
asg15
(lp2484
(V1 + 6*25^5 + 6!/2! * 25^4 + 6!/3!*25^3 + 6!/4!*25^2 +6!/5! *25
p2485
V2015-10-03 22:02:02
p2486
tp2487
a(V1 + 6!*25^5 + 6!/2! * 25^4 + 6!/3!*25^3 + 6!/4!*25^2 +6!/5! *25
p2488
V2015-10-03 22:03:37
p2489
tp2490
a(V6*25^5 + 6*5*25^4 + 6 * 5 * 4 * 25^3 + 6*5*4*3 *25^2 + 6* 5 * 4 * 3 *2*25 + 1
p2491
V2015-10-03 22:24:46
p2492
tp2493
assVdpereira
p2494
(dp2495
g3
(lp2496
V26^4 - 25^4
p2497
aV2015-10-03 21:29:26
p2498
asg7
(lp2499
V25^4
p2500
aV2015-10-03 21:16:31
p2501
asg11
(lp2502
V26^4
p2503
aV2015-10-03 21:16:31
p2504
asg15
(lp2505
(V26^3
p2506
V2015-10-03 21:16:31
p2507
tp2508
a(V25*26*26*26*4
p2509
V2015-10-03 21:18:39
p2510
tp2511
assVhmshah
p2512
(dp2513
g3
(lp2514
V(26*26*26*26)-(25*25*25*25)
p2515
aV2015-10-08 22:08:17
p2516
asg7
(lp2517
V25*25*25*25
p2518
aV2015-10-06 02:11:27
p2519
asg11
(lp2520
V26*26*26*26
p2521
aV2015-10-06 02:10:55
p2522
asg15
(lp2523
(V26*26*26
p2524
V2015-10-06 02:11:27
p2525
tp2526
a(V26*26*26*4
p2527
V2015-10-06 02:11:42
p2528
tp2529
a(V26*26*26
p2530
V2015-10-06 02:23:57
p2531
tp2532
assVhaliew
p2533
(dp2534
g3
(lp2535
V26^5-25^5
p2536
aV2015-10-06 05:20:11
p2537
asg7
(lp2538
V25^5
p2539
aV2015-10-06 05:07:20
p2540
asg11
(lp2541
V26^5
p2542
aV2015-10-06 05:07:20
p2543
asg15
(lp2544
(V26^5
p2545
V2015-10-06 05:07:20
p2546
tp2547
a(V25^5 +((26^5/2))
p2548
V2015-10-06 05:19:00
p2549
tp2550
a(V25^5 +((26^5/26))
p2551
V2015-10-06 05:19:17
p2552
tp2553
assVmtrafeca
p2554
(dp2555
g3
(lp2556
V(26^5)-25^5
p2557
aV2015-10-02 18:28:46
p2558
asg7
(lp2559
V25^5
p2560
aV2015-10-02 06:43:01
p2561
asg11
(lp2562
V26^5
p2563
aV2015-10-02 06:16:49
p2564
asg15
(lp2565
(V4!
p2566
V2015-10-02 06:44:02
p2567
tp2568
assVkquong
p2569
(dp2570
g3
(lp2571
V26^6-25^6
p2572
aV2015-10-03 21:41:04
p2573
asg7
(lp2574
V25^6
p2575
aV2015-10-03 21:30:47
p2576
asg11
(lp2577
V26^6
p2578
aV2015-10-03 21:30:30
p2579
asg15
(lp2580
(V26^5*26
p2581
V2015-10-03 21:31:06
p2582
tp2583
a(V25^5*26
p2584
V2015-10-03 21:31:16
p2585
tp2586
assVvasharma
p2587
(dp2588
g3
(lp2589
V26*26*26*26-25*25*25*25
p2590
aV2015-10-05 06:50:53
p2591
asg7
(lp2592
V25*25*25*25
p2593
aV2015-10-05 06:45:24
p2594
asg11
(lp2595
V26*26*26*26
p2596
aV2015-10-05 06:45:09
p2597
asg15
(lp2598
(V4*24*24*24*24
p2599
V2015-10-05 06:46:04
p2600
tp2601
a(V4*1*24*24*24
p2602
V2015-10-05 06:46:17
p2603
tp2604
a(V(24*24*24)(24*24*24)(24*24*24)(24*24*24)
p2605
V2015-10-05 06:46:37
p2606
tp2607
a(V4*(26*26*26)
p2608
V2015-10-05 06:49:04
p2609
tp2610
assVhpc001
p2611
(dp2612
g3
(lp2613
V26^6 - 25^6
p2614
aV2015-10-03 00:23:16
p2615
asg7
(lp2616
V25^6
p2617
aV2015-10-03 00:18:57
p2618
asg11
(lp2619
V26^6
p2620
aV2015-10-03 00:18:57
p2621
asg15
(lp2622
(V26^5
p2623
V2015-10-03 00:18:57
p2624
tp2625
a(V26^6
p2626
V2015-10-03 00:21:57
p2627
tp2628
assVsyip
p2629
(dp2630
g3
(lp2631
V26^3 - 25^3
p2632
aV2015-10-03 20:22:46
p2633
asg7
(lp2634
V25^3
p2635
aV2015-10-03 20:18:50
p2636
asg11
(lp2637
V26^3
p2638
aV2015-10-03 20:18:50
p2639
asg15
(lp2640
(V3*26^2
p2641
V2015-10-03 20:18:50
p2642
tp2643
a(V3*26^2 - 3
p2644
V2015-10-03 20:20:14
p2645
tp2646
assVxweng
p2647
(dp2648
g3
(lp2649
V26^4-25^4
p2650
aV2015-10-07 07:07:25
p2651
asg7
(lp2652
V25^4
p2653
aV2015-10-07 07:05:43
p2654
asg11
(lp2655
V26^4
p2656
aV2015-10-07 07:05:23
p2657
asg15
(lp2658
(V3*26^3
p2659
V2015-10-07 07:06:26
p2660
tp2661
assVyypan
p2662
(dp2663
g3
(lp2664
V26^5-25^5
p2665
aV2015-10-02 05:17:05
p2666
asg7
(lp2667
V25^5
p2668
aV2015-10-02 05:05:07
p2669
asg11
(lp2670
V26^5
p2671
aV2015-10-02 05:04:37
p2672
asg15
(lp2673
(V25*26
p2674
V2015-10-02 05:08:39
p2675
tp2676
a(V25*26^4
p2677
V2015-10-02 05:09:02
p2678
tp2679
a(V5*25*26^4
p2680
V2015-10-02 05:10:43
p2681
tp2682
assVajvanega
p2683
(dp2684
g3
(lp2685
V(26^6)-(25^6)
p2686
aV2015-10-08 02:46:32
p2687
asg7
(lp2688
V25^6
p2689
aV2015-10-07 23:52:15
p2690
asg11
(lp2691
V26^6
p2692
aV2015-10-07 23:43:09
p2693
asg15
(lp2694
(V25^6
p2695
V2015-10-07 23:53:15
p2696
tp2697
a(V27^6
p2698
V2015-10-07 23:53:27
p2699
tp2700
a(V25^5
p2701
V2015-10-07 23:54:08
p2702
tp2703
a(V26^5
p2704
V2015-10-07 23:54:18
p2705
tp2706
a(V(25^5)26
p2707
V2015-10-08 00:00:32
p2708
tp2709
a(V26^5
p2710
V2015-10-08 00:01:53
p2711
tp2712
a(V25^5
p2713
V2015-10-08 00:03:11
p2714
tp2715
assVjmiclat
p2716
(dp2717
g3
(lp2718
V26^5-25^5
p2719
aV2015-10-08 21:05:53
p2720
asg7
(lp2721
V25^5
p2722
aV2015-10-08 09:01:23
p2723
asg11
(lp2724
V26^5
p2725
aV2015-10-08 09:01:23
p2726
asg15
(lp2727
(V26*25*25*25*25*25
p2728
V2015-10-08 09:02:30
p2729
tp2730
a(V26*25*25*25*25
p2731
V2015-10-08 09:02:38
p2732
tp2733
a(V5*26^4
p2734
V2015-10-08 20:10:03
p2735
tp2736
a(V5*26*25*24*23
p2737
V2015-10-08 20:22:15
p2738
tp2739
a(V5(26^4)
p2740
V2015-10-08 20:26:28
p2741
tp2742
assVsthapa
p2743
(dp2744
g3
(lp2745
V26^5 - 25^5
p2746
aV2015-10-06 06:58:38
p2747
asg7
(lp2748
V25^5
p2749
aV2015-10-06 06:55:00
p2750
asg11
(lp2751
V26^5
p2752
aV2015-10-06 06:54:40
p2753
asg15
(lp2754
(V25^5 + 1
p2755
V2015-10-06 06:55:52
p2756
tp2757
assVkosung
p2758
(dp2759
g3
(lp2760
V26^5 - 25^5
p2761
aV2015-10-07 06:31:35
p2762
asg7
(lp2763
V25^5
p2764
aV2015-10-07 06:26:28
p2765
asg11
(lp2766
V26^5
p2767
aV2015-10-07 06:25:51
p2768
asg15
(lp2769
(V26^4
p2770
V2015-10-07 06:26:28
p2771
tp2772
assVj2phung
p2773
(dp2774
g3
(lp2775
V26^6-25^6
p2776
aV2015-10-06 19:44:57
p2777
asg7
(lp2778
V25^6
p2779
aV2015-10-06 19:19:09
p2780
asg11
(lp2781
V26^6
p2782
aV2015-10-06 19:16:32
p2783
asg15
(lp2784
(V26^5
p2785
V2015-10-06 19:19:09
p2786
tp2787
a(V(26^5)+(26^4)+(26^3)+(26^2)+(26^1)+(26^0)
p2788
V2015-10-06 19:32:31
p2789
tp2790
a(V25^5 + 25^4 +25^3 + 25^2 + 25^1 + 21^0
p2791
V2015-10-06 19:40:11
p2792
tp2793
ass.