(dp0
V1
p1
ccollections
defaultdict
p2
(c__builtin__
list
p3
tp4
Rp5
S'Nothing'
p6
(lp7
V16
p8
aV134
p9
aV13
p10
aV16
p11
aV1
p12
aV4/52
p13
aV13
p14
aV1
p15
aV16
p16
aV16
p17
aV13
p18
aV4/52
p19
assV2
p20
g2
(g3
tp21
Rp22
g6
(lp23
V16/52
p24
aV1/52
p25
aV4/24
p26
aV5/52
p27
aV13/52
p28
aV1/12
p29
aV5/52
p30
aV1/52
p31
aV13/52
p32
aV0.076
p33
aV4/54
p34
aV16/52
p35
aV16/52
p36
aV1/52
p37
aV52/4
p38
aV1/52
p39
aV4!/52/51/50/49
p40
aV1/52
p41
aV13/52
p42
ass.