(dp0
V1
p1
ccollections
defaultdict
p2
(c__builtin__
list
p3
tp4
Rp5
S'Digits'
p6
(lp7
(V12
p8
V7
p9
tp10
a(V18
p11
V8
p12
tp13
a(V11
p14
V1
p15
tp16
a(V10
p17
V5
p18
tp19
a(V20
p20
V7
p21
tp22
a(g20
V1
p23
tp24
a(V13
p25
V7
p26
tp27
a(V10
p28
V7
p29
tp30
a(g28
V1,2,3,4,5,6,7
p31
tp32
a(V18
p33
V2
p34
tp35
a(V13
p36
V7
p37
tp38
a(V15
p39
V1,2,3,4,5,6,7,8,9,10
p40
tp41
a(g39
V10
p42
tp43
a(V17
p44
V7
p45
tp46
a(V10
p47
V7
p48
tp49
a(V10
p50
V9
p51
tp52
a(V19
p53
V9
p54
tp55
a(V18
p56
V12
p57
tp58
a(V19
p59
V11
p60
tp61
a(V19
p62
V6
p63
tp64
a(V10
p65
V6
p66
tp67
a(V10
p68
V7
p69
tp70
a(V11
p71
V6
p72
tp73
a(V11
p74
V5
p75
tp76
a(g74
V1
p77
tp78
a(V10
p79
V5
p80
tp81
a(g79
V1,2,3,4,5
p82
tp83
a(g79
V5
p84
tp85
a(g79
V4
p86
tp87
a(g79
V6
p88
tp89
a(g79
V5
p90
tp91
a(V19
p92
V12
p93
tp94
a(V14
p95
V1,2,3,4,5,6,7,8
p96
tp97
a(V14
p98
V12
p99
tp100
a(g98
V2
p101
tp102
a(g98
V11
p103
tp104
a(V14
p105
V10
p106
tp107
a(V18
p108
V17
p109
tp110
a(g108
V17
p111
tp112
a(g108
V1
p113
tp114
a(V16
p115
V9
p116
tp117
a(g115
V9
p118
tp119
a(g115
V1,2,3,4,5,6,7,8,9
p120
tp121
a(V12
p122
V9
p123
tp124
a(V16
p125
V10
p126
tp127
a(V13
p128
V11
p129
tp130
a(g128
V10
p131
tp132
a(V19
p133
V14
p134
tp135
a(V18
p136
V16
p137
tp138
a(V18
p139
V15
p140
tp141
a(V10
p142
V7
p143
tp144
a(V12
p145
V8
p146
tp147
a(g145
V1,2,3,4,5,6,7,8
p148
tp149
a(V20
p150
V15
p151
tp152
a(V15
p153
V11
p154
tp155
a(V20
p156
V11
p157
tp158
a(V12
p159
V10
p160
tp161
a(V11
p162
V5
p163
tp164
a(g162
V1,2,3,4,5
p165
tp166
a(V20
p167
V16
p168
tp169
a(V18
p170
V15
p171
tp172
a(V14
p173
V11
p174
tp175
a(V16
p176
V9
p177
tp178
a(g176
V1
p179
tp180
a(V11
p181
V5
p182
tp183
a(g181
V1,2,3,4,5
p184
tp185
a(g181
V5
p186
tp187
a(g181
V1
p188
tp189
a(V20
p190
V10
p191
tp192
a(V19
p193
V5
p194
tp195
a(V14
p196
V3
p197
tp198
a(g196
V12
p199
tp200
a(V11
p201
V1,2,3,4,5,6,7,8,9
p202
tp203
a(g201
V9
p204
tp205
a(V13
p206
V9
p207
tp208
a(V14
p209
V13
p210
tp211
a(V18
p212
V10
p213
tp214
a(V19
p215
V14
p216
tp217
a(V10
p218
V1,2,3,4,5,6,7,8,9,10
p219
tp220
a(g218
V1,2,3,4,5,6,7,8
p221
tp222
a(g218
V8
p223
tp224
a(V11
p225
V1,2,3,4,5,6,7,8,9,10,11
p226
tp227
a(V17
p228
V9
p229
tp230
a(V15
p231
V12
p232
tp233
a(V16
p234
V1
p235
tp236
a(V12
p237
V1
p238
tp239
a(V18
p240
V7
p241
tp242
a(g240
V6
p243
tp244
a(V11
p245
V7
p246
tp247
a(V10
p248
V8
p249
tp250
a(g248
V7
p251
tp252
a(V16
p253
V1,2,3,4,5,6,7,8,9,10,11,12,13
p254
tp255
a(g253
V13
p256
tp257
a(V20
p258
V17
p259
tp260
a(g258
V1
p261
tp262
a(V16
p263
V9
p264
tp265
asS'Fraction'
p266
(lp267
(V19
p268
V5/19
p269
tp270
a(g20
V.35
p271
tp272
a(g28
V7/10
p273
tp274
a(V19
p275
V7/19
p276
tp277
a(V19
p278
V17/19
p279
tp280
a(g98
V12/14
p281
tp282
a(g98
V6/7
p283
tp284
a(g115
V(9)/(16)
p285
tp286
a(g115
V9/16
p287
tp288
a(g115
V1/9
p289
tp290
a(g115
V9/16
p291
tp292
a(V12
p293
V9/12
p294
tp295
a(g209
V13/14
p296
tp297
a(g212
V1/18
p298
tp299
a(g215
V14/19
p300
tp301
a(g240
V7/18
p302
tp303
a(g248
V8/10
p304
tp305
a(V16
p306
V12/16
p307
tp308
assV3
p309
g2
(g3
tp310
Rp311
S"['R.1']"
p312
(lp313
(V5/12
p314
V7/12
p315
(lp316
(S'R.1'
p317
F12.0
V12
p318
V12
p319
tp320
atp321
a(V5/14
p322
V1/14
p323
(lp324
(S'R.1'
p325
F14.0
V14
p326
V14
p327
tp328
atp329
a(V7/20
p330
V6/20
p331
(lp332
(S'R.1'
p333
F20.0
V20
p334
V20
p335
tp336
atp337
a(V10/20
p338
V1/20
p339
(lp340
(S'R.1'
p341
F20.0
V20
p342
V20
p343
tp344
atp345
a(V5/15
p346
V1/15
p347
(lp348
(S'R.1'
p349
F15.0
V15
p350
V15
p351
tp352
atp353
a(V7/17
p354
V1/17
p355
(lp356
(S'R.1'
p357
F17.0
V17
p358
V17
p359
tp360
atp361
a(V6/18
p362
V1/18
p363
(lp364
(S'R.1'
p365
F18.0
V18
p366
V18
p367
tp368
atp369
a(V8/17
p370
V1/17
p371
(lp372
(S'R.1'
p373
F17.0
V17
p374
V17
p375
tp376
atp377
a(V11/12
p378
V1/12
p379
(lp380
(S'R.1'
p381
F12.0
V12
p382
V12
p383
tp384
atp385
a(V9/12
p386
V1/12
p387
(lp388
(S'R.1'
p389
F12.0
V12
p390
V12
p391
tp392
atp393
a(V12/13
p394
V1/13
p395
(lp396
(S'R.1'
p397
F13.0
V13
p398
V13
p399
tp400
atp401
a(V14/19
p402
V1/19
p403
(lp404
(S'R.1'
p405
F19.0
V19
p406
V19
p407
tp408
atp409
a(V14/20
p410
V1/20
p411
(lp412
(S'R.1'
p413
F20.0
V20
p414
V20
p415
tp416
atp417
a(V12/14
p418
V3/14
p419
(lp420
(S'R.1'
p421
F14.0
V14
p422
V14
p423
tp424
atp425
a(V10/12
p426
V1/12
p427
(lp428
(S'R.1'
p429
F12.0
V12
p430
V12
p431
tp432
atp433
a(V18/20
p434
V1/20
p435
(lp436
(S'R.1'
p437
F20.0
V20
p438
V20
p439
tp440
atp441
a(V8/16
p442
V7/16
p443
(lp444
(S'R.1'
p445
F16.0
V16
p446
V16
p447
tp448
atp449
asg6
(lp450
(V10/10
p451
V10
p452
tp453
a(g386
V1
p454
tp455
a(V17/20
p456
V17
p457
tp458
asg266
(lp459
(V15/15
p460
V1/15
p461
tp462
a(V13/13
p463
V1/13
p464
tp465
a(g451
V1/10
p466
tp467
a(g451
V10/(10+9+8+7+6+5+4+3+2+1)
p468
tp469
a(V19/19
p470
V18/19
p471
tp472
asS'redirect'
p473
(lp474
(V11/12
p475
V1/11
p476
(lp477
(lp478
S'/'
p479
aF0.09090909090909091
a(lp480
I0
aI3
aaS'R'
p481
aa(lp482
S'X'
p483
aF1.0
a(lp484
I0
aI0
aaS'R.0'
p485
aa(lp486
g483
aF11.0
a(lp487
I2
aI3
aaS'R.1'
p488
aaVjhw015
p489
(lp490
(V$R1
p491
V12
p492
tp493
a(V$R2
p494
V11
p495
tp496
a(V$R1
p497
V12
p498
tp499
a(V$R2
p500
V11
p501
tp502
aV2015-10-04 02:30:47
p503
tp504
a(V13/14
p505
V6/7
p506
(lp507
(lp508
g479
aF0.8571428571428571
a(lp509
I0
aI2
aag481
aa(lp510
g483
aF6.0
a(lp511
I0
aI0
aaS'R.0'
p512
aa(lp513
g483
aF7.0
a(lp514
I2
aI2
aaS'R.1'
p515
aaVatorr
p516
(lp517
(V$R1
p518
V14
p519
tp520
a(V$R2
p521
V13
p522
tp523
a(V$R1
p524
V14
p525
tp526
a(V$R2
p527
V13
p528
tp529
aV2015-10-05 05:53:34
p530
tp531
a(V9/12
p532
V2/3
p533
(lp534
(lp535
g479
aF0.6666666666666666
a(lp536
I0
aI2
aag481
aa(lp537
g483
aF2.0
a(lp538
I0
aI0
aaS'R.0'
p539
aa(lp540
g483
aF3.0
a(lp541
I2
aI2
aaS'R.1'
p542
aaVhak014
p543
(lp544
(V$R1
p545
V12
p546
tp547
a(V$R2
p548
V9
p549
tp550
a(V$R1
p551
V12
p552
tp553
a(V$R2
p554
V9
p555
tp556
aV2015-10-05 18:07:06
p557
tp558
a(V16/18
p559
V1/16
p560
(lp561
(lp562
g479
aF0.0625
a(lp563
I0
aI3
aag481
aa(lp564
g483
aF1.0
a(lp565
I0
aI0
aaS'R.0'
p566
aa(lp567
g483
aF16.0
a(lp568
I2
aI3
aaS'R.1'
p569
aaVaportuga
p570
(lp571
(V$R1
p572
V18
p573
tp574
a(V$R2
p575
V16
p576
tp577
a(V$R1
p578
V18
p579
tp580
a(V$R2
p581
V16
p582
tp583
aV2015-10-06 05:35:09
p584
tp585
a(V12/14
p586
V3/6
p587
(lp588
(lp589
g479
aF0.5
a(lp590
I0
aI2
aag481
aa(lp591
g483
aF3.0
a(lp592
I0
aI0
aaS'R.0'
p593
aa(lp594
g483
aF6.0
a(lp595
I2
aI2
aaS'R.1'
p596
aaVwhcombs
p597
(lp598
(V$R1
p599
V14
p600
tp601
a(V$R2
p602
V12
p603
tp604
a(V$R1
p605
V14
p606
tp607
a(V$R2
p608
V12
p609
tp610
aV2015-10-07 18:42:39
p611
tp612
a(V8/18
p613
V1/2
p614
(lp615
(lp616
g479
aF0.5
a(lp617
I0
aI2
aag481
aa(lp618
g483
aF1.0
a(lp619
I0
aI0
aaS'R.0'
p620
aa(lp621
g483
aF2.0
a(lp622
I2
aI2
aaS'R.1'
p623
aaVmnrahman
p624
(lp625
(V$R1
p626
V18
p627
tp628
a(V$R2
p629
V8
p630
tp631
a(V$R1
p632
V18
p633
tp634
a(V$R2
p635
V8
p636
tp637
aV2015-10-08 03:37:23
p638
tp639
a(g402
V1/14
p640
(lp641
(lp642
g479
aF0.07142857142857142
a(lp643
I0
aI3
aag481
aa(lp644
g483
aF1.0
a(lp645
I0
aI0
aaS'R.0'
p646
aa(lp647
g483
aF14.0
a(lp648
I2
aI3
aaS'R.1'
p649
aaVzhw110
p650
(lp651
(V$R1
p652
V19
p653
tp654
a(V$R2
p655
V14
p656
tp657
a(V$R1
p658
V19
p659
tp660
a(V$R2
p661
V14
p662
tp663
aV2015-10-08 04:12:00
p664
tp665
a(V11/13
p666
V1/10
p667
(lp668
(lp669
g479
aF0.1
a(lp670
I0
aI3
aag481
aa(lp671
g483
aF1.0
a(lp672
I0
aI0
aaS'R.0'
p673
aa(lp674
g483
aF10.0
a(lp675
I2
aI3
aaS'R.1'
p676
aaVagarango
p677
(lp678
(V$R1
p679
V13
p680
tp681
a(V$R2
p682
V11
p683
tp684
a(V$R1
p685
V13
p686
tp687
a(V$R2
p688
V11
p689
tp690
aV2015-10-08 19:54:10
p691
tp692
a(V8/10
p693
V(1*10)^8
p694
(lp695
(lp696
S'^'
p697
aF100000000.0
a(lp698
I0
aI7
aag481
aa(lp699
(lp700
S'*'
p701
aF10.0
a(lp702
I1
aI4
aaS'R.0'
p703
aa(lp704
g483
aF1.0
a(lp705
I1
aI1
aaS'R.0.0'
p706
aa(lp707
g483
aF10.0
a(lp708
I3
aI4
aaS'R.0.1'
p709
aaa(lp710
g483
aF8.0
a(lp711
I7
aI7
aaS'R.1'
p712
aaVdgunawan
p713
(lp714
(V$R1
p715
V10
p716
tp717
a(V$R2
p718
V8
p719
tp720
a(V$R1
p721
V10
p722
tp723
a(V$R2
p724
V8
p725
tp726
aV2015-10-08 23:22:46
p727
tp728
assV2
p729
g2
(g3
tp730
Rp731
g6
(lp732
(V6
p733
V16
p734
tp735
a(g733
V15
p736
tp737
a(V5
p738
V12
p739
tp740
a(V8
p741
V18
p742
tp743
a(V5
p744
V14
p745
tp746
a(V7
p747
V6
p748
tp749
a(V10
p750
V20
p751
tp752
a(V5
p753
V15
p754
tp755
a(V7
p756
V10
p757
tp758
a(g756
V1,2,3,4,5,6,7,8,9,10
p759
tp760
a(V16
p761
V18
p762
tp763
a(g761
V3
p764
tp765
a(V11
p766
V1
p767
tp768
a(V7
p769
V17
p770
tp771
a(V7
p772
V10
p773
tp774
a(V8
p775
V13
p776
tp777
a(V7
p778
V17
p779
tp780
a(V11
p781
V19
p782
tp783
a(V11
p784
V12
p785
tp786
a(V6
p787
V19
p788
tp789
a(V6
p790
V17
p791
tp792
a(V6
p793
V19
p794
tp795
a(V7
p796
V10
p797
tp798
a(V8
p799
V17
p800
tp801
a(V12
p802
V19
p803
tp804
a(V12
p805
V14
p806
tp807
a(g805
V1
p808
tp809
a(g805
V14
p810
tp811
a(V13
p812
V12
p813
tp814
a(V7
p815
V20
p816
tp817
a(V10
p818
V16
p819
tp820
a(V12
p821
V14
p822
tp823
a(V16
p824
V17
p825
tp826
a(V11
p827
V12
p828
tp829
a(V10
p830
V1
p831
tp832
a(V15
p833
V18
p834
tp835
a(V16
p836
V19
p837
tp838
a(V12
p839
V37
p840
tp841
a(V15
p842
V20
p843
tp844
a(V9
p845
V12
p846
tp847
a(g845
V1
p848
tp849
a(V12
p850
V13
p851
tp852
a(V12
p853
V6
p854
tp855
a(g853
V14
p856
tp857
a(V15
p858
V17
p859
tp860
a(V7
p861
V20
p862
tp863
a(V11
p864
V20
p865
tp866
a(V8
p867
V18
p868
tp869
a(g867
V5
p870
tp871
a(g867
V9
p872
tp873
a(V14
p874
V20
p875
tp876
a(V17
p877
V20
p878
tp879
a(V8
p880
V10
p881
tp882
a(V12
p883
V14
p884
tp885
a(V8
p886
V15
p887
tp888
a(V9
p889
V13
p890
tp891
a(V10
p892
V12
p893
tp894
a(V7
p895
V11
p896
tp897
a(V12
p898
V15
p899
tp900
a(V18
p901
V20
p902
tp903
a(V11
p904
V10
p905
tp906
a(V5
p907
V16
p908
tp909
a(g907
V16
p910
tp911
a(V8
p912
V7
p913
tp914
a(V8
p915
V10
p916
tp917
asg266
(lp918
(g778
V1/17
p919
tp920
a(V9
p921
V9/19
p922
tp923
a(g845
V1/12
p924
tp925
a(g858
V1/17
p926
tp927
a(g907
V1/16
p928
tp929
ass.