(dp0
V1
p1
ccollections
defaultdict
p2
(c__builtin__
list
p3
tp4
Rp5
S'Digits'
p6
(lp7
(V6
p8
V9
p9
S'digit'
p10
tp11
a(V6
p12
V27
p13
g10
tp14
a(g12
V3
p15
g10
tp16
a(V6
p17
V3
p18
g10
tp19
a(V6
p20
V9
p21
g10
tp22
a(V6
p23
V3
p24
g10
tp25
a(g23
V9
p26
g10
tp27
a(g23
V4
p28
g10
tp29
a(g23
V5
p30
g10
tp31
a(V6
p32
V9
p33
g10
tp34
a(V6
p35
V3
p36
g10
tp37
a(V6
p38
V9
p39
g10
tp40
a(V6
p41
V9
p42
g10
tp43
a(V6
p44
V3
p45
g10
tp46
a(V6
p47
V27
p48
g10
tp49
a(V6
p50
V27
p51
g10
tp52
a(V6
p53
V9
p54
g10
tp55
a(g53
V8
p56
g10
tp57
a(V6
p58
V9
p59
g10
tp60
a(V6
p61
V3
p62
g10
tp63
a(V6
p64
V9
p65
g10
tp66
a(g64
V27
p67
g10
tp68
a(V6
p69
V8
p70
g10
tp71
a(V6
p72
V9
p73
g10
tp74
a(V6
p75
V9
p76
g10
tp77
a(V6
p78
V5
p79
g10
tp80
a(V6
p81
V540320
p82
g10
tp83
a(g81
V5
p84
g10
tp85
a(V6
p86
V12
p87
g10
tp88
a(V6
p89
V9
p90
g10
tp91
a(g89
V9
p92
g10
tp93
a(g89
V5
p94
g10
tp95
a(V6
p96
V4
p97
g10
tp98
a(g96
V5
p99
g10
tp100
asS'Nothing'
p101
(lp102
(g12
V3*2*1/2*1
p103
(lp104
(lp105
S'*'
p106
aF3.0
a(lp107
I0
aI8
aaS'R'
p108
aa(lp109
(lp110
S'/'
p111
aF3.0
a(lp112
I0
aI6
aaS'R.0'
p113
aa(lp114
(lp115
g106
aF6.0
a(lp116
I0
aI4
aaS'R.0.0'
p117
aa(lp118
(lp119
g106
aF6.0
a(lp120
I0
aI2
aaS'R.0.0.0'
p121
aa(lp122
S'X'
p123
aF3.0
a(lp124
I0
aI0
aaS'R.0.0.0.0'
p125
aa(lp126
g123
aF2.0
a(lp127
I2
aI2
aaS'R.0.0.0.1'
p128
aaa(lp129
g123
aF1.0
a(lp130
I4
aI4
aaS'R.0.0.1'
p131
aaa(lp132
g123
aF2.0
a(lp133
I6
aI6
aaS'R.0.1'
p134
aaa(lp135
g123
aF1.0
a(lp136
I8
aI8
aaS'R.1'
p137
aaVsmohiman
p138
tp139
asS'Nothing_clusters'
p140
g2
(g3
tp141
Rp142
S"['R.1']"
p143
(lp144
(V3^3
p145
Vsayao
p146
tp147
a(V2^3
p148
Vdmn009
p149
tp150
a(V3^3
p151
Vtpmach
p152
tp153
a(VP(3,3)
p154
Vdlgoldbe
p155
tp156
asS"['R.0']"
p157
(lp158
(V3!/2!
p159
Vsmohiman
p160
tp161
a(V(3*2*1)/(2*1)
p162
Vsmohiman
p163
tp164
a(V3!2!
p165
Vpcdo
p166
tp167
a(V(3!)/2!
p168
Valhung
p169
tp170
a(V3^2
p171
Vdmn009
p172
tp173
a(VP(3, 3)
p174
Vsyc078
p175
tp176
a(g148
g149
tp177
a(V2^2
p178
Vdmn009
p179
tp180
asS"['R']"
p181
(lp182
(g145
g146
tp183
a(g151
g152
tp184
a(V3*3*3
p185
Vjfalcone
p186
tp187
a(g154
g155
tp188
a(g174
g175
tp189
asssV2
p190
g2
(g3
tp191
Rp192
g6
(lp193
(V362880
p194
V81
p195
g10
tp196
a(V720
p197
V240
p198
g10
tp199
a(V5040
p200
V26880
p201
g10
tp202
a(V40320
p203
V64
p204
g10
tp205
a(V40320
p206
V56
p207
g10
tp208
a(g206
V5040
p209
g10
tp210
a(V120
p211
V3125
p212
g10
tp213
a(V720
p214
V25
p215
g10
tp216
a(g214
V20
p217
g10
tp218
a(g214
V21
p219
g10
tp220
a(g214
V22
p221
g10
tp222
a(g214
V23
p223
g10
tp224
a(g214
V30
p225
g10
tp226
a(g214
V29
p227
g10
tp228
a(g214
V20
p229
g10
tp230
a(g214
V21
p231
g10
tp232
a(g214
V22
p233
g10
tp234
a(g214
V23
p235
g10
tp236
a(g214
V24
p237
g10
tp238
a(g214
V25
p239
g10
tp240
a(V5040
p241
V49
p242
g10
tp243
a(g241
V42
p244
g10
tp245
a(V720
p246
V10368
p247
g10
tp248
a(g246
V1944
p249
g10
tp250
a(V5040
p251
V42
p252
g10
tp253
a(V720
p254
V36
p255
g10
tp256
a(V24
p257
V10
p258
g10
tp259
a(V24
p260
V4
p261
g10
tp262
a(g260
V12
p263
g10
tp264
a(g260
V16
p265
g10
tp266
a(g260
V15
p267
g10
tp268
a(g260
V16
p269
g10
tp270
a(g260
V12
p271
g10
tp272
a(V720
p273
V24883200
p274
g10
tp275
a(V5040
p276
V823543
p277
g10
tp278
a(V120
p279
V720
p280
g10
tp281
asg101
(lp282
(V720
p283
V6**6
p284
(lp285
(lp286
S'^'
p287
aF46656.0
a(lp288
I0
aI3
aag108
aa(lp289
g123
aF6.0
a(lp290
I0
aI0
aaS'R.0'
p291
aa(lp292
g123
aF6.0
a(lp293
I3
aI3
aaS'R.1'
p294
aaVkvass
p295
tp296
a(V40320
p297
V40,320
p298
(F40320.0
tp299
Vwcwhite
p300
tp301
a(V40320
p302
V8^8
p303
(lp304
(lp305
g287
aF16777216.0
a(lp306
I0
aI2
aag108
aa(lp307
g123
aF8.0
a(lp308
I0
aI0
aaS'R.0'
p309
aa(lp310
g123
aF8.0
a(lp311
I2
aI2
aaS'R.1'
p312
aaVjfalcone
p313
tp314
a(V40320
p315
VP(8, 8)
p316
(lp317
(lp318
S'P'
p319
aI1
a(lp320
I0
aI6
aag108
aa(lp321
g123
aF8.0
a(lp322
I2
aI2
aaS'R.0'
p323
aa(lp324
g123
aF8.0
a(lp325
I5
aI5
aaS'R.1'
p326
aaVsyc078
p327
tp328
asg140
g2
(g3
tp329
Rp330
ss.