(dp0
V1
p1
ccollections
defaultdict
p2
(c__builtin__
list
p3
tp4
Rp5
S'Nothing'
p6
(lp7
V16
p8
aV134
p9
aV13
p10
aV16
p11
aV1
p12
aV13
p13
aV1
p14
aV16
p15
aV16
p16
aV13
p17
asS"[('R', 4.0, u'4', u'4')]"
p18
(lp19
V4/52
p20
aV4/52
p21
assV2
p22
g2
(g3
tp23
Rp24
g6
(lp25
V16/52
p26
aV1/52
p27
aV4/24
p28
aV5/52
p29
aV13/52
p30
aV1/12
p31
aV5/52
p32
aV1/52
p33
aV13/52
p34
aV0.076
p35
aV4/54
p36
aV16/52
p37
aV16/52
p38
aV1/52
p39
aV52/4
p40
aV1/52
p41
aV4!/52/51/50/49
p42
aV1/52
p43
aV13/52
p44
ass.