(dp0
V1
p1
ccollections
defaultdict
p2
(c__builtin__
list
p3
tp4
Rp5
S'Digits'
p6
(lp7
(V3*2
p8
V110
p9
S'digit'
p10
tp11
a(V3*2
p12
V9
p13
g10
tp14
a(V3*2
p15
V5
p16
g10
tp17
a(V3*2
p18
V19
p19
g10
tp20
a(g18
V9
p21
g10
tp22
a(V3*2
p23
V12
p24
g10
tp25
a(V3*2
p26
V8
p27
g10
tp28
a(V3*2
p29
V9
p30
g10
tp31
a(V3*2
p32
V8
p33
g10
tp34
a(V3*2
p35
V15
p36
g10
tp37
a(V3*2
p38
V20
p39
g10
tp40
a(V3*2
p41
V8
p42
g10
tp43
a(V3*2
p44
V9
p45
g10
tp46
a(V3*2
p47
V8
p48
g10
tp49
a(V3*2
p50
V8
p51
g10
tp52
a(V3*2
p53
V140
p54
g10
tp55
a(V3*2
p56
V8
p57
g10
tp58
a(V3*2
p59
V8
p60
g10
tp61
a(V3*2
p62
V8
p63
g10
tp64
a(V3*2
p65
V5
p66
g10
tp67
a(V3*2
p68
V9
p69
g10
tp70
a(V3*2
p71
V8
p72
g10
tp73
a(V3*2
p74
V9
p75
g10
tp76
a(V3*2
p77
V12
p78
g10
tp79
asS'Nothing_clusters'
p80
g2
(g3
tp81
Rp82
S"['R.1']"
p83
(lp84
(V1/6
p85
Vhachrist
p86
tp87
a(V5!/3!
p88
Vasp025
p89
tp90
asS"['R.0']"
p91
(lp92
(V5!/(3!*2!)
p93
Vjblynch
p94
tp95
a(g88
g89
tp96
a(V5!/(3!2!)
p97
Vasp025
p98
tp99
asS"['R']"
p100
(lp101
(V5!
p102
Vhachrist
p103
tp104
a(V5!
p105
Vmjethani
p106
tp107
a(g93
g94
tp108
a(g97
g98
tp109
assS"['R.1']"
p110
(lp111
(V3*2
p112
V3!*2!
p113
(lp114
(S'R.1'
p115
F2.0
V2
p116
V2!
p117
tp118
atp119
a(g23
V3!2!
p120
(lp121
(S'R.1'
p122
F2.0
g116
V2!
p123
tp124
atp125
a(V3*2
p126
V3!*2!
p127
(lp128
(S'R.1'
p129
F2.0
g116
V2!
p130
tp131
atp132
a(V3*2
p133
V3!2!
p134
(lp135
(S'R.1'
p136
F2.0
g116
V2!
p137
tp138
atp139
asS"['R.0']"
p140
(lp141
(V3*2
p142
V3*3
p143
(lp144
(S'R.0'
p145
F3.0
V3
p146
g146
tp147
atp148
asS'Nothing'
p149
(lp150
(g133
V7!/5!
p151
(lp152
(lp153
S'/'
p154
aF42.0
a(lp155
I0
aI4
aaS'R'
p156
aa(lp157
(lp158
S'!'
p159
aI5040
a(lp160
I0
aI1
aaS'R.0'
p161
aa(lp162
S'X'
p163
aF7.0
a(lp164
I0
aI0
aaS'R.0.0'
p165
aaa(lp166
(lp167
g159
aI120
a(lp168
I3
aI4
aaS'R.1'
p169
aa(lp170
g163
aF5.0
a(lp171
I3
aI3
aaS'R.1.0'
p172
aaaVasp025
p173
tp174
asS"['R']"
p175
(lp176
(V3*2
p177
VC(3,1)*C(2,1)
p178
(lp179
(g156
F6.0
g177
g178
tp180
atp181
assV2
p182
g2
(g3
tp183
Rp184
g6
(lp185
(V13*2*3
p186
V39
p187
g10
tp188
a(V14*2*4
p189
V96
p190
g10
tp191
a(V13*2*2
p192
V60
p193
g10
tp194
a(V11*2*4
p195
V44
p196
g10
tp197
a(V12*2*3
p198
V73
p199
g10
tp200
a(V11*2*4
p201
V8
p202
g10
tp203
a(g201
V44
p204
g10
tp205
a(V13*2*4
p206
V16
p207
g10
tp208
a(g206
V52
p209
g10
tp210
a(V11*2*2
p211
V22
p212
g10
tp213
a(V13*2*2
p214
V338
p215
g10
tp216
a(V12*2*4
p217
V192
p218
g10
tp219
a(g217
V48
p220
g10
tp221
a(V14*2*5
p222
V120
p223
g10
tp224
a(V10*2*3
p225
V50
p226
g10
tp227
a(V11*2*3
p228
V1294920
p229
g10
tp230
a(g228
V26235
p231
g10
tp232
a(g228
V88
p233
g10
tp234
a(g228
V72
p235
g10
tp236
a(V12*2*2
p237
V24
p238
g10
tp239
a(V12*2*2
p240
V24
p241
g10
tp242
a(V14*2*4
p243
V84
p244
g10
tp245
a(V10*2*5
p246
V500
p247
g10
tp248
a(g246
V200
p249
g10
tp250
a(V11*2*2
p251
V22
p252
g10
tp253
a(V13*2*3
p254
V58
p255
g10
tp256
a(V10*2*5
p257
V50
p258
g10
tp259
a(V10*2*3
p260
V30
p261
g10
tp262
a(V13*2*2
p263
V26
p264
g10
tp265
a(V13*2*2
p266
V26
p267
g10
tp268
a(V14*2*3
p269
V56
p270
g10
tp271
a(V12*2*2
p272
V24
p273
g10
tp274
a(V14*2*3
p275
V96
p276
g10
tp277
a(V14*2*2
p278
V48
p279
g10
tp280
asg149
(lp281
(V10*2*3
p282
V3*100
p283
(lp284
(lp285
S'*'
p286
aF300.0
a(lp287
I0
aI4
aag156
aa(lp288
g163
aF3.0
a(lp289
I0
aI0
aaS'R.0'
p290
aa(lp291
g163
aF100.0
a(lp292
I2
aI4
aaS'R.1'
p293
aaVdaw023
p294
tp295
a(g282
V3*10*3*10
p296
(lp297
(lp298
g286
aF900.0
a(lp299
I0
aI8
aag156
aa(lp300
(lp301
g286
aF90.0
a(lp302
I0
aI5
aaS'R.0'
p303
aa(lp304
(lp305
g286
aF30.0
a(lp306
I0
aI3
aaS'R.0.0'
p307
aa(lp308
g163
aF3.0
a(lp309
I0
aI0
aaS'R.0.0.0'
p310
aa(lp311
g163
aF10.0
a(lp312
I2
aI3
aaS'R.0.0.1'
p313
aaa(lp314
g163
aF3.0
a(lp315
I5
aI5
aaS'R.0.1'
p316
aaa(lp317
g163
aF10.0
a(lp318
I7
aI8
aaS'R.1'
p319
aaVdaw023
p320
tp321
a(V10*2*4
p322
V10*4^2
p323
(lp324
(lp325
g286
aF160.0
a(lp326
I0
aI5
aag156
aa(lp327
g163
aF10.0
a(lp328
I0
aI1
aaS'R.0'
p329
aa(lp330
(lp331
S'^'
p332
aF16.0
a(lp333
I3
aI5
aaS'R.1'
p334
aa(lp335
g163
aF4.0
a(lp336
I3
aI3
aaS'R.1.0'
p337
aa(lp338
g163
aF2.0
a(lp339
I5
aI5
aaS'R.1.1'
p340
aaaVdruble
p341
tp342
asS"['R.1']"
p343
(lp344
(V11*2*4
p345
V11*4
p346
(lp347
(S'R.1'
p348
F4.0
V4
p349
g349
tp350
atp351
asg80
g2
(g3
tp352
Rp353
ss.