(dp0
V1
p1
ccollections
defaultdict
p2
(c__builtin__
list
p3
tp4
Rp5
S'Nothing'
p6
(lp7
(V10*26
p8
V10!*26!
p9
tp10
a(V10*26
p11
V130
p12
tp13
a(g11
V10!26!
p14
tp15
a(V10*26
p16
V9*24
p17
tp18
a(V10*26
p19
V234
p20
tp21
a(V10*26
p22
V9!*26!
p23
tp24
a(V10*26
p25
V234
p26
tp27
a(V10*26
p28
V26^10
p29
tp30
a(V10*26
p31
V10!/26!
p32
tp33
a(g31
V10!/17!
p34
tp35
a(V10*26
p36
V243
p37
tp38
a(g36
V270
p39
tp40
a(V10*26
p41
V9^2
p42
tp43
a(V10*26
p44
V670
p45
tp46
a(g44
V6760
p47
tp48
a(g44
V2600
p49
tp50
a(V10*26
p51
V26*9
p52
tp53
a(g51
V(10!)*(26!)
p54
tp55
a(V10*26
p56
V9!*26!
p57
tp58
a(g56
V(9+26)!/(2!33!)
p59
tp60
a(V10*26
p61
V234
p62
tp63
a(V10*26
p64
V240
p65
tp66
a(V10*26
p67
V240
p68
tp69
a(g67
V120
p70
tp71
a(g67
V270
p72
tp73
a(V10*26
p74
V9! * 26!
p75
tp76
a(g74
V10! * 26!
p77
tp78
a(V10*26
p79
V(10!)(26!)
p80
tp81
a(g79
V(10!)(26!)/(36)
p82
tp83
a(g79
V(10!)(26!)/(36!)
p84
tp85
a(V10*26
p86
V9*24
p87
tp88
a(V10*26
p89
V10!26!
p90
tp91
a(V10*26
p92
V26*9
p93
tp94
a(V10*26
p95
V236
p96
tp97
a(V10*26
p98
V240
p99
tp100
a(V10*26
p101
V9!*26!
p102
tp103
a(V10*26
p104
V234
p105
tp106
a(V10*26
p107
V35
p108
tp109
a(g107
V36
p110
tp111
a(V10*26
p112
V234
p113
tp114
a(V10*26
p115
V10*10*26*26*10*10*10
p116
tp117
a(V10*26
p118
V240
p119
tp120
a(V10*26
p121
V10*26/2
p122
tp123
a(V10*26
p124
V9*15
p125
tp126
a(g124
V(26!/(9!*15!))
p127
tp128
a(g124
V5,311,735
p129
tp130
a(g124
V5311735
p131
tp132
a(V10*26
p133
V10
p134
tp135
a(V10*26
p136
V270
p137
tp138
a(V10*26
p139
V10! * 26!
p140
tp141
a(g139
V10! +26!
p142
tp143
a(g139
V36!
p144
tp145
a(g139
V36!*10
p146
tp147
a(V10*26
p148
V234
p149
tp150
a(V10*26
p151
V234
p152
tp153
a(V10*26
p154
V234
p155
tp156
a(V10*26
p157
V234
p158
tp159
a(V10*26
p160
V234
p161
tp162
a(V10*26
p163
V130
p164
tp165
a(V10*26
p166
V9*27
p167
tp168
a(V10*26
p169
V234
p170
tp171
a(V10*26
p172
V360
p173
tp174
a(V10*26
p175
V(9*26)/2
p176
tp177
a(g175
V(9!*26!)/2
p178
tp179
a(V10*26
p180
V10!*26!
p181
tp182
a(V10*26
p183
V26 * 9
p184
tp185
a(V10*26
p186
V9*27
p187
tp188
a(g186
V9*25
p189
tp190
a(g19
V1*10^26
p191
tp192
a(g19
V26^10
p193
tp194
a(g19
V234
p195
tp196
a(V10*26
p197
V26
p198
tp199
a(V10*26
p200
V234
p201
tp202
a(V10*26
p203
V270
p204
tp205
asS"['R.0']"
p206
(lp207
(g16
V10*24
p208
(lp209
(S'R.0'
p210
F10.0
V10
p211
V10
p212
tp213
atp214
a(g41
V10^2
p215
(lp216
(S'R.0'
p217
F10.0
V10
p218
V10
p219
tp220
atp221
a(g98
V10*24
p222
(lp223
(S'R.0'
p224
F10.0
V10
p225
V10
p226
tp227
atp228
a(g139
V10*36
p229
(lp230
(S'R.0'
p231
F10.0
V10
p232
V10
p233
tp234
atp235
a(V10*26
p236
V10*24
p237
(lp238
(S'R.0'
p239
F10.0
V10
p240
V10
p241
tp242
atp243
a(V10*26
p244
V10*260
p245
(lp246
(S'R.0'
p247
F10.0
V10
p248
V10
p249
tp250
atp251
asS"['R.1']"
p252
(lp253
(g22
V9*26
p254
(lp255
(S'R.1'
p256
F26.0
V26
p257
V26
p258
tp259
atp260
a(V10*26
p261
V9*26
p262
(lp263
(S'R.1'
p264
F26.0
V26
p265
V26
p266
tp267
atp268
a(g56
V9*26
p269
(lp270
(S'R.1'
p271
F26.0
V26
p272
V26
p273
tp274
atp275
a(V10*26
p276
V9*26
p277
(lp278
(S'R.1'
p279
F26.0
V26
p280
V26
p281
tp282
atp283
a(g86
V9*26
p284
(lp285
(S'R.1'
p286
F26.0
V26
p287
V26
p288
tp289
atp290
a(V10*26
p291
V9*26
p292
(lp293
(S'R.1'
p294
F26.0
V26
p295
V26
p296
tp297
atp298
a(V10*26
p299
V9*26
p300
(lp301
(S'R.1'
p302
F26.0
V26
p303
V26
p304
tp305
atp306
a(V10*26
p307
V9+26
p308
(lp309
(S'R.1'
p310
F26.0
V26
p311
V26
p312
tp313
atp314
a(g307
V9*26
p315
(lp316
(S'R.1'
p317
F26.0
V26
p318
V26
p319
tp320
atp321
a(g107
V9*26
p322
(lp323
(S'R.1'
p324
F26.0
V26
p325
V26
p326
tp327
atp328
a(V10*26
p329
V9*26
p330
(lp331
(S'R.1'
p332
F26.0
V26
p333
V26
p334
tp335
atp336
a(V10*26
p337
V9*26
p338
(lp339
(S'R.1'
p340
F26.0
V26
p341
V26
p342
tp343
atp344
a(V10*26
p345
V9*26
p346
(lp347
(S'R.1'
p348
F26.0
V26
p349
V26
p350
tp351
atp352
a(g124
V9*26
p353
(lp354
(S'R.1'
p355
F26.0
V26
p356
V26
p357
tp358
atp359
a(V10*26
p360
V9*26
p361
(lp362
(S'R.1'
p363
F26.0
V26
p364
V26
p365
tp366
atp367
a(V10*26
p368
V9*26
p369
(lp370
(S'R.1'
p371
F26.0
V26
p372
V26
p373
tp374
atp375
a(g166
V9*26
p376
(lp377
(S'R.1'
p378
F26.0
V26
p379
V26
p380
tp381
atp382
a(V10*26
p383
V9*26
p384
(lp385
(S'R.1'
p386
F26.0
V26
p387
V26
p388
tp389
atp390
a(V10*26
p391
V9*26
p392
(lp393
(S'R.1'
p394
F26.0
V26
p395
V26
p396
tp397
atp398
a(V10*26
p399
V9*26
p400
(lp401
(S'R.1'
p402
F26.0
V26
p403
V26
p404
tp405
atp406
a(g175
V9+26
p407
(lp408
(S'R.1'
p409
F26.0
V26
p410
V26
p411
tp412
atp413
a(V10*26
p414
V9*26
p415
(lp416
(S'R.1'
p417
F26.0
V26
p418
V26
p419
tp420
atp421
a(V10*26
p422
V9*26
p423
(lp424
(S'R.1'
p425
F26.0
V26
p426
V26
p427
tp428
atp429
a(V10*26
p430
V9*26
p431
(lp432
(S'R.1'
p433
F26.0
V26
p434
V26
p435
tp436
atp437
a(g186
V9*26
p438
(lp439
(S'R.1'
p440
F26.0
V26
p441
V26
p442
tp443
atp444
a(V10*26
p445
V9*26
p446
(lp447
(S'R.1'
p448
F26.0
V26
p449
V26
p450
tp451
atp452
a(V10*26
p453
V9*26
p454
(lp455
(S'R.1'
p456
F26.0
V26
p457
V26
p458
tp459
atp460
asS"['R.0', 'R.1']"
p461
(lp462
(g31
V10^26
p463
(lp464
(S'R.0'
p465
F10.0
V10
p466
V10
p467
tp468
a(S'R.1'
p469
F26.0
V26
p470
V26
p471
tp472
atp473
a(g19
V10^26
p474
(lp475
(S'R.0'
p476
F10.0
V10
p477
V10
p478
tp479
a(S'R.1'
p480
F26.0
V26
p481
V26
p482
tp483
atp484
a(V10*26
p485
V10^26
p486
(lp487
(S'R.0'
p488
F10.0
V10
p489
V10
p490
tp491
a(S'R.1'
p492
F26.0
V26
p493
V26
p494
tp495
atp496
assV2
p497
g2
(g3
tp498
Rp499
S"['R.0.0']"
p500
(lp501
(V10^2*26^2*10^3
p502
V10*10*26*10
p503
(lp504
(S'R.0.0'
p505
F100.0
V10^2
p506
V10*10
p507
tp508
atp509
a(V10^2*26^3*10^2
p510
V10*10*26*10
p511
(lp512
(S'R.0.0'
p513
F100.0
V10^2
p514
V10*10
p515
tp516
atp517
a(g510
V10*10*26*10
p518
(lp519
(S'R.0.0'
p520
F100.0
V10^2
p521
V10*10
p522
tp523
atp524
a(V10^2*26^3*10^2
p525
V10*10*26*10
p526
(lp527
(S'R.0.0'
p528
F100.0
V10^2
p529
V10*10
p530
tp531
atp532
a(g510
V100*26*10
p533
(lp534
(S'R.0.0'
p535
F100.0
V10^2
p536
V100
p537
tp538
atp539
a(V10^2*26^2*10^3
p540
V10*10*26*10
p541
(lp542
(S'R.0.0'
p543
F100.0
V10^2
p544
V10*10
p545
tp546
atp547
a(V10^2*26^2*10^3
p548
V10 * 10 * 26 * 10
p549
(lp550
(S'R.0.0'
p551
F100.0
V10^2
p552
V10 * 10
p553
tp554
atp555
a(V10^2*26^3*10^2
p556
V10*10*26*10
p557
(lp558
(S'R.0.0'
p559
F100.0
V10^2
p560
V10*10
p561
tp562
atp563
a(V10^2*26^2*10^3
p564
V100 * 26 * 10
p565
(lp566
(S'R.0.0'
p567
F100.0
V10^2
p568
V100
p569
tp570
atp571
a(V10^2*26^3*10^2
p572
V10*10*26*10
p573
(lp574
(S'R.0.0'
p575
F100.0
V10^2
p576
V10*10
p577
tp578
atp579
a(V10^2*26^3*10^2
p580
V10*10*3*2
p581
(lp582
(S'R.0.0'
p583
F100.0
V10^2
p584
V10*10
p585
tp586
atp587
a(V10^2*26^2*10^3
p588
V10*10*26*10
p589
(lp590
(S'R.0.0'
p591
F100.0
V10^2
p592
V10*10
p593
tp594
atp595
a(V10^2*26^3*10^2
p596
V10*10*26*10
p597
(lp598
(S'R.0.0'
p599
F100.0
V10^2
p600
V10*10
p601
tp602
atp603
a(V10^2*26^2*10^3
p604
V10*10*26*10
p605
(lp606
(S'R.0.0'
p607
F100.0
V10^2
p608
V10*10
p609
tp610
atp611
a(V10^2*26^3*10^2
p612
V100*26*10
p613
(lp614
(S'R.0.0'
p615
F100.0
V10^2
p616
V100
p617
tp618
atp619
a(V10^2*26^2*10^3
p620
V10*10*26*10
p621
(lp622
(S'R.0.0'
p623
F100.0
V10^2
p624
V10*10
p625
tp626
atp627
asS"['R.0.0.0', 'R.1']"
p628
(lp629
(V10^2*26^2*10^3
p630
V10*26*26*1000
p631
(lp632
(S'R.0.0.0'
p633
F10.0
V10
p634
V10
p635
tp636
a(S'R.1'
p637
F1000.0
V10^3
p638
V1000
p639
tp640
atp641
asS"['R.0.1']"
p642
(lp643
(g510
V10*(26^3)*(10^2)
p644
(lp645
(S'R.0.1'
p646
F17576.0
V26^3
p647
V26^3
p648
tp649
atp650
asS"['R.0.0', 'R.0.1', 'R.1']"
p651
(lp652
(V10^2*26^2*10^3
p653
V10^2 + 26^2 + 10^3
p654
(lp655
(S'R.0.0'
p656
F100.0
V10^2
p657
V10^2
p658
tp659
a(S'R.0.1'
p660
F676.0
V26^2
p661
V26^2
p662
tp663
a(S'R.1'
p664
F1000.0
V10^3
p665
V10^3
p666
tp667
atp668
asS"['R.1']"
p669
(lp670
(V10^2*26^2*10^3
p671
V10*10*27*27*1000
p672
(lp673
(S'R.1'
p674
F1000.0
V10^3
p675
V1000
p676
tp677
atp678
asS"['R.0.1.0', 'R.1.1']"
p679
(lp680
(V10^2*26^2*10^3
p681
VC(10,2)*C(26,2)*C(10,3)
p682
(lp683
(S'R.0.1.0'
p684
F26.0
V26
p685
V26
p686
tp687
a(S'R.1.1'
p688
F3.0
V3
p689
g689
tp690
atp691
asS"['R.0.1', 'R.1.1']"
p692
(lp693
(V10^2*26^2*10^3
p694
V(9^2)*(26^2)*(9^3)
p695
(lp696
(S'R.0.1'
p697
F676.0
V26^2
p698
V26^2
p699
tp700
a(S'R.1.1'
p701
F3.0
g689
g689
tp702
atp703
asS"['R.0.0.0']"
p704
(lp705
(g548
V10 * 9 * 26 * 8
p706
(lp707
(S'R.0.0.0'
p708
F10.0
V10
p709
V10
p710
tp711
atp712
a(V10^2*26^2*10^3
p713
V(10!/5!)*(26!*24!)
p714
(lp715
(S'R.0.0.0'
p716
F10.0
V10
p717
V10
p718
tp719
atp720
a(g713
V(10!/5!)*(26!/24!)
p721
(lp722
(S'R.0.0.0'
p723
F10.0
V10
p724
V10
p725
tp726
atp727
a(g713
V(10!/5!)+(26!/24!)
p728
(lp729
(S'R.0.0.0'
p730
F10.0
V10
p731
V10
p732
tp733
atp734
asS"['R.0.1.0']"
p735
(lp736
(V10^2*26^3*10^2
p737
V9*8+26*25+24*9*8
p738
(lp739
(S'R.0.1.0'
p740
F26.0
V26
p741
V26
p742
tp743
atp744
a(g737
V9*9+26*26+24*9*9
p745
(lp746
(S'R.0.1.0'
p747
F26.0
V26
p748
V26
p749
tp750
atp751
a(g510
V10!*10!*26!*10!
p752
(lp753
(S'R.0.1.0'
p754
F26.0
V26
p755
V26
p756
tp757
atp758
a(g510
V20!*26!*10!
p759
(lp760
(S'R.0.1.0'
p761
F26.0
V26
p762
V26
p763
tp764
atp765
a(g510
V100!*26!*10!
p766
(lp767
(S'R.0.1.0'
p768
F26.0
V26
p769
V26
p770
tp771
atp772
a(V10^2*26^3*10^2
p773
V2(10)*3(26)*2(10)
p774
(lp775
(S'R.0.1.0'
p776
F26.0
V26
p777
V26
p778
tp779
atp780
asS"['R.0']"
p781
(lp782
(V10^2*26^3*10^2
p783
V10*10*26^3*1000
p784
(lp785
(S'R.0'
p786
F1757600.0
V10^2*26^3
p787
V10*10*26^3
p788
tp789
atp790
a(g510
V10^2*26^3*10
p791
(lp792
(S'R.0'
p793
F1757600.0
V10^2*26^3
p794
V10^2*26^3
p795
tp796
atp797
a(g604
V10*10*26*26*10
p798
(lp799
(S'R.0'
p800
F67600.0
V10^2*26^2
p801
V10*10*26*26
p802
tp803
atp804
a(g612
V100*(26^3)*10
p805
(lp806
(S'R.0'
p807
F1757600.0
V10^2*26^3
p808
V100*(26^3)
p809
tp810
atp811
asS"['R.0.0.0', 'R.0.0.1', 'R.0.1.0', 'R.0.1.1']"
p812
(lp813
(V10^2*26^3*10^2
p814
V(10*2)+(26*3)+(20)
p815
(lp816
(S'R.0.0.0'
p817
F10.0
V10
p818
V10
p819
tp820
a(S'R.0.0.1'
p821
F2.0
V2
p822
g822
tp823
a(S'R.0.1.0'
p824
F26.0
V26
p825
V26
p826
tp827
a(S'R.0.1.1'
p828
F3.0
g689
g689
tp829
atp830
asS"['R.0.0.0', 'R.0.0.1', 'R.0.1']"
p831
(lp832
(g814
V(10*2)+(26*26*26)+(20)
p833
(lp834
(S'R.0.0.0'
p835
F10.0
V10
p836
V10
p837
tp838
a(S'R.0.0.1'
p839
F2.0
g822
g822
tp840
a(S'R.0.1'
p841
F17576.0
V26^3
p842
V26*26*26
p843
tp844
atp845
asg6
(lp846
(V10^2*26^3*10^2
p847
V124
p848
tp849
a(V10^2*26^3*10^2
p850
V27576
p851
tp852
a(V10^2*26^3*10^2
p853
V10000*26*26*26*
p854
tp855
a(g737
V9*2+3*26+2*9
p856
tp857
a(g737
V9*2*3*26*2*9
p858
tp859
a(g737
V9*8*26*25*24*9*8
p860
tp861
a(g737
V9*9*26*26*26*9*9
p862
tp863
a(g737
V(9^4)*(26^3)
p864
tp865
a(V10^2*26^3*10^2
p866
V49400000
p867
tp868
a(V10^2*26^3*10^2
p869
V(10**3)*(26**3)
p870
tp871
a(g869
V(9**3)*(26**3)
p872
tp873
a(g869
V(9**4)*(26**3)
p874
tp875
a(V10^2*26^3*10^2
p876
V26000
p877
tp878
a(V10^2*26^3*10^2
p879
V[10*10*26*26*26*10*10]/[2*3*2*2]
p880
tp881
a(V10^2*26^3*10^2
p882
V18954
p883
tp884
a(g882
V26000
p885
tp886
a(g882
V1757600
p887
tp888
a(g882
V210
p889
tp890
a(g882
V17576000
p891
tp892
a(V10^2*26^2*10^3
p893
V10*26*10
p894
tp895
a(V10^2*26^3*10^2
p896
V26*26*10*10*10*10
p897
tp898
a(V10^2*26^2*10^3
p899
V72900000
p900
tp901
a(g899
V10*10*27*27*10*10*10
p902
tp903
a(V10^2*26^3*10^2
p904
V2*3*2
p905
tp906
a(g502
V10*10*26*10*26
p907
tp908
a(V10^2*26^3*10^2
p909
V9*9*26*26*26*9*9
p910
tp911
a(V10^2*26^2*10^3
p912
V10 + 10 + 26 + 26 + 10 + 10 + 10
p913
tp914
a(V10^2*26^2*10^3
p915
V260000
p916
tp917
a(g915
V6460000
p918
tp919
a(g915
V6760000
p920
tp921
a(V10^2*26^3*10^2
p922
V10*10*10*10*26*26*26*26
p923
tp924
a(V10^2*26^2*10^3
p925
V10*26*10
p926
tp927
a(V10^2*26^2*10^3
p928
V3130
p929
tp930
a(g928
V3120
p931
tp932
a(g928
V31200
p933
tp934
a(g928
V2600
p935
tp936
a(g928
V100676
p937
tp938
a(g510
V20*26*10
p939
tp940
a(V10^2*26^3*10^2
p941
V10 * 10 * 26 * 26 * 10 * 10
p942
tp943
a(V10^2*26^2*10^3
p944
V26000
p945
tp946
a(V10^2*26^3*10^2
p947
V9*9*26*26*26*9*9
p948
tp949
a(V10^2*26^2*10^3
p950
V10^5*2^26
p951
tp952
a(V10^2*26^3*10^2
p953
V138240000
p954
tp955
a(g953
V196830000
p956
tp957
a(V10^2*26^3*10^2
p958
V2*3*2*6
p959
tp960
a(g958
V10^2*26^3*10^2*3!
p961
tp962
a(g548
V10 * 9 * 26 * 25 * 8 * 7 * 6
p963
tp964
a(V10^2*26^3*10^2
p965
V10^4 * 26 ^ 2
p966
tp967
a(V10^2*26^2*10^3
p968
V10!*10!*26!*26!*10!*10!*10!
p969
tp970
a(V10^2*26^3*10^2
p971
V9*9*26*26*26*9*9
p972
tp973
a(g556
V9*9*26*9
p974
tp975
a(V10^2*26^3*10^2
p976
V6760000
p977
tp978
a(V10^2*26^2*10^3
p979
V57600000
p980
tp981
a(V10^2*26^3*10^2
p982
V2!3!2!
p983
tp984
a(V10^2*26^2*10^3
p985
V31200
p986
tp987
a(g985
V2600
p988
tp989
a(V10^2*26^3*10^2
p990
V780000
p991
tp992
a(V10^2*26^3*10^2
p993
V175,760,000
p994
tp995
a(V10^2*26^2*10^3
p996
V12
p997
tp998
a(V10^2*26^3*10^2
p999
V10*10*26*26*10*10
p1000
tp1001
a(V10^2*26^2*10^3
p1002
V2028000
p1003
tp1004
a(V10^2*26^2*10^3
p1005
V67,600,000
p1006
tp1007
a(g814
V158
p1008
tp1009
a(g814
V2*3*2*2
p1010
tp1011
a(g814
V2*(10)*3*2*26*2*10
p1012
tp1013
a(g814
V175,760,000
p1014
tp1015
a(V10^2*26^2*10^3
p1016
V(10!/8!)*(26!/24!)*(10!/7!)
p1017
tp1018
a(V10^2*26^3*10^2
p1019
V12
p1020
tp1021
a(V10^2*26^3*10^2
p1022
V196,830,000
p1023
tp1024
a(g1022
V196830000
p1025
tp1026
a(V10^2*26^3*10^2
p1027
V12
p1028
tp1029
a(g1027
V2!*3!*2!
p1030
tp1031
a(g1027
V12
p1032
tp1033
a(g1027
V2*10+3*26+2*10
p1034
tp1035
a(g1027
V2*10*3*26*2*10
p1036
tp1037
a(V10^2*26^3*10^2
p1038
V10*10*25*25*25*10*10
p1039
tp1040
a(V10^2*26^2*10^3
p1041
V24
p1042
tp1043
a(g1041
V102
p1044
tp1045
a(g1041
V31,200
p1046
tp1047
a(g1041
V31200
p1048
tp1049
a(V10^2*26^2*10^3
p1050
V20*26*26*30
p1051
tp1052
a(V10^2*26^2*10^3
p1053
V10 * 26 * 10 * 10 *10
p1054
tp1055
a(g1053
V10 * 10 * 26 * 10 * 10 *10
p1056
tp1057
a(V10^2*26^2*10^3
p1058
V2*2*3
p1059
tp1060
a(V10^2*26^3*10^2
p1061
V26^3 * 10^3
p1062
tp1063
a(V10^2*26^2*10^3
p1064
V17,576,000
p1065
tp1066
a(g1064
V6
p1067
tp1068
a(g1064
V12
p1069
tp1070
a(g1064
V1560000
p1071
tp1072
a(g1064
V20280000
p1073
tp1074
a(g1064
V40560000
p1075
tp1076
a(V10^2*26^3*10^2
p1077
V26000
p1078
tp1079
a(V10^2*26^2*10^3
p1080
V2147483648
p1081
tp1082
a(V10^2*26^2*10^3
p1083
V676000
p1084
tp1085
a(V10^2*26^2*10^3
p1086
V26^7
p1087
tp1088
a(V10^2*26^3*10^2
p1089
V26^3*10^5
p1090
tp1091
a(V10^2*26^3*10^2
p1092
V260000
p1093
tp1094
a(g1092
V26000
p1095
tp1096
a(g1092
V18954
p1097
tp1098
a(g1092
V17576000
p1099
tp1100
a(g1092
V26000
p1101
tp1102
a(g572
V10*9*26*10
p1103
tp1104
a(V10^2*26^3*10^2
p1105
V6760000
p1106
tp1107
a(V10^2*26^2*10^3
p1108
V26*26*26*10*10*10
p1109
tp1110
a(V10^2*26^2*10^3
p1111
V2*10*2*26*3*10
p1112
tp1113
a(g580
V2*3*2
p1114
tp1115
a(V10^2*26^3*10^2
p1116
V9*9*26*26*26*9*9
p1117
tp1118
a(V10^2*26^2*10^3
p1119
V3*9*2*26
p1120
tp1121
a(g1119
V3*10*2*26
p1122
tp1123
a(g1119
V5*10*2*26
p1124
tp1125
a(g510
V10^2*26*3*10
p1126
tp1127
a(V10^2*26^3*10^2
p1128
V1296000
p1129
tp1130
a(g1128
V676000
p1131
tp1132
a(g1128
V6760000
p1133
tp1134
a(V10^2*26^2*10^3
p1135
V67,600,000
p1136
tp1137
a(V10^2*26^3*10^2
p1138
V26000
p1139
tp1140
a(V10^2*26^2*10^3
p1141
V9*9*26*26*9*9*9
p1142
tp1143
a(V10^2*26^2*10^3
p1144
V9 * 26 * 9 * 26 * 9 * 9
p1145
tp1146
a(g1144
V10 * 26 * 10 * 10 * 10* 10
p1147
tp1148
a(V10^2*26^3*10^2
p1149
V115316136
p1150
tp1151
a(g1149
V18954
p1152
tp1153
a(g1144
V10 * 26 * 10 * 10 * 10* 10 * 3
p1154
tp1155
a(g1149
V115316136
p1156
tp1157
a(g1149
V9*9*26*26*26*9*9
p1158
tp1159
a(g1149
V196830000
p1160
tp1161
a(g1144
V10\u22c526\u22c59\u22c510\u22c59\u22c58
p1162
tp1163
a(g1144
V10*26*9*10*9*8
p1164
tp1165
a(V10^2*26^3*10^2
p1166
V(26!*8100)/3!
p1167
tp1168
a(g1166
V126360000
p1169
tp1170
a(g1149
V15600
p1171
tp1172
a(g1149
V372600
p1173
tp1174
a(g1149
V2600+126
p1175
tp1176
a(g604
V9*9*26*9
p1177
tp1178
a(V10^2*26^2*10^3
p1179
V(10^5)*(10^2)
p1180
tp1181
a(g866
V6760000
p1182
tp1183
a(g866
V 126360000
p1184
tp1185
a(g866
V 32760000
p1186
tp1187
a(g866
V 78624000
p1188
tp1189
a(g866
V 1010880000
p1190
tp1191
a(g866
V 49400000
p1192
tp1193
a(g866
V 46124000
p1194
tp1195
a(V10^2*26^2*10^3
p1196
V33800
p1197
tp1198
a(V10^2*26^3*10^2
p1199
V1000*26^3
p1200
tp1201
a(V10^2*26^2*10^3
p1202
V26000
p1203
tp1204
a(V10^2*26^3*10^2
p1205
V10*10
p1206
tp1207
a(V10^2*26^3*10^2
p1208
V492804
p1209
tp1210
a(g1208
V115316136
p1211
tp1212
a(V10^2*26^3*10^2
p1213
V1757600000
p1214
tp1215
a(V10^2*26^3*10^2
p1216
V21970000/3
p1217
tp1218
a(g1216
V177957
p1219
tp1220
a(V10^2*26^2*10^3
p1221
V6760000
p1222
tp1223
a(V10^2*26^2*10^3
p1224
V26000
p1225
tp1226
asS"['R.0.1.1']"
p1227
(lp1228
(g510
V6*10^3*26
p1229
(lp1230
(S'R.0.1.1'
p1231
F3.0
g689
g689
tp1232
atp1233
a(g510
V12*10^3*26
p1234
(lp1235
(S'R.0.1.1'
p1236
F3.0
g689
g689
tp1237
atp1238
a(g510
V11*10^3*26
p1239
(lp1240
(S'R.0.1.1'
p1241
F3.0
g689
g689
tp1242
atp1243
asS"['R.0.1.0', 'R.0.1.1']"
p1244
(lp1245
(V10^2*26^3*10^2
p1246
V100*(26*3)*100
p1247
(lp1248
(S'R.0.1.0'
p1249
F26.0
V26
p1250
V26
p1251
tp1252
a(S'R.0.1.1'
p1253
F3.0
g689
g689
tp1254
atp1255
a(g814
V20+(26*3)+(20)
p1256
(lp1257
(S'R.0.1.0'
p1258
F26.0
V26
p1259
V26
p1260
tp1261
a(S'R.0.1.1'
p1262
F3.0
g689
g689
tp1263
atp1264
a(g814
V20*(26*3)*(20)
p1265
(lp1266
(S'R.0.1.0'
p1267
F26.0
V26
p1268
V26
p1269
tp1270
a(S'R.0.1.1'
p1271
F3.0
g689
g689
tp1272
atp1273
ass.