(dp0
V1
p1
ccollections
defaultdict
p2
(c__builtin__
list
p3
tp4
Rp5
S'Nothing'
p6
(lp7
V6*5*4*3*2*6*5*4*3*2
p8
aV6*^
p9
aV72
p10
aV72
p11
aV6!*6!
p12
aV72
p13
aV12
p14
aV24
p15
aV24!
p16
aV12!
p17
aV72
p18
aV72
p19
aV144
p20
aV12*12
p21
aV72
p22
aV66
p23
aV6!*6!
p24
aV6*6*2
p25
aV6*6*2
p26
aV35
p27
aV(6^2)*2
p28
aV72
p29
aV6**6
p30
aV6*6*2
p31
aV6*6*2
p32
aV72
p33
aV2*36
p34
aV36*36
p35
aV720/2
p36
aV72
p37
aV6!*6!
p38
aV6*6*2
p39
aV36*36
p40
aV60
p41
aV36*35
p42
aV36*36
p43
aV72
p44
aV12
p45
aV36*2
p46
aV36*2
p47
aV3!*4!
p48
aV3*4
p49
aV518400
p50
aV1440
p51
aV12!
p52
aV30
p53
aV15
p54
aV6!*6!
p55
aV36!
p56
aV6!
p57
aV6!*2
p58
aV12!
p59
aV72
p60
aV12C2
p61
aV(12!)/(2*(10!))
p62
aV30
p63
aV2(6!)(6!)
p64
aV72
p65
aV72
p66
aV6*6*2
p67
aV6*5*4*3
p68
aV12
p69
aV6^4
p70
aV6*6*2
p71
aV68
p72
aV68*2
p73
aV12
p74
aV72
p75
aV18
p76
aV6! * 6!
p77
aV6! * 2
p78
aV6!/(6-2)!
p79
aV6!/(2!(6-2)!)
p80
aV24
p81
aV72
p82
aV66
p83
aV72
p84
aV64
p85
aV58
p86
aV52
p87
aV60
p88
aV6!*2
p89
aV12!
p90
aV6!*4
p91
aV72
p92
aV12
p93
aV720
p94
aV144
p95
aV6*6*2
p96
aV12
p97
aV24
p98
aV2C12
p99
aV12! * 2
p100
aV12!
p101
aV!12
p102
aV72
p103
aV66
p104
aV6!6!
p105
aV6!
p106
aV6!6!
p107
aV2(6!)
p108
aV1440
p109
aV12!
p110
aV6*5*4*3*2*2
p111
aV72
p112
aV12^2
p113
aV12
p114
aV72
p115
aV24
p116
aV6*6*2
p117
aV72
p118
aV64
p119
aV30
p120
aV15
p121
aV72
p122
aV6! * 6!
p123
asS"['R.1']"
p124
(lp125
V6*6*6
p126
aV6! * 6! - 6
p127
aV2*6*6
p128
assV3
p129
g2
(g3
tp130
Rp131
g6
(lp132
V6*5
p133
aV2*6
p134
aV30
p135
aV12
p136
aV10
p137
aV1*6*2
p138
aV1*6*2+1
p139
aV12
p140
aV2
p141
aV6
p142
aV6*5
p143
aV2*6
p144
aV7
p145
aV13
p146
aV12
p147
aV30
p148
aV36
p149
aV60
p150
aV36
p151
aV6!
p152
aV5!
p153
aV11!/(6! * 5!)
p154
aV11!/((6!) * (5!))
p155
aV23
p156
aV22
p157
aV21
p158
aV20
p159
aV25
p160
aV15
p161
aV30
p162
aV31
p163
aV32
p164
aV72
p165
aV36
p166
aV0
p167
aV6
p168
aV5
p169
aV1
p170
aV5
p171
aV6
p172
aV12
p173
aV10
p174
aV12
p175
aV6*5
p176
aV6*6
p177
aV12
p178
aV12
p179
aV6
p180
aV30
p181
aV6
p182
aV12
p183
aV12
p184
aV5!*6!
p185
aV60
p186
aV30
p187
aV66
p188
aV25
p189
aV6*5
p190
aV50
p191
aV30
p192
aV60
p193
aV6
p194
aV6*2
p195
aV10
p196
aV3/36
p197
aV4/36
p198
aV13/36
p199
aV12/36
p200
aV11/36
p201
aV12
p202
aV12
p203
aV12
p204
aV6
p205
aV2*6
p206
aV2*5
p207
aV1*6
p208
aV5
p209
aV5^2
p210
aVP(6,1)
p211
aV6!
p212
aV6^2
p213
aV6*5
p214
aV6*2
p215
aV6
p216
aV12
p217
aV30
p218
aV12
p219
aV10
p220
aV7
p221
aV3
p222
aV 13
p223
aV30
p224
aV12
p225
aV6
p226
aV3
p227
aV6
p228
aV30
p229
aV12
p230
aV12
p231
aV12
p232
aV6
p233
aV6
p234
aV12
p235
aV6+6
p236
aV13
p237
aV9
p238
aV12
p239
aV13
p240
aV6*2
p241
aV6
p242
aV6+6
p243
aV30
p244
aV6
p245
aV12
p246
aV6*5
p247
aV10
p248
aV12
p249
aV12
p250
aV12
p251
aV13
p252
aV10
p253
aV12
p254
aV10
p255
aV12
p256
aV12
p257
aV30
p258
aV6*5
p259
aV6!
p260
aV1
p261
aV5*6
p262
aV5*2
p263
aV5
p264
aV6
p265
aV6*2
p266
aV1*6
p267
aV6*6
p268
aV3
p269
aV30
p270
aV6
p271
aV12
p272
aV12
p273
aV13
p274
aV6
p275
aV12
p276
aV10
p277
aV5
p278
aV35
p279
aV6+6+1
p280
aV35
p281
aV9
p282
aV6*5
p283
aV3
p284
aV12
p285
aV12
p286
aV12
p287
aV13
p288
aV6
p289
aV2*6
p290
aVC(2,1)*C(6,1)
p291
aV12
p292
aV10
p293
aV2*1*6
p294
aVC(2.1)
p295
aVC(2,1)
p296
aV6
p297
aV12
p298
aV96
p299
aV6
p300
aV12
p301
aV12
p302
aV10
p303
aV1- (5/6)**2
p304
aV1- (5**2/6**2)
p305
aV11/36
p306
aV1 - (25/36)
p307
aV12
p308
aV1*2*6
p309
aV1*2*6
p310
aV6
p311
aV12
p312
aV14
p313
aV6
p314
aV12
p315
aV10
p316
aV22
p317
aV25
p318
aV24
p319
aV(2+2)
p320
aV3
p321
aV(1*6)+(6*1)+1
p322
aV6*5
p323
aV6*6
p324
aV<30
p325
aV12
p326
aV10
p327
aV13
p328
aV(6*2)
p329
aV(6*2)
p330
aV6
p331
aV12
p332
aV10
p333
aV12
p334
aV6
p335
aV26
p336
aV1/18
p337
aV36
p338
aV10
p339
aV12
p340
aV6
p341
aV12
p342
aV13
p343
aV12
p344
aV13
p345
aV14
p346
aV3
p347
aV13
p348
aV30*2
p349
aV30
p350
aV11/36
p351
aV30
p352
aV6
p353
aV6
p354
aV12
p355
aV10
p356
aV5
p357
aV6
p358
aV5
p359
aV12
p360
aV6
p361
aV12
p362
aV36
p363
aV6
p364
aV6
p365
aV6
p366
aV12
p367
aV30
p368
aV12
p369
aV6
p370
aV13
p371
aV1/3
p372
aV25
p373
aV9
p374
aV10
p375
aV30
p376
aV60
p377
aV35
p378
aV10
p379
aV260
p380
aV12
p381
aV86400
p382
aV6*2
p383
aV1*6 + 1*6
p384
aV30
p385
aV31
p386
aV36
p387
aV12
p388
aV1/3
p389
aV12
p390
aV6
p391
aV12
p392
aV30
p393
aV5
p394
aV10
p395
aV12
p396
aV6
p397
aV12
p398
aV12
p399
aV12
p400
aV12
p401
aV30
p402
aV5
p403
aV36
p404
aV12
p405
aV4
p406
aV3
p407
aV2
p408
aV3
p409
aV2
p410
aV4
p411
aV1
p412
aV5
p413
aV6
p414
aV7
p415
aV8
p416
aV9
p417
aV7
p418
aV12
p419
aV13
p420
aV12
p421
aV6
p422
aV(5/6)*(1/6) *2 + (1/6)^2
p423
aV3
p424
aV13
p425
aV12
p426
aV13
p427
aV14
p428
aV6
p429
aV12
p430
aV10
p431
aV12
p432
aV6
p433
aV10
p434
aV5
p435
aV12
p436
aV12
p437
aV10
p438
aV13
p439
aV25
p440
aV13
p441
aV6
p442
aV12
p443
aV12
p444
aV6
p445
aV7
p446
aV12
p447
aV24
p448
aV36
p449
aV6
p450
aV5
p451
aV1
p452
aV2
p453
aV3
p454
aV4
p455
aV5
p456
aV6
p457
aV7
p458
aV8
p459
aV720
p460
aV9
p461
aV10
p462
aV26
p463
aV12
p464
aV6
p465
aV12
p466
aV2
p467
aV1
p468
aV6
p469
aV12
p470
aV3
p471
aV30
p472
aV6
p473
aV12
p474
aV13
p475
aV14
p476
aV10
p477
aV12
p478
aV36
p479
aV6
p480
aV10
p481
aV25
p482
aV36
p483
aV5
p484
aV6
p485
aV12
p486
aV1/5
p487
aV1/36
p488
aV12
p489
aV10
p490
aV12
p491
aV13
p492
aV12
p493
aV30
p494
aV36
p495
aVC(6,1)
p496
aV6!/(1!(6-1)!)
p497
aV12
p498
aV6*1*2
p499
aV6*1
p500
aV2*30
p501
aV2*2*6
p502
aV2*6
p503
aV2*6*6
p504
aV12
p505
aV3
p506
aV13
p507
aV12
p508
aV10
p509
aV12
p510
aV12
p511
aV12
p512
aV36
p513
aV10
p514
aV20
p515
aV12
p516
aV12
p517
aV12
p518
aV6
p519
aV12
p520
aV10
p521
aV12
p522
aV30
p523
aV36
p524
aV6
p525
aV12
p526
aV24
p527
aV6!*2-5!*2
p528
aV6+6
p529
aV12!/((12-2)!)
p530
aV7!/((7-2)!)
p531
aV12!/(2!(12-2)!)
p532
aV6*6
p533
aV12
p534
aV10
p535
aV6
p536
aV10
p537
aV12
p538
aV12
p539
aV6
p540
aV7
p541
aV5
p542
aV1
p543
aV2
p544
aV24
p545
aV30
p546
aV26
p547
aV6*5
p548
aV31
p549
aV2/36
p550
aV10
p551
aV12
p552
aV4/36
p553
aV25
p554
aV6
p555
aV12
p556
aV12/36
p557
aV12
p558
aV6*1+6*1
p559
aV5
p560
aV10
p561
aV20
p562
aV24
p563
aV12
p564
aV35
p565
aV12
p566
aV6
p567
aV12
p568
aV6*5
p569
aV6
p570
aV5
p571
aV5*5
p572
aV10
p573
aV6*6
p574
aV12
p575
aV12
p576
aV6
p577
aV12
p578
aV6*5
p579
aV12
p580
aV2
p581
aV4
p582
aV13
p583
aV6
p584
aV6*2
p585
aV12
p586
aV10
p587
aV12
p588
aV6
p589
aV30
p590
aV1-(25/36)
p591
aV12
p592
aV5
p593
aV6*2
p594
aV6
p595
aV5
p596
aV14
p597
aV10
p598
aV12
p599
aV30
p600
aV12
p601
aV36
p602
aV15
p603
aV3
p604
aV2
p605
aV1
p606
aV3/36
p607
aV2/36
p608
aV1/36
p609
aV2/6
p610
aV11/36
p611
aV3
p612
aV36
p613
aV4
p614
aVINF
p615
aV6*5*4*3*2
p616
aV12
p617
aV13
p618
aV12
p619
aV36
p620
aV12
p621
aV30
p622
aV12
p623
aV12
p624
aV5*6
p625
aV6
p626
aV12
p627
aV12
p628
aV48
p629
aV42
p630
aV12
p631
aV12
p632
aV6^2
p633
aV12
p634
aV2
p635
aV2/36
p636
aV3
p637
aV1
p638
aV3/36
p639
aV13
p640
aV14
p641
aV12
p642
aV12
p643
aV30
p644
aV1/36
p645
aV3
p646
aV2/36
p647
aV12
p648
aV9
p649
aV13
p650
aV12
p651
aV13
p652
aV10
p653
aV12
p654
aV6
p655
aV30
p656
aV6
p657
aV12
p658
aV6*2
p659
aV12
p660
aV6
p661
aV10
p662
aV34
p663
aV6
p664
aV96
p665
aV30
p666
aV26
p667
aV12
p668
aV6*1
p669
aV12
p670
aV12
p671
aV6
p672
aV12
p673
aV6
p674
aV12
p675
aV6
p676
aV12
p677
aV12
p678
aV10
p679
aV12
p680
asS"['R.0']"
p681
(lp682
V36/6
p683
aV6*6*2
p684
aV36/30
p685
asS"['R.1']"
p686
(lp687
V1-5^2
p688
asS"['R.0.1']"
p689
(lp690
V5*6*2
p691
aV1/6 + 1/6
p692
aV5*6*2
p693
aV5*6+6*5
p694
aV2*6*1
p695
aV2*6*1
p696
assV2
p697
g2
(g3
tp698
Rp699
g6
(lp700
V25/36
p701
aV68
p702
aV34
p703
aV30
p704
aV34
p705
aV30
p706
aV24
p707
aV20
p708
aV14
p709
aV60
p710
aV5!*5!
p711
aV50
p712
aV33/36
p713
aV32/36
p714
aV23/36
p715
aV24/36
p716
aV25/36
p717
aV(5*5)/(6*6)
p718
aV12
p719
aV11
p720
aV72
p721
aV30
p722
aV24
p723
aV33
p724
aV 
p725
aV36(5/6)
p726
aV33
p727
aV30
p728
aV6
p729
aV50
p730
aV30
p731
aV6*6-2
p732
aV6*6-6-6
p733
aV6*6-6
p734
aV69
p735
aV63
p736
aV33
p737
aV30
p738
aV6!
p739
aV36!/2
p740
aV34
p741
aV35
p742
aV30
p743
aV36!/((34!)(2))
p744
aV1
p745
aV33
p746
aV24
p747
aV1/6
p748
aV30
p749
aV24
p750
aV19
p751
aV(5^2)*2
p752
aV50
p753
aV24
p754
aV5*5*2
p755
aV5*5*2
p756
aV30
p757
aV36-12
p758
aV36-14
p759
aV50
p760
aV11
p761
aV12
p762
aV29
p763
aV28
p764
aV30
p765
aV24
p766
aV23
p767
aV(5*5*2)
p768
aV(6*6) - (6*2)
p769
aV50
p770
aV34
p771
aV24
p772
aV33
p773
aV36-6-6-1
p774
aV25*2
p775
aV30
p776
aV50
p777
aV34
p778
aV33
p779
aV30
p780
aV31
p781
aV32
p782
aV33
p783
aV34
p784
aV35
p785
aV24
p786
aV20
p787
aV21
p788
aV22
p789
aV23
p790
aV26
p791
aV27
p792
aV28
p793
aV29
p794
aV23
p795
aV14400
p796
aV5!*5!
p797
aV30
p798
aV24
p799
aV34
p800
aV24
p801
aV26
p802
aV50
p803
aV10C2
p804
aV26
p805
aV33
p806
aV34
p807
aV24
p808
aV69
p809
aV60
p810
aV(6*6)-6
p811
aV(6*6)-12
p812
aV24
p813
aV25/36
p814
aV24
p815
aV34
p816
aV24
p817
aV24
p818
aV33
p819
aV33
p820
aV34
p821
aVC(6,1)
p822
aV6!/(1!(6-1)!)
p823
aV6! * 2 - 12
p824
aV6!/(6-2)!
p825
aV6!/(2!(6-2)!)
p826
aV33
p827
aV34
p828
aV36-12
p829
aV24
p830
aV24
p831
aV70
p832
aV64
p833
aV36/25
p834
aV55
p835
aV5!*2
p836
aV24
p837
aV120
p838
aV100
p839
aV25/36
p840
aV24
p841
aV(6*6)-12
p842
aV33
p843
aV24
p844
aV6
p845
aV12
p846
aV11
p847
aV30
p848
aV18
p849
aV24
p850
aV50
p851
aV45
p852
aV24
p853
aV25/(6*6)
p854
aV24
p855
aV34
p856
aV5!5!
p857
aV2(5!)
p858
aV240
p859
aV5*4*3*2*2
p860
aV24
p861
aV50
p862
aV24
p863
aV24
p864
aV34
p865
aV34/36
p866
aV32
p867
aV24
p868
aV33
p869
aV34
p870
aV34/36
p871
aV60
p872
aV30
p873
aV24
p874
aV24
p875
aV50
p876
aV30
p877
aV24
p878
aV50
p879
asS"['R.1']"
p880
(lp881
V2*5*5
p882
ass.