(dp0
V1
p1
ccollections
defaultdict
p2
(c__builtin__
list
p3
tp4
Rp5
S'Digits'
p6
(lp7
(V5*4/2
p8
V25
p9
S'digit'
p10
tp11
a(g8
V20
p12
g10
tp13
a(g8
V12
p14
g10
tp15
a(V5*4/2
p16
V20
p17
g10
tp18
a(V5*4/2
p19
V25
p20
g10
tp21
a(g19
V20
p22
g10
tp23
a(g19
V19
p24
g10
tp25
a(V5*4/2
p26
V20
p27
g10
tp28
a(g19
V9
p29
g10
tp30
a(V5*4/2
p31
V20
p32
g10
tp33
a(V5*4/2
p34
V25
p35
g10
tp36
a(g34
V16
p37
g10
tp38
a(g34
V20
p39
g10
tp40
a(g34
V25
p41
g10
tp42
a(g34
V40
p43
g10
tp44
a(g34
V21
p45
g10
tp46
a(g34
V20
p47
g10
tp48
a(V5*4/2
p49
V30
p50
g10
tp51
a(V5*4/2
p52
V20
p53
g10
tp54
a(V5*4/2
p55
V25
p56
g10
tp57
a(g55
V20
p58
g10
tp59
a(V5*4/2
p60
V20
p61
g10
tp62
a(V5*4/2
p63
V20
p64
g10
tp65
a(V5*4/2
p66
V25
p67
g10
tp68
a(V5*4/2
p69
V2880
p70
g10
tp71
a(g69
V20
p72
g10
tp73
a(g69
V360
p74
g10
tp75
a(g69
V25
p76
g10
tp77
a(g69
V50
p78
g10
tp79
a(g69
V15890700
p80
g10
tp81
a(V5*4/2
p82
V20
p83
g10
tp84
a(V5*4/2
p85
V15
p86
g10
tp87
a(g85
V11
p88
g10
tp89
a(V5*4/2
p90
V40
p91
g10
tp92
a(g90
V20
p93
g10
tp94
a(V5*4/2
p95
V20
p96
g10
tp97
a(g95
V19
p98
g10
tp99
a(g95
V40
p100
g10
tp101
a(g95
V20
p102
g10
tp103
a(g95
V20
p104
g10
tp105
a(V5*4/2
p106
V25
p107
g10
tp108
a(g106
V20
p109
g10
tp110
a(V5*4/2
p111
V20
p112
g10
tp113
a(V5*4/2
p114
V25
p115
g10
tp116
a(g114
V20
p117
g10
tp118
a(g114
V16
p119
g10
tp120
a(g114
V21
p121
g10
tp122
a(g114
V40
p123
g10
tp124
a(V5*4/2
p125
V20
p126
g10
tp127
a(V5*4/2
p128
V40
p129
g10
tp130
a(g128
V400
p131
g10
tp132
a(V5*4/2
p133
V20
p134
g10
tp135
a(V5*4/2
p136
V20
p137
g10
tp138
a(g136
V80
p139
g10
tp140
a(V5*4/2
p141
V30
p142
g10
tp143
a(V5*4/2
p144
V25
p145
g10
tp146
a(g144
V20
p147
g10
tp148
a(g144
V20
p149
g10
tp150
a(V5*4/2
p151
V20
p152
g10
tp153
a(V5*4/2
p154
V15
p155
g10
tp156
a(V5*4/2
p157
V20
p158
g10
tp159
a(V5*4/2
p160
V25
p161
g10
tp162
a(g160
V20
p163
g10
tp164
a(V5*4/2
p165
V25
p166
g10
tp167
a(g165
V20
p168
g10
tp169
a(g165
V40
p170
g10
tp171
a(g165
V25
p172
g10
tp173
a(g165
V40
p174
g10
tp175
a(V5*4/2
p176
V25
p177
g10
tp178
a(g176
V20
p179
g10
tp180
a(g176
V15
p181
g10
tp182
a(V5*4/2
p183
V20
p184
g10
tp185
a(V5*4/2
p186
V20
p187
g10
tp188
a(V5*4/2
p189
V25
p190
g10
tp191
a(g189
V20
p192
g10
tp193
a(V5*4/2
p194
V25
p195
g10
tp196
a(V5*4/2
p197
V20
p198
g10
tp199
a(V5*4/2
p200
V20
p201
g10
tp202
a(g200
V40
p203
g10
tp204
a(V5*4/2
p205
V25
p206
g10
tp207
a(g205
V20
p208
g10
tp209
a(V5*4/2
p210
V25
p211
g10
tp212
a(V5*4/2
p213
V20
p214
g10
tp215
a(g213
V40
p216
g10
tp217
a(V5*4/2
p218
V25
p219
g10
tp220
a(V5*4/2
p221
V15
p222
g10
tp223
a(V5*4/2
p224
V25
p225
g10
tp226
a(g224
V20
p227
g10
tp228
a(V5*4/2
p229
V25
p230
g10
tp231
a(g229
V20
p232
g10
tp233
a(V5*4/2
p234
V25
p235
g10
tp236
a(g234
V20
p237
g10
tp238
a(g234
V21
p239
g10
tp240
a(g234
V19
p241
g10
tp242
a(g234
V25827165
p243
g10
tp244
a(g234
V24
p245
g10
tp246
a(g234
V120
p247
g10
tp248
a(g234
V240
p249
g10
tp250
a(V5*4/2
p251
V20
p252
g10
tp253
a(V5*4/2
p254
V20
p255
g10
tp256
a(g234
V20
p257
g10
tp258
a(g234
V30
p259
g10
tp260
a(g234
V20
p261
g10
tp262
a(g234
V40
p263
g10
tp264
a(V5*4/2
p265
V20
p266
g10
tp267
a(V5*4/2
p268
V20
p269
g10
tp270
a(V5*4/2
p271
V25
p272
g10
tp273
a(g271
V20
p274
g10
tp275
a(g271
V50
p276
g10
tp277
a(g271
V5025
p278
g10
tp279
a(g271
V25
p280
g10
tp281
a(g271
V20
p282
g10
tp283
a(V5*4/2
p284
V20
p285
g10
tp286
a(g284
V25
p287
g10
tp288
a(g284
V1
p289
g10
tp290
a(g284
V2
p291
g10
tp292
a(g284
V3
p293
g10
tp294
a(g284
V4
p295
g10
tp296
a(g284
V5
p297
g10
tp298
a(g284
V6
p299
g10
tp300
a(g284
V7
p301
g10
tp302
a(g284
V8
p303
g10
tp304
a(g284
V9
p305
g10
tp306
a(g271
V15
p307
g10
tp308
a(V5*4/2
p309
V20
p310
g10
tp311
a(V5*4/2
p312
V20
p313
g10
tp314
a(g309
V25
p315
g10
tp316
a(g309
V125
p317
g10
tp318
a(V5*4/2
p319
V25
p320
g10
tp321
a(V5*4/2
p322
V25
p323
g10
tp324
a(g322
V20
p325
g10
tp326
a(V5*4/2
p327
V25
p328
g10
tp329
a(g327
V50
p330
g10
tp331
a(g327
V20
p332
g10
tp333
a(g327
V40
p334
g10
tp335
a(V5*4/2
p336
V20
p337
g10
tp338
a(g336
V30
p339
g10
tp340
a(g336
V20
p341
g10
tp342
a(g336
V40
p343
g10
tp344
a(g336
V19
p345
g10
tp346
a(g336
V20
p347
g10
tp348
a(V5*4/2
p349
V20
p350
g10
tp351
a(g349
V5
p352
g10
tp353
a(g349
V25
p354
g10
tp355
a(V5*4/2
p356
V50
p357
g10
tp358
a(g356
V39
p359
g10
tp360
a(g356
V20
p361
g10
tp362
a(g356
V25
p363
g10
tp364
a(g349
V5
p365
g10
tp366
a(g349
V9
p367
g10
tp368
a(V5*4/2
p369
V20
p370
g10
tp371
a(V5*4/2
p372
V120
p373
g10
tp374
a(g372
V25
p375
g10
tp376
a(g372
V120
p377
g10
tp378
a(g372
V5
p379
g10
tp380
a(g372
V3125
p381
g10
tp382
a(g372
V625
p383
g10
tp384
a(g372
V25827165
p385
g10
tp386
a(V5*4/2
p387
V20
p388
g10
tp389
a(V5*4/2
p390
V25
p391
g10
tp392
a(V5*4/2
p393
V25
p394
g10
tp395
a(V5*4/2
p396
V40
p397
g10
tp398
a(V5*4/2
p399
V25
p400
g10
tp401
a(g399
V50
p402
g10
tp403
a(g399
V40
p404
g10
tp405
a(g396
V15
p406
g10
tp407
a(V5*4/2
p408
V20
p409
g10
tp410
a(g322
V18
p411
g10
tp412
a(V5*4/2
p413
V20
p414
g10
tp415
a(V5*4/2
p416
V20
p417
g10
tp418
a(V5*4/2
p419
V15
p420
g10
tp421
a(V5*4/2
p422
V20
p423
g10
tp424
a(g422
V25
p425
g10
tp426
a(g422
V24
p427
g10
tp428
a(g422
V23
p429
g10
tp430
a(g422
V40
p431
g10
tp432
a(g422
V25
p433
g10
tp434
a(g422
V20
p435
g10
tp436
a(V5*4/2
p437
V120
p438
g10
tp439
a(g437
V20
p440
g10
tp441
a(g437
V25
p442
g10
tp443
a(V5*4/2
p444
V25
p445
g10
tp446
a(V5*4/2
p447
V25
p448
g10
tp449
a(g447
V40
p450
g10
tp451
a(g447
V39
p452
g10
tp453
a(g447
V24
p454
g10
tp455
a(V5*4/2
p456
V25
p457
g10
tp458
a(V5*4/2
p459
V20
p460
g10
tp461
a(g459
V25
p462
g10
tp463
a(g459
V40
p464
g10
tp465
a(V5*4/2
p466
V20
p467
g10
tp468
a(V5*4/2
p469
V25
p470
g10
tp471
a(V5*4/2
p472
V20
p473
g10
tp474
a(g459
V20
p475
g10
tp476
a(V5*4/2
p477
V20
p478
g10
tp479
a(V5*4/2
p480
V25
p481
g10
tp482
a(g480
V20
p483
g10
tp484
a(g480
V16
p485
g10
tp486
a(g480
V12
p487
g10
tp488
a(g480
V14
p489
g10
tp490
a(V5*4/2
p491
V20
p492
g10
tp493
a(V5*4/2
p494
V20
p495
g10
tp496
a(g494
V25
p497
g10
tp498
a(g494
V25
p499
g10
tp500
a(g494
V20
p501
g10
tp502
a(g494
V22
p503
g10
tp504
a(g494
V21
p505
g10
tp506
a(g494
V20
p507
g10
tp508
a(g494
V12
p509
g10
tp510
a(g494
V16
p511
g10
tp512
a(V5*4/2
p513
V20
p514
g10
tp515
a(V5*4/2
p516
V20
p517
g10
tp518
a(V5*4/2
p519
V20
p520
g10
tp521
a(V5*4/2
p522
V25
p523
g10
tp524
a(V5*4/2
p525
V20
p526
g10
tp527
a(V5*4/2
p528
V25
p529
g10
tp530
a(V5*4/2
p531
V20
p532
g10
tp533
a(V5*4/2
p534
V20
p535
g10
tp536
a(g534
V16
p537
g10
tp538
a(V5*4/2
p539
V25
p540
g10
tp541
a(g539
V20
p542
g10
tp543
a(g539
V16
p544
g10
tp545
a(V5*4/2
p546
V25
p547
g10
tp548
a(V5*4/2
p549
V25
p550
g10
tp551
a(V5*4/2
p552
V25
p553
g10
tp554
a(g552
V20
p555
g10
tp556
a(V5*4/2
p557
V25
p558
g10
tp559
a(g557
V20
p560
g10
tp561
a(g552
V40
p562
g10
tp563
a(g557
V40
p564
g10
tp565
a(g557
V50
p566
g10
tp567
a(g552
V60
p568
g10
tp569
a(g552
V24
p570
g10
tp571
a(g552
V40
p572
g10
tp573
a(g557
V20
p574
g10
tp575
a(g557
V25
p576
g10
tp577
a(V5*4/2
p578
V20
p579
g10
tp580
a(g578
V40
p581
g10
tp582
a(g522
V22957480
p583
g10
tp584
a(V5*4/2
p585
V25
p586
g10
tp587
a(g585
V20
p588
g10
tp589
a(g585
V16
p590
g10
tp591
a(V5*4/2
p592
V25
p593
g10
tp594
a(g592
V20
p595
g10
tp596
a(g592
V45
p597
g10
tp598
a(V5*4/2
p599
V25
p600
g10
tp601
a(g599
V18009460
p602
g10
tp603
a(g599
V20
p604
g10
tp605
a(V5*4/2
p606
V20
p607
g10
tp608
a(V5*4/2
p609
V120
p610
g10
tp611
a(V5*4/2
p612
V25
p613
g10
tp614
a(g612
V20
p615
g10
tp616
a(g612
V40
p617
g10
tp618
a(V5*4/2
p619
V3
p620
g10
tp621
a(V5*4/2
p622
V25
p623
g10
tp624
a(g622
V20
p625
g10
tp626
a(V5*4/2
p627
V60
p628
g10
tp629
a(V5*4/2
p630
V20
p631
g10
tp632
a(g630
V25
p633
g10
tp634
a(g630
V20
p635
g10
tp636
a(V5*4/2
p637
V25
p638
g10
tp639
a(g637
V20
p640
g10
tp641
a(V5*4/2
p642
V20
p643
g10
tp644
a(V5*4/2
p645
V25
p646
g10
tp647
a(g645
V20
p648
g10
tp649
a(V5*4/2
p650
V25
p651
g10
tp652
a(V5*4/2
p653
V20
p654
g10
tp655
a(V5*4/2
p656
V20
p657
g10
tp658
a(V5*4/2
p659
V20
p660
g10
tp661
a(V5*4/2
p662
V15
p663
g10
tp664
a(V5*4/2
p665
V25
p666
g10
tp667
a(g665
V20
p668
g10
tp669
a(g665
V15
p670
g10
tp671
a(V5*4/2
p672
V20
p673
g10
tp674
a(g672
V25
p675
g10
tp676
a(g672
V15
p677
g10
tp678
a(V5*4/2
p679
V20
p680
g10
tp681
a(V5*4/2
p682
V40
p683
g10
tp684
a(g682
V20
p685
g10
tp686
a(V5*4/2
p687
V25
p688
g10
tp689
a(g687
V20
p690
g10
tp691
a(V5*4/2
p692
V20
p693
g10
tp694
a(g692
V19
p695
g10
tp696
a(g692
V18
p697
g10
tp698
a(g692
V21
p699
g10
tp700
asS"['R.0.0']"
p701
(lp702
(V5*4/2
p703
V5! / 3!
p704
(lp705
(S'R.0.0'
p706
F5.0
V5
p707
g707
tp708
atp709
a(g95
V5! * 4!
p710
(lp711
(S'R.0.0'
p712
F5.0
g707
g707
tp713
atp714
a(g125
V5!/3!
p715
(lp716
(S'R.0.0'
p717
F5.0
g707
g707
tp718
atp719
a(g128
V(5!)/(3!)
p720
(lp721
(S'R.0.0'
p722
F5.0
g707
g707
tp723
atp724
a(V5*4/2
p725
V5!/(2!*(5-3)!)
p726
(lp727
(S'R.0.0'
p728
F5.0
g707
g707
tp729
atp730
a(g725
V5!/3!
p731
(lp732
(S'R.0.0'
p733
F5.0
g707
g707
tp734
atp735
a(V5*4/2
p736
V5!/(5-2)!
p737
(lp738
(S'R.0.0'
p739
F5.0
g707
g707
tp740
atp741
a(V5*4/2
p742
V(5!)/(5!*3!)
p743
(lp744
(S'R.0.0'
p745
F5.0
g707
g707
tp746
atp747
a(V5*4/2
p748
V5!/6
p749
(lp750
(S'R.0.0'
p751
F5.0
g707
g707
tp752
atp753
a(g189
V5!/(5-2)!
p754
(lp755
(S'R.0.0'
p756
F5.0
g707
g707
tp757
atp758
a(g194
V5!/3!
p759
(lp760
(S'R.0.0'
p761
F5.0
g707
g707
tp762
atp763
a(g200
V5!/3!
p764
(lp765
(S'R.0.0'
p766
F5.0
g707
g707
tp767
atp768
a(V5*4/2
p769
V(5!)/(3!)
p770
(lp771
(S'R.0.0'
p772
F5.0
g707
g707
tp773
atp774
a(g210
V5!/(5-2)!
p775
(lp776
(S'R.0.0'
p777
F5.0
g707
g707
tp778
atp779
a(V5*4/2
p780
V5!/(3!)
p781
(lp782
(S'R.0.0'
p783
F5.0
g707
g707
tp784
atp785
a(g319
V5!/3!
p786
(lp787
(S'R.0.0'
p788
F5.0
g707
g707
tp789
atp790
a(g356
V5!/3!
p791
(lp792
(S'R.0.0'
p793
F5.0
g707
g707
tp794
atp795
a(V5*4/2
p796
V5!/[(5-2)!]
p797
(lp798
(S'R.0.0'
p799
F5.0
g707
g707
tp800
atp801
a(g390
V5!(4!)
p802
(lp803
(S'R.0.0'
p804
F5.0
g707
g707
tp805
atp806
a(g396
V5!/(5-2)!
p807
(lp808
(S'R.0.0'
p809
F5.0
g707
g707
tp810
atp811
a(g399
V5!/(3!)
p812
(lp813
(S'R.0.0'
p814
F5.0
g707
g707
tp815
atp816
a(g422
V5!*4!
p817
(lp818
(S'R.0.0'
p819
F5.0
g707
g707
tp820
atp821
a(g422
V5!/(2!(5-3)!)
p822
(lp823
(S'R.0.0'
p824
F5.0
g707
g707
tp825
atp826
a(g422
V5!/(2!(5-2!))
p827
(lp828
(S'R.0.0'
p829
F5.0
g707
g707
tp830
atp831
a(V5*4/2
p832
V5!/3!
p833
(lp834
(S'R.0.0'
p835
F5.0
g707
g707
tp836
atp837
a(V5*4/2
p838
V5!/(5-2)!
p839
(lp840
(S'R.0.0'
p841
F5.0
g707
g707
tp842
atp843
a(V5*4/2
p844
V(5!)/(5-2)!
p845
(lp846
(S'R.0.0'
p847
F5.0
g707
g707
tp848
atp849
a(V5*4/2
p850
V5!/3!
p851
(lp852
(S'R.0.0'
p853
F5.0
g707
g707
tp854
atp855
a(g336
V5!/(2!(5!-2!))
p856
(lp857
(S'R.0.0'
p858
F5.0
g707
g707
tp859
atp860
a(V5*4/2
p861
V5!/(2!(5-3)!)
p862
(lp863
(S'R.0.0'
p864
F5.0
g707
g707
tp865
atp866
a(g687
V5!5!
p867
(lp868
(S'R.0.0'
p869
F5.0
g707
g707
tp870
atp871
a(g692
V5!/3!
p872
(lp873
(S'R.0.0'
p874
F5.0
g707
g707
tp875
atp876
asS'Nothing_clusters'
p877
g2
(g3
tp878
Rp879
S"['R.0.1']"
p880
(lp881
(V5+4+3+2+1
p882
Vzig006
p883
tp884
a(V5*4*2-5
p885
Vm4salaza
p886
tp887
a(V5 + 4 + 3 + 2 +1
p888
Vanislam
p889
tp890
a(V5*5-5
p891
Vlcardoso
p892
tp893
a(V2*5*4
p894
Vdruble
p895
tp896
asS"['R.0.0.0.0.0', 'R.0.0.0.0.1', 'R.0.0.0.1', 'R.0.0.1', 'R.0.1', 'R.1']"
p897
(lp898
(V50*49*48*47*46*45
p899
Vgsrandha
p900
tp901
a(V50+49+48+47+46+45
p902
Vxweng
p903
tp904
a(V50*49*48*47*46*45
p905
Vxweng
p906
tp907
asS"['R.1']"
p908
(lp909
(V5*4
p910
Vbtn023
p911
tp912
a(V2 * 5 * 4
p913
Vavasavad
p914
tp915
a(VC(5,4)
p916
Vs6deng
p917
tp918
a(VP(5,4)
p919
Vs6deng
p920
tp921
a(g894
g895
tp922
a(V5 * 4
p923
Vavasavad
p924
tp925
a(V5*4
p926
Vrbdoming
p927
tp928
a(V5*4
p929
Vmbl003
p930
tp931
a(VC(5,1)
p932
Vrbdoming
p933
tp934
a(VC(5,1)
p935
Vdsmonaha
p936
tp937
a(g882
g883
tp938
a(g888
g889
tp939
a(V5*4
p940
Vkgrozav
p941
tp942
a(V5*4
p943
Vacs008
p944
tp945
a(V5*5
p946
Vacs008
p947
tp948
a(V4*5
p949
Vrraiyyan
p950
tp951
a(g885
g886
tp952
a(V2^5
p953
Va8ho
p954
tp955
a(V25 - 5
p956
Vcagatep
p957
tp958
a(g891
g892
tp959
a(V5!/2!*3!
p960
Vsayao
p961
tp962
a(V53^6
p963
Vhah008
p964
tp965
a(V5*4
p966
Vggaddi
p967
tp968
a(V5*4
p969
Vt1tran
p970
tp971
a(V5*4
p972
Vdaw023
p973
tp974
a(V5 * 4
p975
Vany027
p976
tp977
a(V5 * 4 
p978
Vany027
p979
tp980
a(V4*3
p981
Vany027
p982
tp983
a(V5*3
p984
Vdtea
p985
tp986
a(V5 * 4!
p987
Vany027
p988
tp989
a(V5!/4!
p990
Vtcn013
p991
tp992
a(V5!/(5-1)!
p993
Vwhcombs
p994
tp995
a(V5*4
p996
Vlahawkin
p997
tp998
a(V5 * 5
p999
Vkebao
p1000
tp1001
a(V5*4
p1002
Vkquong
p1003
tp1004
a(V5*5
p1005
Vkquong
p1006
tp1007
a(V5*4
p1008
Vcstringh
p1009
tp1010
a(V5*5
p1011
Vcstringh
p1012
tp1013
a(V5*4
p1014
Vewbrenna
p1015
tp1016
a(V5*5
p1017
Vewbrenna
p1018
tp1019
a(V5*5
p1020
Vkthui
p1021
tp1022
a(V5 * 4
p1023
Vdando
p1024
tp1025
a(V5*5
p1026
Vkvass
p1027
tp1028
a(V5 * 4
p1029
Vcsl030
p1030
tp1031
a(V5*4
p1032
Vglcohen
p1033
tp1034
a(V5*4
p1035
Vnisharma
p1036
tp1037
a(V5*4
p1038
Vjap009
p1039
tp1040
a(V5*4
p1041
Vs2chaudh
p1042
tp1043
a(V5*5
p1044
Vs2chaudh
p1045
tp1046
a(V5*4
p1047
Vsachadal
p1048
tp1049
a(V5*4
p1050
Vklala
p1051
tp1052
a(V5*4
p1053
Vkalang
p1054
tp1055
a(V5*4
p1056
Vmsaguiar
p1057
tp1058
a(V5*4
p1059
Vccn001
p1060
tp1061
a(V5*4
p1062
Vs6deng
p1063
tp1064
a(V5*4
p1065
Vn2patil
p1066
tp1067
a(V5*4
p1068
Vwcwhite
p1069
tp1070
a(V5*4
p1071
Vcprafull
p1072
tp1073
a(V5*4
p1074
Vstarinia
p1075
tp1076
a(V5 * 4
p1077
Vjfalcone
p1078
tp1079
a(V5*4
p1080
Va8ho
p1081
tp1082
a(V5*4
p1083
Vwhcombs
p1084
tp1085
a(V5*4
p1086
Vctroncos
p1087
tp1088
a(V5*4
p1089
Vjmiclat
p1090
tp1091
a(V5*4
p1092
Vdlgoldbe
p1093
tp1094
a(V5*4
p1095
Vc1sorian
p1096
tp1097
a(V5*4
p1098
Vyhhan
p1099
tp1100
a(V5*4
p1101
Vh4tu
p1102
tp1103
a(V5*4
p1104
Vdtea
p1105
tp1106
a(V5*4
p1107
Vdruble
p1108
tp1109
a(V5 * 4
p1110
Vakhmelni
p1111
tp1112
a(V4*3
p1113
Vwcwhite
p1114
tp1115
a(V60^6
p1116
Vxweng
p1117
tp1118
a(V5*5
p1119
Vwhcombs
p1120
tp1121
a(V5*5
p1122
Vlcardoso
p1123
tp1124
asS"['R.0', 'R.1']"
p1125
(lp1126
(g960
g961
tp1127
a(g1116
g1117
tp1128
a(g990
g991
tp1129
a(g993
g994
tp1130
a(g916
g917
tp1131
a(g1065
g1066
tp1132
a(g1068
g1069
tp1133
a(g1071
g1072
tp1134
a(g1074
g1075
tp1135
a(g1077
g1078
tp1136
a(g1080
g1081
tp1137
a(V5*4
p1138
Vacs008
p1139
tp1140
a(g1083
g1084
tp1141
a(g1086
g1087
tp1142
a(g1089
g1090
tp1143
a(g1092
g1093
tp1144
a(g1095
g1096
tp1145
a(g1098
g1099
tp1146
a(g1101
g1102
tp1147
a(g1104
g1105
tp1148
a(g1107
g1108
tp1149
a(g1110
g1111
tp1150
a(g919
g920
tp1151
asS"['R.0']"
p1152
(lp1153
(g910
g911
tp1154
a(V5!
p1155
Vachava
p1156
tp1157
a(V5!
p1158
Vttimmons
p1159
tp1160
a(g946
g947
tp1161
a(V5!
p1162
Vany027
p1163
tp1164
a(g987
g988
tp1165
a(g999
g1000
tp1166
a(V5!
p1167
Vsippolit
p1168
tp1169
a(V5!
p1170
Veaherman
p1171
tp1172
a(g1005
g1006
tp1173
a(g1011
g1012
tp1174
a(V5!
p1175
Vcstringh
p1176
tp1177
a(g1017
g1018
tp1178
a(g1020
g1021
tp1179
a(g1026
g1027
tp1180
a(V5!
p1181
Vvasharma
p1182
tp1183
a(g1044
g1045
tp1184
a(V5!
p1185
Vkalang
p1186
tp1187
a(V5!
p1188
Vtcn013
p1189
tp1190
a(V5!
p1191
Vwcwhite
p1192
tp1193
a(g1119
g1120
tp1194
a(V5!
p1195
Vmuy002
p1196
tp1197
a(V5!
p1198
Vhah008
p1199
tp1200
a(g1122
g1123
tp1201
a(V5*5
p1202
Vc1sorian
p1203
tp1204
a(V5!
p1205
Vjhc010
p1206
tp1207
a(V5!
p1208
Vbpandayk
p1209
tp1210
a(V5*5
p1211
Vh4tu
p1212
tp1213
a(V5*5
p1214
Vdtea
p1215
tp1216
a(V5!
p1217
Vdtea
p1218
tp1219
a(g984
g985
tp1220
a(V5 * 5
p1221
Vakhmelni
p1222
tp1223
a(V5!
p1224
Vanislam
p1225
tp1226
a(g923
g924
tp1227
a(g926
g927
tp1228
a(g929
g930
tp1229
a(g940
g941
tp1230
a(g943
g944
tp1231
a(g966
g967
tp1232
a(g969
g970
tp1233
a(g972
g973
tp1234
a(g975
g976
tp1235
a(g978
g979
tp1236
a(g996
g997
tp1237
a(g1002
g1003
tp1238
a(g1008
g1009
tp1239
a(g1014
g1015
tp1240
a(g1023
g1024
tp1241
a(g1029
g1030
tp1242
a(g1032
g1033
tp1243
a(g1035
g1036
tp1244
a(g1038
g1039
tp1245
a(g1041
g1042
tp1246
a(g1047
g1048
tp1247
a(g1050
g1051
tp1248
a(g1053
g1054
tp1249
a(g1056
g1057
tp1250
a(g1059
g1060
tp1251
a(g1062
g1063
tp1252
a(g1065
g1066
tp1253
a(g1068
g1069
tp1254
a(g1071
g1072
tp1255
a(g1074
g1075
tp1256
a(g1077
g1078
tp1257
a(g1080
g1081
tp1258
a(g1083
g1084
tp1259
a(g1086
g1087
tp1260
a(g1089
g1090
tp1261
a(g1092
g1093
tp1262
a(g1095
g1096
tp1263
a(g1098
g1099
tp1264
a(g1101
g1102
tp1265
a(g1104
g1105
tp1266
a(g1107
g1108
tp1267
a(g1110
g1111
tp1268
a(g932
g933
tp1269
a(V4!
p1270
Vany027
p1271
tp1272
a(g981
g982
tp1273
a(g949
g950
tp1274
a(g1113
g1114
tp1275
a(V4!
p1276
Ve9brown
p1277
tp1278
a(V4!
p1279
Vjhc010
p1280
tp1281
a(V(25)!
p1282
Vvasharma
p1283
tp1284
a(V25/12
p1285
Vachinn
p1286
tp1287
a(g956
g957
tp1288
a(g891
g892
tp1289
a(V(52!)/(46!)
p1290
Vkmc012
p1291
tp1292
a(V(52!)/((46!)(6!))
p1293
Vkmc012
p1294
tp1295
a(g935
g936
tp1296
a(g913
g914
tp1297
a(V10*9
p1298
Vwcwhite
p1299
tp1300
a(g916
g917
tp1301
a(g919
g920
tp1302
a(g894
g895
tp1303
asS"['R.0.0.0.0.1', 'R.0.0.0.1', 'R.0.0.1', 'R.0.1']"
p1304
(lp1305
(V53*52*51*50*49*48
p1306
Vhah008
p1307
tp1308
a(V(54 * 53 * 52 * 51 * 50 * 49) / 5!
p1309
Vakhmelni
p1310
tp1311
asS"['R.0.0.0.0.1', 'R.0.0.0.1', 'R.0.0.1', 'R.0.1', 'R.1']"
p1312
(lp1313
(V51*50*49*48*47*46
p1314
Vgsrandha
p1315
tp1316
a(V52*51*50*49*48*47*46
p1317
Va8ho
p1318
tp1319
asS"['R']"
p1320
(lp1321
(g899
g900
tp1322
a(g905
g906
tp1323
a(g910
g911
tp1324
a(g923
g924
tp1325
a(g926
g927
tp1326
a(g929
g930
tp1327
a(g940
g941
tp1328
a(g943
g944
tp1329
a(g966
g967
tp1330
a(g969
g970
tp1331
a(g972
g973
tp1332
a(g975
g976
tp1333
a(g978
g979
tp1334
a(g996
g997
tp1335
a(g1002
g1003
tp1336
a(g1008
g1009
tp1337
a(g1014
g1015
tp1338
a(g1023
g1024
tp1339
a(g1029
g1030
tp1340
a(g1032
g1033
tp1341
a(g1035
g1036
tp1342
a(g1038
g1039
tp1343
a(g1041
g1042
tp1344
a(g1047
g1048
tp1345
a(g1050
g1051
tp1346
a(g1053
g1054
tp1347
a(g1056
g1057
tp1348
a(g1059
g1060
tp1349
a(g1062
g1063
tp1350
a(g949
g950
tp1351
a(g1065
g1066
tp1352
a(g1068
g1069
tp1353
a(g1071
g1072
tp1354
a(g1074
g1075
tp1355
a(g1077
g1078
tp1356
a(g1080
g1081
tp1357
a(g1083
g1084
tp1358
a(g1086
g1087
tp1359
a(g1089
g1090
tp1360
a(g956
g957
tp1361
a(g1092
g1093
tp1362
a(g891
g892
tp1363
a(g1095
g1096
tp1364
a(g1098
g1099
tp1365
a(g1101
g1102
tp1366
a(g1104
g1105
tp1367
a(g1107
g1108
tp1368
a(g1110
g1111
tp1369
a(g1155
g1156
tp1370
a(g1158
g1159
tp1371
a(g1162
g1163
tp1372
a(g987
g988
tp1373
a(g1167
g1168
tp1374
a(g1170
g1171
tp1375
a(g1175
g1176
tp1376
a(g1181
g1182
tp1377
a(g1185
g1186
tp1378
a(g1188
g1189
tp1379
a(g1191
g1192
tp1380
a(g1195
g1196
tp1381
a(g1198
g1199
tp1382
a(g1205
g1206
tp1383
a(g1208
g1209
tp1384
a(g1217
g1218
tp1385
a(g1224
g1225
tp1386
a(g946
g947
tp1387
a(g999
g1000
tp1388
a(g1005
g1006
tp1389
a(g1011
g1012
tp1390
a(g1017
g1018
tp1391
a(g1020
g1021
tp1392
a(g1026
g1027
tp1393
a(g1044
g1045
tp1394
a(g1119
g1120
tp1395
a(g1122
g1123
tp1396
a(g1202
g1203
tp1397
a(g1211
g1212
tp1398
a(g1214
g1215
tp1399
a(g1221
g1222
tp1400
a(g1270
g1271
tp1401
a(g1276
g1277
tp1402
a(g1279
g1280
tp1403
a(g981
g982
tp1404
a(g1113
g1114
tp1405
a(g1290
g1291
tp1406
a(V52*51*50*49*48*47
p1407
Va8ho
p1408
tp1409
a(g882
g883
tp1410
a(g984
g985
tp1411
a(g888
g889
tp1412
a(g913
g914
tp1413
a(g894
g895
tp1414
a(g1306
g1307
tp1415
assS"['R.1']"
p1416
(lp1417
(g63
VP(5,2)
p1418
(lp1419
(S'R.1'
p1420
F2.0
V2
p1421
g1421
tp1422
atp1423
a(g63
VP(4,2)
p1424
(lp1425
(S'R.1'
p1426
F2.0
g1421
g1421
tp1427
atp1428
a(V5*4/2
p1429
V5^2
p1430
(lp1431
(S'R.1'
p1432
F2.0
g1421
g1421
tp1433
atp1434
a(V5*4/2
p1435
VP(5,2)
p1436
(lp1437
(S'R.1'
p1438
F2.0
g1421
g1421
tp1439
atp1440
a(g229
V25/2!
p1441
(lp1442
(S'R.1'
p1443
F2.0
g1421
V2!
p1444
tp1445
atp1446
a(g271
V11/2
p1447
(lp1448
(S'R.1'
p1449
F2.0
g1421
g1421
tp1450
atp1451
a(g349
V5+4+3+2
p1452
(lp1453
(S'R.1'
p1454
F2.0
g1421
g1421
tp1455
atp1456
a(g832
V5^2
p1457
(lp1458
(S'R.1'
p1459
F2.0
g1421
g1421
tp1460
atp1461
a(g850
V5^2
p1462
(lp1463
(S'R.1'
p1464
F2.0
g1421
g1421
tp1465
atp1466
a(V5*4/2
p1467
VC(6,2)
p1468
(lp1469
(S'R.1'
p1470
F2.0
g1421
g1421
tp1471
atp1472
a(V5*4/2
p1473
VC(10,2)
p1474
(lp1475
(S'R.1'
p1476
F2.0
g1421
g1421
tp1477
atp1478
a(g1473
VC(9,2)
p1479
(lp1480
(S'R.1'
p1481
F2.0
g1421
g1421
tp1482
atp1483
a(g692
V5 + 4 + 3 + 2
p1484
(lp1485
(S'R.1'
p1486
F2.0
g1421
g1421
tp1487
atp1488
asS"['R.0', 'R.1']"
p1489
(lp1490
(V5*4/2
p1491
V5*4*2
p1492
(lp1493
(S'R.0'
p1494
F20.0
V5*4
p1495
V5*4
p1496
tp1497
a(S'R.1'
p1498
F2.0
g1421
g1421
tp1499
atp1500
a(V5*4/2
p1501
V5*4*2
p1502
(lp1503
(S'R.0'
p1504
F20.0
V5*4
p1505
V5*4
p1506
tp1507
a(S'R.1'
p1508
F2.0
g1421
g1421
tp1509
atp1510
a(g769
V(5!)/(3!)(2!)
p1511
(lp1512
(S'R.0'
p1513
F20.0
V5*4
p1514
V(5!)/(3!)
p1515
tp1516
a(S'R.1'
p1517
F2.0
g1421
V2!
p1518
tp1519
atp1520
a(g399
V5*4*2
p1521
(lp1522
(S'R.0'
p1523
F20.0
V5*4
p1524
V5*4
p1525
tp1526
a(S'R.1'
p1527
F2.0
g1421
g1421
tp1528
atp1529
a(g422
V5*4*2
p1530
(lp1531
(S'R.0'
p1532
F20.0
V5*4
p1533
V5*4
p1534
tp1535
a(S'R.1'
p1536
F2.0
g1421
g1421
tp1537
atp1538
a(V5*4/2
p1539
V5*4*2
p1540
(lp1541
(S'R.0'
p1542
F20.0
V5*4
p1543
V5*4
p1544
tp1545
a(S'R.1'
p1546
F2.0
g1421
g1421
tp1547
atp1548
a(V5*4/2
p1549
V5*4*2
p1550
(lp1551
(S'R.0'
p1552
F20.0
V5*4
p1553
V5*4
p1554
tp1555
a(S'R.1'
p1556
F2.0
g1421
g1421
tp1557
atp1558
a(g609
V5*4*2
p1559
(lp1560
(S'R.0'
p1561
F20.0
V5*4
p1562
V5*4
p1563
tp1564
a(S'R.1'
p1565
F2.0
g1421
g1421
tp1566
atp1567
asS"['R.0']"
p1568
(lp1569
(g144
V5*4*3
p1570
(lp1571
(S'R.0'
p1572
F20.0
V5*4
p1573
V5*4
p1574
tp1575
atp1576
a(g229
V20/3
p1577
(lp1578
(S'R.0'
p1579
F20.0
V5*4
p1580
V20
p1581
tp1582
atp1583
a(V5*4/2
p1584
V5*4*3
p1585
(lp1586
(S'R.0'
p1587
F20.0
V5*4
p1588
V5*4
p1589
tp1590
atp1591
a(g1539
V5*4-5
p1592
(lp1593
(S'R.0'
p1594
F20.0
V5*4
p1595
V5*4
p1596
tp1597
atp1598
a(g1473
V5*4 - 5
p1599
(lp1600
(S'R.0'
p1601
F20.0
V5*4
p1602
V5*4
p1603
tp1604
atp1605
asS'Nothing'
p1606
(lp1607
(V5*4/2
p1608
V54*53*52*51*50*49
p1609
(lp1610
(lp1611
S'*'
p1612
aF18595558800.0
a(lp1613
I0
aI16
aaS'R'
p1614
aa(lp1615
(lp1616
g1612
aF379501200.0
a(lp1617
I0
aI13
aaS'R.0'
p1618
aa(lp1619
(lp1620
g1612
aF7590024.0
a(lp1621
I0
aI10
aaS'R.0.0'
p1622
aa(lp1623
(lp1624
g1612
aF148824.0
a(lp1625
I0
aI7
aaS'R.0.0.0'
p1626
aa(lp1627
(lp1628
g1612
aF2862.0
a(lp1629
I0
aI4
aaS'R.0.0.0.0'
p1630
aa(lp1631
S'X'
p1632
aF54.0
a(lp1633
I0
aI1
aaS'R.0.0.0.0.0'
p1634
aa(lp1635
g1632
aF53.0
a(lp1636
I3
aI4
aaS'R.0.0.0.0.1'
p1637
aaa(lp1638
g1632
aF52.0
a(lp1639
I6
aI7
aaS'R.0.0.0.1'
p1640
aaa(lp1641
g1632
aF51.0
a(lp1642
I9
aI10
aaS'R.0.0.1'
p1643
aaa(lp1644
g1632
aF50.0
a(lp1645
I12
aI13
aaS'R.0.1'
p1646
aaa(lp1647
g1632
aF49.0
a(lp1648
I15
aI16
aaS'R.1'
p1649
aaVlahawkin
p1650
tp1651
a(g349
V50!/(6!44!)
p1652
(lp1653
(lp1654
S'/'
p1655
aF15890700.0
a(lp1656
I0
aI10
aag1614
aa(lp1657
(lp1658
S'!'
p1659
aL30414093201713378043612608166064768844377641568960512000000000000L
a(lp1660
I0
aI2
aaS'R.0'
p1661
aa(lp1662
g1632
aF50.0
a(lp1663
I0
aI1
aaS'R.0.0'
p1664
aaa(lp1665
(lp1666
g1612
aF1.913955533847683e+57
a(lp1667
I5
aI9
aaS'R.1'
p1668
aa(lp1669
(lp1670
g1659
aI720
a(lp1671
I5
aI6
aaS'R.1.0'
p1672
aa(lp1673
g1632
aF6.0
a(lp1674
I5
aI5
aaS'R.1.0.0'
p1675
aaa(lp1676
(lp1677
g1659
aL2658271574788448768043625811014615890319638528000000000L
a(lp1678
I7
aI9
aaS'R.1.1'
p1679
aa(lp1680
g1632
aF44.0
a(lp1681
I7
aI8
aaS'R.1.1.0'
p1682
aaaaVzig006
p1683
tp1684
a(g1539
V48*47*46*45*44*43
p1685
(lp1686
(lp1687
g1612
aF8835488640.0
a(lp1688
I0
aI16
aag1614
aa(lp1689
(lp1690
g1612
aF205476480.0
a(lp1691
I0
aI13
aaS'R.0'
p1692
aa(lp1693
(lp1694
g1612
aF4669920.0
a(lp1695
I0
aI10
aaS'R.0.0'
p1696
aa(lp1697
(lp1698
g1612
aF103776.0
a(lp1699
I0
aI7
aaS'R.0.0.0'
p1700
aa(lp1701
(lp1702
g1612
aF2256.0
a(lp1703
I0
aI4
aaS'R.0.0.0.0'
p1704
aa(lp1705
g1632
aF48.0
a(lp1706
I0
aI1
aaS'R.0.0.0.0.0'
p1707
aa(lp1708
g1632
aF47.0
a(lp1709
I3
aI4
aaS'R.0.0.0.0.1'
p1710
aaa(lp1711
g1632
aF46.0
a(lp1712
I6
aI7
aaS'R.0.0.0.1'
p1713
aaa(lp1714
g1632
aF45.0
a(lp1715
I9
aI10
aaS'R.0.0.1'
p1716
aaa(lp1717
g1632
aF44.0
a(lp1718
I12
aI13
aaS'R.0.1'
p1719
aaa(lp1720
g1632
aF43.0
a(lp1721
I15
aI16
aaS'R.1'
p1722
aaVm4salaza
p1723
tp1724
asS"['R.0.0', 'R.1']"
p1725
(lp1726
(V5*4/2
p1727
V5^2/2
p1728
(lp1729
(S'R.0.0'
p1730
F5.0
g707
g707
tp1731
a(S'R.1'
p1732
F2.0
g1421
g1421
tp1733
atp1734
a(g125
V5!/2!
p1735
(lp1736
(S'R.0.0'
p1737
F5.0
g707
g707
tp1738
a(S'R.1'
p1739
F2.0
g1421
V2!
p1740
tp1741
atp1742
a(V5*4/2
p1743
V5*5*2
p1744
(lp1745
(S'R.0.0'
p1746
F5.0
g707
g707
tp1747
a(S'R.1'
p1748
F2.0
g1421
g1421
tp1749
atp1750
a(g769
V(5)^2/(2!)
p1751
(lp1752
(S'R.0.0'
p1753
F5.0
g707
g707
tp1754
a(S'R.1'
p1755
F2.0
g1421
V2!
p1756
tp1757
atp1758
a(g769
V(5!)/(2!)
p1759
(lp1760
(S'R.0.0'
p1761
F5.0
g707
g707
tp1762
a(S'R.1'
p1763
F2.0
g1421
V2!
p1764
tp1765
atp1766
a(V5*4/2
p1767
V5*5/2!
p1768
(lp1769
(S'R.0.0'
p1770
F5.0
g707
g707
tp1771
a(S'R.1'
p1772
F2.0
g1421
V2!
p1773
tp1774
atp1775
a(g319
V5!/2!
p1776
(lp1777
(S'R.0.0'
p1778
F5.0
g707
g707
tp1779
a(S'R.1'
p1780
F2.0
g1421
V2!
p1781
tp1782
atp1783
a(g390
V5!/2!
p1784
(lp1785
(S'R.0.0'
p1786
F5.0
g707
g707
tp1787
a(S'R.1'
p1788
F2.0
g1421
V2!
p1789
tp1790
atp1791
a(g422
V5!*2
p1792
(lp1793
(S'R.0.0'
p1794
F5.0
g707
g707
tp1795
a(S'R.1'
p1796
F2.0
g1421
g1421
tp1797
atp1798
a(V5*4/2
p1799
V5*5/2
p1800
(lp1801
(S'R.0.0'
p1802
F5.0
g707
g707
tp1803
a(S'R.1'
p1804
F2.0
g1421
g1421
tp1805
atp1806
a(g838
V5!/(5-3)!
p1807
(lp1808
(S'R.0.0'
p1809
F5.0
g707
g707
tp1810
a(S'R.1'
p1811
F2.0
g1421
V(5-3)!
p1812
tp1813
atp1814
a(V5*4/2
p1815
V(5!)/(2!)
p1816
(lp1817
(S'R.0.0'
p1818
F5.0
g707
g707
tp1819
a(S'R.1'
p1820
F2.0
g1421
V2!
p1821
tp1822
atp1823
a(g619
V5!/2!
p1824
(lp1825
(S'R.0.0'
p1826
F5.0
g707
g707
tp1827
a(S'R.1'
p1828
F2.0
g1421
V2!
p1829
tp1830
atp1831
a(V5*4/2
p1832
V5*5/2
p1833
(lp1834
(S'R.0.0'
p1835
F5.0
g707
g707
tp1836
a(S'R.1'
p1837
F2.0
g1421
g1421
tp1838
atp1839
a(g692
V5!/2!
p1840
(lp1841
(S'R.0.0'
p1842
F5.0
g707
g707
tp1843
a(S'R.1'
p1844
F2.0
g1421
V2!
p1845
tp1846
atp1847
assV2
p1848
g2
(g3
tp1849
Rp1850
g6
(lp1851
(V51*(51-1)*(51-2)*(51-3)*(51-4)*(51-5)/(6*5*4*3*2)
p1852
V12966811200
p1853
g10
tp1854
a(V52*(52-1)*(52-2)*(52-3)*(52-4)*(52-5)/(6*5*4*3*2)
p1855
V433160
p1856
g10
tp1857
a(g1855
V6497400
p1858
g10
tp1859
a(g1855
V14658134400
p1860
g10
tp1861
a(V48*(48-1)*(48-2)*(48-3)*(48-4)*(48-5)/(6*5*4*3*2)
p1862
V205476480
p1863
g10
tp1864
a(g1862
V8835488640
p1865
g10
tp1866
a(V48*(48-1)*(48-2)*(48-3)*(48-4)*(48-5)/(6*5*4*3*2)
p1867
V194580
p1868
g10
tp1869
a(V48*(48-1)*(48-2)*(48-3)*(48-4)*(48-5)/(6*5*4*3*2)
p1870
V8835488640
p1871
g10
tp1872
a(V49*(49-1)*(49-2)*(49-3)*(49-4)*(49-5)/(6*5*4*3*2)
p1873
V10068347520
p1874
g10
tp1875
a(g1873
V432938943360
p1876
g10
tp1877
a(g1873
V601304088
p1878
g10
tp1879
a(V50*(50-1)*(50-2)*(50-3)*(50-4)*(50-5)/(6*5*4*3*2)
p1880
V11441304000
p1881
g10
tp1882
a(V51*(51-1)*(51-2)*(51-3)*(51-4)*(51-5)/(6*5*4*3*2)
p1883
V12966811200
p1884
g10
tp1885
a(V55*(55-1)*(55-2)*(55-3)*(55-4)*(55-5)/(6*5*4*3*2)
p1886
V86969025
p1887
g10
tp1888
a(V53*(53-1)*(53-2)*(53-3)*(53-4)*(53-5)/(6*5*4*3*2)
p1889
V16529385600
p1890
g10
tp1891
a(V50*(50-1)*(50-2)*(50-3)*(50-4)*(50-5)/(6*5*4*3*2)
p1892
V254251200
p1893
g10
tp1894
a(g1892
V11441304000
p1895
g10
tp1896
a(V51*(51-1)*(51-2)*(51-3)*(51-4)*(51-5)/(6*5*4*3*2)
p1897
V291
p1898
g10
tp1899
a(V54*(54-1)*(54-2)*(54-3)*(54-4)*(54-5)/(6*5*4*3*2)
p1900
V18595558800
p1901
g10
tp1902
a(V51*(51-1)*(51-2)*(51-3)*(51-4)*(51-5)/(6*5*4*3*2)
p1903
V12966811200
p1904
g10
tp1905
a(V50*(50-1)*(50-2)*(50-3)*(50-4)*(50-5)/(6*5*4*3*2)
p1906
V990
p1907
g10
tp1908
a(V48*(48-1)*(48-2)*(48-3)*(48-4)*(48-5)/(6*5*4*3*2)
p1909
V1712304
p1910
g10
tp1911
a(V53*(53-1)*(53-2)*(53-3)*(53-4)*(53-5)/(6*5*4*3*2)
p1912
V16529385600
p1913
g10
tp1914
a(V54*(54-1)*(54-2)*(54-3)*(54-4)*(54-5)/(6*5*4*3*2)
p1915
V4825827165
p1916
g10
tp1917
a(V53*(53-1)*(53-2)*(53-3)*(53-4)*(53-5)/(6*5*4*3*2)
p1918
V16529385600
p1919
g10
tp1920
a(V55*(55-1)*(55-2)*(55-3)*(55-4)*(55-5)/(6*5*4*3*2)
p1921
V20872566000
p1922
g10
tp1923
a(V51*(51-1)*(51-2)*(51-3)*(51-4)*(51-5)/(6*5*4*3*2)
p1924
V13475313600
p1925
g10
tp1926
a(g1924
V12966811200
p1927
g10
tp1928
a(g1924
V12966811200
p1929
g10
tp1930
a(g1924
V11441304000
p1931
g10
tp1932
a(V51*(51-1)*(51-2)*(51-3)*(51-4)*(51-5)/(6*5*4*3*2)
p1933
V12966811200
p1934
g10
tp1935
a(g1924
V12966811200
p1936
g10
tp1937
a(g1924
V77800867200
p1938
g10
tp1939
a(V51*(51-1)*(51-2)*(51-3)*(51-4)*(51-5)/(6*5*4*3*2)
p1940
V15890700
p1941
g10
tp1942
a(V48*(48-1)*(48-2)*(48-3)*(48-4)*(48-5)/(6*5*4*3*2)
p1943
V8835488640
p1944
g10
tp1945
a(V49*(49-1)*(49-2)*(49-3)*(49-4)*(49-5)/(6*5*4*3*2)
p1946
V15890700
p1947
g10
tp1948
a(V53*(53-1)*(53-2)*(53-3)*(53-4)*(53-5)/(6*5*4*3*2)
p1949
V318
p1950
g10
tp1951
a(V50*(50-1)*(50-2)*(50-3)*(50-4)*(50-5)/(6*5*4*3*2)
p1952
V11192580000
p1953
g10
tp1954
a(V50*(50-1)*(50-2)*(50-3)*(50-4)*(50-5)/(6*5*4*3*2)
p1955
V254251200
p1956
g10
tp1957
a(g1955
V127125600
p1958
g10
tp1959
a(g1955
V5720652000
p1960
g10
tp1961
a(V49*(49-1)*(49-2)*(49-3)*(49-4)*(49-5)/(6*5*4*3*2)
p1962
V10068347520
p1963
g10
tp1964
a(g1962
V1678057920
p1965
g10
tp1966
a(V50*(50-1)*(50-2)*(50-3)*(50-4)*(50-5)/(6*5*4*3*2)
p1967
V20358520
p1968
g10
tp1969
a(V53*(53-1)*(53-2)*(53-3)*(53-4)*(53-5)/(6*5*4*3*2)
p1970
V16529385600
p1971
g10
tp1972
a(g1970
V20150813696
p1973
g10
tp1974
a(V51*(51-1)*(51-2)*(51-3)*(51-4)*(51-5)/(6*5*4*3*2)
p1975
V5402838000
p1976
g10
tp1977
a(g1975
V540283800
p1978
g10
tp1979
a(V52*(52-1)*(52-2)*(52-3)*(52-4)*(52-5)/(6*5*4*3*2)
p1980
V104
p1981
g10
tp1982
a(V50*(50-1)*(50-2)*(50-3)*(50-4)*(50-5)/(6*5*4*3*2)
p1983
V20358520
p1984
g10
tp1985
asg877
g2
(g3
tp1986
Rp1987
S"['R.0.0.0.0.0', 'R.0.0.0.0.1', 'R.0.0.0.1', 'R.0.0.1', 'R.0.1', 'R.1']"
p1988
(lp1989
(V54*53*52*51*50*49
p1990
Vvsamant
p1991
tp1992
a(V54+53+52+51+50+49
p1993
Vjcj006
p1994
tp1995
a(V54 +53 + 52 +51+50+49
p1996
Ve9brown
p1997
tp1998
a(V54*53*52*51*50*49
p1999
Vasetters
p2000
tp2001
a(V50 * 49 * 48 * 47 * 46 * 45
p2002
Vany027
p2003
tp2004
a(V50+49+48+47+46+45
p2005
Vxweng
p2006
tp2007
a(V54*53*52*51*50*49
p2008
Vsippolit
p2009
tp2010
a(V52*51*50*49*48*47
p2011
Vewbrenna
p2012
tp2013
a(V52+51+50+49+48+47
p2014
Vdkostins
p2015
tp2016
a(V54*53*52*51*50*49
p2017
Varc013
p2018
tp2019
a(V52*51*50*49*48*47
p2020
Vhaw081
p2021
tp2022
a(V52*51*50*49*48*47
p2023
Vs2chaudh
p2024
tp2025
a(V52*51*50*49*48*47
p2026
Vsachadal
p2027
tp2028
a(V54*53*52*51*50*49
p2029
Vmrchin
p2030
tp2031
a(V52*51*50*49*48*47
p2032
Vdkostins
p2033
tp2034
a(V52*51*50*49*48*47
p2035
Vajabasa
p2036
tp2037
a(V52*51*50*49*48*47
p2038
Vccn001
p2039
tp2040
a(V52*51*50*49*48*47
p2041
Vcprafull
p2042
tp2043
a(V52*51*50*49*48*47
p2044
Vzhw110
p2045
tp2046
a(V52*51*50*49*48*47
p2047
Vdis003
p2048
tp2049
a(V52*51*50*49*48*47
p2050
Vbpandayk
p2051
tp2052
a(V54*53*52*51*50*49
p2053
Vjel075
p2054
tp2055
a(V50*49*48*47*46*45
p2056
Vctgraves
p2057
tp2058
a(V50*49*48*47*46*45
p2059
Vzig006
p2060
tp2061
a(V54*53*52*51*50*49
p2062
Vmsaguiar
p2063
tp2064
a(V54*53*52*51*50*49
p2065
Vn2patil
p2066
tp2067
a(V50*49*48*47*46*45
p2068
Vxweng
p2069
tp2070
a(V50*49*48*47*46*45
p2071
Vrsmurlo
p2072
tp2073
a(V(50*49*48*47*46*45)
p2074
Vh4tu
p2075
tp2076
a(V50*49*48*47*46*45
p2077
Vsyc078
p2078
tp2079
a(V54*53*52*51*50*49
p2080
Vjcj006
p2081
tp2082
a(V54*53*52*51*50*49
p2083
Ve9brown
p2084
tp2085
a(V54*53*52*51*50*49
p2086
Vlcardoso
p2087
tp2088
a(V54*53*52*51*50*49
p2089
Vv4zhang
p2090
tp2091
a(V54*53*52*51*50*49
p2092
Vr1gu
p2093
tp2094
asS"['R.1']"
p2095
(lp2096
(V50!/(44!)
p2097
Vyypan
p2098
tp2099
a(V49!/(44!)
p2100
Vs6deng
p2101
tp2102
a(V50!/(45!)
p2103
Vyypan
p2104
tp2105
a(V51! / (51-6)!
p2106
Vkrkelkar
p2107
tp2108
a(V(51!)/(51-6)!
p2109
Vjfalcone
p2110
tp2111
a(V51!/((51-6)!)
p2112
Vasp025
p2113
tp2114
a(V(54*53*52*51*50*49)/(6)
p2115
Vmtrafeca
p2116
tp2117
a(V55*55*55*55*55*55/(6)
p2118
Vmtrafeca
p2119
tp2120
a(VP(55,6)
p2121
Vrbdoming
p2122
tp2123
a(V(50 6)
p2124
Vasrana
p2125
tp2126
a(VP(54,6)
p2127
Vthwan
p2128
tp2129
a(V50*6
p2130
Vkvass
p2131
tp2132
a(V53!*6
p2133
Vwcwhite
p2134
tp2135
a(V5!/3!
p2136
Vs6deng
p2137
tp2138
a(V48*6
p2139
Vagoldsht
p2140
tp2141
a(V48^6
p2142
Vm4salaza
p2143
tp2144
a(V48*47/6
p2145
Vm4salaza
p2146
tp2147
a(V53^6
p2148
Vq3wen
p2149
tp2150
a(V53*6
p2151
Vtstevens
p2152
tp2153
a(V(48*47*46*45*44*43*42)/6
p2154
Vdlgoldbe
p2155
tp2156
a(V51^6
p2157
Vc1wei
p2158
tp2159
a(V55*6
p2160
Vm4bui
p2161
tp2162
a(V(49*49*49*49*49*49)/(6)
p2163
Vhmshah
p2164
tp2165
a(V6*53
p2166
Vawollner
p2167
tp2168
a(V54*53
p2169
Vggaddi
p2170
tp2171
a(V6*48
p2172
Vajvanega
p2173
tp2174
a(V53*52*51*50*49*48
p2175
Vacs008
p2176
tp2177
a(V53*52*51*50*49*48
p2178
Vacvuong
p2179
tp2180
a(V53*52*51*50*49*48
p2181
Vkbielawi
p2182
tp2183
a(V53*52*51*50*49*48
p2184
Vwcwhite
p2185
tp2186
a(V53*52*51*50*49*48
p2187
Vtstevens
p2188
tp2189
a(V51*50*49*48
p2190
Vjjchung
p2191
tp2192
a(V6!*48
p2193
Vbkoli
p2194
tp2195
a(V55!/49!
p2196
Vjeqin
p2197
tp2198
a(V55!/6!49!
p2199
Vlpettit
p2200
tp2201
a(V54!53!52!51!50!49!
p2202
Vamquinte
p2203
tp2204
a(V(49!)/(49!-6!)
p2205
Vdcgriffi
p2206
tp2207
a(V55!/48!
p2208
Vjeqin
p2209
tp2210
a(V(54!)/((54-6)!)
p2211
Vvolim
p2212
tp2213
a(V54!/(54-6)!
p2214
Vtpmach
p2215
tp2216
a(V54!(54-6)!
p2217
Vvasharma
p2218
tp2219
a(V54!/(54-6)!
p2220
Vjel075
p2221
tp2222
a(V53!*52!*51!*50!*49!*48!
p2223
Vwcwhite
p2224
tp2225
a(V54!/48!
p2226
Vdkurli
p2227
tp2228
a(V(54!)/(54-6)!
p2229
Vctroncos
p2230
tp2231
a(V54! - 48!
p2232
Ve9brown
p2233
tp2234
a(V(54!) - (48!)
p2235
Ve9brown
p2236
tp2237
a(VP(54,2)
p2238
Vrbdoming
p2239
tp2240
a(V52*48*44*40*36*32/2
p2241
Vcprafull
p2242
tp2243
a(V5!/2!
p2244
Vs6deng
p2245
tp2246
a(V(50*49)/2
p2247
Vnhn018
p2248
tp2249
a(V50*49*48*47*46*45*44/2
p2250
Vdtea
p2251
tp2252
a(VC(55,1)
p2253
Vrbdoming
p2254
tp2255
a(V(51*50*49*48*47*46)/2-1
p2256
Vjjchung
p2257
tp2258
a(V(51*50*49*48*47*46)/2+1
p2259
Vjjchung
p2260
tp2261
a(VC(49,1)
p2262
Vb1green
p2263
tp2264
a(V50!-45!
p2265
Vxweng
p2266
tp2267
a(V49*48*47*46*45*44
p2268
Vdaw023
p2269
tp2270
a(VP(50,44)
p2271
Vs6deng
p2272
tp2273
a(V6!/(52!*(52-6)!)
p2274
Vewbrenna
p2275
tp2276
a(V52!/(52!*(52-6)!)
p2277
Vewbrenna
p2278
tp2279
a(V49*48*47*46*45*44
p2280
Vlrlai
p2281
tp2282
a(V47*46*45*44
p2283
Vglcohen
p2284
tp2285
a(V55!/49!
p2286
Vlpettit
p2287
tp2288
a(V(55!)/(49!)
p2289
Vcagatep
p2290
tp2291
a(V54*53*52
p2292
Vvasharma
p2293
tp2294
a(V6*52
p2295
Vb3hwang
p2296
tp2297
a(V54!/((6!)(49!))
p2298
Vmsaguiar
p2299
tp2300
a(V53!/(6!(55-6)!)
p2301
Vwcwhite
p2302
tp2303
a(V(55!)/[6! * 49!]
p2304
Vv4zhang
p2305
tp2306
a(V50!/(44!)
p2307
Vs6deng
p2308
tp2309
a(V50!/44!
p2310
Vnhn018
p2311
tp2312
a(V50!-44!
p2313
Vxweng
p2314
tp2315
a(V50!/44!
p2316
Vt2shin
p2317
tp2318
a(V50!/(44!)
p2319
Vh4tu
p2320
tp2321
a(V49*48*47*46*45*44
p2322
Vachinn
p2323
tp2324
a(V49*48*47*46*45*44
p2325
Vksmurlo
p2326
tp2327
a(V49*48*47*46*45*44
p2328
Vazkong
p2329
tp2330
a(V49*48*47*46*45*44
p2331
Vwhcombs
p2332
tp2333
asS"['R.0.0', 'R.1']"
p2334
(lp2335
(g1990
g1991
tp2336
a(V54*53*52*51*51*49
p2337
Vsippolit
p2338
tp2339
a(g1999
g2000
tp2340
a(g2008
g2009
tp2341
a(g2017
g2018
tp2342
a(g2029
g2030
tp2343
a(g2053
g2054
tp2344
a(g2062
g2063
tp2345
a(g2065
g2066
tp2346
a(g2080
g2081
tp2347
a(g2083
g2084
tp2348
a(g2086
g2087
tp2349
a(g2089
g2090
tp2350
a(g2092
g2093
tp2351
asS"['R.0.1']"
p2352
(lp2353
(V55*54*53*52*51*50
p2354
Vqfu
p2355
tp2356
a(g2337
g2338
tp2357
a(V55*54*53*52*51*50
p2358
Vmtrafeca
p2359
tp2360
a(V51 * 50 * 49 * 48 * 47 * 46
p2361
Vavasavad
p2362
tp2363
a(g2145
g2146
tp2364
a(g2115
g2116
tp2365
a(g2247
g2248
tp2366
a(V51*50*49*48*47*46
p2367
Vtcuddy
p2368
tp2369
a(V55*54*53*52*51*50
p2370
Vjeqin
p2371
tp2372
a(V55*54*53*52*51*50
p2373
Vrbdoming
p2374
tp2375
a(V55*54*53*52*51*50
p2376
Vmbl003
p2377
tp2378
a(g2175
g2176
tp2379
a(g2163
g2164
tp2380
a(V54*53*52*51*50
p2381
Vggaddi
p2382
tp2383
a(V50*49*48*47*46
p2384
Vkquong
p2385
tp2386
a(g2178
g2179
tp2387
a(V51*50*49*48*47*46
p2388
Vkthui
p2389
tp2390
a(V49*48*47*46
p2391
Vkew017
p2392
tp2393
a(g2181
g2182
tp2394
a(V50*49*48*47*46
p2395
Vzig006
p2396
tp2397
a(g2184
g2185
tp2398
a(V51 * 50 * 49 * 48 * 47 * 46
p2399
Vjfalcone
p2400
tp2401
a(V50*49*48*47*46
p2402
Vrsmurlo
p2403
tp2404
a(V51*50*49*48*47*46
p2405
Vjjchung
p2406
tp2407
a(V51*50*49*48*47*46
p2408
Vanl114
p2409
tp2410
a(V51*50*49*48*47*46
p2411
Vc1wei
p2412
tp2413
a(V51*50*49*48*47*46
p2414
Vdcrume
p2415
tp2416
a(g2187
g2188
tp2417
a(g2190
g2191
tp2418
asS"['R.0', 'R.1.1']"
p2419
(lp2420
(V50!/(45!*6!)
p2421
Vyypan
p2422
tp2423
a(V50!/(44!6!)
p2424
Vs6deng
p2425
tp2426
a(V55!/(6(49!))
p2427
Vjeqin
p2428
tp2429
a(g2304
g2305
tp2430
a(V49!/(43!*6!)
p2431
Vdaw023
p2432
tp2433
a(g2205
g2206
tp2434
asS"['R.0.0.0.0.1', 'R.0.0.0.1', 'R.0.0.1', 'R.0.1', 'R.1']"
p2435
(lp2436
(g1990
g1991
tp2437
a(V6*54*53*52*51*50*49
p2438
Vjel075
p2439
tp2440
a(V6!*54*53*52*51*50*49
p2441
Vjel075
p2442
tp2443
a(g1999
g2000
tp2444
a(g2008
g2009
tp2445
a(g2017
g2018
tp2446
a(g2029
g2030
tp2447
a(g2053
g2054
tp2448
a(g2062
g2063
tp2449
a(g2065
g2066
tp2450
a(g2080
g2081
tp2451
a(g1993
g1994
tp2452
a(g1996
g1997
tp2453
a(g2083
g2084
tp2454
a(g2086
g2087
tp2455
a(g2089
g2090
tp2456
a(g2092
g2093
tp2457
asS"['R.0.0.0.0.0']"
p2458
(lp2459
(g2011
g2012
tp2460
a(V52*48*44*40*36*32
p2461
Vcprafull
p2462
tp2463
a(g2020
g2021
tp2464
a(g2023
g2024
tp2465
a(g2026
g2027
tp2466
a(g2014
g2015
tp2467
a(g2032
g2033
tp2468
a(g2035
g2036
tp2469
a(g2038
g2039
tp2470
a(g2041
g2042
tp2471
a(g2044
g2045
tp2472
a(g2047
g2048
tp2473
a(g2050
g2051
tp2474
asS"['R.0', 'R.1.0']"
p2475
(lp2476
(g2431
g2432
tp2477
a(V49!/(43!*6)
p2478
Vkew017
p2479
tp2480
asS"['R.0.0.0.0.1', 'R.0.0.0.1', 'R.0.0.1', 'R.1']"
p2481
(lp2482
(g2337
g2338
tp2483
a(g2438
g2439
tp2484
a(g2441
g2442
tp2485
asS"['R.0.0.0.0.0.1']"
p2486
(lp2487
(g2163
g2164
tp2488
a(g2256
g2257
tp2489
a(g2259
g2260
tp2490
asS"['R.0.0.0.0.0.1', 'R.1']"
p2491
(lp2492
(g2241
g2242
tp2493
a(g2250
g2251
tp2494
asS"['R.0']"
p2495
(lp2496
(g2097
g2098
tp2497
a(g2103
g2104
tp2498
a(g2421
g2422
tp2499
a(V(50!/(6!*44!))
p2500
Vtcuddy
p2501
tp2502
a(g2424
g2425
tp2503
a(g2265
g2266
tp2504
a(V50!/(6!(50-6)!)
p2505
Vctgraves
p2506
tp2507
a(g2307
g2308
tp2508
a(g2310
g2311
tp2509
a(g2313
g2314
tp2510
a(g2316
g2317
tp2511
a(g2319
g2320
tp2512
a(V53!/47!
p2513
Vawollner
p2514
tp2515
a(V(53!)/(53!*47!)
p2516
Valakamsa
p2517
tp2518
a(g2133
g2134
tp2519
a(g2301
g2302
tp2520
a(g2166
g2167
tp2521
a(g2172
g2173
tp2522
a(V6!
p2523
Vkebao
p2524
tp2525
a(V6!
p2526
Vwhcombs
p2527
tp2528
a(g2295
g2296
tp2529
a(V55!
p2530
Vttimmons
p2531
tp2532
a(g2121
g2122
tp2533
a(g2160
g2161
tp2534
a(g2196
g2197
tp2535
a(g2208
g2209
tp2536
a(g2427
g2428
tp2537
a(V55!/(5!*50!)
p2538
Vkalang
p2539
tp2540
a(g2304
g2305
tp2541
a(g2286
g2287
tp2542
a(g2289
g2290
tp2543
a(V55!
p2544
Vcstringh
p2545
tp2546
a(g2238
g2239
tp2547
a(g2127
g2128
tp2548
a(g2253
g2254
tp2549
a(g2169
g2170
tp2550
a(V53!/(53-6)!
p2551
Vt1tran
p2552
tp2553
a(g2431
g2432
tp2554
a(V49!/43!
p2555
Vkew017
p2556
tp2557
a(V49!/(43!)
p2558
Vlrlai
p2559
tp2560
a(V49!/(43!)
p2561
Vs6deng
p2562
tp2563
a(g2100
g2101
tp2564
a(V49!/43!
p2565
Vytc012
p2566
tp2567
a(V49!-43!
p2568
Vxweng
p2569
tp2570
a(V49!/(49-6)!
p2571
Vwhcombs
p2572
tp2573
a(V49!/(6!(49-6!))
p2574
Vwhcombs
p2575
tp2576
a(V(49!)/((49-6)!)
p2577
Vdcgriffi
p2578
tp2579
a(V(49!)/((49-6)!)
p2580
Vanislam
p2581
tp2582
a(g2124
g2125
tp2583
a(g2271
g2272
tp2584
a(g2211
g2212
tp2585
a(g2298
g2299
tp2586
a(g2214
g2215
tp2587
a(g2274
g2275
tp2588
a(g2193
g2194
tp2589
a(g2478
g2479
tp2590
a(g2205
g2206
tp2591
a(g2130
g2131
tp2592
a(V53! /(53-6)!
p2593
Vedcole
p2594
tp2595
a(V53!/(53-6)!
p2596
Vrlhagen
p2597
tp2598
a(g2217
g2218
tp2599
a(V53!
p2600
Vjag028
p2601
tp2602
a(g2148
g2149
tp2603
a(g2151
g2152
tp2604
a(V52!-46!
p2605
Vmasaro
p2606
tp2607
a(V52!/(6!*56!)
p2608
Vajabasa
p2609
tp2610
a(V52!/((52-6)!-6!)
p2611
Vdkostins
p2612
tp2613
a(V52!/[(52-6)!]
p2614
Vhaliew
p2615
tp2616
a(V52!/(52-6)!
p2617
Vccn001
p2618
tp2619
a(V52!/46!
p2620
Vnnh002
p2621
tp2622
a(V52!/(52-6)!
p2623
Va8ho
p2624
tp2625
a(g2220
g2221
tp2626
a(g2226
g2227
tp2627
a(g2229
g2230
tp2628
a(g2232
g2233
tp2629
a(g2235
g2236
tp2630
a(g2136
g2137
tp2631
a(g2244
g2245
tp2632
a(V48!
p2633
Vagoldsht
p2634
tp2635
a(g2139
g2140
tp2636
a(g2142
g2143
tp2637
asS"['R.0.0.1']"
p2638
(lp2639
(g2283
g2284
tp2640
a(g2256
g2257
tp2641
a(g2259
g2260
tp2642
a(g2461
g2462
tp2643
a(V44+43+42+41+40+39+38
p2644
Vxweng
p2645
tp2646
asS"['R.0.0.0.0.0.0']"
p2647
(lp2648
(g2115
g2116
tp2649
a(g2202
g2203
tp2650
asS"['R']"
p2651
(lp2652
(V48*47*46*45*44*43
p2653
Vbtn023
p2654
tp2655
a(V48!/(42!)
p2656
Vsayao
p2657
tp2658
a(V48*47*46*45*44*43
p2659
Vanvan
p2660
tp2661
a(V48*47*46*45*44*43
p2662
Vvqt004
p2663
tp2664
a(V48!/(48-6)!
p2665
Vglcohen
p2666
tp2667
a(V48*47*46*45*44*43
p2668
Vnisharma
p2669
tp2670
a(V48*47*46*45*44*43
p2671
Vagoldsht
p2672
tp2673
a(V48*47*46*45*44*43
p2674
Vskodigal
p2675
tp2676
a(V48!/[42!]
p2677
Vjmmcalex
p2678
tp2679
a(V48*47*46*45*44*43
p2680
Vyhhan
p2681
tp2682
a(g2354
g2355
tp2683
a(g2358
g2359
tp2684
a(g2196
g2197
tp2685
a(g2370
g2371
tp2686
a(g2373
g2374
tp2687
a(g2121
g2122
tp2688
a(g2376
g2377
tp2689
a(g2286
g2287
tp2690
a(V55*54*53*52*51*50
p2691
Vt2li
p2692
tp2693
a(g2289
g2290
tp2694
a(V55*54*53*52*51*50
p2695
Vv4zhang
p2696
tp2697
a(V55*54*53*52*51*50
p2698
Vm4bui
p2699
tp2700
a(g1990
g1991
tp2701
a(g1999
g2000
tp2702
a(g2211
g2212
tp2703
a(g2008
g2009
tp2704
a(g2214
g2215
tp2705
a(g2127
g2128
tp2706
a(g2017
g2018
tp2707
a(g2029
g2030
tp2708
a(V1.8595558E10
p2709
Vamquinte
p2710
tp2711
a(g2053
g2054
tp2712
a(g2062
g2063
tp2713
a(g2065
g2066
tp2714
a(g2220
g2221
tp2715
a(g2226
g2227
tp2716
a(g2229
g2230
tp2717
a(g2080
g2081
tp2718
a(g2083
g2084
tp2719
a(g2086
g2087
tp2720
a(g2089
g2090
tp2721
a(g2092
g2093
tp2722
a(g2361
g2362
tp2723
a(g2367
g2368
tp2724
a(g2106
g2107
tp2725
a(g2388
g2389
tp2726
a(g2399
g2400
tp2727
a(g2109
g2110
tp2728
a(g2405
g2406
tp2729
a(g2112
g2113
tp2730
a(g2408
g2409
tp2731
a(g2411
g2412
tp2732
a(g2414
g2415
tp2733
a(g2097
g2098
tp2734
a(g2002
g2003
tp2735
a(g2056
g2057
tp2736
a(g2059
g2060
tp2737
a(g2307
g2308
tp2738
a(g2271
g2272
tp2739
a(g2310
g2311
tp2740
a(g2068
g2069
tp2741
a(g2071
g2072
tp2742
a(g2316
g2317
tp2743
a(g2319
g2320
tp2744
a(g2074
g2075
tp2745
a(g2077
g2078
tp2746
a(g2103
g2104
tp2747
a(g2384
g2385
tp2748
a(g2395
g2396
tp2749
a(g2402
g2403
tp2750
a(g2513
g2514
tp2751
a(g2175
g2176
tp2752
a(g2551
g2552
tp2753
a(g2178
g2179
tp2754
a(g2593
g2594
tp2755
a(g2596
g2597
tp2756
a(g2181
g2182
tp2757
a(V1.65294E+10
p2758
Vlywong
p2759
tp2760
a(g2184
g2185
tp2761
a(g2187
g2188
tp2762
a(g2166
g2167
tp2763
a(g2151
g2152
tp2764
a(g2172
g2173
tp2765
a(g2139
g2140
tp2766
a(V52!
p2767
Vhkhodada
p2768
tp2769
a(V52!
p2770
Vjag028
p2771
tp2772
a(g2605
g2606
tp2773
a(g2530
g2531
tp2774
a(g2544
g2545
tp2775
a(g2500
g2501
tp2776
a(g2424
g2425
tp2777
a(g2505
g2506
tp2778
a(g2238
g2239
tp2779
a(g2169
g2170
tp2780
a(g2268
g2269
tp2781
a(g2555
g2556
tp2782
a(g2280
g2281
tp2783
a(g2558
g2559
tp2784
a(g2561
g2562
tp2785
a(g2565
g2566
tp2786
a(g2322
g2323
tp2787
a(g2325
g2326
tp2788
a(g2328
g2329
tp2789
a(g2571
g2572
tp2790
a(g2331
g2332
tp2791
a(g2577
g2578
tp2792
a(g2580
g2581
tp2793
a(V 50063860
p2794
Vany027
p2795
tp2796
a(V60! / (6 ! * 54!)
p2797
Vany027
p2798
tp2799
a(g2124
g2125
tp2800
a(g2130
g2131
tp2801
a(g2523
g2524
tp2802
a(g2526
g2527
tp2803
a(g2011
g2012
tp2804
a(g2020
g2021
tp2805
a(g2023
g2024
tp2806
a(g2026
g2027
tp2807
a(g2032
g2033
tp2808
a(g2035
g2036
tp2809
a(g2611
g2612
tp2810
a(g2614
g2615
tp2811
a(g2038
g2039
tp2812
a(g2617
g2618
tp2813
a(g2041
g2042
tp2814
a(g2620
g2621
tp2815
a(g2623
g2624
tp2816
a(g2044
g2045
tp2817
a(g2047
g2048
tp2818
a(g2050
g2051
tp2819
a(V55!/5!/50!
p2820
Vkalang
p2821
tp2822
a(g2538
g2539
tp2823
a(g2247
g2248
tp2824
a(g2313
g2314
tp2825
a(g2265
g2266
tp2826
a(g1993
g1994
tp2827
a(g1996
g1997
tp2828
a(g2232
g2233
tp2829
a(g2235
g2236
tp2830
asS"['R.0.0']"
p2831
(lp2832
(g2097
g2098
tp2833
a(g2247
g2248
tp2834
a(g2103
g2104
tp2835
a(g2421
g2422
tp2836
a(g2500
g2501
tp2837
a(g2656
g2657
tp2838
a(g2145
g2146
tp2839
a(g2199
g2200
tp2840
a(g2820
g2821
tp2841
a(g2292
g2293
tp2842
a(g2217
g2218
tp2843
a(g2298
g2299
tp2844
a(g2220
g2221
tp2845
a(g2226
g2227
tp2846
a(g2229
g2230
tp2847
a(g2232
g2233
tp2848
a(g2235
g2236
tp2849
a(g2307
g2308
tp2850
a(g2424
g2425
tp2851
a(g2677
g2678
tp2852
a(g2310
g2311
tp2853
a(g2313
g2314
tp2854
a(g2265
g2266
tp2855
a(g2316
g2317
tp2856
a(g2505
g2506
tp2857
a(g2319
g2320
tp2858
a(g2644
g2645
tp2859
a(g1993
g1994
tp2860
a(g1996
g1997
tp2861
asS"['R.1.0']"
p2862
(lp2863
(g2500
g2501
tp2864
a(g2797
g2798
tp2865
a(g2608
g2609
tp2866
a(g2298
g2299
tp2867
a(g2301
g2302
tp2868
a(g2574
g2575
tp2869
a(g2304
g2305
tp2870
a(g2505
g2506
tp2871
asS"['R.1.1.0']"
p2872
(lp2873
(g2574
g2575
tp2874
a(g2304
g2305
tp2875
asS"['R.0.0.0.0.1', 'R.0.0.0.1', 'R.0.0.1', 'R.0.1']"
p2876
(lp2877
(g2653
g2654
tp2878
a(g2250
g2251
tp2879
a(g2115
g2116
tp2880
a(g2175
g2176
tp2881
a(g2178
g2179
tp2882
a(g2181
g2182
tp2883
a(g2184
g2185
tp2884
a(g2187
g2188
tp2885
a(g2659
g2660
tp2886
a(g2662
g2663
tp2887
a(g2668
g2669
tp2888
a(g2671
g2672
tp2889
a(g2674
g2675
tp2890
a(g2680
g2681
tp2891
asS"['R.0.0.0.0.0', 'R.0.0.0.0.1', 'R.0.0.0.1', 'R.0.0.1', 'R.1']"
p2892
(lp2893
(g2337
g2338
tp2894
a(g1993
g1994
tp2895
a(g1996
g1997
tp2896
asS"['R.1.1']"
p2897
(lp2898
(g2421
g2422
tp2899
a(g2431
g2432
tp2900
a(g2611
g2612
tp2901
a(g2205
g2206
tp2902
a(g2427
g2428
tp2903
a(g2298
g2299
tp2904
a(g2301
g2302
tp2905
a(g2424
g2425
tp2906
asS"['R.0.0.0.1', 'R.0.0.1', 'R.0.1', 'R.1']"
p2907
(lp2908
(g2354
g2355
tp2909
a(g2381
g2382
tp2910
a(g1990
g1991
tp2911
a(V53 + 52 +51+50+49
p2912
Ve9brown
p2913
tp2914
a(g2358
g2359
tp2915
a(g2361
g2362
tp2916
a(g2384
g2385
tp2917
a(g2395
g2396
tp2918
a(g2402
g2403
tp2919
a(g2367
g2368
tp2920
a(g1999
g2000
tp2921
a(g2370
g2371
tp2922
a(g2373
g2374
tp2923
a(g2376
g2377
tp2924
a(g2691
g2692
tp2925
a(g2695
g2696
tp2926
a(g2698
g2699
tp2927
a(g2008
g2009
tp2928
a(g2388
g2389
tp2929
a(g2399
g2400
tp2930
a(g2405
g2406
tp2931
a(g2408
g2409
tp2932
a(g2411
g2412
tp2933
a(g2414
g2415
tp2934
a(g2017
g2018
tp2935
a(g2029
g2030
tp2936
a(g2053
g2054
tp2937
a(g2062
g2063
tp2938
a(g2065
g2066
tp2939
a(g2438
g2439
tp2940
a(g2441
g2442
tp2941
a(g2080
g2081
tp2942
a(g1993
g1994
tp2943
a(g1996
g1997
tp2944
a(g2083
g2084
tp2945
a(g2086
g2087
tp2946
a(g2089
g2090
tp2947
a(g2092
g2093
tp2948
asS"['R.0.0.0.1', 'R.0.0.1', 'R.1']"
p2949
(lp2950
(g2337
g2338
tp2951
a(g2912
g2913
tp2952
asS"['R.0.1', 'R.1']"
p2953
(lp2954
(g2115
g2116
tp2955
a(g2163
g2164
tp2956
asS"['R.0', 'R.1']"
p2957
(lp2958
(g2097
g2098
tp2959
a(g2313
g2314
tp2960
a(g2103
g2104
tp2961
a(g2265
g2266
tp2962
a(g2121
g2122
tp2963
a(g2160
g2161
tp2964
a(g2211
g2212
tp2965
a(g2217
g2218
tp2966
a(g2232
g2233
tp2967
a(g2235
g2236
tp2968
a(g2214
g2215
tp2969
a(g2555
g2556
tp2970
a(g2568
g2569
tp2971
a(g2558
g2559
tp2972
a(g2220
g2221
tp2973
a(g2226
g2227
tp2974
a(g2229
g2230
tp2975
a(g2605
g2606
tp2976
a(g2614
g2615
tp2977
a(g2617
g2618
tp2978
a(g2620
g2621
tp2979
a(g2623
g2624
tp2980
a(g2307
g2308
tp2981
a(g2561
g2562
tp2982
a(g2565
g2566
tp2983
a(g2139
g2140
tp2984
a(g2142
g2143
tp2985
a(g2310
g2311
tp2986
a(g2148
g2149
tp2987
a(g2151
g2152
tp2988
a(g2316
g2317
tp2989
a(g2319
g2320
tp2990
a(g2571
g2572
tp2991
a(g2577
g2578
tp2992
a(g2580
g2581
tp2993
a(g2256
g2257
tp2994
a(g2259
g2260
tp2995
asS"['R.0.0.1', 'R.0.1', 'R.1']"
p2996
(lp2997
(g2361
g2362
tp2998
a(g2391
g2392
tp2999
a(g2367
g2368
tp3000
a(g2175
g2176
tp3001
a(g2190
g2191
tp3002
a(g2268
g2269
tp3003
a(g2283
g2284
tp3004
a(g2002
g2003
tp3005
a(V48*47*46*45
p3006
Vglcohen
p3007
tp3008
a(g2384
g2385
tp3009
a(g2178
g2179
tp3010
a(g2388
g2389
tp3011
a(g2395
g2396
tp3012
a(g2399
g2400
tp3013
a(g2402
g2403
tp3014
a(g2405
g2406
tp3015
a(g2408
g2409
tp3016
a(g2411
g2412
tp3017
a(g2414
g2415
tp3018
a(g2280
g2281
tp3019
a(g2056
g2057
tp3020
a(g2059
g2060
tp3021
a(g2068
g2069
tp3022
a(g2005
g2006
tp3023
a(g2071
g2072
tp3024
a(g2074
g2075
tp3025
a(g2077
g2078
tp3026
a(g2322
g2323
tp3027
a(g2325
g2326
tp3028
a(g2328
g2329
tp3029
a(g2331
g2332
tp3030
a(g2181
g2182
tp3031
a(g2184
g2185
tp3032
a(g2187
g2188
tp3033
asS"['R.0.0.0.0.1']"
p3034
(lp3035
(g2268
g2269
tp3036
a(g2461
g2462
tp3037
a(g2280
g2281
tp3038
a(g2322
g2323
tp3039
a(g2325
g2326
tp3040
a(g2328
g2329
tp3041
a(g2331
g2332
tp3042
a(g2256
g2257
tp3043
a(g2259
g2260
tp3044
asS"['R.0.0.1', 'R.1']"
p3045
(lp3046
(V56*55*54*53*52*51
p3047
Vkosung
p3048
tp3049
a(V55*3*53*13*51
p3050
Vsmall
p3051
tp3052
asS"['R.0.0.0.1']"
p3053
(lp3054
(g2461
g2462
tp3055
a(g2154
g2155
tp3056
asS"['R.1.0.1']"
p3057
(lp3058
(g2551
g2552
tp3059
a(g2106
g2107
tp3060
a(g2211
g2212
tp3061
a(g2214
g2215
tp3062
a(g2665
g2666
tp3063
a(g2217
g2218
tp3064
a(g2614
g2615
tp3065
a(g2617
g2618
tp3066
a(g2220
g2221
tp3067
a(g2109
g2110
tp3068
a(g2623
g2624
tp3069
a(g2571
g2572
tp3070
a(g2229
g2230
tp3071
a(g2577
g2578
tp3072
a(g2112
g2113
tp3073
a(g2580
g2581
tp3074
a(g2593
g2594
tp3075
a(g2596
g2597
tp3076
asS"['R.0.0.0.0.0.1', 'R.0.0.0.0.1', 'R.0.0.0.1', 'R.0.0.1', 'R.0.1', 'R.1']"
p3077
(lp3078
(g2438
g2439
tp3079
a(g2441
g2442
tp3080
asS"['R.0.0.0.0.1', 'R.0.0.0.1', 'R.0.0.1']"
p3081
(lp3082
(g2268
g2269
tp3083
a(g2256
g2257
tp3084
a(g2259
g2260
tp3085
a(g2280
g2281
tp3086
a(g2322
g2323
tp3087
a(g2325
g2326
tp3088
a(g2328
g2329
tp3089
a(g2331
g2332
tp3090
asS"['R.0.0.1', 'R.0.1']"
p3091
(lp3092
(g2115
g2116
tp3093
a(g2190
g2191
tp3094
assS"['R.1']"
p3095
(lp3096
(V53*(53-1)*(53-2)*(53-3)*(53-4)*(53-5)/(6*5*4*3*2)
p3097
V53!/6!
p3098
(lp3099
(S'R.1'
p3100
F720.0
V6*5*4*3*2
p3101
V6!
p3102
tp3103
atp3104
a(V54*(54-1)*(54-2)*(54-3)*(54-4)*(54-5)/(6*5*4*3*2)
p3105
V54!/(54-48)!
p3106
(lp3107
(S'R.1'
p3108
F720.0
V6*5*4*3*2
p3109
V(54-48)!
p3110
tp3111
atp3112
a(V50*(50-1)*(50-2)*(50-3)*(50-4)*(50-5)/(6*5*4*3*2)
p3113
V50!/(6!)
p3114
(lp3115
(S'R.1'
p3116
F720.0
V6*5*4*3*2
p3117
V6!
p3118
tp3119
atp3120
a(V49*(49-1)*(49-2)*(49-3)*(49-4)*(49-5)/(6*5*4*3*2)
p3121
V(49*49*49*49*49*49)/(6!)
p3122
(lp3123
(S'R.1'
p3124
F720.0
V6*5*4*3*2
p3125
V6!
p3126
tp3127
atp3128
a(V49*(49-1)*(49-2)*(49-3)*(49-4)*(49-5)/(6*5*4*3*2)
p3129
V50!/(6!)
p3130
(lp3131
(S'R.1'
p3132
F720.0
V6*5*4*3*2
p3133
V6!
p3134
tp3135
atp3136
a(V54*(54-1)*(54-2)*(54-3)*(54-4)*(54-5)/(6*5*4*3*2)
p3137
V54!/6!
p3138
(lp3139
(S'R.1'
p3140
F720.0
V6*5*4*3*2
p3141
V6!
p3142
tp3143
atp3144
a(V51*(51-1)*(51-2)*(51-3)*(51-4)*(51-5)/(6*5*4*3*2)
p3145
V(51!)/(51-6!)(6!)
p3146
(lp3147
(S'R.1'
p3148
F720.0
V6*5*4*3*2
p3149
V6!
p3150
tp3151
atp3152
a(V52*(52-1)*(52-2)*(52-3)*(52-4)*(52-5)/(6*5*4*3*2)
p3153
V(56*55*54*53*52*51)/6!
p3154
(lp3155
(S'R.1'
p3156
F720.0
V6*5*4*3*2
p3157
V6!
p3158
tp3159
atp3160
a(V52*(52-1)*(52-2)*(52-3)*(52-4)*(52-5)/(6*5*4*3*2)
p3161
V52 * 51 * 50 * 49 * 48 * 47 * 46/(6*5*4*3*2*1)
p3162
(lp3163
(S'R.1'
p3164
F720.0
V6*5*4*3*2
p3165
V6*5*4*3*2*1
p3166
tp3167
atp3168
asS"['R.0.1', 'R.1']"
p3169
(lp3170
(V48*(48-1)*(48-2)*(48-3)*(48-4)*(48-5)/(6*5*4*3*2)
p3171
V(48*47*46*45*43)/6!
p3172
(lp3173
(S'R.0.1'
p3174
F43.0
V48-5
p3175
V43
p3176
tp3177
a(S'R.1'
p3178
F720.0
V6*5*4*3*2
p3179
V6!
p3180
tp3181
atp3182
asS"['R.0', 'R.1']"
p3183
(lp3184
(V54*(54-1)*(54-2)*(54-3)*(54-4)*(54-5)/(6*5*4*3*2)
p3185
V54!/48!*6!
p3186
(lp3187
(S'R.0'
p3188
F18595558800.0
V54*(54-1)*(54-2)*(54-3)*(54-4)*(54-5)
p3189
V54!/48!
p3190
tp3191
a(S'R.1'
p3192
F720.0
V6*5*4*3*2
p3193
V6!
p3194
tp3195
atp3196
a(g1906
V50!/44!(6!)
p3197
(lp3198
(S'R.0'
p3199
F11441304000.0
V50*(50-1)*(50-2)*(50-3)*(50-4)*(50-5)
p3200
V50!/44!
p3201
tp3202
a(S'R.1'
p3203
F720.0
V6*5*4*3*2
p3204
V6!
p3205
tp3206
atp3207
a(g3145
V(51!)/(51-6)!(6!)
p3208
(lp3209
(S'R.0'
p3210
F12966811200.0
V51*(51-1)*(51-2)*(51-3)*(51-4)*(51-5)
p3211
V(51!)/(51-6)!
p3212
tp3213
a(S'R.1'
p3214
F720.0
V6*5*4*3*2
p3215
V6!
p3216
tp3217
atp3218
asS"['R.0']"
p3219
(lp3220
(V51*(51-1)*(51-2)*(51-3)*(51-4)*(51-5)/(6*5*4*3*2)
p3221
V(51*50*49*48*47*46)/2
p3222
(lp3223
(S'R.0'
p3224
F12966811200.0
V51*(51-1)*(51-2)*(51-3)*(51-4)*(51-5)
p3225
V51*50*49*48*47*46
p3226
tp3227
atp3228
a(g3221
V(51*50*49*48*47*46)/6
p3229
(lp3230
(S'R.0'
p3231
F12966811200.0
V51*(51-1)*(51-2)*(51-3)*(51-4)*(51-5)
p3232
V51*50*49*48*47*46
p3233
tp3234
atp3235
a(V55*(55-1)*(55-2)*(55-3)*(55-4)*(55-5)/(6*5*4*3*2)
p3236
V(55*54*53*52*51*50)/(4!)
p3237
(lp3238
(S'R.0'
p3239
F20872566000.0
V55*(55-1)*(55-2)*(55-3)*(55-4)*(55-5)
p3240
V55*54*53*52*51*50
p3241
tp3242
atp3243
a(V55*(55-1)*(55-2)*(55-3)*(55-4)*(55-5)/(6*5*4*3*2)
p3244
V(55*54*53*52*51*50)/2
p3245
(lp3246
(S'R.0'
p3247
F20872566000.0
V55*(55-1)*(55-2)*(55-3)*(55-4)*(55-5)
p3248
V55*54*53*52*51*50
p3249
tp3250
atp3251
a(g3244
V(55*54*53*52*51*50)/6
p3252
(lp3253
(S'R.0'
p3254
F20872566000.0
V55*(55-1)*(55-2)*(55-3)*(55-4)*(55-5)
p3255
V55*54*53*52*51*50
p3256
tp3257
atp3258
a(g3244
V(55*54*53*52*51*50)/(6^6)
p3259
(lp3260
(S'R.0'
p3261
F20872566000.0
V55*(55-1)*(55-2)*(55-3)*(55-4)*(55-5)
p3262
V55*54*53*52*51*50
p3263
tp3264
atp3265
a(g3244
V(55*54*53*52*51*50)/(6)
p3266
(lp3267
(S'R.0'
p3268
F20872566000.0
V55*(55-1)*(55-2)*(55-3)*(55-4)*(55-5)
p3269
V55*54*53*52*51*50
p3270
tp3271
atp3272
a(g3244
V55*54*53*52*51*50/(5)
p3273
(lp3274
(S'R.0'
p3275
F20872566000.0
V55*(55-1)*(55-2)*(55-3)*(55-4)*(55-5)
p3276
V55*54*53*52*51*50
p3277
tp3278
atp3279
a(g3244
V55*54*53*52*51*50/(36)
p3280
(lp3281
(S'R.0'
p3282
F20872566000.0
V55*(55-1)*(55-2)*(55-3)*(55-4)*(55-5)
p3283
V55*54*53*52*51*50
p3284
tp3285
atp3286
a(g3244
V55*54*53*52*51*50/(6)
p3287
(lp3288
(S'R.0'
p3289
F20872566000.0
V55*(55-1)*(55-2)*(55-3)*(55-4)*(55-5)
p3290
V55*54*53*52*51*50
p3291
tp3292
atp3293
a(g3244
V55*54*53*52*51*50/(6^5)
p3294
(lp3295
(S'R.0'
p3296
F20872566000.0
V55*(55-1)*(55-2)*(55-3)*(55-4)*(55-5)
p3297
V55*54*53*52*51*50
p3298
tp3299
atp3300
a(g3244
V55*54*53*52*51*50/(6^6)
p3301
(lp3302
(S'R.0'
p3303
F20872566000.0
V55*(55-1)*(55-2)*(55-3)*(55-4)*(55-5)
p3304
V55*54*53*52*51*50
p3305
tp3306
atp3307
a(g3244
V55*54*53*52*51*50/(2^6)
p3308
(lp3309
(S'R.0'
p3310
F20872566000.0
V55*(55-1)*(55-2)*(55-3)*(55-4)*(55-5)
p3311
V55*54*53*52*51*50
p3312
tp3313
atp3314
a(V51*(51-1)*(51-2)*(51-3)*(51-4)*(51-5)/(6*5*4*3*2)
p3315
V51*50*49*48*47*46*45
p3316
(lp3317
(S'R.0'
p3318
F12966811200.0
V51*(51-1)*(51-2)*(51-3)*(51-4)*(51-5)
p3319
V51*50*49*48*47*46
p3320
tp3321
atp3322
a(V53*(53-1)*(53-2)*(53-3)*(53-4)*(53-5)/(6*5*4*3*2)
p3323
V53*52*51*50*49*48*47
p3324
(lp3325
(S'R.0'
p3326
F16529385600.0
V53*(53-1)*(53-2)*(53-3)*(53-4)*(53-5)
p3327
V53*52*51*50*49*48
p3328
tp3329
atp3330
a(V54*(54-1)*(54-2)*(54-3)*(54-4)*(54-5)/(6*5*4*3*2)
p3331
V54*53*52*51*50*49*48
p3332
(lp3333
(S'R.0'
p3334
F18595558800.0
V54*(54-1)*(54-2)*(54-3)*(54-4)*(54-5)
p3335
V54*53*52*51*50*49
p3336
tp3337
atp3338
a(V54*(54-1)*(54-2)*(54-3)*(54-4)*(54-5)/(6*5*4*3*2)
p3339
V(54*53*52*51*50*49)/6
p3340
(lp3341
(S'R.0'
p3342
F18595558800.0
V54*(54-1)*(54-2)*(54-3)*(54-4)*(54-5)
p3343
V54*53*52*51*50*49
p3344
tp3345
atp3346
a(V48*(48-1)*(48-2)*(48-3)*(48-4)*(48-5)/(6*5*4*3*2)
p3347
V48*47*46*45*44*43/5!
p3348
(lp3349
(S'R.0'
p3350
F8835488640.0
V48*(48-1)*(48-2)*(48-3)*(48-4)*(48-5)
p3351
V48*47*46*45*44*43
p3352
tp3353
atp3354
a(V53*(53-1)*(53-2)*(53-3)*(53-4)*(53-5)/(6*5*4*3*2)
p3355
V(53*52*51*50*49*48) /6
p3356
(lp3357
(S'R.0'
p3358
F16529385600.0
V53*(53-1)*(53-2)*(53-3)*(53-4)*(53-5)
p3359
V53*52*51*50*49*48
p3360
tp3361
atp3362
a(V48*(48-1)*(48-2)*(48-3)*(48-4)*(48-5)/(6*5*4*3*2)
p3363
V48*47*46*45*44*43*42
p3364
(lp3365
(S'R.0'
p3366
F8835488640.0
V48*(48-1)*(48-2)*(48-3)*(48-4)*(48-5)
p3367
V48*47*46*45*44*43
p3368
tp3369
atp3370
a(g3363
V48*47*46*45*44*43/6
p3371
(lp3372
(S'R.0'
p3373
F8835488640.0
V48*(48-1)*(48-2)*(48-3)*(48-4)*(48-5)
p3374
V48*47*46*45*44*43
p3375
tp3376
atp3377
a(V49*(49-1)*(49-2)*(49-3)*(49-4)*(49-5)/(6*5*4*3*2)
p3378
V49*48*47*46*45*44/6
p3379
(lp3380
(S'R.0'
p3381
F10068347520.0
V49*(49-1)*(49-2)*(49-3)*(49-4)*(49-5)
p3382
V49*48*47*46*45*44
p3383
tp3384
atp3385
a(g3121
V(49*48*47*46*45*44)/(6)
p3386
(lp3387
(S'R.0'
p3388
F10068347520.0
V49*(49-1)*(49-2)*(49-3)*(49-4)*(49-5)
p3389
V49*48*47*46*45*44
p3390
tp3391
atp3392
a(V48*(48-1)*(48-2)*(48-3)*(48-4)*(48-5)/(6*5*4*3*2)
p3393
V48*47*46*45*44*43*42
p3394
(lp3395
(S'R.0'
p3396
F8835488640.0
V48*(48-1)*(48-2)*(48-3)*(48-4)*(48-5)
p3397
V48*47*46*45*44*43
p3398
tp3399
atp3400
a(V52*(52-1)*(52-2)*(52-3)*(52-4)*(52-5)/(6*5*4*3*2)
p3401
V(52!/(52-6)!)*6
p3402
(lp3403
(S'R.0'
p3404
F14658134400.0
V52*(52-1)*(52-2)*(52-3)*(52-4)*(52-5)
p3405
V52!/(52-6)!
p3406
tp3407
atp3408
a(g3401
V((52!)/(52-6)!)-52
p3409
(lp3410
(S'R.0'
p3411
F14658134400.0
V52*(52-1)*(52-2)*(52-3)*(52-4)*(52-5)
p3412
V(52!)/(52-6)!
p3413
tp3414
atp3415
a(V52*(52-1)*(52-2)*(52-3)*(52-4)*(52-5)/(6*5*4*3*2)
p3416
V52*51*50*49*48*47/2
p3417
(lp3418
(S'R.0'
p3419
F14658134400.0
V52*(52-1)*(52-2)*(52-3)*(52-4)*(52-5)
p3420
V52*51*50*49*48*47
p3421
tp3422
atp3423
a(g3416
V52*51*50*49*48*47/6
p3424
(lp3425
(S'R.0'
p3426
F14658134400.0
V52*(52-1)*(52-2)*(52-3)*(52-4)*(52-5)
p3427
V52*51*50*49*48*47
p3428
tp3429
atp3430
a(g3416
V52*51*50*49*48*47/6
p3431
(lp3432
(S'R.0'
p3433
F14658134400.0
V52*(52-1)*(52-2)*(52-3)*(52-4)*(52-5)
p3434
V52*51*50*49*48*47
p3435
tp3436
atp3437
a(g3145
V(51 * 50 * 49 * 48 * 47 * 46)/6
p3438
(lp3439
(S'R.0'
p3440
F12966811200.0
V51*(51-1)*(51-2)*(51-3)*(51-4)*(51-5)
p3441
V51 * 50 * 49 * 48 * 47 * 46
p3442
tp3443
atp3444
a(g3145
V(51 * 50 * 49 * 48 * 47 * 46)/2
p3445
(lp3446
(S'R.0'
p3447
F12966811200.0
V51*(51-1)*(51-2)*(51-3)*(51-4)*(51-5)
p3448
V51 * 50 * 49 * 48 * 47 * 46
p3449
tp3450
atp3451
a(V48*(48-1)*(48-2)*(48-3)*(48-4)*(48-5)/(6*5*4*3*2)
p3452
V48*47*46*45*44*43/6
p3453
(lp3454
(S'R.0'
p3455
F8835488640.0
V48*(48-1)*(48-2)*(48-3)*(48-4)*(48-5)
p3456
V48*47*46*45*44*43
p3457
tp3458
atp3459
a(g3452
V48*47*46*45*44*43/2
p3460
(lp3461
(S'R.0'
p3462
F8835488640.0
V48*(48-1)*(48-2)*(48-3)*(48-4)*(48-5)
p3463
V48*47*46*45*44*43
p3464
tp3465
atp3466
a(g3452
V48*47*46*45*44*43/48
p3467
(lp3468
(S'R.0'
p3469
F8835488640.0
V48*(48-1)*(48-2)*(48-3)*(48-4)*(48-5)
p3470
V48*47*46*45*44*43
p3471
tp3472
atp3473
a(g1906
V(50*49*48*47*46*45)/2
p3474
(lp3475
(S'R.0'
p3476
F11441304000.0
V50*(50-1)*(50-2)*(50-3)*(50-4)*(50-5)
p3477
V50*49*48*47*46*45
p3478
tp3479
atp3480
a(V53*(53-1)*(53-2)*(53-3)*(53-4)*(53-5)/(6*5*4*3*2)
p3481
V(53*52*51*50*49*48)/6
p3482
(lp3483
(S'R.0'
p3484
F16529385600.0
V53*(53-1)*(53-2)*(53-3)*(53-4)*(53-5)
p3485
V53*52*51*50*49*48
p3486
tp3487
atp3488
a(g1940
V(51*50*49*48*47*46)/2
p3489
(lp3490
(S'R.0'
p3491
F12966811200.0
V51*(51-1)*(51-2)*(51-3)*(51-4)*(51-5)
p3492
V51*50*49*48*47*46
p3493
tp3494
atp3495
a(g1940
V(51*50*49*48*47*46) - (51 + 51*51 + 51*51*51 + 51*51*51*51 + 51*51*51*51*51)
p3496
(lp3497
(S'R.0'
p3498
F12966811200.0
V51*(51-1)*(51-2)*(51-3)*(51-4)*(51-5)
p3499
V51*50*49*48*47*46
p3500
tp3501
atp3502
a(g1940
V(51*50*49*48*47*46) - (51 + 51*50 + 51*50*49 + 51*50*49*48 + 51*50*49*48*47)
p3503
(lp3504
(S'R.0'
p3505
F12966811200.0
V51*(51-1)*(51-2)*(51-3)*(51-4)*(51-5)
p3506
V51*50*49*48*47*46
p3507
tp3508
atp3509
a(V48*(48-1)*(48-2)*(48-3)*(48-4)*(48-5)/(6*5*4*3*2)
p3510
V(48*47*46*45*44*43)/6
p3511
(lp3512
(S'R.0'
p3513
F8835488640.0
V48*(48-1)*(48-2)*(48-3)*(48-4)*(48-5)
p3514
V48*47*46*45*44*43
p3515
tp3516
atp3517
a(g3510
V(48*47*46*45*44*43)/36
p3518
(lp3519
(S'R.0'
p3520
F8835488640.0
V48*(48-1)*(48-2)*(48-3)*(48-4)*(48-5)
p3521
V48*47*46*45*44*43
p3522
tp3523
atp3524
a(g1933
V(51*50*49*48*47*46)/2
p3525
(lp3526
(S'R.0'
p3527
F12966811200.0
V51*(51-1)*(51-2)*(51-3)*(51-4)*(51-5)
p3528
V51*50*49*48*47*46
p3529
tp3530
atp3531
a(g1933
V(51*50*49*48*47*46)/6
p3532
(lp3533
(S'R.0'
p3534
F12966811200.0
V51*(51-1)*(51-2)*(51-3)*(51-4)*(51-5)
p3535
V51*50*49*48*47*46
p3536
tp3537
atp3538
a(g3161
V52 * 51 * 50 * 49 * 48 * 47 * 46
p3539
(lp3540
(S'R.0'
p3541
F14658134400.0
V52*(52-1)*(52-2)*(52-3)*(52-4)*(52-5)
p3542
V52 * 51 * 50 * 49 * 48 * 47
p3543
tp3544
atp3545
a(V54*(54-1)*(54-2)*(54-3)*(54-4)*(54-5)/(6*5*4*3*2)
p3546
V54*53*52*51*50*49*6
p3547
(lp3548
(S'R.0'
p3549
F18595558800.0
V54*(54-1)*(54-2)*(54-3)*(54-4)*(54-5)
p3550
V54*53*52*51*50*49
p3551
tp3552
atp3553
a(g3546
V54*53*52*51*50*49*48
p3554
(lp3555
(S'R.0'
p3556
F18595558800.0
V54*(54-1)*(54-2)*(54-3)*(54-4)*(54-5)
p3557
V54*53*52*51*50*49
p3558
tp3559
atp3560
a(V50*(50-1)*(50-2)*(50-3)*(50-4)*(50-5)/(6*5*4*3*2)
p3561
V(50!/(44!))/2
p3562
(lp3563
(S'R.0'
p3564
F11441304000.0
V50*(50-1)*(50-2)*(50-3)*(50-4)*(50-5)
p3565
V50!/(44!)
p3566
tp3567
atp3568
a(g3561
V(50*49*48*47*46*45)/(5!)
p3569
(lp3570
(S'R.0'
p3571
F11441304000.0
V50*(50-1)*(50-2)*(50-3)*(50-4)*(50-5)
p3572
V50*49*48*47*46*45
p3573
tp3574
atp3575
a(g3561
V(50*49*48*47*46*45)/(4!)
p3576
(lp3577
(S'R.0'
p3578
F11441304000.0
V50*(50-1)*(50-2)*(50-3)*(50-4)*(50-5)
p3579
V50*49*48*47*46*45
p3580
tp3581
atp3582
a(g3561
V(50*49*48*47*46*45)/(2)
p3583
(lp3584
(S'R.0'
p3585
F11441304000.0
V50*(50-1)*(50-2)*(50-3)*(50-4)*(50-5)
p3586
V50*49*48*47*46*45
p3587
tp3588
atp3589
a(V50*(50-1)*(50-2)*(50-3)*(50-4)*(50-5)/(6*5*4*3*2)
p3590
V50*49*48*47*46*45*44
p3591
(lp3592
(S'R.0'
p3593
F11441304000.0
V50*(50-1)*(50-2)*(50-3)*(50-4)*(50-5)
p3594
V50*49*48*47*46*45
p3595
tp3596
atp3597
a(g3561
V(50*49*48*47*46*45)/6
p3598
(lp3599
(S'R.0'
p3600
F11441304000.0
V50*(50-1)*(50-2)*(50-3)*(50-4)*(50-5)
p3601
V50*49*48*47*46*45
p3602
tp3603
atp3604
a(g3590
V50*49*48*47*46*45/2
p3605
(lp3606
(S'R.0'
p3607
F11441304000.0
V50*(50-1)*(50-2)*(50-3)*(50-4)*(50-5)
p3608
V50*49*48*47*46*45
p3609
tp3610
atp3611
a(g3590
V50*49*48*47*46*45/6
p3612
(lp3613
(S'R.0'
p3614
F11441304000.0
V50*(50-1)*(50-2)*(50-3)*(50-4)*(50-5)
p3615
V50*49*48*47*46*45
p3616
tp3617
atp3618
asS"['R.0.0.0.0.1', 'R.0.0.0.1', 'R.0.0.1', 'R.0.1']"
p3619
(lp3620
(g3315
V50*49*48*47*46*45
p3621
(lp3622
(S'R.0.0.0.0.1'
p3623
F49.0
V51-2
p3624
V49
p3625
tp3626
a(S'R.0.0.0.1'
p3627
F48.0
V51-3
p3628
V48
p3629
tp3630
a(S'R.0.0.1'
p3631
F47.0
V51-4
p3632
V47
p3633
tp3634
a(S'R.0.1'
p3635
F46.0
V51-5
p3636
V46
p3637
tp3638
atp3639
a(V54*(54-1)*(54-2)*(54-3)*(54-4)*(54-5)/(6*5*4*3*2)
p3640
V53*52*51*50*49*48
p3641
(lp3642
(S'R.0.0.0.0.1'
p3643
F52.0
V54-2
p3644
V52
p3645
tp3646
a(S'R.0.0.0.1'
p3647
F51.0
V54-3
p3648
V51
p3649
tp3650
a(S'R.0.0.1'
p3651
F50.0
V54-4
p3652
V50
p3653
tp3654
a(S'R.0.1'
p3655
F49.0
V54-5
p3656
V49
p3657
tp3658
atp3659
a(g3171
V47*46*45*44*43*6
p3660
(lp3661
(S'R.0.0.0.0.1'
p3662
F46.0
V48-2
p3663
V46
p3664
tp3665
a(S'R.0.0.0.1'
p3666
F45.0
V48-3
p3667
V45
p3668
tp3669
a(S'R.0.0.1'
p3670
F44.0
V48-4
p3671
V44
p3672
tp3673
a(S'R.0.1'
p3674
F43.0
V48-5
p3675
V43
p3676
tp3677
atp3678
a(V50*(50-1)*(50-2)*(50-3)*(50-4)*(50-5)/(6*5*4*3*2)
p3679
V49+48+47+46+45+44
p3680
(lp3681
(S'R.0.0.0.0.1'
p3682
F48.0
V50-2
p3683
V48
p3684
tp3685
a(S'R.0.0.0.1'
p3686
F47.0
V50-3
p3687
V47
p3688
tp3689
a(S'R.0.0.1'
p3690
F46.0
V50-4
p3691
V46
p3692
tp3693
a(S'R.0.1'
p3694
F45.0
V50-5
p3695
V45
p3696
tp3697
atp3698
a(g1915
V53 + 52 +51+50+49+48
p3699
(lp3700
(S'R.0.0.0.0.1'
p3701
F52.0
V54-2
p3702
V52
p3703
tp3704
a(S'R.0.0.0.1'
p3705
F51.0
V54-3
p3706
V51
p3707
tp3708
a(S'R.0.0.1'
p3709
F50.0
V54-4
p3710
V50
p3711
tp3712
a(S'R.0.1'
p3713
F49.0
V54-5
p3714
V49
p3715
tp3716
atp3717
a(g1915
V53*52*51*50*49*48
p3718
(lp3719
(S'R.0.0.0.0.1'
p3720
F52.0
V54-2
p3721
V52
p3722
tp3723
a(S'R.0.0.0.1'
p3724
F51.0
V54-3
p3725
V51
p3726
tp3727
a(S'R.0.0.1'
p3728
F50.0
V54-4
p3729
V50
p3730
tp3731
a(S'R.0.1'
p3732
F49.0
V54-5
p3733
V49
p3734
tp3735
atp3736
a(g1915
V53*52*51*50*49*4825827165
p3737
(lp3738
(S'R.0.0.0.0.1'
p3739
F52.0
V54-2
p3740
V52
p3741
tp3742
a(S'R.0.0.0.1'
p3743
F51.0
V54-3
p3744
V51
p3745
tp3746
a(S'R.0.0.1'
p3747
F50.0
V54-4
p3748
V50
p3749
tp3750
a(S'R.0.1'
p3751
F49.0
V54-5
p3752
V49
p3753
tp3754
atp3755
a(V51*(51-1)*(51-2)*(51-3)*(51-4)*(51-5)/(6*5*4*3*2)
p3756
V50*49*48*47*46*45
p3757
(lp3758
(S'R.0.0.0.0.1'
p3759
F49.0
V51-2
p3760
V49
p3761
tp3762
a(S'R.0.0.0.1'
p3763
F48.0
V51-3
p3764
V48
p3765
tp3766
a(S'R.0.0.1'
p3767
F47.0
V51-4
p3768
V47
p3769
tp3770
a(S'R.0.1'
p3771
F46.0
V51-5
p3772
V46
p3773
tp3774
atp3775
asg1606
(lp3776
(V54*(54-1)*(54-2)*(54-3)*(54-4)*(54-5)/(6*5*4*3*2)
p3777
V1.85 * 10^10
p3778
(lp3779
(lp3780
g1612
aF18500000000.0
a(lp3781
I0
aI11
aag1614
aa(lp3782
g1632
aF1.85
a(lp3783
I0
aI3
aaS'R.0'
p3784
aa(lp3785
(lp3786
S'^'
p3787
aF10000000000.0
a(lp3788
I7
aI11
aaS'R.1'
p3789
aa(lp3790
g1632
aF10.0
a(lp3791
I7
aI8
aaS'R.1.0'
p3792
aa(lp3793
g1632
aF10.0
a(lp3794
I10
aI11
aaS'R.1.1'
p3795
aaaVaadhakal
p3796
tp3797
a(g1900
V25,827,165
p3798
(F25827165.0
tp3799
Vquwong
p3800
tp3801
a(V53*(53-1)*(53-2)*(53-3)*(53-4)*(53-5)/(6*5*4*3*2)
p3802
V1.65^10
p3803
(lp3804
(lp3805
g3787
aF149.56826027973128
a(lp3806
I0
aI6
aag1614
aa(lp3807
g1632
aF1.65
a(lp3808
I0
aI3
aaS'R.0'
p3809
aa(lp3810
g1632
aF10.0
a(lp3811
I5
aI6
aaS'R.1'
p3812
aaVq3wen
p3813
tp3814
a(g3679
V44+43+42+41+40+39
p3815
(lp3816
(lp3817
S'+'
p3818
aF249.0
a(lp3819
I0
aI16
aag1614
aa(lp3820
(lp3821
g3818
aF210.0
a(lp3822
I0
aI13
aaS'R.0'
p3823
aa(lp3824
(lp3825
g3818
aF170.0
a(lp3826
I0
aI10
aaS'R.0.0'
p3827
aa(lp3828
(lp3829
g3818
aF129.0
a(lp3830
I0
aI7
aaS'R.0.0.0'
p3831
aa(lp3832
(lp3833
g3818
aF87.0
a(lp3834
I0
aI4
aaS'R.0.0.0.0'
p3835
aa(lp3836
g1632
aF44.0
a(lp3837
I0
aI1
aaS'R.0.0.0.0.0'
p3838
aa(lp3839
g1632
aF43.0
a(lp3840
I3
aI4
aaS'R.0.0.0.0.1'
p3841
aaa(lp3842
g1632
aF42.0
a(lp3843
I6
aI7
aaS'R.0.0.0.1'
p3844
aaa(lp3845
g1632
aF41.0
a(lp3846
I9
aI10
aaS'R.0.0.1'
p3847
aaa(lp3848
g1632
aF40.0
a(lp3849
I12
aI13
aaS'R.0.1'
p3850
aaa(lp3851
g1632
aF39.0
a(lp3852
I15
aI16
aaS'R.1'
p3853
aaVxweng
p3854
tp3855
a(V54*(54-1)*(54-2)*(54-3)*(54-4)*(54-5)/(6*5*4*3*2)
p3856
V1.86E10
p3857
(lp3858
g1632
aF18600000000.0
a(lp3859
I0
aI12
aag1614
aVarvenega
p3860
tp3861
a(g3856
V1.859E10
p3862
(lp3863
g1632
aF18590000000.0
a(lp3864
I0
aI12
aag1614
aVarvenega
p3865
tp3866
a(g1924
V12,966,811,200
p3867
(F12966811200.0
tp3868
Vagarango
p3869
tp3870
a(g1924
V2.3352527*10^17
p3871
(lp3872
(lp3873
g1612
aF2.3352527e+17
a(lp3874
I0
aI14
aag1614
aa(lp3875
g1632
aF2.3352527
a(lp3876
I0
aI8
aaS'R.0'
p3877
aa(lp3878
(lp3879
g3787
aF1e+17
a(lp3880
I10
aI14
aaS'R.1'
p3881
aa(lp3882
g1632
aF10.0
a(lp3883
I10
aI11
aaS'R.1.0'
p3884
aa(lp3885
g1632
aF17.0
a(lp3886
I13
aI14
aaS'R.1.1'
p3887
aaaVagarango
p3888
tp3889
a(g1949
V22,957,480
p3890
(F22957480.0
tp3891
Vakalathi
p3892
tp3893
ass.