(dp0
V1
p1
ccollections
defaultdict
p2
(c__builtin__
list
p3
tp4
Rp5
S'Digits'
p6
(lp7
(V4
p8
V16
p9
S'digit'
p10
tp11
a(V4
p12
V134
p13
g10
tp14
a(V4
p15
V13
p16
g10
tp17
a(V4
p18
V16
p19
g10
tp20
a(V4
p21
V1
p22
g10
tp23
a(V4
p24
V13
p25
g10
tp26
a(V4
p27
V1
p28
g10
tp29
a(V4
p30
V16
p31
g10
tp32
a(V4
p33
V16
p34
g10
tp35
a(V4
p36
V13
p37
g10
tp38
asS'Nothing'
p39
(lp40
sS'Nothing_clusters'
p41
g2
(g3
tp42
Rp43
S"['R']"
p44
(lp45
(V4/52
p46
Vabjara
p47
tp48
a(V4/52
p49
Vsmall
p50
tp51
asssV2
p52
g2
(g3
tp53
Rp54
g39
(lp55
(V0.0769230769230769
p56
V0.076
p57
(lp58
S'X'
p59
aF0.076
a(lp60
I0
aI4
aaS'R'
p61
aVmitopete
p62
tp63
a(V0.0769230769230769
p64
V52/4
p65
(lp66
(lp67
S'/'
p68
aF13.0
a(lp69
I0
aI3
aag61
aa(lp70
g59
aF52.0
a(lp71
I0
aI1
aaS'R.0'
p72
aa(lp73
g59
aF4.0
a(lp74
I3
aI3
aaS'R.1'
p75
aaVjnatale
p76
tp77
a(V0.0769230769230769
p78
V4!/52/51/50/49
p79
(lp80
(lp81
g68
aF3.693785206390249e-06
a(lp82
I0
aI13
aag61
aa(lp83
(lp84
g68
aF0.0001809954751131222
a(lp85
I0
aI10
aaS'R.0'
p86
aa(lp87
(lp88
g68
aF0.00904977375565611
a(lp89
I0
aI7
aaS'R.0.0'
p90
aa(lp91
(lp92
g68
aF0.46153846153846156
a(lp93
I0
aI4
aaS'R.0.0.0'
p94
aa(lp95
(lp96
S'!'
p97
aI24
a(lp98
I0
aI1
aaS'R.0.0.0.0'
p99
aa(lp100
g59
aF4.0
a(lp101
I0
aI0
aaS'R.0.0.0.0.0'
p102
aaa(lp103
g59
aF52.0
a(lp104
I3
aI4
aaS'R.0.0.0.1'
p105
aaa(lp106
g59
aF51.0
a(lp107
I6
aI7
aaS'R.0.0.1'
p108
aaa(lp109
g59
aF50.0
a(lp110
I9
aI10
aaS'R.0.1'
p111
aaa(lp112
g59
aF49.0
a(lp113
I12
aI13
aaS'R.1'
p114
aaVzhw110
p115
tp116
asg41
g2
(g3
tp117
Rp118
S"['R.1']"
p119
(lp120
(V16/52
p121
Vyypan
p122
tp123
a(V1/52
p124
Vj5phung
p125
tp126
a(V5/52
p127
Vtcuddy
p128
tp129
a(V13/52
p130
Vhpc001
p131
tp132
a(V5/52
p133
Vxil109
p134
tp135
a(V1/52
p136
Vkew017
p137
tp138
a(V13/52
p139
Vtcn013
p140
tp141
a(V1/52
p142
Vstarinia
p143
tp144
a(V1/52
p145
Vjjm019
p146
tp147
a(V1/52
p148
Vjic212
p149
tp150
a(V13/52
p151
Vralhadda
p152
tp153
a(V16/52
p154
Vwcwhite
p155
tp156
a(V16/52
p157
Vmcatozzi
p158
tp159
asS"['R.0']"
p160
(lp161
(g124
g125
tp162
a(V1/12
p163
Vanvan
p164
tp165
a(V4/24
p166
Vetemlock
p167
tp168
a(V4/54
p169
Vj2phung
p170
tp171
a(g136
g137
tp172
a(g142
g143
tp173
a(g145
g146
tp174
a(g148
g149
tp175
asS"['R']"
p176
(lp177
(g121
g122
tp178
a(g154
g155
tp179
a(g157
g158
tp180
a(g124
g125
tp181
a(g136
g137
tp182
a(g142
g143
tp183
a(g145
g146
tp184
a(g148
g149
tp185
a(g127
g128
tp186
a(g133
g134
tp187
a(g130
g131
tp188
a(g139
g140
tp189
a(g151
g152
tp190
asss.