(dp0
V1
p1
ccollections
defaultdict
p2
(c__builtin__
list
p3
tp4
Rp5
S'Digits'
p6
(lp7
(V10*26
p8
V130
p9
tp10
a(V10*26
p11
V234
p12
tp13
a(V10*26
p14
V234
p15
tp16
a(V10*26
p17
V243
p18
tp19
a(g17
V270
p20
tp21
a(V10*26
p22
V670
p23
tp24
a(g22
V6760
p25
tp26
a(g22
V2600
p27
tp28
a(V10*26
p29
V234
p30
tp31
a(V10*26
p32
V240
p33
tp34
a(V10*26
p35
V240
p36
tp37
a(g35
V120
p38
tp39
a(g35
V270
p40
tp41
a(V10*26
p42
V236
p43
tp44
a(V10*26
p45
V240
p46
tp47
a(V10*26
p48
V234
p49
tp50
a(V10*26
p51
V35
p52
tp53
a(g51
V36
p54
tp55
a(V10*26
p56
V234
p57
tp58
a(V10*26
p59
V240
p60
tp61
a(V10*26
p62
V5,311,735
p63
tp64
a(g62
V5311735
p65
tp66
a(V10*26
p67
V10
p68
tp69
a(V10*26
p70
V270
p71
tp72
a(V10*26
p73
V234
p74
tp75
a(V10*26
p76
V234
p77
tp78
a(V10*26
p79
V234
p80
tp81
a(V10*26
p82
V234
p83
tp84
a(V10*26
p85
V234
p86
tp87
a(V10*26
p88
V130
p89
tp90
a(V10*26
p91
V234
p92
tp93
a(V10*26
p94
V360
p95
tp96
a(g11
V234
p97
tp98
a(V10*26
p99
V26
p100
tp101
a(V10*26
p102
V234
p103
tp104
a(V10*26
p105
V270
p106
tp107
asS"['R.0']"
p108
(lp109
(V10*26
p110
V10*24
p111
(lp112
(S'R.0'
p113
F10.0
V10
p114
V10
p115
tp116
atp117
a(V10*26
p118
V10^2
p119
(lp120
(S'R.0'
p121
F10.0
V10
p122
V10
p123
tp124
atp125
a(g45
V10*24
p126
(lp127
(S'R.0'
p128
F10.0
V10
p129
V10
p130
tp131
atp132
a(V10*26
p133
V10*36
p134
(lp135
(S'R.0'
p136
F10.0
V10
p137
V10
p138
tp139
atp140
a(V10*26
p141
V10*24
p142
(lp143
(S'R.0'
p144
F10.0
V10
p145
V10
p146
tp147
atp148
a(V10*26
p149
V10*260
p150
(lp151
(S'R.0'
p152
F10.0
V10
p153
V10
p154
tp155
atp156
asS"['R.1']"
p157
(lp158
(V10*26
p159
V9*26
p160
(lp161
(S'R.1'
p162
F26.0
V26
p163
V26
p164
tp165
atp166
a(V10*26
p167
V9*26
p168
(lp169
(S'R.1'
p170
F26.0
V26
p171
V26
p172
tp173
atp174
a(V10*26
p175
V9*26
p176
(lp177
(S'R.1'
p178
F26.0
V26
p179
V26
p180
tp181
atp182
a(V10*26
p183
V9*26
p184
(lp185
(S'R.1'
p186
F26.0
V26
p187
V26
p188
tp189
atp190
a(V10*26
p191
V9*26
p192
(lp193
(S'R.1'
p194
F26.0
V26
p195
V26
p196
tp197
atp198
a(V10*26
p199
V9*26
p200
(lp201
(S'R.1'
p202
F26.0
V26
p203
V26
p204
tp205
atp206
a(V10*26
p207
V9*26
p208
(lp209
(S'R.1'
p210
F26.0
V26
p211
V26
p212
tp213
atp214
a(V10*26
p215
V9+26
p216
(lp217
(S'R.1'
p218
F26.0
V26
p219
V26
p220
tp221
atp222
a(g215
V9*26
p223
(lp224
(S'R.1'
p225
F26.0
V26
p226
V26
p227
tp228
atp229
a(g51
V9*26
p230
(lp231
(S'R.1'
p232
F26.0
V26
p233
V26
p234
tp235
atp236
a(V10*26
p237
V9*26
p238
(lp239
(S'R.1'
p240
F26.0
V26
p241
V26
p242
tp243
atp244
a(V10*26
p245
V9*26
p246
(lp247
(S'R.1'
p248
F26.0
V26
p249
V26
p250
tp251
atp252
a(V10*26
p253
V9*26
p254
(lp255
(S'R.1'
p256
F26.0
V26
p257
V26
p258
tp259
atp260
a(g62
V9*26
p261
(lp262
(S'R.1'
p263
F26.0
V26
p264
V26
p265
tp266
atp267
a(V10*26
p268
V9*26
p269
(lp270
(S'R.1'
p271
F26.0
V26
p272
V26
p273
tp274
atp275
a(V10*26
p276
V9*26
p277
(lp278
(S'R.1'
p279
F26.0
V26
p280
V26
p281
tp282
atp283
a(V10*26
p284
V9*26
p285
(lp286
(S'R.1'
p287
F26.0
V26
p288
V26
p289
tp290
atp291
a(V10*26
p292
V9*26
p293
(lp294
(S'R.1'
p295
F26.0
V26
p296
V26
p297
tp298
atp299
a(V10*26
p300
V9*26
p301
(lp302
(S'R.1'
p303
F26.0
V26
p304
V26
p305
tp306
atp307
a(V10*26
p308
V9*26
p309
(lp310
(S'R.1'
p311
F26.0
V26
p312
V26
p313
tp314
atp315
a(V10*26
p316
V9+26
p317
(lp318
(S'R.1'
p319
F26.0
V26
p320
V26
p321
tp322
atp323
a(V10*26
p324
V9*26
p325
(lp326
(S'R.1'
p327
F26.0
V26
p328
V26
p329
tp330
atp331
a(V10*26
p332
V9*26
p333
(lp334
(S'R.1'
p335
F26.0
V26
p336
V26
p337
tp338
atp339
a(V10*26
p340
V9*26
p341
(lp342
(S'R.1'
p343
F26.0
V26
p344
V26
p345
tp346
atp347
a(V10*26
p348
V9*26
p349
(lp350
(S'R.1'
p351
F26.0
V26
p352
V26
p353
tp354
atp355
a(V10*26
p356
V9*26
p357
(lp358
(S'R.1'
p359
F26.0
V26
p360
V26
p361
tp362
atp363
a(V10*26
p364
V9*26
p365
(lp366
(S'R.1'
p367
F26.0
V26
p368
V26
p369
tp370
atp371
asS'Fraction'
p372
(lp373
(V10*26
p374
V10!/26!
p375
tp376
a(g374
V10!/17!
p377
tp378
a(g175
V(9+26)!/(2!33!)
p379
tp380
a(V10*26
p381
V(10!)(26!)/(36!)
p382
tp383
asS"['R.0', 'R.1']"
p384
(lp385
(g374
V10^26
p386
(lp387
(S'R.0'
p388
F10.0
V10
p389
V10
p390
tp391
a(S'R.1'
p392
F26.0
V26
p393
V26
p394
tp395
atp396
a(g11
V10^26
p397
(lp398
(S'R.0'
p399
F10.0
V10
p400
V10
p401
tp402
a(S'R.1'
p403
F26.0
V26
p404
V26
p405
tp406
atp407
a(V10*26
p408
V10^26
p409
(lp410
(S'R.0'
p411
F10.0
V10
p412
V10
p413
tp414
a(S'R.1'
p415
F26.0
V26
p416
V26
p417
tp418
atp419
assV2
p420
g2
(g3
tp421
Rp422
g6
(lp423
(V10^2*26^3*10^2
p424
V124
p425
tp426
a(V10^2*26^3*10^2
p427
V27576
p428
tp429
a(V10^2*26^3*10^2
p430
V49400000
p431
tp432
a(V10^2*26^3*10^2
p433
V26000
p434
tp435
a(V10^2*26^3*10^2
p436
V18954
p437
tp438
a(g436
V26000
p439
tp440
a(g436
V1757600
p441
tp442
a(g436
V210
p443
tp444
a(g436
V17576000
p445
tp446
a(V10^2*26^2*10^3
p447
V72900000
p448
tp449
a(V10^2*26^2*10^3
p450
V260000
p451
tp452
a(g450
V6460000
p453
tp454
a(g450
V6760000
p455
tp456
a(V10^2*26^2*10^3
p457
V3130
p458
tp459
a(g457
V3120
p460
tp461
a(g457
V31200
p462
tp463
a(g457
V2600
p464
tp465
a(g457
V100676
p466
tp467
a(V10^2*26^2*10^3
p468
V26000
p469
tp470
a(V10^2*26^3*10^2
p471
V138240000
p472
tp473
a(g471
V196830000
p474
tp475
a(V10^2*26^3*10^2
p476
V6760000
p477
tp478
a(V10^2*26^2*10^3
p479
V57600000
p480
tp481
a(V10^2*26^2*10^3
p482
V31200
p483
tp484
a(g482
V2600
p485
tp486
a(V10^2*26^3*10^2
p487
V780000
p488
tp489
a(V10^2*26^3*10^2
p490
V175,760,000
p491
tp492
a(V10^2*26^2*10^3
p493
V12
p494
tp495
a(V10^2*26^2*10^3
p496
V2028000
p497
tp498
a(V10^2*26^2*10^3
p499
V67,600,000
p500
tp501
a(V10^2*26^3*10^2
p502
V158
p503
tp504
a(g502
V175,760,000
p505
tp506
a(V10^2*26^3*10^2
p507
V12
p508
tp509
a(V10^2*26^3*10^2
p510
V196,830,000
p511
tp512
a(g510
V196830000
p513
tp514
a(V10^2*26^3*10^2
p515
V12
p516
tp517
a(g515
V12
p518
tp519
a(V10^2*26^2*10^3
p520
V24
p521
tp522
a(g520
V102
p523
tp524
a(g520
V31,200
p525
tp526
a(g520
V31200
p527
tp528
a(V10^2*26^2*10^3
p529
V17,576,000
p530
tp531
a(g529
V6
p532
tp533
a(g529
V12
p534
tp535
a(g529
V1560000
p536
tp537
a(g529
V20280000
p538
tp539
a(g529
V40560000
p540
tp541
a(V10^2*26^3*10^2
p542
V26000
p543
tp544
a(V10^2*26^2*10^3
p545
V2147483648
p546
tp547
a(V10^2*26^2*10^3
p548
V676000
p549
tp550
a(V10^2*26^3*10^2
p551
V260000
p552
tp553
a(g551
V26000
p554
tp555
a(g551
V18954
p556
tp557
a(g551
V17576000
p558
tp559
a(g551
V26000
p560
tp561
a(V10^2*26^3*10^2
p562
V6760000
p563
tp564
a(V10^2*26^3*10^2
p565
V1296000
p566
tp567
a(g565
V676000
p568
tp569
a(g565
V6760000
p570
tp571
a(V10^2*26^2*10^3
p572
V67,600,000
p573
tp574
a(V10^2*26^3*10^2
p575
V26000
p576
tp577
a(V10^2*26^3*10^2
p578
V115316136
p579
tp580
a(g578
V18954
p581
tp582
a(g578
V115316136
p583
tp584
a(g578
V196830000
p585
tp586
a(V10^2*26^3*10^2
p587
V126360000
p588
tp589
a(g578
V15600
p590
tp591
a(g578
V372600
p592
tp593
a(g430
V6760000
p594
tp595
a(V10^2*26^2*10^3
p596
V33800
p597
tp598
a(V10^2*26^2*10^3
p599
V26000
p600
tp601
a(V10^2*26^3*10^2
p602
V492804
p603
tp604
a(g602
V115316136
p605
tp606
a(V10^2*26^3*10^2
p607
V1757600000
p608
tp609
a(V10^2*26^3*10^2
p610
V177957
p611
tp612
a(V10^2*26^2*10^3
p613
V6760000
p614
tp615
a(V10^2*26^2*10^3
p616
V26000
p617
tp618
asS"['R.0.0']"
p619
(lp620
(V10^2*26^2*10^3
p621
V10*10*26*10
p622
(lp623
(S'R.0.0'
p624
F100.0
V10^2
p625
V10*10
p626
tp627
atp628
a(V10^2*26^3*10^2
p629
V10*10*26*10
p630
(lp631
(S'R.0.0'
p632
F100.0
V10^2
p633
V10*10
p634
tp635
atp636
a(g629
V10*10*26*10
p637
(lp638
(S'R.0.0'
p639
F100.0
V10^2
p640
V10*10
p641
tp642
atp643
a(V10^2*26^3*10^2
p644
V10*10*26*10
p645
(lp646
(S'R.0.0'
p647
F100.0
V10^2
p648
V10*10
p649
tp650
atp651
a(g629
V100*26*10
p652
(lp653
(S'R.0.0'
p654
F100.0
V10^2
p655
V100
p656
tp657
atp658
a(V10^2*26^2*10^3
p659
V10*10*26*10
p660
(lp661
(S'R.0.0'
p662
F100.0
V10^2
p663
V10*10
p664
tp665
atp666
a(V10^2*26^2*10^3
p667
V10 * 10 * 26 * 10
p668
(lp669
(S'R.0.0'
p670
F100.0
V10^2
p671
V10 * 10
p672
tp673
atp674
a(V10^2*26^3*10^2
p675
V10*10*26*10
p676
(lp677
(S'R.0.0'
p678
F100.0
V10^2
p679
V10*10
p680
tp681
atp682
a(V10^2*26^2*10^3
p683
V100 * 26 * 10
p684
(lp685
(S'R.0.0'
p686
F100.0
V10^2
p687
V100
p688
tp689
atp690
a(V10^2*26^3*10^2
p691
V10*10*26*10
p692
(lp693
(S'R.0.0'
p694
F100.0
V10^2
p695
V10*10
p696
tp697
atp698
a(V10^2*26^3*10^2
p699
V10*10*3*2
p700
(lp701
(S'R.0.0'
p702
F100.0
V10^2
p703
V10*10
p704
tp705
atp706
a(V10^2*26^2*10^3
p707
V10*10*26*10
p708
(lp709
(S'R.0.0'
p710
F100.0
V10^2
p711
V10*10
p712
tp713
atp714
a(V10^2*26^3*10^2
p715
V10*10*26*10
p716
(lp717
(S'R.0.0'
p718
F100.0
V10^2
p719
V10*10
p720
tp721
atp722
a(V10^2*26^2*10^3
p723
V10*10*26*10
p724
(lp725
(S'R.0.0'
p726
F100.0
V10^2
p727
V10*10
p728
tp729
atp730
a(V10^2*26^3*10^2
p731
V100*26*10
p732
(lp733
(S'R.0.0'
p734
F100.0
V10^2
p735
V100
p736
tp737
atp738
a(V10^2*26^2*10^3
p739
V10*10*26*10
p740
(lp741
(S'R.0.0'
p742
F100.0
V10^2
p743
V10*10
p744
tp745
atp746
asS"['R.0.0.0', 'R.0.0.1', 'R.0.1.0', 'R.0.1.1']"
p747
(lp748
(g502
V(10*2)+(26*3)+(20)
p749
(lp750
(S'R.0.0.0'
p751
F10.0
V10
p752
V10
p753
tp754
a(S'R.0.0.1'
p755
F2.0
V2
p756
g756
tp757
a(S'R.0.1.0'
p758
F26.0
V26
p759
V26
p760
tp761
a(S'R.0.1.1'
p762
F3.0
V3
p763
g763
tp764
atp765
asS"['R.0.0.0', 'R.1']"
p766
(lp767
(V10^2*26^2*10^3
p768
V10*26*26*1000
p769
(lp770
(S'R.0.0.0'
p771
F10.0
V10
p772
V10
p773
tp774
a(S'R.1'
p775
F1000.0
V10^3
p776
V1000
p777
tp778
atp779
asS"['R.0.0', 'R.0.1', 'R.1']"
p780
(lp781
(V10^2*26^2*10^3
p782
V10^2 + 26^2 + 10^3
p783
(lp784
(S'R.0.0'
p785
F100.0
V10^2
p786
V10^2
p787
tp788
a(S'R.0.1'
p789
F676.0
V26^2
p790
V26^2
p791
tp792
a(S'R.1'
p793
F1000.0
V10^3
p794
V10^3
p795
tp796
atp797
asS"['R.1']"
p798
(lp799
(V10^2*26^2*10^3
p800
V10*10*27*27*1000
p801
(lp802
(S'R.1'
p803
F1000.0
V10^3
p804
V1000
p805
tp806
atp807
asS'redirect'
p808
(lp809
(V10^2*26^3*10^2
p810
V(10**3)*(26**3)
p811
tp812
a(g810
V(9**3)*(26**3)
p813
tp814
a(g447
V10*10*27*27*10*10*10
p815
tp816
a(V10^2*26^3*10^2
p817
V2*3*2
p818
tp819
a(V10^2*26^3*10^2
p820
V9*9*26*26*26*9*9
p821
tp822
a(V10^2*26^3*10^2
p823
V9*9*26*26*26*9*9
p824
tp825
a(V10^2*26^2*10^3
p826
V10!*10!*26!*26!*10!*10!*10!
p827
tp828
a(V10^2*26^3*10^2
p829
V9*9*26*26*26*9*9
p830
tp831
a(g675
V9*9*26*9
p832
tp833
a(V10^2*26^3*10^2
p834
V10*10*26*26*10*10
p835
tp836
a(V10^2*26^2*10^3
p837
V2*2*3
p838
tp839
a(V10^2*26^2*10^3
p840
V26^7
p841
tp842
a(V10^2*26^3*10^2
p843
V9*9*26*26*26*9*9
p844
tp845
a(V10^2*26^2*10^3
p846
V3*9*2*26
p847
tp848
a(V10^2*26^2*10^3
p849
V9*9*26*26*9*9*9
p850
tp851
a(V10^2*26^2*10^3
p852
V9 * 26 * 9 * 26 * 9 * 9
p853
tp854
a(g723
V9*9*26*9
p855
tp856
a(V10^2*26^3*10^2
p857
V10*10
p858
tp859
asS"['R.0.1.0', 'R.1.1']"
p860
(lp861
(V10^2*26^2*10^3
p862
VC(10,2)*C(26,2)*C(10,3)
p863
(lp864
(S'R.0.1.0'
p865
F26.0
V26
p866
V26
p867
tp868
a(S'R.1.1'
p869
F3.0
g763
g763
tp870
atp871
asS"['R.0.1', 'R.1.1']"
p872
(lp873
(V10^2*26^2*10^3
p874
V(9^2)*(26^2)*(9^3)
p875
(lp876
(S'R.0.1'
p877
F676.0
V26^2
p878
V26^2
p879
tp880
a(S'R.1.1'
p881
F3.0
g763
g763
tp882
atp883
asS"['R.0.0.0']"
p884
(lp885
(g667
V10 * 9 * 26 * 8
p886
(lp887
(S'R.0.0.0'
p888
F10.0
V10
p889
V10
p890
tp891
atp892
a(V10^2*26^2*10^3
p893
V(10!/5!)*(26!*24!)
p894
(lp895
(S'R.0.0.0'
p896
F10.0
V10
p897
V10
p898
tp899
atp900
a(g893
V(10!/5!)*(26!/24!)
p901
(lp902
(S'R.0.0.0'
p903
F10.0
V10
p904
V10
p905
tp906
atp907
a(g893
V(10!/5!)+(26!/24!)
p908
(lp909
(S'R.0.0.0'
p910
F10.0
V10
p911
V10
p912
tp913
atp914
asS"['R.0.1.0']"
p915
(lp916
(V10^2*26^3*10^2
p917
V9*8+26*25+24*9*8
p918
(lp919
(S'R.0.1.0'
p920
F26.0
V26
p921
V26
p922
tp923
atp924
a(g917
V9*9+26*26+24*9*9
p925
(lp926
(S'R.0.1.0'
p927
F26.0
V26
p928
V26
p929
tp930
atp931
a(g629
V10!*10!*26!*10!
p932
(lp933
(S'R.0.1.0'
p934
F26.0
V26
p935
V26
p936
tp937
atp938
a(g629
V20!*26!*10!
p939
(lp940
(S'R.0.1.0'
p941
F26.0
V26
p942
V26
p943
tp944
atp945
a(g629
V100!*26!*10!
p946
(lp947
(S'R.0.1.0'
p948
F26.0
V26
p949
V26
p950
tp951
atp952
a(V10^2*26^3*10^2
p953
V2(10)*3(26)*2(10)
p954
(lp955
(S'R.0.1.0'
p956
F26.0
V26
p957
V26
p958
tp959
atp960
asS"['R.0']"
p961
(lp962
(V10^2*26^3*10^2
p963
V10*10*26^3*1000
p964
(lp965
(S'R.0'
p966
F1757600.0
V10^2*26^3
p967
V10*10*26^3
p968
tp969
atp970
a(g629
V10^2*26^3*10
p971
(lp972
(S'R.0'
p973
F1757600.0
V10^2*26^3
p974
V10^2*26^3
p975
tp976
atp977
a(g723
V10*10*26*26*10
p978
(lp979
(S'R.0'
p980
F67600.0
V10^2*26^2
p981
V10*10*26*26
p982
tp983
atp984
a(g731
V100*(26^3)*10
p985
(lp986
(S'R.0'
p987
F1757600.0
V10^2*26^3
p988
V100*(26^3)
p989
tp990
atp991
asS"['R.0.0.0', 'R.0.0.1', 'R.0.1']"
p992
(lp993
(g502
V(10*2)+(26*26*26)+(20)
p994
(lp995
(S'R.0.0.0'
p996
F10.0
V10
p997
V10
p998
tp999
a(S'R.0.0.1'
p1000
F2.0
g756
g756
tp1001
a(S'R.0.1'
p1002
F17576.0
V26^3
p1003
V26*26*26
p1004
tp1005
atp1006
asg372
(lp1007
(V10^2*26^3*10^2
p1008
V[10*10*26*26*26*10*10]/[2*3*2*2]
p1009
tp1010
a(g610
V21970000/3
p1011
tp1012
asS"['R.0.1']"
p1013
(lp1014
(g629
V10*(26^3)*(10^2)
p1015
(lp1016
(S'R.0.1'
p1017
F17576.0
V26^3
p1018
V26^3
p1019
tp1020
atp1021
asS"['R.0.1.1']"
p1022
(lp1023
(g629
V6*10^3*26
p1024
(lp1025
(S'R.0.1.1'
p1026
F3.0
g763
g763
tp1027
atp1028
a(g629
V12*10^3*26
p1029
(lp1030
(S'R.0.1.1'
p1031
F3.0
g763
g763
tp1032
atp1033
a(g629
V11*10^3*26
p1034
(lp1035
(S'R.0.1.1'
p1036
F3.0
g763
g763
tp1037
atp1038
asS"['R.0.1.0', 'R.0.1.1']"
p1039
(lp1040
(V10^2*26^3*10^2
p1041
V100*(26*3)*100
p1042
(lp1043
(S'R.0.1.0'
p1044
F26.0
V26
p1045
V26
p1046
tp1047
a(S'R.0.1.1'
p1048
F3.0
g763
g763
tp1049
atp1050
a(g502
V20+(26*3)+(20)
p1051
(lp1052
(S'R.0.1.0'
p1053
F26.0
V26
p1054
V26
p1055
tp1056
a(S'R.0.1.1'
p1057
F3.0
g763
g763
tp1058
atp1059
a(g502
V20*(26*3)*(20)
p1060
(lp1061
(S'R.0.1.0'
p1062
F26.0
V26
p1063
V26
p1064
tp1065
a(S'R.0.1.1'
p1066
F3.0
g763
g763
tp1067
atp1068
ass.