(dp0
V1
p1
(dp2
Vjblynch
p3
(dp4
S'part1_correct_attempt'
p5
(lp6
S'0:00:13'
p7
aV3*2
p8
asS'first_attempt'
p9
V2015-10-05 03:54:01
p10
sS'part1_incorrect_attempt'
p11
(lp12
(S'0:00:00'
p13
V5!/(3!*2!)
p14
tp15
assVmjethani
p16
(dp17
S'part1_correct_attempt'
p18
(lp19
S'0:01:03'
p20
aV6
p21
asg9
V2015-10-04 21:56:17
p22
sS'part1_incorrect_attempt'
p23
(lp24
(S'0:00:00'
p25
V5!
p26
tp27
assVasp025
p28
(dp29
S'part1_correct_attempt'
p30
(lp31
S'3:33:26'
p32
aV6
p33
asg9
V2015-10-08 01:51:45
p34
sS'part1_incorrect_attempt'
p35
(lp36
(S'0:00:00'
p37
V7!/5!
p38
tp39
a(S'0:00:52'
p40
V5!/3!
p41
tp42
a(S'0:02:11'
p43
V5!/(3!2!)
p44
tp45
assVhachrist
p46
(dp47
S'part1_correct_attempt'
p48
(lp49
S'0:01:43'
p50
aV6
p51
asg9
V2015-10-02 19:12:05
p52
sS'part1_incorrect_attempt'
p53
(lp54
(S'0:00:00'
p55
V5!
p56
tp57
asssV2
p58
(dp59
Vdruble
p60
(dp61
S'part2_correct_attempt'
p62
(lp63
S'0:00:34'
p64
aV10*8
p65
asg9
V2015-10-08 20:05:06
p66
sS'part2_incorrect_attempt'
p67
(lp68
(S'0:00:00'
p69
V10*4^2
p70
tp71
assVdaw023
p72
(dp73
S'part2_correct_attempt'
p74
(lp75
S'0:03:42'
p76
aV10*2*3
p77
asg9
V2015-10-03 07:31:43
p78
sS'part2_incorrect_attempt'
p79
(lp80
(S'0:00:00'
p81
V3*100
p82
tp83
a(S'0:00:49'
p84
V3*10*3*10
p85
tp86
asss.