(dp0
V1
p1
ccollections
defaultdict
p2
(c__builtin__
list
p3
tp4
Rp5
S'Nothing'
p6
(lp7
V9
p8
aV27
p9
aV3!/2!
p10
aV3
p11
aV3*2*1/2*1
p12
aV(3*2*1)/(2*1)
p13
aV3
p14
aV9
p15
aV3
p16
aV9
p17
aV4
p18
aV5
p19
aV9
p20
aV3^3
p21
aV3^3
p22
aV3
p23
aV9
p24
aV9
p25
aV3
p26
aV27
p27
aV27
p28
aV9
p29
aV8
p30
aV9
p31
aV3
p32
aV9
p33
aV27
p34
aV8
p35
aV3!2!
p36
aV9
p37
aV3*3*3
p38
aV9
p39
aV5
p40
aVP(3,3)
p41
aV540320
p42
aV5
p43
aV(3!)/2!
p44
aV3^2
p45
aV2^3
p46
aV2^2
p47
aV12
p48
aVP(3, 3)
p49
aV9
p50
aV9
p51
aV5
p52
aV4
p53
aV5
p54
assV2
p55
g2
(g3
tp56
Rp57
g6
(lp58
V81
p59
aV240
p60
aV26880
p61
aV6**6
p62
aV64
p63
aV56
p64
aV5040
p65
aV3125
p66
aV25
p67
aV20
p68
aV21
p69
aV22
p70
aV23
p71
aV30
p72
aV29
p73
aV20
p74
aV21
p75
aV22
p76
aV23
p77
aV24
p78
aV25
p79
aV49
p80
aV42
p81
aV10368
p82
aV1944
p83
aV42
p84
aV40,320
p85
aV36
p86
aV8^8
p87
aV10
p88
aV4
p89
aV12
p90
aV16
p91
aV15
p92
aV16
p93
aV12
p94
aV24883200
p95
aV(P8, 8)
p96
aVP(8, 8)
p97
aV823543
p98
aV720
p99
ass.