(dp0
V1
p1
ccollections
defaultdict
p2
(c__builtin__
list
p3
tp4
Rp5
S'Nothing'
p6
(lp7
(V16
p8
V{1,2,3,4,5,6,7,8,9,10,11,12,13,14,15,16}
p9
tp10
a(V12
p11
V7
p12
tp13
a(V18
p14
V8
p15
tp16
a(V19
p17
V5/19
p18
tp19
a(V11
p20
V1
p21
tp22
a(V10
p23
V5
p24
tp25
a(V20
p26
V.35
p27
tp28
a(g26
V7
p29
tp30
a(g26
V1
p31
tp32
a(V13
p33
V{1,2,3,4,5,6,7}
p34
tp35
a(g33
V7
p36
tp37
a(V10
p38
V7
p39
tp40
a(g38
V{1,2,3,4,5,6,7}
p41
tp42
a(g38
V1,2,3,4,5,6,7
p43
tp44
a(g38
V7/10
p45
tp46
a(g38
V10`
p47
tp48
a(V18
p49
V2
p50
tp51
a(V13
p52
V7
p53
tp54
a(g52
V{1, 2, 3, 4, 5, 6, 7}
p55
tp56
a(V15
p57
V1,2,3,4,5,6,7,8,9,10
p58
tp59
a(g57
V10
p60
tp61
a(V19
p62
V7/19
p63
tp64
a(V17
p65
V7
p66
tp67
a(V10
p68
V7
p69
tp70
a(V10
p71
V9
p72
tp73
a(V19
p74
V9
p75
tp76
a(V18
p77
V{1,2,3,4,5,6,7,8,9,10,11,12}
p78
tp79
a(g77
V12
p80
tp81
a(V19
p82
V11
p83
tp84
a(V19
p85
V6
p86
tp87
a(V10
p88
V6
p89
tp90
a(V19
p91
V17/19
p92
tp93
a(V10
p94
V7
p95
tp96
a(g94
V1, 2, 3, 4, 5, 6, 7
p97
tp98
a(g94
V{1, 2, 3, 4, 5, 6, 7}
p99
tp100
a(V11
p101
V{1,2,3,4,5,6}
p102
tp103
a(g101
V6
p104
tp105
a(V11
p106
V{1,2,3,4,5}
p107
tp108
a(g106
V5
p109
tp110
a(g106
V1
p111
tp112
a(V10
p113
V5
p114
tp115
a(g113
V1,2,3,4,5
p116
tp117
a(g113
V5
p118
tp119
a(g113
V4
p120
tp121
a(g113
V6
p122
tp123
a(g113
V5
p124
tp125
a(V19
p126
V12
p127
tp128
a(V14
p129
V1,2,3,4,5,6,7,8
p130
tp131
a(V14
p132
V12/14
p133
tp134
a(g132
V6/7
p135
tp136
a(g132
V12
p137
tp138
a(g132
V2
p139
tp140
a(g132
V{1,2,3,4,5,6,7,8,9,10,11,12}
p141
tp142
a(g132
V11
p143
tp144
a(V14
p145
V10
p146
tp147
a(V18
p148
V17
p149
tp150
a(g148
V{1,2,3,4,5,6,7,8,9,10,11,12,13,14,15,16,17}
p151
tp152
a(g148
V17
p153
tp154
a(g148
V1
p155
tp156
a(V16
p157
V(|9|)/(|16|)
p158
tp159
a(g157
V(9)/(16)
p160
tp161
a(g157
V{1,2,3,4,5,6,7,8,9}
p162
tp163
a(g157
V9
p164
tp165
a(g157
V9/16
p166
tp167
a(g157
V9
p168
tp169
a(g157
V1/9
p170
tp171
a(g157
V9/16
p172
tp173
a(g157
V{1,2,3,4,5,6,7,8,9}
p174
tp175
a(g157
V1,2,3,4,5,6,7,8,9
p176
tp177
a(V12
p178
V9
p179
tp180
a(V16
p181
V10
p182
tp183
a(V13
p184
V11
p185
tp186
a(g184
V10
p187
tp188
a(V19
p189
V{1, 2, 3, ... , 19}
p190
tp191
a(V19
p192
V14
p193
tp194
a(V18
p195
V{1,2,3,4,5,6,7,8,9,10,11,12,13,14,15,16}
p196
tp197
a(g195
V16
p198
tp199
a(V18
p200
V15
p201
tp202
a(V10
p203
V7
p204
tp205
a(V12
p206
V8
p207
tp208
a(g206
V1,2,3,4,5,6,7,8
p209
tp210
a(V20
p211
V15
p212
tp213
a(V15
p214
V{1,2,3,4,5,6,7,8,9,10,11}
p215
tp216
a(g214
V11
p217
tp218
a(V20
p219
V11
p220
tp221
a(V12
p222
V10
p223
tp224
a(V11
p225
V5
p226
tp227
a(g225
V1,2,3,4,5
p228
tp229
a(V12
p230
V9/12
p231
tp232
a(V20
p233
V16
p234
tp235
a(V18
p236
V15
p237
tp238
a(V14
p239
V11
p240
tp241
a(V16
p242
V9
p243
tp244
a(g242
V1
p245
tp246
a(V11
p247
V5
p248
tp249
a(g247
V1,2,3,4,5
p250
tp251
a(g247
V{1,2,3,4,5}
p252
tp253
a(g247
V5
p254
tp255
a(g247
V1
p256
tp257
a(V20
p258
V10
p259
tp260
a(V19
p261
V5
p262
tp263
a(V14
p264
V3
p265
tp266
a(g264
V12
p267
tp268
a(V11
p269
V{1,2,3,4,5,6,7,8,9}
p270
tp271
a(g269
V1,2,3,4,5,6,7,8,9
p272
tp273
a(g269
V9
p274
tp275
a(V13
p276
V{1,2,3,4,5,6,7,8,9}
p277
tp278
a(g276
V9
p279
tp280
a(V14
p281
V13/14
p282
tp283
a(g281
V13
p284
tp285
a(V18
p286
V1/18
p287
tp288
a(g286
V10
p289
tp290
a(V19
p291
V14/19
p292
tp293
a(g291
V{1, 2, 3, 4, 5, 6, 7, 8, 9, 10, 11, 12, 13, 14}
p294
tp295
a(g291
V14
p296
tp297
a(V10
p298
V1,2,3,4,5,6,7,8,9,10
p299
tp300
a(g298
V1,2,3,4,5,6,7,8
p301
tp302
a(g298
V8
p303
tp304
a(V11
p305
V{1,2,3,4,5,6,7,8,9,10,11}
p306
tp307
a(g305
V1,2,3,4,5,6,7,8,9,10,11
p308
tp309
a(V17
p310
V{1,2,3,4,5,6,7,8,9}
p311
tp312
a(g310
V9
p313
tp314
a(V15
p315
V{1,2,3,4,5,6,7,8,9,10.11,12}
p316
tp317
a(g315
V12
p318
tp319
a(V16
p320
V1
p321
tp322
a(V12
p323
V1
p324
tp325
a(V18
p326
V7/18
p327
tp328
a(g326
V{1,2,3,4,5,6,7,8,9,10,11,12,13,14,15,16,17,18}
p329
tp330
a(g326
V7
p331
tp332
a(g326
V6
p333
tp334
a(V11
p335
V7
p336
tp337
a(V10
p338
V8
p339
tp340
a(g338
V7
p341
tp342
a(g338
V8/10
p343
tp344
a(V16
p345
V1,2,3,4,5,6,7,8,9,10,11,12,13
p346
tp347
a(g345
V13
p348
tp349
a(V20
p350
V17
p351
tp352
a(g350
V{1,2,3,4,5,6,7,8,9,10,11,12,13,14,15,16,17}
p353
tp354
a(g350
V1
p355
tp356
a(V16
p357
V12/16
p358
tp359
a(V16
p360
V9
p361
tp362
a(V16
p363
V1, 2, 3, ... , 16
p364
tp365
assV3
p366
g2
(g3
tp367
Rp368
S"['R.1']"
p369
(lp370
(V5/12
p371
V7/12
p372
(lp373
(S'R.1'
p374
F12.0
V12
p375
V12
p376
tp377
atp378
a(V5/14
p379
V1/14
p380
(lp381
(S'R.1'
p382
F14.0
V14
p383
V14
p384
tp385
atp386
a(V15/15
p387
V1/15
p388
(lp389
(S'R.1'
p390
F15.0
V15
p391
V15
p392
tp393
atp394
a(V7/20
p395
V6/20
p396
(lp397
(S'R.1'
p398
F20.0
V20
p399
V20
p400
tp401
atp402
a(V10/20
p403
V1/20
p404
(lp405
(S'R.1'
p406
F20.0
V20
p407
V20
p408
tp409
atp410
a(V5/15
p411
V1/15
p412
(lp413
(S'R.1'
p414
F15.0
V15
p415
V15
p416
tp417
atp418
a(V7/17
p419
V1/17
p420
(lp421
(S'R.1'
p422
F17.0
V17
p423
V17
p424
tp425
atp426
a(V6/18
p427
V1/18
p428
(lp429
(S'R.1'
p430
F18.0
V18
p431
V18
p432
tp433
atp434
a(V8/17
p435
V1/17
p436
(lp437
(S'R.1'
p438
F17.0
V17
p439
V17
p440
tp441
atp442
a(V13/13
p443
V1/13
p444
(lp445
(S'R.1'
p446
F13.0
V13
p447
V13
p448
tp449
atp450
a(V11/12
p451
V1/12
p452
(lp453
(S'R.1'
p454
F12.0
V12
p455
V12
p456
tp457
atp458
a(V10/10
p459
V1/10
p460
(lp461
(S'R.1'
p462
F10.0
V10
p463
V10
p464
tp465
atp466
a(V9/12
p467
V1/12
p468
(lp469
(S'R.1'
p470
F12.0
V12
p471
V12
p472
tp473
atp474
a(V12/13
p475
V1/13
p476
(lp477
(S'R.1'
p478
F13.0
V13
p479
V13
p480
tp481
atp482
a(V19/19
p483
V18/19
p484
(lp485
(S'R.1'
p486
F19.0
V19
p487
V19
p488
tp489
atp490
a(V14/19
p491
V1/19
p492
(lp493
(S'R.1'
p494
F19.0
V19
p495
V19
p496
tp497
atp498
a(V14/20
p499
V1/20
p500
(lp501
(S'R.1'
p502
F20.0
V20
p503
V20
p504
tp505
atp506
a(V12/14
p507
V3/14
p508
(lp509
(S'R.1'
p510
F14.0
V14
p511
V14
p512
tp513
atp514
a(V10/12
p515
V1/12
p516
(lp517
(S'R.1'
p518
F12.0
V12
p519
V12
p520
tp521
atp522
a(V18/20
p523
V1/20
p524
(lp525
(S'R.1'
p526
F20.0
V20
p527
V20
p528
tp529
atp530
a(V8/16
p531
V7/16
p532
(lp533
(S'R.1'
p534
F16.0
V16
p535
V16
p536
tp537
atp538
asg6
(lp539
(V11/12
p540
V1/11
p541
tp542
a(V13/14
p543
V6/7
p544
tp545
a(V8/15
p546
V1/8
p547
tp548
a(V9/12
p549
V2/3
p550
tp551
a(V16/17
p552
V0.0625
p553
tp554
a(g552
V.94
p555
tp556
a(V16/18
p557
V1/16
p558
tp559
a(g459
V10/(10+9+8+7+6+5+4+3+2+1)
p560
tp561
a(g459
V10
p562
tp563
a(V18/20
p564
V1/18
p565
tp566
a(g467
V1
p567
tp568
a(V12/14
p569
V3/6
p570
tp571
a(V17/18
p572
V1/(17/18)
p573
tp574
a(g572
V1/17
p575
tp576
a(V8/18
p577
V1/2
p578
tp579
a(g577
V18/8
p580
tp581
a(g577
V1/2
p582
tp583
a(g577
V9/4
p584
tp585
a(g491
V1/14
p586
tp587
a(V8/15
p588
V15/8
p589
tp590
a(g588
V1/8
p591
tp592
a(V11/13
p593
V1/10
p594
tp595
a(g593
V1/11
p596
tp597
a(V17/20
p598
V17
p599
tp600
a(V8/10
p601
V(1*10)^8
p602
tp603
a(g601
V(1*10) * 8
p604
tp605
assV2
p606
g2
(g3
tp607
Rp608
g6
(lp609
(V6
p610
V{16}
p611
tp612
a(g610
V16
p613
tp614
a(g610
V15
p615
tp616
a(V5
p617
V12
p618
tp619
a(V8
p620
V18
p621
tp622
a(V5
p623
V14
p624
tp625
a(V7
p626
V6
p627
tp628
a(V10
p629
V20
p630
tp631
a(V5
p632
V15
p633
tp634
a(V7
p635
V10
p636
tp637
a(g635
V{1,2,3,4,5,6,7,8,9,10}
p638
tp639
a(g635
V1,2,3,4,5,6,7,8,9,10
p640
tp641
a(g635
V10/10
p642
tp643
a(V16
p644
V18
p645
tp646
a(g644
V3
p647
tp648
a(V11
p649
V1
p650
tp651
a(V7
p652
V17
p653
tp654
a(V7
p655
V10
p656
tp657
a(V8
p658
V13
p659
tp660
a(V7
p661
V17
p662
tp663
a(g661
V1/17
p664
tp665
a(V11
p666
V19
p667
tp668
a(V11
p669
V12
p670
tp671
a(V6
p672
V19
p673
tp674
a(V6
p675
V17
p676
tp677
a(V6
p678
V19
p679
tp680
a(V7
p681
V10
p682
tp683
a(V8
p684
V17
p685
tp686
a(V12
p687
V19
p688
tp689
a(V12
p690
V14
p691
tp692
a(g690
V1
p693
tp694
a(g690
V14
p695
tp696
a(V13
p697
V12
p698
tp699
a(V7
p700
V20
p701
tp702
a(V10
p703
V16
p704
tp705
a(V12
p706
V14
p707
tp708
a(V9
p709
V9/19
p710
tp711
a(V16
p712
V17
p713
tp714
a(V11
p715
V12
p716
tp717
a(V10
p718
V1
p719
tp720
a(g718
V10+9+8+7+6+5+4+3+2+1
p721
tp722
a(V15
p723
V18
p724
tp725
a(V16
p726
V19
p727
tp728
a(V12
p729
V37
p730
tp731
a(V15
p732
V20
p733
tp734
a(V9
p735
V1/12
p736
tp737
a(g735
V12
p738
tp739
a(g735
V1
p740
tp741
a(V12
p742
V13
p743
tp744
a(V12
p745
V6
p746
tp747
a(g745
V14
p748
tp749
a(V15
p750
V17
p751
tp752
a(g750
V1/17
p753
tp754
a(V7
p755
V20
p756
tp757
a(V11
p758
V20
p759
tp760
a(V8
p761
V18
p762
tp763
a(g761
V5
p764
tp765
a(g761
V9
p766
tp767
a(V14
p768
V20
p769
tp770
a(V17
p771
V20
p772
tp773
a(V8
p774
V10
p775
tp776
a(V12
p777
V14
p778
tp779
a(V8
p780
V15
p781
tp782
a(V9
p783
V13
p784
tp785
a(V10
p786
V12
p787
tp788
a(V7
p789
V11
p790
tp791
a(V12
p792
V15
p793
tp794
a(V18
p795
V20
p796
tp797
a(V11
p798
V10
p799
tp800
a(V5
p801
V16
p802
tp803
a(g801
V1/16
p804
tp805
a(g801
V16
p806
tp807
a(V8
p808
V7
p809
tp810
a(V8
p811
V10
p812
tp813
ass.