(dp0
V1
p1
ccollections
defaultdict
p2
(c__builtin__
list
p3
tp4
Rp5
S'Nothing'
p6
(lp7
(V6*6
p8
V24!
p9
(lp10
(lp11
S'!'
p12
aL620448401733239439360000L
a(lp13
I0
aI2
aaS'R'
p14
aa(lp15
S'X'
p16
aF24.0
a(lp17
I0
aI1
aaS'R.0'
p18
aaVajvanega
p19
tp20
a(V6*6
p21
V6**6
p22
(lp23
(lp24
S'^'
p25
aF46656.0
a(lp26
I0
aI3
aag14
aa(lp27
g16
aF6.0
a(lp28
I0
aI0
aaS'R.0'
p29
aa(lp30
g16
aF6.0
a(lp31
I3
aI3
aaS'R.1'
p32
aaVkvass
p33
tp34
asS'Digits'
p35
(lp36
(V6*6
p37
V72
p38
S'digit'
p39
tp40
a(V6*6
p41
V72
p42
g39
tp43
a(V6*6
p44
V72
p45
g39
tp46
a(g8
V12
p47
g39
tp48
a(g8
V24
p49
g39
tp50
a(V6*6
p51
V72
p52
g39
tp53
a(V6*6
p54
V72
p55
g39
tp56
a(g51
V144
p57
g39
tp58
a(V6*6
p59
V72
p60
g39
tp61
a(g59
V66
p62
g39
tp63
a(V6*6
p64
V35
p65
g39
tp66
a(V6*6
p67
V72
p68
g39
tp69
a(V6*6
p70
V72
p71
g39
tp72
a(V6*6
p73
V72
p74
g39
tp75
a(V6*6
p76
V60
p77
g39
tp78
a(V6*6
p79
V72
p80
g39
tp81
a(V6*6
p82
V12
p83
g39
tp84
a(V6*6
p85
V518400
p86
g39
tp87
a(g85
V1440
p88
g39
tp89
a(g85
V30
p90
g39
tp91
a(g85
V15
p92
g39
tp93
a(V6*6
p94
V72
p95
g39
tp96
a(V6*6
p97
V30
p98
g39
tp99
a(V6*6
p100
V72
p101
g39
tp102
a(V6*6
p103
V72
p104
g39
tp105
a(V6*6
p106
V12
p107
g39
tp108
a(V6*6
p109
V68
p110
g39
tp111
a(g109
V12
p112
g39
tp113
a(V6*6
p114
V72
p115
g39
tp116
a(g114
V18
p117
g39
tp118
a(V6*6
p119
V24
p120
g39
tp121
a(V6*6
p122
V72
p123
g39
tp124
a(g122
V66
p125
g39
tp126
a(g122
V72
p127
g39
tp128
a(V6*6
p129
V64
p130
g39
tp131
a(g129
V58
p132
g39
tp133
a(g129
V52
p134
g39
tp135
a(g129
V60
p136
g39
tp137
a(V6*6
p138
V72
p139
g39
tp140
a(V6*6
p141
V12
p142
g39
tp143
a(V6*6
p144
V720
p145
g39
tp146
a(g144
V144
p147
g39
tp148
a(V6*6
p149
V12
p150
g39
tp151
a(g149
V24
p152
g39
tp153
a(V6*6
p154
V72
p155
g39
tp156
a(g154
V66
p157
g39
tp158
a(V6*6
p159
V1440
p160
g39
tp161
a(V6*6
p162
V72
p163
g39
tp164
a(V6*6
p165
V12
p166
g39
tp167
a(V6*6
p168
V72
p169
g39
tp170
a(V6*6
p171
V24
p172
g39
tp173
a(V6*6
p174
V72
p175
g39
tp176
a(g174
V64
p177
g39
tp178
a(g174
V30
p179
g39
tp180
a(g174
V15
p181
g39
tp182
a(V6*6
p183
V72
p184
g39
tp185
asS"['R.1']"
p186
(lp187
(g8
V6*6*6
p188
(lp189
(S'R.1'
p190
F6.0
V6
p191
g191
tp192
atp193
a(V6*6
p194
V6! * 6! - 6
p195
(lp196
(S'R.1'
p197
F6.0
g191
g191
tp198
atp199
a(V6*6
p200
V2*6*6
p201
(lp202
(S'R.1'
p203
F6.0
g191
g191
tp204
atp205
asS'Nothing_clusters'
p206
g2
(g3
tp207
Rp208
S"['R.0.0']"
p209
(lp210
(V(6^2)*2
p211
Vkew017
p212
tp213
a(V6!*6!
p214
Vjag028
p215
tp216
a(V6!*6!
p217
Vkalang
p218
tp219
a(V6!*2
p220
Vkalang
p221
tp222
a(V6! * 6!
p223
Vstarinia
p224
tp225
a(V6! * 2
p226
Vstarinia
p227
tp228
a(V6!/(6-2)!
p229
Vstarinia
p230
tp231
a(V6!/(2!(6-2)!)
p232
Vstarinia
p233
tp234
a(V6!*2
p235
Vdkurli
p236
tp237
a(V6!*4
p238
Vdkurli
p239
tp240
a(V6!6!
p241
Vasp025
p242
tp243
a(V6!6!
p244
Vm4bui
p245
tp246
a(V6! * 6!
p247
Vb3hwang
p248
tp249
a(V6*6*2
p250
Vjtfrankl
p251
tp252
a(V6*6*2
p253
Vakhmelni
p254
tp255
asS"['R.1.0']"
p256
(lp257
(V(12!)/(2*(10!))
p258
Vt2li
p259
tp260
a(g232
g233
tp261
asS"['R.1']"
p262
(lp263
(V6!*6!
p264
Vl8ngo
p265
tp266
a(V2(6!)(6!)
p267
Vaportuga
p268
tp269
a(V2(6!)
p270
Vm4bui
p271
tp272
a(V6!*6!
p273
Vdcastlem
p274
tp275
a(V6*6*2
p276
Vtpmach
p277
tp278
a(V720/2
p279
Vrlhagen
p280
tp281
a(g220
g221
tp282
a(V68*2
p283
Vmnrahman
p284
tp285
a(g226
g227
tp286
a(g235
g236
tp287
a(V12! * 2
p288
Vjjchung
p289
tp290
a(V6*5*4*3*2*2
p291
Vpnquach
p292
tp293
a(V12^2
p294
Vdmn009
p295
tp296
a(V6*6*2
p297
Vthwan
p298
tp299
a(V6*6*2
p300
Vedcole
p301
tp302
a(V6*6*2
p303
Vjblynch
p304
tp305
a(V36*2
p306
Vs2chaudh
p307
tp308
a(V36*2
p309
Vkbielawi
p310
tp311
a(V6*6*2
p312
Vs6deng
p313
tp314
a(V6*6*2
p315
Vmroknich
p316
tp317
a(g250
g251
tp318
a(g253
g254
tp319
a(g214
g215
tp320
a(V3!*4!
p321
Vajabasa
p322
tp323
a(g229
g230
tp324
a(V3*4
p325
Vajabasa
p326
tp327
a(V6^4
p328
Vmroknich
p329
tp330
a(g238
g239
tp331
a(g217
g218
tp332
a(g223
g224
tp333
a(g241
g242
tp334
a(g244
g245
tp335
asS"['R.0', 'R.1']"
p336
(lp337
(g279
g280
tp338
a(g220
g221
tp339
a(g226
g227
tp340
a(g235
g236
tp341
a(g291
g292
tp342
asS"['R.0']"
p343
(lp344
(V12!
p345
Vajvanega
p346
tp347
a(V12*12
p348
Vlalacson
p349
tp350
a(g294
g295
tp351
a(g276
g277
tp352
a(V36*36
p353
Vhaw081
p354
tp355
a(V36*36
p356
Vjag028
p357
tp358
a(V36*35
p359
Vjag028
p360
tp361
a(V36!
p362
Vkalang
p363
tp364
a(g297
g298
tp365
a(g211
g212
tp366
a(g300
g301
tp367
a(V2*36
p368
Vhaw081
p369
tp370
a(g270
g271
tp371
a(g279
g280
tp372
a(g214
g215
tp373
a(g217
g218
tp374
a(g223
g224
tp375
a(g229
g230
tp376
a(g232
g233
tp377
a(g238
g239
tp378
a(g241
g242
tp379
a(g244
g245
tp380
a(g247
g248
tp381
a(g303
g304
tp382
a(g306
g307
tp383
a(g309
g310
tp384
a(g312
g313
tp385
a(g315
g316
tp386
a(g250
g251
tp387
a(g253
g254
tp388
a(g321
g322
tp389
a(V6!
p390
Vkalang
p391
tp392
a(g328
g329
tp393
a(V6!
p394
Vasp025
p395
tp396
a(V12!
p397
Vabjara
p398
tp399
a(g220
g221
tp400
a(V12!
p401
Vkalang
p402
tp403
a(g258
g259
tp404
a(g288
g289
tp405
a(g226
g227
tp406
a(g235
g236
tp407
a(g291
g292
tp408
a(V12!
p409
Vdkurli
p410
tp411
a(V12!
p412
Vjjchung
p413
tp414
a(V12!
p415
Vasp025
p416
tp417
asS"['R.0.0', 'R.1']"
p418
(lp419
(g220
g221
tp420
a(g312
g313
tp421
a(g315
g316
tp422
a(g250
g251
tp423
a(g253
g254
tp424
a(g226
g227
tp425
a(g235
g236
tp426
asS"['R']"
p427
(lp428
(V6*5*4*3*2*6*5*4*3*2
p429
Vvsamant
p430
tp431
a(g264
g265
tp432
a(g273
g274
tp433
a(g214
g215
tp434
a(g217
g218
tp435
a(g223
g224
tp436
a(g241
g242
tp437
a(g244
g245
tp438
a(g247
g248
tp439
a(g345
g346
tp440
a(g397
g398
tp441
a(g401
g402
tp442
a(g409
g410
tp443
a(g412
g413
tp444
a(g415
g416
tp445
a(g348
g349
tp446
a(g321
g322
tp447
a(g294
g295
tp448
a(g276
g277
tp449
a(g297
g298
tp450
a(g211
g212
tp451
a(g300
g301
tp452
a(g368
g369
tp453
a(g303
g304
tp454
a(g306
g307
tp455
a(g309
g310
tp456
a(g312
g313
tp457
a(g315
g316
tp458
a(g250
g251
tp459
a(g253
g254
tp460
a(g353
g354
tp461
a(g356
g357
tp462
a(g328
g329
tp463
a(g279
g280
tp464
a(V6*5*4*3
p465
Vsthapa
p466
tp467
a(g390
g391
tp468
a(g394
g395
tp469
a(g220
g221
tp470
a(g226
g227
tp471
a(g235
g236
tp472
a(g270
g271
tp473
a(g291
g292
tp474
asssV3
p475
g2
(g3
tp476
Rp477
g35
(lp478
(V6*6-5*5
p479
V30
p480
g39
tp481
a(g479
V12
p482
g39
tp483
a(g479
V10
p484
g39
tp485
a(V6*6-5*5
p486
V12
p487
g39
tp488
a(g486
V2
p489
g39
tp490
a(g486
V6
p491
g39
tp492
a(g486
V7
p493
g39
tp494
a(g486
V13
p495
g39
tp496
a(V6*6-5*5
p497
V12
p498
g39
tp499
a(V6*6-5*5
p500
V30
p501
g39
tp502
a(g500
V36
p503
g39
tp504
a(g500
V60
p505
g39
tp506
a(g500
V36
p507
g39
tp508
a(g500
V23
p509
g39
tp510
a(g500
V22
p511
g39
tp512
a(g500
V21
p513
g39
tp514
a(g500
V20
p515
g39
tp516
a(g500
V25
p517
g39
tp518
a(g500
V15
p519
g39
tp520
a(g500
V30
p521
g39
tp522
a(g500
V31
p523
g39
tp524
a(g500
V32
p525
g39
tp526
a(g500
V72
p527
g39
tp528
a(g500
V36
p529
g39
tp530
a(g500
V0
p531
g39
tp532
a(g500
V6
p533
g39
tp534
a(g500
V5
p535
g39
tp536
a(g500
V1
p537
g39
tp538
a(g500
V5
p539
g39
tp540
a(g500
V6
p541
g39
tp542
a(g500
V12
p543
g39
tp544
a(g500
V10
p545
g39
tp546
a(V6*6-5*5
p547
V12
p548
g39
tp549
a(V6*6-5*5
p550
V12
p551
g39
tp552
a(V6*6-5*5
p553
V12
p554
g39
tp555
a(g553
V6
p556
g39
tp557
a(V6*6-5*5
p558
V30
p559
g39
tp560
a(g558
V6
p561
g39
tp562
a(g558
V12
p563
g39
tp564
a(V6*6-5*5
p565
V12
p566
g39
tp567
a(V6*6-5*5
p568
V60
p569
g39
tp570
a(g568
V30
p571
g39
tp572
a(g568
V66
p573
g39
tp574
a(g568
V25
p575
g39
tp576
a(g568
V50
p577
g39
tp578
a(g568
V30
p579
g39
tp580
a(g568
V60
p581
g39
tp582
a(V6*6-5*5
p583
V6
p584
g39
tp585
a(g583
V10
p586
g39
tp587
a(V6*6-5*5
p588
V12
p589
g39
tp590
a(V6*6-5*5
p591
V12
p592
g39
tp593
a(V6*6-5*5
p594
V12
p595
g39
tp596
a(V6*6-5*5
p597
V6
p598
g39
tp599
a(g597
V5
p600
g39
tp601
a(V6*6-5*5
p602
V6
p603
g39
tp604
a(g602
V12
p605
g39
tp606
a(V6*6-5*5
p607
V30
p608
g39
tp609
a(g607
V12
p610
g39
tp611
a(g607
V10
p612
g39
tp613
a(V6*6-5*5
p614
V7
p615
g39
tp616
a(V6*6-5*5
p617
V3
p618
g39
tp619
a(V6*6-5*5
p620
V30
p621
g39
tp622
a(g620
V12
p623
g39
tp624
a(V6*6-5*5
p625
V6
p626
g39
tp627
a(g625
V3
p628
g39
tp629
a(g625
V6
p630
g39
tp631
a(g625
V30
p632
g39
tp633
a(g625
V12
p634
g39
tp635
a(V6*6-5*5
p636
V12
p637
g39
tp638
a(V6*6-5*5
p639
V12
p640
g39
tp641
a(g639
V6
p642
g39
tp643
a(V6*6-5*5
p644
V6
p645
g39
tp646
a(V6*6-5*5
p647
V12
p648
g39
tp649
a(V6*6-5*5
p650
V13
p651
g39
tp652
a(g650
V9
p653
g39
tp654
a(V6*6-5*5
p655
V12
p656
g39
tp657
a(g655
V13
p658
g39
tp659
a(V6*6-5*5
p660
V6
p661
g39
tp662
a(V6*6-5*5
p663
V30
p664
g39
tp665
a(g663
V6
p666
g39
tp667
a(V6*6-5*5
p668
V12
p669
g39
tp670
a(V6*6-5*5
p671
V10
p672
g39
tp673
a(g671
V12
p674
g39
tp675
a(V6*6-5*5
p676
V12
p677
g39
tp678
a(V6*6-5*5
p679
V12
p680
g39
tp681
a(V6*6-5*5
p682
V13
p683
g39
tp684
a(V6*6-5*5
p685
V10
p686
g39
tp687
a(V6*6-5*5
p688
V12
p689
g39
tp690
a(g688
V10
p691
g39
tp692
a(V6*6-5*5
p693
V12
p694
g39
tp695
a(V6*6-5*5
p696
V12
p697
g39
tp698
a(V6*6-5*5
p699
V30
p700
g39
tp701
a(g699
V1
p702
g39
tp703
a(V6*6-5*5
p704
V5
p705
g39
tp706
a(g704
V6
p707
g39
tp708
a(V6*6-5*5
p709
V3
p710
g39
tp711
a(g709
V30
p712
g39
tp713
a(g709
V6
p714
g39
tp715
a(V6*6-5*5
p716
V12
p717
g39
tp718
a(V6*6-5*5
p719
V12
p720
g39
tp721
a(V6*6-5*5
p722
V13
p723
g39
tp724
a(g699
V6
p725
g39
tp726
a(g699
V12
p727
g39
tp728
a(g699
V10
p729
g39
tp730
a(g699
V5
p731
g39
tp732
a(g699
V35
p733
g39
tp734
a(V6*6-5*5
p735
V35
p736
g39
tp737
a(g735
V9
p738
g39
tp739
a(V6*6-5*5
p740
V3
p741
g39
tp742
a(g740
V12
p743
g39
tp744
a(V6*6-5*5
p745
V12
p746
g39
tp747
a(V6*6-5*5
p748
V12
p749
g39
tp750
a(g748
V13
p751
g39
tp752
a(V6*6-5*5
p753
V6
p754
g39
tp755
a(g753
V12
p756
g39
tp757
a(g753
V10
p758
g39
tp759
a(g753
V6
p760
g39
tp761
a(V6*6-5*5
p762
V12
p763
g39
tp764
a(V6*6-5*5
p765
V96
p766
g39
tp767
a(V6*6-5*5
p768
V6
p769
g39
tp770
a(g768
V12
p771
g39
tp772
a(V6*6-5*5
p773
V12
p774
g39
tp775
a(g773
V10
p776
g39
tp777
a(V6*6-5*5
p778
V12
p779
g39
tp780
a(V6*6-5*5
p781
V6
p782
g39
tp783
a(V6*6-5*5
p784
V12
p785
g39
tp786
a(g784
V14
p787
g39
tp788
a(V6*6-5*5
p789
V6
p790
g39
tp791
a(g789
V12
p792
g39
tp793
a(g789
V10
p794
g39
tp795
a(V6*6-5*5
p796
V22
p797
g39
tp798
a(g796
V25
p799
g39
tp800
a(g796
V24
p801
g39
tp802
a(V6*6-5*5
p803
V3
p804
g39
tp805
a(V6*6-5*5
p806
V12
p807
g39
tp808
a(V6*6-5*5
p809
V10
p810
g39
tp811
a(g809
V13
p812
g39
tp813
a(V6*6-5*5
p814
V6
p815
g39
tp816
a(V6*6-5*5
p817
V12
p818
g39
tp819
a(g817
V10
p820
g39
tp821
a(g817
V12
p822
g39
tp823
a(g817
V6
p824
g39
tp825
a(V6*6-5*5
p826
V26
p827
g39
tp828
a(g826
V36
p829
g39
tp830
a(g826
V10
p831
g39
tp832
a(V6*6-5*5
p833
V12
p834
g39
tp835
a(g833
V6
p836
g39
tp837
a(g833
V12
p838
g39
tp839
a(g833
V13
p840
g39
tp841
a(V6*6-5*5
p842
V12
p843
g39
tp844
a(g842
V13
p845
g39
tp846
a(g842
V14
p847
g39
tp848
a(V6*6-5*5
p849
V3
p850
g39
tp851
a(g849
V13
p852
g39
tp853
a(V6*6-5*5
p854
V30
p855
g39
tp856
a(V6*6-5*5
p857
V30
p858
g39
tp859
a(g857
V6
p860
g39
tp861
a(V6*6-5*5
p862
V6
p863
g39
tp864
a(g862
V12
p865
g39
tp866
a(g862
V10
p867
g39
tp868
a(g862
V5
p869
g39
tp870
a(V6*6-5*5
p871
V6
p872
g39
tp873
a(g871
V5
p874
g39
tp875
a(V6*6-5*5
p876
V12
p877
g39
tp878
a(g876
V6
p879
g39
tp880
a(g876
V12
p881
g39
tp882
a(g876
V36
p883
g39
tp884
a(g876
V6
p885
g39
tp886
a(V6*6-5*5
p887
V6
p888
g39
tp889
a(V6*6-5*5
p890
V6
p891
g39
tp892
a(g890
V12
p893
g39
tp894
a(V6*6-5*5
p895
V30
p896
g39
tp897
a(g895
V12
p898
g39
tp899
a(g895
V6
p900
g39
tp901
a(g895
V13
p902
g39
tp903
a(V6*6-5*5
p904
V25
p905
g39
tp906
a(g904
V9
p907
g39
tp908
a(V6*6-5*5
p909
V10
p910
g39
tp911
a(g909
V30
p912
g39
tp913
a(g909
V60
p914
g39
tp915
a(g909
V35
p916
g39
tp917
a(g909
V10
p918
g39
tp919
a(g909
V260
p920
g39
tp921
a(V6*6-5*5
p922
V12
p923
g39
tp924
a(V6*6-5*5
p925
V86400
p926
g39
tp927
a(V6*6-5*5
p928
V30
p929
g39
tp930
a(g928
V31
p931
g39
tp932
a(g928
V36
p933
g39
tp934
a(g928
V12
p935
g39
tp936
a(V6*6-5*5
p937
V12
p938
g39
tp939
a(g937
V6
p940
g39
tp941
a(V6*6-5*5
p942
V12
p943
g39
tp944
a(V6*6-5*5
p945
V30
p946
g39
tp947
a(g945
V5
p948
g39
tp949
a(g945
V10
p950
g39
tp951
a(g945
V12
p952
g39
tp953
a(V6*6-5*5
p954
V6
p955
g39
tp956
a(g954
V12
p957
g39
tp958
a(V6*6-5*5
p959
V12
p960
g39
tp961
a(V6*6-5*5
p962
V12
p963
g39
tp964
a(V6*6-5*5
p965
V12
p966
g39
tp967
a(V6*6-5*5
p968
V30
p969
g39
tp970
a(g968
V5
p971
g39
tp972
a(g968
V36
p973
g39
tp974
a(g968
V12
p975
g39
tp976
a(V6*6-5*5
p977
V4
p978
g39
tp979
a(g977
V3
p980
g39
tp981
a(g977
V2
p982
g39
tp983
a(V6*6-5*5
p984
V3
p985
g39
tp986
a(g984
V2
p987
g39
tp988
a(g984
V4
p989
g39
tp990
a(g984
V1
p991
g39
tp992
a(g984
V5
p993
g39
tp994
a(g984
V6
p995
g39
tp996
a(g984
V7
p997
g39
tp998
a(g984
V8
p999
g39
tp1000
a(g984
V9
p1001
g39
tp1002
a(V6*6-5*5
p1003
V7
p1004
g39
tp1005
a(g1003
V12
p1006
g39
tp1007
a(V6*6-5*5
p1008
V13
p1009
g39
tp1010
a(V6*6-5*5
p1011
V12
p1012
g39
tp1013
a(g1011
V6
p1014
g39
tp1015
a(g1008
V3
p1016
g39
tp1017
a(g1008
V13
p1018
g39
tp1019
a(V6*6-5*5
p1020
V12
p1021
g39
tp1022
a(g1020
V13
p1023
g39
tp1024
a(g1020
V14
p1025
g39
tp1026
a(V6*6-5*5
p1027
V6
p1028
g39
tp1029
a(g1027
V12
p1030
g39
tp1031
a(g1027
V10
p1032
g39
tp1033
a(V6*6-5*5
p1034
V12
p1035
g39
tp1036
a(V6*6-5*5
p1037
V6
p1038
g39
tp1039
a(g1037
V10
p1040
g39
tp1041
a(g1037
V5
p1042
g39
tp1043
a(V6*6-5*5
p1044
V12
p1045
g39
tp1046
a(g1037
V12
p1047
g39
tp1048
a(g1044
V10
p1049
g39
tp1050
a(g1037
V13
p1051
g39
tp1052
a(g1044
V25
p1053
g39
tp1054
a(g1044
V13
p1055
g39
tp1056
a(V6*6-5*5
p1057
V6
p1058
g39
tp1059
a(g1057
V12
p1060
g39
tp1061
a(V6*6-5*5
p1062
V12
p1063
g39
tp1064
a(V6*6-5*5
p1065
V6
p1066
g39
tp1067
a(g1065
V7
p1068
g39
tp1069
a(g1065
V12
p1070
g39
tp1071
a(g1065
V24
p1072
g39
tp1073
a(g1065
V36
p1074
g39
tp1075
a(g1065
V6
p1076
g39
tp1077
a(g1065
V5
p1078
g39
tp1079
a(g1065
V1
p1080
g39
tp1081
a(g1065
V2
p1082
g39
tp1083
a(g1065
V3
p1084
g39
tp1085
a(g1065
V4
p1086
g39
tp1087
a(g1065
V5
p1088
g39
tp1089
a(g1065
V6
p1090
g39
tp1091
a(g1065
V7
p1092
g39
tp1093
a(g1065
V8
p1094
g39
tp1095
a(g1065
V720
p1096
g39
tp1097
a(g1065
V9
p1098
g39
tp1099
a(g1065
V10
p1100
g39
tp1101
a(V6*6-5*5
p1102
V26
p1103
g39
tp1104
a(g1102
V12
p1105
g39
tp1106
a(V6*6-5*5
p1107
V6
p1108
g39
tp1109
a(V6*6-5*5
p1110
V12
p1111
g39
tp1112
a(V6*6-5*5
p1113
V2
p1114
g39
tp1115
a(g1113
V1
p1116
g39
tp1117
a(g1113
V6
p1118
g39
tp1119
a(g1113
V12
p1120
g39
tp1121
a(V6*6-5*5
p1122
V3
p1123
g39
tp1124
a(V6*6-5*5
p1125
V30
p1126
g39
tp1127
a(g1125
V6
p1128
g39
tp1129
a(g1125
V12
p1130
g39
tp1131
a(g1125
V13
p1132
g39
tp1133
a(g1125
V14
p1134
g39
tp1135
a(V6*6-5*5
p1136
V10
p1137
g39
tp1138
a(V6*6-5*5
p1139
V12
p1140
g39
tp1141
a(g1139
V36
p1142
g39
tp1143
a(g1139
V6
p1144
g39
tp1145
a(g1139
V10
p1146
g39
tp1147
a(g1139
V25
p1148
g39
tp1149
a(g1139
V36
p1150
g39
tp1151
a(g1139
V5
p1152
g39
tp1153
a(g1139
V6
p1154
g39
tp1155
a(g1139
V12
p1156
g39
tp1157
a(g1139
V12
p1158
g39
tp1159
a(g1139
V10
p1160
g39
tp1161
a(V6*6-5*5
p1162
V12
p1163
g39
tp1164
a(g1162
V13
p1165
g39
tp1166
a(V6*6-5*5
p1167
V12
p1168
g39
tp1169
a(V6*6-5*5
p1170
V30
p1171
g39
tp1172
a(g1170
V36
p1173
g39
tp1174
a(V6*6-5*5
p1175
V12
p1176
g39
tp1177
a(V6*6-5*5
p1178
V12
p1179
g39
tp1180
a(V6*6-5*5
p1181
V3
p1182
g39
tp1183
a(g1181
V13
p1184
g39
tp1185
a(g1181
V12
p1186
g39
tp1187
a(g1181
V10
p1188
g39
tp1189
a(V6*6-5*5
p1190
V12
p1191
g39
tp1192
a(V6*6-5*5
p1193
V12
p1194
g39
tp1195
a(V6*6-5*5
p1196
V12
p1197
g39
tp1198
a(g1196
V36
p1199
g39
tp1200
a(g1196
V10
p1201
g39
tp1202
a(g1178
V20
p1203
g39
tp1204
a(V6*6-5*5
p1205
V12
p1206
g39
tp1207
a(V6*6-5*5
p1208
V12
p1209
g39
tp1210
a(V6*6-5*5
p1211
V12
p1212
g39
tp1213
a(g1211
V6
p1214
g39
tp1215
a(g1211
V12
p1216
g39
tp1217
a(g1211
V10
p1218
g39
tp1219
a(g1211
V12
p1220
g39
tp1221
a(V6*6-5*5
p1222
V30
p1223
g39
tp1224
a(g1222
V36
p1225
g39
tp1226
a(g1222
V6
p1227
g39
tp1228
a(g1222
V12
p1229
g39
tp1230
a(V6*6-5*5
p1231
V24
p1232
g39
tp1233
a(V6*6-5*5
p1234
V12
p1235
g39
tp1236
a(g1234
V10
p1237
g39
tp1238
a(g1234
V6
p1239
g39
tp1240
a(g1234
V10
p1241
g39
tp1242
a(V6*6-5*5
p1243
V12
p1244
g39
tp1245
a(V6*6-5*5
p1246
V12
p1247
g39
tp1248
a(g1246
V6
p1249
g39
tp1250
a(g1246
V7
p1251
g39
tp1252
a(g1246
V5
p1253
g39
tp1254
a(g1246
V1
p1255
g39
tp1256
a(g1246
V2
p1257
g39
tp1258
a(g1246
V24
p1259
g39
tp1260
a(V6*6-5*5
p1261
V30
p1262
g39
tp1263
a(g1261
V26
p1264
g39
tp1265
a(g1261
V31
p1266
g39
tp1267
a(V6*6-5*5
p1268
V10
p1269
g39
tp1270
a(g1268
V12
p1271
g39
tp1272
a(g1268
V25
p1273
g39
tp1274
a(g833
V6
p1275
g39
tp1276
a(g1268
V12
p1277
g39
tp1278
a(V6*6-5*5
p1279
V12
p1280
g39
tp1281
a(g699
V5
p1282
g39
tp1283
a(g699
V10
p1284
g39
tp1285
a(g699
V20
p1286
g39
tp1287
a(g699
V24
p1288
g39
tp1289
a(g699
V12
p1290
g39
tp1291
a(g699
V35
p1292
g39
tp1293
a(g699
V12
p1294
g39
tp1295
a(V6*6-5*5
p1296
V6
p1297
g39
tp1298
a(g1296
V12
p1299
g39
tp1300
a(V6*6-5*5
p1301
V6
p1302
g39
tp1303
a(g1301
V5
p1304
g39
tp1305
a(g1301
V10
p1306
g39
tp1307
a(V6*6-5*5
p1308
V12
p1309
g39
tp1310
a(V6*6-5*5
p1311
V12
p1312
g39
tp1313
a(g1311
V6
p1314
g39
tp1315
a(V6*6-5*5
p1316
V12
p1317
g39
tp1318
a(V6*6-5*5
p1319
V12
p1320
g39
tp1321
a(V6*6-5*5
p1322
V2
p1323
g39
tp1324
a(g1322
V4
p1325
g39
tp1326
a(g1319
V13
p1327
g39
tp1328
a(V6*6-5*5
p1329
V6
p1330
g39
tp1331
a(V6*6-5*5
p1332
V12
p1333
g39
tp1334
a(g1332
V10
p1335
g39
tp1336
a(V6*6-5*5
p1337
V12
p1338
g39
tp1339
a(V6*6-5*5
p1340
V6
p1341
g39
tp1342
a(g1340
V30
p1343
g39
tp1344
a(V6*6-5*5
p1345
V12
p1346
g39
tp1347
a(g1340
V5
p1348
g39
tp1349
a(g1340
V6
p1350
g39
tp1351
a(g1037
V5
p1352
g39
tp1353
a(g1037
V14
p1354
g39
tp1355
a(g1340
V10
p1356
g39
tp1357
a(g1340
V12
p1358
g39
tp1359
a(g1340
V30
p1360
g39
tp1361
a(g1340
V12
p1362
g39
tp1363
a(g1037
V36
p1364
g39
tp1365
a(g1340
V15
p1366
g39
tp1367
a(V6*6-5*5
p1368
V3
p1369
g39
tp1370
a(g1368
V2
p1371
g39
tp1372
a(g1368
V1
p1373
g39
tp1374
a(g1368
V3
p1375
g39
tp1376
a(g1368
V36
p1377
g39
tp1378
a(g1368
V4
p1379
g39
tp1380
a(V6*6-5*5
p1381
V12
p1382
g39
tp1383
a(g1381
V13
p1384
g39
tp1385
a(V6*6-5*5
p1386
V12
p1387
g39
tp1388
a(V6*6-5*5
p1389
V36
p1390
g39
tp1391
a(g1389
V12
p1392
g39
tp1393
a(V6*6-5*5
p1394
V30
p1395
g39
tp1396
a(g1394
V12
p1397
g39
tp1398
a(V6*6-5*5
p1399
V12
p1400
g39
tp1401
a(V6*6-5*5
p1402
V6
p1403
g39
tp1404
a(V6*6-5*5
p1405
V12
p1406
g39
tp1407
a(V6*6-5*5
p1408
V12
p1409
g39
tp1410
a(g895
V48
p1411
g39
tp1412
a(g895
V42
p1413
g39
tp1414
a(V6*6-5*5
p1415
V12
p1416
g39
tp1417
a(V6*6-5*5
p1418
V12
p1419
g39
tp1420
a(V6*6-5*5
p1421
V12
p1422
g39
tp1423
a(V6*6-5*5
p1424
V2
p1425
g39
tp1426
a(g1424
V3
p1427
g39
tp1428
a(g1424
V1
p1429
g39
tp1430
a(g1424
V13
p1431
g39
tp1432
a(g1424
V14
p1433
g39
tp1434
a(g1424
V12
p1435
g39
tp1436
a(V6*6-5*5
p1437
V12
p1438
g39
tp1439
a(V6*6-5*5
p1440
V30
p1441
g39
tp1442
a(V6*6-5*5
p1443
V3
p1444
g39
tp1445
a(V6*6-5*5
p1446
V12
p1447
g39
tp1448
a(g1446
V9
p1449
g39
tp1450
a(g1446
V13
p1451
g39
tp1452
a(V6*6-5*5
p1453
V12
p1454
g39
tp1455
a(V6*6-5*5
p1456
V13
p1457
g39
tp1458
a(V6*6-5*5
p1459
V10
p1460
g39
tp1461
a(g1459
V12
p1462
g39
tp1463
a(g1459
V6
p1464
g39
tp1465
a(V6*6-5*5
p1466
V30
p1467
g39
tp1468
a(g1466
V6
p1469
g39
tp1470
a(g1466
V12
p1471
g39
tp1472
a(V6*6-5*5
p1473
V12
p1474
g39
tp1475
a(g1473
V6
p1476
g39
tp1477
a(g1473
V10
p1478
g39
tp1479
a(V6*6-5*5
p1480
V34
p1481
g39
tp1482
a(V6*6-5*5
p1483
V6
p1484
g39
tp1485
a(V6*6-5*5
p1486
V96
p1487
g39
tp1488
a(g1483
V30
p1489
g39
tp1490
a(g1483
V26
p1491
g39
tp1492
a(g1483
V12
p1493
g39
tp1494
a(V6*6-5*5
p1495
V12
p1496
g39
tp1497
a(V6*6-5*5
p1498
V12
p1499
g39
tp1500
a(V6*6-5*5
p1501
V6
p1502
g39
tp1503
a(V6*6-5*5
p1504
V12
p1505
g39
tp1506
a(g1504
V6
p1507
g39
tp1508
a(V6*6-5*5
p1509
V12
p1510
g39
tp1511
a(g1509
V6
p1512
g39
tp1513
a(g1509
V12
p1514
g39
tp1515
a(V6*6-5*5
p1516
V12
p1517
g39
tp1518
a(g1516
V10
p1519
g39
tp1520
a(V6*6-5*5
p1521
V12
p1522
g39
tp1523
asg206
g2
(g3
tp1524
Rp1525
S"['R.1.1.0']"
p1526
(lp1527
(V11!/(6! * 5!)
p1528
Vachava
p1529
tp1530
a(V6!/(1!(6-1)!)
p1531
Vstarinia
p1532
tp1533
a(V11!/((6!) * (5!))
p1534
Vachava
p1535
tp1536
asS"['R.1.0']"
p1537
(lp1538
(V1*6 + 1*6
p1539
Vphodgson
p1540
tp1541
a(g1531
g1532
tp1542
asS"['R.0.0']"
p1543
(lp1544
(VC(2,1)*C(6,1)
p1545
Vbmilton
p1546
tp1547
a(V2*2*6
p1548
Va8ho
p1549
tp1550
a(V2*6*6
p1551
Va8ho
p1552
tp1553
asS"['R.1']"
p1554
(lp1555
(V6*5
p1556
Veyhu
p1557
tp1558
a(V2*5
p1559
Vttimmons
p1560
tp1561
a(V1/5
p1562
Vaurodrig
p1563
tp1564
a(V2*6
p1565
Veyhu
p1566
tp1567
a(V5*6
p1568
Vtpmach
p1569
tp1570
a(g1548
g1549
tp1571
a(g1551
g1552
tp1572
a(V5*6
p1573
Vdis003
p1574
tp1575
a(V1*6*2
p1576
Vbtn023
p1577
tp1578
a(V5^2
p1579
Vttimmons
p1580
tp1581
a(V6^2
p1582
Vttimmons
p1583
tp1584
a(V5*2
p1585
Vtpmach
p1586
tp1587
a(V30*2
p1588
Vs2chaudh
p1589
tp1590
a(V6*5*4*3*2
p1591
Vpnquach
p1592
tp1593
a(V6^2
p1594
Vjhc010
p1595
tp1596
a(V6*5
p1597
Vskarimik
p1598
tp1599
a(V2*6
p1600
Vskarimik
p1601
tp1602
a(V6*5
p1603
Vyypan
p1604
tp1605
a(V6*6
p1606
Vyypan
p1607
tp1608
a(V2*6
p1609
Vttimmons
p1610
tp1611
a(V2*6
p1612
Vbmilton
p1613
tp1614
a(g1545
g1546
tp1615
a(V2*1*6
p1616
Vbmilton
p1617
tp1618
a(V1*2*6
p1619
Vedcole
p1620
tp1621
a(V2*6
p1622
Va8ho
p1623
tp1624
a(V2/6
p1625
Vm4bui
p1626
tp1627
a(V6*5
p1628
Vl8ngo
p1629
tp1630
a(V6*2
p1631
Vl8ngo
p1632
tp1633
a(V3/36
p1634
Vjeqin
p1635
tp1636
a(V4/36
p1637
Vjeqin
p1638
tp1639
a(V13/36
p1640
Vjeqin
p1641
tp1642
a(V12/36
p1643
Vjeqin
p1644
tp1645
a(V11/36
p1646
Vjeqin
p1647
tp1648
a(V11/36
p1649
Vkvass
p1650
tp1651
a(V11/36
p1652
Vs2chaudh
p1653
tp1654
a(V1/36
p1655
Vaurodrig
p1656
tp1657
a(V2/36
p1658
Vjmiclat
p1659
tp1660
a(V4/36
p1661
Vjmiclat
p1662
tp1663
a(V12/36
p1664
Vjmiclat
p1665
tp1666
a(V2/36
p1667
Vm4bui
p1668
tp1669
a(V1/36
p1670
Vm4bui
p1671
tp1672
a(V11/36
p1673
Vm4bui
p1674
tp1675
a(V2/36
p1676
Vbpandayk
p1677
tp1678
a(V1/36
p1679
Vasp025
p1680
tp1681
a(V2/36
p1682
Vdcrume
p1683
tp1684
a(V3/36
p1685
Vm4bui
p1686
tp1687
a(V3/36
p1688
Vbpandayk
p1689
tp1690
a(V6*5
p1691
Vttimmons
p1692
tp1693
a(V6*5
p1694
Vganajera
p1695
tp1696
a(V6*5
p1697
Vdcastlem
p1698
tp1699
a(V6*5
p1700
Vcstringh
p1701
tp1702
a(V6*5
p1703
Vlpettit
p1704
tp1705
a(V6*5
p1706
Vmuy002
p1707
tp1708
a(V6*5
p1709
Vjnatale
p1710
tp1711
a(V6*5
p1712
Vb1green
p1713
tp1714
a(V1*6
p1715
Vttimmons
p1716
tp1717
a(V6*2
p1718
Vttimmons
p1719
tp1720
a(V6*2
p1721
Vkrkelkar
p1722
tp1723
a(V6*2
p1724
Vtpmach
p1725
tp1726
a(V(6*2)
p1727
Vjblynch
p1728
tp1729
a(V6*2
p1730
Vdwzhang
p1731
tp1732
a(V6*1*2
p1733
Vksmurlo
p1734
tp1735
a(V6*2
p1736
Vb1green
p1737
tp1738
a(V6*2
p1739
Vdcgriffi
p1740
tp1741
a(V6*2
p1742
Vdtea
p1743
tp1744
a(VP(6,1)
p1745
Vttimmons
p1746
tp1747
a(V6+6+1
p1748
Vtjke
p1749
tp1750
a(VC(2,1)
p1751
Vbmilton
p1752
tp1753
a(V(1*6)+(6*1)+1
p1754
Vqtluong
p1755
tp1756
a(VC(6,1)
p1757
Vstarinia
p1758
tp1759
a(V6*1
p1760
Vksmurlo
p1761
tp1762
a(V6*1
p1763
Vdruble
p1764
tp1765
a(V6+6
p1766
Vlalacson
p1767
tp1768
a(V6+6
p1769
Vdaw023
p1770
tp1771
a(V1*6
p1772
Vtpmach
p1773
tp1774
a(V6*6
p1775
Vtpmach
p1776
tp1777
a(V(2+2)
p1778
Vqtluong
p1779
tp1780
a(V6*6
p1781
Vlpettit
p1782
tp1783
a(V6+6
p1784
Vwhcombs
p1785
tp1786
a(V6*6
p1787
Vwhcombs
p1788
tp1789
a(V5*5
p1790
Vjnatale
p1791
tp1792
a(V6*6
p1793
Vjnatale
p1794
tp1795
asS"['R.1.0.1']"
p1796
(lp1797
(V12!/((12-2)!)
p1798
Vwhcombs
p1799
tp1800
a(V7!/((7-2)!)
p1801
Vwhcombs
p1802
tp1803
asS"['R.0', 'R.1']"
p1804
(lp1805
(g1565
g1566
tp1806
a(g1625
g1626
tp1807
a(g1600
g1601
tp1808
a(g1631
g1632
tp1809
a(g1582
g1583
tp1810
a(g1594
g1595
tp1811
a(g1609
g1610
tp1812
a(g1579
g1580
tp1813
a(g1585
g1586
tp1814
a(g1718
g1719
tp1815
a(g1721
g1722
tp1816
a(g1724
g1725
tp1817
a(g1727
g1728
tp1818
a(g1730
g1731
tp1819
a(g1733
g1734
tp1820
a(g1736
g1737
tp1821
a(g1739
g1740
tp1822
a(g1742
g1743
tp1823
a(g1612
g1613
tp1824
a(g1622
g1623
tp1825
asS"['R.0']"
p1826
(lp1827
(g1556
g1557
tp1828
a(g1576
g1577
tp1829
a(V6!
p1830
Vachava
p1831
tp1832
a(g1606
g1607
tp1833
a(g1631
g1632
tp1834
a(V6!
p1835
Vttimmons
p1836
tp1837
a(g1582
g1583
tp1838
a(g1718
g1719
tp1839
a(g1766
g1767
tp1840
a(g1721
g1722
tp1841
a(g1769
g1770
tp1842
a(V6!
p1843
Vdcastlem
p1844
tp1845
a(g1724
g1725
tp1846
a(g1775
g1776
tp1847
a(g1781
g1782
tp1848
a(g1727
g1728
tp1849
a(g1730
g1731
tp1850
a(g1539
g1540
tp1851
a(g1733
g1734
tp1852
a(g1784
g1785
tp1853
a(g1787
g1788
tp1854
a(V6*1+6*1
p1855
Vjtfrankl
p1856
tp1857
a(g1793
g1794
tp1858
a(g1736
g1737
tp1859
a(g1739
g1740
tp1860
a(g1594
g1595
tp1861
a(g1742
g1743
tp1862
a(g1565
g1566
tp1863
a(g1559
g1560
tp1864
a(g1778
g1779
tp1865
a(V2*30
p1866
Va8ho
p1867
tp1868
a(g1658
g1659
tp1869
a(g1667
g1668
tp1870
a(g1676
g1677
tp1871
a(g1682
g1683
tp1872
a(V1*6*2+1
p1873
Vbtn023
p1874
tp1875
a(g1643
g1644
tp1876
a(g1551
g1552
tp1877
a(g1664
g1665
tp1878
a(g1597
g1598
tp1879
a(g1600
g1601
tp1880
a(g1603
g1604
tp1881
a(g1628
g1629
tp1882
a(g1691
g1692
tp1883
a(g1694
g1695
tp1884
a(g1697
g1698
tp1885
a(g1700
g1701
tp1886
a(g1703
g1704
tp1887
a(g1706
g1707
tp1888
a(g1709
g1710
tp1889
a(g1712
g1713
tp1890
a(V5!
p1891
Vachava
p1892
tp1893
a(g1579
g1580
tp1894
a(g1568
g1569
tp1895
a(g1585
g1586
tp1896
a(g1790
g1791
tp1897
a(g1573
g1574
tp1898
a(g1637
g1638
tp1899
a(g1548
g1549
tp1900
a(g1748
g1749
tp1901
a(g1754
g1755
tp1902
a(g1609
g1610
tp1903
a(g1612
g1613
tp1904
a(g1545
g1546
tp1905
a(g1616
g1617
tp1906
a(g1619
g1620
tp1907
a(g1622
g1623
tp1908
a(g1625
g1626
tp1909
a(g1715
g1716
tp1910
a(g1772
g1773
tp1911
a(V1- (5/6)**2
p1912
Vkvass
p1913
tp1914
a(V1- (5**2/6**2)
p1915
Vkvass
p1916
tp1917
a(V1 - (25/36)
p1918
Vkvass
p1919
tp1920
a(V1/18
p1921
Vjag028
p1922
tp1923
a(V1/3
p1924
Vmrchin
p1925
tp1926
a(V1/3
p1927
Vkalang
p1928
tp1929
a(g1562
g1563
tp1930
a(g1655
g1656
tp1931
a(V1-(25/36)
p1932
Vhsc052
p1933
tp1934
a(g1670
g1671
tp1935
a(g1679
g1680
tp1936
a(g1745
g1746
tp1937
a(g1751
g1752
tp1938
a(g1757
g1758
tp1939
a(g1760
g1761
tp1940
a(g1661
g1662
tp1941
a(g1798
g1799
tp1942
a(V12!/(2!(12-2)!)
p1943
Vwhcombs
p1944
tp1945
asS"['R.1.0.0']"
p1946
(lp1947
(g1912
g1913
tp1948
a(V6!*2-5!*2
p1949
Vdkurli
p1950
tp1951
a(g1915
g1916
tp1952
asS"['R.0.1']"
p1953
(lp1954
(g1873
g1874
tp1955
a(V(5/6)*(1/6) *2 + (1/6)^2
p1956
Vrraiyyan
p1957
tp1958
a(g1949
g1950
tp1959
a(g1619
g1620
tp1960
a(g1548
g1549
tp1961
asS"['R.0.0', 'R.1']"
p1962
(lp1963
(g1616
g1617
tp1964
a(g1548
g1549
tp1965
a(g1551
g1552
tp1966
asS"['R']"
p1967
(lp1968
(g1556
g1557
tp1969
a(g1597
g1598
tp1970
a(g1603
g1604
tp1971
a(g1628
g1629
tp1972
a(g1691
g1692
tp1973
a(g1694
g1695
tp1974
a(g1697
g1698
tp1975
a(g1568
g1569
tp1976
a(g1700
g1701
tp1977
a(g1703
g1704
tp1978
a(g1706
g1707
tp1979
a(g1709
g1710
tp1980
a(g1712
g1713
tp1981
a(g1573
g1574
tp1982
a(g1565
g1566
tp1983
a(g1576
g1577
tp1984
a(g1600
g1601
tp1985
a(g1631
g1632
tp1986
a(g1609
g1610
tp1987
a(g1718
g1719
tp1988
a(g1766
g1767
tp1989
a(g1721
g1722
tp1990
a(g1769
g1770
tp1991
a(g1724
g1725
tp1992
a(g1612
g1613
tp1993
a(g1545
g1546
tp1994
a(g1616
g1617
tp1995
a(g1619
g1620
tp1996
a(g1727
g1728
tp1997
a(g1730
g1731
tp1998
a(g1539
g1540
tp1999
a(g1733
g1734
tp2000
a(g1622
g1623
tp2001
a(g1784
g1785
tp2002
a(g1855
g1856
tp2003
a(g1736
g1737
tp2004
a(g1739
g1740
tp2005
a(g1742
g1743
tp2006
a(g1873
g1874
tp2007
a(V 13
p2008
Vacs008
p2009
tp2010
a(g1748
g1749
tp2011
a(g1754
g1755
tp2012
a(g1830
g1831
tp2013
a(g1835
g1836
tp2014
a(g1843
g1844
tp2015
a(g1591
g1592
tp2016
a(g1528
g1529
tp2017
a(g1534
g1535
tp2018
a(g1606
g1607
tp2019
a(g1582
g1583
tp2020
a(g1775
g1776
tp2021
a(g1781
g1782
tp2022
a(g1787
g1788
tp2023
a(g1793
g1794
tp2024
a(g1594
g1595
tp2025
a(g1634
g1635
tp2026
a(g1685
g1686
tp2027
a(g1688
g1689
tp2028
a(g1637
g1638
tp2029
a(g1661
g1662
tp2030
a(g1643
g1644
tp2031
a(g1924
g1925
tp2032
a(g1927
g1928
tp2033
a(g1664
g1665
tp2034
a(g1625
g1626
tp2035
a(g1646
g1647
tp2036
a(g1912
g1913
tp2037
a(g1915
g1916
tp2038
a(g1649
g1650
tp2039
a(g1918
g1919
tp2040
a(g1652
g1653
tp2041
a(g1956
g1957
tp2042
a(g1932
g1933
tp2043
a(g1673
g1674
tp2044
a(g1559
g1560
tp2045
a(g1585
g1586
tp2046
a(g1579
g1580
tp2047
a(g1790
g1791
tp2048
a(g1921
g1922
tp2049
a(g1658
g1659
tp2050
a(g1667
g1668
tp2051
a(g1676
g1677
tp2052
a(g1682
g1683
tp2053
a(g1588
g1589
tp2054
a(g1866
g1867
tp2055
a(g1655
g1656
tp2056
a(g1670
g1671
tp2057
a(g1679
g1680
tp2058
assS"['R.0']"
p2059
(lp2060
(g500
V36/6
p2061
(lp2062
(S'R.0'
p2063
F36.0
V6*6
p2064
V36
p2065
tp2066
atp2067
a(g704
V6*6*2
p2068
(lp2069
(S'R.0'
p2070
F36.0
V6*6
p2071
V6*6
p2072
tp2073
atp2074
a(g1222
V36/30
p2075
(lp2076
(S'R.0'
p2077
F36.0
V6*6
p2078
V36
p2079
tp2080
atp2081
asS"['R.1']"
p2082
(lp2083
(g597
V1-5^2
p2084
(lp2085
(S'R.1'
p2086
F25.0
V5*5
p2087
V5^2
p2088
tp2089
atp2090
asS"['R.0.1']"
p2091
(lp2092
(g550
V5*6*2
p2093
(lp2094
(S'R.0.1'
p2095
F6.0
g191
g191
tp2096
atp2097
a(V6*6-5*5
p2098
V1/6 + 1/6
p2099
(lp2100
(S'R.0.1'
p2101
F6.0
g191
g191
tp2102
atp2103
a(g704
V5*6*2
p2104
(lp2105
(S'R.0.1'
p2106
F6.0
g191
g191
tp2107
atp2108
a(V6*6-5*5
p2109
V5*6+6*5
p2110
(lp2111
(S'R.0.1'
p2112
F6.0
g191
g191
tp2113
atp2114
a(V6*6-5*5
p2115
V2*6*1
p2116
(lp2117
(S'R.0.1'
p2118
F6.0
g191
g191
tp2119
atp2120
a(g2115
V2*6*1
p2121
(lp2122
(S'R.0.1'
p2123
F6.0
g191
g191
tp2124
atp2125
asg6
(lp2126
(g583
V5!*6!
p2127
(lp2128
(lp2129
S'*'
p2130
aF86400.0
a(lp2131
I0
aI4
aag14
aa(lp2132
(lp2133
g12
aI120
a(lp2134
I0
aI1
aaS'R.0'
p2135
aa(lp2136
g16
aF5.0
a(lp2137
I0
aI0
aaS'R.0.0'
p2138
aaa(lp2139
(lp2140
g12
aI720
a(lp2141
I3
aI4
aaS'R.1'
p2142
aa(lp2143
g16
aF6.0
a(lp2144
I3
aI3
aaS'R.1.0'
p2145
aaaVl8ngo
p2146
tp2147
assV2
p2148
g2
(g3
tp2149
Rp2150
g6
(lp2151
(V5*5
p2152
V6!
p2153
(lp2154
(lp2155
g12
aI720
a(lp2156
I0
aI1
aag14
aa(lp2157
g16
aF6.0
a(lp2158
I0
aI0
aaS'R.0'
p2159
aaVvsosnovs
p2160
tp2161
asg35
(lp2162
(V5*5
p2163
V68
p2164
g39
tp2165
a(g2163
V34
p2166
g39
tp2167
a(g2163
V30
p2168
g39
tp2169
a(V5*5
p2170
V34
p2171
g39
tp2172
a(g2170
V30
p2173
g39
tp2174
a(g2170
V24
p2175
g39
tp2176
a(g2170
V20
p2177
g39
tp2178
a(g2170
V14
p2179
g39
tp2180
a(V5*5
p2181
V60
p2182
g39
tp2183
a(V5*5
p2184
V50
p2185
g39
tp2186
a(V5*5
p2187
V12
p2188
g39
tp2189
a(g2187
V11
p2190
g39
tp2191
a(V5*5
p2192
V72
p2193
g39
tp2194
a(V5*5
p2195
V30
p2196
g39
tp2197
a(g2195
V24
p2198
g39
tp2199
a(V5*5
p2200
V33
p2201
g39
tp2202
a(V5*5
p2203
V33
p2204
g39
tp2205
a(g2203
V30
p2206
g39
tp2207
a(g2203
V6
p2208
g39
tp2209
a(V5*5
p2210
V50
p2211
g39
tp2212
a(g2192
V30
p2213
g39
tp2214
a(V5*5
p2215
V69
p2216
g39
tp2217
a(g2215
V63
p2218
g39
tp2219
a(g2215
V33
p2220
g39
tp2221
a(g2215
V30
p2222
g39
tp2223
a(g2152
V34
p2224
g39
tp2225
a(g2152
V35
p2226
g39
tp2227
a(g2152
V30
p2228
g39
tp2229
a(V5*5
p2230
V1
p2231
g39
tp2232
a(V5*5
p2233
V33
p2234
g39
tp2235
a(V5*5
p2236
V24
p2237
g39
tp2238
a(V5*5
p2239
V30
p2240
g39
tp2241
a(g2239
V24
p2242
g39
tp2243
a(V5*5
p2244
V19
p2245
g39
tp2246
a(V5*5
p2247
V50
p2248
g39
tp2249
a(V5*5
p2250
V24
p2251
g39
tp2252
a(V5*5
p2253
V30
p2254
g39
tp2255
a(V5*5
p2256
V50
p2257
g39
tp2258
a(g2256
V11
p2259
g39
tp2260
a(g2256
V12
p2261
g39
tp2262
a(V5*5
p2263
V29
p2264
g39
tp2265
a(g2263
V28
p2266
g39
tp2267
a(g2263
V30
p2268
g39
tp2269
a(g2263
V24
p2270
g39
tp2271
a(g2263
V23
p2272
g39
tp2273
a(V5*5
p2274
V50
p2275
g39
tp2276
a(V5*5
p2277
V34
p2278
g39
tp2279
a(g2277
V24
p2280
g39
tp2281
a(V5*5
p2282
V33
p2283
g39
tp2284
a(V5*5
p2285
V30
p2286
g39
tp2287
a(V5*5
p2288
V50
p2289
g39
tp2290
a(V5*5
p2291
V34
p2292
g39
tp2293
a(g2291
V33
p2294
g39
tp2295
a(g2291
V30
p2296
g39
tp2297
a(g2291
V31
p2298
g39
tp2299
a(g2291
V32
p2300
g39
tp2301
a(g2291
V33
p2302
g39
tp2303
a(g2291
V34
p2304
g39
tp2305
a(g2291
V35
p2306
g39
tp2307
a(g2291
V24
p2308
g39
tp2309
a(g2291
V20
p2310
g39
tp2311
a(g2291
V21
p2312
g39
tp2313
a(g2291
V22
p2314
g39
tp2315
a(g2291
V23
p2316
g39
tp2317
a(g2291
V26
p2318
g39
tp2319
a(g2291
V27
p2320
g39
tp2321
a(g2291
V28
p2322
g39
tp2323
a(g2291
V29
p2324
g39
tp2325
a(g2291
V23
p2326
g39
tp2327
a(V5*5
p2328
V14400
p2329
g39
tp2330
a(V5*5
p2331
V30
p2332
g39
tp2333
a(g2331
V24
p2334
g39
tp2335
a(V5*5
p2336
V34
p2337
g39
tp2338
a(g2336
V24
p2339
g39
tp2340
a(g2336
V26
p2341
g39
tp2342
a(V5*5
p2343
V50
p2344
g39
tp2345
a(V5*5
p2346
V26
p2347
g39
tp2348
a(g2346
V33
p2349
g39
tp2350
a(g2346
V34
p2351
g39
tp2352
a(V5*5
p2353
V24
p2354
g39
tp2355
a(V5*5
p2356
V69
p2357
g39
tp2358
a(V5*5
p2359
V60
p2360
g39
tp2361
a(g2359
V24
p2362
g39
tp2363
a(V5*5
p2364
V24
p2365
g39
tp2366
a(V5*5
p2367
V34
p2368
g39
tp2369
a(V5*5
p2370
V24
p2371
g39
tp2372
a(V5*5
p2373
V24
p2374
g39
tp2375
a(V5*5
p2376
V33
p2377
g39
tp2378
a(V5*5
p2379
V33
p2380
g39
tp2381
a(V5*5
p2382
V34
p2383
g39
tp2384
a(V5*5
p2385
V33
p2386
g39
tp2387
a(V5*5
p2388
V34
p2389
g39
tp2390
a(V5*5
p2391
V24
p2392
g39
tp2393
a(V5*5
p2394
V24
p2395
g39
tp2396
a(V5*5
p2397
V70
p2398
g39
tp2399
a(g2397
V64
p2400
g39
tp2401
a(V5*5
p2402
V55
p2403
g39
tp2404
a(V5*5
p2405
V24
p2406
g39
tp2407
a(V5*5
p2408
V120
p2409
g39
tp2410
a(g2408
V100
p2411
g39
tp2412
a(g2402
V24
p2413
g39
tp2414
a(V5*5
p2415
V33
p2416
g39
tp2417
a(V5*5
p2418
V24
p2419
g39
tp2420
a(V5*5
p2421
V6
p2422
g39
tp2423
a(g2421
V12
p2424
g39
tp2425
a(g2421
V11
p2426
g39
tp2427
a(g2421
V30
p2428
g39
tp2429
a(g2421
V18
p2430
g39
tp2431
a(g2421
V24
p2432
g39
tp2433
a(V5*5
p2434
V50
p2435
g39
tp2436
a(g2434
V45
p2437
g39
tp2438
a(V5*5
p2439
V24
p2440
g39
tp2441
a(V5*5
p2442
V24
p2443
g39
tp2444
a(V5*5
p2445
V34
p2446
g39
tp2447
a(V5*5
p2448
V240
p2449
g39
tp2450
a(V5*5
p2451
V24
p2452
g39
tp2453
a(V5*5
p2454
V50
p2455
g39
tp2456
a(V5*5
p2457
V24
p2458
g39
tp2459
a(V5*5
p2460
V24
p2461
g39
tp2462
a(V5*5
p2463
V34
p2464
g39
tp2465
a(g2463
V32
p2466
g39
tp2467
a(V5*5
p2468
V24
p2469
g39
tp2470
a(V5*5
p2471
V33
p2472
g39
tp2473
a(g2471
V34
p2474
g39
tp2475
a(V5*5
p2476
V60
p2477
g39
tp2478
a(g2476
V30
p2479
g39
tp2480
a(V5*5
p2481
V24
p2482
g39
tp2483
a(V5*5
p2484
V24
p2485
g39
tp2486
a(V5*5
p2487
V50
p2488
g39
tp2489
a(V5*5
p2490
V30
p2491
g39
tp2492
a(g2490
V24
p2493
g39
tp2494
a(V5*5
p2495
V50
p2496
g39
tp2497
asS"['R.1']"
p2498
(lp2499
(V5*5
p2500
V2*5*5
p2501
(lp2502
(S'R.1'
p2503
F5.0
V5
p2504
g2504
tp2505
atp2506
asg206
g2
(g3
tp2507
Rp2508
S"['R.0.0']"
p2509
(lp2510
(V6*6-6-6
p2511
Vlalacson
p2512
tp2513
a(V36!/2
p2514
Vvsosnovs
p2515
tp2516
a(V36!/((34!)(2))
p2517
Vvsosnovs
p2518
tp2519
a(V(5^2)*2
p2520
Vkew017
p2521
tp2522
a(V5!*5!
p2523
Vkalang
p2524
tp2525
a(V5!*2
p2526
Vdkurli
p2527
tp2528
a(V5!5!
p2529
Vm4bui
p2530
tp2531
asS"['R.1.0']"
p2532
(lp2533
(V5!*5!
p2534
Vl8ngo
p2535
tp2536
a(V36(5/6)
p2537
Vsayao
p2538
tp2539
a(V2(5!)
p2540
Vm4bui
p2541
tp2542
a(V(6*6) - (6*2)
p2543
Vjblynch
p2544
tp2545
a(V25/(6*6)
p2546
Vhsc052
p2547
tp2548
asS"['R.1']"
p2549
(lp2550
(V25/36
p2551
Vvsamant
p2552
tp2553
a(V33/36
p2554
Vjeqin
p2555
tp2556
a(V32/36
p2557
Vjeqin
p2558
tp2559
a(V23/36
p2560
Vjeqin
p2561
tp2562
a(V24/36
p2563
Vjeqin
p2564
tp2565
a(V34/36
p2566
Vbpandayk
p2567
tp2568
a(V34/36
p2569
Vdcrume
p2570
tp2571
a(g2534
g2535
tp2572
a(V6!/(1!(6-1)!)
p2573
Vstarinia
p2574
tp2575
a(g2540
g2541
tp2576
a(V25/36
p2577
Vjeqin
p2578
tp2579
a(V(5*5)/(6*6)
p2580
Vjeqin
p2581
tp2582
a(V25/36
p2583
Vrraiyyan
p2584
tp2585
a(V25/36
p2586
Vjmiclat
p2587
tp2588
a(g2546
g2547
tp2589
a(V6*6-2
p2590
Vlalacson
p2591
tp2592
a(g2514
g2515
tp2593
a(g2520
g2521
tp2594
a(V5*5*2
p2595
Vedcole
p2596
tp2597
a(V(5*5*2)
p2598
Vjblynch
p2599
tp2600
a(V25*2
p2601
Vs2chaudh
p2602
tp2603
a(g2526
g2527
tp2604
a(V5*4*3*2*2
p2605
Vpnquach
p2606
tp2607
a(V1/6
p2608
Vjhw015
p2609
tp2610
a(V(6*6)-6
p2611
Vs6deng
p2612
tp2613
a(V36-12
p2614
Vglcohen
p2615
tp2616
a(V6! * 2 - 12
p2617
Vstarinia
p2618
tp2619
a(g2543
g2544
tp2620
a(V36-6-6-1
p2621
Vjyc018
p2622
tp2623
a(VC(6,1)
p2624
Vstarinia
p2625
tp2626
a(g2523
g2524
tp2627
a(V(6*6)-12
p2628
Vs6deng
p2629
tp2630
a(V36-12
p2631
Vm4salaza
p2632
tp2633
a(V(6*6)-12
p2634
Vdlgoldbe
p2635
tp2636
a(g2529
g2530
tp2637
asS"['R.1.1']"
p2638
(lp2639
(g2580
g2581
tp2640
a(g2537
g2538
tp2641
a(g2517
g2518
tp2642
a(g2543
g2544
tp2643
asS"['R.0']"
p2644
(lp2645
(g2551
g2552
tp2646
a(g2520
g2521
tp2647
a(g2595
g2596
tp2648
a(g2598
g2599
tp2649
a(g2601
g2602
tp2650
a(g2563
g2564
tp2651
a(g2621
g2622
tp2652
a(g2577
g2578
tp2653
a(g2580
g2581
tp2654
a(g2537
g2538
tp2655
a(g2590
g2591
tp2656
a(g2614
g2615
tp2657
a(V36-14
p2658
Vglcohen
p2659
tp2660
a(g2543
g2544
tp2661
a(g2628
g2629
tp2662
a(g2631
g2632
tp2663
a(V36/25
p2664
Vielouaae
p2665
tp2666
a(g2634
g2635
tp2667
a(V6*6-6
p2668
Vlalacson
p2669
tp2670
a(g2611
g2612
tp2671
a(g2514
g2515
tp2672
a(g2517
g2518
tp2673
a(g2583
g2584
tp2674
a(g2586
g2587
tp2675
a(g2546
g2547
tp2676
a(g2573
g2574
tp2677
a(V6!/(6-2)!
p2678
Vstarinia
p2679
tp2680
a(V6!/(2!(6-2)!)
p2681
Vstarinia
p2682
tp2683
a(g2526
g2527
tp2684
a(g2529
g2530
tp2685
asS"['R.0.1']"
p2686
(lp2687
(g2590
g2591
tp2688
a(g2621
g2622
tp2689
a(g2668
g2669
tp2690
a(g2520
g2521
tp2691
a(g2617
g2618
tp2692
asS"['R']"
p2693
(lp2694
(g2551
g2552
tp2695
a(g2577
g2578
tp2696
a(g2580
g2581
tp2697
a(g2583
g2584
tp2698
a(g2586
g2587
tp2699
a(g2546
g2547
tp2700
a(g2534
g2535
tp2701
a(g2523
g2524
tp2702
a(g2529
g2530
tp2703
a(g2537
g2538
tp2704
a(g2668
g2669
tp2705
a(g2611
g2612
tp2706
a(g2678
g2679
tp2707
a(g2511
g2512
tp2708
a(g2614
g2615
tp2709
a(g2543
g2544
tp2710
a(g2628
g2629
tp2711
a(g2631
g2632
tp2712
a(g2634
g2635
tp2713
a(g2520
g2521
tp2714
a(g2595
g2596
tp2715
a(g2598
g2599
tp2716
a(g2601
g2602
tp2717
a(g2526
g2527
tp2718
a(g2540
g2541
tp2719
a(g2605
g2606
tp2720
a(g2566
g2567
tp2721
a(g2569
g2570
tp2722
asss.