(dp0
V1
p1
ccollections
defaultdict
p2
(c__builtin__
list
p3
tp4
Rp5
S"['R.0.0']"
p6
(lp7
V5! / 3!
p8
aV5! * 4!
p9
aV5!/3!
p10
aV(5!)/(3!)
p11
aV5!/(2!*(5-3)!)
p12
aV5!/3!
p13
aV5!/(5-2)!
p14
aV(5!)/(5!*3!)
p15
aV5!/6
p16
aV5!/(5-2)!
p17
aV5!/3!
p18
aV5!/3!
p19
aV(5!)/(3!)
p20
aV5!/(5-2)!
p21
aV5!/(3!)
p22
aV5!/3!
p23
aV5!/3!
p24
aV5!/[(5-2)!]
p25
aV5!(4!)
p26
aV5!/(5-2)!
p27
aV5!/(3!)
p28
aV5!*4!
p29
aV5!/(2!(5-3)!)
p30
aV5!/(2!(5-2!))
p31
aV5!/3!
p32
aV5!/(5-2)!
p33
aV(5!)/(5-2)!
p34
aV5!/3!
p35
aV5!/(2!(5!-2!))
p36
aV5!/(2!(5-3)!)
p37
aV5!5!
p38
aV5!/3!
p39
asS"['R.1']"
p40
(lp41
VP(5,2)
p42
aVP(4,2)
p43
aV5^2
p44
aVP(5,2)
p45
aV25/2!
p46
aV11/2
p47
aV5+4+3+2
p48
aV5^2
p49
aV5^2
p50
aVC(6,2)
p51
aVC(10,2)
p52
aVC(9,2)
p53
aV5 + 4 + 3 + 2
p54
asS"['R.0', 'R.1']"
p55
(lp56
V5*4*2
p57
aV5*4*2
p58
aV(5!)/(3!)(2!)
p59
aV5*4*2
p60
aV5*4*2
p61
aV5*4*2
p62
aV5*4*2
p63
aV5*4*2
p64
asS"['R.0']"
p65
(lp66
V5*4*3
p67
aV20/3
p68
aV5*4*3
p69
aV5*4-5
p70
aV5*4 - 5
p71
asS'Nothing'
p72
(lp73
V25
p74
aV20
p75
aV12
p76
aV51*50*49*48*47*46
p77
aV50*49*48*47*46*45
p78
aV5*4
p79
aV20
p80
aV25
p81
aV20
p82
aV19
p83
aV20
p84
aV5!
p85
aV9
p86
aV5 * 4
p87
aV20
p88
aV25
p89
aV16
p90
aV20
p91
aV25
p92
aV40
p93
aV21
p94
aV20
p95
aV30
p96
aV20
p97
aV25
p98
aV20
p99
aV5!
p100
aV20
p101
aV20
p102
aV5*4
p103
aV25
p104
aV5*4
p105
aVC(5,1)
p106
aV5*4
p107
aV2880
p108
aV20
p109
aV360
p110
aV25
p111
aV50
p112
aV15890700
p113
aV20
p114
aV5*4
p115
aV5*4
p116
aV5*5
p117
aV5!/2!*3!
p118
aV5*4
p119
aV5*4
p120
aV15
p121
aV11
p122
aV40
p123
aV20
p124
aV5*4
p125
aV5 * 4
p126
aV5!
p127
aV4!
p128
aV20
p129
aV19
p130
aV40
p131
aV20
p132
aV5 * 4 
p133
aV4*3
p134
aV5 * 4!
p135
aV20
p136
aV25
p137
aV20
p138
aV5*4
p139
aV5 * 5
p140
aV54*53*52*51*50*49
p141
aV20
p142
aV5!
p143
aV25
p144
aV20
p145
aV16
p146
aV21
p147
aV40
p148
aV20
p149
aV5!
p150
aV40
p151
aV400
p152
aV5*4
p153
aV5*5
p154
aV5*5
p155
aV20
p156
aV20
p157
aV80
p158
aV5*4
p159
aV5*5
p160
aV5!
p161
aV30
p162
aV25
p163
aV20
p164
aV20
p165
aV20
p166
aV5*4
p167
aV5*5
p168
aV15
p169
aV5*5
p170
aV20
p171
aV25`
p172
aV25
p173
aV20
p174
aV25
p175
aV20
p176
aV40
p177
aV25
p178
aV40
p179
aV5 * 4
p180
aV5*5
p181
aV25
p182
aV20
p183
aV15
p184
aV20
p185
aV5 * 4
p186
aV20
p187
aV25
p188
aV20
p189
aV5*4
p190
aV25
p191
aV2C5
p192
aV5C2
p193
aV20
p194
aV20
p195
aV40
p196
aV5*4
p197
aV25
p198
aV20
p199
aV25
p200
aV20
p201
aV40
p202
aV25
p203
aV5*4
p204
aV15
p205
aV5!
p206
aV(25)!
p207
aV25
p208
aV20
p209
aV25
p210
aV20
p211
aV25
p212
aV20
p213
aV21
p214
aV19
p215
aV25827165
p216
aV24
p217
aV120
p218
aV240
p219
aV(52!)/(46!)
p220
aV(52!)/((46!)(6!))
p221
aV20
p222
aV5*4
p223
aV5*5
p224
aV20
p225
aV20
p226
aV30
p227
aV20
p228
aV40
p229
aV20
p230
aVC(5,1)
p231
aV5*4
p232
aV5C2
p233
aV20
p234
aV5*4
p235
aV25
p236
aV20
p237
aV50
p238
aV5025
p239
aV25
p240
aV20
p241
aV20
p242
aV25
p243
aV1
p244
aV2
p245
aV3
p246
aV4
p247
aV5
p248
aV6
p249
aV7
p250
aV8
p251
aV9
p252
aV15
p253
aV20
p254
aV20
p255
aV25
p256
aV125
p257
aV5*4
p258
aV5!
p259
aV25
p260
aV25
p261
aV20
p262
aV25
p263
aV50
p264
aV20
p265
aV40
p266
aV20
p267
aV30
p268
aV20
p269
aV40
p270
aV19
p271
aV20
p272
aV20
p273
aV5
p274
aV25
p275
aV5!/4!
p276
aV50
p277
aV39
p278
aV5!
p279
aV20
p280
aV25
p281
aV5
p282
aV9
p283
aV5+4+3+2+1
p284
aV50!/(6!44!)
p285
aV20
p286
aV120
p287
aV25
p288
aV120
p289
aV5
p290
aV3125
p291
aV625
p292
aV25827165
p293
aV20
p294
aV5*4
p295
aV25
p296
aV25
p297
aV5C2
p298
aV5*4
p299
aV2 * 5 * 4
p300
aV40
p301
aV5*4
p302
aVC(5,4)
p303
aVP(5,4)
p304
aV25
p305
aV50
p306
aV40
p307
aV4*5
p308
aV15
p309
aV20
p310
aV18
p311
aV5*4
p312
aV20
p313
aV20
p314
aV15
p315
aV5!
p316
aV20
p317
aV25
p318
aV24
p319
aV23
p320
aV5*4
p321
aV4*3
p322
aV5*4
p323
aV10*9
p324
aV40
p325
aV25
p326
aV20
p327
aV120
p328
aV20
p329
aV5!/(2!(5-2!)
p330
aV25/12
p331
aV5*4
p332
aV25
p333
aV25
p334
aV25
p335
aV40
p336
aV39
p337
aV24
p338
aV25
p339
aV20
p340
aV25
p341
aV5*4
p342
aV40
p343
aV20
p344
aV25
p345
aV48*47*46*45*44*43
p346
aV5*4*2-5
p347
aV5 * 4
p348
aV2^5
p349
aV5*4
p350
aV52*51*50*49*48*47*46
p351
aV52*51*50*49*48*47
p352
aV20
p353
aV20
p354
aV20
p355
aV25
p356
aV20
p357
aV16
p358
aV12
p359
aV14
p360
aV20
p361
aV20
p362
aV25
p363
aV50+49+48+47+46+45
p364
aV60^6
p365
aV50*49*48*47*46*45
p366
aV25
p367
aV20
p368
aV22
p369
aV21
p370
aV20
p371
aV12
p372
aV16
p373
aV20
p374
aV5*4
p375
aV20
p376
aV5C2
p377
aV5*5
p378
aV5!/(5-1)!
p379
aV5*4
p380
aV20
p381
aV5*4
p382
aV5!
p383
aV(5!)/((2!(5-2)!)
p384
aV25
p385
aV5!
p386
aV5*4
p387
aV53*52*51*50*49*48
p388
aV20
p389
aV25
p390
aV25 - 5
p391
aV20
p392
aV20
p393
aV16
p394
aV4!
p395
aV25
p396
aV20
p397
aV16
p398
aV25
p399
aV25
p400
aV25
p401
aV20
p402
aV25
p403
aV20
p404
aV40
p405
aV40
p406
aV50
p407
aV60
p408
aV24
p409
aV40
p410
aV5*4
p411
aV20
p412
aV25
p413
aV5*5
p414
aV5*5-5
p415
aV5*5
p416
aV5*4
p417
aV20
p418
aV40
p419
aV53*52*51*50*49*48
p420
aV53^6
p421
aV22957480
p422
aV25
p423
aV20
p424
aV16
p425
aV25
p426
aV20
p427
aV45
p428
aV5C2
p429
aV25
p430
aV18009460
p431
aV20
p432
aV20
p433
aV120
p434
aV25
p435
aV20
p436
aV40
p437
aV3
p438
aV5!
p439
aV4!
p440
aV25
p441
aV20
p442
aV5!
p443
aV60
p444
aV20
p445
aV25
p446
aV20
p447
aV25
p448
aV20
p449
aV20
p450
aV25
p451
aV20
p452
aV25
p453
aV5*5
p454
aV5*4
p455
aV5*4
p456
aV5*5
p457
aV5*4
p458
aV5!
p459
aV5*4
p460
aV5*5
p461
aV5*3
p462
aV5*4
p463
aV5 choose 2
p464
aV20
p465
aV20
p466
aV5*4
p467
aV2*5*4
p468
aV20
p469
aV15
p470
aV5 * 5
p471
aV5 * 4
p472
aV(54 * 53 * 52 * 51 * 50 * 49) / 5!
p473
aV25
p474
aV20
p475
aV15
p476
aV20
p477
aV25
p478
aV15
p479
aV20
p480
aV40
p481
aV20
p482
aV25
p483
aV20
p484
aV20
p485
aV19
p486
aV18
p487
aV21
p488
aV5!
p489
aV5 + 4 + 3 + 2 +1
p490
asS"['R.0.0', 'R.1']"
p491
(lp492
V5^2/2
p493
aV5!/2!
p494
aV5*5*2
p495
aV(5)^2/(2!)
p496
aV(5!)/(2!)
p497
aV5*5/2!
p498
aV5!/2!
p499
aV5!/2!
p500
aV5!*2
p501
aV5*5/2
p502
aV5!/(5-3)!
p503
aV(5!)/(2!)
p504
aV5!/2!
p505
aV5*5/2
p506
aV5!/2!
p507
assV2
p508
g2
(g3
tp509
Rp510
S"['R.1']"
p511
(lp512
V53!/6!
p513
aV54!/(54-48)!
p514
aV50!/(6!)
p515
aV(49*49*49*49*49*49)/(6!)
p516
aV50!/(6!)
p517
aV54!/6!
p518
aV(51!)/(51-6!)(6!)
p519
aV(56*55*54*53*52*51)/6!
p520
aV52 * 51 * 50 * 49 * 48 * 47 * 46/(6*5*4*3*2*1)
p521
asS"['R.0.1', 'R.1']"
p522
(lp523
V(48*47*46*45*43)/6!
p524
asS"['R.0', 'R.1']"
p525
(lp526
V54!/48!*6!
p527
aV50!/44!(6!)
p528
aV(51!)/(51-6)!(6!)
p529
asS"['R.0']"
p530
(lp531
V(51*50*49*48*47*46)/2
p532
aV(51*50*49*48*47*46)/6
p533
aV(55*54*53*52*51*50)/(4!)
p534
aV(55*54*53*52*51*50)/2
p535
aV(55*54*53*52*51*50)/6
p536
aV(55*54*53*52*51*50)/(6^6)
p537
aV(55*54*53*52*51*50)/(6)
p538
aV55*54*53*52*51*50/(5)
p539
aV55*54*53*52*51*50/(36)
p540
aV55*54*53*52*51*50/(6)
p541
aV55*54*53*52*51*50/(6^5)
p542
aV55*54*53*52*51*50/(6^6)
p543
aV55*54*53*52*51*50/(2^6)
p544
aV51*50*49*48*47*46*45
p545
aV53*52*51*50*49*48*47
p546
aV54*53*52*51*50*49*48
p547
aV(54*53*52*51*50*49)/6
p548
aV48*47*46*45*44*43/5!
p549
aV(53*52*51*50*49*48) /6
p550
aV48*47*46*45*44*43*42
p551
aV48*47*46*45*44*43/6
p552
aV49*48*47*46*45*44/6
p553
aV(49*48*47*46*45*44)/(6)
p554
aV48*47*46*45*44*43*42
p555
aV(52!/(52-6)!)*6
p556
aV((52!)/(52-6)!)-52
p557
aV52*51*50*49*48*47/2
p558
aV52*51*50*49*48*47/6
p559
aV52*51*50*49*48*47/6
p560
aV(51 * 50 * 49 * 48 * 47 * 46)/6
p561
aV(51 * 50 * 49 * 48 * 47 * 46)/2
p562
aV48*47*46*45*44*43/6
p563
aV48*47*46*45*44*43/2
p564
aV48*47*46*45*44*43/48
p565
aV(50*49*48*47*46*45)/2
p566
aV(53*52*51*50*49*48)/6
p567
aV(51*50*49*48*47*46)/2
p568
aV(51*50*49*48*47*46) - (51 + 51*51 + 51*51*51 + 51*51*51*51 + 51*51*51*51*51)
p569
aV(51*50*49*48*47*46) - (51 + 51*50 + 51*50*49 + 51*50*49*48 + 51*50*49*48*47)
p570
aV(48*47*46*45*44*43)/6
p571
aV(48*47*46*45*44*43)/36
p572
aV(51*50*49*48*47*46)/2
p573
aV(51*50*49*48*47*46)/6
p574
aV52 * 51 * 50 * 49 * 48 * 47 * 46
p575
aV54*53*52*51*50*49*6
p576
aV54*53*52*51*50*49*48
p577
aV(50!/(44!))/2
p578
aV(50*49*48*47*46*45)/(5!)
p579
aV(50*49*48*47*46*45)/(4!)
p580
aV(50*49*48*47*46*45)/(2)
p581
aV50*49*48*47*46*45*44
p582
aV(50*49*48*47*46*45)/6
p583
aV50*49*48*47*46*45/2
p584
aV50*49*48*47*46*45/6
p585
asS"['R.0.0.0.0.1', 'R.0.0.0.1', 'R.0.0.1', 'R.0.1']"
p586
(lp587
V50*49*48*47*46*45
p588
aV53*52*51*50*49*48
p589
aV47*46*45*44*43*6
p590
aV49+48+47+46+45+44
p591
aV53 + 52 +51+50+49+48
p592
aV53*52*51*50*49*48
p593
aV53*52*51*50*49*4825827165
p594
aV50*49*48*47*46*45
p595
asg72
(lp596
V48*47*46*45*44*43
p597
aV55*54*53*52*51*50
p598
aV54*53*52*51*50*49
p599
aV55*54*53*52*51*50
p600
aV51 * 50 * 49 * 48 * 47 * 46
p601
aV50!/(44!)
p602
aV50!/(45!)
p603
aV50!/(45!*6!)
p604
aV(54*53*52*51*50*49)/(6)
p605
aV55*55*55*55*55*55/(6)
p606
aV55*54*53*52*51*50/(2^6
p607
aV53!/47!
p608
aV6*53
p609
aV12966811200
p610
aV53 choose 6
p611
aV6*48
p612
aV52!
p613
aV433160
p614
aV6497400
p615
aV14658134400
p616
aV55!
p617
aV51*50*49*48*47*46
p618
aV(50!/(6!*44!))
p619
aV54*53*52*51*50*49
p620
aV55!/49!
p621
aV55!/48!
p622
aV55*54*53*52*51*50
p623
aV55!/(6(49!))
p624
aV55*54*53*52*51*50
p625
aVP(55,6)
p626
aVP(54,2)
p627
aVC(55,1)
p628
aV55*54*53*52*51*50
p629
aV53*52*51*50*49*48
p630
aV48!/(42!)
p631
aV54*53
p632
aV54*53*52*51*50
p633
aV53!/(53-6)!
p634
aV51! / (51-6)!
p635
aV48*47*46*45*44*43
p636
aV49*48*47*46*45*44
p637
aV49!/(43!*6!)
p638
aV50 * 49 * 48 * 47 * 46 * 45
p639
aV 50063860
p640
aV60! / (6 ! * 54!)
p641
aV(50 6)
p642
aV205476480
p643
aV8835488640
p644
aV6!
p645
aV(54!)/((54-6)!)
p646
aV52!/(6!*46*)
p647
aV52!/((6!)*(46*))
p648
aV54*53*52*51*51*49
p649
aV54*53*52*51*50*49
p650
aV50*49*48*47*46
p651
aV54!/(54-6)!
p652
aV194580
p653
aV55!
p654
aVP(54,6)
p655
aV53*52*51*50*49*48
p656
aV8835488640
p657
aV52*51*50*49*48*47
p658
aV6!/(52!*(52-6)!)
p659
aV52!/(52!*(52-6)!)
p660
aV51*50*49*48*47*46
p661
aV10068347520
p662
aV432938943360
p663
aV601304088
p664
aV48*47*46*45*44*43
p665
aV(53!)/(53!*47!)
p666
aV49*48*47*46
p667
aV49!/43!
p668
aV49!/(43!*6)
p669
aV11441304000
p670
aV50*6
p671
aV49*48*47*46*45*44
p672
aV49!/(43!)
p673
aV53! /(53-6)!
p674
aV54*53*52*51*50*49
p675
aV53!/(53-6)!
p676
aV48*47*46*45
p677
aV47*46*45*44
p678
aV48!/(48-6)!
p679
aV52*51*50*49*48*47
p680
aV12966811200
p681
aV48*47*46*45*44*43
p682
aV55!/49!
p683
aV55!/6!49!
p684
aV54*53*52
p685
aV54!(54-6)!
p686
aV53!
p687
aV52!
p688
aV52!-46!
p689
aV1.85 * 10^10
p690
aV52*51*50*49*48*47
p691
aV52*51*50*49*48*47
p692
aV53*52*51*50*49*48
p693
aV86969025
p694
aV54*53*52*51*50*49
p695
aV52+51+50+49+48+47
p696
aV52*51*50*49*48*47
p697
aV52*51*50*49*48*47
p698
aV52!/(6!*56!)
p699
aV52!/((52-6)!-6!)
p700
aV54!53!52!51!50!49!
p701
aV1.8595558E10
p702
aV55!/5!/50!
p703
aV55!/(5!*50!)
p704
aV1.65294E+10
p705
aV16529385600
p706
aV54*53*52*51*50*49
p707
aV50*49*48*47*46*45
p708
aV50*49*48*47*46
p709
aV50*49*48*47*46*45
p710
aV(49*49*49*49*49*49)/(6)
p711
aV55*54*53*52*51*50
p712
aV54*53*52*51*50*49
p713
aV54!/((6!)(49!))
p714
aV52!/[(52-6)!]
p715
aV18\u2009009\u2009460
p716
aV(48!)/(6!*(42!)
p717
aV52*51*50*49*48*47
p718
aV52!/(52-6)!
p719
aV50!/(44!)
p720
aV49!/(43!)
p721
aV49!/(44!)
p722
aVP(50,44)
p723
aV52!/(52-6)!
p724
aV49!/43!
p725
aV54*53*52*51*50*49
p726
aV49*48*47*46*45*44
p727
aV54!/(54-6)!
p728
aV53*52*51*50*49*48
p729
aV53!*52!*51!*50!*49!*48!
p730
aV53!*6
p731
aV254251200
p732
aV53!/(6!(55-6)!)
p733
aV52*51*50*49*48*47
p734
aV52*48*44*40*36*32
p735
aV52*48*44*40*36*32/2
p736
aV52*51*50*49*48*47
p737
aV5!/3!
p738
aV5!/2!
p739
aV50!/(44!6!)
p740
aV11441304000
p741
aV291
p742
aV48!
p743
aV48*6
p744
aV48*47*46*45*44*43
p745
aV18595558800
p746
aV25,827,165
p747
aV52!/46!
p748
aV49*48*47*46*45*44
p749
aV12966811200
p750
aV990
p751
aV48^6
p752
aV51 * 50 * 49 * 48 * 47 * 46
p753
aV48*47/6
p754
aV(50*49)/2
p755
aV(50*49)/2
p756
aV50!/44!
p757
aV(51!)/(51-6)!
p758
aV52!/(52-6)!
p759
aV49*48*47*46*45*44
p760
aV48*47*46*45*44*43
p761
aV56*55*54*53*52*51
p762
aV50*49*48*47*46*45
p763
aV6*54*53*52*51*50*49
p764
aV6!*54*53*52*51*50*49
p765
aV50+49+48+47+46+45
p766
aV53^6
p767
aV50!-44!
p768
aV50!-45!
p769
aV1.65^10
p770
aV49!-43!
p771
aV44+43+42+41+40+39+38
p772
aV44+43+42+41+40+39
p773
aV53*52*51*50*49*48
p774
aV53*6
p775
aV54!/48!
p776
aV48!/[42!]
p777
aV6!
p778
aV49!/(49-6)!
p779
aV49*48*47*46*45*44
p780
aV49!/(6!(49-6!))
p781
aV1712304
p782
aV16529385600
p783
aV(54!)/(54-6)!
p784
aV54*53*52*51*50*49
p785
aV54+53+52+51+50+49
p786
aV(55!)/(49!)
p787
aV50*49*48*47*46
p788
aV50*49*48*47*46*45
p789
aV50!/44!
p790
aV54! - 48!
p791
aV(54!) - (48!)
p792
aV(54!) - (48!)
p793
aV(54!) - (48!)
p794
aV(54!) - (48!)
p795
aV54 +53 + 52 +51+50+49
p796
aV53 + 52 +51+50+49
p797
aV54*53*52*51*50*49
p798
aV4825827165
p799
aV51*50*49*48
p800
aV51*50*49*48*47*46
p801
aV(51*50*49*48*47*46)/2-1
p802
aV(51*50*49*48*47*46)/2+1
p803
aV52*51*50*49*48*47
p804
aV1.86E10
p805
aV1.859E10
p806
aV16529385600
p807
aV(48*47*46*45*44*43*42)/6
p808
aV(49!)/(49!-6!)
p809
aV(49!)/((49-6)!)
p810
aV54*53*52*51*50*49
p811
aVC(49,1)
p812
aV53 choose 6
p813
aV(53!)/(6!47!
p814
aV20872566000
p815
aV51!/((51-6)!)
p816
aV13475313600
p817
aV12966811200
p818
aV12,966,811,200
p819
aV12966811200
p820
aV2.3352527*10^17
p821
aV11441304000
p822
aV12966811200
p823
aV51*50*49*48*47*46
p824
aV12966811200
p825
aV77800867200
p826
aV15890700
p827
aV8835488640
p828
aV51^6
p829
aV52*51*50*49*48*47
p830
aV51*50*49*48*47*46
p831
aV51 choose 6
p832
aV6!*48
p833
aV54*53*52*51*50*49
p834
aV54*53*52*51*50*49
p835
aV55*54*53*52*51*50
p836
aV(55!)/[6! * 49!]
p837
aV15890700
p838
aV50!/(6!(50-6)!)
p839
aV54*53*52*51*50*49
p840
aV48 choose 6
p841
aV52*51*50*49*48*47
p842
aV51*50*49*48*47*46
p843
aV51 C 6
p844
aV6C50
p845
aV48*47*46*45*44*43
p846
aV50!/(44!)
p847
aV318
p848
aV22,957,480
p849
aV(50*49*48*47*46*45)
p850
aV50*49*48*47*46*45*44/2
p851
aV51 choose 6
p852
aV11192580000
p853
aV50*49*48*47*46*45
p854
aV254251200
p855
aV127125600
p856
aV5720652000
p857
aV10068347520
p858
aV1678057920
p859
aV55*54*53*52*51*50
p860
aV55*6
p861
aV20358520
p862
aV16529385600
p863
aV20150813696
p864
aV5402838000
p865
aV540283800
p866
aV104
p867
aV6*52
p868
aV20358520
p869
aV(49!)/((49-6)!)
p870
aV55*3*53*13*51
p871
ass.