(dp0
V1
p1
ccollections
defaultdict
p2
(c__builtin__
list
p3
tp4
Rp5
S"[('R', 36.0, u'6*6', u'6*6')]"
p6
(lp7
V6*6*6
p8
aV6*6*2
p9
aV6*6*2
p10
aV6*6*2
p11
aV6*6*2
p12
aV6*6*2
p13
aV6*6*2
p14
aV6*6*2
p15
aV6*6*2
p16
aV6*6*2
p17
asS"[('R.1', 6.0, u'6', u'6')]"
p18
(lp19
V6*5*4*3*2*6*5*4*3*2
p20
aV6!*6!
p21
aV6!*6!
p22
aV6**6
p23
aV6!*6!
p24
aV6!*6!
p25
aV6!
p26
aV6!*2
p27
aV2(6!)(6!)
p28
aV6*5*4*3
p29
aV6^4
p30
aV6! * 6!
p31
aV6! * 2
p32
aV6!/(6-2)!
p33
aV6!/(2!(6-2)!)
p34
aV6! * 6! - 6
p35
aV6!*2
p36
aV6!*4
p37
aV6!6!
p38
aV6!
p39
aV6!6!
p40
aV2(6!)
p41
aV6*5*4*3*2*2
p42
aV2*6*6
p43
aV6! * 6!
p44
asS"[('R.1', 6.0, u'6', u'3!')]"
p45
(lp46
V3!*4!
p47
asS'Nothing'
p48
(lp49
V6*^
p50
aV72
p51
aV72
p52
aV72
p53
aV12
p54
aV24
p55
aV24!
p56
aV12!
p57
aV72
p58
aV72
p59
aV144
p60
aV12*12
p61
aV72
p62
aV66
p63
aV35
p64
aV72
p65
aV72
p66
aV720/2
p67
aV72
p68
aV60
p69
aV72
p70
aV12
p71
aV3*4
p72
aV518400
p73
aV1440
p74
aV12!
p75
aV30
p76
aV15
p77
aV12!
p78
aV72
p79
aV12C2
p80
aV(12!)/(2*(10!))
p81
aV30
p82
aV72
p83
aV72
p84
aV12
p85
aV68
p86
aV68*2
p87
aV12
p88
aV72
p89
aV18
p90
aV24
p91
aV72
p92
aV66
p93
aV72
p94
aV64
p95
aV58
p96
aV52
p97
aV60
p98
aV12!
p99
aV72
p100
aV12
p101
aV720
p102
aV144
p103
aV12
p104
aV24
p105
aV2C12
p106
aV12! * 2
p107
aV12!
p108
aV!12
p109
aV72
p110
aV66
p111
aV1440
p112
aV12!
p113
aV72
p114
aV12^2
p115
aV12
p116
aV72
p117
aV24
p118
aV72
p119
aV64
p120
aV30
p121
aV15
p122
aV72
p123
asS"[('R', 36.0, u'6*6', u'6^2')]"
p124
(lp125
V(6^2)*2
p126
asS"[('R', 36.0, u'6*6', u'36')]"
p127
(lp128
V2*36
p129
aV36*36
p130
aV36*36
p131
aV36*35
p132
aV36*36
p133
aV36*2
p134
aV36*2
p135
aV36!
p136
assV3
p137
g2
(g3
tp138
Rp139
S"[('R.0.1', 6.0, u'6', u'6')]"
p140
(lp141
V2*6
p142
aV6
p143
aV2*6
p144
aV6!
p145
aV6
p146
aV6
p147
aV6
p148
aV6
p149
aV6
p150
aV6*2
p151
aV6
p152
aV2*6
p153
aV6!
p154
aV6*2
p155
aV6
p156
aV6
p157
aV6
p158
aV6
p159
aV6
p160
aV6+6
p161
aV1/6 + 1/6
p162
aV6*2
p163
aV6
p164
aV6+6
p165
aV6
p166
aV6!
p167
aV6
p168
aV6*2
p169
aV6
p170
aV6
p171
aV6+6+1
p172
aV6
p173
aV2*6
p174
aV2*1*6
p175
aV6
p176
aV6
p177
aV1*2*6
p178
aV1*2*6
p179
aV6
p180
aV6
p181
aV(6*2)
p182
aV(6*2)
p183
aV6
p184
aV6
p185
aV6
p186
aV6
p187
aV6
p188
aV6
p189
aV6
p190
aV6
p191
aV6
p192
aV6
p193
aV6
p194
aV6*2
p195
aV6
p196
aV6
p197
aV6
p198
aV6
p199
aV6
p200
aV6
p201
aV6
p202
aV6
p203
aV6
p204
aV6
p205
aV6
p206
aV6
p207
aV6
p208
aV6
p209
aV6
p210
aV2*2*6
p211
aV2*6
p212
aV2*6*6
p213
aV6
p214
aV6
p215
aV6+6
p216
aV6
p217
aV6
p218
aV6
p219
aV6
p220
aV6
p221
aV6
p222
aV6
p223
aV6*2
p224
aV6
p225
aV6*2
p226
aV6
p227
aV2/6
p228
aV6
p229
aV6
p230
aV6
p231
aV6*2
p232
aV6
p233
aV6
p234
aV2*6*1
p235
aV2*6*1
p236
aV6
p237
aV6
p238
aV6
p239
asS"[('R.1', 25.0, u'5*5', u'5^2')]"
p240
(lp241
V5^2
p242
aV1-5^2
p243
asS"[('R.1.1', 5.0, u'5', u'5')]"
p244
(lp245
V5!
p246
aV5
p247
aV5
p248
aV2*5
p249
aV5
p250
aV5*2
p251
aV5
p252
aV5
p253
aV5
p254
aV5
p255
aV5
p256
aV5
p257
aV5
p258
aV5
p259
aV5
p260
aV5
p261
aV5
p262
aV1/5
p263
aV5
p264
aV5
p265
aV5
p266
aV5
p267
aV5
p268
asS"[('R.0.1', 6.0, u'6', u'1*6')]"
p269
(lp270
V1*6*2
p271
aV1*6*2+1
p272
aV1*6
p273
aV1*6
p274
aV(1*6)+(6*1)+1
p275
aV1*6 + 1*6
p276
asS"[('R.1.1', 5.0, u'5', u'7-2')]"
p277
(lp278
V7!/((7-2)!)
p279
asS"[('R.0', 36.0, u'6*6', u'6*6')]"
p280
(lp281
V6*6
p282
aV6*6*2
p283
aV6*6
p284
aV6*6
p285
aV6*6
p286
aV6*6
p287
asS"[('R.0', 36.0, u'6*6', u'36')]"
p288
(lp289
V36
p290
aV36
p291
aV36/6
p292
aV36
p293
aV3/36
p294
aV4/36
p295
aV13/36
p296
aV12/36
p297
aV36
p298
aV36
p299
aV36
p300
aV36
p301
aV36
p302
aV36
p303
aV36
p304
aV1/36
p305
aV36
p306
aV36
p307
aV36/30
p308
aV36
p309
aV2/36
p310
aV4/36
p311
aV12/36
p312
aV36
p313
aV3/36
p314
aV2/36
p315
aV1/36
p316
aV36
p317
aV36
p318
aV2/36
p319
aV3/36
p320
aV1/36
p321
aV2/36
p322
asS"[('R.0.1', 6.0, u'6', u'6!/(1!(6-1)!)'), ('R.1.1', 5.0, u'5', u'6-1')]"
p323
(lp324
V6!/(1!(6-1)!)
p325
asS"[('R.0.1', 6.0, u'6', u'P(6,1)')]"
p326
(lp327
VP(6,1)
p328
asS"[('R.1', 25.0, u'5*5', u'25')]"
p329
(lp330
V25
p331
aV25
p332
aV25
p333
aV25
p334
aV25
p335
aV25
p336
aV25
p337
asS"[('R.1', 25.0, u'5*5', u'5*5')]"
p338
(lp339
V5*5
p340
asS"[('R', 11.0, u'6*6-5*5', u'11')]"
p341
(lp342
V11!/(6! * 5!)
p343
aV11!/((6!) * (5!))
p344
aV11/36
p345
aV11/36
p346
aV11/36
p347
aV11/36
p348
asS"[('R.0', 36.0, u'6*6', u'36'), ('R.1', 25.0, u'5*5', u'25')]"
p349
(lp350
V1 - (25/36)
p351
aV1-(25/36)
p352
asS"[('R.0', 36.0, u'6*6', u'6**2'), ('R.1', 25.0, u'5*5', u'5**2')]"
p353
(lp354
V1- (5**2/6**2)
p355
asS"[('R.0.1', 6.0, u'6', u'6*1')]"
p356
(lp357
V6*1*2
p358
aV6*1
p359
aV6*1+6*1
p360
aV6*1
p361
asg48
(lp362
V30
p363
aV12
p364
aV10
p365
aV12
p366
aV2
p367
aV7
p368
aV13
p369
aV12
p370
aV30
p371
aV60
p372
aV23
p373
aV22
p374
aV21
p375
aV20
p376
aV15
p377
aV30
p378
aV31
p379
aV32
p380
aV72
p381
aV0
p382
aV1
p383
aV12
p384
aV10
p385
aV12
p386
aV12
p387
aV12
p388
aV30
p389
aV12
p390
aV12
p391
aV60
p392
aV30
p393
aV66
p394
aV50
p395
aV30
p396
aV60
p397
aV10
p398
aV12
p399
aV12
p400
aV12
p401
aV12
p402
aV30
p403
aV12
p404
aV10
p405
aV7
p406
aV3
p407
aV 13
p408
aV30
p409
aV12
p410
aV3
p411
aV30
p412
aV12
p413
aV12
p414
aV12
p415
aV12
p416
aV13
p417
aV9
p418
aV12
p419
aV13
p420
aV30
p421
aV12
p422
aV10
p423
aV12
p424
aV12
p425
aV12
p426
aV13
p427
aV10
p428
aV12
p429
aV10
p430
aV12
p431
aV12
p432
aV30
p433
aV1
p434
aV3
p435
aV30
p436
aV12
p437
aV12
p438
aV13
p439
aV12
p440
aV10
p441
aV35
p442
aV35
p443
aV9
p444
aV3
p445
aV12
p446
aV12
p447
aV12
p448
aV13
p449
aV12
p450
aV10
p451
aVC(2.1)
p452
aVC(2,1)
p453
aV12
p454
aV96
p455
aV12
p456
aV12
p457
aV10
p458
aV12
p459
aV12
p460
aV14
p461
aV12
p462
aV10
p463
aV22
p464
aV24
p465
aV(2+2)
p466
aV3
p467
aV<30
p468
aV12
p469
aV10
p470
aV13
p471
aV12
p472
aV10
p473
aV12
p474
aV26
p475
aV1/18
p476
aV10
p477
aV12
p478
aV12
p479
aV13
p480
aV12
p481
aV13
p482
aV14
p483
aV3
p484
aV13
p485
aV30*2
p486
aV30
p487
aV30
p488
aV12
p489
aV10
p490
aV12
p491
aV12
p492
aV12
p493
aV30
p494
aV12
p495
aV13
p496
aV1/3
p497
aV9
p498
aV10
p499
aV30
p500
aV60
p501
aV35
p502
aV10
p503
aV260
p504
aV12
p505
aV86400
p506
aV30
p507
aV31
p508
aV12
p509
aV1/3
p510
aV12
p511
aV12
p512
aV30
p513
aV10
p514
aV12
p515
aV12
p516
aV12
p517
aV12
p518
aV12
p519
aV30
p520
aV12
p521
aV4
p522
aV3
p523
aV2
p524
aV3
p525
aV2
p526
aV4
p527
aV1
p528
aV7
p529
aV8
p530
aV9
p531
aV7
p532
aV12
p533
aV13
p534
aV12
p535
aV3
p536
aV13
p537
aV12
p538
aV13
p539
aV14
p540
aV12
p541
aV10
p542
aV12
p543
aV10
p544
aV12
p545
aV12
p546
aV10
p547
aV13
p548
aV13
p549
aV12
p550
aV12
p551
aV7
p552
aV12
p553
aV24
p554
aV1
p555
aV2
p556
aV3
p557
aV4
p558
aV7
p559
aV8
p560
aV720
p561
aV9
p562
aV10
p563
aV26
p564
aV12
p565
aV12
p566
aV2
p567
aV1
p568
aV12
p569
aV3
p570
aV30
p571
aV12
p572
aV13
p573
aV14
p574
aV10
p575
aV12
p576
aV10
p577
aV12
p578
aV12
p579
aV10
p580
aV12
p581
aV13
p582
aV12
p583
aV30
p584
aV12
p585
aV2*30
p586
aV12
p587
aV3
p588
aV13
p589
aV12
p590
aV10
p591
aV12
p592
aV12
p593
aV12
p594
aV10
p595
aV20
p596
aV12
p597
aV12
p598
aV12
p599
aV12
p600
aV10
p601
aV12
p602
aV30
p603
aV12
p604
aV24
p605
aV12!/((12-2)!)
p606
aV12!/(2!(12-2)!)
p607
aV12
p608
aV10
p609
aV10
p610
aV12
p611
aV12
p612
aV7
p613
aV1
p614
aV2
p615
aV24
p616
aV30
p617
aV26
p618
aV31
p619
aV10
p620
aV12
p621
aV12
p622
aV12
p623
aV10
p624
aV20
p625
aV24
p626
aV12
p627
aV35
p628
aV12
p629
aV12
p630
aV10
p631
aV12
p632
aV12
p633
aV12
p634
aV12
p635
aV2
p636
aV4
p637
aV13
p638
aV12
p639
aV10
p640
aV12
p641
aV30
p642
aV12
p643
aV14
p644
aV10
p645
aV12
p646
aV30
p647
aV12
p648
aV15
p649
aV3
p650
aV2
p651
aV1
p652
aV3
p653
aV4
p654
aVINF
p655
aV12
p656
aV13
p657
aV12
p658
aV12
p659
aV30
p660
aV12
p661
aV12
p662
aV12
p663
aV12
p664
aV48
p665
aV42
p666
aV12
p667
aV12
p668
aV12
p669
aV2
p670
aV3
p671
aV1
p672
aV13
p673
aV14
p674
aV12
p675
aV12
p676
aV30
p677
aV3
p678
aV12
p679
aV9
p680
aV13
p681
aV12
p682
aV13
p683
aV10
p684
aV12
p685
aV30
p686
aV12
p687
aV12
p688
aV10
p689
aV34
p690
aV96
p691
aV30
p692
aV26
p693
aV12
p694
aV12
p695
aV12
p696
aV12
p697
aV12
p698
aV12
p699
aV12
p700
aV10
p701
aV12
p702
asS"[('R.0.1', 6.0, u'6', u'6'), ('R.1.1', 5.0, u'5', u'5')]"
p703
(lp704
V6*5
p705
aV6*5
p706
aV6*5
p707
aV5*6*2
p708
aV5!*6!
p709
aV6*5
p710
aV6*5
p711
aV6*5
p712
aV6*5
p713
aV5*6
p714
aV5*6*2
p715
aV6*5
p716
aV1- (5/6)**2
p717
aV6*5
p718
aV(5/6)*(1/6) *2 + (1/6)^2
p719
aV6!*2-5!*2
p720
aV6*5
p721
aV6*5
p722
aV6*5
p723
aV6*5*4*3*2
p724
aV5*6
p725
aV5*6+6*5
p726
asS"[('R.0.1', 6.0, u'6', u'C(6,1)')]"
p727
(lp728
VC(2,1)*C(6,1)
p729
aVC(6,1)
p730
asS"[('R.0', 36.0, u'6*6', u'6^2')]"
p731
(lp732
V6^2
p733
aV6^2
p734
assV2
p735
g2
(g3
tp736
Rp737
S"[('R.1', 5.0, u'5', u'6-1')]"
p738
(lp739
V6!/(1!(6-1)!)
p740
asS"[('R', 25.0, u'5*5', u'5*5')]"
p741
(lp742
V(5*5)/(6*6)
p743
aV5*5*2
p744
aV5*5*2
p745
aV(5*5*2)
p746
asg48
(lp747
V68
p748
aV34
p749
aV30
p750
aV34
p751
aV30
p752
aV24
p753
aV20
p754
aV14
p755
aV60
p756
aV50
p757
aV33/36
p758
aV32/36
p759
aV23/36
p760
aV24/36
p761
aV12
p762
aV11
p763
aV72
p764
aV30
p765
aV24
p766
aV33
p767
aV 
p768
aV33
p769
aV30
p770
aV6
p771
aV50
p772
aV30
p773
aV6*6-2
p774
aV6*6-6-6
p775
aV6*6-6
p776
aV69
p777
aV63
p778
aV33
p779
aV30
p780
aV6!
p781
aV36!/2
p782
aV34
p783
aV35
p784
aV30
p785
aV36!/((34!)(2))
p786
aV1
p787
aV33
p788
aV24
p789
aV1/6
p790
aV30
p791
aV24
p792
aV19
p793
aV50
p794
aV24
p795
aV30
p796
aV36-12
p797
aV36-14
p798
aV50
p799
aV11
p800
aV12
p801
aV29
p802
aV28
p803
aV30
p804
aV24
p805
aV23
p806
aV(6*6) - (6*2)
p807
aV50
p808
aV34
p809
aV24
p810
aV33
p811
aV36-6-6-1
p812
aV30
p813
aV50
p814
aV34
p815
aV33
p816
aV30
p817
aV31
p818
aV32
p819
aV33
p820
aV34
p821
aV35
p822
aV24
p823
aV20
p824
aV21
p825
aV22
p826
aV23
p827
aV26
p828
aV27
p829
aV28
p830
aV29
p831
aV23
p832
aV14400
p833
aV30
p834
aV24
p835
aV34
p836
aV24
p837
aV26
p838
aV50
p839
aV10C2
p840
aV26
p841
aV33
p842
aV34
p843
aV24
p844
aV69
p845
aV60
p846
aV(6*6)-6
p847
aV(6*6)-12
p848
aV24
p849
aV24
p850
aV34
p851
aV24
p852
aV24
p853
aV33
p854
aV33
p855
aV34
p856
aVC(6,1)
p857
aV6! * 2 - 12
p858
aV6!/(6-2)!
p859
aV6!/(2!(6-2)!)
p860
aV33
p861
aV34
p862
aV36-12
p863
aV24
p864
aV24
p865
aV70
p866
aV64
p867
aV55
p868
aV24
p869
aV120
p870
aV100
p871
aV24
p872
aV(6*6)-12
p873
aV33
p874
aV24
p875
aV6
p876
aV12
p877
aV11
p878
aV30
p879
aV18
p880
aV24
p881
aV50
p882
aV45
p883
aV24
p884
aV24
p885
aV34
p886
aV240
p887
aV24
p888
aV50
p889
aV24
p890
aV24
p891
aV34
p892
aV34/36
p893
aV32
p894
aV24
p895
aV33
p896
aV34
p897
aV34/36
p898
aV60
p899
aV30
p900
aV24
p901
aV24
p902
aV50
p903
aV30
p904
aV24
p905
aV50
p906
asS"[('R', 25.0, u'5*5', u'5^2')]"
p907
(lp908
V(5^2)*2
p909
asS"[('R', 25.0, u'5*5', u'25')]"
p910
(lp911
V25/36
p912
aV25/36
p913
aV25*2
p914
aV25/36
p915
aV36/25
p916
aV25/36
p917
aV25/(6*6)
p918
asS"[('R.1', 5.0, u'5', u'5')]"
p919
(lp920
V5!*5!
p921
aV36(5/6)
p922
aV5!*5!
p923
aV5!*2
p924
aV5!5!
p925
aV2(5!)
p926
aV5*4*3*2*2
p927
aV2*5*5
p928
ass.