(dp0
V1
p1
ccollections
defaultdict
p2
(c__builtin__
list
p3
tp4
Rp5
S'Nothing'
p6
(lp7
V10!*26!
p8
aV130
p9
aV10!26!
p10
aV9*24
p11
aV234
p12
aV9!*26!
p13
aV234
p14
aV26^10
p15
aV10!/26!
p16
aV10!/17!
p17
aV243
p18
aV270
p19
aV9^2
p20
aV670
p21
aV6760
p22
aV2600
p23
aV26*9
p24
aV(10!)*(26!)
p25
aV9!*26!
p26
aV(9+26)!/(2!33!)
p27
aV234
p28
aV240
p29
aV240
p30
aV120
p31
aV270
p32
aV9! * 26!
p33
aV10! * 26!
p34
aV(10!)(26!)
p35
aV(10!)(26!)/(36)
p36
aV(10!)(26!)/(36!)
p37
aV9*24
p38
aV10!26!
p39
aV26*9
p40
aV236
p41
aV240
p42
aV9!*26!
p43
aV234
p44
aV35
p45
aV36
p46
aV234
p47
aV10*10*26*26*10*10*10
p48
aV240
p49
aV10*26/2
p50
aV9*15
p51
aV(26!/(9!*15!))
p52
aV5,311,735
p53
aV5311735
p54
aV10
p55
aV270
p56
aV10! * 26!
p57
aV10! +26!
p58
aV36!
p59
aV36!*10
p60
aV234
p61
aV234
p62
aV234
p63
aV234
p64
aV234
p65
aV130
p66
aV9*27
p67
aV234
p68
aV360
p69
aV(9*26)/2
p70
aV(9!*26!)/2
p71
aV10!*26!
p72
aV26 * 9
p73
aV9*27
p74
aV9*25
p75
aV1*10^26
p76
aV26^10
p77
aV234
p78
aV26
p79
aV234
p80
aV270
p81
asS"['R.0']"
p82
(lp83
V10*24
p84
aV10^2
p85
aV10*24
p86
aV10*36
p87
aV10*24
p88
aV10*260
p89
asS"['R.1']"
p90
(lp91
V9*26
p92
aV9*26
p93
aV9*26
p94
aV9*26
p95
aV9*26
p96
aV9*26
p97
aV9*26
p98
aV9+26
p99
aV9*26
p100
aV9*26
p101
aV9*26
p102
aV9*26
p103
aV9*26
p104
aV9*26
p105
aV9*26
p106
aV9*26
p107
aV9*26
p108
aV9*26
p109
aV9*26
p110
aV9*26
p111
aV9+26
p112
aV9*26
p113
aV9*26
p114
aV9*26
p115
aV9*26
p116
aV9*26
p117
aV9*26
p118
asS"['R.0', 'R.1']"
p119
(lp120
V10^26
p121
aV10^26
p122
aV10^26
p123
assV2
p124
g2
(g3
tp125
Rp126
S"['R.0.0']"
p127
(lp128
V10*10*26*10
p129
aV10*10*26*10
p130
aV10*10*26*10
p131
aV10*10*26*10
p132
aV100*26*10
p133
aV10*10*26*10
p134
aV10 * 10 * 26 * 10
p135
aV10*10*26*10
p136
aV100 * 26 * 10
p137
aV10*10*26*10
p138
aV10*10*3*2
p139
aV10*10*26*10
p140
aV10*10*26*10
p141
aV10*10*26*10
p142
aV100*26*10
p143
aV10*10*26*10
p144
asS"['R.0.0.0', 'R.1']"
p145
(lp146
V10*26*26*1000
p147
asS"['R.0.1']"
p148
(lp149
V10*(26^3)*(10^2)
p150
asS"['R.0.0', 'R.0.1', 'R.1']"
p151
(lp152
V10^2 + 26^2 + 10^3
p153
asS"['R.1']"
p154
(lp155
V10*10*27*27*1000
p156
asS"['R.0.1.0', 'R.1.1']"
p157
(lp158
VC(10,2)*C(26,2)*C(10,3)
p159
asS"['R.0.1', 'R.1.1']"
p160
(lp161
V(9^2)*(26^2)*(9^3)
p162
asS"['R.0.0.0']"
p163
(lp164
V10 * 9 * 26 * 8
p165
aV(10!/5!)*(26!*24!)
p166
aV(10!/5!)*(26!/24!)
p167
aV(10!/5!)+(26!/24!)
p168
asS"['R.0.1.0']"
p169
(lp170
V9*8+26*25+24*9*8
p171
aV9*9+26*26+24*9*9
p172
aV10!*10!*26!*10!
p173
aV20!*26!*10!
p174
aV100!*26!*10!
p175
aV2(10)*3(26)*2(10)
p176
asS"['R.0']"
p177
(lp178
V10*10*26^3*1000
p179
aV10^2*26^3*10
p180
aV10*10*26*26*10
p181
aV100*(26^3)*10
p182
asS"['R.0.0.0', 'R.0.0.1', 'R.0.1.0', 'R.0.1.1']"
p183
(lp184
V(10*2)+(26*3)+(20)
p185
asS"['R.0.0.0', 'R.0.0.1', 'R.0.1']"
p186
(lp187
V(10*2)+(26*26*26)+(20)
p188
asg6
(lp189
V124
p190
aV27576
p191
aV10000*26*26*26*
p192
aV9*2+3*26+2*9
p193
aV9*2*3*26*2*9
p194
aV9*8*26*25*24*9*8
p195
aV9*9*26*26*26*9*9
p196
aV(9^4)*(26^3)
p197
aV49400000
p198
aV(10**3)*(26**3)
p199
aV(9**3)*(26**3)
p200
aV(9**4)*(26**3)
p201
aV26000
p202
aV[10*10*26*26*26*10*10]/[2*3*2*2]
p203
aV18954
p204
aV26000
p205
aV1757600
p206
aV210
p207
aV17576000
p208
aV10*26*10
p209
aV26*26*10*10*10*10
p210
aV72900000
p211
aV10*10*27*27*10*10*10
p212
aV2*3*2
p213
aV10*10*26*10*26
p214
aV9*9*26*26*26*9*9
p215
aV10 + 10 + 26 + 26 + 10 + 10 + 10
p216
aV260000
p217
aV6460000
p218
aV6760000
p219
aV10*10*10*10*26*26*26*26
p220
aV10*26*10
p221
aV3130
p222
aV3120
p223
aV31200
p224
aV2600
p225
aV100676
p226
aV20*26*10
p227
aV10 * 10 * 26 * 26 * 10 * 10
p228
aV26000
p229
aV9*9*26*26*26*9*9
p230
aV10^5*2^26
p231
aV138240000
p232
aV196830000
p233
aV2*3*2*6
p234
aV10^2*26^3*10^2*3!
p235
aV10 * 9 * 26 * 25 * 8 * 7 * 6
p236
aV10^4 * 26 ^ 2
p237
aV10!*10!*26!*26!*10!*10!*10!
p238
aV9*9*26*26*26*9*9
p239
aV9*9*26*9
p240
aV6760000
p241
aV57600000
p242
aV2!3!2!
p243
aV31200
p244
aV2600
p245
aV780000
p246
aV175,760,000
p247
aV12
p248
aV10*10*26*26*10*10
p249
aV2028000
p250
aV67,600,000
p251
aV158
p252
aV2*3*2*2
p253
aV2*(10)*3*2*26*2*10
p254
aV175,760,000
p255
aV(10!/8!)*(26!/24!)*(10!/7!)
p256
aV12
p257
aV196,830,000
p258
aV196830000
p259
aV12
p260
aV2!*3!*2!
p261
aV12
p262
aV2*10+3*26+2*10
p263
aV2*10*3*26*2*10
p264
aV10*10*25*25*25*10*10
p265
aV24
p266
aV102
p267
aV31,200
p268
aV31200
p269
aV20*26*26*30
p270
aV10 * 26 * 10 * 10 *10
p271
aV10 * 10 * 26 * 10 * 10 *10
p272
aV2*2*3
p273
aV26^3 * 10^3
p274
aV17,576,000
p275
aV6
p276
aV12
p277
aV1560000
p278
aV20280000
p279
aV40560000
p280
aV26000
p281
aV2147483648
p282
aV676000
p283
aV26^7
p284
aV26^3*10^5
p285
aV260000
p286
aV26000
p287
aV18954
p288
aV17576000
p289
aV26000
p290
aV10*9*26*10
p291
aV6760000
p292
aV26*26*26*10*10*10
p293
aV2*10*2*26*3*10
p294
aV2*3*2
p295
aV9*9*26*26*26*9*9
p296
aV3*9*2*26
p297
aV3*10*2*26
p298
aV5*10*2*26
p299
aV10^2*26*3*10
p300
aV1296000
p301
aV676000
p302
aV6760000
p303
aV67,600,000
p304
aV26000
p305
aV9*9*26*26*9*9*9
p306
aV9 * 26 * 9 * 26 * 9 * 9
p307
aV10 * 26 * 10 * 10 * 10* 10
p308
aV115316136
p309
aV18954
p310
aV10 * 26 * 10 * 10 * 10* 10 * 3
p311
aV115316136
p312
aV9*9*26*26*26*9*9
p313
aV196830000
p314
aV10\u22c526\u22c59\u22c510\u22c59\u22c58
p315
aV10*26*9*10*9*8
p316
aV(26!*8100)/3!
p317
aV126360000
p318
aV15600
p319
aV372600
p320
aV2600+126
p321
aV9*9*26*9
p322
aV(10^5)*(10^2)
p323
aV6760000
p324
aV 126360000
p325
aV 32760000
p326
aV 78624000
p327
aV 1010880000
p328
aV 49400000
p329
aV 46124000
p330
aV33800
p331
aV1000*26^3
p332
aV26000
p333
aV10*10
p334
aV492804
p335
aV115316136
p336
aV1757600000
p337
aV21970000/3
p338
aV177957
p339
aV6760000
p340
aV26000
p341
asS"['R.0.1.1']"
p342
(lp343
V6*10^3*26
p344
aV12*10^3*26
p345
aV11*10^3*26
p346
asS"['R.0.1.0', 'R.0.1.1']"
p347
(lp348
V100*(26*3)*100
p349
aV20+(26*3)+(20)
p350
aV20*(26*3)*(20)
p351
ass.