(dp0
V1
p1
ccollections
defaultdict
p2
(c__builtin__
list
p3
tp4
Rp5
S'Nothing'
p6
(lp7
(V6*6
p8
V6*5*4*3*2*6*5*4*3*2
p9
tp10
a(V6*6
p11
V6*^
p12
tp13
a(V6*6
p14
V72
p15
tp16
a(V6*6
p17
V72
p18
tp19
a(V6*6
p20
V6!*6!
p21
tp22
a(V6*6
p23
V72
p24
tp25
a(V6*6
p26
V12
p27
tp28
a(g26
V24
p29
tp30
a(g26
V24!
p31
tp32
a(g26
V12!
p33
tp34
a(V6*6
p35
V72
p36
tp37
a(V6*6
p38
V72
p39
tp40
a(g35
V144
p41
tp42
a(V6*6
p43
V12*12
p44
tp45
a(V6*6
p46
V72
p47
tp48
a(g46
V66
p49
tp50
a(V6*6
p51
V6!*6!
p52
tp53
a(V6*6
p54
V6*6*2
p55
tp56
a(V6*6
p57
V6*6*2
p58
tp59
a(V6*6
p60
V35
p61
tp62
a(V6*6
p63
V(6^2)*2
p64
tp65
a(g63
V72
p66
tp67
a(V6*6
p68
V6**6
p69
tp70
a(V6*6
p71
V6*6*2
p72
tp73
a(g71
V6*6*2
p74
tp75
a(V6*6
p76
V72
p77
tp78
a(g76
V2*36
p79
tp80
a(g76
V36*36
p81
tp82
a(V6*6
p83
V720/2
p84
tp85
a(V6*6
p86
V72
p87
tp88
a(V6*6
p89
V6!*6!
p90
tp91
a(V6*6
p92
V6*6*2
p93
tp94
a(g89
V36*36
p95
tp96
a(g89
V60
p97
tp98
a(g89
V36*35
p99
tp100
a(g89
V36*36
p101
tp102
a(V6*6
p103
V72
p104
tp105
a(V6*6
p106
V12
p107
tp108
a(V6*6
p109
V36*2
p110
tp111
a(V6*6
p112
V36*2
p113
tp114
a(V6*6
p115
V3!*4!
p116
tp117
a(g115
V3*4
p118
tp119
a(V6*6
p120
V518400
p121
tp122
a(g120
V1440
p123
tp124
a(g120
V12!
p125
tp126
a(g120
V30
p127
tp128
a(g120
V15
p129
tp130
a(V6*6
p131
V6!*6!
p132
tp133
a(g131
V36!
p134
tp135
a(g131
V6!
p136
tp137
a(g131
V6!*2
p138
tp139
a(g131
V12!
p140
tp141
a(V6*6
p142
V72
p143
tp144
a(g142
V12C2
p145
tp146
a(g142
V(12!)/(2*(10!))
p147
tp148
a(V6*6
p149
V30
p150
tp151
a(V6*6
p152
V2(6!)(6!)
p153
tp154
a(g152
V72
p155
tp156
a(V6*6
p157
V72
p158
tp159
a(V6*6
p160
V6*6*2
p161
tp162
a(V6*6
p163
V6*5*4*3
p164
tp165
a(g163
V12
p166
tp167
a(g157
V6^4
p168
tp169
a(g157
V6*6*2
p170
tp171
a(V6*6
p172
V68
p173
tp174
a(g172
V68*2
p175
tp176
a(g172
V12
p177
tp178
a(V6*6
p179
V72
p180
tp181
a(g179
V18
p182
tp183
a(V6*6
p184
V6! * 6!
p185
tp186
a(g184
V6! * 2
p187
tp188
a(g184
V6!/(6-2)!
p189
tp190
a(g184
V6!/(2!(6-2)!)
p191
tp192
a(V6*6
p193
V24
p194
tp195
a(V6*6
p196
V72
p197
tp198
a(g196
V66
p199
tp200
a(g196
V72
p201
tp202
a(V6*6
p203
V64
p204
tp205
a(g203
V58
p206
tp207
a(g203
V52
p208
tp209
a(g203
V60
p210
tp211
a(V6*6
p212
V6!*2
p213
tp214
a(g212
V12!
p215
tp216
a(g212
V6!*4
p217
tp218
a(g212
V72
p219
tp220
a(V6*6
p221
V12
p222
tp223
a(V6*6
p224
V720
p225
tp226
a(g224
V144
p227
tp228
a(V6*6
p229
V6*6*2
p230
tp231
a(V6*6
p232
V12
p233
tp234
a(g232
V24
p235
tp236
a(g232
V2C12
p237
tp238
a(g232
V12! * 2
p239
tp240
a(g232
V12!
p241
tp242
a(g232
V!12
p243
tp244
a(V6*6
p245
V72
p246
tp247
a(g245
V66
p248
tp249
a(V6*6
p250
V6!6!
p251
tp252
a(g250
V6!
p253
tp254
a(V6*6
p255
V6!6!
p256
tp257
a(g255
V2(6!)
p258
tp259
a(g255
V1440
p260
tp261
a(g250
V12!
p262
tp263
a(V6*6
p264
V6*5*4*3*2*2
p265
tp266
a(V6*6
p267
V72
p268
tp269
a(V6*6
p270
V12^2
p271
tp272
a(g250
V12
p273
tp274
a(V6*6
p275
V72
p276
tp277
a(V6*6
p278
V24
p279
tp280
a(g278
V6*6*2
p281
tp282
a(V6*6
p283
V72
p284
tp285
a(g283
V64
p286
tp287
a(g283
V30
p288
tp289
a(g283
V15
p290
tp291
a(V6*6
p292
V72
p293
tp294
a(V6*6
p295
V6! * 6!
p296
tp297
asS"['R.1']"
p298
(lp299
(g26
V6*6*6
p300
(lp301
(S'R.1'
p302
F6.0
V6
p303
g303
tp304
atp305
a(g184
V6! * 6! - 6
p306
(lp307
(S'R.1'
p308
F6.0
g303
g303
tp309
atp310
a(V6*6
p311
V2*6*6
p312
(lp313
(S'R.1'
p314
F6.0
g303
g303
tp315
atp316
assV3
p317
g2
(g3
tp318
Rp319
g6
(lp320
(V6*6-5*5
p321
V6*5
p322
tp323
a(g321
V2*6
p324
tp325
a(V6*6-5*5
p326
V30
p327
tp328
a(g326
V12
p329
tp330
a(g326
V10
p331
tp332
a(V6*6-5*5
p333
V1*6*2
p334
tp335
a(g333
V1*6*2+1
p336
tp337
a(V6*6-5*5
p338
V12
p339
tp340
a(g338
V2
p341
tp342
a(g338
V6
p343
tp344
a(V6*6-5*5
p345
V6*5
p346
tp347
a(g345
V2*6
p348
tp349
a(g338
V7
p350
tp351
a(g338
V13
p352
tp353
a(V6*6-5*5
p354
V12
p355
tp356
a(V6*6-5*5
p357
V30
p358
tp359
a(g357
V36
p360
tp361
a(g357
V60
p362
tp363
a(g357
V36
p364
tp365
a(g357
V6!
p366
tp367
a(g357
V5!
p368
tp369
a(g357
V11!/(6! * 5!)
p370
tp371
a(g357
V11!/((6!) * (5!))
p372
tp373
a(g357
V23
p374
tp375
a(g357
V22
p376
tp377
a(g357
V21
p378
tp379
a(g357
V20
p380
tp381
a(g357
V25
p382
tp383
a(g357
V15
p384
tp385
a(g357
V30
p386
tp387
a(g357
V31
p388
tp389
a(g357
V32
p390
tp391
a(g357
V72
p392
tp393
a(g357
V36
p394
tp395
a(g357
V0
p396
tp397
a(g357
V6
p398
tp399
a(g357
V5
p400
tp401
a(g357
V1
p402
tp403
a(g357
V5
p404
tp405
a(g357
V6
p406
tp407
a(g357
V12
p408
tp409
a(g357
V10
p410
tp411
a(V6*6-5*5
p412
V12
p413
tp414
a(V6*6-5*5
p415
V6*5
p416
tp417
a(g415
V6*6
p418
tp419
a(g415
V12
p420
tp421
a(V6*6-5*5
p422
V12
p423
tp424
a(g422
V6
p425
tp426
a(V6*6-5*5
p427
V30
p428
tp429
a(g427
V6
p430
tp431
a(g427
V12
p432
tp433
a(V6*6-5*5
p434
V12
p435
tp436
a(V6*6-5*5
p437
V5!*6!
p438
tp439
a(V6*6-5*5
p440
V60
p441
tp442
a(g440
V30
p443
tp444
a(g440
V66
p445
tp446
a(g440
V25
p447
tp448
a(g437
V6*5
p449
tp450
a(g440
V50
p451
tp452
a(g440
V30
p453
tp454
a(g440
V60
p455
tp456
a(g437
V6
p457
tp458
a(g437
V6*2
p459
tp460
a(g437
V10
p461
tp462
a(V6*6-5*5
p463
V3/36
p464
tp465
a(g463
V4/36
p466
tp467
a(g463
V13/36
p468
tp469
a(g463
V12/36
p470
tp471
a(g463
V11/36
p472
tp473
a(V6*6-5*5
p474
V12
p475
tp476
a(V6*6-5*5
p477
V12
p478
tp479
a(V6*6-5*5
p480
V12
p481
tp482
a(V6*6-5*5
p483
V6
p484
tp485
a(g483
V2*6
p486
tp487
a(g483
V2*5
p488
tp489
a(g483
V1*6
p490
tp491
a(g483
V5
p492
tp493
a(g483
V5^2
p494
tp495
a(g483
VP(6,1)
p496
tp497
a(g483
V6!
p498
tp499
a(g483
V6^2
p500
tp501
a(g483
V6*5
p502
tp503
a(g483
V6*2
p504
tp505
a(V6*6-5*5
p506
V6
p507
tp508
a(g506
V12
p509
tp510
a(V6*6-5*5
p511
V30
p512
tp513
a(g511
V12
p514
tp515
a(g511
V10
p516
tp517
a(V6*6-5*5
p518
V7
p519
tp520
a(V6*6-5*5
p521
V3
p522
tp523
a(g521
V 13
p524
tp525
a(V6*6-5*5
p526
V30
p527
tp528
a(g526
V12
p529
tp530
a(V6*6-5*5
p531
V6
p532
tp533
a(g531
V3
p534
tp535
a(g531
V6
p536
tp537
a(g531
V30
p538
tp539
a(g531
V12
p540
tp541
a(V6*6-5*5
p542
V12
p543
tp544
a(V6*6-5*5
p545
V12
p546
tp547
a(g545
V6
p548
tp549
a(V6*6-5*5
p550
V6
p551
tp552
a(V6*6-5*5
p553
V12
p554
tp555
a(g553
V6+6
p556
tp557
a(V6*6-5*5
p558
V13
p559
tp560
a(g558
V9
p561
tp562
a(V6*6-5*5
p563
V12
p564
tp565
a(g563
V13
p566
tp567
a(V6*6-5*5
p568
V6*2
p569
tp570
a(V6*6-5*5
p571
V6
p572
tp573
a(g571
V6+6
p574
tp575
a(V6*6-5*5
p576
V30
p577
tp578
a(g576
V6
p579
tp580
a(V6*6-5*5
p581
V12
p582
tp583
a(V6*6-5*5
p584
V6*5
p585
tp586
a(g584
V10
p587
tp588
a(g584
V12
p589
tp590
a(V6*6-5*5
p591
V12
p592
tp593
a(V6*6-5*5
p594
V12
p595
tp596
a(V6*6-5*5
p597
V13
p598
tp599
a(V6*6-5*5
p600
V10
p601
tp602
a(V6*6-5*5
p603
V12
p604
tp605
a(g603
V10
p606
tp607
a(V6*6-5*5
p608
V12
p609
tp610
a(V6*6-5*5
p611
V12
p612
tp613
a(V6*6-5*5
p614
V30
p615
tp616
a(g614
V6*5
p617
tp618
a(g614
V6!
p619
tp620
a(g614
V1
p621
tp622
a(V6*6-5*5
p623
V5*6
p624
tp625
a(g623
V5*2
p626
tp627
a(g623
V5
p628
tp629
a(g623
V6
p630
tp631
a(g623
V6*2
p632
tp633
a(g623
V1*6
p634
tp635
a(g623
V6*6
p636
tp637
a(V6*6-5*5
p638
V3
p639
tp640
a(g638
V30
p641
tp642
a(g638
V6
p643
tp644
a(V6*6-5*5
p645
V12
p646
tp647
a(V6*6-5*5
p648
V12
p649
tp650
a(V6*6-5*5
p651
V13
p652
tp653
a(g614
V6
p654
tp655
a(g614
V12
p656
tp657
a(g614
V10
p658
tp659
a(g614
V5
p660
tp661
a(g614
V35
p662
tp663
a(V6*6-5*5
p664
V6+6+1
p665
tp666
a(V6*6-5*5
p667
V35
p668
tp669
a(g667
V9
p670
tp671
a(V6*6-5*5
p672
V6*5
p673
tp674
a(V6*6-5*5
p675
V3
p676
tp677
a(g675
V12
p678
tp679
a(V6*6-5*5
p680
V12
p681
tp682
a(V6*6-5*5
p683
V12
p684
tp685
a(g683
V13
p686
tp687
a(V6*6-5*5
p688
V6
p689
tp690
a(g688
V2*6
p691
tp692
a(g688
VC(2,1)*C(6,1)
p693
tp694
a(g688
V12
p695
tp696
a(g688
V10
p697
tp698
a(g688
V2*1*6
p699
tp700
a(g688
VC(2.1)
p701
tp702
a(g688
VC(2,1)
p703
tp704
a(g688
V6
p705
tp706
a(V6*6-5*5
p707
V12
p708
tp709
a(V6*6-5*5
p710
V96
p711
tp712
a(V6*6-5*5
p713
V6
p714
tp715
a(g713
V12
p716
tp717
a(V6*6-5*5
p718
V12
p719
tp720
a(g718
V10
p721
tp722
a(V6*6-5*5
p723
V1- (5/6)**2
p724
tp725
a(g723
V1- (5**2/6**2)
p726
tp727
a(g723
V11/36
p728
tp729
a(g723
V1 - (25/36)
p730
tp731
a(V6*6-5*5
p732
V12
p733
tp734
a(V6*6-5*5
p735
V1*2*6
p736
tp737
a(g735
V1*2*6
p738
tp739
a(V6*6-5*5
p740
V6
p741
tp742
a(V6*6-5*5
p743
V12
p744
tp745
a(g743
V14
p746
tp747
a(V6*6-5*5
p748
V6
p749
tp750
a(g748
V12
p751
tp752
a(g748
V10
p753
tp754
a(V6*6-5*5
p755
V22
p756
tp757
a(g755
V25
p758
tp759
a(g755
V24
p760
tp761
a(V6*6-5*5
p762
V(2+2)
p763
tp764
a(g762
V3
p765
tp766
a(g762
V(1*6)+(6*1)+1
p767
tp768
a(V6*6-5*5
p769
V6*5
p770
tp771
a(g769
V6*6
p772
tp773
a(g769
V<30
p774
tp775
a(V6*6-5*5
p776
V12
p777
tp778
a(V6*6-5*5
p779
V10
p780
tp781
a(g779
V13
p782
tp783
a(V6*6-5*5
p784
V(6*2)
p785
tp786
a(g784
V(6*2)
p787
tp788
a(g784
V6
p789
tp790
a(V6*6-5*5
p791
V12
p792
tp793
a(g791
V10
p794
tp795
a(g791
V12
p796
tp797
a(g791
V6
p798
tp799
a(V6*6-5*5
p800
V26
p801
tp802
a(g800
V1/18
p803
tp804
a(g800
V36
p805
tp806
a(g800
V10
p807
tp808
a(V6*6-5*5
p809
V12
p810
tp811
a(g809
V6
p812
tp813
a(g809
V12
p814
tp815
a(g809
V13
p816
tp817
a(V6*6-5*5
p818
V12
p819
tp820
a(g818
V13
p821
tp822
a(g818
V14
p823
tp824
a(V6*6-5*5
p825
V3
p826
tp827
a(g825
V13
p828
tp829
a(V6*6-5*5
p830
V30*2
p831
tp832
a(g830
V30
p833
tp834
a(g830
V11/36
p835
tp836
a(V6*6-5*5
p837
V30
p838
tp839
a(g837
V6
p840
tp841
a(V6*6-5*5
p842
V6
p843
tp844
a(g842
V12
p845
tp846
a(g842
V10
p847
tp848
a(g842
V5
p849
tp850
a(V6*6-5*5
p851
V6
p852
tp853
a(g851
V5
p854
tp855
a(V6*6-5*5
p856
V12
p857
tp858
a(g856
V6
p859
tp860
a(g856
V12
p861
tp862
a(g856
V36
p863
tp864
a(g856
V6
p865
tp866
a(V6*6-5*5
p867
V6
p868
tp869
a(V6*6-5*5
p870
V6
p871
tp872
a(g870
V12
p873
tp874
a(V6*6-5*5
p875
V30
p876
tp877
a(g875
V12
p878
tp879
a(g875
V6
p880
tp881
a(g875
V13
p882
tp883
a(V6*6-5*5
p884
V1/3
p885
tp886
a(g884
V25
p887
tp888
a(g884
V9
p889
tp890
a(V6*6-5*5
p891
V10
p892
tp893
a(g891
V30
p894
tp895
a(g891
V60
p896
tp897
a(g891
V35
p898
tp899
a(g891
V10
p900
tp901
a(g891
V260
p902
tp903
a(V6*6-5*5
p904
V12
p905
tp906
a(V6*6-5*5
p907
V86400
p908
tp909
a(V6*6-5*5
p910
V6*2
p911
tp912
a(V6*6-5*5
p913
V1*6 + 1*6
p914
tp915
a(V6*6-5*5
p916
V30
p917
tp918
a(g916
V31
p919
tp920
a(g916
V36
p921
tp922
a(g916
V12
p923
tp924
a(V6*6-5*5
p925
V1/3
p926
tp927
a(g925
V12
p928
tp929
a(g925
V6
p930
tp931
a(V6*6-5*5
p932
V12
p933
tp934
a(V6*6-5*5
p935
V30
p936
tp937
a(g935
V5
p938
tp939
a(g935
V10
p940
tp941
a(g935
V12
p942
tp943
a(V6*6-5*5
p944
V6
p945
tp946
a(g944
V12
p947
tp948
a(V6*6-5*5
p949
V12
p950
tp951
a(V6*6-5*5
p952
V12
p953
tp954
a(V6*6-5*5
p955
V12
p956
tp957
a(V6*6-5*5
p958
V30
p959
tp960
a(g958
V5
p961
tp962
a(g958
V36
p963
tp964
a(g958
V12
p965
tp966
a(V6*6-5*5
p967
V4
p968
tp969
a(g967
V3
p970
tp971
a(g967
V2
p972
tp973
a(g769
V3
p974
tp975
a(g769
V2
p976
tp977
a(g769
V4
p978
tp979
a(g769
V1
p980
tp981
a(g769
V5
p982
tp983
a(g769
V6
p984
tp985
a(g769
V7
p986
tp987
a(g769
V8
p988
tp989
a(g769
V9
p990
tp991
a(V6*6-5*5
p992
V7
p993
tp994
a(g992
V12
p995
tp996
a(V6*6-5*5
p997
V13
p998
tp999
a(V6*6-5*5
p1000
V12
p1001
tp1002
a(g1000
V6
p1003
tp1004
a(V6*6-5*5
p1005
V(5/6)*(1/6) *2 + (1/6)^2
p1006
tp1007
a(g997
V3
p1008
tp1009
a(g997
V13
p1010
tp1011
a(V6*6-5*5
p1012
V12
p1013
tp1014
a(g1012
V13
p1015
tp1016
a(g1012
V14
p1017
tp1018
a(V6*6-5*5
p1019
V6
p1020
tp1021
a(g1019
V12
p1022
tp1023
a(g1019
V10
p1024
tp1025
a(V6*6-5*5
p1026
V12
p1027
tp1028
a(V6*6-5*5
p1029
V6
p1030
tp1031
a(g1029
V10
p1032
tp1033
a(g1029
V5
p1034
tp1035
a(V6*6-5*5
p1036
V12
p1037
tp1038
a(g1029
V12
p1039
tp1040
a(g1036
V10
p1041
tp1042
a(g1029
V13
p1043
tp1044
a(g1036
V25
p1045
tp1046
a(g1036
V13
p1047
tp1048
a(V6*6-5*5
p1049
V6
p1050
tp1051
a(g1049
V12
p1052
tp1053
a(V6*6-5*5
p1054
V12
p1055
tp1056
a(V6*6-5*5
p1057
V6
p1058
tp1059
a(g1057
V7
p1060
tp1061
a(g1057
V12
p1062
tp1063
a(g1057
V24
p1064
tp1065
a(g1057
V36
p1066
tp1067
a(g1057
V6
p1068
tp1069
a(g1057
V5
p1070
tp1071
a(g1057
V1
p1072
tp1073
a(g1057
V2
p1074
tp1075
a(g1057
V3
p1076
tp1077
a(g1057
V4
p1078
tp1079
a(g1057
V5
p1080
tp1081
a(g1057
V6
p1082
tp1083
a(g1057
V7
p1084
tp1085
a(g1057
V8
p1086
tp1087
a(g1057
V720
p1088
tp1089
a(g1057
V9
p1090
tp1091
a(g1057
V10
p1092
tp1093
a(V6*6-5*5
p1094
V26
p1095
tp1096
a(g1094
V12
p1097
tp1098
a(V6*6-5*5
p1099
V6
p1100
tp1101
a(V6*6-5*5
p1102
V12
p1103
tp1104
a(V6*6-5*5
p1105
V2
p1106
tp1107
a(g1105
V1
p1108
tp1109
a(g1105
V6
p1110
tp1111
a(g1105
V12
p1112
tp1113
a(V6*6-5*5
p1114
V3
p1115
tp1116
a(V6*6-5*5
p1117
V30
p1118
tp1119
a(g1117
V6
p1120
tp1121
a(g1117
V12
p1122
tp1123
a(g1117
V13
p1124
tp1125
a(g1117
V14
p1126
tp1127
a(V6*6-5*5
p1128
V10
p1129
tp1130
a(V6*6-5*5
p1131
V12
p1132
tp1133
a(g1131
V36
p1134
tp1135
a(g1131
V6
p1136
tp1137
a(g1131
V10
p1138
tp1139
a(g1131
V25
p1140
tp1141
a(g1131
V36
p1142
tp1143
a(g1131
V5
p1144
tp1145
a(g1131
V6
p1146
tp1147
a(g1131
V12
p1148
tp1149
a(g1131
V1/5
p1150
tp1151
a(g1131
V1/36
p1152
tp1153
a(g1131
V12
p1154
tp1155
a(g1131
V10
p1156
tp1157
a(V6*6-5*5
p1158
V12
p1159
tp1160
a(g1158
V13
p1161
tp1162
a(V6*6-5*5
p1163
V12
p1164
tp1165
a(V6*6-5*5
p1166
V30
p1167
tp1168
a(g1166
V36
p1169
tp1170
a(V6*6-5*5
p1171
VC(6,1)
p1172
tp1173
a(g1171
V6!/(1!(6-1)!)
p1174
tp1175
a(g1171
V12
p1176
tp1177
a(V6*6-5*5
p1178
V6*1*2
p1179
tp1180
a(g1178
V6*1
p1181
tp1182
a(V6*6-5*5
p1183
V2*30
p1184
tp1185
a(g1183
V2*2*6
p1186
tp1187
a(g1183
V2*6
p1188
tp1189
a(g1183
V2*6*6
p1190
tp1191
a(g1183
V12
p1192
tp1193
a(V6*6-5*5
p1194
V3
p1195
tp1196
a(g1194
V13
p1197
tp1198
a(g1194
V12
p1199
tp1200
a(g1194
V10
p1201
tp1202
a(V6*6-5*5
p1203
V12
p1204
tp1205
a(V6*6-5*5
p1206
V12
p1207
tp1208
a(V6*6-5*5
p1209
V12
p1210
tp1211
a(g1209
V36
p1212
tp1213
a(g1209
V10
p1214
tp1215
a(g1183
V20
p1216
tp1217
a(V6*6-5*5
p1218
V12
p1219
tp1220
a(V6*6-5*5
p1221
V12
p1222
tp1223
a(V6*6-5*5
p1224
V12
p1225
tp1226
a(g1224
V6
p1227
tp1228
a(g1224
V12
p1229
tp1230
a(g1224
V10
p1231
tp1232
a(g1224
V12
p1233
tp1234
a(V6*6-5*5
p1235
V30
p1236
tp1237
a(g1235
V36
p1238
tp1239
a(g1235
V6
p1240
tp1241
a(g1235
V12
p1242
tp1243
a(V6*6-5*5
p1244
V24
p1245
tp1246
a(V6*6-5*5
p1247
V6!*2-5!*2
p1248
tp1249
a(V6*6-5*5
p1250
V6+6
p1251
tp1252
a(g1250
V12!/((12-2)!)
p1253
tp1254
a(g1250
V7!/((7-2)!)
p1255
tp1256
a(g1250
V12!/(2!(12-2)!)
p1257
tp1258
a(g1250
V6*6
p1259
tp1260
a(g1250
V12
p1261
tp1262
a(g1250
V10
p1263
tp1264
a(g1250
V6
p1265
tp1266
a(g1250
V10
p1267
tp1268
a(V6*6-5*5
p1269
V12
p1270
tp1271
a(V6*6-5*5
p1272
V12
p1273
tp1274
a(g1272
V6
p1275
tp1276
a(g1272
V7
p1277
tp1278
a(g1272
V5
p1279
tp1280
a(g1272
V1
p1281
tp1282
a(g1272
V2
p1283
tp1284
a(g1272
V24
p1285
tp1286
a(V6*6-5*5
p1287
V30
p1288
tp1289
a(g1287
V26
p1290
tp1291
a(g1287
V6*5
p1292
tp1293
a(g1287
V31
p1294
tp1295
a(V6*6-5*5
p1296
V2/36
p1297
tp1298
a(V6*6-5*5
p1299
V10
p1300
tp1301
a(g1299
V12
p1302
tp1303
a(g1296
V4/36
p1304
tp1305
a(g1299
V25
p1306
tp1307
a(g809
V6
p1308
tp1309
a(g1299
V12
p1310
tp1311
a(g1296
V12/36
p1312
tp1313
a(g1296
V12
p1314
tp1315
a(V6*6-5*5
p1316
V6*1+6*1
p1317
tp1318
a(g614
V5
p1319
tp1320
a(g614
V10
p1321
tp1322
a(g614
V20
p1323
tp1324
a(g614
V24
p1325
tp1326
a(g614
V12
p1327
tp1328
a(g614
V35
p1329
tp1330
a(g614
V12
p1331
tp1332
a(V6*6-5*5
p1333
V6
p1334
tp1335
a(g1333
V12
p1336
tp1337
a(V6*6-5*5
p1338
V6*5
p1339
tp1340
a(g1338
V6
p1341
tp1342
a(g1338
V5
p1343
tp1344
a(g1338
V5*5
p1345
tp1346
a(g1338
V10
p1347
tp1348
a(g1338
V6*6
p1349
tp1350
a(V6*6-5*5
p1351
V12
p1352
tp1353
a(V6*6-5*5
p1354
V12
p1355
tp1356
a(g1354
V6
p1357
tp1358
a(V6*6-5*5
p1359
V12
p1360
tp1361
a(V6*6-5*5
p1362
V6*5
p1363
tp1364
a(V6*6-5*5
p1365
V12
p1366
tp1367
a(V6*6-5*5
p1368
V2
p1369
tp1370
a(g1368
V4
p1371
tp1372
a(g1365
V13
p1373
tp1374
a(g1362
V6
p1375
tp1376
a(g1362
V6*2
p1377
tp1378
a(V6*6-5*5
p1379
V12
p1380
tp1381
a(g1379
V10
p1382
tp1383
a(V6*6-5*5
p1384
V12
p1385
tp1386
a(V6*6-5*5
p1387
V6
p1388
tp1389
a(g1387
V30
p1390
tp1391
a(V6*6-5*5
p1392
V1-(25/36)
p1393
tp1394
a(V6*6-5*5
p1395
V12
p1396
tp1397
a(g1387
V5
p1398
tp1399
a(V6*6-5*5
p1400
V6*2
p1401
tp1402
a(g1387
V6
p1403
tp1404
a(g1029
V5
p1405
tp1406
a(g1029
V14
p1407
tp1408
a(g1387
V10
p1409
tp1410
a(g1387
V12
p1411
tp1412
a(g1387
V30
p1413
tp1414
a(g1387
V12
p1415
tp1416
a(g1029
V36
p1417
tp1418
a(g1387
V15
p1419
tp1420
a(V6*6-5*5
p1421
V3
p1422
tp1423
a(g1421
V2
p1424
tp1425
a(g1421
V1
p1426
tp1427
a(g1421
V3/36
p1428
tp1429
a(g1421
V2/36
p1430
tp1431
a(g1421
V1/36
p1432
tp1433
a(g1421
V2/6
p1434
tp1435
a(g1421
V11/36
p1436
tp1437
a(g1421
V3
p1438
tp1439
a(g1421
V36
p1440
tp1441
a(g1421
V4
p1442
tp1443
a(g1421
VINF
p1444
tp1445
a(V6*6-5*5
p1446
V6*5*4*3*2
p1447
tp1448
a(g1446
V12
p1449
tp1450
a(g1446
V13
p1451
tp1452
a(V6*6-5*5
p1453
V12
p1454
tp1455
a(V6*6-5*5
p1456
V36
p1457
tp1458
a(g1456
V12
p1459
tp1460
a(V6*6-5*5
p1461
V30
p1462
tp1463
a(g1461
V12
p1464
tp1465
a(V6*6-5*5
p1466
V12
p1467
tp1468
a(V6*6-5*5
p1469
V5*6
p1470
tp1471
a(V6*6-5*5
p1472
V6
p1473
tp1474
a(V6*6-5*5
p1475
V12
p1476
tp1477
a(V6*6-5*5
p1478
V12
p1479
tp1480
a(g875
V48
p1481
tp1482
a(g875
V42
p1483
tp1484
a(V6*6-5*5
p1485
V12
p1486
tp1487
a(V6*6-5*5
p1488
V12
p1489
tp1490
a(V6*6-5*5
p1491
V6^2
p1492
tp1493
a(g1491
V12
p1494
tp1495
a(V6*6-5*5
p1496
V2
p1497
tp1498
a(g1496
V2/36
p1499
tp1500
a(g1496
V3
p1501
tp1502
a(g1496
V1
p1503
tp1504
a(g1496
V3/36
p1505
tp1506
a(g1496
V13
p1507
tp1508
a(g1496
V14
p1509
tp1510
a(g1496
V12
p1511
tp1512
a(V6*6-5*5
p1513
V12
p1514
tp1515
a(V6*6-5*5
p1516
V30
p1517
tp1518
a(g1516
V1/36
p1519
tp1520
a(V6*6-5*5
p1521
V3
p1522
tp1523
a(V6*6-5*5
p1524
V2/36
p1525
tp1526
a(g1524
V12
p1527
tp1528
a(g1524
V9
p1529
tp1530
a(g1524
V13
p1531
tp1532
a(V6*6-5*5
p1533
V12
p1534
tp1535
a(V6*6-5*5
p1536
V13
p1537
tp1538
a(V6*6-5*5
p1539
V10
p1540
tp1541
a(g1539
V12
p1542
tp1543
a(g1539
V6
p1544
tp1545
a(V6*6-5*5
p1546
V30
p1547
tp1548
a(g1546
V6
p1549
tp1550
a(g1546
V12
p1551
tp1552
a(V6*6-5*5
p1553
V6*2
p1554
tp1555
a(g1553
V12
p1556
tp1557
a(g1553
V6
p1558
tp1559
a(g1553
V10
p1560
tp1561
a(V6*6-5*5
p1562
V34
p1563
tp1564
a(V6*6-5*5
p1565
V6
p1566
tp1567
a(V6*6-5*5
p1568
V96
p1569
tp1570
a(g1565
V30
p1571
tp1572
a(g1565
V26
p1573
tp1574
a(g1565
V12
p1575
tp1576
a(V6*6-5*5
p1577
V6*1
p1578
tp1579
a(V6*6-5*5
p1580
V12
p1581
tp1582
a(V6*6-5*5
p1583
V12
p1584
tp1585
a(V6*6-5*5
p1586
V6
p1587
tp1588
a(V6*6-5*5
p1589
V12
p1590
tp1591
a(g1589
V6
p1592
tp1593
a(V6*6-5*5
p1594
V12
p1595
tp1596
a(g1594
V6
p1597
tp1598
a(g1594
V12
p1599
tp1600
a(V6*6-5*5
p1601
V12
p1602
tp1603
a(g1601
V10
p1604
tp1605
a(V6*6-5*5
p1606
V12
p1607
tp1608
asS"['R.0']"
p1609
(lp1610
(g357
V36/6
p1611
(lp1612
(S'R.0'
p1613
F36.0
V6*6
p1614
V36
p1615
tp1616
atp1617
a(g623
V6*6*2
p1618
(lp1619
(S'R.0'
p1620
F36.0
V6*6
p1621
V6*6
p1622
tp1623
atp1624
a(g1235
V36/30
p1625
(lp1626
(S'R.0'
p1627
F36.0
V6*6
p1628
V36
p1629
tp1630
atp1631
asS"['R.1']"
p1632
(lp1633
(g483
V1-5^2
p1634
(lp1635
(S'R.1'
p1636
F25.0
V5*5
p1637
V5^2
p1638
tp1639
atp1640
asS"['R.0.1']"
p1641
(lp1642
(g415
V5*6*2
p1643
(lp1644
(S'R.0.1'
p1645
F6.0
g303
g303
tp1646
atp1647
a(g568
V1/6 + 1/6
p1648
(lp1649
(S'R.0.1'
p1650
F6.0
g303
g303
tp1651
atp1652
a(g623
V5*6*2
p1653
(lp1654
(S'R.0.1'
p1655
F6.0
g303
g303
tp1656
atp1657
a(g1469
V5*6+6*5
p1658
(lp1659
(S'R.0.1'
p1660
F6.0
g303
g303
tp1661
atp1662
a(g1577
V2*6*1
p1663
(lp1664
(S'R.0.1'
p1665
F6.0
g303
g303
tp1666
atp1667
a(g1577
V2*6*1
p1668
(lp1669
(S'R.0.1'
p1670
F6.0
g303
g303
tp1671
atp1672
assV2
p1673
g2
(g3
tp1674
Rp1675
g6
(lp1676
(V5*5
p1677
V25/36
p1678
tp1679
a(V5*5
p1680
V68
p1681
tp1682
a(g1680
V34
p1683
tp1684
a(g1680
V30
p1685
tp1686
a(V5*5
p1687
V34
p1688
tp1689
a(g1687
V30
p1690
tp1691
a(g1687
V24
p1692
tp1693
a(g1687
V20
p1694
tp1695
a(g1687
V14
p1696
tp1697
a(V5*5
p1698
V60
p1699
tp1700
a(V5*5
p1701
V5!*5!
p1702
tp1703
a(V5*5
p1704
V50
p1705
tp1706
a(V5*5
p1707
V33/36
p1708
tp1709
a(g1707
V32/36
p1710
tp1711
a(g1707
V23/36
p1712
tp1713
a(g1707
V24/36
p1714
tp1715
a(g1707
V25/36
p1716
tp1717
a(g1707
V(5*5)/(6*6)
p1718
tp1719
a(V5*5
p1720
V12
p1721
tp1722
a(g1720
V11
p1723
tp1724
a(V5*5
p1725
V72
p1726
tp1727
a(V5*5
p1728
V30
p1729
tp1730
a(g1728
V24
p1731
tp1732
a(V5*5
p1733
V33
p1734
tp1735
a(g1733
V 
p1736
tp1737
a(V5*5
p1738
V36(5/6)
p1739
tp1740
a(g1738
V33
p1741
tp1742
a(g1738
V30
p1743
tp1744
a(g1738
V6
p1745
tp1746
a(V5*5
p1747
V50
p1748
tp1749
a(g1725
V30
p1750
tp1751
a(V5*5
p1752
V6*6-2
p1753
tp1754
a(g1752
V6*6-6-6
p1755
tp1756
a(g1752
V6*6-6
p1757
tp1758
a(V5*5
p1759
V69
p1760
tp1761
a(g1759
V63
p1762
tp1763
a(g1759
V33
p1764
tp1765
a(g1759
V30
p1766
tp1767
a(V5*5
p1768
V6!
p1769
tp1770
a(g1768
V36!/2
p1771
tp1772
a(g1768
V34
p1773
tp1774
a(g1768
V35
p1775
tp1776
a(g1768
V30
p1777
tp1778
a(g1768
V36!/((34!)(2))
p1779
tp1780
a(V5*5
p1781
V1
p1782
tp1783
a(V5*5
p1784
V33
p1785
tp1786
a(V5*5
p1787
V24
p1788
tp1789
a(V5*5
p1790
V1/6
p1791
tp1792
a(g1790
V30
p1793
tp1794
a(g1790
V24
p1795
tp1796
a(V5*5
p1797
V19
p1798
tp1799
a(V5*5
p1800
V(5^2)*2
p1801
tp1802
a(g1800
V50
p1803
tp1804
a(V5*5
p1805
V24
p1806
tp1807
a(V5*5
p1808
V5*5*2
p1809
tp1810
a(g1808
V5*5*2
p1811
tp1812
a(V5*5
p1813
V30
p1814
tp1815
a(V5*5
p1816
V36-12
p1817
tp1818
a(g1816
V36-14
p1819
tp1820
a(V5*5
p1821
V50
p1822
tp1823
a(g1821
V11
p1824
tp1825
a(g1821
V12
p1826
tp1827
a(V5*5
p1828
V29
p1829
tp1830
a(g1828
V28
p1831
tp1832
a(g1828
V30
p1833
tp1834
a(g1828
V24
p1835
tp1836
a(g1828
V23
p1837
tp1838
a(V5*5
p1839
V(5*5*2)
p1840
tp1841
a(g1839
V(6*6) - (6*2)
p1842
tp1843
a(V5*5
p1844
V50
p1845
tp1846
a(V5*5
p1847
V34
p1848
tp1849
a(g1847
V24
p1850
tp1851
a(V5*5
p1852
V33
p1853
tp1854
a(g1852
V36-6-6-1
p1855
tp1856
a(V5*5
p1857
V25*2
p1858
tp1859
a(V5*5
p1860
V30
p1861
tp1862
a(V5*5
p1863
V50
p1864
tp1865
a(V5*5
p1866
V34
p1867
tp1868
a(g1866
V33
p1869
tp1870
a(g1866
V30
p1871
tp1872
a(g1866
V31
p1873
tp1874
a(g1866
V32
p1875
tp1876
a(g1866
V33
p1877
tp1878
a(g1866
V34
p1879
tp1880
a(g1866
V35
p1881
tp1882
a(g1866
V24
p1883
tp1884
a(g1866
V20
p1885
tp1886
a(g1866
V21
p1887
tp1888
a(g1866
V22
p1889
tp1890
a(g1866
V23
p1891
tp1892
a(g1866
V26
p1893
tp1894
a(g1866
V27
p1895
tp1896
a(g1866
V28
p1897
tp1898
a(g1866
V29
p1899
tp1900
a(g1866
V23
p1901
tp1902
a(V5*5
p1903
V14400
p1904
tp1905
a(V5*5
p1906
V5!*5!
p1907
tp1908
a(V5*5
p1909
V30
p1910
tp1911
a(g1909
V24
p1912
tp1913
a(V5*5
p1914
V34
p1915
tp1916
a(g1914
V24
p1917
tp1918
a(g1914
V26
p1919
tp1920
a(V5*5
p1921
V50
p1922
tp1923
a(g1921
V10C2
p1924
tp1925
a(V5*5
p1926
V26
p1927
tp1928
a(g1926
V33
p1929
tp1930
a(g1926
V34
p1931
tp1932
a(V5*5
p1933
V24
p1934
tp1935
a(V5*5
p1936
V69
p1937
tp1938
a(V5*5
p1939
V60
p1940
tp1941
a(g1939
V(6*6)-6
p1942
tp1943
a(g1939
V(6*6)-12
p1944
tp1945
a(g1939
V24
p1946
tp1947
a(V5*5
p1948
V25/36
p1949
tp1950
a(V5*5
p1951
V24
p1952
tp1953
a(V5*5
p1954
V34
p1955
tp1956
a(V5*5
p1957
V24
p1958
tp1959
a(V5*5
p1960
V24
p1961
tp1962
a(V5*5
p1963
V33
p1964
tp1965
a(V5*5
p1966
V33
p1967
tp1968
a(V5*5
p1969
V34
p1970
tp1971
a(V5*5
p1972
VC(6,1)
p1973
tp1974
a(g1972
V6!/(1!(6-1)!)
p1975
tp1976
a(g1972
V6! * 2 - 12
p1977
tp1978
a(g1972
V6!/(6-2)!
p1979
tp1980
a(g1972
V6!/(2!(6-2)!)
p1981
tp1982
a(V5*5
p1983
V33
p1984
tp1985
a(V5*5
p1986
V34
p1987
tp1988
a(V5*5
p1989
V36-12
p1990
tp1991
a(V5*5
p1992
V24
p1993
tp1994
a(V5*5
p1995
V24
p1996
tp1997
a(V5*5
p1998
V70
p1999
tp2000
a(g1998
V64
p2001
tp2002
a(V5*5
p2003
V36/25
p2004
tp2005
a(V5*5
p2006
V55
p2007
tp2008
a(V5*5
p2009
V5!*2
p2010
tp2011
a(V5*5
p2012
V24
p2013
tp2014
a(V5*5
p2015
V120
p2016
tp2017
a(g2015
V100
p2018
tp2019
a(V5*5
p2020
V25/36
p2021
tp2022
a(g2006
V24
p2023
tp2024
a(V5*5
p2025
V(6*6)-12
p2026
tp2027
a(V5*5
p2028
V33
p2029
tp2030
a(V5*5
p2031
V24
p2032
tp2033
a(V5*5
p2034
V6
p2035
tp2036
a(g2034
V12
p2037
tp2038
a(g2034
V11
p2039
tp2040
a(g2034
V30
p2041
tp2042
a(g2034
V18
p2043
tp2044
a(g2034
V24
p2045
tp2046
a(V5*5
p2047
V50
p2048
tp2049
a(g2047
V45
p2050
tp2051
a(V5*5
p2052
V24
p2053
tp2054
a(V5*5
p2055
V25/(6*6)
p2056
tp2057
a(V5*5
p2058
V24
p2059
tp2060
a(V5*5
p2061
V34
p2062
tp2063
a(V5*5
p2064
V5!5!
p2065
tp2066
a(g2064
V2(5!)
p2067
tp2068
a(g2064
V240
p2069
tp2070
a(V5*5
p2071
V5*4*3*2*2
p2072
tp2073
a(V5*5
p2074
V24
p2075
tp2076
a(V5*5
p2077
V50
p2078
tp2079
a(V5*5
p2080
V24
p2081
tp2082
a(V5*5
p2083
V24
p2084
tp2085
a(V5*5
p2086
V34
p2087
tp2088
a(g2086
V34/36
p2089
tp2090
a(g2086
V32
p2091
tp2092
a(V5*5
p2093
V24
p2094
tp2095
a(V5*5
p2096
V33
p2097
tp2098
a(g2096
V34
p2099
tp2100
a(V5*5
p2101
V34/36
p2102
tp2103
a(V5*5
p2104
V60
p2105
tp2106
a(g2104
V30
p2107
tp2108
a(V5*5
p2109
V24
p2110
tp2111
a(V5*5
p2112
V24
p2113
tp2114
a(V5*5
p2115
V50
p2116
tp2117
a(V5*5
p2118
V30
p2119
tp2120
a(g2118
V24
p2121
tp2122
a(V5*5
p2123
V50
p2124
tp2125
asS"['R.1']"
p2126
(lp2127
(V5*5
p2128
V2*5*5
p2129
(lp2130
(S'R.1'
p2131
F5.0
V5
p2132
g2132
tp2133
atp2134
ass.