(dp0
V1
p1
ccollections
defaultdict
p2
(c__builtin__
list
p3
tp4
Rp5
S'Nothing'
p6
(lp7
(V4
p8
V16
p9
tp10
a(V4
p11
V134
p12
tp13
a(V4
p14
V13
p15
tp16
a(V4
p17
V16
p18
tp19
a(V4
p20
V1
p21
tp22
a(V4
p23
V4/52
p24
tp25
a(V4
p26
V13
p27
tp28
a(V4
p29
V1
p30
tp31
a(V4
p32
V16
p33
tp34
a(V4
p35
V16
p36
tp37
a(V4
p38
V13
p39
tp40
a(V4
p41
V4/52
p42
tp43
assV2
p44
g2
(g3
tp45
Rp46
g6
(lp47
(V0.0769230769230769
p48
V16/52
p49
tp50
a(V0.0769230769230769
p51
V1/52
p52
tp53
a(V0.0769230769230769
p54
V4/24
p55
tp56
a(V0.0769230769230769
p57
V5/52
p58
tp59
a(V0.0769230769230769
p60
V13/52
p61
tp62
a(V0.0769230769230769
p63
V1/12
p64
tp65
a(V0.0769230769230769
p66
V5/52
p67
tp68
a(V0.0769230769230769
p69
V1/52
p70
tp71
a(V0.0769230769230769
p72
V13/52
p73
tp74
a(V0.0769230769230769
p75
V0.076
p76
tp77
a(V0.0769230769230769
p78
V4/54
p79
tp80
a(V0.0769230769230769
p81
V16/52
p82
tp83
a(V0.0769230769230769
p84
V16/52
p85
tp86
a(V0.0769230769230769
p87
V1/52
p88
tp89
a(V0.0769230769230769
p90
V52/4
p91
tp92
a(V0.0769230769230769
p93
V1/52
p94
tp95
a(V0.0769230769230769
p96
V4!/52/51/50/49
p97
tp98
a(V0.0769230769230769
p99
V1/52
p100
tp101
a(V0.0769230769230769
p102
V13/52
p103
tp104
ass.