(dp0
V1
p1
ccollections
defaultdict
p2
(c__builtin__
list
p3
tp4
Rp5
S'Digits'
p6
(lp7
(V12
p8
V7
p9
S'digit'
p10
tp11
a(V18
p12
V8
p13
g10
tp14
a(V11
p15
V1
p16
g10
tp17
a(V10
p18
V5
p19
g10
tp20
a(V20
p21
V7
p22
g10
tp23
a(g21
V1
p24
g10
tp25
a(V13
p26
V7
p27
g10
tp28
a(V10
p29
V7
p30
g10
tp31
a(V18
p32
V2
p33
g10
tp34
a(V13
p35
V7
p36
g10
tp37
a(V15
p38
V10
p39
g10
tp40
a(V17
p41
V7
p42
g10
tp43
a(V10
p44
V7
p45
g10
tp46
a(V10
p47
V9
p48
g10
tp49
a(V19
p50
V9
p51
g10
tp52
a(V18
p53
V12
p54
g10
tp55
a(V19
p56
V11
p57
g10
tp58
a(V19
p59
V6
p60
g10
tp61
a(V10
p62
V6
p63
g10
tp64
a(V10
p65
V7
p66
g10
tp67
a(V11
p68
V6
p69
g10
tp70
a(V11
p71
V5
p72
g10
tp73
a(g71
V1
p74
g10
tp75
a(V10
p76
V5
p77
g10
tp78
a(g76
V5
p79
g10
tp80
a(g76
V4
p81
g10
tp82
a(g76
V6
p83
g10
tp84
a(g76
V5
p85
g10
tp86
a(V19
p87
V12
p88
g10
tp89
a(V14
p90
V12
p91
g10
tp92
a(g90
V2
p93
g10
tp94
a(g90
V11
p95
g10
tp96
a(V14
p97
V10
p98
g10
tp99
a(V18
p100
V17
p101
g10
tp102
a(g100
V17
p103
g10
tp104
a(g100
V1
p105
g10
tp106
a(V16
p107
V9
p108
g10
tp109
a(g107
V9
p110
g10
tp111
a(V12
p112
V9
p113
g10
tp114
a(V16
p115
V10
p116
g10
tp117
a(V13
p118
V11
p119
g10
tp120
a(g118
V10
p121
g10
tp122
a(V19
p123
V14
p124
g10
tp125
a(V18
p126
V16
p127
g10
tp128
a(V18
p129
V15
p130
g10
tp131
a(V10
p132
V7
p133
g10
tp134
a(V12
p135
V8
p136
g10
tp137
a(V20
p138
V15
p139
g10
tp140
a(V15
p141
V11
p142
g10
tp143
a(V20
p144
V11
p145
g10
tp146
a(V12
p147
V10
p148
g10
tp149
a(V11
p150
V5
p151
g10
tp152
a(V20
p153
V16
p154
g10
tp155
a(V18
p156
V15
p157
g10
tp158
a(V14
p159
V11
p160
g10
tp161
a(V16
p162
V9
p163
g10
tp164
a(g162
V1
p165
g10
tp166
a(V11
p167
V5
p168
g10
tp169
a(g167
V5
p170
g10
tp171
a(g167
V1
p172
g10
tp173
a(V20
p174
V10
p175
g10
tp176
a(V19
p177
V5
p178
g10
tp179
a(V14
p180
V3
p181
g10
tp182
a(g180
V12
p183
g10
tp184
a(V11
p185
V9
p186
g10
tp187
a(V13
p188
V9
p189
g10
tp190
a(V14
p191
V13
p192
g10
tp193
a(V18
p194
V10
p195
g10
tp196
a(V19
p197
V14
p198
g10
tp199
a(V10
p200
V8
p201
g10
tp202
a(V17
p203
V9
p204
g10
tp205
a(V15
p206
V12
p207
g10
tp208
a(V16
p209
V1
p210
g10
tp211
a(V12
p212
V1
p213
g10
tp214
a(V18
p215
V7
p216
g10
tp217
a(g215
V6
p218
g10
tp219
a(V11
p220
V7
p221
g10
tp222
a(V10
p223
V8
p224
g10
tp225
a(g223
V7
p226
g10
tp227
a(V16
p228
V13
p229
g10
tp230
a(V20
p231
V17
p232
g10
tp233
a(g231
V1
p234
g10
tp235
a(V16
p236
V9
p237
g10
tp238
asS'Nothing'
p239
(lp240
(g21
V.35
p241
(lp242
S'X'
p243
aF0.35
a(lp244
I0
aI3
aaS'R'
p245
aVsrl006
p246
tp247
a(g29
V1,2,3,4,5,6,7
p248
(F1234567.0
tp249
Vanvan
p250
tp251
a(g38
V1,2,3,4,5,6,7,8,9,10
p252
(F12345678910.0
tp253
Vkquong
p254
tp255
a(g76
V1,2,3,4,5
p256
(F12345.0
tp257
Vacs008
p258
tp259
a(V14
p260
V1,2,3,4,5,6,7,8
p261
(F12345678.0
tp262
Vl5han
p263
tp264
a(g107
V1,2,3,4,5,6,7,8,9
p265
(F123456789.0
tp266
Vjag028
p267
tp268
a(g135
V1,2,3,4,5,6,7,8
p269
(F12345678.0
tp270
Vytc012
p271
tp272
a(g150
V1,2,3,4,5
p273
(F12345.0
tp274
Vahh002
p275
tp276
a(g167
V1,2,3,4,5
p277
(F12345.0
tp278
Vxweng
p279
tp280
a(g185
V1,2,3,4,5,6,7,8,9
p281
(F123456789.0
tp282
Vc3chung
p283
tp284
a(g200
V1,2,3,4,5,6,7,8,9,10
p285
(F12345678910.0
tp286
Vjic212
p287
tp288
a(g200
V1,2,3,4,5,6,7,8
p289
(F12345678.0
tp290
Vjic212
p291
tp292
a(V11
p293
V1,2,3,4,5,6,7,8,9,10,11
p294
(F1234567891011.0
tp295
Vaordookh
p296
tp297
a(g228
V1,2,3,4,5,6,7,8,9,10,11,12,13
p298
(F1.2345678910111212e+16
tp299
Vjhp077
p300
tp301
asS'Nothing_clusters'
p302
g2
(g3
tp303
Rp304
S"['R.1']"
p305
(lp306
(V5/19
p307
Vpthsu
p308
tp309
a(V7/19
p310
Vtpmach
p311
tp312
a(V17/19
p313
Vspw006
p314
tp315
a(V14/19
p316
Vzhw110
p317
tp318
a(V7/10
p319
Vanvan
p320
tp321
a(V8/10
p322
Vdtea
p323
tp324
a(V12/14
p325
Vk5law
p326
tp327
a(V13/14
p328
Vjjm019
p329
tp330
a(V(9)/(16)
p331
Vjag028
p332
tp333
a(V12/16
p334
Vkew060
p335
tp336
a(V9/16
p337
Vjag028
p338
tp339
a(V1/18
p340
Vmnrahman
p341
tp342
a(V7/18
p343
Vbpandayk
p344
tp345
asS"['R.0']"
p346
(lp347
(g319
g320
tp348
a(g310
g311
tp349
a(g343
g344
tp350
a(g325
g326
tp351
a(g334
g335
tp352
a(g331
g332
tp353
a(V9/12
p354
Vhmnaing
p355
tp356
a(g337
g338
tp357
a(V1/9
p358
Vjag028
p359
tp360
a(g340
g341
tp361
asS"['R']"
p362
(lp363
(g325
g326
tp364
a(V6/7
p365
Vk5law
p366
tp367
a(g331
g332
tp368
a(g337
g338
tp369
a(g354
g355
tp370
a(g334
g335
tp371
asssV3
p372
g2
(g3
tp373
Rp374
S"['R.1']"
p375
(lp376
(V5/12
p377
V7/12
p378
(lp379
(S'R.1'
p380
F12.0
V12
p381
V12
p382
tp383
atp384
a(V5/14
p385
V1/14
p386
(lp387
(S'R.1'
p388
F14.0
V14
p389
V14
p390
tp391
atp392
a(V15/15
p393
V1/15
p394
(lp395
(S'R.1'
p396
F15.0
V15
p397
V15
p398
tp399
atp400
a(V7/20
p401
V6/20
p402
(lp403
(S'R.1'
p404
F20.0
V20
p405
V20
p406
tp407
atp408
a(V10/20
p409
V1/20
p410
(lp411
(S'R.1'
p412
F20.0
V20
p413
V20
p414
tp415
atp416
a(V5/15
p417
V1/15
p418
(lp419
(S'R.1'
p420
F15.0
V15
p421
V15
p422
tp423
atp424
a(V7/17
p425
V1/17
p426
(lp427
(S'R.1'
p428
F17.0
V17
p429
V17
p430
tp431
atp432
a(V6/18
p433
V1/18
p434
(lp435
(S'R.1'
p436
F18.0
V18
p437
V18
p438
tp439
atp440
a(V8/17
p441
V1/17
p442
(lp443
(S'R.1'
p444
F17.0
V17
p445
V17
p446
tp447
atp448
a(V13/13
p449
V1/13
p450
(lp451
(S'R.1'
p452
F13.0
V13
p453
V13
p454
tp455
atp456
a(V11/12
p457
V1/12
p458
(lp459
(S'R.1'
p460
F12.0
V12
p461
V12
p462
tp463
atp464
a(V10/10
p465
V1/10
p466
(lp467
(S'R.1'
p468
F10.0
V10
p469
V10
p470
tp471
atp472
a(V9/12
p473
V1/12
p474
(lp475
(S'R.1'
p476
F12.0
V12
p477
V12
p478
tp479
atp480
a(V12/13
p481
V1/13
p482
(lp483
(S'R.1'
p484
F13.0
V13
p485
V13
p486
tp487
atp488
a(V19/19
p489
V18/19
p490
(lp491
(S'R.1'
p492
F19.0
V19
p493
V19
p494
tp495
atp496
a(V14/19
p497
V1/19
p498
(lp499
(S'R.1'
p500
F19.0
V19
p501
V19
p502
tp503
atp504
a(V14/20
p505
V1/20
p506
(lp507
(S'R.1'
p508
F20.0
V20
p509
V20
p510
tp511
atp512
a(V12/14
p513
V3/14
p514
(lp515
(S'R.1'
p516
F14.0
V14
p517
V14
p518
tp519
atp520
a(V10/12
p521
V1/12
p522
(lp523
(S'R.1'
p524
F12.0
V12
p525
V12
p526
tp527
atp528
a(V18/20
p529
V1/20
p530
(lp531
(S'R.1'
p532
F20.0
V20
p533
V20
p534
tp535
atp536
a(V8/16
p537
V7/16
p538
(lp539
(S'R.1'
p540
F16.0
V16
p541
V16
p542
tp543
atp544
asg239
(lp545
(V13/14
p546
V6/7
p547
(lp548
(lp549
S'/'
p550
aF0.8571428571428571
a(lp551
I0
aI2
aag245
aa(lp552
g243
aF6.0
a(lp553
I0
aI0
aaS'R.0'
p554
aa(lp555
g243
aF7.0
a(lp556
I2
aI2
aaS'R.1'
p557
aaVatorr
p558
tp559
a(V9/12
p560
V2/3
p561
(lp562
(lp563
g550
aF0.6666666666666666
a(lp564
I0
aI2
aag245
aa(lp565
g243
aF2.0
a(lp566
I0
aI0
aaS'R.0'
p567
aa(lp568
g243
aF3.0
a(lp569
I2
aI2
aaS'R.1'
p570
aaVhak014
p571
tp572
a(V16/17
p573
V.94
p574
(lp575
g243
aF0.94
a(lp576
I0
aI3
aag245
aVjew037
p577
tp578
a(g465
V10/(10+9+8+7+6+5+4+3+2+1)
p579
(lp580
(lp581
g550
aF0.18181818181818182
a(lp582
I0
aI24
aag245
aa(lp583
g243
aF10.0
a(lp584
I0
aI1
aaS'R.0'
p585
aa(lp586
(lp587
S'+'
p588
aF55.0
a(lp589
I4
aI23
aaS'R.1'
p590
aa(lp591
(lp592
g588
aF54.0
a(lp593
I4
aI21
aaS'R.1.0'
p594
aa(lp595
(lp596
g588
aF52.0
a(lp597
I4
aI19
aaS'R.1.0.0'
p598
aa(lp599
(lp600
g588
aF49.0
a(lp601
I4
aI17
aaS'R.1.0.0.0'
p602
aa(lp603
(lp604
g588
aF45.0
a(lp605
I4
aI15
aaS'R.1.0.0.0.0'
p606
aa(lp607
(lp608
g588
aF40.0
a(lp609
I4
aI13
aaS'R.1.0.0.0.0.0'
p610
aa(lp611
(lp612
g588
aF34.0
a(lp613
I4
aI11
aaS'R.1.0.0.0.0.0.0'
p614
aa(lp615
(lp616
g588
aF27.0
a(lp617
I4
aI9
aaS'R.1.0.0.0.0.0.0.0'
p618
aa(lp619
(lp620
g588
aF19.0
a(lp621
I4
aI7
aaS'R.1.0.0.0.0.0.0.0.0'
p622
aa(lp623
g243
aF10.0
a(lp624
I4
aI5
aaS'R.1.0.0.0.0.0.0.0.0.0'
p625
aa(lp626
g243
aF9.0
a(lp627
I7
aI7
aaS'R.1.0.0.0.0.0.0.0.0.1'
p628
aaa(lp629
g243
aF8.0
a(lp630
I9
aI9
aaS'R.1.0.0.0.0.0.0.0.1'
p631
aaa(lp632
g243
aF7.0
a(lp633
I11
aI11
aaS'R.1.0.0.0.0.0.0.1'
p634
aaa(lp635
g243
aF6.0
a(lp636
I13
aI13
aaS'R.1.0.0.0.0.0.1'
p637
aaa(lp638
g243
aF5.0
a(lp639
I15
aI15
aaS'R.1.0.0.0.0.1'
p640
aaa(lp641
g243
aF4.0
a(lp642
I17
aI17
aaS'R.1.0.0.0.1'
p643
aaa(lp644
g243
aF3.0
a(lp645
I19
aI19
aaS'R.1.0.0.1'
p646
aaa(lp647
g243
aF2.0
a(lp648
I21
aI21
aaS'R.1.0.1'
p649
aaa(lp650
g243
aF1.0
a(lp651
I23
aI23
aaS'R.1.1'
p652
aaaVmroknich
p653
tp654
asg302
g2
(g3
tp655
Rp656
S"['R.1']"
p657
(lp658
(V1/8
p659
Vvasharma
p660
tp661
a(V18/8
p662
Vmnrahman
p663
tp664
a(V15/8
p665
Vasp025
p666
tp667
a(V(1*10)^8
p668
Vdgunawan
p669
tp670
a(V(1*10) * 8
p671
Vdgunawan
p672
tp673
a(V1/8
p674
Vasp025
p675
tp676
asS"['R.0']"
p677
(lp678
(V1/11
p679
Vjhw015
p680
tp681
a(g659
g660
tp682
a(V1/16
p683
Vaportuga
p684
tp685
a(V1/18
p686
Vj2phung
p687
tp688
a(V1/(17/18)
p689
Vjnatale
p690
tp691
a(V1/17
p692
Vjnatale
p693
tp694
a(V1/2
p695
Vmnrahman
p696
tp697
a(V1/14
p698
Vzhw110
p699
tp700
a(g674
g675
tp701
a(V1/10
p702
Vagarango
p703
tp704
a(V1/11
p705
Vagarango
p706
tp707
asS"['R']"
p708
(lp709
(g679
g680
tp710
a(g705
g706
tp711
a(g659
g660
tp712
a(g674
g675
tp713
a(V0.0625
p714
Vjew037
p715
tp716
a(g683
g684
tp717
a(V3/6
p718
Vwhcombs
p719
tp720
a(g695
g696
tp721
a(g662
g663
tp722
a(V9/4
p723
Vmnrahman
p724
tp725
asS"['R.0.0', 'R.1']"
p726
(lp727
(g668
g669
tp728
a(g671
g672
tp729
assg6
(lp730
(g465
V10
p731
g10
tp732
a(g473
V1
p733
g10
tp734
a(V17/20
p735
V17
p736
g10
tp737
assV2
p738
g2
(g3
tp739
Rp740
g6
(lp741
(V6
p742
V16
p743
g10
tp744
a(g742
V15
p745
g10
tp746
a(V5
p747
V12
p748
g10
tp749
a(V8
p750
V18
p751
g10
tp752
a(V5
p753
V14
p754
g10
tp755
a(V7
p756
V6
p757
g10
tp758
a(V10
p759
V20
p760
g10
tp761
a(V5
p762
V15
p763
g10
tp764
a(V7
p765
V10
p766
g10
tp767
a(V16
p768
V18
p769
g10
tp770
a(g768
V3
p771
g10
tp772
a(V11
p773
V1
p774
g10
tp775
a(V7
p776
V17
p777
g10
tp778
a(V7
p779
V10
p780
g10
tp781
a(V8
p782
V13
p783
g10
tp784
a(V7
p785
V17
p786
g10
tp787
a(V11
p788
V19
p789
g10
tp790
a(V11
p791
V12
p792
g10
tp793
a(V6
p794
V19
p795
g10
tp796
a(V6
p797
V17
p798
g10
tp799
a(V6
p800
V19
p801
g10
tp802
a(V7
p803
V10
p804
g10
tp805
a(V8
p806
V17
p807
g10
tp808
a(V12
p809
V19
p810
g10
tp811
a(V12
p812
V14
p813
g10
tp814
a(g812
V1
p815
g10
tp816
a(g812
V14
p817
g10
tp818
a(V13
p819
V12
p820
g10
tp821
a(V7
p822
V20
p823
g10
tp824
a(V10
p825
V16
p826
g10
tp827
a(V12
p828
V14
p829
g10
tp830
a(V16
p831
V17
p832
g10
tp833
a(V11
p834
V12
p835
g10
tp836
a(V10
p837
V1
p838
g10
tp839
a(V15
p840
V18
p841
g10
tp842
a(V16
p843
V19
p844
g10
tp845
a(V12
p846
V37
p847
g10
tp848
a(V15
p849
V20
p850
g10
tp851
a(V9
p852
V12
p853
g10
tp854
a(g852
V1
p855
g10
tp856
a(V12
p857
V13
p858
g10
tp859
a(V12
p860
V6
p861
g10
tp862
a(g860
V14
p863
g10
tp864
a(V15
p865
V17
p866
g10
tp867
a(V7
p868
V20
p869
g10
tp870
a(V11
p871
V20
p872
g10
tp873
a(V8
p874
V18
p875
g10
tp876
a(g874
V5
p877
g10
tp878
a(g874
V9
p879
g10
tp880
a(V14
p881
V20
p882
g10
tp883
a(V17
p884
V20
p885
g10
tp886
a(V8
p887
V10
p888
g10
tp889
a(V12
p890
V14
p891
g10
tp892
a(V8
p893
V15
p894
g10
tp895
a(V9
p896
V13
p897
g10
tp898
a(V10
p899
V12
p900
g10
tp901
a(V7
p902
V11
p903
g10
tp904
a(V12
p905
V15
p906
g10
tp907
a(V18
p908
V20
p909
g10
tp910
a(V11
p911
V10
p912
g10
tp913
a(V5
p914
V16
p915
g10
tp916
a(g914
V16
p917
g10
tp918
a(V8
p919
V7
p920
g10
tp921
a(V8
p922
V10
p923
g10
tp924
asg239
(lp925
(g765
V1,2,3,4,5,6,7,8,9,10
p926
(F12345678910.0
tp927
Vanvan
p928
tp929
a(g765
V10/10
p930
(lp931
(lp932
g550
aF1.0
a(lp933
I0
aI4
aag245
aa(lp934
g243
aF10.0
a(lp935
I0
aI1
aaS'R.0'
p936
aa(lp937
g243
aF10.0
a(lp938
I3
aI4
aaS'R.1'
p939
aaVanvan
p940
tp941
a(V9
p942
V9/19
p943
(lp944
(lp945
g550
aF0.47368421052631576
a(lp946
I0
aI3
aag245
aa(lp947
g243
aF9.0
a(lp948
I0
aI0
aaS'R.0'
p949
aa(lp950
g243
aF19.0
a(lp951
I2
aI3
aaS'R.1'
p952
aaVtcn013
p953
tp954
a(g837
V10+9+8+7+6+5+4+3+2+1
p955
(lp956
(lp957
g588
aF55.0
a(lp958
I0
aI19
aag245
aa(lp959
(lp960
g588
aF54.0
a(lp961
I0
aI17
aaS'R.0'
p962
aa(lp963
(lp964
g588
aF52.0
a(lp965
I0
aI15
aaS'R.0.0'
p966
aa(lp967
(lp968
g588
aF49.0
a(lp969
I0
aI13
aaS'R.0.0.0'
p970
aa(lp971
(lp972
g588
aF45.0
a(lp973
I0
aI11
aaS'R.0.0.0.0'
p974
aa(lp975
(lp976
g588
aF40.0
a(lp977
I0
aI9
aaS'R.0.0.0.0.0'
p978
aa(lp979
(lp980
g588
aF34.0
a(lp981
I0
aI7
aaS'R.0.0.0.0.0.0'
p982
aa(lp983
(lp984
g588
aF27.0
a(lp985
I0
aI5
aaS'R.0.0.0.0.0.0.0'
p986
aa(lp987
(lp988
g588
aF19.0
a(lp989
I0
aI3
aaS'R.0.0.0.0.0.0.0.0'
p990
aa(lp991
g243
aF10.0
a(lp992
I0
aI1
aaS'R.0.0.0.0.0.0.0.0.0'
p993
aa(lp994
g243
aF9.0
a(lp995
I3
aI3
aaS'R.0.0.0.0.0.0.0.0.1'
p996
aaa(lp997
g243
aF8.0
a(lp998
I5
aI5
aaS'R.0.0.0.0.0.0.0.1'
p999
aaa(lp1000
g243
aF7.0
a(lp1001
I7
aI7
aaS'R.0.0.0.0.0.0.1'
p1002
aaa(lp1003
g243
aF6.0
a(lp1004
I9
aI9
aaS'R.0.0.0.0.0.1'
p1005
aaa(lp1006
g243
aF5.0
a(lp1007
I11
aI11
aaS'R.0.0.0.0.1'
p1008
aaa(lp1009
g243
aF4.0
a(lp1010
I13
aI13
aaS'R.0.0.0.1'
p1011
aaa(lp1012
g243
aF3.0
a(lp1013
I15
aI15
aaS'R.0.0.1'
p1014
aaa(lp1015
g243
aF2.0
a(lp1016
I17
aI17
aaS'R.0.1'
p1017
aaa(lp1018
g243
aF1.0
a(lp1019
I19
aI19
aaS'R.1'
p1020
aaVmroknich
p1021
tp1022
asg302
g2
(g3
tp1023
Rp1024
S"['R.0']"
p1025
(lp1026
(V1/17
p1027
Vcstringh
p1028
tp1029
a(V1/12
p1030
Vhmnaing
p1031
tp1032
a(V1/16
p1033
Vakhmelni
p1034
tp1035
a(V1/17
p1036
Vseleon
p1037
tp1038
asS"['R']"
p1039
(lp1040
(g1027
g1028
tp1041
a(g1036
g1037
tp1042
asss.