(dp0
V1
p1
ccollections
defaultdict
p2
(c__builtin__
list
p3
tp4
Rp5
S'Nothing'
p6
(lp7
V6*5*4*3*2
p8
aV26*25*24*23*22
p9
aV26!/((5!)(21!))
p10
aV230230
p11
aV26*26*26
p12
aV(26*25*24*23*22*21)/(20!)
p13
aV(26*25*24*23*22*21)
p14
aV(26*4)P4
p15
aV(26*4)!/7!
p16
aV(26! / (6! * (20!) )
p17
aV((26! / (6! * (20!) )
p18
aV(26! / (6! * (20!)) )
p19
aV26^3/(3!*2!)
p20
aV4!
p21
aV26! / 22!
p22
aV6^6
p23
aV5!
p24
aV26!/(26-6)!
p25
aV4^26
p26
aV15600
p27
aV2600
p28
aV26!/3!
p29
aV26!/(26-3)!
p30
aV26!/20!
p31
aV26!/(20!)
p32
aV26!/(4!(26-4)!)
p33
aV26!/((26-4)!)
p34
aV7,893,600
p35
aV7893600
p36
aV65,780
p37
aV65780
p38
aV26!/21!
p39
aV26!/(26-4)!
p40
aV26!/4!(26-4)!
p41
aV26!/(4!(26-4)!)
p42
aV46656
p43
aV26P4
p44
aV358800
p45
aV14950
p46
aV3^26
p47
aV26!/(26-4)!
p48
aV6!
p49
aV26!/22!
p50
aV26*26*26
p51
aV26!/20!
p52
aV26!/(6!*20!)
p53
aV5^26
p54
aV6^26
p55
aV230230
p56
aV65780
p57
aV7893600
p58
aV165765600
p59
aV7893600
p60
aV1.49*10^18
p61
aV26!/5!
p62
aV26!/(26-5)!
p63
aV5!/(21)!
p64
aV(26!)/(5!)(26-5)!
p65
aV5!/(26!21!)
p66
aV26!/((26-5)!5!)
p67
aV((26-5)!/21!)
p68
aV26!/(20!6!)
p69
aV26!/20!
p70
aV5*(26^5)
p71
aV15600
p72
aV26!/(4!(22!))
p73
aV((26*25*24*23*22*21)/(6*5*4*3*2))/23^6
p74
aV((26*25*24*23*22*21)/(6*5*4*3*2))/23!
p75
aV((26*25*24*23*22*21)/(6*5*4*3*2))
p76
aV26!/(6!(20!))
p77
aV26!/(6!(26-6)!)
p78
aV26!/6!
p79
aV26!/(6!*(26-6)!)
p80
aVC(26,5)*1
p81
aV65780
p82
aV26!/(22!4!)
p83
aV3^26
p84
aV24!/19!
p85
aV26!/21!
p86
aV7893600
p87
aV(26!)/(6!(26-6)!)
p88
aV(26!)/((26-6)!)
p89
aV(26!)/(6!(26-6)!)
p90
aV2600
p91
aV512
p92
aV26!/(4!*22!)
p93
aV26*25*24*23
p94
aV7893600
p95
aV(26!/(22!))/4!
p96
aV(26!/(22!))
p97
aV26*25*24*23
p98
aV6!/26!
p99
aV230230
p100
aV17576
p101
aV1881376
p102
aV11881376
p103
aV47525504
p104
aV59406880
p105
aV14950
p106
aV358800
p107
aV7893600
p108
aV26!/(3!(26-3)!)
p109
aV26!/((26-3)!)
p110
aV26!/((26-3)!2
p111
aV26!/((26-2)!)
p112
aV26!/(2!(26-2)!)
p113
aV5^26
p114
aV26!/22!
p115
aV4^26
p116
aV6^26-6^25
p117
aV15600
p118
aV(26*25*24)
p119
aV(26*25*24)/(3*2*1)
p120
aV26!*26!
p121
aV26!*26!*26!*26!*26!*26!
p122
aV26!*25!*24!*23!*22!*21!
p123
aV4^26
p124
aV65780
p125
aV26*25*24*23
p126
aV358800
p127
aV14950
p128
aV26*25*24*23*22*21
p129
aV165765600
p130
aV26*26*26*26*26*26*
p131
aV26!25!24!23!22!
p132
aV26!/5!
p133
aV65780
p134
aV6831791200
p135
aV358800
p136
aV14950
p137
aV165175600
p138
aV26!/(26-3)!
p139
aV26!/(3!(26-3)!)
p140
aV26*25*24
p141
aV26^3*3!
p142
asS"['R.0']"
p143
(lp144
V26^3
p145
aV26^5
p146
aV26^2
p147
aV26*26
p148
aV26*25
p149
aV26*5!
p150
aV26^5
p151
asS"['R.1']"
p152
(lp153
VP((26*4),4)
p154
aV6^4
p155
aV(26!/5!)*5
p156
asS"['R.0', 'R.1']"
p157
(lp158
V(26)(6)
p159
aV26*6
p160
aVP(26,4)
p161
aVP(26,3)
p162
aVP(26,4)
p163
aVC(26,5)
p164
aVP(26,4)
p165
aVC(26,4)
p166
aV26*4
p167
aV26*6
p168
aV26*5
p169
aVP(26, 6)
p170
assV3
p171
g2
(g3
tp172
Rp173
S"['R.0.0']"
p174
(lp175
V26**4 *5
p176
aV26!/((4!)(22!))
p177
aV26!/((4!))
p178
aV26!/(22!*4!)
p179
aV26!/(21!*5!)
p180
aV(26^4)/5
p181
aV(26^4)*5
p182
aV(26^4)*5
p183
aV26! / (4! * 22!)
p184
aV26^4 * 5
p185
aV26! / (5! * 21!)
p186
aV(26^5)*6
p187
aV26^5*6
p188
aV26^5*5
p189
aV26**4-1
p190
aV26**4*5
p191
aV(26^3)/(4!)
p192
aV26*25*25
p193
aV26* 25* 24
p194
aV26^2*3
p195
aV26! / 22!
p196
aV(26^5)(6!)
p197
aV(26^5)(6)
p198
aV(26!)/(5!)
p199
aV26^2*3
p200
aV(26!/(24!*2!))
p201
aV(26^3)(4)
p202
aV(26^3)(4)-4
p203
aV26! / 23!
p204
aV(26^3)-24
p205
aV(26^3) * 4
p206
aV(26^3)(4)-24
p207
aV26^2*25
p208
aV26^2/3
p209
aV26^2/6
p210
aV(26*2)(26^2)
p211
aV26 * 26 * 3
p212
aV26! / (23!3!)
p213
aV26 * 26 * 3
p214
aV26^2*3
p215
aV26!/(20! 6!)
p216
aV26!/(26-3)!
p217
aV26^4+5
p218
aV[26^5]*6
p219
aV(26^5)*6
p220
aV26!/22!
p221
aV1 * 26 * 26 * 6
p222
aV1 * 26 * 26 * 3
p223
aV(26^2) * 6
p224
aV(26^2) * 3
p225
aV(26^2) * 3
p226
aV(26^2) ^ 3
p227
aV(26^2) * 3
p228
aV(26^2) * 6
p229
aV26*26*(3!)
p230
aV[(26^3)(4)]
p231
aV[(26^3)(4)]
p232
aV26*25*25
p233
aV26!/(26-3)!
p234
aV26!/(26-3)!
p235
aV(26^4)*5
p236
aV(26^5)*6
p237
aV1*26*26*3
p238
aV26^5*6
p239
aV26^5*5
p240
aV26^5*6
p241
aV(26!)/(4!*(22!))
p242
aV(26!)/(1!*(23!))
p243
aV26^4 + 1
p244
aV26!/(4!(26-4)!)
p245
aV26^4*5
p246
aV26!/(26-4)!
p247
aV26^5*6
p248
aV26^5-6!
p249
aV26^5-6
p250
aV26^5/6
p251
aV26^5/6!
p252
aV26^5/26!
p253
aV26^5-324000
p254
aV26^5/324000
p255
aV26*26*25
p256
aV26!/21!
p257
aV26^5*5
p258
aV26^5*6
p259
aV26^4*((5!)/(4!(5-4)!))
p260
aV26^4*((5!)/((5-4)!))
p261
aV26^4*5
p262
aV(26^5)^6
p263
aV(26^5)*6
p264
aV(26^5)+6
p265
aV26^4 * 5
p266
aV26^3*25
p267
aV26^4/5
p268
aV26^5+25
p269
aV(26^4)*5
p270
aV[26^3]*3
p271
aV[26^3]*4
p272
aV(26^4)*4
p273
aV(26^4)*5
p274
aV(26^4)*6
p275
aV(26^4)5
p276
aV(26^4)(5!)
p277
aV(26^4)/(5!)
p278
aV26!/(5!21!)
p279
aV(26^5)*25
p280
aV(26^5)25
p281
aV26*25^3*4
p282
aV(26^3)*4
p283
aV26*25*25
p284
aV26*26*6
p285
aV26*26*25
p286
aV26*26*1
p287
aV(26^2)3
p288
aV(26^2)3 - 2
p289
aV(26^2)3 - 3
p290
aV(26^2)3 - 8
p291
aV(26^2)3 - 7
p292
aV(26^2)3 - 6
p293
aV(26^2)3 - 5
p294
aV(26^2)3 - 4
p295
aV(1*26*26)*3
p296
aV(26*26)*3
p297
aV(26*26)^3
p298
aV(26^5)*6
p299
aV26*25*25
p300
aV(26^2)*3
p301
aV(26!)/((5!)*(21!))
p302
aV26*26*3
p303
aV1 * 26 * 26 * (3!/2!*1!)
p304
aV1 * 26 * 1 * (3!/2!*1!)  + 1 * 26 * 25 * (3!/2!*1!)
p305
aV1 * 26 * 1 * (3!/(2!*1!)) + 1 * 26 * 25 * (3!/(2!*1!))
p306
aV26^5 * 25
p307
aV26!/23!
p308
aV(26^5) * 6
p309
aV26*25*25
p310
aV26^5*6
p311
aV26*25*24
p312
aV26*26*25
p313
aV26*26*3!
p314
aV26*26*3
p315
aV26^2*3
p316
aV26^2*25
p317
aV26^3 * 4
p318
aV(26^4)*5
p319
aV26^5 - 25
p320
aV26^5*25
p321
aV26^4 * 4
p322
aV26^4 * 5
p323
aV26**3*4
p324
aV26**3*3
p325
aV(26*26)*3
p326
aV26^2 * 3
p327
aV26^2*3!
p328
aV26^2*2!
p329
aV26^2 +1
p330
aV26^2*3
p331
asS"['R.1.0']"
p332
(lp333
V26!/((25!))
p334
aV4!/((25!))
p335
aV5*25^5
p336
aV6*26*25^5
p337
aV26!/(26-1)!
p338
aV26*25^3
p339
aV((25^3) * 5) + ((25^2)*3) + (25*5)
p340
aV26*25^2
p341
aV5*(25^4)
p342
aV5(25^5)
p343
aV6(25^5)
p344
aV4*(25^3)
p345
aV26*25^3
p346
aV26^4+25^3*26+25^2*26^2+25*26^3
p347
aV3 * 25^2
p348
aV3*26*25^2
p349
aV3*25^2
p350
aV3*25^3
p351
aV26!/[25!]
p352
aV5*(25^5)
p353
aV26*25^3
p354
aV3*25^2
p355
aV26*26 + 26*25 + 25*24
p356
aV5*25^4
p357
aV26*25^3
p358
aV6*25^5
p359
asS"['R.1']"
p360
(lp361
V(26*25*25*25)*25^4
p362
aV1-25**3
p363
aV1-25^5
p364
aV1 - 25^4
p365
aV1-25^5
p366
aV1/(25^4)
p367
aV1 - 25**3
p368
aV6*25^6
p369
aV6(25^6)
p370
aV6-(25^6)
p371
aV1-25^4
p372
aV1-25^6
p373
aV1 - (25^6)
p374
aV1-(25^4)
p375
aV1-25^6
p376
aV1-25^5
p377
aV1-(25^4)
p378
aV5*25^5
p379
aV1-25^5
p380
aV1-25^4
p381
aV1-(25^5)
p382
aV1-25*25*25
p383
aV1-(25^6)
p384
asS"['R.1.1']"
p385
(lp386
V(26*25*25*25)*26^4
p387
aV(26^6-25^6)/26^6
p388
aV(26^6-25^6)/(26^6)
p389
aV1/(25^4)*(26^4)
p390
aV1/[(25^4)/(26^4)] * (26^4)
p391
aV(1-[1/[(25^4)/(26^4)]])[26^4]
p392
aV1 - [(26^2) * 3]
p393
aV1 - [(25^2) * 3]
p394
aV(26*25*25)^3 * (26*25*26)^3 * 26^3
p395
aV(1*25*25)^3 * (26*25*1)^3 * 1^3
p396
aV(1*25*25)^3 * (1*25*1)^3 * 1^3
p397
aV(1*25*25)^3 + (1*25*1)^3 + 1^3
p398
aV32/(26^5)
p399
aV(26*25*25*25)/26^4
p400
asS"['R.0.0', 'R.1']"
p401
(lp402
V26^6-25^5
p403
aV26^4-25^5
p404
aV26^6-25^5
p405
aV(26^6)-(25^5)
p406
asS"['R.0']"
p407
(lp408
V26^5-2
p409
aV26^4/((1!)*(25!))
p410
aV(26^5)*5
p411
aV26^4/(4!)
p412
aV(26^4)*4
p413
aV26^5-24^5
p414
aV26^5-5
p415
aV(26^6)/(6! * 5! * 4! * 3! * 2! )
p416
aV(26^6)-(26^5)
p417
aV26^5 - 1
p418
aV(26^6)-(6^2)
p419
aV(26^5)-2115751
p420
aV(26^5)-(26^5-25^5)
p421
aV26^5 - 1
p422
aV26^5 - 2
p423
aV26^6-6
p424
aV26^6/6
p425
aV26^6/26!
p426
aV26^6-324000
p427
aV26^5-26^4
p428
aV(26^6)^6
p429
aV(26^6)/5
p430
aV26^4 - 4!
p431
aV26^6-21^6
p432
aV(26^5)*5
p433
aV[26^4]/25
p434
aV(26*26*26) - 3
p435
aV(26*26*26) - 2
p436
aV(26*26*26) - 1
p437
aV26^5-25
p438
aV(26^3)-1
p439
aV26^5 - 26^5
p440
aV(26^6)-(26^5)
p441
aV26^4 / 4
p442
aV26^6 - 26^1
p443
aV26^6 - 25^1
p444
aV26^6 - 25
p445
aV26^5 -1
p446
aV26^5 - 26^4
p447
asg6
(lp448
V3*26^2
p449
aV25^2 + 25 + 25 + 1
p450
aV26*26*26*26*26*1
p451
aV1*26*26*26*26*26
p452
aV26**4
p453
aV25*26
p454
aV25*26^4
p455
aV5*25*26^4
p456
aV26*25*25*25
p457
aV26*25*26*25
p458
aV20
p459
aV4
p460
aV26^4
p461
aV26!/((1!)*(25!))
p462
aV(26!/((1!)*(25!)))/26!
p463
aV11
p464
aV10
p465
aV13
p466
aV16
p467
aV26*25*25*25
p468
aV26*26*25*26
p469
aV26*26*25*25
p470
aV14426
p471
aV25*25*25+1
p472
aV(25*25*25*25)+4
p473
aV16276
p474
aV26*26*26*26*25
p475
aV26^4
p476
aV26*26*26*26*5
p477
aV26^4
p478
aV4!
p479
aV(25**4) * 26
p480
aV(25**4) * 26 * 5
p481
aV26**4
p482
aV5 * 26**4
p483
aV26^4
p484
aV5*26^4
p485
aV5 * 26! / (4! * 22!)
p486
aV1-(1/(25**5))
p487
aV25^6
p488
aV25^5
p489
aV5*26^5
p490
aV6*26^5
p491
aV25*25*26*3
p492
aV25*25*26+25*26*26+26*26*26
p493
aV26^5
p494
aV14426
p495
aV14427
p496
aV25^5
p497
aV25^5*6
p498
aV26*26
p499
aV26*4
p500
aV26**4
p501
aV26**4
p502
aV26^3
p503
aV26*26*26
p504
aV25^4/(26^4)
p505
aV4*((26^3) + (26^2) + 26))
p506
aV4*((26^3) + (26^2) + 26)
p507
aV3(26*26*25)
p508
aV(25*4)P3
p509
aVP((25*4),3)
p510
aV26^5
p511
aV26^6
p512
aV25^2*3 + 25*2 + 1
p513
aV14376
p514
aV16276
p515
aV16275
p516
aV2300
p517
aV3* 26**2
p518
aV26^3 - 3(25^2) - 3(25) - 1
p519
aV26^5
p520
aV6!/5!
p521
aV25^5
p522
aV6*26^5
p523
aV4*26*26*26
p524
aV(26)(5)
p525
aV(26)^5
p526
aV(25^6)/(26^6)
p527
aV26^2
p528
aV26^2*3 - 2
p529
aV26^2*3 - 3
p530
aV(26!/(24!*2!)
p531
aV(26!/(24!*2!)) * 3
p532
aV3*26^2
p533
aV3*26^2 - 3
p534
aV(25)(26)(26)
p535
aV(25)(26)(26)(26)
p536
aV(26)(26)(26)
p537
aVP(26,3)
p538
aV(25^3)(4)
p539
aV26^3
p540
aV25*26*26*26*4
p541
aV[(26^3)(4)]-24
p542
aV26^5*26
p543
aV25^5*26
p544
aV25^6/26^6
p545
aV[(26^3)(4)]-27
p546
aV1 + 6*25^5 + 6!/2! * 25^4 + 6!/3!*25^3 + 6!/4!*25^2 +6!/5! *25
p547
aV1 + 6!*25^5 + 6!/2! * 25^4 + 6!/3!*25^3 + 6!/4!*25^2 +6!/5! *25
p548
aV(26^6)/6!/5!/4!/3!/2!
p549
aV26*2
p550
aV26^2
p551
aV6*25^5 + 6*5*25^4 + 6 * 5 * 4 * 25^3 + 6*5*4*3 *25^2 + 6* 5 * 4 * 3 *2*25 + 1
p552
aV26^4
p553
aVC(5,1)*26^5
p554
aV[5!/(4!)]*26^5
p555
aV26 * 26
p556
aVC(26, 3)
p557
aV25^4
p558
aV26*26*26*26
p559
aV4*26*26*26*26
p560
aV26 * 26 * 3 - 1 -3
p561
aV26 * 26 * 3 - 1
p562
aV26 * 26 * 3 + 2
p563
aV26 * 26 * 3 + 1
p564
aV26 * 26 * 3 - 2
p565
aV26 * 26 * 3 + 1 - 6
p566
aV26 * 26 - (26 * 3) + 1
p567
aV11881376
p568
aV71288256
p569
aV3*26^2
p570
aV5*(26^4)
p571
aV2284880
p572
aV25^6/(25!)
p573
aV(25^6)+ 1
p574
aV6!
p575
aV6!/5!
p576
aV25^2*3
p577
aV26^2
p578
aV3*26^2
p579
aV3 * (1 * 26 * 26) - 3
p580
aV3 * (1 * 26 * 26) - 2
p581
aV3 * (1 * 26 * 26) - 1
p582
aV3 * (1 * 26 * 26) - 9
p583
aV26^3
p584
aV25^3
p585
aV1*26*26
p586
aV3*26*26
p587
aV(26*26)(26*26)(26*26)
p588
aV8/17576
p589
aV(17576-8)/17576
p590
aV2783
p591
aV2782
p592
aV(26*26)+(26*26)+(26*26)+(26*26)+(3*26)+1
p593
aV(25*25)+(25*25)+(25*25)+(25*25)+(3*25)+1
p594
aV(25*25)+(25*25)+(25*25)+(25*25)+(3*25)
p595
aV25*26*26
p596
aV3(25*26*26)
p597
aV2(25*26*26)
p598
aV3*(1*26*26)
p599
aV2*(26*26)
p600
aV3*(26*26)
p601
aV(26*26)
p602
aV2(26*26)
p603
aV4(26*26)
p604
aV3(26*26)
p605
aV(25^3) * 3
p606
aV((25^3) * 5) + ((25^2)*3) + (25*5) + 1
p607
aV26^4
p608
aV1-6,375,600
p609
aV1-6375600
p610
aV26^4
p611
aV{1-[1/[(25^4)/(26^4)]][26^4]
p612
aV{1-[1/[(25^4)/(26^4)]}[26^4]
p613
aV(1-[(25^4)/(26^4)]])[26^4]
p614
aV25^5
p615
aV[25^5]*6
p616
aV[26^5
p617
aV26^5
p618
aV26^4
p619
aV26^3
p620
aV26^2
p621
aV25^2
p622
aV1 * 26 * 26
p623
aV26^3
p624
aV3 * 26^3
p625
aV26^6
p626
aV1 - [26^6]
p627
aV1 - [(25^2) * 6]
p628
aV4*24*24*24*24
p629
aV4*1*24*24*24
p630
aV(24*24*24)(24*24*24)(24*24*24)(24*24*24)
p631
aV4*(26*26*26)
p632
aV676
p633
aV672
p634
aV680
p635
aV780
p636
aV2704
p637
aV2028
p638
aV2026
p639
aV5*26^4
p640
aV3^26-3^25
p641
aV[(26^3)(4)]-6
p642
aV(26^3)
p643
aV(25^3)(4)+11
p644
aV456976
p645
aV26^3
p646
aV4*26^3
p647
aV25^4
p648
aV26^4
p649
aV4*(26^4)
p650
aV5*(26^4)
p651
aV5!*(26^4)
p652
aV4*(26^4)
p653
aV26^3
p654
aV456976
p655
aV702
p656
aV726
p657
aV675
p658
aV650
p659
aV776
p660
aV778
p661
aV26^3
p662
aV2284880
p663
aV25!/19!
p664
aV25^5
p665
aV25^6
p666
aV26^5
p667
aV456981
p668
aV1-(9765625/11881376)
p669
aV6*26^5
p670
aV5^26 - 1
p671
aV6*26^6
p672
aV26^5
p673
aV17576
p674
aV26^4
p675
aV25^4
p676
aV26^5
p677
aV26^4
p678
aV(5!/(4!))26^4
p679
aV5*26^4
p680
aV26^5
p681
aV25^5
p682
aV5(26^5)
p683
aV6(26^5)
p684
aV6-(26^6)
p685
aV6(26^6)
p686
aV26^6
p687
aV26*26*26
p688
aV26*26*26*4
p689
aV26*26*26
p690
aV26^3
p691
aV4*(26^3)
p692
aV(26!)/(1!*(25!))
p693
aV(26!)/(1!*(25!)) * 26^3
p694
aV25^3
p695
aV4*(26^3) - 4
p696
aV4*(26^3) - 4!
p697
aV4*(26^3) - 4*4!
p698
aV4*26*26*26
p699
aV26*26*26
p700
aV(26^3)
p701
aV26^2
p702
aV3*26^2
p703
aV3*25^2+4
p704
aV26*26
p705
aV3(26*26)
p706
aV3(1*26*26)
p707
aV1*26*26
p708
aV10156250
p709
aV50781250
p710
aV3(1*26*26)-3
p711
aV3(1*26*26)-7
p712
aV3(1*26*26)-8
p713
aV26^5
p714
aV25^5 +((26^5/2))
p715
aV25^5 +((26^5/26))
p716
aV26^4
p717
aV25*26**2
p718
aV26**2
p719
aV(26^3*4)+(26^3*C(4,2))+(26*C(4,3))+1
p720
aV3*26**2
p721
aV175865
p722
aV4!/21!
p723
aV281321
p724
aV25^4 + 1
p725
aV1*26^4
p726
aV3 * 26*25*25
p727
aV(26*25*25)^3
p728
aV25^5 + 1
p729
aV(26*25*25 * 26*25*26 * 26)^3
p730
aV26^4+26^4+26^4+26^4+26^4
p731
aV1*25^3*
p732
aV26^5
p733
aV26^5
p734
aV6*(26^5)
p735
aV5*(26^5)
p736
aV6*26^6/26!
p737
aV26^5
p738
aV6*26^5-6!
p739
aV6*26^5-6
p740
aV324000
p741
aV26^2
p742
aV26^5
p743
aV26^6
p744
aV(5!/((1!)(5-1)!))26^4+(5!/((2!)(5-2)!))26^4+(5!/((3!)(5-3)!))26^4+(5!/((4!)(5-4)!))26^4
p745
aV(5!/((1!)(5-1)!))26^4+(5!/((2!)(5-2)!))26^3+(5!/((3!)(5-3)!))26^2+(5!/((4!)(5-4)!))26^1
p746
aV26^4
p747
aV(5!/((1!)(5-1)!))26^4+(5!/((2!)(5-2)!))26^3+(5!/((3!)(5-3)!))26^2+(5!/((4!)(5-4)!))26^1+1
p748
aV26^2
p749
aV3*(26^2)
p750
aV26^5
p751
aV26*26*26*4
p752
aV26*26*26
p753
aV26*26*26*4
p754
aV(26^5)+(26^4)+(26^3)+(26^2)+(26^1)+(26^0)
p755
aV7893600
p756
aV26^5
p757
aV65780
p758
aV25^5
p759
aV25^5 + 25^4 +25^3 + 25^2 + 25^1 + 21^0
p760
aV26^4
p761
aV26^6 - 25^6 - 5*25^6
p762
aV26^6 - 25^6 - 5*25^5
p763
aV26^6 - 25^6 - 6*25^6
p764
aV26^6 - 25^6 - 6*25^5
p765
aV650
p766
aV676
p767
aV17576
p768
aV45697600
p769
aV325
p770
aV 253906250
p771
aV456975
p772
aV 11881376
p773
aV26^3
p774
aV25*25*25*4
p775
aV26
p776
aVC(25,4)
p777
aVC(25,4)
p778
aV25^3
p779
aV26^3
p780
aV25^4
p781
aV25^9
p782
aV25^9
p783
aV1+26^5
p784
aV25^2
p785
aV26^2
p786
aV(26^3)
p787
aV(26^3) * pie
p788
aV:'(
p789
aV25^4
p790
aV26^4
p791
aV5*26^4
p792
aV5!*26^4
p793
aV6^26-6^25
p794
aV6^26-1^25
p795
aV6^26-5^25
p796
aV3*25*26^2
p797
aV3*26^2
p798
aV3(26^2)
p799
aV26^4
p800
aV23!/19!
p801
aV25!/21!
p802
aV26^4
p803
aV382601
p804
aV3*25^2+1+3*24^2
p805
aV3*25^2+1+3*24
p806
aV26^4
p807
aV3*26^3
p808
aV303600
p809
aV11424400
p810
aV456976
p811
aV1827904
p812
aV456976
p813
aV26^4
p814
aV5*(26^4)
p815
aV(25^5)*5
p816
aV[25^4]/[26^4]
p817
aV1-[[25^4]/[26^4]]
p818
aV1-[[26^4]/[25^4]]
p819
aV676
p820
aV2028
p821
aV17550
p822
aV5*(26^5)
p823
aV6*(26^5)
p824
aV6*(26^5)-1
p825
aV6*(26^5)-6
p826
aV1*26*26*26
p827
aV26^4
p828
aV(25^4)5
p829
aV32(26^4)
p830
aV(26^5)+(26^4)(5)+(10)(26^3)+(10)(26^2)+(5)(26)+1
p831
aV26*26*26*26*26*25
p832
aV26**5
p833
aV(26!/(5!21!))6
p834
aV(26!/(5!21!))5
p835
aV26*26*26*26*26
p836
aV26*26*26*26*25
p837
aV26*26*26*26*26*25
p838
aV26^6
p839
aV(25^5)*26
p840
aV26*
p841
aV25^6
p842
aV27^6
p843
aV25^5
p844
aV26^5
p845
aV(25^5)26
p846
aV26^5
p847
aV25^5
p848
aV4*26^3
p849
aV26^3
p850
aV1*26*26*26
p851
aV26*26*26*4
p852
aV(26^4)*4*6*4
p853
aV(26^4)/4*6*4
p854
aV16874
p855
aV26^2
p856
aV3*26*26
p857
aV25^2
p858
aV25*25*3
p859
aV25*25*6
p860
aV26^3
p861
aV(26^2-4)3
p862
aV4*26^3
p863
aV(2*(4*25^3))*(6*25^2)+1
p864
aV(4*25^3)*(6*25^2)*(4*25)+1
p865
aV1-((26^4)-(25^4))
p866
aV(25*25)+(2*25)+(3)
p867
aV(25*25*3)+(2*25*3)+(3)
p868
aV1*26*26
p869
aV26^3
p870
aV26*26
p871
aV(26*26)^3 - 3
p872
aV(26*26)^3 - 6
p873
aV(26*26)^3 - 5
p874
aV(26*26)^3 - 4
p875
aV(26*26)^3 - 7
p876
aV(26*26)^3 - 8
p877
aV(26!/(5!21!))6
p878
aV26*26*26+26*26*26+26*26*26+26*26*26
p879
aV17576
p880
aV70304
p881
aV15625
p882
aV5*26^4
p883
aV26^4
p884
aV5*((104!)/(4!*100!)
p885
aV5*((104!)/(4!*100!))
p886
aV5*(26^4)
p887
aV5+(26^4)
p888
aV26^4
p889
aV11881371
p890
aV308915770
p891
aV(25^4)*5*4*3*2
p892
aV26*26*26*25
p893
aV26*26*26
p894
aV26*26*26*4
p895
aV2600
p896
aV26*26
p897
aV3*26*26
p898
aV5!*26^4
p899
aV26^4
p900
aV26^2
p901
aV(26^2)*3-2
p902
aV(26^2)*3-3
p903
aV(26^2)*3-1
p904
aV(26^3)*4 - 4
p905
aV(26^3)*4 - 1
p906
aV26^4
p907
aV26^4
p908
aV5*(26^4)
p909
aV4*(26^4)
p910
aV26*26
p911
aV1 * 26 * 1 * (3!/(2!*1!)) +  1 * 26 * 25 * (3!/(2!*1!)) +  1 * 1 * 26 * (3!/(2!*1!))) +  1 * 1 * 1 * (3!/(2!*1!))
p912
aV1 * 26 * 1 * (3!/(2!*1!)) +  1 * 26 * 25 * (3!/(2!*1!)) +  1 * 1 * 26 * (3!/(2!*1!)) +  1 * 1 * 1 * (3!/(2!*1!))
p913
aV1 * 25 * 1 * (3!/(2!*1!)) +  1 * 25 * 24 * (3!/(2!*1!)) +  1 * 1 * 25 * (3!/(2!*1!)) +  1 * 1 * 1 * (3!/(2!*1!))
p914
aV1*25*25
p915
aV1*25*25 * (3!/(2!*1!))
p916
aV25^5 * 26
p917
aV26^6
p918
aV26^5
p919
aV4^26
p920
aV26^4
p921
aVP(26,3)
p922
aVC(26,3)
p923
aV3^26
p924
aV26^3
p925
aV4*26^3
p926
aV4*26!/23!
p927
aV4!*26^3
p928
aV4*26^3
p929
aV1-[(25^4)/(26^4)]
p930
aV26*25*25*25*25*25
p931
aV26*25*25*25*25
p932
aV6*(26^5)
p933
aV(25^4)+1
p934
aV26*25*25*25
p935
aV(26!26!26!26!)/26^3
p936
aV(4*26)-1
p937
aV(4*25)+1
p938
aV25*26^4
p939
aV1*26^4
p940
aV1+26^4
p941
aV26^4+1+26^4
p942
aV4*25*25*25
p943
aV4*(26^3)
p944
aV4*(26^3) + 4*(26^2) + 4*(26) + 1
p945
aV4*(26^3) + 6*(26^2) + 4*(26) + 1
p946
aV26^(4)
p947
aV26^(4) + 26^(3) + 26^(2) + 26 + 1
p948
aV(26^4)(5)+(10)(26^3)+(10)(26^2)+(5)(26)+1
p949
aV6*25^5+26*6
p950
aV25*26*26
p951
aV25*26*24
p952
aV3
p953
aV26*26*26
p954
aV(25^3)*(3)+(25^2)*(6)+(25*3)+1
p955
aV25^4
p956
aV25*26*26
p957
aV26*26
p958
aV26*26*26
p959
aV26*26*26*25
p960
aV26*26*26*4
p961
aV26^2
p962
aV4*26*C(4,1)
p963
aV4*26*4
p964
aV4*26*4!
p965
aV12650
p966
aV26^4
p967
aV26^3
p968
aV25^3
p969
aV4*26^4
p970
aV(25^4) * 5
p971
aV(26^4)
p972
aV(26^4)
p973
aV1/26
p974
aV25^4
p975
aV26^5
p976
aV17576
p977
aV17580
p978
aV5*26^4
p979
aV5*26*25*24*23
p980
aV5(26^4)
p981
aV26^4
p982
aV4*1*26^3
p983
aV26**3
p984
aV2284880
p985
aV65780 - 53130
p986
aV26**3
p987
aV25**4/26**4
p988
aV15600
p989
aV2600
p990
aV17576
p991
aV52728
p992
aV70304
p993
aV70298
p994
aV2028
p995
aV244140625 * 6
p996
aV6*(7893600)
p997
aV15625/17576
p998
aV26
p999
aV26^3
p1000
aV4*26^3
p1001
aV1-(15625/17576)
p1002
aV26*26
p1003
aV1
p1004
aV676*3
p1005
aV676*3 - 2
p1006
aV2026
p1007
aV2025
p1008
aV16250
p1009
aV1-(15625/17576)
p1010
aV1-(17576/15625)
p1011
aV1951/17576
p1012
aV26^2
p1013
aV26^2 * 3 - 2
p1014
aV26^2 * 3 - 2 - 1 -1 - 1
p1015
aV17575
p1016
aV25*24*3
p1017
aV26^2 + 26^2 + 26^2 - 1 - 1 - 26 - 26 - 26
p1018
aV2028
p1019
asS"['R.0', 'R.1.0']"
p1020
(lp1021
V26^5-25^4
p1022
aV26^6-25^5
p1023
aV(26^6)-(25^5)
p1024
aV26^6-25^5
p1025
aV26^5 - 25^4
p1026
asS"['R.0.0', 'R.1.0']"
p1027
(lp1028
V26*5-25*5
p1029
aVP(26,6) - P(25,6)
p1030
assV2
p1031
g2
(g3
tp1032
Rp1033
g6
(lp1034
V4!
p1035
aV25!/((5!)(20!))
p1036
aV25*25*25
p1037
aV(25*4)P4
p1038
aV25! / 21!
p1039
aV26^5
p1040
aV26^4
p1041
aV2*26^4
p1042
aV25!/(19! 6!)
p1043
aV25!/(4!(25-4)!)
p1044
aV25!/((25-4)!)
p1045
aV6,375,600
p1046
aV6375600
p1047
aV25!/20!
p1048
aV308915770
p1049
aV3*26**3
p1050
aV25*3*26**3
p1051
aV25*3*25**3
p1052
aV25*4*25**3
p1053
aV3^25
p1054
aV25!/(25-4)!
p1055
aV25*25*25
p1056
aV25!/19!
p1057
aV5^25
p1058
aV26^4-4*26^3
p1059
aV26^3-(26C3)
p1060
aV26^3-(26choose3)
p1061
aV26^3-(2600)
p1062
aV26^3-25^3
p1063
aV25!/(25-5)!
p1064
aV5!/20!
p1065
aV25!/(5!(20!))
p1066
aV25!/19!
p1067
aV13800
p1068
aV26^4 - 4!
p1069
aV3^25
p1070
aV23!/18!
p1071
aV25!/20!
p1072
aV6375600
p1073
aV(26^1)*(25^6)
p1074
aV9765625
p1075
aV5^25
p1076
aV25!/21!
p1077
aV4^25
p1078
aV26*25*24
p1079
aV53130
p1080
aV25*24*23*22*21*20
p1081
aV53130
p1082
aV303600
p1083
aV12650
p1084
aV17576/15625
p1085
aV26^2*25
p1086
aV26^2*25*3!
p1087
asS"['R.1']"
p1088
(lp1089
VP((25*4),4)
p1090
aV24^5
p1091
asS"['R.0', 'R.1']"
p1092
(lp1093
V(25)(6)
p1094
aVP(25,4)
p1095
aVC(25,5)
p1096
aVC(25,5)
p1097
aVP(25,4)
p1098
aVC(25,4)
p1099
ass.