(dp0
V1
p1
ccollections
defaultdict
p2
(c__builtin__
list
p3
tp4
Rp5
S"[('R.1', 2.0, u'2', u'2')]"
p6
(lp7
V2
p8
aV11/2
p9
aVC(6,2)
p10
aVC(9,2)
p11
asS"[('R.0', 20.0, u'5*4', u'5*4')]"
p12
(lp13
V5*4
p14
aV5*4
p15
aV5*4
p16
aV5*4
p17
aV5*4
p18
aV5*4
p19
aV5*4
p20
aV5*4
p21
aV5*4
p22
aV5*4
p23
aV5*4
p24
aV5*4
p25
aV5*4*3
p26
aV5*4
p27
aV5*4
p28
aV5*4
p29
aV5*4
p30
aV5*4
p31
aV5*4
p32
aV5*4
p33
aV5*4
p34
aV5*4
p35
aV5*4
p36
aV5*4
p37
aV5*4*3
p38
aV5*4
p39
aV5*4
p40
aV5*4
p41
aV5*4
p42
aV5*4
p43
aV5*4-5
p44
aV5*4
p45
aV5*4
p46
aV5*4
p47
aV5*4
p48
aV5*4
p49
aV5*4
p50
aV5*4
p51
aV5*4
p52
aV5*4
p53
aV5*4
p54
aV5*4
p55
aV5*4
p56
aV5*4
p57
aV5*4 - 5
p58
asS"[('R', 10.0, u'5*4/2', u'2 * 5')]"
p59
(lp60
V2 * 5 * 4
p61
asS"[('R.0', 20.0, u'5*4', u'5!/6')]"
p62
(lp63
V5!/6
p64
asS"[('R.0.0', 5.0, u'5', u'5'), ('R.0.1', 4.0, u'4', u'2!(5-3)!'), ('R.1', 2.0, u'2', u'2!')]"
p65
(lp66
V5!/(2!(5-3)!)
p67
aV5!/(2!(5-3)!)
p68
asS"[('R.0.0', 5.0, u'5', u'5'), ('R.0.1', 4.0, u'4', u'4')]"
p69
(lp70
V5! * 4!
p71
aV5 * 4!
p72
aV5!(4!)
p73
aV5!*4!
p74
asS"[('R.0', 20.0, u'5*4', u'20')]"
p75
(lp76
V20
p77
aV20
p78
aV20
p79
aV20
p80
aV20
p81
aV20
p82
aV20
p83
aV20
p84
aV20
p85
aV20
p86
aV20
p87
aV20
p88
aV20
p89
aV20
p90
aV20
p91
aV20
p92
aV20
p93
aV20
p94
aV20
p95
aV20
p96
aV20
p97
aV20
p98
aV20
p99
aV20
p100
aV20
p101
aV20
p102
aV20
p103
aV20
p104
aV20
p105
aV20
p106
aV20
p107
aV20
p108
aV20
p109
aV20
p110
aV20
p111
aV20
p112
aV20
p113
aV20
p114
aV20
p115
aV20/3
p116
aV20
p117
aV20
p118
aV20
p119
aV20
p120
aV20
p121
aV20
p122
aV20
p123
aV20
p124
aV20
p125
aV20
p126
aV20
p127
aV20
p128
aV20
p129
aV20
p130
aV20
p131
aV20
p132
aV20
p133
aV20
p134
aV20
p135
aV20
p136
aV20
p137
aV20
p138
aV20
p139
aV20
p140
aV20
p141
aV20
p142
aV20
p143
aV20
p144
aV20
p145
aV20
p146
aV20
p147
aV20
p148
aV20
p149
aV20
p150
aV20
p151
aV20
p152
aV20
p153
aV20
p154
aV20
p155
aV20
p156
aV20
p157
aV20
p158
aV20
p159
aV20
p160
aV20
p161
aV20
p162
aV20
p163
aV20
p164
aV20
p165
aV20
p166
aV20
p167
aV20
p168
aV20
p169
aV20
p170
aV20
p171
aV20
p172
aV20
p173
aV20
p174
aV20
p175
aV20
p176
aV20
p177
aV20
p178
aV20
p179
aV20
p180
aV20
p181
aV20
p182
aV20
p183
aV20
p184
asS"[('R.0.0', 5.0, u'5', u'5'), ('R.0.1', 4.0, u'4', u'2!*(5-3)!'), ('R.1', 2.0, u'2', u'2!')]"
p185
(lp186
V5!/(2!*(5-3)!)
p187
asS"[('R.0', 20.0, u'5*4', u'5!/3!')]"
p188
(lp189
V5!/3!
p190
aV5!/3!
p191
aV5!/3!
p192
aV5!/3!
p193
aV5!/3!
p194
aV5!/3!
p195
aV5!/3!
p196
aV5!/3!
p197
aV5!/3!
p198
asS"[('R.0.1', 4.0, u'4', u'4')]"
p199
(lp200
V4!
p201
aV4*3
p202
aV4
p203
aV4*3
p204
aV4!
p205
aV4!
p206
asS"[('R.0', 20.0, u'5*4', u'5 * 4')]"
p207
(lp208
V5 * 4
p209
aV5 * 4
p210
aV5 * 4 
p211
aV5 * 4
p212
aV5 * 4
p213
aV5 * 4
p214
aV5 * 4
p215
asS"[('R.0.0', 5.0, u'5', u'5!/4!'), ('R.0.1', 4.0, u'4', u'4')]"
p216
(lp217
V5!/4!
p218
asS"[('R.0', 20.0, u'5*4', u'5! / 3!')]"
p219
(lp220
V5! / 3!
p221
asS"[('R.0', 20.0, u'5*4', u'(5!)/(3!)'), ('R.1', 2.0, u'2', u'2!')]"
p222
(lp223
V(5!)/(3!)(2!)
p224
asS"[('R.0', 20.0, u'5*4', u'5*4'), ('R.1', 2.0, u'2', u'2')]"
p225
(lp226
V5*4*2
p227
aV5*4*2
p228
aV5*4*2
p229
aV5*4*2
p230
aV5*4*2
p231
aV5*4*2-5
p232
aV5*4*2
p233
aV5*4*2
p234
asS"[('R.0.0', 5.0, u'5', u'5'), ('R.0.1', 4.0, u'4', u'4'), ('R.1', 2.0, u'2', u'2')]"
p235
(lp236
V5+4+3+2+1
p237
aV5+4+3+2
p238
aV5 + 4 + 3 + 2 +1
p239
aV5 + 4 + 3 + 2
p240
asS"[('R.0.0', 5.0, u'5', u'5')]"
p241
(lp242
V5!
p243
aV5!
p244
aV5*5
p245
aV5!
p246
aV5 * 5
p247
aV5!
p248
aV5!
p249
aV5*5
p250
aV5*5
p251
aV5*5
p252
aV5!
p253
aV5*5
p254
aV5*5
p255
aV(5!)/(5!*3!)
p256
aV5*5
p257
aV5!
p258
aV5*5
p259
aV5
p260
aV5!
p261
aV5
p262
aV5!
p263
aV5
p264
aV5
p265
aV5!
p266
aV5*5
p267
aV5!
p268
aV5!
p269
aV5*5
p270
aV5*5
p271
aV5!
p272
aV5!
p273
aV5*5
p274
aV5*5
p275
aV5!
p276
aV5*5
p277
aV5*3
p278
aV5 * 5
p279
aV(54 * 53 * 52 * 51 * 50 * 49) / 5!
p280
aV5!5!
p281
aV5!
p282
asS"[('R.0', 20.0, u'5*4', u'P(5,2)'), ('R.1', 2.0, u'2', u'2')]"
p283
(lp284
VP(5,2)
p285
aVP(5,2)
p286
asS"[('R.0.0', 5.0, u'5', u'C(5,1)')]"
p287
(lp288
VC(5,1)
p289
aVC(5,1)
p290
asS'Nothing'
p291
(lp292
V25
p293
aV12
p294
aV51*50*49*48*47*46
p295
aV50*49*48*47*46*45
p296
aV25
p297
aV19
p298
aV9
p299
aV25
p300
aV16
p301
aV25
p302
aV40
p303
aV21
p304
aV30
p305
aV25
p306
aV25
p307
aV2880
p308
aV360
p309
aV25
p310
aV50
p311
aV15890700
p312
aV15
p313
aV11
p314
aV40
p315
aV19
p316
aV40
p317
aV25
p318
aV54*53*52*51*50*49
p319
aV25
p320
aV16
p321
aV21
p322
aV40
p323
aV40
p324
aV400
p325
aV80
p326
aV30
p327
aV25
p328
aV15
p329
aV25`
p330
aV25
p331
aV25
p332
aV40
p333
aV25
p334
aV40
p335
aV25
p336
aV15
p337
aV25
p338
aV25
p339
aV2C5
p340
aV5C2
p341
aV40
p342
aV25
p343
aV25
p344
aV40
p345
aV25
p346
aV15
p347
aV(25)!
p348
aV25
p349
aV25
p350
aV25
p351
aV21
p352
aV19
p353
aV25827165
p354
aV24
p355
aV120
p356
aV240
p357
aV(52!)/(46!)
p358
aV(52!)/((46!)(6!))
p359
aV30
p360
aV40
p361
aV5C2
p362
aV25
p363
aV50
p364
aV5025
p365
aV25
p366
aV25
p367
aV1
p368
aV3
p369
aV6
p370
aV7
p371
aV8
p372
aV9
p373
aV15
p374
aV25
p375
aV125
p376
aV25
p377
aV25
p378
aV25
p379
aV50
p380
aV40
p381
aV30
p382
aV40
p383
aV19
p384
aV25
p385
aV50
p386
aV39
p387
aV25
p388
aV9
p389
aV50!/(6!44!)
p390
aV120
p391
aV25
p392
aV120
p393
aV3125
p394
aV625
p395
aV25827165
p396
aV25
p397
aV25
p398
aV5C2
p399
aV40
p400
aV25
p401
aV50
p402
aV40
p403
aV15
p404
aV18
p405
aV15
p406
aV25
p407
aV24
p408
aV23
p409
aV40
p410
aV25
p411
aV120
p412
aV5!/(2!(5-2!)
p413
aV25/12
p414
aV25
p415
aV25
p416
aV25
p417
aV40
p418
aV39
p419
aV24
p420
aV25
p421
aV25
p422
aV40
p423
aV25
p424
aV48*47*46*45*44*43
p425
aV52*51*50*49*48*47*46
p426
aV52*51*50*49*48*47
p427
aV25
p428
aV16
p429
aV12
p430
aV14
p431
aV25
p432
aV50+49+48+47+46+45
p433
aV60^6
p434
aV50*49*48*47*46*45
p435
aV25
p436
aV22
p437
aV21
p438
aV12
p439
aV16
p440
aV5C2
p441
aV(5!)/((2!(5-2)!)
p442
aV25
p443
aV53*52*51*50*49*48
p444
aV25
p445
aV16
p446
aV25
p447
aV16
p448
aV25
p449
aV25
p450
aV25
p451
aV25
p452
aV40
p453
aV40
p454
aV50
p455
aV60
p456
aV24
p457
aV40
p458
aV25
p459
aV40
p460
aV53*52*51*50*49*48
p461
aV53^6
p462
aV22957480
p463
aV25
p464
aV16
p465
aV25
p466
aV45
p467
aV5C2
p468
aV25
p469
aV18009460
p470
aV120
p471
aV25
p472
aV40
p473
aV3
p474
aV25
p475
aV60
p476
aV25
p477
aV25
p478
aV25
p479
aV25
p480
aV5 choose 2
p481
aV15
p482
aV25
p483
aV15
p484
aV25
p485
aV15
p486
aV40
p487
aV25
p488
aV19
p489
aV18
p490
aV21
p491
asS"[('R.0', 20.0, u'5*4', u'25 - 5')]"
p492
(lp493
V25 - 5
p494
asS"[('R.0.0', 5.0, u'5', u'5!/(5-1)!'), ('R.0.1', 4.0, u'4', u'5-1')]"
p495
(lp496
V5!/(5-1)!
p497
asS"[('R.0', 20.0, u'5*4', u'(5!)/(5-2)!'), ('R.1', 2.0, u'2', u'2')]"
p498
(lp499
V(5!)/(5-2)!
p500
asS"[('R', 10.0, u'5*4/2', u'2*5')]"
p501
(lp502
V2*5*4
p503
asS"[('R.0', 20.0, u'5*4', u'5*5-5')]"
p504
(lp505
V5*5-5
p506
asS"[('R.0.1', 4.0, u'4', u'4'), ('R.1', 2.0, u'2', u'2')]"
p507
(lp508
VP(4,2)
p509
asS"[('R.0', 20.0, u'5*4', u'5!/(5-2)!'), ('R.1', 2.0, u'2', u'2')]"
p510
(lp511
V5!/(5-2)!
p512
aV5!/(5-2)!
p513
aV5!/(5-2)!
p514
aV5!/(5-2)!
p515
aV5!/(5-2)!
p516
asS"[('R.0.0', 5.0, u'5', u'5'), ('R.1', 2.0, u'2', u'2')]"
p517
(lp518
V5^2/2
p519
aV5^2
p520
aV5*5*2
p521
aV5!*2
p522
aV5*5/2
p523
aV2^5
p524
aV5^2
p525
aV5^2
p526
aV5*5/2
p527
asS"[('R.1', 2.0, u'2', u'2!')]"
p528
(lp529
V25/2!
p530
asS"[('R.0.0', 5.0, u'5', u'P(5,4)'), ('R.0.1', 4.0, u'4', u'4')]"
p531
(lp532
VP(5,4)
p533
asS"[('R.0', 20.0, u'5*4', u'5!/(2!(5-2!))'), ('R.1', 2.0, u'2', u'2!')]"
p534
(lp535
V5!/(2!(5-2!))
p536
asS"[('R.0', 20.0, u'5*4', u'(5!)/(3!)')]"
p537
(lp538
V(5!)/(3!)
p539
aV(5!)/(3!)
p540
asS"[('R.0', 20.0, u'5*4', u'4*5')]"
p541
(lp542
V4*5
p543
asS"[('R.0', 20.0, u'5*4', u'5!/(3!)')]"
p544
(lp545
V5!/(3!)
p546
aV5!/(3!)
p547
asS"[('R.0', 20.0, u'5*4', u'5!/[(5-2)!]'), ('R.1', 2.0, u'2', u'2')]"
p548
(lp549
V5!/[(5-2)!]
p550
asS"[('R.0.0', 5.0, u'5', u'5'), ('R.1', 2.0, u'2', u'(5-3)!')]"
p551
(lp552
V5!/(5-3)!
p553
asS"[('R', 10.0, u'5*4/2', u'10')]"
p554
(lp555
V10*9
p556
aVC(10,2)
p557
asS"[('R.0.0', 5.0, u'5', u'5'), ('R.1', 2.0, u'2', u'2!')]"
p558
(lp559
V5!/2!*3!
p560
aV5!/2!
p561
aV(5)^2/(2!)
p562
aV(5!)/(2!)
p563
aV5*5/2!
p564
aV5!/2!
p565
aV5!/2!
p566
aV(5!)/(2!)
p567
aV5!/(2!(5!-2!))
p568
aV5!/2!
p569
aV5!/2!
p570
asS"[('R.0.0', 5.0, u'5', u'C(5,4)'), ('R.0.1', 4.0, u'4', u'4')]"
p571
(lp572
VC(5,4)
p573
assV2
p574
g2
(g3
tp575
Rp576
S"[('R.0.0.0.0.0.1.0', 50.0, u'50', u'50'), ('R.0.1', 45.0, u'50-5', u'45')]"
p577
(lp578
V50!-45!
p579
asS"[('R.0.0.0.0.0.1', 50.0, u'51-1', u'50'), ('R.0.0.0.0.1', 49.0, u'51-2', u'49'), ('R.0.0.0.1', 48.0, u'51-3', u'48'), ('R.0.0.1', 47.0, u'51-4', u'47'), ('R.0.1', 46.0, u'51-5', u'46')]"
p580
(lp581
V50*49*48*47*46*45
p582
aV50*49*48*47*46*45
p583
asS"[('R.0', 12966811200.0, u'51*(51-1)*(51-2)*(51-3)*(51-4)*(51-5)', u'51! / (51-6)!'), ('R.1.0.0.0.0', 6.0, u'6', u'6')]"
p584
(lp585
V51! / (51-6)!
p586
asS"[('R.0', 14658134400.0, u'52*(52-1)*(52-2)*(52-3)*(52-4)*(52-5)', u'52 * 51 * 50 * 49 * 48 * 47')]"
p587
(lp588
V52 * 51 * 50 * 49 * 48 * 47 * 46
p589
asS"[('R.0', 14658134400.0, u'52*(52-1)*(52-2)*(52-3)*(52-4)*(52-5)', u'52!/(52-6)!'), ('R.1.0.0.0.0', 6.0, u'6', u'6')]"
p590
(lp591
V52!/(52-6)!
p592
aV(52!/(52-6)!)*6
p593
aV52!/(52-6)!
p594
aV52!/(52-6)!
p595
asS"[('R.0.0.0.0.0.1.0', 49.0, u'49', u'49'), ('R.0.0.0.0.0.1.1', 1.0, u'1', u'(49!)/(49!-6!)'), ('R.1', 720.0, u'6*5*4*3*2', u'6!')]"
p596
(lp597
V(49!)/(49!-6!)
p598
asS"[('R.0', 10068347520.0, u'49*(49-1)*(49-2)*(49-3)*(49-4)*(49-5)', u'49!/43!')]"
p599
(lp600
V49!/43!
p601
aV49!/43!
p602
asS"[('R.0', 18595558800.0, u'54*(54-1)*(54-2)*(54-3)*(54-4)*(54-5)', u'1.8595558E10')]"
p603
(lp604
V1.8595558E10
p605
asS"[('R.0', 8835488640.0, u'48*(48-1)*(48-2)*(48-3)*(48-4)*(48-5)', u'48*47*46*45*44*43'), ('R.1.0.0.0.0', 6.0, u'6', u'6')]"
p606
(lp607
V48*47*46*45*44*43/6
p608
aV48*47*46*45*44*43/6
p609
aV(48*47*46*45*44*43*42)/6
p610
aV(48*47*46*45*44*43)/6
p611
asS"[('R.0', 12966811200.0, u'51*(51-1)*(51-2)*(51-3)*(51-4)*(51-5)', u'(51!)/(51-6)!'), ('R.1', 720.0, u'6*5*4*3*2', u'6!')]"
p612
(lp613
V(51!)/(51-6)!(6!)
p614
asS"[('R.0', 20872566000.0, u'55*(55-1)*(55-2)*(55-3)*(55-4)*(55-5)', u'55*54*53*52*51*50'), ('R.1.0.0.0.0', 6.0, u'6', u'6')]"
p615
(lp616
V(55*54*53*52*51*50)/6
p617
aV(55*54*53*52*51*50)/(6^6)
p618
aV(55*54*53*52*51*50)/(6)
p619
aV55*54*53*52*51*50/(6)
p620
aV55*54*53*52*51*50/(6^6)
p621
aV55*54*53*52*51*50/(2^6)
p622
asS"[('R.0.0.0.0.0.1', 53.0, u'54-1', u'53'), ('R.0.0.0.0.1', 52.0, u'54-2', u'52'), ('R.0.0.0.1', 51.0, u'54-3', u'51'), ('R.0.0.1', 50.0, u'54-4', u'50'), ('R.0.1', 49.0, u'54-5', u'49')]"
p623
(lp624
V54!53!52!51!50!49!
p625
aV53*52*51*50*49*48
p626
aV54+53+52+51+50+49
p627
aV54 +53 + 52 +51+50+49
p628
aV53 + 52 +51+50+49
p629
aV53 + 52 +51+50+49+48
p630
aV53*52*51*50*49*48
p631
aV53*52*51*50*49*4825827165
p632
asS"[('R.0.0.0', 5085024.0, u'49*(49-1)*(49-2)*(49-3)', u'49*48*47*46')]"
p633
(lp634
V49*48*47*46
p635
asS"[('R.0.0', 379501200.0, u'54*(54-1)*(54-2)*(54-3)*(54-4)', u'54*53*52*51*50')]"
p636
(lp637
V54*53*52*51*50
p638
asS"[('R.0', 8835488640.0, u'48*(48-1)*(48-2)*(48-3)*(48-4)*(48-5)', u'48!/[42!]')]"
p639
(lp640
V48!/[42!]
p641
asS"[('R.0', 8835488640.0, u'48*(48-1)*(48-2)*(48-3)*(48-4)*(48-5)', u'48*47*46*45*44*43')]"
p642
(lp643
V48*47*46*45*44*43
p644
aV48*47*46*45*44*43
p645
aV48*47*46*45*44*43
p646
aV48*47*46*45*44*43
p647
aV48*47*46*45*44*43*42
p648
aV48*47*46*45*44*43*42
p649
aV48*47*46*45*44*43
p650
aV48*47*46*45*44*43/2
p651
aV48*47*46*45*44*43/48
p652
aV48*47*46*45*44*43
p653
aV(48*47*46*45*44*43)/36
p654
aV48*47*46*45*44*43
p655
asS"[('R.0.0.0.0.0.1.0', 54.0, u'54', u'54'), ('R.0.1', 49.0, u'54-5', u'49'), ('R.1', 720.0, u'6*5*4*3*2', u'6!')]"
p656
(lp657
V54!/((6!)(49!))
p658
asS"[('R.0', 10068347520.0, u'49*(49-1)*(49-2)*(49-3)*(49-4)*(49-5)', u'10068347520')]"
p659
(lp660
V10068347520
p661
aV10068347520
p662
asS"[('R.0.0.0.0.0.1', 47.0, u'48-1', u'47'), ('R.0.0.0.0.1', 46.0, u'48-2', u'46'), ('R.0.0.0.1', 45.0, u'48-3', u'45'), ('R.0.0.1', 44.0, u'48-4', u'44'), ('R.0.1', 43.0, u'48-5', u'43'), ('R.1.0.0.0.0', 6.0, u'6', u'6')]"
p663
(lp664
V47*46*45*44*43*6
p665
asS"[('R.0', 20872566000.0, u'55*(55-1)*(55-2)*(55-3)*(55-4)*(55-5)', u'55!/49!')]"
p666
(lp667
V55!/49!
p668
aV55!/49!
p669
asS"[('R.0', 18595558800.0, u'54*(54-1)*(54-2)*(54-3)*(54-4)*(54-5)', u'54!/48!'), ('R.1', 720.0, u'6*5*4*3*2', u'6!')]"
p670
(lp671
V54!/48!*6!
p672
asS"[('R.0', 12966811200.0, u'51*(51-1)*(51-2)*(51-3)*(51-4)*(51-5)', u'51*50*49*48*47*46')]"
p673
(lp674
V(51*50*49*48*47*46)/2
p675
aV51*50*49*48*47*46*45
p676
aV51*50*49*48*47*46
p677
aV51*50*49*48*47*46
p678
aV51*50*49*48*47*46
p679
aV(51*50*49*48*47*46)/2
p680
aV(51*50*49*48*47*46)/2-1
p681
aV(51*50*49*48*47*46)/2+1
p682
aV(51*50*49*48*47*46) - (51 + 51*51 + 51*51*51 + 51*51*51*51 + 51*51*51*51*51)
p683
aV(51*50*49*48*47*46) - (51 + 51*50 + 51*50*49 + 51*50*49*48 + 51*50*49*48*47)
p684
aV51*50*49*48*47*46
p685
aV(51*50*49*48*47*46)/2
p686
aV51*50*49*48*47*46
p687
aV51*50*49*48*47*46
p688
asS"[('R.0.0.0.0.0.1', 54.0, u'55-1', u'54'), ('R.0.0.0.0.1.1', 2.0, u'2', u'2')]"
p689
(lp690
VP(54,2)
p691
asS"[('R.0', 10068347520.0, u'49*(49-1)*(49-2)*(49-3)*(49-4)*(49-5)', u'49*48*47*46*45*44'), ('R.1.0.0.0.0', 6.0, u'6', u'6')]"
p692
(lp693
V49*48*47*46*45*44/6
p694
aV(49*48*47*46*45*44)/(6)
p695
asS"[('R.0.0.0.0.0.1.0', 52.0, u'52', u'52'), ('R.0.0.0.0.1.1', 2.0, u'2', u'2'), ('R.0.0.1', 48.0, u'52-4', u'48')]"
p696
(lp697
V52*48*44*40*36*32/2
p698
asS"[('R.0.0.0.0.0.1.0', 52.0, u'52', u'52'), ('R.0.0.1', 48.0, u'52-4', u'48')]"
p699
(lp700
V52*48*44*40*36*32
p701
asS"[('R.0.0.0.0.0.1', 48.0, u'49-1', u'48'), ('R.0.0.0.0.1', 47.0, u'49-2', u'47'), ('R.0.0.0.1', 46.0, u'49-3', u'46'), ('R.0.0.1', 45.0, u'49-4', u'45')]"
p702
(lp703
V50*49*48*47*46*45
p704
asS"[('R.0', 20872566000.0, u'55*(55-1)*(55-2)*(55-3)*(55-4)*(55-5)', u'(55!)/(49!)')]"
p705
(lp706
V(55!)/(49!)
p707
asS"[('R.0', 8835488640.0, u'48*(48-1)*(48-2)*(48-3)*(48-4)*(48-5)', u'48!/(48-6)!'), ('R.1.0.0.0.0', 6.0, u'6', u'6')]"
p708
(lp709
V48!/(48-6)!
p710
asS"[('R.0.0.0.0.0.1.0', 55.0, u'55', u'55'), ('R.1.0.0.0.0', 6.0, u'6', u'6')]"
p711
(lp712
V55*55*55*55*55*55/(6)
p713
aV55!/(6(49!))
p714
aV55*6
p715
asS"[('R.0.0.0.0.0.1.0', 49.0, u'49', u'49'), ('R.1.0.0.0.0', 6.0, u'6', u'6')]"
p716
(lp717
V49!/(43!*6)
p718
aV(49*49*49*49*49*49)/(6)
p719
asS"[('R.0.1', 44.0, u'49-5', u'50-6'), ('R.1', 720.0, u'6*5*4*3*2', u'6!')]"
p720
(lp721
V50!/(6!(50-6)!)
p722
asS"[('R.0', 10068347520.0, u'49*(49-1)*(49-2)*(49-3)*(49-4)*(49-5)', u'49!/(43!)')]"
p723
(lp724
V49!/(43!)
p725
aV49!/(43!)
p726
asS"[('R.0', 14658134400.0, u'52*(52-1)*(52-2)*(52-3)*(52-4)*(52-5)', u'52!/[(52-6)!]'), ('R.1.0.0.0.0', 6.0, u'6', u'6')]"
p727
(lp728
V52!/[(52-6)!]
p729
asS"[('R.0.0.0.0', 148824.0, u'54*(54-1)*(54-2)', u'54*53*52')]"
p730
(lp731
V54*53*52
p732
asS"[('R.0', 12966811200.0, u'51*(51-1)*(51-2)*(51-3)*(51-4)*(51-5)', u'12966811200')]"
p733
(lp734
V12966811200
p735
aV12966811200
p736
aV12966811200
p737
aV12966811200
p738
aV12966811200
p739
aV12966811200
p740
aV12966811200
p741
asS"[('R.0', 18595558800.0, u'54*(54-1)*(54-2)*(54-3)*(54-4)*(54-5)', u'(54!)/((54-6)!)'), ('R.1.0.0.0.0', 6.0, u'6', u'6')]"
p742
(lp743
V(54!)/((54-6)!)
p744
asS"[('R.0', 14658134400.0, u'52*(52-1)*(52-2)*(52-3)*(52-4)*(52-5)', u'52!/46!')]"
p745
(lp746
V52!/46!
p747
asS"[('R.0', 14658134400.0, u'52*(52-1)*(52-2)*(52-3)*(52-4)*(52-5)', u'52 * 51 * 50 * 49 * 48 * 47'), ('R.1', 720.0, u'6*5*4*3*2', u'6*5*4*3*2*1')]"
p748
(lp749
V52 * 51 * 50 * 49 * 48 * 47 * 46/(6*5*4*3*2*1)
p750
asS"[('R.0', 14658134400.0, u'52*(52-1)*(52-2)*(52-3)*(52-4)*(52-5)', u'52*51*50*49*48*47'), ('R.1.0.0.0.0', 6.0, u'6', u'6')]"
p751
(lp752
V52*51*50*49*48*47/6
p753
aV52*51*50*49*48*47/6
p754
asS"[('R.0.0.0.0.0.1.0', 50.0, u'50', u'50'), ('R.1.0.0.0.0', 6.0, u'6', u'6')]"
p755
(lp756
V(50 6)
p757
aV50*6
p758
asS"[('R.0.0.0.0.0.1.0', 51.0, u'51', u'51'), ('R.1', 720.0, u'6*5*4*3*2', u'6!')]"
p759
(lp760
V(51!)/(51-6!)(6!)
p761
asS"[('R.0', 12966811200.0, u'51*(51-1)*(51-2)*(51-3)*(51-4)*(51-5)', u'51 * 50 * 49 * 48 * 47 * 46')]"
p762
(lp763
V51 * 50 * 49 * 48 * 47 * 46
p764
aV51 * 50 * 49 * 48 * 47 * 46
p765
aV(51 * 50 * 49 * 48 * 47 * 46)/2
p766
asS"[('R.0.0.0.0.0.1.0', 52.0, u'52', u'52'), ('R.1.0.0.0.0', 6.0, u'6', u'6')]"
p767
(lp768
V52!/(52!*(52-6)!)
p769
aV6*52
p770
asS"[('R.0.0.0', 4669920.0, u'48*(48-1)*(48-2)*(48-3)', u'48*47*46*45'), ('R.0.1', 43.0, u'48-5', u'43'), ('R.1', 720.0, u'6*5*4*3*2', u'6!')]"
p771
(lp772
V(48*47*46*45*43)/6!
p773
asS"[('R.0', 8835488640.0, u'48*(48-1)*(48-2)*(48-3)*(48-4)*(48-5)', u'8835488640')]"
p774
(lp775
V8835488640
p776
aV8835488640
p777
aV8835488640
p778
asS"[('R.0', 16529385600.0, u'53*(53-1)*(53-2)*(53-3)*(53-4)*(53-5)', u'16529385600')]"
p779
(lp780
V16529385600
p781
aV16529385600
p782
aV16529385600
p783
aV16529385600
p784
asS"[('R.0.0', 228826080.0, u'49*(49-1)*(49-2)*(49-3)*(49-4)', u'49!/(44!)'), ('R.0.1', 44.0, u'49-5', u'44')]"
p785
(lp786
V49!/(44!)
p787
asS"[('R.0', 16529385600.0, u'53*(53-1)*(53-2)*(53-3)*(53-4)*(53-5)', u'53!/(53-6)!'), ('R.1.0.0.0.0', 6.0, u'6', u'6')]"
p788
(lp789
V53!/(53-6)!
p790
aV53!/(53-6)!
p791
asS"[('R.0.1', 44.0, u'49-5', u'44'), ('R.1', 720.0, u'6*5*4*3*2', u'6!')]"
p792
(lp793
V50!/(44!6!)
p794
asS"[('R.0', 11441304000.0, u'50*(50-1)*(50-2)*(50-3)*(50-4)*(50-5)', u'50!/44!'), ('R.1', 720.0, u'6*5*4*3*2', u'6!')]"
p795
(lp796
V50!/44!(6!)
p797
asS"[('R.0.0.0.0.0.1.0', 55.0, u'55', u'55'), ('R.0.1', 50.0, u'55-5', u'50'), ('R.1.0.0', 120.0, u'6*5*4', u'5!')]"
p798
(lp799
V55!/5!/50!
p800
aV55!/(5!*50!)
p801
asS"[('R.0.0.0.0.0.1', 51.0, u'52-1', u'51'), ('R.0.0.0.0.1', 50.0, u'52-2', u'50'), ('R.0.0.0.1', 49.0, u'52-3', u'49'), ('R.0.0.1', 48.0, u'52-4', u'48'), ('R.0.1', 47.0, u'52-5', u'47')]"
p802
(lp803
V52+51+50+49+48+47
p804
asS"[('R.1.0.0.0.0', 6.0, u'6', u'6')]"
p805
(lp806
V((52!)/(52-6)!)-52
p807
asg291
(lp808
V55*54*53*52*51*50/(2^6
p809
aV53 choose 6
p810
aV433160
p811
aV 50063860
p812
aV52!/(6!*46*)
p813
aV52!/((6!)*(46*))
p814
aV194580
p815
aV432938943360
p816
aV601304088
p817
aV1.85 * 10^10
p818
aV86969025
p819
aV18\u2009009\u2009460
p820
aV(48!)/(6!*(42!)
p821
aV291
p822
aV25,827,165
p823
aV990
p824
aV1.65^10
p825
aV44+43+42+41+40+39+38
p826
aV44+43+42+41+40+39
p827
aV1712304
p828
aV4825827165
p829
aV1.86E10
p830
aV1.859E10
p831
aV53 choose 6
p832
aV(53!)/(6!47!
p833
aV13475313600
p834
aV12,966,811,200
p835
aV2.3352527*10^17
p836
aV11441304000
p837
aV77800867200
p838
aV15890700
p839
aV51 choose 6
p840
aV15890700
p841
aV48 choose 6
p842
aV51 C 6
p843
aV6C50
p844
aV318
p845
aV22,957,480
p846
aV51 choose 6
p847
aV11192580000
p848
aV127125600
p849
aV5720652000
p850
aV1678057920
p851
aV20358520
p852
aV20150813696
p853
aV5402838000
p854
aV540283800
p855
aV104
p856
aV20358520
p857
asS"[('R.0', 16529385600.0, u'53*(53-1)*(53-2)*(53-3)*(53-4)*(53-5)', u'53!/47!')]"
p858
(lp859
V53!/47!
p860
asS"[('R.0', 16529385600.0, u'53*(53-1)*(53-2)*(53-3)*(53-4)*(53-5)', u'53! /(53-6)!'), ('R.1.0.0.0.0', 6.0, u'6', u'6')]"
p861
(lp862
V53! /(53-6)!
p863
asS"[('R.0', 20872566000.0, u'55*(55-1)*(55-2)*(55-3)*(55-4)*(55-5)', u'P(55,6)'), ('R.1.0.0.0.0', 6.0, u'6', u'6')]"
p864
(lp865
VP(55,6)
p866
asS"[('R.0.0.0.0.0.1.0', 50.0, u'50', u'50'), ('R.0.1', 45.0, u'50-5', u'45'), ('R.1', 720.0, u'6*5*4*3*2', u'6!')]"
p867
(lp868
V50!/(45!*6!)
p869
asS"[('R.0.0', 254251200.0, u'50*(50-1)*(50-2)*(50-3)*(50-4)', u'254251200')]"
p870
(lp871
V254251200
p872
aV254251200
p873
asS"[('R.0', 11441304000.0, u'50*(50-1)*(50-2)*(50-3)*(50-4)*(50-5)', u'50*49*48*47*46*45')]"
p874
(lp875
V50*49*48*47*46*45
p876
aV(50*49*48*47*46*45)/2
p877
aV50*49*48*47*46*45
p878
aV50*49*48*47*46*45
p879
aV(50*49*48*47*46*45)/(2)
p880
aV50*49*48*47*46*45*44
p881
aV(50*49*48*47*46*45)
p882
aV50*49*48*47*46*45*44/2
p883
aV50*49*48*47*46*45/2
p884
aV50*49*48*47*46*45
p885
asS"[('R.0.0.0.0.0.1', 50.0, u'51-1', u'50'), ('R.1', 720.0, u'6*5*4*3*2', u'6!')]"
p886
(lp887
V(50!/(6!*44!))
p888
asS"[('R.0.0.0.0.0.1.0', 52.0, u'52', u'52')]"
p889
(lp890
V52!
p891
aV52!-46!
p892
asS"[('R.0', 20872566000.0, u'55*(55-1)*(55-2)*(55-3)*(55-4)*(55-5)', u'55*54*53*52*51*50'), ('R.1.0.0.1', 4.0, u'4', u'4')]"
p893
(lp894
V(55*54*53*52*51*50)/(4!)
p895
asS"[('R.1', 720.0, u'6*5*4*3*2', u'6!')]"
p896
(lp897
V6!
p898
aV50!/(6!)
p899
aV6!
p900
asS"[('R.0.0', 254251200.0, u'50*(50-1)*(50-2)*(50-3)*(50-4)', u'50!/(45!)'), ('R.0.1', 45.0, u'50-5', u'45')]"
p901
(lp902
V50!/(45!)
p903
asS"[('R.0', 11441304000.0, u'50*(50-1)*(50-2)*(50-3)*(50-4)*(50-5)', u'50!/44!')]"
p904
(lp905
V50!/44!
p906
aV50!/44!
p907
asS"[('R.0', 18595558800.0, u'54*(54-1)*(54-2)*(54-3)*(54-4)*(54-5)', u'54*53*52*51*50*49')]"
p908
(lp909
V54*53*52*51*50*49
p910
aV54*53*52*51*50*49
p911
aV54*53*52*51*50*49*48
p912
aV54*53*52*51*50*49
p913
aV54*53*52*51*50*49
p914
aV54*53*52*51*50*49
p915
aV54*53*52*51*50*49
p916
aV54*53*52*51*50*49
p917
aV54*53*52*51*50*49
p918
aV54*53*52*51*50*49
p919
aV54*53*52*51*50*49
p920
aV54*53*52*51*50*49
p921
aV54*53*52*51*50*49
p922
aV54*53*52*51*50*49
p923
aV54*53*52*51*50*49*48
p924
aV54*53*52*51*50*49
p925
asS"[('R.0.0.0.0.0.1.0', 48.0, u'48', u'48'), ('R.1', 720.0, u'6*5*4*3*2', u'6!')]"
p926
(lp927
V6!*48
p928
asS"[('R.0', 18595558800.0, u'54*(54-1)*(54-2)*(54-3)*(54-4)*(54-5)', u'54!/48!')]"
p929
(lp930
V54!/48!
p931
asS"[('R.0.1', 44.0, u'49-5', u'44')]"
p932
(lp933
V50!/(44!)
p934
aVP(50,44)
p935
asS"[('R.0', 14658134400.0, u'52*(52-1)*(52-2)*(52-3)*(52-4)*(52-5)', u'14658134400')]"
p936
(lp937
V14658134400
p938
asS"[('R.0', 10068347520.0, u'49*(49-1)*(49-2)*(49-3)*(49-4)*(49-5)', u'49!/(49-6)!'), ('R.1.0.0.0.0', 6.0, u'6', u'6')]"
p939
(lp940
V49!/(49-6)!
p941
asS"[('R.0.0.0.0.0.1.0', 52.0, u'52', u'52'), ('R.1', 720.0, u'6*5*4*3*2', u'6!')]"
p942
(lp943
V6!/(52!*(52-6)!)
p944
aV52!/(6!*56!)
p945
asS"[('R.1', 720.0, u'6*5*4*3*2', u'6 !')]"
p946
(lp947
V60! / (6 ! * 54!)
p948
asS"[('R.0.0.0', 7590024.0, u'54*(54-1)*(54-2)*(54-3)', u'54*53*52*51'), ('R.0.1', 49.0, u'54-5', u'49')]"
p949
(lp950
V54*53*52*51*51*49
p951
asS"[('R.0', 10068347520.0, u'49*(49-1)*(49-2)*(49-3)*(49-4)*(49-5)', u'49*48*47*46*45*44')]"
p952
(lp953
V49*48*47*46*45*44
p954
aV49*48*47*46*45*44
p955
aV49*48*47*46*45*44
p956
aV49*48*47*46*45*44
p957
aV49*48*47*46*45*44
p958
asS"[('R.0', 12966811200.0, u'51*(51-1)*(51-2)*(51-3)*(51-4)*(51-5)', u'(51!)/(51-6)!'), ('R.1.0.0.0.0', 6.0, u'6', u'6')]"
p959
(lp960
V(51!)/(51-6)!
p961
asS"[('R.0.0.0.0.0', 2862.0, u'54*(54-1)', u'54*53')]"
p962
(lp963
V54*53
p964
asS"[('R.0.0.0.0.0.1.0', 55.0, u'55', u'55'), ('R.0.0.0.0.1', 53.0, u'55-2', u'53'), ('R.0.0.0.1.1', 3.0, u'3', u'3'), ('R.0.0.1', 51.0, u'55-4', u'51')]"
p965
(lp966
V55*3*53*13*51
p967
asS"[('R.0.0', 205476480.0, u'48*(48-1)*(48-2)*(48-3)*(48-4)', u'205476480')]"
p968
(lp969
V205476480
p970
asS"[('R.0.0.0.0.0.1.0', 48.0, u'48', u'48'), ('R.1.0.0.0.0', 6.0, u'6', u'6')]"
p971
(lp972
V6*48
p973
aV48*6
p974
aV48^6
p975
asS"[('R.0', 8835488640.0, u'48*(48-1)*(48-2)*(48-3)*(48-4)*(48-5)', u'48!/(42!)')]"
p976
(lp977
V48!/(42!)
p978
asS"[('R.0.0.0.0.0.1.0', 53.0, u'53', u'53'), ('R.1.0.0.0.0', 6.0, u'6', u'6')]"
p979
(lp980
V6*53
p981
aV53!*6
p982
aV53^6
p983
aV53*6
p984
asS"[('R.0', 12966811200.0, u'51*(51-1)*(51-2)*(51-3)*(51-4)*(51-5)', u'51!/((51-6)!)'), ('R.1.0.0.0.0', 6.0, u'6', u'6')]"
p985
(lp986
V51!/((51-6)!)
p987
asS"[('R.0', 16529385600.0, u'53*(53-1)*(53-2)*(53-3)*(53-4)*(53-5)', u'53*52*51*50*49*48'), ('R.1.0.0.0.0', 6.0, u'6', u'6')]"
p988
(lp989
V(53*52*51*50*49*48) /6
p990
aV(53*52*51*50*49*48)/6
p991
asS"[('R.0', 12966811200.0, u'51*(51-1)*(51-2)*(51-3)*(51-4)*(51-5)', u'51 * 50 * 49 * 48 * 47 * 46'), ('R.1.0.0.0.0', 6.0, u'6', u'6')]"
p992
(lp993
V(51 * 50 * 49 * 48 * 47 * 46)/6
p994
asS"[('R.0.0.0.0.0', 2450.0, u'50*(50-1)', u'50*49'), ('R.0.0.0.0.1.1', 2.0, u'2', u'2')]"
p995
(lp996
V(50*49)/2
p997
aV(50*49)/2
p998
asS"[('R.0.0.0.0.0.1', 49.0, u'50-1', u'49')]"
p999
(lp1000
V49!-43!
p1001
asS"[('R.0.0.0.0.0.1.0', 54.0, u'54', u'54'), ('R.1', 720.0, u'6*5*4*3*2', u'6!')]"
p1002
(lp1003
V54!/6!
p1004
asS"[('R.0.0.0.0.0.1.0', 55.0, u'55', u'55'), ('R.1', 720.0, u'6*5*4*3*2', u'6!')]"
p1005
(lp1006
V55!/6!49!
p1007
asS"[('R.0.0.0.0.0.1', 52.0, u'53-1', u'52')]"
p1008
(lp1009
V52!
p1010
asS"[('R.0', 14658134400.0, u'52*(52-1)*(52-2)*(52-3)*(52-4)*(52-5)', u'52*51*50*49*48*47')]"
p1011
(lp1012
V52*51*50*49*48*47
p1013
aV52*51*50*49*48*47
p1014
aV52*51*50*49*48*47
p1015
aV52*51*50*49*48*47
p1016
aV52*51*50*49*48*47
p1017
aV52*51*50*49*48*47
p1018
aV52*51*50*49*48*47
p1019
aV52*51*50*49*48*47
p1020
aV52*51*50*49*48*47/2
p1021
aV52*51*50*49*48*47
p1022
aV52*51*50*49*48*47
p1023
aV52*51*50*49*48*47
p1024
aV52*51*50*49*48*47
p1025
asS"[('R.0.0.0', 5997600.0, u'51*(51-1)*(51-2)*(51-3)', u'51*50*49*48')]"
p1026
(lp1027
V51*50*49*48
p1028
asS"[('R.0.0.0.0.0.1', 47.0, u'48-1', u'47'), ('R.0.0.0.0.1', 46.0, u'48-2', u'46'), ('R.0.0.0.1', 45.0, u'48-3', u'45'), ('R.0.0.1', 44.0, u'48-4', u'44')]"
p1029
(lp1030
V49*48*47*46*45*44
p1031
aV47*46*45*44
p1032
asS"[('R.0.0.0.0.0.1', 51.0, u'52-1', u'51')]"
p1033
(lp1034
V56*55*54*53*52*51
p1035
asS"[('R.0.0.0.0.0.1.0', 53.0, u'53', u'53'), ('R.1', 720.0, u'6*5*4*3*2', u'6!')]"
p1036
(lp1037
V53!/6!
p1038
asS"[('R.0.0.0.0.0.1.0', 48.0, u'48', u'48')]"
p1039
(lp1040
V48!
p1041
asS"[('R.0.0.0.0.0.1.0', 50.0, u'50', u'50'), ('R.1', 720.0, u'6*5*4*3*2', u'6!')]"
p1042
(lp1043
V50!/(6!)
p1044
asS"[('R.0.0', 254251200.0, u'50*(50-1)*(50-2)*(50-3)*(50-4)', u'50*49*48*47*46')]"
p1045
(lp1046
V50*49*48*47*46
p1047
aV50*49*48*47*46
p1048
aV50*49*48*47*46
p1049
asS"[('R.0.0.0.0.0.1.0', 55.0, u'55', u'55')]"
p1050
(lp1051
V55!
p1052
aV55!/48!
p1053
aV55!
p1054
asS"[('R.0.0.0.0.0.1', 53.0, u'54-1', u'53'), ('R.0.0.0.0.1', 52.0, u'54-2', u'52'), ('R.0.0.0.1', 51.0, u'54-3', u'51'), ('R.0.0.1', 50.0, u'54-4', u'50')]"
p1055
(lp1056
V55*54*53*52*51*50
p1057
asS"[('R.0', 11441304000.0, u'50*(50-1)*(50-2)*(50-3)*(50-4)*(50-5)', u'11441304000')]"
p1058
(lp1059
V11441304000
p1060
aV11441304000
p1061
asS"[('R.0', 11441304000.0, u'50*(50-1)*(50-2)*(50-3)*(50-4)*(50-5)', u'50*49*48*47*46*45'), ('R.1.0.0.1', 4.0, u'4', u'4')]"
p1062
(lp1063
V(50*49*48*47*46*45)/(4!)
p1064
asS"[('R.0.0.0.0.0.1.0', 54.0, u'54', u'54'), ('R.1', 720.0, u'6*5*4*3*2', u'(54-48)!')]"
p1065
(lp1066
V54!/(54-48)!
p1067
asS"[('R.0.0.0.0.0.1.0', 54.0, u'54', u'54')]"
p1068
(lp1069
V54! - 48!
p1070
aV(54!) - (48!)
p1071
aV(54!) - (48!)
p1072
aV(54!) - (48!)
p1073
aV(54!) - (48!)
p1074
asS"[('R.0', 14658134400.0, u'52*(52-1)*(52-2)*(52-3)*(52-4)*(52-5)', u'52!/((52-6)!-6!)'), ('R.1', 720.0, u'6*5*4*3*2', u'6!')]"
p1075
(lp1076
V52!/((52-6)!-6!)
p1077
asS"[('R.0.0.0.0.0.1.0', 49.0, u'49', u'49'), ('R.1', 720.0, u'6*5*4*3*2', u'6!')]"
p1078
(lp1079
V(49*49*49*49*49*49)/(6!)
p1080
aV49!/(6!(49-6!))
p1081
asS"[('R.0.1', 49.0, u'54-5', u'49'), ('R.1', 720.0, u'6*5*4*3*2', u'6!')]"
p1082
(lp1083
V(55!)/[6! * 49!]
p1084
asS"[('R.0.0.0', 4669920.0, u'48*(48-1)*(48-2)*(48-3)', u'48*47*46*45')]"
p1085
(lp1086
V48*47*46*45
p1087
asS"[('R.0.0.0.0.0.1', 53.0, u'54-1', u'53'), ('R.0.0.0.0.1', 52.0, u'54-2', u'52'), ('R.0.0.0.1', 51.0, u'54-3', u'51'), ('R.0.0.1', 50.0, u'54-4', u'50'), ('R.0.1', 49.0, u'54-5', u'49'), ('R.1.0.0.0.0', 6.0, u'6', u'6')]"
p1088
(lp1089
V6*54*53*52*51*50*49
p1090
asS"[('R.0', 16529385600.0, u'53*(53-1)*(53-2)*(53-3)*(53-4)*(53-5)', u'1.65294E+10')]"
p1091
(lp1092
V1.65294E+10
p1093
asS"[('R.0.0.0.0.0.1', 49.0, u'50-1', u'49'), ('R.0.0.0.0.1', 48.0, u'50-2', u'48'), ('R.0.0.0.1', 47.0, u'50-3', u'47'), ('R.0.0.1', 46.0, u'50-4', u'46'), ('R.0.1', 45.0, u'50-5', u'45')]"
p1094
(lp1095
V50+49+48+47+46+45
p1096
aV49+48+47+46+45+44
p1097
asS"[('R.0.0.0.1.1', 3.0, u'3', u'3'), ('R.1.0.0', 120.0, u'6*5*4', u'5!')]"
p1098
(lp1099
V5!/3!
p1100
asS"[('R.0', 18595558800.0, u'54*(54-1)*(54-2)*(54-3)*(54-4)*(54-5)', u'P(54,6)'), ('R.1.0.0.0.0', 6.0, u'6', u'6')]"
p1101
(lp1102
VP(54,6)
p1103
asS"[('R.0.0.0.0.0.1.0', 51.0, u'51', u'51'), ('R.1.0.0.0.0', 6.0, u'6', u'6')]"
p1104
(lp1105
V51^6
p1106
asS"[('R.0.0.0.0.0.1.0', 50.0, u'50', u'50')]"
p1107
(lp1108
V50!-44!
p1109
asS"[('R.0', 18595558800.0, u'54*(54-1)*(54-2)*(54-3)*(54-4)*(54-5)', u'54!/(54-6)!'), ('R.1.0.0.0.0', 6.0, u'6', u'6')]"
p1110
(lp1111
V54!/(54-6)!
p1112
aV54!/(54-6)!
p1113
asS"[('R.0', 16529385600.0, u'53*(53-1)*(53-2)*(53-3)*(53-4)*(53-5)', u'53*52*51*50*49*48')]"
p1114
(lp1115
V53*52*51*50*49*48*47
p1116
aV53*52*51*50*49*48
p1117
aV53*52*51*50*49*48
p1118
aV53*52*51*50*49*48
p1119
aV53*52*51*50*49*48
p1120
aV53*52*51*50*49*48
p1121
asS"[('R.0.0.0', 6497400.0, u'52*(52-1)*(52-2)*(52-3)', u'6497400')]"
p1122
(lp1123
V6497400
p1124
asS"[('R.0', 10068347520.0, u'49*(49-1)*(49-2)*(49-3)*(49-4)*(49-5)', u'(49!)/((49-6)!)'), ('R.1.0.0.0.0', 6.0, u'6', u'6')]"
p1125
(lp1126
V(49!)/((49-6)!)
p1127
aV(49!)/((49-6)!)
p1128
asS"[('R.0.0.0.0.0.1.0', 54.0, u'54', u'54'), ('R.1.0.0.0.0', 6.0, u'6', u'6')]"
p1129
(lp1130
V54!(54-6)!
p1131
asS"[('R.0.1', 43.0, u'48-5', u'43'), ('R.1', 720.0, u'6*5*4*3*2', u'6!')]"
p1132
(lp1133
V49!/(43!*6!)
p1134
asS"[('R.0', 8835488640.0, u'48*(48-1)*(48-2)*(48-3)*(48-4)*(48-5)', u'48*47*46*45*44*43'), ('R.1.0.0', 120.0, u'6*5*4', u'5!')]"
p1135
(lp1136
V48*47*46*45*44*43/5!
p1137
asS"[('R.0', 18595558800.0, u'54*(54-1)*(54-2)*(54-3)*(54-4)*(54-5)', u'(54!)/(54-6)!'), ('R.1.0.0.0.0', 6.0, u'6', u'6')]"
p1138
(lp1139
V(54!)/(54-6)!
p1140
asS"[('R.0', 20872566000.0, u'55*(55-1)*(55-2)*(55-3)*(55-4)*(55-5)', u'55*54*53*52*51*50'), ('R.1.0.0.0.0', 6.0, u'6', u'6'), ('R.1.0.0.0.1', 5.0, u'5', u'5')]"
p1141
(lp1142
V55*54*53*52*51*50/(6^5)
p1143
asS"[('R.0', 12966811200.0, u'51*(51-1)*(51-2)*(51-3)*(51-4)*(51-5)', u'51*50*49*48*47*46'), ('R.1.0.0.0.0', 6.0, u'6', u'6')]"
p1144
(lp1145
V(51*50*49*48*47*46)/6
p1146
aV(51*50*49*48*47*46)/6
p1147
asS"[('R.0.0.0.0.0.1.0', 53.0, u'53', u'53')]"
p1148
(lp1149
V(53!)/(53!*47!)
p1150
aV53!
p1151
asS"[('R.0.0.0.0.0.1.0', 49.0, u'49', u'C(49,1)'), ('R.0.0.0.0.0.1.1', 1.0, u'1', u'1')]"
p1152
(lp1153
VC(49,1)
p1154
asS"[('R.0', 11441304000.0, u'50*(50-1)*(50-2)*(50-3)*(50-4)*(50-5)', u'50*49*48*47*46*45'), ('R.1.0.0.0.0', 6.0, u'6', u'6')]"
p1155
(lp1156
V(50*49*48*47*46*45)/6
p1157
aV50*49*48*47*46*45/6
p1158
asS"[('R.0', 11441304000.0, u'50*(50-1)*(50-2)*(50-3)*(50-4)*(50-5)', u'50!/(44!)')]"
p1159
(lp1160
V50!/(44!)
p1161
aV50!/(44!)
p1162
aV(50!/(44!))/2
p1163
asS"[('R.0.0.0.0.1.1', 2.0, u'2', u'2!'), ('R.1.0.0', 120.0, u'6*5*4', u'5!')]"
p1164
(lp1165
V5!/2!
p1166
asS"[('R.0', 11441304000.0, u'50*(50-1)*(50-2)*(50-3)*(50-4)*(50-5)', u'50*49*48*47*46*45'), ('R.1.0.0', 120.0, u'6*5*4', u'5!')]"
p1167
(lp1168
V(50*49*48*47*46*45)/(5!)
p1169
asS"[('R.0', 18595558800.0, u'54*(54-1)*(54-2)*(54-3)*(54-4)*(54-5)', u'18595558800')]"
p1170
(lp1171
V18595558800
p1172
asS"[('R.0', 18595558800.0, u'54*(54-1)*(54-2)*(54-3)*(54-4)*(54-5)', u'54*53*52*51*50*49'), ('R.1.0.0.0.0', 6.0, u'6', u'6')]"
p1173
(lp1174
V(54*53*52*51*50*49)/6
p1175
aV54*53*52*51*50*49*6
p1176
asS"[('R.0.0.0.0.0.1', 54.0, u'55-1', u'54'), ('R.0.0.0.0.1', 53.0, u'55-2', u'53'), ('R.0.0.0.1', 52.0, u'55-3', u'52'), ('R.0.0.1', 51.0, u'55-4', u'51'), ('R.0.1', 50.0, u'55-5', u'50'), ('R.1.0.0.0.0', 6.0, u'6', u'6')]"
p1177
(lp1178
V(54*53*52*51*50*49)/(6)
p1179
asS"[('R.0.0.0.0.0.1', 51.0, u'52-1', u'51'), ('R.1', 720.0, u'6*5*4*3*2', u'6!')]"
p1180
(lp1181
V(56*55*54*53*52*51)/6!
p1182
asS"[('R.0.0.0.0.0.1.0', 55.0, u'55', u'C(55,1)'), ('R.0.0.0.0.0.1.1', 1.0, u'1', u'1')]"
p1183
(lp1184
VC(55,1)
p1185
asS"[('R.0', 20872566000.0, u'55*(55-1)*(55-2)*(55-3)*(55-4)*(55-5)', u'55*54*53*52*51*50'), ('R.1.0.0.0.1', 5.0, u'5', u'5')]"
p1186
(lp1187
V55*54*53*52*51*50/(5)
p1188
asS"[('R.0', 11441304000.0, u'50*(50-1)*(50-2)*(50-3)*(50-4)*(50-5)', u'50 * 49 * 48 * 47 * 46 * 45')]"
p1189
(lp1190
V50 * 49 * 48 * 47 * 46 * 45
p1191
asS"[('R.0.0.0.0.0.1', 52.0, u'53-1', u'52'), ('R.0.0.0.0.1', 51.0, u'53-2', u'51'), ('R.0.0.0.1', 50.0, u'53-3', u'50'), ('R.0.0.1', 49.0, u'53-4', u'49'), ('R.0.1', 48.0, u'53-5', u'48')]"
p1192
(lp1193
V53!*52!*51!*50!*49!*48!
p1194
asS"[('R.0.0.0.0.0', 2256.0, u'48*(48-1)', u'48*47'), ('R.1.0.0.0.0', 6.0, u'6', u'6')]"
p1195
(lp1196
V48*47/6
p1197
asS"[('R.0', 20872566000.0, u'55*(55-1)*(55-2)*(55-3)*(55-4)*(55-5)', u'55*54*53*52*51*50')]"
p1198
(lp1199
V55*54*53*52*51*50
p1200
aV55*54*53*52*51*50
p1201
aV(55*54*53*52*51*50)/2
p1202
aV55*54*53*52*51*50/(36)
p1203
aV55*54*53*52*51*50
p1204
aV55*54*53*52*51*50
p1205
aV55*54*53*52*51*50
p1206
aV55*54*53*52*51*50
p1207
aV55*54*53*52*51*50
p1208
asS"[('R.0.0.0.0.0.1.0', 53.0, u'53', u'53'), ('R.0.0.1', 49.0, u'53-4', u'55-6'), ('R.1', 720.0, u'6*5*4*3*2', u'6!')]"
p1209
(lp1210
V53!/(6!(55-6)!)
p1211
asS"[('R.0', 20872566000.0, u'55*(55-1)*(55-2)*(55-3)*(55-4)*(55-5)', u'20872566000')]"
p1212
(lp1213
V20872566000
p1214
asS"[('R.0.0.0.0.0.1', 53.0, u'54-1', u'53'), ('R.0.0.0.0.1', 52.0, u'54-2', u'52'), ('R.0.0.0.1', 51.0, u'54-3', u'51'), ('R.0.0.1', 50.0, u'54-4', u'50'), ('R.0.1', 49.0, u'54-5', u'49'), ('R.1', 720.0, u'6*5*4*3*2', u'6!')]"
p1215
(lp1216
V6!*54*53*52*51*50*49
p1217
ass.