(dp0
V1
p1
ccollections
defaultdict
p2
(c__builtin__
list
p3
tp4
Rp5
S"[('R', 18.0, u'18', u'18')]"
p6
(lp7
V1/18
p8
aV7/18
p9
asS"[('R', 16.0, u'16', u'16')]"
p10
(lp11
V(9)/(16)
p12
aV9/16
p13
aV9/16
p14
aV12/16
p15
asS"[('R', 19.0, u'19', u'19')]"
p16
(lp17
V5/19
p18
aV7/19
p19
aV17/19
p20
aV14/19
p21
asS"[('R', 10.0, u'10', u'10')]"
p22
(lp23
V7/10
p24
aV8/10
p25
asS"[('R', 12.0, u'12', u'12')]"
p26
(lp27
V9/12
p28
asS'Nothing'
p29
(lp30
V{1,2,3,4,5,6,7,8,9,10,11,12,13,14,15,16}
p31
aV7
p32
aV8
p33
aV1
p34
aV5
p35
aV.35
p36
aV7
p37
aV1
p38
aV{1,2,3,4,5,6,7}
p39
aV7
p40
aV7
p41
aV{1,2,3,4,5,6,7}
p42
aV1,2,3,4,5,6,7
p43
aV10`
p44
aV2
p45
aV7
p46
aV{1, 2, 3, 4, 5, 6, 7}
p47
aV1,2,3,4,5,6,7,8,9,10
p48
aV10
p49
aV7
p50
aV7
p51
aV9
p52
aV9
p53
aV{1,2,3,4,5,6,7,8,9,10,11,12}
p54
aV12
p55
aV11
p56
aV6
p57
aV6
p58
aV7
p59
aV1, 2, 3, 4, 5, 6, 7
p60
aV{1, 2, 3, 4, 5, 6, 7}
p61
aV{1,2,3,4,5,6}
p62
aV6
p63
aV{1,2,3,4,5}
p64
aV5
p65
aV1
p66
aV5
p67
aV1,2,3,4,5
p68
aV5
p69
aV4
p70
aV6
p71
aV5
p72
aV12
p73
aV1,2,3,4,5,6,7,8
p74
aV6/7
p75
aV12
p76
aV2
p77
aV{1,2,3,4,5,6,7,8,9,10,11,12}
p78
aV11
p79
aV10
p80
aV17
p81
aV{1,2,3,4,5,6,7,8,9,10,11,12,13,14,15,16,17}
p82
aV17
p83
aV1
p84
aV(|9|)/(|16|)
p85
aV{1,2,3,4,5,6,7,8,9}
p86
aV9
p87
aV9
p88
aV1/9
p89
aV{1,2,3,4,5,6,7,8,9}
p90
aV1,2,3,4,5,6,7,8,9
p91
aV9
p92
aV10
p93
aV11
p94
aV10
p95
aV{1, 2, 3, ... , 19}
p96
aV14
p97
aV{1,2,3,4,5,6,7,8,9,10,11,12,13,14,15,16}
p98
aV16
p99
aV15
p100
aV7
p101
aV8
p102
aV1,2,3,4,5,6,7,8
p103
aV15
p104
aV{1,2,3,4,5,6,7,8,9,10,11}
p105
aV11
p106
aV11
p107
aV10
p108
aV5
p109
aV1,2,3,4,5
p110
aV16
p111
aV15
p112
aV11
p113
aV9
p114
aV1
p115
aV5
p116
aV1,2,3,4,5
p117
aV{1,2,3,4,5}
p118
aV5
p119
aV1
p120
aV10
p121
aV5
p122
aV3
p123
aV12
p124
aV{1,2,3,4,5,6,7,8,9}
p125
aV1,2,3,4,5,6,7,8,9
p126
aV9
p127
aV{1,2,3,4,5,6,7,8,9}
p128
aV9
p129
aV13
p130
aV10
p131
aV{1, 2, 3, 4, 5, 6, 7, 8, 9, 10, 11, 12, 13, 14}
p132
aV14
p133
aV1,2,3,4,5,6,7,8,9,10
p134
aV1,2,3,4,5,6,7,8
p135
aV8
p136
aV{1,2,3,4,5,6,7,8,9,10,11}
p137
aV1,2,3,4,5,6,7,8,9,10,11
p138
aV{1,2,3,4,5,6,7,8,9}
p139
aV9
p140
aV{1,2,3,4,5,6,7,8,9,10.11,12}
p141
aV12
p142
aV1
p143
aV1
p144
aV{1,2,3,4,5,6,7,8,9,10,11,12,13,14,15,16,17,18}
p145
aV7
p146
aV6
p147
aV7
p148
aV8
p149
aV7
p150
aV1,2,3,4,5,6,7,8,9,10,11,12,13
p151
aV13
p152
aV17
p153
aV{1,2,3,4,5,6,7,8,9,10,11,12,13,14,15,16,17}
p154
aV1
p155
aV9
p156
aV1, 2, 3, ... , 16
p157
asS"[('R', 14.0, u'14', u'14')]"
p158
(lp159
V12/14
p160
aV13/14
p161
assV3
p162
g2
(g3
tp163
Rp164
S"[('R.1', 13.0, u'13', u'13')]"
p165
(lp166
V1/13
p167
asS"[('R.1', 19.0, u'19', u'19')]"
p168
(lp169
V18/19
p170
aV1/19
p171
asS"[('R.0', 17.0, u'17', u'17')]"
p172
(lp173
V1/17
p174
aV17
p175
asS"[('R.1', 18.0, u'18', u'18')]"
p176
(lp177
V1/18
p178
asS"[('R', 1.0, u'15/15', u'1')]"
p179
(lp180
V1/15
p181
asS"[('R.1', 20.0, u'20', u'20')]"
p182
(lp183
V6/20
p184
aV1/20
p185
aV1/20
p186
aV1/20
p187
asS"[('R', 1.0, u'10/10', u'1')]"
p188
(lp189
V1/10
p190
aV10/(10+9+8+7+6+5+4+3+2+1)
p191
asS"[('R.1', 15.0, u'15', u'15')]"
p192
(lp193
V1/15
p194
asS"[('R.0', 8.0, u'8', u'8'), ('R.1', 18.0, u'18', u'18')]"
p195
(lp196
V18/8
p197
asS"[('R.0', 8.0, u'8', u'8'), ('R.1', 10.0, u'10', u'1*10')]"
p198
(lp199
V(1*10)^8
p200
aV(1*10) * 8
p201
asS"[('R.0', 8.0, u'8', u'8')]"
p202
(lp203
V1/8
p204
aV1/8
p205
asS"[('R.1', 10.0, u'10', u'10')]"
p206
(lp207
V10
p208
asg29
(lp209
V6/7
p210
aV2/3
p211
aV0.0625
p212
aV.94
p213
aV1
p214
aV3/6
p215
aV1/2
p216
aV1/2
p217
aV9/4
p218
aV1/10
p219
asS"[('R.1', 14.0, u'14', u'14')]"
p220
(lp221
V1/14
p222
aV3/14
p223
asS"[('R.1', 16.0, u'16', u'16')]"
p224
(lp225
V7/16
p226
asS"[('R.1', 17.0, u'17', u'17')]"
p227
(lp228
V1/17
p229
aV1/17
p230
asS"[('R.1', 12.0, u'12', u'12')]"
p231
(lp232
V7/12
p233
aV1/12
p234
aV1/12
p235
aV1/12
p236
asS"[('R.0', 11.0, u'11', u'11')]"
p237
(lp238
V1/11
p239
aV1/11
p240
asS"[('R', 1.0, u'13/13', u'1')]"
p241
(lp242
V1/13
p243
asS"[('R.0', 18.0, u'18', u'18')]"
p244
(lp245
V1/18
p246
asS"[('R.0', 8.0, u'8', u'8'), ('R.1', 15.0, u'15', u'15')]"
p247
(lp248
V15/8
p249
asS"[('R.0', 16.0, u'16', u'16')]"
p250
(lp251
V1/16
p252
asS"[('R', 0.9444444444444444, u'17/18', u'17/18')]"
p253
(lp254
V1/(17/18)
p255
asS"[('R.0', 14.0, u'14', u'14')]"
p256
(lp257
V1/14
p258
assV2
p259
g2
(g3
tp260
Rp261
g29
(lp262
V{16}
p263
aV16
p264
aV15
p265
aV12
p266
aV18
p267
aV14
p268
aV6
p269
aV20
p270
aV15
p271
aV10
p272
aV{1,2,3,4,5,6,7,8,9,10}
p273
aV1,2,3,4,5,6,7,8,9,10
p274
aV10/10
p275
aV18
p276
aV3
p277
aV1
p278
aV17
p279
aV10
p280
aV13
p281
aV17
p282
aV1/17
p283
aV19
p284
aV12
p285
aV19
p286
aV17
p287
aV19
p288
aV10
p289
aV17
p290
aV19
p291
aV14
p292
aV1
p293
aV14
p294
aV12
p295
aV20
p296
aV16
p297
aV14
p298
aV17
p299
aV12
p300
aV1
p301
aV18
p302
aV19
p303
aV37
p304
aV20
p305
aV1/12
p306
aV12
p307
aV1
p308
aV13
p309
aV6
p310
aV14
p311
aV17
p312
aV1/17
p313
aV20
p314
aV20
p315
aV18
p316
aV5
p317
aV9
p318
aV20
p319
aV20
p320
aV10
p321
aV14
p322
aV15
p323
aV13
p324
aV12
p325
aV11
p326
aV15
p327
aV20
p328
aV10
p329
aV16
p330
aV1/16
p331
aV16
p332
aV7
p333
aV10
p334
asS"[('R', 10.0, u'10', u'10')]"
p335
(lp336
V10+9+8+7+6+5+4+3+2+1
p337
asS"[('R', 9.0, u'9', u'9')]"
p338
(lp339
V9/19
p340
ass.