(dp0
V1
p1
ccollections
defaultdict
p2
(c__builtin__
list
p3
tp4
Rp5
S'Nothing'
p6
(lp7
V110
p8
aV9
p9
aV1/6
p10
aV5!
p11
aV5
p12
aV19
p13
aV9
p14
aV12
p15
aV8
p16
aV9
p17
aV8
p18
aV5!
p19
aV15
p20
aV20
p21
aV5!/(3!*2!)
p22
aV8
p23
aV9
p24
aV8
p25
aV8
p26
aV140
p27
aV8
p28
aV8
p29
aV8
p30
aV7!/5!
p31
aV5!/3!
p32
aV5!/(3!2!)
p33
aV5
p34
aV9
p35
aV8
p36
aV9
p37
aV12
p38
asS"['R.1']"
p39
(lp40
V3!*2!
p41
aV3!2!
p42
aV3!*2!
p43
aV3!2!
p44
asS"['R']"
p45
(lp46
VC(3,1)*C(2,1)
p47
asS"['R.0']"
p48
(lp49
V3*3
p50
assV2
p51
g2
(g3
tp52
Rp53
g6
(lp54
V39
p55
aV96
p56
aV60
p57
aV44
p58
aV73
p59
aV8
p60
aV44
p61
aV16
p62
aV52
p63
aV3*100
p64
aV3*10*3*10
p65
aV22
p66
aV338
p67
aV192
p68
aV48
p69
aV120
p70
aV50
p71
aV1294920
p72
aV26235
p73
aV88
p74
aV72
p75
aV24
p76
aV24
p77
aV84
p78
aV500
p79
aV200
p80
aV22
p81
aV58
p82
aV50
p83
aV30
p84
aV26
p85
aV26
p86
aV56
p87
aV24
p88
aV10*4^2
p89
aV96
p90
aV48
p91
asS"['R.1']"
p92
(lp93
V11*4
p94
ass.