(dp0
V1
p1
ccollections
defaultdict
p2
(c__builtin__
list
p3
tp4
Rp5
S'Nothing'
p6
(lp7
V9
p8
aV27
p9
aV3
p10
aV3
p11
aV9
p12
aV3
p13
aV9
p14
aV4
p15
aV5
p16
aV9
p17
aV3^3
p18
aV3^3
p19
aV3
p20
aV9
p21
aV9
p22
aV3
p23
aV27
p24
aV27
p25
aV9
p26
aV8
p27
aV9
p28
aV3
p29
aV9
p30
aV27
p31
aV8
p32
aV9
p33
aV3*3*3
p34
aV9
p35
aV5
p36
aVP(3,3)
p37
aV540320
p38
aV5
p39
aV3^2
p40
aV2^3
p41
aV2^2
p42
aV12
p43
aVP(3, 3)
p44
aV9
p45
aV9
p46
aV5
p47
aV4
p48
aV5
p49
asS"[('R', 6.0, u'6', u'3!')]"
p50
(lp51
V3!/2!
p52
aV3!2!
p53
aV(3!)/2!
p54
asS"[('R', 6.0, u'6', u'3*2*1')]"
p55
(lp56
V3*2*1/2*1
p57
aV(3*2*1)/(2*1)
p58
assV2
p59
g2
(g3
tp60
Rp61
g6
(lp62
V81
p63
aV240
p64
aV26880
p65
aV6**6
p66
aV64
p67
aV56
p68
aV5040
p69
aV3125
p70
aV25
p71
aV20
p72
aV21
p73
aV22
p74
aV23
p75
aV30
p76
aV29
p77
aV20
p78
aV21
p79
aV22
p80
aV23
p81
aV24
p82
aV25
p83
aV49
p84
aV42
p85
aV10368
p86
aV1944
p87
aV42
p88
aV40,320
p89
aV36
p90
aV8^8
p91
aV10
p92
aV4
p93
aV12
p94
aV16
p95
aV15
p96
aV16
p97
aV12
p98
aV24883200
p99
aV(P8, 8)
p100
aVP(8, 8)
p101
aV823543
p102
aV720
p103
ass.