(dp0
V1
p1
(dp2
Vgthorn
p3
(dp4
S'part1_correct_attempt'
p5
(lp6
S'0:02:28'
p7
aVC(13, 2)
p8
asS'first_attempt'
p9
V2015-10-13 18:29:53
p10
sS'part1_incorrect_attempt'
p11
(lp12
(S'0:00:00'
p13
V11 * 12
p14
tp15
assVv4zhang
p16
(dp17
S'part1_correct_attempt'
p18
(lp19
S'0:01:30'
p20
aVC(15, 2)
p21
asg9
V2015-10-15 07:32:42
p22
sS'part1_incorrect_attempt'
p23
(lp24
(S'0:00:00'
p25
VC(15, 1) 
p26
tp27
assVkvass
p28
(dp29
S'part1_correct_attempt'
p30
(lp31
S'0:19:57'
p32
aVC(14,2)
p33
asg9
V2015-10-14 06:37:21
p34
sS'part1_incorrect_attempt'
p35
(lp36
(S'0:00:00'
p37
VC(14,2)*12*C(4,2)**2*4
p38
tp39
assVjjm019
p40
(dp41
S'part1_correct_attempt'
p42
(lp43
S'0:09:04'
p44
aV45
p45
asg9
V2015-10-15 23:38:04
p46
sS'part1_incorrect_attempt'
p47
(lp48
(S'0:00:00'
p49
V5*45
p50
tp51
assVctgraves
p52
(dp53
S'part1_correct_attempt'
p54
(lp55
S'2:11:41'
p56
aV11!/(2!*9!)
p57
asg9
V2015-10-13 21:54:50
p58
sS'part1_incorrect_attempt'
p59
(lp60
(S'0:00:00'
p61
V11!/(2!*9!)*6*5*11!/(2!*9!)*4*11
p62
tp63
a(S'0:00:20'
p64
V11!/(2!*9!)*6*5*11!/((2!*9!))*4*11
p65
tp66
a(S'0:00:46'
p67
V11!/(2!*9!)*6*5*(11!/((2!*9!)))*4*11
p68
tp69
assVdkurli
p70
(dp71
S'part1_correct_attempt'
p72
(lp73
S'0:06:15'
p74
aV10!/8!/2!
p75
asg9
V2015-10-14 04:01:22
p76
sS'part1_incorrect_attempt'
p77
(lp78
(S'0:00:00'
p79
V40*3*38*3
p80
tp81
a(S'0:00:00'
p82
V40*3*39*3
p83
tp84
a(S'0:00:00'
p85
V40*3*38*3*35
p86
tp87
a(S'0:00:00'
p88
V40*3*36*3*32
p89
tp90
a(S'0:00:00'
p91
V10*9*6*6*8*24
p92
tp93
a(S'0:00:00'
p94
V10!/8!/2!*12*12
p95
tp96
a(S'0:00:14'
p97
V10!/8!/2!*6*6
p98
tp99
assVj5phung
p100
(dp101
S'part1_correct_attempt'
p102
(lp103
S'0:04:44'
p104
aVC(11,2)
p105
asg9
V2015-10-09 18:45:21
p106
sS'part1_incorrect_attempt'
p107
(lp108
(S'0:00:00'
p109
VC(13,13)*C(13,12)
p110
tp111
assVjyc018
p112
(dp113
S'part1_correct_attempt'
p114
(lp115
S'0:01:28'
p116
aVC(12,2)
p117
asg9
V2015-10-12 02:27:07
p118
sS'part1_incorrect_attempt'
p119
(lp120
(S'0:00:00'
p121
V5*12 + 4*12
p122
tp123
a(S'0:00:20'
p124
V5*12 + 11 +4*12
p125
tp126
assVffhaddad
p127
(dp128
S'part1_correct_attempt'
p129
(lp130
S'0:02:45'
p131
aVC(16,2)
p132
asg9
V2015-10-10 21:14:48
p133
sS'part1_incorrect_attempt'
p134
(lp135
(S'0:00:00'
p136
VC(4,2)C(16,1)C(4,2)C(15,1)
p137
tp138
a(S'0:02:37'
p139
VC(16,1)
p140
tp141
assVasrana
p142
(dp143
S'part1_correct_attempt'
p144
(lp145
S'6:33:24'
p146
aV91
p147
asg9
V2015-10-15 12:00:55
p148
sS'part1_incorrect_attempt'
p149
(lp150
(S'0:00:00'
p151
V91*36*48
p152
tp153
a(S'0:12:20'
p154
V91*9*48
p155
tp156
a(S'0:13:30'
p157
V4*91*9*48
p158
tp159
a(S'0:00:00'
p160
V78*6*6
p161
tp162
assVjmmcalex
p163
(dp164
S'part1_correct_attempt'
p165
(lp166
S'0:12:30'
p167
aV13*6
p168
asg9
V2015-10-15 08:46:14
p169
sS'part1_incorrect_attempt'
p170
(lp171
(S'0:00:00'
p172
V2*(13^2)
p173
tp174
a(S'0:04:55'
p175
V(13^2)*(12)
p176
tp177
assVdgunawan
p178
(dp179
g9
V2015-10-15 19:08:43
p180
sS'part1_incorrect_attempt'
p181
(lp182
(S'0:00:00'
p183
VC(13, 2) * (C(4,2))^2 * C(11,1) * C(4,1)
p184
tp185
a(S'0:00:31'
p186
VC(11, 2) * (C(4,2))^2 * C(9,1) * C(4,1)
p187
tp188
a(S'0:00:00'
p189
VC(11, 4) * (C(4,2))^2 * C(6,1) * C(4,1)
p190
tp191
assVtcn013
p192
(dp193
S'part1_correct_attempt'
p194
(lp195
S'0:09:39'
p196
aVC(16,2)
p197
asg9
V2015-10-15 03:51:05
p198
sS'part1_incorrect_attempt'
p199
(lp200
(S'0:00:00'
p201
V16*C(6,2)*C(6,4)
p202
tp203
a(S'0:06:48'
p204
VC(16,2)C(15,2)
p205
tp206
a(S'0:06:55'
p207
VC(16,2)C(15,2)*14
p208
tp209
a(S'0:07:13'
p210
V16*15*14
p211
tp212
a(S'0:08:02'
p213
V16C(6,2)15C(6,2)*14*6
p214
tp215
a(S'0:09:17'
p216
V16C(6,2)15C(6,2)
p217
tp218
assVdando
p219
(dp220
S'part1_correct_attempt'
p221
(lp222
S'0:03:53'
p223
aV13!/(11!2)
p224
asg9
V2015-10-15 20:49:05
p225
sS'part1_incorrect_attempt'
p226
(lp227
(S'0:00:00'
p228
V5 * 4
p229
tp230
assVchc286
p231
(dp232
S'part1_correct_attempt'
p233
(lp234
S'0:06:08'
p235
aVC(13,2)
p236
asg9
V2015-10-11 23:36:45
p237
sS'part1_incorrect_attempt'
p238
(lp239
(S'0:00:00'
p240
VC(13,2)*C(6,2)*12*6
p241
tp242
a(S'0:00:12'
p243
VC(13,2)*C(6,2)*11*6
p244
tp245
a(S'0:03:37'
p246
VC(13,2)*(C(6,2)^2)*11*6
p247
tp248
assVsayao
p249
(dp250
S'part1_correct_attempt'
p251
(lp252
S'0:00:09'
p253
aV16!/(14!*2!)
p254
asg9
V2015-10-12 18:44:17
p255
sS'part1_incorrect_attempt'
p256
(lp257
(S'0:00:00'
p258
V13!/(11!*2!)
p259
tp260
assVanvan
p261
(dp262
S'part1_correct_attempt'
p263
(lp264
S'1:15:11'
p265
aV14!/(2!12!) 
p266
asg9
V2015-10-15 01:19:18
p267
sS'part1_incorrect_attempt'
p268
(lp269
(S'0:00:00'
p270
V5*14*13
p271
tp272
a(S'0:02:07'
p273
V14*14*5
p274
tp275
a(S'0:00:00'
p276
V14*5 * 13 * 5
p277
tp278
assVflhernan
p279
(dp280
S'part1_correct_attempt'
p281
(lp282
S'0:18:28'
p283
aVC(10,2)
p284
asg9
V2015-10-14 19:34:28
p285
sS'part1_incorrect_attempt'
p286
(lp287
(S'0:00:00'
p288
V2*C(4,2)*10*36
p289
tp290
a(S'0:02:52'
p291
VC(10,2)*C(4,2)*C(4,2)*C(8,1)*C(4,1)
p292
tp293
a(S'0:09:50'
p294
V6*C(10,2)*6*C(9,2)*C(32,1)
p295
tp296
a(S'0:13:51'
p297
V6*C(10,1)*6*C(9,1)*C(32,1)
p298
tp299
a(S'0:15:53'
p300
V6*C(10,1)*6*C(9,1)
p301
tp302
a(S'0:16:10'
p303
V6*C(10,1)
p304
tp305
assVa2ahmed
p306
(dp307
S'part1_correct_attempt'
p308
(lp309
S'15:24:16'
p310
aVC(15,2)
p311
asg9
V2015-10-15 04:25:36
p312
sS'part1_incorrect_attempt'
p313
(lp314
(S'0:00:00'
p315
VC(15,2)+C(14,2)
p316
tp317
a(S'0:00:49'
p318
VC(14,2)+C(13,2)
p319
tp320
a(S'0:01:02'
p321
V14+13
p322
tp323
assVmitopete
p324
(dp325
S'part1_correct_attempt'
p326
(lp327
S'0:07:17'
p328
aV11!/(2!9!)
p329
asg9
V2015-10-13 20:50:05
p330
sS'part1_incorrect_attempt'
p331
(lp332
(S'0:00:00'
p333
V11!/(4!7!)
p334
tp335
a(S'0:04:11'
p336
V(11!/(2!9!))+(10!/(2!8!))
p337
tp338
a(S'0:05:03'
p339
V11! + 10!
p340
tp341
assVstarinia
p342
(dp343
S'part1_correct_attempt'
p344
(lp345
S'0:15:28'
p346
aVC(10,2)
p347
asg9
V2015-10-15 02:44:15
p348
sS'part1_incorrect_attempt'
p349
(lp350
(S'0:00:00'
p351
VC(10,2) * C(6, 2) * C(6,2) * C(8,1) * C(6,1)
p352
tp353
assVtak068
p354
(dp355
S'part1_correct_attempt'
p356
(lp357
S'0:11:45'
p358
aVC(10,2)
p359
asg9
V2015-10-14 07:20:05
p360
sS'part1_incorrect_attempt'
p361
(lp362
(S'0:00:00'
p363
V10!6!/9!/2!/4!
p364
tp365
a(S'0:04:29'
p366
V45*15^2
p367
tp368
assVm8woo
p369
(dp370
S'part1_correct_attempt'
p371
(lp372
S'0:00:45'
p373
aV13*12/2
p374
asg9
V2015-10-10 01:15:26
p375
sS'part1_incorrect_attempt'
p376
(lp377
(S'0:00:00'
p378
V13*12*2*39
p379
tp380
assVjhp077
p381
(dp382
S'part1_correct_attempt'
p383
(lp384
S'0:11:03'
p385
aVC(13,2)
p386
asg9
V2015-10-15 06:05:43
p387
sS'part1_incorrect_attempt'
p388
(lp389
(S'0:00:00'
p390
V15*13
p391
tp392
a(S'0:01:39'
p393
VC(6,2) * C(72,3)
p394
tp395
a(S'0:02:10'
p396
V13*C(6,2) * C(72,3)
p397
tp398
a(S'0:00:00'
p399
V13*C(6,2)*C(6,2)
p400
tp401
a(S'0:01:18'
p402
VC(13,2)*C(6,2)*C(6,2)
p403
tp404
a(S'0:02:07'
p405
V13*12*C(6,2)*C(6,2)
p406
tp407
a(S'0:05:39'
p408
VC(13,2)*C(6,2)*C(6,2)*66
p409
tp410
assVjit002
p411
(dp412
S'part1_correct_attempt'
p413
(lp414
S'0:12:37'
p415
aVC(13,2)
p416
asg9
V2015-10-15 06:05:01
p417
sS'part1_incorrect_attempt'
p418
(lp419
(S'0:00:00'
p420
VC(13,2)+C(13,1)
p421
tp422
a(S'0:00:00'
p423
VC(13,2)+13
p424
tp425
assVdruble
p426
(dp427
S'part1_correct_attempt'
p428
(lp429
S'0:02:14'
p430
aVC(16,2)
p431
asg9
V2015-10-13 01:39:36
p432
sS'part1_incorrect_attempt'
p433
(lp434
(S'0:00:00'
p435
VC(15,1)
p436
tp437
assVh4tu
p438
(dp439
S'part1_correct_attempt'
p440
(lp441
S'0:03:29'
p442
aV(16*15/2)
p443
asg9
V2015-10-15 07:28:45
p444
sS'part1_incorrect_attempt'
p445
(lp446
(S'0:00:00'
p447
V13^4
p448
tp449
a(S'0:00:28'
p450
V13*12
p451
tp452
assVlrlai
p453
(dp454
S'part1_correct_attempt'
p455
(lp456
S'0:01:29'
p457
aVC(15,2)
p458
asg9
V2015-10-12 20:41:38
p459
sS'part1_incorrect_attempt'
p460
(lp461
(S'0:00:00'
p462
V15^2 * 14^2
p463
tp464
assVasetters
p465
(dp466
S'part1_correct_attempt'
p467
(lp468
S'0:11:07'
p469
aV(11*10)/2
p470
asg9
V2015-10-12 06:22:29
p471
sS'part1_incorrect_attempt'
p472
(lp473
(S'0:00:00'
p474
V13*12
p475
tp476
a(S'0:08:04'
p477
V13+12
p478
tp479
assVjjchung
p480
(dp481
S'part1_correct_attempt'
p482
(lp483
S'0:03:31'
p484
aVC(11,2)
p485
asg9
V2015-10-14 20:06:23
p486
sS'part1_incorrect_attempt'
p487
(lp488
(S'0:00:00'
p489
VC(13,2)*5
p490
tp491
a(S'0:00:20'
p492
VC(11,2)*5
p493
tp494
a(S'0:02:04'
p495
VC(11,1)*2*5
p496
tp497
a(S'0:02:25'
p498
VC(11,2)*5
p499
tp500
a(S'0:02:41'
p501
VC(11,2)^5
p502
tp503
assVabjara
p504
(dp505
S'part1_correct_attempt'
p506
(lp507
S'0:15:24'
p508
aV[11!/(9!*2!)]
p509
asg9
V2015-10-12 21:34:29
p510
sS'part1_incorrect_attempt'
p511
(lp512
(S'0:00:00'
p513
V[4!/(2!*2!)]*11
p514
tp515
a(S'0:00:26'
p516
V[4!/(2!)]*11
p517
tp518
a(S'0:14:39'
p519
V[11!/(9!*2!)]*6^2*44
p520
tp521
a(S'0:14:59'
p522
V[11!/(9!*2!)]*6^2*36
p523
tp524
assVcprafull
p525
(dp526
S'part1_correct_attempt'
p527
(lp528
S'13:44:59'
p529
aV14!/((2!)(12!))
p530
asg9
V2015-10-14 08:28:51
p531
sS'part1_incorrect_attempt'
p532
(lp533
(S'0:00:00'
p534
V2(14!)/((2!)(12!))
p535
tp536
a(S'0:00:00'
p537
V(84!)/((80!)(4!))
p538
tp539
a(S'0:01:31'
p540
V84 * 83 * 79 * 78
p541
tp542
a(S'0:01:44'
p543
V84 * 83 * 79 * 78/4
p544
tp545
a(S'0:01:51'
p546
V84 * 83 * 79 * 78
p547
tp548
assVanislam
p549
(dp550
S'part1_correct_attempt'
p551
(lp552
S'0:22:03'
p553
aVC(11,2)
p554
asg9
V2015-10-15 23:17:36
p555
sS'part1_incorrect_attempt'
p556
(lp557
(S'0:00:00'
p558
VC(11,2) * C(11,1)
p559
tp560
a(S'0:11:26'
p561
V10*9
p562
tp563
a(S'0:11:43'
p564
VC(10,1)*C(9,1)
p565
tp566
assVsachadal
p567
(dp568
S'part1_correct_attempt'
p569
(lp570
S'0:04:35'
p571
aVC(14,2)
p572
asg9
V2015-10-14 18:09:35
p573
sS'part1_incorrect_attempt'
p574
(lp575
(S'0:00:00'
p576
VC(13,2)*C(4,2)*C(12,2)*C(4,2)*C(11,1)
p577
tp578
a(S'0:00:22'
p579
VC(14,2)*C(4,2)*C(13,2)*C(4,2)*C(12,1)
p580
tp581
a(S'0:00:41'
p582
VC(14,2)*C(4,2)*C(13,2)*C(4,2)
p583
tp584
a(S'0:01:12'
p585
VC(14,2)*C(13,2)
p586
tp587
a(S'0:02:15'
p588
VC(56,2)*C(14,1)*C(13,1)
p589
tp590
a(S'0:02:55'
p591
V14*1*13*1
p592
tp593
assVkrau
p594
(dp595
S'part1_correct_attempt'
p596
(lp597
S'0:06:12'
p598
aV16!/2!/14!
p599
asg9
V2015-10-14 04:01:32
p600
sS'part1_incorrect_attempt'
p601
(lp602
(S'0:00:00'
p603
V(4*16!/14!/2!) * 3 * (16!/2!/14!)
p604
tp605
a(S'0:00:00'
p606
V4*16!/14!/2! * 3 * (16!/2!/14!)
p607
tp608
a(S'0:00:00'
p609
V4*16!/14!/2! * 3 * (16!/2!/14!) * 60
p610
tp611
a(S'0:00:00'
p612
V16*4*3
p613
tp614
a(S'0:00:00'
p615
V16*4*3*15*4*3
p616
tp617
a(S'0:01:20'
p618
V64*3*62*3
p619
tp620
assVpsable
p621
(dp622
S'part1_correct_attempt'
p623
(lp624
S'0:11:19'
p625
aVC(10,2)
p626
asg9
V2015-10-15 23:32:24
p627
sS'part1_incorrect_attempt'
p628
(lp629
(S'0:00:00'
p630
VC(10,2)*C(6,1)*C(9,2)*C(6,1)
p631
tp632
a(S'0:01:10'
p633
VC(10,2)*C(6,1)*C(6,1)
p634
tp635
a(S'0:01:50'
p636
VC(10,1)*C(6,1)*C(9,1)*C(6,1)
p637
tp638
a(S'0:00:00'
p639
VC(10,1)
p640
tp641
assVsippolit
p642
(dp643
S'part1_correct_attempt'
p644
(lp645
S'0:01:01'
p646
aV105
p647
asg9
V2015-10-12 05:06:11
p648
sS'part1_incorrect_attempt'
p649
(lp650
(S'0:00:00'
p651
V105*100*13*5
p652
tp653
a(S'0:00:27'
p654
V105*10*13*5
p655
tp656
assVr1gu
p657
(dp658
S'part1_correct_attempt'
p659
(lp660
S'9:55:15'
p661
aV11!/(2!9!)
p662
asg9
V2015-10-15 12:31:43
p663
sS'part1_incorrect_attempt'
p664
(lp665
(S'0:00:00'
p666
V4!(2!2!)
p667
tp668
a(S'0:00:07'
p669
V4!/(2!2!)
p670
tp671
a(S'0:00:41'
p672
V5!/(2!3!)
p673
tp674
assVdsmonaha
p675
(dp676
S'part1_correct_attempt'
p677
(lp678
S'0:11:23'
p679
aVC(11,2)
p680
asg9
V2015-10-13 18:18:56
p681
sS'part1_incorrect_attempt'
p682
(lp683
(S'0:00:00'
p684
VC(5,2)11C(4,2)10*51
p685
tp686
a(S'0:02:02'
p687
VC(5,2)11C(5,2)10*45
p688
tp689
a(S'0:03:40'
p690
V11C(5,2)10*45
p691
tp692
a(S'0:05:09'
p693
V11*10*45
p694
tp695
a(S'0:05:22'
p696
V11*10*C(5,2)*45
p697
tp698
a(S'0:07:10'
p699
VC(5,2)C(5,2)
p700
tp701
a(S'0:07:47'
p702
VC(11,2)C(10,2)
p703
tp704
assVz3meng
p705
(dp706
S'part1_correct_attempt'
p707
(lp708
S'0:10:52'
p709
aV105
p710
asg9
V2015-10-15 03:18:18
p711
sS'part1_incorrect_attempt'
p712
(lp713
(S'0:00:00'
p714
V15*15*14*15+15^2
p715
tp716
a(S'0:03:08'
p717
V15^2*106
p718
tp719
assVlcardoso
p720
(dp721
S'part1_correct_attempt'
p722
(lp723
S'0:01:36'
p724
aVC(14,2)
p725
asg9
V2015-10-13 18:00:25
p726
sS'part1_incorrect_attempt'
p727
(lp728
(S'0:00:00'
p729
VC(13,4)
p730
tp731
a(S'0:01:26'
p732
VC(14,2) * C(14,2)
p733
tp734
assVjel075
p735
(dp736
S'part1_correct_attempt'
p737
(lp738
S'0:00:09'
p739
aV12!/(10!*2!)
p740
asg9
V2015-10-15 01:27:38
p741
sS'part1_incorrect_attempt'
p742
(lp743
(S'0:00:00'
p744
V12!(10!*2!)
p745
tp746
assVedescobe
p747
(dp748
S'part1_correct_attempt'
p749
(lp750
S'0:08:09'
p751
aVC(12,2)
p752
asg9
V2015-10-12 20:31:32
p753
sS'part1_incorrect_attempt'
p754
(lp755
(S'0:00:00'
p756
V11*10
p757
tp758
a(S'0:04:43'
p759
VC(4,2)*C(4,2)
p760
tp761
assVw4shin
p762
(dp763
S'part1_correct_attempt'
p764
(lp765
S'20:28:33'
p766
aV14!/(12!2!)
p767
asg9
V2015-10-14 03:18:15
p768
sS'part1_incorrect_attempt'
p769
(lp770
(S'0:00:00'
p771
V14!/(3!2!)
p772
tp773
a(S'0:00:00'
p774
V14!(12!2!)
p775
tp776
assVetemlock
p777
(dp778
S'part1_correct_attempt'
p779
(lp780
S'0:04:54'
p781
aVC(13,2)
p782
asg9
V2015-10-11 01:25:08
p783
sS'part1_incorrect_attempt'
p784
(lp785
(S'0:00:00'
p786
VC(6,2)^2 * C(13,1) * C(12,1) * C(74, 2)
p787
tp788
a(S'0:01:47'
p789
VC(6,2)^2 * C(13,2)* C(11,1)* C(4,1)
p790
tp791
a(S'0:02:23'
p792
VC(6,2)^2 * C(13,2)* C(11,2)* C(4,1)
p793
tp794
a(S'0:03:28'
p795
VC(6,2)^2 * C(13,2)* C(11,1)* C(6,1)
p796
tp797
assVjtfrankl
p798
(dp799
S'part1_correct_attempt'
p800
(lp801
S'0:00:05'
p802
aVC(12,2)
p803
asg9
V2015-10-15 21:10:25
p804
sS'part1_incorrect_attempt'
p805
(lp806
(S'0:00:00'
p807
V2C(12,2)
p808
tp809
assVcstringh
p810
(dp811
S'part1_correct_attempt'
p812
(lp813
S'0:30:02'
p814
aVC(15, 2)
p815
asg9
V2015-10-12 22:49:40
p816
sS'part1_incorrect_attempt'
p817
(lp818
(S'0:00:00'
p819
V2^15
p820
tp821
a(S'0:00:14'
p822
V2^13
p823
tp824
a(S'0:00:00'
p825
VC(75,4)
p826
tp827
assVdan029
p828
(dp829
S'part1_correct_attempt'
p830
(lp831
S'0:06:08'
p832
aVC(14,2)
p833
asg9
V2015-10-09 22:58:34
p834
sS'part1_incorrect_attempt'
p835
(lp836
(S'0:00:00'
p837
VC(14,2)*C(6,2)
p838
tp839
a(S'0:00:56'
p840
V72*C(14,2)*C(6,2)
p841
tp842
a(S'0:01:52'
p843
V72*C(14,2)*C(6,2)^2
p844
tp845
a(S'0:02:58'
p846
V12*C(14,2)*C(6,2)^2*6
p847
tp848
a(S'0:03:42'
p849
V12*C(14,2)*(C(6,2)^2)*6
p850
tp851
assVaurodrig
p852
(dp853
S'part1_correct_attempt'
p854
(lp855
S'0:00:57'
p856
aV12!/(2!10!)
p857
asg9
V2015-10-15 21:10:14
p858
sS'part1_incorrect_attempt'
p859
(lp860
(S'0:00:00'
p861
V12!/(2!9!)
p862
tp863
assVyjshin
p864
(dp865
S'part1_correct_attempt'
p866
(lp867
S'0:02:37'
p868
aV120
p869
asg9
V2015-10-15 11:18:28
p870
sS'part1_incorrect_attempt'
p871
(lp872
(S'0:00:00'
p873
V4*16-4
p874
tp875
assVdcastlem
p876
(dp877
S'part1_correct_attempt'
p878
(lp879
S'10:36:40'
p880
aV16!/((2!)(14!))
p881
asg9
V2015-10-15 04:11:36
p882
sS'part1_incorrect_attempt'
p883
(lp884
(S'0:00:00'
p885
V16!/((1!)*15!)
p886
tp887
assVbkoli
p888
(dp889
S'part1_correct_attempt'
p890
(lp891
S'0:00:35'
p892
aV10!/(8!2!)
p893
asg9
V2015-10-15 20:29:34
p894
sS'part1_incorrect_attempt'
p895
(lp896
(S'0:00:00'
p897
V13*12
p898
tp899
a(S'0:00:14'
p900
V13!/(11!2!)
p901
tp902
assVxil109
p903
(dp904
S'part1_correct_attempt'
p905
(lp906
S'0:19:02'
p907
aVC(16,2)
p908
asg9
V2015-10-10 20:47:23
p909
sS'part1_incorrect_attempt'
p910
(lp911
(S'0:00:00'
p912
VC(16,2)*C(5,2)*C(5,2)*C(14,1)*C(5,1)
p913
tp914
a(S'0:18:53'
p915
VC(16,2)*C(5,2)*C(5,2)
p916
tp917
assVdac064
p918
(dp919
S'part1_correct_attempt'
p920
(lp921
S'0:01:14'
p922
aVC(16,2)
p923
asg9
V2015-10-15 21:50:12
p924
sS'part1_incorrect_attempt'
p925
(lp926
(S'0:00:00'
p927
V16*15*14
p928
tp929
a(S'0:00:20'
p930
V16*16*15
p931
tp932
a(S'0:00:53'
p933
V16*15*14
p934
tp935
assVhkhodada
p936
(dp937
S'part1_correct_attempt'
p938
(lp939
S'0:00:10'
p940
aVC(14,2)
p941
asg9
V2015-10-10 19:45:59
p942
sS'part1_incorrect_attempt'
p943
(lp944
(S'0:00:00'
p945
V4*C(14,2)
p946
tp947
assVnisharma
p948
(dp949
S'part1_correct_attempt'
p950
(lp951
S'19:52:12'
p952
aVC(16,2)
p953
asg9
V2015-10-13 22:19:23
p954
sS'part1_incorrect_attempt'
p955
(lp956
(S'0:00:00'
p957
V96*95
p958
tp959
a(S'0:00:42'
p960
V(96!)/(2!* 95!)
p961
tp962
a(S'0:00:57'
p963
V(96!)/(2!* 94!)
p964
tp965
a(S'2:12:12'
p966
V(6!/(2!*4!))(2*(16!/15!))
p967
tp968
a(S'2:12:56'
p969
V(6!/(2!*4!))*(32)
p970
tp971
a(S'2:14:52'
p972
V(6!/(2!*4!))*(16)
p973
tp974
a(S'2:16:16'
p975
V6!/(2!*4!)
p976
tp977
a(S'0:00:00'
p978
V6!/(2!*4!) * 16*15
p979
tp980
assVglcohen
p981
(dp982
S'part1_correct_attempt'
p983
(lp984
S'0:01:13'
p985
aV(13!)/(11!2!)
p986
asg9
V2015-10-13 05:55:07
p987
sS'part1_incorrect_attempt'
p988
(lp989
(S'0:00:00'
p990
V(13!)/(8!5!)
p991
tp992
assVachava
p993
(dp994
S'part1_correct_attempt'
p995
(lp996
S'0:00:18'
p997
aVC(10,2)
p998
asg9
V2015-10-13 08:07:50
p999
sS'part1_incorrect_attempt'
p1000
(lp1001
(S'0:00:00'
p1002
VC(10,1)
p1003
tp1004
assVd6he
p1005
(dp1006
S'part1_correct_attempt'
p1007
(lp1008
S'0:03:39'
p1009
aV14!/(12!2!)
p1010
asg9
V2015-10-15 06:51:40
p1011
sS'part1_incorrect_attempt'
p1012
(lp1013
(S'0:00:00'
p1014
V13!/(4!9!)
p1015
tp1016
a(S'0:00:31'
p1017
V13!/(2!11!)
p1018
tp1019
a(S'0:00:52'
p1020
V14!/(4!10!)
p1021
tp1022
assVthk002
p1023
(dp1024
S'part1_correct_attempt'
p1025
(lp1026
S'0:20:32'
p1027
aVC(14,2)
p1028
asg9
V2015-10-12 03:46:27
p1029
sS'part1_incorrect_attempt'
p1030
(lp1031
(S'0:00:00'
p1032
VC(84,28)
p1033
tp1034
assVt2li
p1035
(dp1036
S'part1_correct_attempt'
p1037
(lp1038
S'0:13:33'
p1039
aVC(14,2)
p1040
asg9
V2015-10-14 06:45:36
p1041
sS'part1_incorrect_attempt'
p1042
(lp1043
(S'0:00:00'
p1044
VC(14,2)C(13,2)*4^2*C(76,1)
p1045
tp1046
a(S'0:01:11'
p1047
VC(14,2)C(13,2)*6^2*C(76,1)
p1048
tp1049
a(S'0:02:15'
p1050
V14*13*6^2*6*12
p1051
tp1052
a(S'0:02:37'
p1053
VC(6,2)^214*13*6^2*6*12
p1054
tp1055
a(S'0:03:30'
p1056
VC(14,2)*6^3*12
p1057
tp1058
a(S'0:03:57'
p1059
VC(14,2)*6^5*12
p1060
tp1061
a(S'0:04:03'
p1062
VC(14,2)*6^4*12
p1063
tp1064
a(S'0:05:53'
p1065
VC(14,2) *12*6*C(6,2)*C(6,2)
p1066
tp1067
a(S'0:08:15'
p1068
VC(14,3)C(6,2)^2 * 6
p1069
tp1070
a(S'0:10:26'
p1071
V14*13*6*6*5*5*6*12
p1072
tp1073
a(S'0:10:45'
p1074
V14*13*6*6*5*5*6*126
p1075
tp1076
assVbakang
p1077
(dp1078
S'part1_correct_attempt'
p1079
(lp1080
S'0:13:08'
p1081
aVC(11,2)
p1082
asg9
V2015-10-15 02:14:35
p1083
sS'part1_incorrect_attempt'
p1084
(lp1085
(S'0:00:00'
p1086
VC(4,2)*11*44
p1087
tp1088
a(S'0:00:38'
p1089
VC(6,2)*11*44
p1090
tp1091
a(S'0:02:13'
p1092
VC(6,2)*11*11*44
p1093
tp1094
assVjnatale
p1095
(dp1096
S'part1_correct_attempt'
p1097
(lp1098
S'23:57:40'
p1099
aVC(12,2)
p1100
asg9
V2015-10-13 01:53:24
p1101
sS'part1_incorrect_attempt'
p1102
(lp1103
(S'0:00:00'
p1104
V48*3*46*3
p1105
tp1106
a(S'0:00:00'
p1107
V1.0*C(13,2)
p1108
tp1109
a(S'0:00:00'
p1110
V12*C(4,2)+11*C(4,2) + 12
p1111
tp1112
assVnnh002
p1113
(dp1114
S'part1_correct_attempt'
p1115
(lp1116
S'0:14:15'
p1117
aVC(15,2)
p1118
asg9
V2015-10-15 05:58:06
p1119
sS'part1_incorrect_attempt'
p1120
(lp1121
(S'0:00:00'
p1122
V15*C(4,2)*14*C(4,2)
p1123
tp1124
assVtol003
p1125
(dp1126
S'part1_correct_attempt'
p1127
(lp1128
S'0:04:26'
p1129
aVC(14,2)
p1130
asg9
V2015-10-14 00:47:22
p1131
sS'part1_incorrect_attempt'
p1132
(lp1133
(S'0:00:00'
p1134
V13*C(4,2)*12*C(4,2)*11
p1135
tp1136
a(S'0:01:51'
p1137
V14*C(4,2)*13*C(4,2)*12
p1138
tp1139
assVhachrist
p1140
(dp1141
S'part1_correct_attempt'
p1142
(lp1143
S'0:45:26'
p1144
aV13!/(11!*2!)
p1145
asg9
V2015-10-15 01:51:50
p1146
sS'part1_incorrect_attempt'
p1147
(lp1148
(S'0:00:00'
p1149
V30*13
p1150
tp1151
a(S'0:00:00'
p1152
V11!/(10!*1!)
p1153
tp1154
assVkmc012
p1155
(dp1156
S'part1_correct_attempt'
p1157
(lp1158
S'0:01:40'
p1159
aV(12!)/((2!)*(10!))
p1160
asg9
V2015-10-15 02:31:28
p1161
sS'part1_incorrect_attempt'
p1162
(lp1163
(S'0:00:00'
p1164
V12*11*10
p1165
tp1166
assVdaw023
p1167
(dp1168
S'part1_correct_attempt'
p1169
(lp1170
S'2:47:42'
p1171
aVC(15,2)
p1172
asg9
V2015-10-15 03:27:49
p1173
sS'part1_incorrect_attempt'
p1174
(lp1175
(S'0:00:00'
p1176
VC(15,2)^2*C(6,2)*C(15,1)*C(4,1)
p1177
tp1178
a(S'0:00:00'
p1179
VC(15,2)*C(6,2)^2*C(13,1)*C(6,1)
p1180
tp1181
assVlguintu
p1182
(dp1183
S'part1_correct_attempt'
p1184
(lp1185
S'0:07:30'
p1186
aVC(16,2)
p1187
asg9
V2015-10-09 22:00:16
p1188
sS'part1_incorrect_attempt'
p1189
(lp1190
(S'0:00:00'
p1191
VC(5,2)*C(16,1)
p1192
tp1193
a(S'0:00:06'
p1194
V2*C(5,2)*C(16,1)
p1195
tp1196
a(S'0:02:29'
p1197
V5*16
p1198
tp1199
a(S'0:03:14'
p1200
VC(16,1)
p1201
tp1202
a(S'0:03:35'
p1203
VC(80,1)
p1204
tp1205
a(S'0:06:43'
p1206
VC(76,1)
p1207
tp1208
assVcsl030
p1209
(dp1210
S'part1_correct_attempt'
p1211
(lp1212
S'0:08:00'
p1213
aVC(13,2)
p1214
asg9
V2015-10-14 02:08:45
p1215
sS'part1_incorrect_attempt'
p1216
(lp1217
(S'0:00:00'
p1218
VC(13, 1) * C(12,1) * C(11, 1)
p1219
tp1220
a(S'0:00:18'
p1221
VC(13, 1) + C(12,1) + C(11, 1)
p1222
tp1223
a(S'0:06:18'
p1224
VC(13,2) * C(6,2) * C(6,2) * C(11,1) * C(6,1)
p1225
tp1226
assVvolim
p1227
(dp1228
S'part1_correct_attempt'
p1229
(lp1230
S'0:01:07'
p1231
aVC(11,2)
p1232
asg9
V2015-10-12 22:47:56
p1233
sS'part1_incorrect_attempt'
p1234
(lp1235
(S'0:00:00'
p1236
VC(11,1)
p1237
tp1238
assVatorr
p1239
(dp1240
S'part1_correct_attempt'
p1241
(lp1242
S'0:12:29'
p1243
aVC(12,2)
p1244
asg9
V2015-10-11 02:58:38
p1245
sS'part1_incorrect_attempt'
p1246
(lp1247
(S'0:00:00'
p1248
V(12 ^ 2) * (11^2)
p1249
tp1250
a(S'0:08:55'
p1251
V24 * 23
p1252
tp1253
assVcagatep
p1254
(dp1255
S'part1_correct_attempt'
p1256
(lp1257
S'0:08:07'
p1258
aVC(12, 2)
p1259
asg9
V2015-10-14 05:04:34
p1260
sS'part1_incorrect_attempt'
p1261
(lp1262
(S'0:00:00'
p1263
VC(12,2) * C(36, 3) * 4
p1264
tp1265
a(S'0:00:44'
p1266
VC(12,2) * C(12, 2)
p1267
tp1268
a(S'0:01:08'
p1269
VC(12,2) * C(12, 2) * 4
p1270
tp1271
a(S'0:02:08'
p1272
VC(12,1) * C(12,1) * 4
p1273
tp1274
a(S'0:02:45'
p1275
VC(12,1) * C(11,1)*4
p1276
tp1277
assVytc012
p1278
(dp1279
S'part1_correct_attempt'
p1280
(lp1281
S'0:21:23'
p1282
aV15!/(2!13!)
p1283
asg9
V2015-10-15 09:03:27
p1284
sS'part1_incorrect_attempt'
p1285
(lp1286
(S'0:00:00'
p1287
V15*6*15*5
p1288
tp1289
a(S'0:00:05'
p1290
V15*6+15*5
p1291
tp1292
a(S'0:01:31'
p1293
V6!15!(2!4!2!13!)
p1294
tp1295
a(S'0:01:37'
p1296
V6!15!/(2!4!2!13!)
p1297
tp1298
a(S'0:13:54'
p1299
V15*5!/(2!3!)*15*5!/(2!3!)
p1300
tp1301
assVklala
p1302
(dp1303
S'part1_correct_attempt'
p1304
(lp1305
S'0:01:24'
p1306
aVC(13,2)
p1307
asg9
V2015-10-12 04:39:56
p1308
sS'part1_incorrect_attempt'
p1309
(lp1310
(S'0:00:00'
p1311
VC(13,1)
p1312
tp1313
assVppanourg
p1314
(dp1315
S'part1_correct_attempt'
p1316
(lp1317
S'12:02:32'
p1318
aVC(10,2)
p1319
asg9
V2015-10-15 07:46:11
p1320
sS'part1_incorrect_attempt'
p1321
(lp1322
(S'0:00:00'
p1323
V4(C(10,2)*C(3,1)*C(10,2))
p1324
tp1325
a(S'0:05:05'
p1326
VC(4,1)C(10,1)C(3,1)C(2,1)C(10,1)
p1327
tp1328
a(S'0:05:37'
p1329
V[C(4,1)C(10,1)C(3,1)C(2,1)C(10,1)]*4
p1330
tp1331
a(S'0:00:00'
p1332
V10+9+8+7+6+5+4+3+2+1
p1333
tp1334
a(S'0:00:00'
p1335
V40*36
p1336
tp1337
a(S'0:02:00'
p1338
VC(10,1)*C(4,2) + C(9,1)*C(4,2)
p1339
tp1340
a(S'0:02:45'
p1341
VC(10,1)*C(4,2)*C(9,1)*C(4,2)
p1342
tp1343
a(S'0:00:00'
p1344
V3^2(9+8+7+6+5+4+3+2+1)
p1345
tp1346
assVewbrenna
p1347
(dp1348
S'part1_correct_attempt'
p1349
(lp1350
S'0:01:53'
p1351
aV78
p1352
asg9
V2015-10-12 20:26:08
p1353
sS'part1_incorrect_attempt'
p1354
(lp1355
(S'0:00:00'
p1356
V6*5
p1357
tp1358
a(S'0:00:59'
p1359
V13*12*13*12
p1360
tp1361
a(S'0:01:14'
p1362
V6*5
p1363
tp1364
assVmasaro
p1365
(dp1366
S'part1_correct_attempt'
p1367
(lp1368
S'0:04:53'
p1369
aV105
p1370
asg9
V2015-10-10 09:46:33
p1371
sS'part1_incorrect_attempt'
p1372
(lp1373
(S'0:00:00'
p1374
V15*6*10+14*6*10
p1375
tp1376
assVpcdo
p1377
(dp1378
S'part1_correct_attempt'
p1379
(lp1380
S'0:01:39'
p1381
aVC(16,2)
p1382
asg9
V2015-10-13 20:19:21
p1383
sS'part1_incorrect_attempt'
p1384
(lp1385
(S'0:00:00'
p1386
VC(16,2)C(5,2)C(5,2)5*14
p1387
tp1388
assVvsosnovs
p1389
(dp1390
S'part1_correct_attempt'
p1391
(lp1392
S'0:00:42'
p1393
aVC(14,2)
p1394
asg9
V2015-10-15 04:30:34
p1395
sS'part1_incorrect_attempt'
p1396
(lp1397
(S'0:00:00'
p1398
VC((6*14),5)
p1399
tp1400
assVamquinte
p1401
(dp1402
S'part1_correct_attempt'
p1403
(lp1404
S'0:01:54'
p1405
aVC(12,2)
p1406
asg9
V2015-10-14 18:17:10
p1407
sS'part1_incorrect_attempt'
p1408
(lp1409
(S'0:00:00'
p1410
VC(72,4)
p1411
tp1412
assVgsrandha
p1413
(dp1414
g9
V2015-10-13 06:29:41
p1415
sS'part1_incorrect_attempt'
p1416
(lp1417
(S'0:00:00'
p1418
V100*100
p1419
tp1420
assVjhc010
p1421
(dp1422
S'part1_correct_attempt'
p1423
(lp1424
S'0:02:01'
p1425
aVC(10,2)
p1426
asg9
V2015-10-15 16:12:58
p1427
sS'part1_incorrect_attempt'
p1428
(lp1429
(S'0:00:00'
p1430
V13*13
p1431
tp1432
a(S'0:01:00'
p1433
V100-10
p1434
tp1435
assVanl114
p1436
(dp1437
S'part1_correct_attempt'
p1438
(lp1439
S'0:07:20'
p1440
aV66
p1441
asg9
V2015-10-15 08:23:20
p1442
sS'part1_incorrect_attempt'
p1443
(lp1444
(S'0:00:00'
p1445
V6^4
p1446
tp1447
a(S'0:00:13'
p1448
V4^6
p1449
tp1450
a(S'0:01:36'
p1451
V36*35
p1452
tp1453
a(S'0:05:54'
p1454
V12*15*11*15
p1455
tp1456
assVtwsalim
p1457
(dp1458
S'part1_correct_attempt'
p1459
(lp1460
S'0:56:26'
p1461
aV105
p1462
asg9
V2015-10-11 23:14:15
p1463
sS'part1_incorrect_attempt'
p1464
(lp1465
(S'0:00:00'
p1466
V15!/(3!12!)
p1467
tp1468
assVs6deng
p1469
(dp1470
S'part1_correct_attempt'
p1471
(lp1472
S'0:02:11'
p1473
aVC(11,2)
p1474
asg9
V2015-10-14 03:53:55
p1475
sS'part1_incorrect_attempt'
p1476
(lp1477
(S'0:00:00'
p1478
V11!/7!
p1479
tp1480
assVkalang
p1481
(dp1482
S'part1_correct_attempt'
p1483
(lp1484
S'23:55:22'
p1485
aVC(16,2)
p1486
asg9
V2015-10-14 23:19:39
p1487
sS'part1_incorrect_attempt'
p1488
(lp1489
(S'0:00:00'
p1490
VC(16,2)*C(5,2)^2*C(14,1)*5
p1491
tp1492
assVjcl084
p1493
(dp1494
S'part1_correct_attempt'
p1495
(lp1496
S'0:02:49'
p1497
aVC(10,2)
p1498
asg9
V2015-10-13 20:42:58
p1499
sS'part1_incorrect_attempt'
p1500
(lp1501
(S'0:00:00'
p1502
VC(10,2)*C(10,2)
p1503
tp1504
a(S'0:00:07'
p1505
VC(10,2)+C(10,2)
p1506
tp1507
assVajabasa
p1508
(dp1509
S'part1_correct_attempt'
p1510
(lp1511
S'0:13:27'
p1512
aVC(13,2)
p1513
asg9
V2015-10-14 07:18:33
p1514
sS'part1_incorrect_attempt'
p1515
(lp1516
(S'0:00:00'
p1517
V13*12*4
p1518
tp1519
a(S'0:00:19'
p1520
V13*12*4!
p1521
tp1522
assVmcatozzi
p1523
(dp1524
S'part1_correct_attempt'
p1525
(lp1526
S'0:02:44'
p1527
aVC(11,2)
p1528
asg9
V2015-10-14 00:44:58
p1529
sS'part1_incorrect_attempt'
p1530
(lp1531
(S'0:00:00'
p1532
VC(55,2)*C(4,2)*C(53,2)*C(4,2)*C(51,1)
p1533
tp1534
a(S'0:00:23'
p1535
VC(55,2)*C(5,2)*C(53,2)*C(5,2)*C(51,1)
p1536
tp1537
a(S'0:00:00'
p1538
VC(11,2)*C(4,2)*C(51,1)
p1539
tp1540
a(S'0:00:29'
p1541
VC(11,2)*C(5,2)*C(51,1)
p1542
tp1543
a(S'0:00:50'
p1544
VC(11,2)*C(5,2)*C(51,1)*C(4,1)
p1545
tp1546
assVhmshah
p1547
(dp1548
S'part1_correct_attempt'
p1549
(lp1550
S'0:05:45'
p1551
aVC(13,2)
p1552
asg9
V2015-10-14 03:02:14
p1553
sS'part1_incorrect_attempt'
p1554
(lp1555
(S'0:00:00'
p1556
VC(39,1)
p1557
tp1558
a(S'0:00:14'
p1559
VC(50,1)
p1560
tp1561
a(S'0:00:32'
p1562
VC(13,1)
p1563
tp1564
a(S'0:03:57'
p1565
VC(11,1)
p1566
tp1567
a(S'0:04:29'
p1568
VC(13,2)*C(12,2)
p1569
tp1570
assVlahawkin
p1571
(dp1572
S'part1_correct_attempt'
p1573
(lp1574
S'0:00:11'
p1575
aV12!/(10!*2!)
p1576
asg9
V2015-10-14 05:23:43
p1577
sS'part1_incorrect_attempt'
p1578
(lp1579
(S'0:00:00'
p1580
V12!/(8!*4!)
p1581
tp1582
assVr2fisher
p1583
(dp1584
S'part1_correct_attempt'
p1585
(lp1586
S'0:03:22'
p1587
aV10!/(8!*2!)
p1588
asg9
V2015-10-14 23:20:25
p1589
sS'part1_incorrect_attempt'
p1590
(lp1591
(S'0:00:00'
p1592
V2^10
p1593
tp1594
assVvasharma
p1595
(dp1596
S'part1_correct_attempt'
p1597
(lp1598
S'0:00:36'
p1599
aVC(11,2)
p1600
asg9
V2015-10-10 07:50:21
p1601
sS'part1_incorrect_attempt'
p1602
(lp1603
(S'0:00:00'
p1604
V6*11
p1605
tp1606
a(S'0:00:20'
p1607
VC(11,1)
p1608
tp1609
assVxweng
p1610
(dp1611
S'part1_correct_attempt'
p1612
(lp1613
S'3:01:17'
p1614
aVC(16,2)
p1615
asg9
V2015-10-12 23:14:14
p1616
sS'part1_incorrect_attempt'
p1617
(lp1618
(S'0:00:00'
p1619
V64*63*18*14*4
p1620
tp1621
a(S'0:00:00'
p1622
VC(16,2)C(4,2)C(4,2)C(14,1)C(4,1)
p1623
tp1624
a(S'0:00:35'
p1625
VC(16,2)C(4,2)C(4,2)
p1626
tp1627
a(S'0:00:00'
p1628
VC(16,1)C(4,2)C(15,1)C(4,2)56
p1629
tp1630
a(S'0:00:52'
p1631
VC(16,2)C(4,2)C(4,2)
p1632
tp1633
assVc3chung
p1634
(dp1635
g9
V2015-10-15 23:00:44
p1636
sS'part1_incorrect_attempt'
p1637
(lp1638
(S'0:00:00'
p1639
V5^5
p1640
tp1641
a(S'0:00:32'
p1642
VC(75,5)
p1643
tp1644
a(S'0:01:38'
p1645
VC(15,2)C(5,2)C(5,2)C(71,1)
p1646
tp1647
a(S'0:08:54'
p1648
VC(5,2)C(15,1)C(5,2)C(14,1)C(5,1)C(13,1)
p1649
tp1650
a(S'0:12:31'
p1651
VC(15,2)C(5,2)71
p1652
tp1653
a(S'0:13:17'
p1654
VC(15,2)C(5,2)(75-10)
p1655
tp1656
a(S'0:13:57'
p1657
VC(15,2)C(5,2)C(5,2)(75-10)
p1658
tp1659
a(S'0:15:37'
p1660
VC(15,1)C(14,1)C(5,2)C(5,2)(75-10)
p1661
tp1662
assVmtrafeca
p1663
(dp1664
S'part1_correct_attempt'
p1665
(lp1666
S'14:03:38'
p1667
aV13!/(11!*2!)
p1668
asg9
V2015-10-11 07:35:01
p1669
sS'part1_incorrect_attempt'
p1670
(lp1671
(S'0:00:00'
p1672
V36*11
p1673
tp1674
a(S'0:00:00'
p1675
V11*12
p1676
tp1677
a(S'0:00:08'
p1678
V11*10
p1679
tp1680
a(S'0:00:40'
p1681
V4*13
p1682
tp1683
assVkgrozav
p1684
(dp1685
S'part1_correct_attempt'
p1686
(lp1687
S'0:00:29'
p1688
aVC(16,2)
p1689
asg9
V2015-10-15 19:22:22
p1690
sS'part1_incorrect_attempt'
p1691
(lp1692
(S'0:00:00'
p1693
VC(6,2)*C(16,2)*C(16,14)*C(6,4)
p1694
tp1695
assVj2phung
p1696
(dp1697
S'part1_correct_attempt'
p1698
(lp1699
S'0:00:58'
p1700
aV13!/(2!11!)
p1701
asg9
V2015-10-14 07:41:08
p1702
sS'part1_incorrect_attempt'
p1703
(lp1704
(S'0:00:00'
p1705
V4(13!/(2!11!))
p1706
tp1707
a(S'0:00:16'
p1708
V4(13!/(2!11!))(13!/(2!11!))
p1709
tp1710
asssV3
p1711
(dp1712
Vphodgson
p1713
(dp1714
S'part3_correct_attempt'
p1715
(lp1716
S'2 days, 4:54:00'
p1717
aVC(4,2)*C(4,2)
p1718
asS'part3_incorrect_attempt'
p1719
(lp1720
(S'0:00:00'
p1721
VC(4,2)
p1722
tp1723
a(S'0:01:51'
p1724
V4^4
p1725
tp1726
a(S'0:02:45'
p1727
V2*C(4,2)
p1728
tp1729
a(S'2 days, 4:33:47'
p1730
V2 * C(4,2)
p1731
tp1732
a(S'2 days, 4:34:50'
p1733
V2 * C(4,2) - 1
p1734
tp1735
a(S'2 days, 4:35:40'
p1736
V2 * (C(4,2) -1) 
p1737
tp1738
a(S'2 days, 4:39:58'
p1739
VC(4,2)
p1740
tp1741
a(S'2 days, 4:41:26'
p1742
V2*C(4,2)
p1743
tp1744
a(S'2 days, 4:45:48'
p1745
V4*C(4,2)
p1746
tp1747
a(S'2 days, 4:46:05'
p1748
V2*C(4,3)
p1749
tp1750
a(S'2 days, 4:47:16'
p1751
V2*6
p1752
tp1753
a(S'2 days, 4:50:11'
p1754
V2*6 - 4
p1755
tp1756
a(S'2 days, 4:52:55'
p1757
V4^4
p1758
tp1759
asS'part1_correct_attempt'
p1760
(lp1761
S'0:00:00'
p1762
aVC(10,2)
p1763
asg9
V2015-10-13 02:32:10
p1764
ssVapokhare
p1765
(dp1766
S'part3_correct_attempt'
p1767
(lp1768
S'0:02:23'
p1769
aV[4!/(2!*2!)]^2
p1770
asS'part3_incorrect_attempt'
p1771
(lp1772
(S'0:00:59'
p1773
V4!/(2!*2!)
p1774
tp1775
asS'part1_correct_attempt'
p1776
(lp1777
S'0:00:00'
p1778
aV16!/(2!*14!)
p1779
asg9
V2015-10-13 18:50:53
p1780
ssVv4zhang
p1781
(dp1782
S'part3_correct_attempt'
p1783
(lp1784
S'0:05:20'
p1785
aVC(4, 2)*C(4, 2)
p1786
asS'part3_incorrect_attempt'
p1787
(lp1788
(S'0:00:00'
p1789
VC(4, 2)
p1790
tp1791
a(S'0:01:34'
p1792
VC(3, 2)
p1793
tp1794
a(S'0:02:07'
p1795
V4 
p1796
tp1797
a(S'0:02:59'
p1798
VC(4, 1)*C(3, 1)
p1799
tp1800
a(S'0:03:57'
p1801
VC(4, 2)
p1802
tp1803
asS'part1_correct_attempt'
p1804
(lp1805
S'0:00:00'
p1806
ag21
asg9
V2015-10-15 07:34:12
p1807
ssVkvass
p1808
(dp1809
S'part3_correct_attempt'
p1810
(lp1811
S'0:01:03'
p1812
aVC(4,2)**2
p1813
asS'part3_incorrect_attempt'
p1814
(lp1815
(S'0:00:00'
p1816
VC(4,2)
p1817
tp1818
asS'part1_correct_attempt'
p1819
(lp1820
S'0:00:00'
p1821
ag33
asg9
V2015-10-14 06:57:18
p1822
ssVjguanzho
p1823
(dp1824
S'part3_correct_attempt'
p1825
(lp1826
S'0:45:42'
p1827
aV(5!/(2!*3!))**2
p1828
asS'part3_incorrect_attempt'
p1829
(lp1830
(S'0:00:00'
p1831
V4!/(2! * 2!)
p1832
tp1833
a(S'0:00:22'
p1834
V4!/(3!)
p1835
tp1836
a(S'0:00:52'
p1837
V4!/(2!)
p1838
tp1839
a(S'0:36:37'
p1840
V5!/(4!)
p1841
tp1842
a(S'0:38:22'
p1843
V5*4
p1844
tp1845
a(S'0:45:29'
p1846
V(5!/(2!))**2
p1847
tp1848
asS'part1_correct_attempt'
p1849
(lp1850
S'0:00:00'
p1851
aV14!/(12!*2!)
p1852
asg9
V2015-10-09 20:24:36
p1853
ssValakamsa
p1854
(dp1855
S'part3_correct_attempt'
p1856
(lp1857
S'0:25:07'
p1858
aVC(6,2)^2
p1859
asS'part3_incorrect_attempt'
p1860
(lp1861
(S'0:01:28'
p1862
VC(6,2)
p1863
tp1864
asS'part1_correct_attempt'
p1865
(lp1866
S'0:00:00'
p1867
aVC(11,2)
p1868
asg9
V2015-10-10 20:47:32
p1869
ssVjhc010
p1870
(dp1871
S'part3_correct_attempt'
p1872
(lp1873
S'0:09:34'
p1874
aVC(6,2)*C(6,2)
p1875
asS'part3_incorrect_attempt'
p1876
(lp1877
(S'0:01:15'
p1878
VC(6,2)
p1879
tp1880
a(S'0:02:10'
p1881
VC(6,4)
p1882
tp1883
a(S'0:02:44'
p1884
V6*5
p1885
tp1886
a(S'0:03:02'
p1887
V6*5*6*5
p1888
tp1889
a(S'0:03:53'
p1890
VC(6,2)
p1891
tp1892
a(S'0:04:15'
p1893
VC(6,2)+C(6,3)+C(6,4)
p1894
tp1895
a(S'0:04:36'
p1896
V4^6
p1897
tp1898
a(S'0:06:12'
p1899
V6*2
p1900
tp1901
a(S'0:09:20'
p1902
VC(6,2)
p1903
tp1904
asS'part1_correct_attempt'
p1905
(lp1906
S'0:00:00'
p1907
ag1426
asg9
V2015-10-15 16:14:59
p1908
ssVdkurli
p1909
(dp1910
S'part3_correct_attempt'
p1911
(lp1912
S'0:01:09'
p1913
aV36
p1914
asS'part3_incorrect_attempt'
p1915
(lp1916
(S'0:00:36'
p1917
V4!/2!/2!
p1918
tp1919
asS'part1_correct_attempt'
p1920
(lp1921
S'0:00:00'
p1922
ag75
asg9
V2015-10-14 04:07:37
p1923
ssVj5phung
p1924
(dp1925
S'part3_correct_attempt'
p1926
(lp1927
S'0:03:22'
p1928
aVC(5,2)^2
p1929
asS'part3_incorrect_attempt'
p1930
(lp1931
(S'0:02:06'
p1932
VC(5,2)
p1933
tp1934
a(S'0:02:34'
p1935
VC(5,4)
p1936
tp1937
asS'part1_correct_attempt'
p1938
(lp1939
S'0:00:00'
p1940
ag105
asg9
V2015-10-09 18:50:05
p1941
ssVhaw081
p1942
(dp1943
S'part3_correct_attempt'
p1944
(lp1945
S'3 days, 0:04:13'
p1946
aVC(6,2)^2
p1947
asS'part3_incorrect_attempt'
p1948
(lp1949
(S'2 days, 0:31:10'
p1950
VC(6,4)
p1951
tp1952
a(S'2 days, 0:31:49'
p1953
VC(6,1)*C(5,1)*C(6,1)*C(5,1)
p1954
tp1955
a(S'2 days, 20:09:54'
p1956
VC(4,1)*C(3,1)
p1957
tp1958
asS'part1_correct_attempt'
p1959
(lp1960
S'0:00:00'
p1961
aVC(15,2)
p1962
asg9
V2015-10-11 00:21:36
p1963
ssVjew037
p1964
(dp1965
S'part3_correct_attempt'
p1966
(lp1967
S'0:01:19'
p1968
aVC(6,2)^2
p1969
asS'part3_incorrect_attempt'
p1970
(lp1971
(S'0:00:31'
p1972
VC(6,2)
p1973
tp1974
asS'part1_correct_attempt'
p1975
(lp1976
S'0:00:00'
p1977
aVC(10,2)
p1978
asg9
V2015-10-14 04:29:23
p1979
ssVbtn023
p1980
(dp1981
S'part3_correct_attempt'
p1982
(lp1983
S'1 day, 14:31:49'
p1984
aVC(4,2)^2
p1985
asS'part3_incorrect_attempt'
p1986
(lp1987
(S'0:00:00'
p1988
VC(4,2)
p1989
tp1990
asS'part1_correct_attempt'
p1991
(lp1992
S'0:00:00'
p1993
aVC(16,2)
p1994
asg9
V2015-10-13 07:39:51
p1995
ssVlalacson
p1996
(dp1997
S'part3_correct_attempt'
p1998
(lp1999
S'0:02:06'
p2000
aVC(4,2)^2
p2001
asS'part3_incorrect_attempt'
p2002
(lp2003
(S'0:00:00'
p2004
VC(4,2)
p2005
tp2006
a(S'0:00:21'
p2007
VC(4,1)
p2008
tp2009
a(S'0:00:28'
p2010
VC(4,2)
p2011
tp2012
a(S'0:00:38'
p2013
VC(4,3)
p2014
tp2015
a(S'0:01:34'
p2016
V2*C(4,2)
p2017
tp2018
asS'part1_correct_attempt'
p2019
(lp2020
S'0:00:00'
p2021
aVC(13,2)
p2022
asg9
V2015-10-11 22:49:16
p2023
ssVssamudra
p2024
(dp2025
S'part3_incorrect_attempt'
p2026
(lp2027
(S'0:01:55'
p2028
V4!/(2!2!)
p2029
tp2030
asS'part1_correct_attempt'
p2031
(lp2032
S'0:00:00'
p2033
aV13!/(11!2!)
p2034
asg9
V2015-10-15 18:28:43
p2035
ssVtcn013
p2036
(dp2037
S'part3_correct_attempt'
p2038
(lp2039
S'0:05:18'
p2040
aVC(6,2)*C(6,2)
p2041
asS'part3_incorrect_attempt'
p2042
(lp2043
(S'0:00:32'
p2044
VC(6,2)
p2045
tp2046
a(S'0:04:37'
p2047
V2*C(6,2)
p2048
tp2049
a(S'0:04:54'
p2050
V4*C(13,5)*C(3*13,2)*C(6,2)
p2051
tp2052
asS'part1_correct_attempt'
p2053
(lp2054
S'0:00:00'
p2055
ag197
asg9
V2015-10-15 04:00:44
p2056
ssVtstevens
p2057
(dp2058
S'part3_correct_attempt'
p2059
(lp2060
S'4 days, 16:56:38'
p2061
aVC(5,2)*C(5,2)
p2062
asS'part3_incorrect_attempt'
p2063
(lp2064
(S'0:07:16'
p2065
V5*4
p2066
tp2067
a(S'0:25:08'
p2068
V5^5
p2069
tp2070
a(S'0:25:16'
p2071
V2^5
p2072
tp2073
asS'part1_correct_attempt'
p2074
(lp2075
S'0:00:00'
p2076
aV66
p2077
asg9
V2015-10-10 10:45:04
p2078
ssVpthsu
p2079
(dp2080
S'part3_correct_attempt'
p2081
(lp2082
S'0:00:30'
p2083
aVC(6,2)^2
p2084
asS'part3_incorrect_attempt'
p2085
(lp2086
(S'0:00:00'
p2087
VC(4,2)^2
p2088
tp2089
asS'part1_correct_attempt'
p2090
(lp2091
S'0:00:00'
p2092
aVC(13,2)
p2093
asg9
V2015-10-10 20:31:56
p2094
ssVmrchin
p2095
(dp2096
S'part3_correct_attempt'
p2097
(lp2098
S'3:22:25'
p2099
aV36
p2100
asS'part3_incorrect_attempt'
p2101
(lp2102
(S'0:00:15'
p2103
V4!/(2!*2!)
p2104
tp2105
a(S'0:02:06'
p2106
V(4+2-1)!/(2!*(2-1)!)
p2107
tp2108
a(S'0:03:22'
p2109
V2^4
p2110
tp2111
a(S'0:06:04'
p2112
V4^4
p2113
tp2114
a(S'3:16:54'
p2115
V4!/(2!*2!)
p2116
tp2117
asS'part1_correct_attempt'
p2118
(lp2119
S'0:00:00'
p2120
aV10!/(8!*2!)
p2121
asg9
V2015-10-14 19:27:36
p2122
ssVdjk006
p2123
(dp2124
S'part3_correct_attempt'
p2125
(lp2126
S'0:23:11'
p2127
aV36
p2128
asS'part3_incorrect_attempt'
p2129
(lp2130
(S'0:02:36'
p2131
V4!/2!(2!)
p2132
tp2133
a(S'0:02:47'
p2134
V4!/4
p2135
tp2136
a(S'0:03:22'
p2137
V4!/(2!2!)
p2138
tp2139
a(S'0:04:00'
p2140
V4^2
p2141
tp2142
a(S'0:12:11'
p2143
V6!/(2!4!)
p2144
tp2145
a(S'0:12:37'
p2146
V5!/(2!3!)
p2147
tp2148
asS'part1_correct_attempt'
p2149
(lp2150
S'0:00:00'
p2151
aV14*13/2
p2152
asg9
V2015-10-11 02:52:07
p2153
ssVaysee
p2154
(dp2155
S'part3_correct_attempt'
p2156
(lp2157
S'0:44:48'
p2158
aVC(5,2)*C(5,2)
p2159
asS'part3_incorrect_attempt'
p2160
(lp2161
(S'0:00:00'
p2162
VC(5,2)
p2163
tp2164
asS'part1_correct_attempt'
p2165
(lp2166
S'0:00:00'
p2167
aVC(13,2)
p2168
asg9
V2015-10-13 21:27:01
p2169
ssVdando
p2170
(dp2171
S'part3_correct_attempt'
p2172
(lp2173
S'0:37:08'
p2174
aVC(5,2)*C(5,2)
p2175
asS'part3_incorrect_attempt'
p2176
(lp2177
(S'0:00:00'
p2178
V2 * 5!/(3!2)
p2179
tp2180
a(S'0:04:09'
p2181
V2*(5!/(3!2))
p2182
tp2183
asS'part1_correct_attempt'
p2184
(lp2185
S'0:00:00'
p2186
ag224
asg9
V2015-10-15 20:52:58
p2187
ssVglcohen
p2188
(dp2189
S'part3_correct_attempt'
p2190
(lp2191
S'15:28:01'
p2192
aV100
p2193
asS'part3_incorrect_attempt'
p2194
(lp2195
(S'0:08:40'
p2196
V78/2
p2197
tp2198
asS'part1_correct_attempt'
p2199
(lp2200
S'0:00:00'
p2201
ag986
asg9
V2015-10-13 05:56:20
p2202
ssVanvan
p2203
(dp2204
S'part3_correct_attempt'
p2205
(lp2206
S'0:03:36'
p2207
aV( 5!/(2!3!) )^2
p2208
asS'part3_incorrect_attempt'
p2209
(lp2210
(S'0:00:37'
p2211
V5*4
p2212
tp2213
a(S'0:03:06'
p2214
V(5!/2!3!)^2
p2215
tp2216
asS'part1_correct_attempt'
p2217
(lp2218
S'0:00:00'
p2219
ag266
asg9
V2015-10-15 02:34:29
p2220
ssVm4bui
p2221
(dp2222
S'part3_correct_attempt'
p2223
(lp2224
S'0:52:56'
p2225
aVC(6,2)C(6,2)
p2226
asS'part3_incorrect_attempt'
p2227
(lp2228
(S'0:00:40'
p2229
VC(6,2)
p2230
tp2231
a(S'0:03:00'
p2232
VC(9,2)
p2233
tp2234
a(S'0:47:55'
p2235
V55-6
p2236
tp2237
asS'part1_correct_attempt'
p2238
(lp2239
S'0:00:00'
p2240
aVC(11,2)
p2241
asg9
V2015-10-15 22:33:01
p2242
ssVacvuong
p2243
(dp2244
S'part3_correct_attempt'
p2245
(lp2246
S'0:04:14'
p2247
aVC(5,2)*C(5,2)
p2248
asS'part3_incorrect_attempt'
p2249
(lp2250
(S'0:00:00'
p2251
VC(4,2)
p2252
tp2253
a(S'0:02:05'
p2254
V2*C(4,2)
p2255
tp2256
a(S'0:03:23'
p2257
VC(5,2)
p2258
tp2259
a(S'0:03:31'
p2260
V2*C(5,2)
p2261
tp2262
asS'part1_correct_attempt'
p2263
(lp2264
S'0:00:00'
p2265
aVC(10,2)
p2266
asg9
V2015-10-13 04:48:59
p2267
ssVflhernan
p2268
(dp2269
S'part3_correct_attempt'
p2270
(lp2271
S'0:03:39'
p2272
aVC(4,2)^2
p2273
asS'part3_incorrect_attempt'
p2274
(lp2275
(S'0:02:34'
p2276
V2*C(4,2)
p2277
tp2278
asS'part1_correct_attempt'
p2279
(lp2280
S'0:00:00'
p2281
ag284
asg9
V2015-10-14 19:52:56
p2282
ssVa2ahmed
p2283
(dp2284
S'part3_correct_attempt'
p2285
(lp2286
S'2:30:15'
p2287
aVC(6,2)*C(6,2)
p2288
asS'part3_incorrect_attempt'
p2289
(lp2290
(S'0:00:32'
p2291
VC(6,4)
p2292
tp2293
a(S'0:02:24'
p2294
VC(6,2)
p2295
tp2296
a(S'0:02:56'
p2297
VC(6,4)
p2298
tp2299
asS'part1_correct_attempt'
p2300
(lp2301
S'0:00:00'
p2302
ag311
asg9
V2015-10-15 19:49:52
p2303
ssVc1wei
p2304
(dp2305
S'part3_correct_attempt'
p2306
(lp2307
S'0:04:34'
p2308
aV36
p2309
asS'part3_incorrect_attempt'
p2310
(lp2311
(S'0:01:48'
p2312
V12*12
p2313
tp2314
a(S'0:02:03'
p2315
V144*4
p2316
tp2317
asS'part1_correct_attempt'
p2318
(lp2319
S'0:00:00'
p2320
aV105
p2321
asg9
V2015-10-14 20:50:03
p2322
ssVarc013
p2323
(dp2324
S'part3_correct_attempt'
p2325
(lp2326
S'0:02:40'
p2327
aV(C(6,2))^2
p2328
asS'part3_incorrect_attempt'
p2329
(lp2330
(S'0:00:56'
p2331
V6*6*6*6
p2332
tp2333
asS'part1_correct_attempt'
p2334
(lp2335
S'0:00:00'
p2336
aVC(12, 2) 
p2337
asg9
V2015-10-14 03:35:49
p2338
ssVmitopete
p2339
(dp2340
S'part3_correct_attempt'
p2341
(lp2342
S'0:25:30'
p2343
aV36
p2344
asS'part3_incorrect_attempt'
p2345
(lp2346
(S'0:00:46'
p2347
V4!/(2!2!)
p2348
tp2349
a(S'0:00:57'
p2350
V4!
p2351
tp2352
a(S'0:02:47'
p2353
V4!/(1!3!)*(3!/(1!2!))
p2354
tp2355
a(S'0:02:59'
p2356
V4!/(1!3!)+(3!/(1!2!))
p2357
tp2358
a(S'0:03:24'
p2359
V4!/(2!2!)
p2360
tp2361
a(S'0:09:14'
p2362
V4!
p2363
tp2364
a(S'0:16:59'
p2365
V44!/(2!42!)
p2366
tp2367
a(S'0:17:58'
p2368
V44!/(4!40!)
p2369
tp2370
asS'part1_correct_attempt'
p2371
(lp2372
S'0:00:00'
p2373
ag329
asg9
V2015-10-13 20:57:22
p2374
ssVtak068
p2375
(dp2376
S'part3_correct_attempt'
p2377
(lp2378
S'0:03:54'
p2379
aVC(6,2)^2
p2380
asS'part3_incorrect_attempt'
p2381
(lp2382
(S'0:02:03'
p2383
VC(4,2)^2
p2384
tp2385
a(S'0:02:26'
p2386
VC(6,2)
p2387
tp2388
a(S'0:02:49'
p2389
VC(4,2)
p2390
tp2391
a(S'0:02:54'
p2392
VC(4,1)
p2393
tp2394
a(S'0:03:25'
p2395
VC(4,2)
p2396
tp2397
a(S'0:03:48'
p2398
VC(6,2)
p2399
tp2400
asS'part1_correct_attempt'
p2401
(lp2402
S'0:00:00'
p2403
ag359
asg9
V2015-10-14 07:31:50
p2404
ssVm8woo
p2405
(dp2406
S'part3_correct_attempt'
p2407
(lp2408
S'0:05:12'
p2409
aV5*4*5*4/4
p2410
asS'part3_incorrect_attempt'
p2411
(lp2412
(S'0:01:52'
p2413
V4*3
p2414
tp2415
a(S'0:04:55'
p2416
V20^2
p2417
tp2418
asS'part1_correct_attempt'
p2419
(lp2420
S'0:00:00'
p2421
ag374
asg9
V2015-10-10 01:16:11
p2422
ssVggaddi
p2423
(dp2424
S'part3_correct_attempt'
p2425
(lp2426
S'0:10:41'
p2427
aV[5!/(3!*2!)]^2
p2428
asS'part3_incorrect_attempt'
p2429
(lp2430
(S'0:06:52'
p2431
V5*4
p2432
tp2433
asS'part1_correct_attempt'
p2434
(lp2435
S'0:00:00'
p2436
aV10!/(8!*2!)
p2437
asg9
V2015-10-13 18:33:28
p2438
ssVjhp077
p2439
(dp2440
S'part3_correct_attempt'
p2441
(lp2442
S'0:15:58'
p2443
aVC(6,2)*C(6,2)
p2444
asS'part3_incorrect_attempt'
p2445
(lp2446
(S'0:15:42'
p2447
VC(6,2)
p2448
tp2449
asS'part1_correct_attempt'
p2450
(lp2451
S'0:00:00'
p2452
ag386
asg9
V2015-10-15 06:16:46
p2453
ssVjit002
p2454
(dp2455
S'part3_correct_attempt'
p2456
(lp2457
S'0:10:17'
p2458
aVC(6,2)*C(6,2)
p2459
asS'part3_incorrect_attempt'
p2460
(lp2461
(S'0:09:02'
p2462
VC(6,2)
p2463
tp2464
asS'part1_correct_attempt'
p2465
(lp2466
S'0:00:00'
p2467
ag416
asg9
V2015-10-15 06:17:38
p2468
ssVdruble
p2469
(dp2470
S'part3_correct_attempt'
p2471
(lp2472
S'0:01:16'
p2473
aVC(5,2) * C(5,2)
p2474
asS'part3_incorrect_attempt'
p2475
(lp2476
(S'0:00:00'
p2477
V5*4
p2478
tp2479
asS'part1_correct_attempt'
p2480
(lp2481
S'0:00:00'
p2482
ag431
asg9
V2015-10-13 01:41:50
p2483
ssVh4tu
p2484
(dp2485
S'part3_correct_attempt'
p2486
(lp2487
S'0:03:23'
p2488
aV(6*5/2)^2
p2489
asS'part3_incorrect_attempt'
p2490
(lp2491
(S'0:02:07'
p2492
V16!/12!
p2493
tp2494
a(S'0:03:08'
p2495
V6*5
p2496
tp2497
asS'part1_correct_attempt'
p2498
(lp2499
S'0:00:00'
p2500
ag443
asg9
V2015-10-15 07:32:14
p2501
ssVccn001
p2502
(dp2503
S'part3_correct_attempt'
p2504
(lp2505
S'0:33:20'
p2506
aV(6!/(2!(4!)))^2
p2507
asS'part3_incorrect_attempt'
p2508
(lp2509
(S'0:00:00'
p2510
V(6!(2!(4!)))^2
p2511
tp2512
asS'part1_correct_attempt'
p2513
(lp2514
S'0:00:00'
p2515
aV12!/(2!(10!))
p2516
asg9
V2015-10-12 22:48:24
p2517
ssVlrlai
p2518
(dp2519
S'part3_correct_attempt'
p2520
(lp2521
S'0:05:54'
p2522
aVC(6,2)*C(6,2)
p2523
asS'part3_incorrect_attempt'
p2524
(lp2525
(S'0:00:31'
p2526
VC(6,2)
p2527
tp2528
a(S'0:01:13'
p2529
VC(6,4)
p2530
tp2531
a(S'0:01:51'
p2532
VC(6,5)
p2533
tp2534
a(S'0:02:42'
p2535
V6*5
p2536
tp2537
asS'part1_correct_attempt'
p2538
(lp2539
S'0:00:00'
p2540
ag458
asg9
V2015-10-12 20:43:07
p2541
ssVlguintu
p2542
(dp2543
S'part3_correct_attempt'
p2544
(lp2545
S'0:04:48'
p2546
aVC(5,2)^2
p2547
asS'part3_incorrect_attempt'
p2548
(lp2549
(S'0:00:25'
p2550
VC(5,2)
p2551
tp2552
a(S'0:00:41'
p2553
VC(5,1)*C(4,1)
p2554
tp2555
a(S'0:01:58'
p2556
VC(5,1)
p2557
tp2558
asS'part1_correct_attempt'
p2559
(lp2560
S'0:00:00'
p2561
ag1187
asg9
V2015-10-09 22:07:46
p2562
ssVjjchung
p2563
(dp2564
S'part3_correct_attempt'
p2565
(lp2566
S'2:36:59'
p2567
aVC(5,2)^2
p2568
asS'part3_incorrect_attempt'
p2569
(lp2570
(S'0:19:31'
p2571
VC(5,2)
p2572
tp2573
a(S'0:20:31'
p2574
V5^4
p2575
tp2576
a(S'0:20:56'
p2577
V4^5
p2578
tp2579
a(S'0:21:07'
p2580
V5!4!3!2!
p2581
tp2582
a(S'0:21:24'
p2583
V5^2
p2584
tp2585
a(S'0:21:37'
p2586
VC(5,4)
p2587
tp2588
a(S'0:21:42'
p2589
VC(5,2)
p2590
tp2591
a(S'0:22:13'
p2592
V5*2
p2593
tp2594
a(S'0:22:19'
p2595
V5*4
p2596
tp2597
a(S'0:22:35'
p2598
V5*4*3*2
p2599
tp2600
a(S'2:31:25'
p2601
V5*5
p2602
tp2603
a(S'2:34:46'
p2604
VC(5,4)
p2605
tp2606
a(S'2:36:37'
p2607
VC(5,4)^2
p2608
tp2609
asS'part1_correct_attempt'
p2610
(lp2611
S'0:00:00'
p2612
ag485
asg9
V2015-10-14 20:09:54
p2613
ssVatorr
p2614
(dp2615
S'part3_correct_attempt'
p2616
(lp2617
S'0:25:47'
p2618
aV[C(4,2)]^2
p2619
asS'part3_incorrect_attempt'
p2620
(lp2621
(S'0:01:10'
p2622
VC(4,2)
p2623
tp2624
a(S'0:01:34'
p2625
VP(4,2)
p2626
tp2627
a(S'0:02:47'
p2628
VC(4,1) * C(3,1)
p2629
tp2630
a(S'0:03:10'
p2631
VC(3,1) + C(4,1)
p2632
tp2633
a(S'0:04:03'
p2634
VC(4,2)
p2635
tp2636
a(S'0:11:35'
p2637
V4!
p2638
tp2639
a(S'0:12:39'
p2640
V24 * 4
p2641
tp2642
a(S'0:13:49'
p2643
V4! * 4
p2644
tp2645
a(S'0:15:03'
p2646
V4^4
p2647
tp2648
a(S'0:15:13'
p2649
V12^2
p2650
tp2651
a(S'0:19:13'
p2652
V12*12
p2653
tp2654
a(S'0:19:34'
p2655
V12^2
p2656
tp2657
a(S'0:22:33'
p2658
V24^2
p2659
tp2660
asS'part1_correct_attempt'
p2661
(lp2662
S'0:00:00'
p2663
ag1244
asg9
V2015-10-11 03:11:07
p2664
ssVcprafull
p2665
(dp2666
S'part3_correct_attempt'
p2667
(lp2668
S'0:01:59'
p2669
aV[6!/((4!)(2!))]^2
p2670
asS'part3_incorrect_attempt'
p2671
(lp2672
(S'0:00:51'
p2673
V3*5
p2674
tp2675
a(S'0:01:31'
p2676
V2(6!)/((4!)(2!))
p2677
tp2678
asS'part1_correct_attempt'
p2679
(lp2680
S'0:00:00'
p2681
ag530
asg9
V2015-10-14 22:13:50
p2682
ssVkrau
p2683
(dp2684
S'part3_correct_attempt'
p2685
(lp2686
S'0:01:18'
p2687
aV36
p2688
asS'part3_incorrect_attempt'
p2689
(lp2690
(S'0:00:33'
p2691
V4!/2!/2!
p2692
tp2693
a(S'0:00:44'
p2694
V4*4
p2695
tp2696
a(S'0:01:11'
p2697
V4^2
p2698
tp2699
asS'part1_correct_attempt'
p2700
(lp2701
S'0:00:00'
p2702
ag599
asg9
V2015-10-14 04:07:44
p2703
ssVmroknich
p2704
(dp2705
S'part3_correct_attempt'
p2706
(lp2707
S'23:25:15'
p2708
aVC(6,2)*C(6,2)
p2709
asS'part3_incorrect_attempt'
p2710
(lp2711
(S'0:02:45'
p2712
VC(6,2)
p2713
tp2714
a(S'0:08:35'
p2715
V6^2
p2716
tp2717
a(S'22:36:59'
p2718
VC(6,2)
p2719
tp2720
a(S'22:42:28'
p2721
VC(6,4)
p2722
tp2723
a(S'23:24:16'
p2724
V6^2
p2725
tp2726
a(S'23:24:54'
p2727
V2C(6,2)
p2728
tp2729
asS'part1_correct_attempt'
p2730
(lp2731
S'0:00:00'
p2732
aVC(15,2)
p2733
asg9
V2015-10-14 01:18:04
p2734
ssVbeyounge
p2735
(dp2736
S'part3_correct_attempt'
p2737
(lp2738
S'0:03:14'
p2739
aV(6^2*5^2)/4
p2740
asS'part3_incorrect_attempt'
p2741
(lp2742
(S'0:00:11'
p2743
VC(4,2)
p2744
tp2745
a(S'0:01:26'
p2746
V(4^2*3^2)/4
p2747
tp2748
a(S'0:02:38'
p2749
V6^2
p2750
tp2751
asS'part1_correct_attempt'
p2752
(lp2753
S'0:00:00'
p2754
aVC(14,2)
p2755
asg9
V2015-10-09 06:07:41
p2756
ssVpsable
p2757
(dp2758
S'part3_correct_attempt'
p2759
(lp2760
S'0:03:10'
p2761
aVC(6,2)*C(6,2)
p2762
asS'part3_incorrect_attempt'
p2763
(lp2764
(S'0:00:26'
p2765
VC(6,2)
p2766
tp2767
a(S'0:00:34'
p2768
VC(6,1)
p2769
tp2770
a(S'0:00:43'
p2771
VC(6,1)*C(6,1)
p2772
tp2773
a(S'0:02:07'
p2774
VC(6,2)
p2775
tp2776
a(S'0:02:20'
p2777
VC(6,4)
p2778
tp2779
a(S'0:02:38'
p2780
V6^4
p2781
tp2782
asS'part1_correct_attempt'
p2783
(lp2784
S'0:00:00'
p2785
ag626
asg9
V2015-10-15 23:43:43
p2786
ssVjic212
p2787
(dp2788
S'part3_correct_attempt'
p2789
(lp2790
S'0:10:59'
p2791
aVC(4,2)*C(4,2)
p2792
asS'part3_incorrect_attempt'
p2793
(lp2794
(S'0:01:19'
p2795
VC(4,2)
p2796
tp2797
a(S'0:02:43'
p2798
V4*3
p2799
tp2800
a(S'0:04:22'
p2801
VC(3,2)
p2802
tp2803
a(S'0:06:33'
p2804
V4^4
p2805
tp2806
a(S'0:07:56'
p2807
V4*3*4*3
p2808
tp2809
asS'part1_correct_attempt'
p2810
(lp2811
S'0:00:00'
p2812
aVC(15,2)
p2813
asg9
V2015-10-12 08:41:41
p2814
ssVr1gu
p2815
(dp2816
S'part3_correct_attempt'
p2817
(lp2818
S'0:10:45'
p2819
aV10^2
p2820
asS'part3_incorrect_attempt'
p2821
(lp2822
(S'0:04:02'
p2823
V5!/(4!)+2*(5!/(3!2!))+5
p2824
tp2825
asS'part1_correct_attempt'
p2826
(lp2827
S'0:00:00'
p2828
ag662
asg9
V2015-10-15 22:26:58
p2829
ssVhak014
p2830
(dp2831
S'part3_correct_attempt'
p2832
(lp2833
S'0:01:39'
p2834
aV36
p2835
asS'part3_incorrect_attempt'
p2836
(lp2837
(S'0:00:53'
p2838
V4!/(2!2!)
p2839
tp2840
asS'part1_correct_attempt'
p2841
(lp2842
S'0:00:00'
p2843
aV10!/(2!8!)
p2844
asg9
V2015-10-13 05:24:06
p2845
ssVseleon
p2846
(dp2847
S'part3_correct_attempt'
p2848
(lp2849
S'0:00:59'
p2850
aV15**2
p2851
asS'part3_incorrect_attempt'
p2852
(lp2853
(S'0:00:29'
p2854
V120*2
p2855
tp2856
a(S'0:00:33'
p2857
V120**2
p2858
tp2859
asS'part1_correct_attempt'
p2860
(lp2861
S'0:00:00'
p2862
aV120
p2863
asg9
V2015-10-15 06:23:59
p2864
ssVt2li
p2865
(dp2866
S'part3_correct_attempt'
p2867
(lp2868
S'0:07:42'
p2869
aVC(6,2)^2
p2870
asS'part3_incorrect_attempt'
p2871
(lp2872
(S'0:01:18'
p2873
V6*6
p2874
tp2875
a(S'0:01:43'
p2876
VC(6,2)
p2877
tp2878
a(S'0:01:46'
p2879
VC(6,3)
p2880
tp2881
a(S'0:01:49'
p2882
VC(6,1)
p2883
tp2884
a(S'0:02:05'
p2885
V6*5
p2886
tp2887
a(S'0:03:11'
p2888
VC(24,4)
p2889
tp2890
a(S'0:03:15'
p2891
VP(24,4)
p2892
tp2893
a(S'0:05:20'
p2894
V6^3
p2895
tp2896
a(S'0:06:16'
p2897
VC(6,3)
p2898
tp2899
a(S'0:06:19'
p2900
VC(6,2)
p2901
tp2902
asS'part1_correct_attempt'
p2903
(lp2904
S'0:00:00'
p2905
ag1040
asg9
V2015-10-14 06:59:09
p2906
ssVdis003
p2907
(dp2908
S'part3_correct_attempt'
p2909
(lp2910
S'0:06:11'
p2911
aVC(4,2)*C(4,2)
p2912
asS'part3_incorrect_attempt'
p2913
(lp2914
(S'0:00:19'
p2915
VC(4,2)
p2916
tp2917
a(S'0:01:13'
p2918
VC(4,1)*2
p2919
tp2920
a(S'0:02:04'
p2921
VC(4+2-1,2-1)
p2922
tp2923
a(S'0:02:49'
p2924
V4*4
p2925
tp2926
a(S'0:02:54'
p2927
V4*3
p2928
tp2929
a(S'0:05:52'
p2930
VC(4,2)
p2931
tp2932
asS'part1_correct_attempt'
p2933
(lp2934
S'0:00:00'
p2935
aVC(12,2)
p2936
asg9
V2015-10-15 11:43:15
p2937
ssVrraiyyan
p2938
(dp2939
S'part3_correct_attempt'
p2940
(lp2941
S'0:04:47'
p2942
aV(C(5,2))^2
p2943
asS'part3_incorrect_attempt'
p2944
(lp2945
(S'0:02:21'
p2946
V(5*4)
p2947
tp2948
a(S'0:02:56'
p2949
VC(12,2)/2
p2950
tp2951
a(S'0:03:55'
p2952
VC(5,2)
p2953
tp2954
asS'part1_correct_attempt'
p2955
(lp2956
S'0:00:00'
p2957
aVC(12,2)
p2958
asg9
V2015-10-15 00:27:47
p2959
ssVjhw015
p2960
(dp2961
S'part3_correct_attempt'
p2962
(lp2963
S'0:05:54'
p2964
aVC(5,2)^2
p2965
asS'part3_incorrect_attempt'
p2966
(lp2967
(S'0:03:31'
p2968
VC(5,2)
p2969
tp2970
asS'part1_correct_attempt'
p2971
(lp2972
S'0:00:00'
p2973
aVC(12,2)
p2974
asg9
V2015-10-15 02:51:21
p2975
ssVdsmonaha
p2976
(dp2977
S'part3_correct_attempt'
p2978
(lp2979
S'0:04:01'
p2980
aVC(5,2)C(5,2)
p2981
asS'part3_incorrect_attempt'
p2982
(lp2983
(S'0:02:36'
p2984
VC(5,2)
p2985
tp2986
asS'part1_correct_attempt'
p2987
(lp2988
S'0:00:00'
p2989
ag680
asg9
V2015-10-13 18:30:19
p2990
ssVthwan
p2991
(dp2992
S'part3_correct_attempt'
p2993
(lp2994
S'0:03:53'
p2995
aVC(6,2)*C(6,2)
p2996
asS'part3_incorrect_attempt'
p2997
(lp2998
(S'0:00:00'
p2999
VC(4,4)*2
p3000
tp3001
asS'part1_correct_attempt'
p3002
(lp3003
S'0:00:00'
p3004
aVC(12,2)
p3005
asg9
V2015-10-11 19:09:01
p3006
ssVz3meng
p3007
(dp3008
S'part3_correct_attempt'
p3009
(lp3010
S'0:05:52'
p3011
aV15^2
p3012
asS'part3_incorrect_attempt'
p3013
(lp3014
(S'0:03:50'
p3015
V6^4
p3016
tp3017
asS'part1_correct_attempt'
p3018
(lp3019
S'0:00:00'
p3020
ag710
asg9
V2015-10-15 03:29:10
p3021
ssVlcardoso
p3022
(dp3023
S'part3_correct_attempt'
p3024
(lp3025
S'3:02:14'
p3026
aVC(5,2)*C(5,2)
p3027
asS'part3_incorrect_attempt'
p3028
(lp3029
(S'2:51:43'
p3030
VC(5,4)
p3031
tp3032
a(S'2:53:50'
p3033
VC(5,2)
p3034
tp3035
a(S'2:54:03'
p3036
VC(5,4)
p3037
tp3038
a(S'2:54:24'
p3039
VC(5,2)
p3040
tp3041
asS'part1_correct_attempt'
p3042
(lp3043
S'0:00:00'
p3044
ag725
asg9
V2015-10-13 18:02:01
p3045
ssVjel075
p3046
(dp3047
S'part3_correct_attempt'
p3048
(lp3049
S'0:04:32'
p3050
aV4!/(2!*2!)*(4!/(2!*2!))
p3051
asS'part3_incorrect_attempt'
p3052
(lp3053
(S'0:00:00'
p3054
V4!/(2!*2!)
p3055
tp3056
a(S'0:00:13'
p3057
V4!/(3!)
p3058
tp3059
asS'part1_correct_attempt'
p3060
(lp3061
S'0:00:00'
p3062
ag740
asg9
V2015-10-15 01:27:47
p3063
ssVedescobe
p3064
(dp3065
S'part3_correct_attempt'
p3066
(lp3067
S'0:01:16'
p3068
aVC(4,2)*C(4,2)
p3069
asS'part3_incorrect_attempt'
p3070
(lp3071
(S'0:00:14'
p3072
VC(4,2)
p3073
tp3074
a(S'0:00:45'
p3075
V4^4
p3076
tp3077
asS'part1_correct_attempt'
p3078
(lp3079
S'0:00:00'
p3080
ag752
asg9
V2015-10-12 20:39:41
p3081
ssVw4shin
p3082
(dp3083
S'part3_correct_attempt'
p3084
(lp3085
S'0:08:39'
p3086
aV((5!/(3!2!))*(5!/(3!2!)))
p3087
asS'part3_incorrect_attempt'
p3088
(lp3089
(S'0:00:00'
p3090
V5*4
p3091
tp3092
a(S'0:03:33'
p3093
V5!
p3094
tp3095
a(S'0:04:05'
p3096
V(5^2/2)*2
p3097
tp3098
a(S'0:04:34'
p3099
V5^2
p3100
tp3101
a(S'0:06:51'
p3102
V8!/(4!4!)
p3103
tp3104
a(S'0:08:23'
p3105
V(5!/(3!2!)*5!/(3!2!))/2
p3106
tp3107
a(S'0:08:32'
p3108
V((5!/(3!2!))*(5!/(3!2!)))/2
p3109
tp3110
asS'part1_correct_attempt'
p3111
(lp3112
S'0:00:00'
p3113
ag767
asg9
V2015-10-14 23:46:48
p3114
ssVbakang
p3115
(dp3116
S'part3_correct_attempt'
p3117
(lp3118
S'0:12:48'
p3119
aV(C(6,2))^2
p3120
asS'part3_incorrect_attempt'
p3121
(lp3122
(S'0:00:34'
p3123
V5^4
p3124
tp3125
a(S'0:00:44'
p3126
V6^4
p3127
tp3128
a(S'0:01:28'
p3129
V2*(C(6,2))
p3130
tp3131
a(S'0:05:41'
p3132
VC(6,4)
p3133
tp3134
a(S'0:07:04'
p3135
V6^4-6
p3136
tp3137
a(S'0:12:17'
p3138
V2*(C(6,2))
p3139
tp3140
asS'part1_correct_attempt'
p3141
(lp3142
S'0:00:00'
p3143
ag1082
asg9
V2015-10-15 02:27:43
p3144
ssVsmohiman
p3145
(dp3146
S'part3_correct_attempt'
p3147
(lp3148
S'0:06:31'
p3149
aVC(6,2)*C(6,2)
p3150
asS'part3_incorrect_attempt'
p3151
(lp3152
(S'0:00:00'
p3153
VC(6,2)
p3154
tp3155
a(S'0:00:29'
p3156
VC(6,4)
p3157
tp3158
a(S'0:04:04'
p3159
V6*6
p3160
tp3161
a(S'0:04:42'
p3162
V6*5
p3163
tp3164
asS'part1_correct_attempt'
p3165
(lp3166
S'0:00:00'
p3167
aVC(16,2)
p3168
asg9
V2015-10-11 22:29:30
p3169
ssVjtfrankl
p3170
(dp3171
S'part3_correct_attempt'
p3172
(lp3173
S'0:15:27'
p3174
aVC(6,2)**2
p3175
asS'part3_incorrect_attempt'
p3176
(lp3177
(S'0:00:28'
p3178
VC(6,2)
p3179
tp3180
a(S'0:04:02'
p3181
VC(6,2)
p3182
tp3183
a(S'0:04:23'
p3184
V6*5
p3185
tp3186
a(S'0:04:51'
p3187
V6*6
p3188
tp3189
a(S'0:07:26'
p3190
V2*6*5
p3191
tp3192
a(S'0:07:34'
p3193
V2*36
p3194
tp3195
a(S'0:08:56'
p3196
VC(6,2)
p3197
tp3198
asS'part1_correct_attempt'
p3199
(lp3200
S'0:00:00'
p3201
ag803
asg9
V2015-10-15 21:10:30
p3202
ssVcstringh
p3203
(dp3204
S'part3_correct_attempt'
p3205
(lp3206
S'1 day, 0:32:49'
p3207
aV100
p3208
asS'part3_incorrect_attempt'
p3209
(lp3210
(S'0:00:27'
p3211
VC(5, 2)
p3212
tp3213
a(S'0:01:15'
p3214
VC(6, 2)
p3215
tp3216
a(S'0:01:25'
p3217
VC(7, 2)
p3218
tp3219
a(S'0:01:31'
p3220
VC(4, 2)
p3221
tp3222
a(S'0:01:38'
p3223
VC(15, 2)
p3224
tp3225
a(S'0:01:46'
p3226
VC(13, 2)
p3227
tp3228
a(S'0:02:25'
p3229
V5*4
p3230
tp3231
a(S'0:02:30'
p3232
V5*5
p3233
tp3234
a(S'0:05:03'
p3235
V5!
p3236
tp3237
a(S'0:05:12'
p3238
V5!/ 4!
p3239
tp3240
a(S'0:07:13'
p3241
V(5*4) * 13 * 2
p3242
tp3243
a(S'0:09:23'
p3244
V20 *20
p3245
tp3246
a(S'0:10:08'
p3247
V5*5*5
p3248
tp3249
a(S'4:40:06'
p3250
V13^2
p3251
tp3252
a(S'4:40:18'
p3253
V2^13
p3254
tp3255
a(S'4:40:25'
p3256
V2^5
p3257
tp3258
a(S'4:40:35'
p3259
V5^2
p3260
tp3261
a(S'4:42:07'
p3262
V4^5
p3263
tp3264
a(S'4:42:14'
p3265
V4^3
p3266
tp3267
a(S'4:42:34'
p3268
V4!
p3269
tp3270
a(S'4:43:19'
p3271
V4*5!
p3272
tp3273
a(S'4:51:36'
p3274
V4^13
p3275
tp3276
a(S'4:51:46'
p3277
V13^4
p3278
tp3279
a(S'4:52:09'
p3280
V5^4
p3281
tp3282
a(S'4:52:23'
p3283
V4^5
p3284
tp3285
a(S'4:52:32'
p3286
V4^4
p3287
tp3288
a(S'4:54:22'
p3289
V5^5
p3290
tp3291
a(S'4:54:35'
p3292
V5^3
p3293
tp3294
a(S'4:56:08'
p3295
V5*3
p3296
tp3297
a(S'4:57:26'
p3298
V5! + 4!  + 3! + 2!
p3299
tp3300
a(S'4:57:49'
p3301
V5! + 4! + 3! + 2
p3302
tp3303
a(S'4:58:02'
p3304
V5! + 4! + 3!
p3305
tp3306
a(S'4:58:24'
p3307
V5! * 4! * 3! *2!
p3308
tp3309
a(S'4:58:36'
p3310
V5! * 4! * 3!
p3311
tp3312
a(S'4:58:54'
p3313
V5!
p3314
tp3315
a(S'5:01:25'
p3316
V5! * 3! +1
p3317
tp3318
a(S'5:05:19'
p3319
V4^5 -4
p3320
tp3321
a(S'5:06:04'
p3322
V4^5 + 4
p3323
tp3324
a(S'5:06:48'
p3325
V5^5 
p3326
tp3327
a(S'5:08:45'
p3328
VC(5,4)
p3329
tp3330
a(S'5:09:00'
p3331
VC(5,2)
p3332
tp3333
a(S'23:48:49'
p3334
V5^5 -5
p3335
tp3336
a(S'23:48:58'
p3337
V5^4 -5
p3338
tp3339
a(S'23:49:07'
p3340
V4^5 -5
p3341
tp3342
asS'part1_correct_attempt'
p3343
(lp3344
S'0:00:00'
p3345
ag815
asg9
V2015-10-12 23:19:42
p3346
ssVeshung
p3347
(dp3348
S'part3_correct_attempt'
p3349
(lp3350
S'0:01:21'
p3351
aVC(5,2)*C(5,2)
p3352
asS'part3_incorrect_attempt'
p3353
(lp3354
(S'0:00:00'
p3355
V5*5
p3356
tp3357
asS'part1_correct_attempt'
p3358
(lp3359
S'0:00:00'
p3360
aVC(10,2)
p3361
asg9
V2015-10-14 22:32:12
p3362
ssVv4sharma
p3363
(dp3364
S'part3_correct_attempt'
p3365
(lp3366
S'0:01:39'
p3367
aVC(6, 2)^2
p3368
asS'part3_incorrect_attempt'
p3369
(lp3370
(S'0:01:04'
p3371
VC(4, 2)
p3372
tp3373
a(S'0:01:10'
p3374
VC(6, 2)
p3375
tp3376
asS'part1_correct_attempt'
p3377
(lp3378
S'0:00:00'
p3379
aVC(13, 2)
p3380
asg9
V2015-10-14 02:14:31
p3381
ssVaurodrig
p3382
(dp3383
S'part3_correct_attempt'
p3384
(lp3385
S'0:09:49'
p3386
aV36
p3387
asS'part3_incorrect_attempt'
p3388
(lp3389
(S'0:03:13'
p3390
V4!(2!2!)
p3391
tp3392
a(S'0:03:20'
p3393
V4!/(2!2!)
p3394
tp3395
asS'part1_correct_attempt'
p3396
(lp3397
S'0:00:00'
p3398
ag857
asg9
V2015-10-15 21:11:11
p3399
ssVhsc052
p3400
(dp3401
S'part3_correct_attempt'
p3402
(lp3403
S'0:11:16'
p3404
aVC(5,2)^2
p3405
asS'part3_incorrect_attempt'
p3406
(lp3407
(S'0:00:00'
p3408
VC(5,2)
p3409
tp3410
a(S'0:06:21'
p3411
V5^4
p3412
tp3413
a(S'0:07:14'
p3414
V5*4*5*4
p3415
tp3416
a(S'0:08:07'
p3417
V5!
p3418
tp3419
asS'part1_correct_attempt'
p3420
(lp3421
S'0:00:00'
p3422
aVC(10,2)
p3423
asg9
V2015-10-15 05:45:08
p3424
ssVv3doan
p3425
(dp3426
S'part3_correct_attempt'
p3427
(lp3428
S'0:19:07'
p3429
aVC(4,2)^2
p3430
asS'part3_incorrect_attempt'
p3431
(lp3432
(S'0:00:14'
p3433
VC(4,2)
p3434
tp3435
a(S'0:00:44'
p3436
V4 * 3
p3437
tp3438
asS'part1_correct_attempt'
p3439
(lp3440
S'0:00:00'
p3441
aVC(13,2)
p3442
asg9
V2015-10-11 02:53:35
p3443
ssVsghouse
p3444
(dp3445
S'part3_correct_attempt'
p3446
(lp3447
S'0:05:10'
p3448
aV3*5*3*5
p3449
asS'part3_incorrect_attempt'
p3450
(lp3451
(S'0:01:23'
p3452
V6*6
p3453
tp3454
a(S'0:04:36'
p3455
V3*5
p3456
tp3457
asS'part1_correct_attempt'
p3458
(lp3459
S'0:00:00'
p3460
aV13*12/2
p3461
asg9
V2015-10-12 19:44:16
p3462
ssVk3tan
p3463
(dp3464
S'part3_correct_attempt'
p3465
(lp3466
S'0:13:22'
p3467
aV36
p3468
asS'part3_incorrect_attempt'
p3469
(lp3470
(S'0:03:35'
p3471
V(15*14*6)/2
p3472
tp3473
asS'part1_correct_attempt'
p3474
(lp3475
S'0:00:00'
p3476
aV(15*14)/2!
p3477
asg9
V2015-10-13 06:21:53
p3478
ssVjyc018
p3479
(dp3480
S'part3_correct_attempt'
p3481
(lp3482
S'0:07:48'
p3483
aVC(5,2)**2
p3484
asS'part3_incorrect_attempt'
p3485
(lp3486
(S'0:04:19'
p3487
V5*4*5*4
p3488
tp3489
a(S'0:05:00'
p3490
V5*5
p3491
tp3492
a(S'0:06:50'
p3493
VC(5,2)
p3494
tp3495
a(S'0:07:06'
p3496
V2*C(5,2)
p3497
tp3498
asS'part1_correct_attempt'
p3499
(lp3500
S'0:00:00'
p3501
ag117
asg9
V2015-10-12 02:28:35
p3502
ssVlpettit
p3503
(dp3504
S'part3_correct_attempt'
p3505
(lp3506
S'0:11:48'
p3507
aV100
p3508
asS'part3_incorrect_attempt'
p3509
(lp3510
(S'0:09:53'
p3511
V16*9
p3512
tp3513
asS'part1_correct_attempt'
p3514
(lp3515
S'0:00:00'
p3516
aV16!/(2!*14!)
p3517
asg9
V2015-10-14 20:25:59
p3518
ssVlywong
p3519
(dp3520
S'part3_correct_attempt'
p3521
(lp3522
S'0:43:25'
p3523
aVC(6,2)^2
p3524
asS'part3_incorrect_attempt'
p3525
(lp3526
(S'0:05:43'
p3527
V6!
p3528
tp3529
a(S'0:18:05'
p3530
V36/((2!))
p3531
tp3532
a(S'0:22:20'
p3533
V6^4
p3534
tp3535
a(S'0:31:19'
p3536
V6^2
p3537
tp3538
a(S'0:42:43'
p3539
V6^4
p3540
tp3541
a(S'0:43:11'
p3542
VC(4,2)^2
p3543
tp3544
asS'part1_correct_attempt'
p3545
(lp3546
S'0:00:00'
p3547
aV11!/(2!9!)
p3548
asg9
V2015-10-13 08:31:48
p3549
ssVhkhodada
p3550
(dp3551
S'part3_correct_attempt'
p3552
(lp3553
S'1 day, 4:27:38'
p3554
aVC(4,2)^2
p3555
asS'part3_incorrect_attempt'
p3556
(lp3557
(S'0:00:21'
p3558
V4*C(14,2)
p3559
tp3560
a(S'0:26:09'
p3561
V4*C(14,2)
p3562
tp3563
a(S'10:38:39'
p3564
V4*C(4,2)
p3565
tp3566
a(S'10:38:47'
p3567
VC(4,2)
p3568
tp3569
a(S'10:41:00'
p3570
VC(4,4)
p3571
tp3572
a(S'10:47:15'
p3573
VC(28,2)
p3574
tp3575
a(S'10:47:49'
p3576
VC(28,4)
p3577
tp3578
a(S'1 day, 4:26:37'
p3579
V2*C(14,2)
p3580
tp3581
a(S'1 day, 4:27:15'
p3582
VC(4,2)
p3583
tp3584
asS'part1_correct_attempt'
p3585
(lp3586
S'0:00:00'
p3587
ag941
asg9
V2015-10-10 19:46:09
p3588
ssVjcl084
p3589
(dp3590
S'part3_correct_attempt'
p3591
(lp3592
S'0:02:47'
p3593
aVC(4,2)^2
p3594
asS'part3_incorrect_attempt'
p3595
(lp3596
(S'0:01:53'
p3597
VC(4,2)
p3598
tp3599
asS'part1_correct_attempt'
p3600
(lp3601
S'0:00:00'
p3602
ag1498
asg9
V2015-10-13 20:45:47
p3603
ssVabasu
p3604
(dp3605
S'part3_correct_attempt'
p3606
(lp3607
S'0:03:41'
p3608
aVC(4,2)^2
p3609
asS'part3_incorrect_attempt'
p3610
(lp3611
(S'0:02:46'
p3612
VC(4,2)
p3613
tp3614
asS'part1_correct_attempt'
p3615
(lp3616
S'0:00:00'
p3617
aVC(15,2)
p3618
asg9
V2015-10-11 02:36:01
p3619
ssVachava
p3620
(dp3621
S'part3_correct_attempt'
p3622
(lp3623
S'1 day, 11:02:06'
p3624
aVC(6,2) * C(6,2)
p3625
asS'part3_incorrect_attempt'
p3626
(lp3627
(S'0:10:31'
p3628
VC(6,2)
p3629
tp3630
a(S'0:10:37'
p3631
VC(6,1)
p3632
tp3633
a(S'0:10:50'
p3634
VC(60,4)
p3635
tp3636
a(S'14:52:45'
p3637
VC(8,1) * 6
p3638
tp3639
a(S'21:49:45'
p3640
VC(10,4)
p3641
tp3642
a(S'21:49:57'
p3643
VC(10,4) * 6
p3644
tp3645
a(S'21:50:14'
p3646
VC(10,1) * 6
p3647
tp3648
asS'part1_correct_attempt'
p3649
(lp3650
S'0:00:00'
p3651
ag998
asg9
V2015-10-13 08:08:08
p3652
ssVffhaddad
p3653
(dp3654
S'part3_correct_attempt'
p3655
(lp3656
S'0:00:45'
p3657
aVC(4,2)C(4,2)
p3658
asS'part3_incorrect_attempt'
p3659
(lp3660
(S'0:00:34'
p3661
VC(4,2)
p3662
tp3663
asS'part1_correct_attempt'
p3664
(lp3665
S'0:00:00'
p3666
ag132
asg9
V2015-10-10 21:17:33
p3667
ssVthk002
p3668
(dp3669
S'part3_correct_attempt'
p3670
(lp3671
S'0:00:42'
p3672
aVC(6,2)^2
p3673
asS'part3_incorrect_attempt'
p3674
(lp3675
(S'0:00:27'
p3676
VC(4,2)
p3677
tp3678
asS'part1_correct_attempt'
p3679
(lp3680
S'0:00:00'
p3681
ag1028
asg9
V2015-10-12 04:06:59
p3682
ssVawollner
p3683
(dp3684
S'part3_correct_attempt'
p3685
(lp3686
S'0:01:45'
p3687
aVC(6,2)^2
p3688
asS'part3_incorrect_attempt'
p3689
(lp3690
(S'0:00:23'
p3691
VC(6,2)
p3692
tp3693
asS'part1_correct_attempt'
p3694
(lp3695
S'0:00:00'
p3696
aVC(13,2)
p3697
asg9
V2015-10-11 20:25:30
p3698
ssVdcrume
p3699
(dp3700
S'part3_incorrect_attempt'
p3701
(lp3702
(S'0:01:08'
p3703
VC(4,2)
p3704
tp3705
asS'part1_correct_attempt'
p3706
(lp3707
S'0:00:00'
p3708
aVC(14,2)
p3709
asg9
V2015-10-15 23:20:17
p3710
ssVpvl001
p3711
(dp3712
S'part3_correct_attempt'
p3713
(lp3714
S'0:02:52'
p3715
aV10 * 10
p3716
asS'part3_incorrect_attempt'
p3717
(lp3718
(S'0:00:55'
p3719
V5 * 4 * 5 * 4
p3720
tp3721
asS'part1_correct_attempt'
p3722
(lp3723
S'0:00:00'
p3724
aV78
p3725
asg9
V2015-10-13 19:50:31
p3726
ssVjcj006
p3727
(dp3728
S'part3_correct_attempt'
p3729
(lp3730
S'0:07:56'
p3731
aV(6!/(2!4!))^2
p3732
asS'part3_incorrect_attempt'
p3733
(lp3734
(S'0:03:20'
p3735
V6*5*6*5
p3736
tp3737
asS'part1_correct_attempt'
p3738
(lp3739
S'0:00:00'
p3740
aV16!/(2*14!)
p3741
asg9
V2015-10-14 00:13:59
p3742
ssVmbl003
p3743
(dp3744
S'part3_correct_attempt'
p3745
(lp3746
S'0:02:47'
p3747
aVC(4,2)^2
p3748
asS'part3_incorrect_attempt'
p3749
(lp3750
(S'0:00:34'
p3751
VC(4,2)
p3752
tp3753
asS'part1_correct_attempt'
p3754
(lp3755
S'0:00:00'
p3756
aVC(16,2)
p3757
asg9
V2015-10-15 07:20:20
p3758
ssVn2patil
p3759
(dp3760
S'part3_correct_attempt'
p3761
(lp3762
S'6:12:43'
p3763
aV225
p3764
asS'part3_incorrect_attempt'
p3765
(lp3766
(S'0:22:13'
p3767
V6*5
p3768
tp3769
a(S'0:24:51'
p3770
V6*55
p3771
tp3772
asS'part1_correct_attempt'
p3773
(lp3774
S'0:00:00'
p3775
aV55
p3776
asg9
V2015-10-13 18:10:04
p3777
ssVksmurlo
p3778
(dp3779
S'part3_correct_attempt'
p3780
(lp3781
S'0:32:55'
p3782
aVC(4,2)*C(4,2)
p3783
asS'part3_incorrect_attempt'
p3784
(lp3785
(S'0:01:19'
p3786
V4*3
p3787
tp3788
a(S'0:04:38'
p3789
VC(4,2)
p3790
tp3791
a(S'0:05:12'
p3792
VP(4,2)
p3793
tp3794
a(S'0:09:59'
p3795
VC(4,2)
p3796
tp3797
a(S'0:10:07'
p3798
VP(4,2)
p3799
tp3800
a(S'0:16:11'
p3801
V4+3+4+3
p3802
tp3803
a(S'0:16:17'
p3804
V4+3
p3805
tp3806
a(S'0:16:45'
p3807
V4!
p3808
tp3809
a(S'0:19:36'
p3810
V4*4
p3811
tp3812
a(S'0:31:46'
p3813
V4*4*4*4
p3814
tp3815
a(S'0:31:53'
p3816
V4*4*4
p3817
tp3818
asS'part1_correct_attempt'
p3819
(lp3820
S'0:00:00'
p3821
aVC(14,2)
p3822
asg9
V2015-10-13 23:28:25
p3823
ssVjeqin
p3824
(dp3825
S'part3_correct_attempt'
p3826
(lp3827
S'0:12:26'
p3828
aV6!/(2!4!) * 6!/(2!4!)
p3829
asS'part3_incorrect_attempt'
p3830
(lp3831
(S'0:01:43'
p3832
V6*5
p3833
tp3834
a(S'0:02:20'
p3835
V6*6*5*5
p3836
tp3837
a(S'0:03:36'
p3838
V12!/(4!8!)
p3839
tp3840
a(S'0:04:05'
p3841
V2*6!(2!4!)
p3842
tp3843
a(S'0:04:11'
p3844
V2*6!/(2!4!)
p3845
tp3846
a(S'0:09:56'
p3847
V6*5*5*5
p3848
tp3849
asS'part1_correct_attempt'
p3850
(lp3851
S'0:00:00'
p3852
aV16!/(2!14!)
p3853
asg9
V2015-10-15 12:48:59
p3854
ssVjnatale
p3855
(dp3856
S'part3_correct_attempt'
p3857
(lp3858
S'0:46:33'
p3859
aVC(4,2) * C(4,2)
p3860
asS'part3_incorrect_attempt'
p3861
(lp3862
(S'0:12:41'
p3863
VC(4,2)
p3864
tp3865
a(S'0:12:54'
p3866
VC(4,1)
p3867
tp3868
a(S'0:13:02'
p3869
VC(4,1) + C(4,2)
p3870
tp3871
a(S'0:16:56'
p3872
V4*3
p3873
tp3874
a(S'0:27:25'
p3875
V12*2
p3876
tp3877
asS'part1_correct_attempt'
p3878
(lp3879
S'0:00:00'
p3880
ag1100
asg9
V2015-10-14 01:51:04
p3881
ssVjblynch
p3882
(dp3883
S'part3_correct_attempt'
p3884
(lp3885
S'0:01:59'
p3886
aVC(6,2)*C(6,2)
p3887
asS'part3_incorrect_attempt'
p3888
(lp3889
(S'0:00:34'
p3890
VC(6,2)
p3891
tp3892
a(S'0:01:07'
p3893
VC(6,4)
p3894
tp3895
asS'part1_correct_attempt'
p3896
(lp3897
S'0:00:00'
p3898
aVC(15,2)
p3899
asg9
V2015-10-12 07:18:06
p3900
ssVnnh002
p3901
(dp3902
S'part3_correct_attempt'
p3903
(lp3904
S'0:03:05'
p3905
aVC(4,2)^2
p3906
asS'part3_incorrect_attempt'
p3907
(lp3908
(S'0:00:00'
p3909
V4*4
p3910
tp3911
asS'part1_correct_attempt'
p3912
(lp3913
S'0:00:00'
p3914
ag1118
asg9
V2015-10-15 06:12:21
p3915
ssVakhmelni
p3916
(dp3917
S'part3_correct_attempt'
p3918
(lp3919
S'0:14:11'
p3920
aVC(5,2)C(5,2)
p3921
asS'part3_incorrect_attempt'
p3922
(lp3923
(S'0:05:25'
p3924
VC(4,2)
p3925
tp3926
a(S'0:05:31'
p3927
VC(5,2)
p3928
tp3929
a(S'0:11:23'
p3930
VC(5,2)
p3931
tp3932
a(S'0:11:43'
p3933
VC(5,4)
p3934
tp3935
a(S'0:13:00'
p3936
V2*C(5,2)
p3937
tp3938
asS'part1_correct_attempt'
p3939
(lp3940
S'0:00:00'
p3941
aVC(12,2)
p3942
asg9
V2015-10-15 23:01:17
p3943
ssVtol003
p3944
(dp3945
S'part3_correct_attempt'
p3946
(lp3947
S'0:04:18'
p3948
aVC(4,2)^2
p3949
asS'part3_incorrect_attempt'
p3950
(lp3951
(S'0:00:36'
p3952
V14*C(4,2)*13*C(4,2)*12
p3953
tp3954
a(S'0:02:22'
p3955
VC(4,2)
p3956
tp3957
a(S'0:03:47'
p3958
V14*C(4,2)*13*C(4,2)
p3959
tp3960
asS'part1_correct_attempt'
p3961
(lp3962
S'0:00:00'
p3963
ag1130
asg9
V2015-10-14 00:51:48
p3964
ssVaakumar
p3965
(dp3966
S'part3_correct_attempt'
p3967
(lp3968
S'0:11:44'
p3969
aV100
p3970
asS'part3_incorrect_attempt'
p3971
(lp3972
(S'0:11:01'
p3973
V30^2
p3974
tp3975
asS'part1_correct_attempt'
p3976
(lp3977
S'0:00:00'
p3978
aV78
p3979
asg9
V2015-10-11 02:14:16
p3980
ssVhachrist
p3981
(dp3982
S'part3_correct_attempt'
p3983
(lp3984
S'2:04:07'
p3985
aV(6!/(4!*2!))^2
p3986
asS'part3_incorrect_attempt'
p3987
(lp3988
(S'1:30:14'
p3989
V5!/(4!*1!)
p3990
tp3991
a(S'1:30:29'
p3992
V5!/(2!*3!)
p3993
tp3994
a(S'1:36:18'
p3995
V30/2
p3996
tp3997
asS'part1_correct_attempt'
p3998
(lp3999
S'0:00:00'
p4000
ag1145
asg9
V2015-10-15 02:37:16
p4001
ssVkew017
p4002
(dp4003
S'part3_correct_attempt'
p4004
(lp4005
S'0:13:18'
p4006
aV100
p4007
asS'part3_incorrect_attempt'
p4008
(lp4009
(S'0:01:06'
p4010
V5^4
p4011
tp4012
asS'part1_correct_attempt'
p4013
(lp4014
S'0:00:00'
p4015
aV15!/(2!13!)
p4016
asg9
V2015-10-15 20:28:26
p4017
ssVdtea
p4018
(dp4019
S'part3_incorrect_attempt'
p4020
(lp4021
(S'0:03:59'
p4022
V5*4
p4023
tp4024
asS'part1_correct_attempt'
p4025
(lp4026
S'0:00:00'
p4027
aVC(14,2)
p4028
asg9
V2015-10-15 23:38:24
p4029
ssVkmc012
p4030
(dp4031
S'part3_correct_attempt'
p4032
(lp4033
S'0:07:01'
p4034
aV(((4!)/((2!)*(2!))))^2
p4035
asS'part3_incorrect_attempt'
p4036
(lp4037
(S'0:01:59'
p4038
V(4!)/(2!*2!)
p4039
tp4040
asS'part1_correct_attempt'
p4041
(lp4042
S'0:00:00'
p4043
ag1160
asg9
V2015-10-15 02:33:08
p4044
ssVdaw023
p4045
(dp4046
S'part3_correct_attempt'
p4047
(lp4048
S'0:00:43'
p4049
aVC(6,2)^2
p4050
asS'part3_incorrect_attempt'
p4051
(lp4052
(S'0:00:00'
p4053
VC(6,2)
p4054
tp4055
asS'part1_correct_attempt'
p4056
(lp4057
S'0:00:00'
p4058
ag1172
asg9
V2015-10-15 06:15:31
p4059
ssVasetters
p4060
(dp4061
S'part3_correct_attempt'
p4062
(lp4063
S'0:05:46'
p4064
aVC(4,2)^2
p4065
asS'part3_incorrect_attempt'
p4066
(lp4067
(S'0:00:47'
p4068
V4*3
p4069
tp4070
a(S'0:01:25'
p4071
V4+3
p4072
tp4073
a(S'0:03:32'
p4074
V4*3*4*3
p4075
tp4076
asS'part1_correct_attempt'
p4077
(lp4078
S'0:00:00'
p4079
ag470
asg9
V2015-10-12 06:33:36
p4080
ssVc1sorian
p4081
(dp4082
S'part3_correct_attempt'
p4083
(lp4084
S'0:55:04'
p4085
aV15*15
p4086
asS'part3_incorrect_attempt'
p4087
(lp4088
(S'0:01:04'
p4089
V72!/(6!66!)
p4090
tp4091
a(S'0:04:52'
p4092
V6*5
p4093
tp4094
asS'part1_correct_attempt'
p4095
(lp4096
S'0:00:00'
p4097
aV12!/(2!10!)
p4098
asg9
V2015-10-14 22:21:38
p4099
ssVcsl030
p4100
(dp4101
S'part3_correct_attempt'
p4102
(lp4103
S'0:01:21'
p4104
aVC(6,2) * C(6,2)
p4105
asS'part3_incorrect_attempt'
p4106
(lp4107
(S'0:00:25'
p4108
VC(6,2)
p4109
tp4110
a(S'0:00:57'
p4111
VC(6,1)
p4112
tp4113
a(S'0:01:03'
p4114
VC(6,2)
p4115
tp4116
asS'part1_correct_attempt'
p4117
(lp4118
S'0:00:00'
p4119
ag1214
asg9
V2015-10-14 02:16:45
p4120
ssVazkong
p4121
(dp4122
S'part3_correct_attempt'
p4123
(lp4124
S'1:37:13'
p4125
aVC(5, 2)*C(5,2)
p4126
asS'part3_incorrect_attempt'
p4127
(lp4128
(S'0:00:00'
p4129
VC(5, 1)
p4130
tp4131
a(S'1:23:55'
p4132
VC(5, 2)
p4133
tp4134
a(S'1:24:46'
p4135
VC(5, 1)
p4136
tp4137
a(S'1:25:44'
p4138
VC(5, 2)
p4139
tp4140
a(S'1:30:13'
p4141
VC(4, 2)
p4142
tp4143
a(S'1:33:18'
p4144
VC(5, 1) * C(4, 1)
p4145
tp4146
asS'part1_correct_attempt'
p4147
(lp4148
S'0:00:00'
p4149
aVC(15, 2)
p4150
asg9
V2015-10-15 16:20:36
p4151
ssVrbdoming
p4152
(dp4153
S'part3_correct_attempt'
p4154
(lp4155
S'3:34:19'
p4156
aVC(5,2)^2
p4157
asS'part3_incorrect_attempt'
p4158
(lp4159
(S'0:00:00'
p4160
VC(15,1)
p4161
tp4162
a(S'0:01:34'
p4163
V5*5
p4164
tp4165
a(S'0:06:17'
p4166
V5*4
p4167
tp4168
a(S'0:21:20'
p4169
V5*5
p4170
tp4171
a(S'0:21:32'
p4172
V5*4
p4173
tp4174
a(S'0:23:34'
p4175
V5*2
p4176
tp4177
a(S'0:23:59'
p4178
V4*3
p4179
tp4180
asS'part1_correct_attempt'
p4181
(lp4182
S'0:00:00'
p4183
aVC(15,2)
p4184
asg9
V2015-10-14 19:23:14
p4185
ssVk4ma
p4186
(dp4187
S'part3_correct_attempt'
p4188
(lp4189
S'0:04:19'
p4190
aVC(5,2)*C(5,2)
p4191
asS'part3_incorrect_attempt'
p4192
(lp4193
(S'0:00:50'
p4194
VC(5,2)
p4195
tp4196
a(S'0:02:13'
p4197
V5*4*5*4
p4198
tp4199
asS'part1_correct_attempt'
p4200
(lp4201
S'0:00:00'
p4202
aVC(13,2)
p4203
asg9
V2015-10-15 03:29:26
p4204
ssVralhadda
p4205
(dp4206
S'part3_incorrect_attempt'
p4207
(lp4208
(S'2:47:23'
p4209
V6^6
p4210
tp4211
asS'part1_correct_attempt'
p4212
(lp4213
S'0:00:00'
p4214
aV45
p4215
asg9
V2015-10-15 19:12:32
p4216
ssVcagatep
p4217
(dp4218
S'part3_correct_attempt'
p4219
(lp4220
S'0:05:00'
p4221
aVC(4,2) * C(4,2)
p4222
asS'part3_incorrect_attempt'
p4223
(lp4224
(S'0:00:54'
p4225
VC(4,2)
p4226
tp4227
a(S'0:01:05'
p4228
VC(4,1)
p4229
tp4230
a(S'0:01:29'
p4231
V4*3
p4232
tp4233
asS'part1_correct_attempt'
p4234
(lp4235
S'0:00:00'
p4236
ag1259
asg9
V2015-10-14 05:12:41
p4237
ssVhmnaing
p4238
(dp4239
S'part3_correct_attempt'
p4240
(lp4241
S'1 day, 23:55:30'
p4242
aVC(5, 2)* C(5, 2)
p4243
asS'part3_incorrect_attempt'
p4244
(lp4245
(S'0:00:00'
p4246
VC(5, 2)
p4247
tp4248
a(S'0:03:05'
p4249
VC(5, 1) * C(5, 1)
p4250
tp4251
a(S'0:03:46'
p4252
VC(5, 1)
p4253
tp4254
a(S'0:03:57'
p4255
V5*4
p4256
tp4257
a(S'1 day, 5:59:03'
p4258
V5*5
p4259
tp4260
a(S'1 day, 23:51:11'
p4261
V2^5
p4262
tp4263
a(S'1 day, 23:51:39'
p4264
VC(5, 2)
p4265
tp4266
a(S'1 day, 23:52:18'
p4267
V5*5
p4268
tp4269
a(S'1 day, 23:52:57'
p4270
V5*4
p4271
tp4272
a(S'1 day, 23:53:47'
p4273
V2^(5*4) 
p4274
tp4275
a(S'1 day, 23:55:10'
p4276
VC(5, 2)
p4277
tp4278
asS'part1_correct_attempt'
p4279
(lp4280
S'0:00:00'
p4281
aVC(14,2)
p4282
asg9
V2015-10-13 00:47:32
p4283
ssVasp025
p4284
(dp4285
S'part3_correct_attempt'
p4286
(lp4287
S'0:44:15'
p4288
aV(6!/(2!(6-2)!))^2
p4289
asS'part3_incorrect_attempt'
p4290
(lp4291
(S'0:09:06'
p4292
V6!/4!2!
p4293
tp4294
asS'part1_correct_attempt'
p4295
(lp4296
S'0:00:00'
p4297
aV15!/(2!(15-2)!)
p4298
asg9
V2015-10-15 07:33:26
p4299
ssVjfalcone
p4300
(dp4301
S'part3_correct_attempt'
p4302
(lp4303
S'20:45:23'
p4304
aVC(4,2) * C(4,2)
p4305
asS'part3_incorrect_attempt'
p4306
(lp4307
(S'0:04:31'
p4308
V4!/(2!2!)
p4309
tp4310
a(S'0:07:46'
p4311
V4 * 3
p4312
tp4313
a(S'20:44:47'
p4314
VC(4,2)
p4315
tp4316
asS'part1_correct_attempt'
p4317
(lp4318
S'0:00:00'
p4319
aV14!/(2!12!)
p4320
asg9
V2015-10-14 23:13:51
p4321
ssVt2shin
p4322
(dp4323
S'part3_correct_attempt'
p4324
(lp4325
S'1:05:24'
p4326
aV(5!/(2!3!))^2
p4327
asS'part3_incorrect_attempt'
p4328
(lp4329
(S'0:01:54'
p4330
V5!/(1!4!)
p4331
tp4332
a(S'0:14:07'
p4333
V5*4
p4334
tp4335
a(S'0:20:30'
p4336
V5!/(1!4!)
p4337
tp4338
a(S'1:04:53'
p4339
V2*(5!/(2!3!))
p4340
tp4341
asS'part1_correct_attempt'
p4342
(lp4343
S'0:00:00'
p4344
aV11!/(2!9!)
p4345
asg9
V2015-10-15 06:11:43
p4346
ssVewbrenna
p4347
(dp4348
S'part3_correct_attempt'
p4349
(lp4350
S'9:03:00'
p4351
aV15^2
p4352
asS'part3_incorrect_attempt'
p4353
(lp4354
(S'0:03:00'
p4355
V5*4
p4356
tp4357
a(S'0:04:55'
p4358
V6*5
p4359
tp4360
a(S'0:05:27'
p4361
V5*4
p4362
tp4363
a(S'0:06:23'
p4364
V6*5*6*5
p4365
tp4366
a(S'0:08:08'
p4367
V6^2
p4368
tp4369
a(S'0:08:13'
p4370
V6^4
p4371
tp4372
a(S'0:26:18'
p4373
V6^4
p4374
tp4375
a(S'0:27:50'
p4376
V4!
p4377
tp4378
a(S'0:36:42'
p4379
V(36)^2/2
p4380
tp4381
a(S'0:37:05'
p4382
V18^2/2
p4383
tp4384
a(S'0:38:00'
p4385
V6^4
p4386
tp4387
asS'part1_correct_attempt'
p4388
(lp4389
S'0:00:00'
p4390
ag1352
asg9
V2015-10-12 20:28:01
p4391
ssVspw006
p4392
(dp4393
S'part3_correct_attempt'
p4394
(lp4395
S'0:12:38'
p4396
aVC(5,2)^2
p4397
asS'part3_incorrect_attempt'
p4398
(lp4399
(S'0:04:41'
p4400
VC(5,2)
p4401
tp4402
asS'part1_correct_attempt'
p4403
(lp4404
S'0:00:00'
p4405
aVC(10,2)
p4406
asg9
V2015-10-13 22:38:52
p4407
ssVs1powers
p4408
(dp4409
S'part3_correct_attempt'
p4410
(lp4411
S'19:23:57'
p4412
aV5!/(3!2!)*5!/(3!2!)
p4413
asS'part3_incorrect_attempt'
p4414
(lp4415
(S'0:01:07'
p4416
V5*4
p4417
tp4418
a(S'0:03:01'
p4419
V5*4
p4420
tp4421
a(S'0:03:36'
p4422
V4/2!2!
p4423
tp4424
a(S'0:03:42'
p4425
V4/(2!2!)
p4426
tp4427
a(S'0:04:27'
p4428
V4*3
p4429
tp4430
a(S'19:22:12'
p4431
V4!/(2!2!)
p4432
tp4433
a(S'19:22:56'
p4434
V5!/(4!1!)
p4435
tp4436
a(S'19:23:24'
p4437
V5*4*3*2
p4438
tp4439
asS'part1_correct_attempt'
p4440
(lp4441
S'0:00:00'
p4442
aV12!/(10!2!)
p4443
asg9
V2015-10-11 00:17:11
p4444
ssVe9brown
p4445
(dp4446
S'part3_correct_attempt'
p4447
(lp4448
S'1:54:42'
p4449
aVC(6,2) * C(6,2)
p4450
asS'part3_incorrect_attempt'
p4451
(lp4452
(S'0:00:00'
p4453
VC(4,2)
p4454
tp4455
a(S'0:00:17'
p4456
V6 * 6
p4457
tp4458
a(S'0:03:27'
p4459
VC(6,2)
p4460
tp4461
a(S'0:03:44'
p4462
VC(5,2)
p4463
tp4464
a(S'0:03:58'
p4465
V6 * 6
p4466
tp4467
a(S'0:04:06'
p4468
V6 * 5
p4469
tp4470
a(S'0:04:13'
p4471
V5 * 4
p4472
tp4473
a(S'0:05:34'
p4474
VC(6,4)
p4475
tp4476
a(S'0:05:44'
p4477
V6^4
p4478
tp4479
a(S'1:45:56'
p4480
V3!
p4481
tp4482
a(S'1:46:30'
p4483
V4!
p4484
tp4485
a(S'1:47:25'
p4486
V6!
p4487
tp4488
a(S'1:48:50'
p4489
V36*36
p4490
tp4491
a(S'1:49:12'
p4492
V6! 
p4493
tp4494
a(S'1:49:53'
p4495
VC(6,4)
p4496
tp4497
a(S'1:50:02'
p4498
VC(6,2)
p4499
tp4500
asS'part1_correct_attempt'
p4501
(lp4502
S'0:00:00'
p4503
aVC(16,2)
p4504
asg9
V2015-10-14 08:48:39
p4505
ssVvsosnovs
p4506
(dp4507
S'part3_correct_attempt'
p4508
(lp4509
S'2:10:05'
p4510
aVC(6,2)C(6,2)
p4511
asS'part3_incorrect_attempt'
p4512
(lp4513
(S'0:00:43'
p4514
VC(4,2)
p4515
tp4516
a(S'0:00:50'
p4517
VC(6,2)
p4518
tp4519
a(S'1:48:14'
p4520
VC(6,2)
p4521
tp4522
a(S'1:48:41'
p4523
VC(6,1)
p4524
tp4525
a(S'1:48:47'
p4526
VC(4,1)
p4527
tp4528
a(S'1:48:54'
p4529
VC(6,1)
p4530
tp4531
a(S'1:49:06'
p4532
VC(4,2)
p4533
tp4534
a(S'1:49:34'
p4535
V6!
p4536
tp4537
a(S'1:57:48'
p4538
VC(6,2)
p4539
tp4540
asS'part1_correct_attempt'
p4541
(lp4542
S'0:00:00'
p4543
ag1394
asg9
V2015-10-15 04:31:16
p4544
ssVjdeon
p4545
(dp4546
S'part3_correct_attempt'
p4547
(lp4548
S'3:38:49'
p4549
aVC(6,2)*C(6,2)
p4550
asS'part3_incorrect_attempt'
p4551
(lp4552
(S'3:35:20'
p4553
VC(6,2)
p4554
tp4555
asS'part1_correct_attempt'
p4556
(lp4557
S'0:00:00'
p4558
aVC(11,2)
p4559
asg9
V2015-10-11 19:44:27
p4560
ssVb1green
p4561
(dp4562
S'part3_correct_attempt'
p4563
(lp4564
S'0:24:08'
p4565
aVC(6,2)C(6,2)
p4566
asS'part3_incorrect_attempt'
p4567
(lp4568
(S'0:01:42'
p4569
VC(6,2)
p4570
tp4571
a(S'0:01:54'
p4572
VC(6,3)
p4573
tp4574
a(S'0:02:47'
p4575
VC(5,2)
p4576
tp4577
a(S'0:07:51'
p4578
VC(6,2)
p4579
tp4580
a(S'0:09:50'
p4581
VC(6,4)
p4582
tp4583
a(S'0:19:45'
p4584
VC(6,2)
p4585
tp4586
a(S'0:19:50'
p4587
VC(6,4)
p4588
tp4589
asS'part1_correct_attempt'
p4590
(lp4591
S'0:00:00'
p4592
aVC(13,2)
p4593
asg9
V2015-10-15 21:09:19
p4594
ssVp4kumar
p4595
(dp4596
S'part3_correct_attempt'
p4597
(lp4598
S'1:29:29'
p4599
aVC(4, 2)*C(4,2)
p4600
asS'part3_incorrect_attempt'
p4601
(lp4602
(S'0:01:47'
p4603
VC(4, 2)
p4604
tp4605
a(S'0:08:45'
p4606
V4!
p4607
tp4608
a(S'1:25:10'
p4609
VC(4, 2)
p4610
tp4611
a(S'1:28:34'
p4612
VC(4, 2)
p4613
tp4614
asS'part1_correct_attempt'
p4615
(lp4616
S'0:00:00'
p4617
aVC(15, 2)
p4618
asg9
V2015-10-15 09:13:04
p4619
ssVs2chaudh
p4620
(dp4621
S'part3_correct_attempt'
p4622
(lp4623
S'14:45:51'
p4624
aVC(6,2)^2
p4625
asS'part3_incorrect_attempt'
p4626
(lp4627
(S'0:00:00'
p4628
VC(6,2)
p4629
tp4630
a(S'0:07:28'
p4631
VC(6,1)
p4632
tp4633
a(S'0:12:14'
p4634
VC(6,4)
p4635
tp4636
a(S'0:13:15'
p4637
VC(6,2)
p4638
tp4639
a(S'0:13:23'
p4640
VC(6,3)
p4641
tp4642
a(S'0:13:34'
p4643
VC(6,5)
p4644
tp4645
a(S'0:13:45'
p4646
VC(6,6)
p4647
tp4648
a(S'0:13:54'
p4649
VC(6,0)
p4650
tp4651
asS'part1_correct_attempt'
p4652
(lp4653
S'0:00:00'
p4654
aVC(14,2)
p4655
asg9
V2015-10-13 05:01:41
p4656
ssVjmiclat
p4657
(dp4658
S'part3_correct_attempt'
p4659
(lp4660
S'0:01:25'
p4661
aV(6!/(2!4!))^2
p4662
asS'part3_incorrect_attempt'
p4663
(lp4664
(S'0:00:00'
p4665
V(11!/(2!9!))^2
p4666
tp4667
a(S'0:00:09'
p4668
V(11!/(2!9!))^4
p4669
tp4670
a(S'0:00:16'
p4671
V(11!/(2!9!))^6
p4672
tp4673
asS'part1_correct_attempt'
p4674
(lp4675
S'0:00:00'
p4676
aV11!/(2!9!)
p4677
asg9
V2015-10-15 18:33:08
p4678
ssVbmilton
p4679
(dp4680
S'part3_correct_attempt'
p4681
(lp4682
S'0:01:36'
p4683
aVC(6,2)^2
p4684
asS'part3_incorrect_attempt'
p4685
(lp4686
(S'0:00:00'
p4687
VC(6,4)
p4688
tp4689
a(S'0:01:11'
p4690
VC(6,2)
p4691
tp4692
asS'part1_correct_attempt'
p4693
(lp4694
S'0:00:00'
p4695
aVC(13,2)
p4696
asg9
V2015-10-09 23:14:34
p4697
ssVc3chung
p4698
(dp4699
S'part3_incorrect_attempt'
p4700
(lp4701
(S'0:00:00'
p4702
V5^5
p4703
tp4704
a(S'0:00:00'
p4705
VC(75,5)
p4706
tp4707
a(S'0:00:00'
p4708
VC(15,1)C(14,1)C(5,2)C(5,2)C(13,1)C(5,1)
p4709
tp4710
a(S'0:00:00'
p4711
VC(15,2)(5)C(15,2)(4)(15)(3)
p4712
tp4713
asg9
V2015-10-15 23:00:44
p4714
ssVdcgriffi
p4715
(dp4716
S'part3_correct_attempt'
p4717
(lp4718
S'0:32:53'
p4719
aV(5!/(2!*3!))^2
p4720
asS'part3_incorrect_attempt'
p4721
(lp4722
(S'0:00:00'
p4723
V5*4*5*4
p4724
tp4725
a(S'0:00:31'
p4726
V2*(5!/(2!3!))
p4727
tp4728
a(S'0:02:48'
p4729
V5!/(4!*1!)
p4730
tp4731
a(S'0:04:01'
p4732
V5*4
p4733
tp4734
a(S'0:07:27'
p4735
V5*5
p4736
tp4737
a(S'0:07:39'
p4738
V5!
p4739
tp4740
a(S'0:07:52'
p4741
V5*5*5*5
p4742
tp4743
a(S'0:26:14'
p4744
V(5^2-1)^2
p4745
tp4746
a(S'0:26:26'
p4747
V(5^2-1)*2
p4748
tp4749
a(S'0:26:51'
p4750
V20^2
p4751
tp4752
a(S'0:27:09'
p4753
V5^2
p4754
tp4755
a(S'0:28:56'
p4756
V5!/(4!*1!)
p4757
tp4758
asS'part1_correct_attempt'
p4759
(lp4760
S'0:00:00'
p4761
aV16!/(2!*14!)
p4762
asg9
V2015-10-14 07:27:03
p4763
ssVcfgutier
p4764
(dp4765
S'part3_incorrect_attempt'
p4766
(lp4767
(S'0:04:52'
p4768
V4^2
p4769
tp4770
a(S'0:05:02'
p4771
V4*3
p4772
tp4773
asS'part1_correct_attempt'
p4774
(lp4775
S'0:00:00'
p4776
aV91
p4777
asg9
V2015-10-15 23:32:23
p4778
ssVdkostins
p4779
(dp4780
S'part3_correct_attempt'
p4781
(lp4782
S'0:03:23'
p4783
aVC(5,2)^2
p4784
asS'part3_incorrect_attempt'
p4785
(lp4786
(S'0:02:59'
p4787
VC(5,2)
p4788
tp4789
asS'part1_correct_attempt'
p4790
(lp4791
S'0:00:00'
p4792
aVC(10,2)
p4793
asg9
V2015-10-15 18:34:04
p4794
ssVagarango
p4795
(dp4796
S'part3_correct_attempt'
p4797
(lp4798
S'0:51:35'
p4799
aV36
p4800
asS'part3_incorrect_attempt'
p4801
(lp4802
(S'0:25:31'
p4803
V4!
p4804
tp4805
a(S'0:27:12'
p4806
V4^3
p4807
tp4808
asS'part1_correct_attempt'
p4809
(lp4810
S'0:00:00'
p4811
aV15!/{[2!]*(13!)}
p4812
asg9
V2015-10-15 19:43:21
p4813
ssVs6deng
p4814
(dp4815
S'part3_correct_attempt'
p4816
(lp4817
S'0:03:41'
p4818
aV(4!/(2!2!))*(4!/(2!2!))
p4819
asS'part3_incorrect_attempt'
p4820
(lp4821
(S'0:02:08'
p4822
VC(4,2)
p4823
tp4824
asS'part1_correct_attempt'
p4825
(lp4826
S'0:00:00'
p4827
ag1474
asg9
V2015-10-14 03:56:06
p4828
ssVachinn
p4829
(dp4830
S'part3_correct_attempt'
p4831
(lp4832
S'0:06:17'
p4833
aV(4*3)*(4*3)/4
p4834
asS'part3_incorrect_attempt'
p4835
(lp4836
(S'0:04:48'
p4837
V4^4
p4838
tp4839
a(S'0:05:18'
p4840
V4*3*4*3
p4841
tp4842
a(S'0:05:50'
p4843
V(4*3*4*3)/2
p4844
tp4845
asS'part1_correct_attempt'
p4846
(lp4847
S'0:00:00'
p4848
aV(13*12)/2
p4849
asg9
V2015-10-12 23:51:19
p4850
ssVjap009
p4851
(dp4852
S'part3_correct_attempt'
p4853
(lp4854
S'0:06:26'
p4855
aV(6!/(2!4!))^2
p4856
asS'part3_incorrect_attempt'
p4857
(lp4858
(S'0:01:13'
p4859
V4!/(2!2!)
p4860
tp4861
asS'part1_correct_attempt'
p4862
(lp4863
S'0:00:00'
p4864
aV13!/(2!11!)
p4865
asg9
V2015-10-15 22:18:52
p4866
ssVkalang
p4867
(dp4868
S'part3_correct_attempt'
p4869
(lp4870
S'0:05:37'
p4871
aVC(5,2)^2
p4872
asS'part3_incorrect_attempt'
p4873
(lp4874
(S'0:01:05'
p4875
VC(5,2)
p4876
tp4877
a(S'0:01:21'
p4878
VC(5,1)
p4879
tp4880
a(S'0:01:27'
p4881
VC(5,4)
p4882
tp4883
a(S'0:01:34'
p4884
VC(5,3)
p4885
tp4886
asS'part1_correct_attempt'
p4887
(lp4888
S'0:00:00'
p4889
ag1486
asg9
V2015-10-15 23:15:01
p4890
ssVmsaguiar
p4891
(dp4892
S'part3_correct_attempt'
p4893
(lp4894
S'0:06:32'
p4895
aVC(6,2)*C(6,2)
p4896
asS'part3_incorrect_attempt'
p4897
(lp4898
(S'0:00:58'
p4899
VC(6,2)
p4900
tp4901
a(S'0:01:08'
p4902
V2*C(6,2)
p4903
tp4904
asS'part1_correct_attempt'
p4905
(lp4906
S'0:00:00'
p4907
aVC(12,2)
p4908
asg9
V2015-10-14 02:26:42
p4909
ssVk5law
p4910
(dp4911
S'part3_correct_attempt'
p4912
(lp4913
S'1 day, 1:44:23'
p4914
aV[5!/(3!2!)]*[5!/(3!2!)]
p4915
asS'part3_incorrect_attempt'
p4916
(lp4917
(S'0:02:45'
p4918
V5^2
p4919
tp4920
a(S'3:45:12'
p4921
V4^4
p4922
tp4923
a(S'3:46:01'
p4924
V5^4
p4925
tp4926
asS'part1_correct_attempt'
p4927
(lp4928
S'0:00:00'
p4929
aV55
p4930
asg9
V2015-10-12 02:50:09
p4931
ssVhah008
p4932
(dp4933
S'part3_correct_attempt'
p4934
(lp4935
S'1:36:17'
p4936
aVC(6, 2) ** 2
p4937
asS'part3_incorrect_attempt'
p4938
(lp4939
(S'0:01:33'
p4940
VC(6, 2)
p4941
tp4942
a(S'1:31:51'
p4943
VC(6, 4)
p4944
tp4945
a(S'1:34:28'
p4946
VC(6, 2)
p4947
tp4948
asS'part1_correct_attempt'
p4949
(lp4950
S'0:00:00'
p4951
aVC(10, 2)
p4952
asg9
V2015-10-15 07:31:49
p4953
ssVmcatozzi
p4954
(dp4955
S'part3_correct_attempt'
p4956
(lp4957
S'0:09:17'
p4958
aV100
p4959
asS'part3_incorrect_attempt'
p4960
(lp4961
(S'0:01:06'
p4962
VC(5,2)
p4963
tp4964
a(S'0:03:11'
p4965
VC(5,1)
p4966
tp4967
a(S'0:06:43'
p4968
VC(5,2)
p4969
tp4970
asS'part1_correct_attempt'
p4971
(lp4972
S'0:00:00'
p4973
ag1528
asg9
V2015-10-14 00:47:42
p4974
ssVjnn015
p4975
(dp4976
S'part3_correct_attempt'
p4977
(lp4978
S'0:05:38'
p4979
aV(5!/2!/3!)^2
p4980
asS'part3_incorrect_attempt'
p4981
(lp4982
(S'0:00:00'
p4983
V(5*4)
p4984
tp4985
asS'part1_correct_attempt'
p4986
(lp4987
S'0:00:00'
p4988
aV12!/10!/2!
p4989
asg9
V2015-10-11 23:12:06
p4990
ssVdpereira
p4991
(dp4992
S'part3_correct_attempt'
p4993
(lp4994
S'0:18:25'
p4995
aVC(5,2)^2
p4996
asS'part3_incorrect_attempt'
p4997
(lp4998
(S'0:01:53'
p4999
VC(5,2)
p5000
tp5001
a(S'0:02:02'
p5002
V5!
p5003
tp5004
a(S'0:02:56'
p5005
V5*4*5*4
p5006
tp5007
a(S'0:03:19'
p5008
V5*4
p5009
tp5010
a(S'0:06:50'
p5011
VC(5,4)
p5012
tp5013
a(S'0:07:00'
p5014
VC(5,2)
p5015
tp5016
asS'part1_correct_attempt'
p5017
(lp5018
S'0:00:00'
p5019
aVC(13,2)
p5020
asg9
V2015-10-10 05:58:33
p5021
ssVhmshah
p5022
(dp5023
S'part3_correct_attempt'
p5024
(lp5025
S'0:01:10'
p5026
aVC(4,2)*C(4,2)
p5027
asS'part3_incorrect_attempt'
p5028
(lp5029
(S'0:00:43'
p5030
VC(4,2)
p5031
tp5032
asS'part1_correct_attempt'
p5033
(lp5034
S'0:00:00'
p5035
ag1552
asg9
V2015-10-14 03:07:59
p5036
ssVhaliew
p5037
(dp5038
S'part3_correct_attempt'
p5039
(lp5040
S'0:01:41'
p5041
aVC(5,2)^2
p5042
asS'part3_incorrect_attempt'
p5043
(lp5044
(S'0:00:00'
p5045
VC(5,2)
p5046
tp5047
asS'part1_correct_attempt'
p5048
(lp5049
S'0:00:00'
p5050
aVC(14,2)
p5051
asg9
V2015-10-14 00:22:56
p5052
ssVlahawkin
p5053
(dp5054
S'part3_correct_attempt'
p5055
(lp5056
S'0:06:37'
p5057
aV((5!)/(3!*2!))^2
p5058
asS'part3_incorrect_attempt'
p5059
(lp5060
(S'0:02:16'
p5061
V2*10
p5062
tp5063
asS'part1_correct_attempt'
p5064
(lp5065
S'0:00:00'
p5066
ag1576
asg9
V2015-10-14 05:23:54
p5067
ssVr2fisher
p5068
(dp5069
S'part3_correct_attempt'
p5070
(lp5071
S'22:58:13'
p5072
aVC(6,2)*C(6,2)
p5073
asS'part3_incorrect_attempt'
p5074
(lp5075
(S'0:01:53'
p5076
V6^2
p5077
tp5078
a(S'0:02:00'
p5079
V2^6
p5080
tp5081
a(S'22:54:08'
p5082
V6!
p5083
tp5084
a(S'22:54:30'
p5085
V6^6
p5086
tp5087
a(S'22:54:51'
p5088
V2^6
p5089
tp5090
a(S'22:55:15'
p5091
V6*6
p5092
tp5093
asS'part1_correct_attempt'
p5094
(lp5095
S'0:00:00'
p5096
ag1588
asg9
V2015-10-14 23:23:47
p5097
ssVvasharma
p5098
(dp5099
S'part3_correct_attempt'
p5100
(lp5101
S'19:20:17'
p5102
aVC(6,2)C(6,2)
p5103
asS'part3_incorrect_attempt'
p5104
(lp5105
(S'0:02:21'
p5106
VC(4,2)
p5107
tp5108
a(S'0:02:26'
p5109
VC(6,2)
p5110
tp5111
a(S'0:02:39'
p5112
VC(6,1)C(11,2)
p5113
tp5114
a(S'0:04:49'
p5115
VC(66,2)
p5116
tp5117
a(S'18:34:28'
p5118
VC(4,2)
p5119
tp5120
a(S'18:40:18'
p5121
VC(4,1)C(3,1)
p5122
tp5123
a(S'18:40:55'
p5124
VC(6,2)
p5125
tp5126
a(S'18:41:03'
p5127
VC(6,1)C(5,1)
p5128
tp5129
a(S'19:00:28'
p5130
VC(6,2)
p5131
tp5132
a(S'19:00:35'
p5133
VC(5,2)
p5134
tp5135
a(S'19:00:46'
p5136
VC(7,2)
p5137
tp5138
a(S'19:00:52'
p5139
VC(8,2)
p5140
tp5141
a(S'19:01:17'
p5142
VC(7,2)
p5143
tp5144
a(S'19:19:01'
p5145
VC(9,2)
p5146
tp5147
asS'part1_correct_attempt'
p5148
(lp5149
S'0:00:00'
p5150
ag1600
asg9
V2015-10-10 07:50:57
p5151
ssVhpc001
p5152
(dp5153
S'part3_correct_attempt'
p5154
(lp5155
S'0:47:46'
p5156
aVC(5,2)*C(5,2)
p5157
asS'part3_incorrect_attempt'
p5158
(lp5159
(S'0:00:22'
p5160
VC(5,2)
p5161
tp5162
a(S'0:00:48'
p5163
VC(5,1)
p5164
tp5165
asS'part1_correct_attempt'
p5166
(lp5167
S'0:00:00'
p5168
aVC(14,2)
p5169
asg9
V2015-10-14 22:18:56
p5170
ssVsyip
p5171
(dp5172
S'part3_correct_attempt'
p5173
(lp5174
S'0:02:07'
p5175
aVC(4,2) * C(4,2)
p5176
asS'part3_incorrect_attempt'
p5177
(lp5178
(S'0:00:00'
p5179
VC(4,2)
p5180
tp5181
asS'part1_correct_attempt'
p5182
(lp5183
S'0:00:00'
p5184
aVC(11,2)
p5185
asg9
V2015-10-11 23:26:48
p5186
ssVxweng
p5187
(dp5188
S'part3_correct_attempt'
p5189
(lp5190
S'0:02:42'
p5191
aVC(4,2)C(4,2)
p5192
asS'part3_incorrect_attempt'
p5193
(lp5194
(S'0:00:12'
p5195
VC(4,2)
p5196
tp5197
a(S'0:00:19'
p5198
VC(4,1)
p5199
tp5200
a(S'0:01:08'
p5201
VC(4,1)C(4,1)
p5202
tp5203
a(S'0:01:56'
p5204
VC(4,1)
p5205
tp5206
a(S'0:02:23'
p5207
VC(4,2)
p5208
tp5209
asS'part1_correct_attempt'
p5210
(lp5211
S'0:00:00'
p5212
ag1615
asg9
V2015-10-13 02:15:31
p5213
ssVamquinte
p5214
(dp5215
S'part3_correct_attempt'
p5216
(lp5217
S'4:06:17'
p5218
aV225
p5219
asS'part3_incorrect_attempt'
p5220
(lp5221
(S'0:03:40'
p5222
V30*30
p5223
tp5224
asS'part1_correct_attempt'
p5225
(lp5226
S'0:00:00'
p5227
ag1406
asg9
V2015-10-14 18:19:04
p5228
ssVyypan
p5229
(dp5230
S'part3_correct_attempt'
p5231
(lp5232
S'0:01:43'
p5233
aVC(4,2)^2
p5234
asS'part3_incorrect_attempt'
p5235
(lp5236
(S'0:01:25'
p5237
VC(4,2)
p5238
tp5239
asS'part1_correct_attempt'
p5240
(lp5241
S'0:00:00'
p5242
aVC(12,2)
p5243
asg9
V2015-10-12 20:58:54
p5244
ssVajvanega
p5245
(dp5246
S'part3_correct_attempt'
p5247
(lp5248
S'4:04:47'
p5249
aV(5!/(3!2!))^2
p5250
asS'part3_incorrect_attempt'
p5251
(lp5252
(S'0:03:47'
p5253
V5^2
p5254
tp5255
a(S'0:04:37'
p5256
V5^4
p5257
tp5258
a(S'0:06:09'
p5259
V5*4*5*4
p5260
tp5261
a(S'0:07:49'
p5262
V5*4
p5263
tp5264
a(S'4:02:33'
p5265
V5!
p5266
tp5267
a(S'4:04:32'
p5268
V(5!/3!2!)^2
p5269
tp5270
asS'part1_correct_attempt'
p5271
(lp5272
S'0:00:00'
p5273
aV16!/(14!2!)
p5274
asg9
V2015-10-14 18:41:47
p5275
ssVzig006
p5276
(dp5277
S'part3_correct_attempt'
p5278
(lp5279
S'0:02:43'
p5280
aV(5!/(2!3!))*(5!/(2!3!))
p5281
asS'part3_incorrect_attempt'
p5282
(lp5283
(S'0:01:36'
p5284
V5!/4!
p5285
tp5286
asS'part1_correct_attempt'
p5287
(lp5288
S'0:00:00'
p5289
aV16!/(2!14!)
p5290
asg9
V2015-10-12 23:28:50
p5291
ssVkgrozav
p5292
(dp5293
S'part3_correct_attempt'
p5294
(lp5295
S'0:09:04'
p5296
aVC(6,2)*C(6,2)
p5297
asS'part3_incorrect_attempt'
p5298
(lp5299
(S'0:01:54'
p5300
VC(6,2)
p5301
tp5302
asS'part1_correct_attempt'
p5303
(lp5304
S'0:00:00'
p5305
ag1689
asg9
V2015-10-15 19:22:51
p5306
ssVj2phung
p5307
(dp5308
S'part3_correct_attempt'
p5309
(lp5310
S'0:13:44'
p5311
aV(4!/(2!2!))^2
p5312
asS'part3_incorrect_attempt'
p5313
(lp5314
(S'0:10:28'
p5315
V4!/(2!2!)
p5316
tp5317
a(S'0:10:50'
p5318
V4*3
p5319
tp5320
asS'part1_correct_attempt'
p5321
(lp5322
S'0:00:00'
p5323
ag1701
asg9
V2015-10-14 07:42:06
p5324
sssV2
p5325
(dp5326
Vdruble
p5327
(dp5328
S'part2_correct_attempt'
p5329
(lp5330
S'-1 day, 23:57:46'
p5331
aVC(14,1)
p5332
asg9
g2483
sS'part2_incorrect_attempt'
p5333
(lp5334
(S'-1 day, 23:56:31'
p5335
VC(13,1)
p5336
tp5337
assVazkong
p5338
(dp5339
S'part2_correct_attempt'
p5340
(lp5341
S'1:23:23'
p5342
aVC(13, 1)
p5343
asg9
g4151
sS'part2_incorrect_attempt'
p5344
(lp5345
(S'0:00:00'
p5346
VC(15, 1)
p5347
tp5348
a(S'0:00:19'
p5349
VC(14, 1)
p5350
tp5351
a(S'0:05:55'
p5352
VC(15, 1)
p5353
tp5354
assVd6he
p5355
(dp5356
S'part2_correct_attempt'
p5357
(lp5358
S'0:02:19'
p5359
aV12
p5360
asg9
V2015-10-15 06:55:19
p5361
sS'part2_incorrect_attempt'
p5362
(lp5363
(S'0:00:38'
p5364
V14!/(13!1!)
p5365
tp5366
assVlpettit
p5367
(dp5368
S'part2_correct_attempt'
p5369
(lp5370
S'0:06:50'
p5371
aV14
p5372
asg9
g3518
sS'part2_incorrect_attempt'
p5373
(lp5374
(S'0:00:29'
p5375
V16*4
p5376
tp5377
a(S'0:02:29'
p5378
V16*3
p5379
tp5380
a(S'0:02:37'
p5381
V16*2
p5382
tp5383
a(S'0:02:58'
p5384
V16*5
p5385
tp5386
assVaysee
p5387
(dp5388
S'part2_correct_attempt'
p5389
(lp5390
S'0:44:48'
p5391
aVC(11,1)
p5392
asg9
g2169
sS'part2_incorrect_attempt'
p5393
(lp5394
(S'0:00:00'
p5395
VC(13,1)
p5396
tp5397
assVjfalcone
p5398
(dp5399
S'part2_correct_attempt'
p5400
(lp5401
S'0:11:55'
p5402
aV12
p5403
asg9
g4321
sS'part2_incorrect_attempt'
p5404
(lp5405
(S'0:03:50'
p5406
V14!/13!
p5407
tp5408
assVv4zhang
p5409
(dp5410
S'part2_correct_attempt'
p5411
(lp5412
S'0:01:34'
p5413
aVC(13, 1)
p5414
asg9
g1807
sS'part2_incorrect_attempt'
p5415
(lp5416
(S'-1 day, 23:58:30'
p5417
VC(15, 1)
p5418
tp5419
assVlywong
p5420
(dp5421
S'part2_correct_attempt'
p5422
(lp5423
S'-1 day, 16:30:43'
p5424
aV20
p5425
asg9
g3549
sS'part2_incorrect_attempt'
p5426
(lp5427
(S'-1 day, 16:18:50'
p5428
V6^4
p5429
tp5430
assVjjchung
p5431
(dp5432
S'part2_correct_attempt'
p5433
(lp5434
S'0:18:35'
p5435
aV9
p5436
asg9
g2613
sS'part2_incorrect_attempt'
p5437
(lp5438
(S'-1 day, 23:56:49'
p5439
VC(13,2)*5
p5440
tp5441
a(S'-1 day, 23:57:50'
p5442
VC(11,2)*2
p5443
tp5444
a(S'-1 day, 23:58:33'
p5445
VC(11,2)*2*5
p5446
tp5447
a(S'0:00:11'
p5448
VC(11,1)
p5449
tp5450
a(S'0:04:21'
p5451
VC(11,2)*51
p5452
tp5453
assVhkhodada
p5454
(dp5455
S'part2_correct_attempt'
p5456
(lp5457
S'1 day, 4:25:46'
p5458
aV12
p5459
asg9
g3588
sS'part2_incorrect_attempt'
p5460
(lp5461
(S'-1 day, 23:59:50'
p5462
V4*C(4,1)
p5463
tp5464
a(S'0:00:00'
p5465
VC(4,1)
p5466
tp5467
a(S'0:00:21'
p5468
VC(14,1)
p5469
tp5470
a(S'0:11:29'
p5471
VC(56,1)
p5472
tp5473
a(S'0:15:51'
p5474
VC(14,13)
p5475
tp5476
a(S'0:20:08'
p5477
VP(14,1)
p5478
tp5479
a(S'0:26:09'
p5480
VC(14,1)
p5481
tp5482
a(S'0:39:10'
p5483
VC(56,1)
p5484
tp5485
a(S'3:44:33'
p5486
V4*C(14,1)
p5487
tp5488
a(S'3:56:35'
p5489
VC(14,4)
p5490
tp5491
a(S'3:59:17'
p5492
VC(4,1)
p5493
tp5494
a(S'10:40:31'
p5495
VC(14,1)
p5496
tp5497
assVlrlai
p5498
(dp5499
S'part2_correct_attempt'
p5500
(lp5501
S'0:00:18'
p5502
aV13
p5503
asg9
g2541
sS'part2_incorrect_attempt'
p5504
(lp5505
(S'0:00:09'
p5506
VC(15,1)
p5507
tp5508
assVjcl084
p5509
(dp5510
S'part2_correct_attempt'
p5511
(lp5512
S'0:00:47'
p5513
aV8
p5514
asg9
g3603
sS'part2_incorrect_attempt'
p5515
(lp5516
(S'0:00:10'
p5517
VC(10,1)
p5518
tp5519
assVsrl006
p5520
(dp5521
S'part2_correct_attempt'
p5522
(lp5523
S'3 days, 9:44:00'
p5524
aV9
p5525
asg9
V2015-10-10 05:56:55
p5526
sS'part2_incorrect_attempt'
p5527
(lp5528
(S'0:00:25'
p5529
V11!
p5530
tp5531
a(S'0:00:31'
p5532
V10!
p5533
tp5534
assVjguanzho
p5535
(dp5536
S'part2_correct_attempt'
p5537
(lp5538
S'0:35:52'
p5539
aV12
p5540
asg9
g1853
sS'part2_incorrect_attempt'
p5541
(lp5542
(S'0:00:00'
p5543
V10!/9!
p5544
tp5545
assValakamsa
p5546
(dp5547
S'part2_correct_attempt'
p5548
(lp5549
S'0:23:55'
p5550
aV9
p5551
asg9
g1869
sS'part2_incorrect_attempt'
p5552
(lp5553
(S'0:03:18'
p5554
V11*2
p5555
tp5556
assVewbrenna
p5557
(dp5558
S'part2_correct_attempt'
p5559
(lp5560
S'0:04:45'
p5561
aV11
p5562
asg9
g4391
sS'part2_incorrect_attempt'
p5563
(lp5564
(S'0:03:18'
p5565
V13*6
p5566
tp5567
assVqtluong
p5568
(dp5569
S'part2_correct_attempt'
p5570
(lp5571
S'0:00:57'
p5572
aV8!/(1!(8-1)!)
p5573
asg9
V2015-10-12 20:28:39
p5574
sS'part2_incorrect_attempt'
p5575
(lp5576
(S'0:00:15'
p5577
V8!/(1!(7-1!))
p5578
tp5579
a(S'0:00:22'
p5580
V8!/(1!(8-1!))
p5581
tp5582
a(S'0:00:49'
p5583
V8!/(1!(8-1!))
p5584
tp5585
assVhpc001
p5586
(dp5587
S'part2_correct_attempt'
p5588
(lp5589
S'0:10:08'
p5590
aV12
p5591
asg9
g5170
sS'part2_incorrect_attempt'
p5592
(lp5593
(S'0:00:22'
p5594
VC(14,1)
p5595
tp5596
a(S'0:01:41'
p5597
V14*5
p5598
tp5599
a(S'0:06:22'
p5600
VC(14,1) * 2
p5601
tp5602
a(S'0:09:53'
p5603
VC(14,3)
p5604
tp5605
assVdkostins
p5606
(dp5607
S'part2_correct_attempt'
p5608
(lp5609
S'0:02:28'
p5610
aV8
p5611
asg9
g4794
sS'part2_incorrect_attempt'
p5612
(lp5613
(S'0:00:14'
p5614
VC(9,1)
p5615
tp5616
assVthk002
p5617
(dp5618
S'part2_correct_attempt'
p5619
(lp5620
S'0:00:56'
p5621
aV12
p5622
asg9
g3682
sS'part2_incorrect_attempt'
p5623
(lp5624
(S'0:00:17'
p5625
VC(14,1)
p5626
tp5627
assVanl114
p5628
(dp5629
S'part2_correct_attempt'
p5630
(lp5631
S'-1 day, 23:58:57'
p5632
aV10
p5633
asg9
V2015-10-15 08:30:40
p5634
sS'part2_incorrect_attempt'
p5635
(lp5636
(S'-1 day, 23:58:34'
p5637
V10*6
p5638
tp5639
assVctgraves
p5640
(dp5641
S'part2_correct_attempt'
p5642
(lp5643
S'1 day, 3:58:36'
p5644
aV9
p5645
asg9
V2015-10-14 00:06:31
p5646
sS'part2_incorrect_attempt'
p5647
(lp5648
(S'0:03:04'
p5649
V11!/(2!*9!) -2
p5650
tp5651
assVt2li
p5652
(dp5653
S'part2_correct_attempt'
p5654
(lp5655
S'0:00:55'
p5656
aV12
p5657
asg9
g2906
sS'part2_incorrect_attempt'
p5658
(lp5659
(S'-1 day, 23:56:57'
p5660
V14*13*6*6*5*5*6*12
p5661
tp5662
a(S'0:00:40'
p5663
VC(6,2)
p5664
tp5665
a(S'0:00:44'
p5666
VC(6,1)
p5667
tp5668
assVk5law
p5669
(dp5670
S'part2_correct_attempt'
p5671
(lp5672
S'1 day, 2:18:34'
p5673
aV9
p5674
asg9
g4931
sS'part2_incorrect_attempt'
p5675
(lp5676
(S'0:53:57'
p5677
V5*11
p5678
tp5679
a(S'3:45:12'
p5680
V[11!/(7!4!)]-55
p5681
tp5682
a(S'3:46:01'
p5683
V[11!/(8!3!)]-55
p5684
tp5685
a(S'1 day, 1:46:30'
p5686
V11!/(10!1!)
p5687
tp5688
a(S'1 day, 1:50:24'
p5689
V9*5
p5690
tp5691
a(S'1 day, 1:54:43'
p5692
V[9!/(8!1!)]*5
p5693
tp5694
a(S'1 day, 1:56:35'
p5695
V4*9
p5696
tp5697
a(S'1 day, 1:56:44'
p5698
V3*9
p5699
tp5700
a(S'1 day, 1:59:26'
p5701
V55-(3*9)
p5702
tp5703
a(S'1 day, 1:59:33'
p5704
V55-45
p5705
tp5706
assVw4shin
p5707
(dp5708
S'part2_correct_attempt'
p5709
(lp5710
S'-1 day, 23:57:19'
p5711
aV12
p5712
asg9
g3114
sS'part2_incorrect_attempt'
p5713
(lp5714
(S'-1 day, 3:31:27'
p5715
V12!(11!1!)
p5716
tp5717
assVjag028
p5718
(dp5719
S'part2_correct_attempt'
p5720
(lp5721
S'0:06:21'
p5722
aVC(11,1)
p5723
asg9
V2015-10-15 17:38:33
p5724
sS'part2_incorrect_attempt'
p5725
(lp5726
(S'0:00:20'
p5727
VC(13,1)
p5728
tp5729
a(S'0:05:53'
p5730
VC(13,1)
p5731
tp5732
assVjic212
p5733
(dp5734
S'part2_correct_attempt'
p5735
(lp5736
S'0:00:52'
p5737
aV13
p5738
asg9
g2814
sS'part2_incorrect_attempt'
p5739
(lp5740
(S'0:00:10'
p5741
VC(15,1)
p5742
tp5743
assVs2chaudh
p5744
(dp5745
S'part2_correct_attempt'
p5746
(lp5747
S'14:46:03'
p5748
aVP(12,1)
p5749
asg9
g4656
sS'part2_incorrect_attempt'
p5750
(lp5751
(S'0:00:00'
p5752
VC(14,1)
p5753
tp5754
a(S'0:07:28'
p5755
VC(14,2)
p5756
tp5757
a(S'0:07:45'
p5758
VC(13,1)
p5759
tp5760
a(S'0:08:03'
p5761
VC(14,3)
p5762
tp5763
a(S'0:12:56'
p5764
VC(14,1)
p5765
tp5766
a(S'14:33:32'
p5767
VP(14,1)
p5768
tp5769
assVhaw081
p5770
(dp5771
S'part2_correct_attempt'
p5772
(lp5773
S'2 days, 0:30:27'
p5774
aVC(13,1)
p5775
asg9
g1963
sS'part2_incorrect_attempt'
p5776
(lp5777
(S'0:02:14'
p5778
VC(15,1)
p5779
tp5780
a(S'0:15:18'
p5781
VC(13,2)
p5782
tp5783
a(S'0:15:29'
p5784
VC(15,13)
p5785
tp5786
a(S'0:16:27'
p5787
VC(13,1)+4
p5788
tp5789
assVvqt004
p5790
(dp5791
S'part2_correct_attempt'
p5792
(lp5793
S'0:00:00'
p5794
aVC(9,1)
p5795
asg9
V2015-10-14 05:47:39
p5796
sS'part2_incorrect_attempt'
p5797
(lp5798
(S'-1 day, 23:49:47'
p5799
VC(11,2)
p5800
tp5801
assVffhaddad
p5802
(dp5803
S'part2_correct_attempt'
p5804
(lp5805
S'0:00:25'
p5806
aVC(14,1)
p5807
asg9
g3667
sS'part2_incorrect_attempt'
p5808
(lp5809
(S'0:00:19'
p5810
VC(14,2)
p5811
tp5812
assVt2shin
p5813
(dp5814
S'part2_correct_attempt'
p5815
(lp5816
S'0:09:13'
p5817
aV9
p5818
asg9
g4346
sS'part2_incorrect_attempt'
p5819
(lp5820
(S'0:00:30'
p5821
V11!(1!10!)
p5822
tp5823
a(S'0:00:40'
p5824
V11!/(1!10!)
p5825
tp5826
a(S'0:01:31'
p5827
V55!/(1!54!)
p5828
tp5829
assVjnatale
p5830
(dp5831
S'part2_correct_attempt'
p5832
(lp5833
S'0:12:04'
p5834
aVC(10,1)
p5835
asg9
g3881
sS'part2_incorrect_attempt'
p5836
(lp5837
(S'-1 day, 0:03:39'
p5838
V48*3
p5839
tp5840
a(S'-1 day, 0:20:02'
p5841
V4*12
p5842
tp5843
a(S'-1 day, 15:31:04'
p5844
V4*12*3
p5845
tp5846
a(S'0:01:57'
p5847
VC(12,1)
p5848
tp5849
a(S'0:09:08'
p5850
VC(11,1)
p5851
tp5852
assVrlhagen
p5853
(dp5854
S'part2_correct_attempt'
p5855
(lp5856
S'0:03:57'
p5857
aV10
p5858
asg9
V2015-10-11 18:43:20
p5859
sS'part2_incorrect_attempt'
p5860
(lp5861
(S'0:00:22'
p5862
V12!/(1!(12-1)!)
p5863
tp5864
assVjmmcalex
p5865
(dp5866
S'part2_correct_attempt'
p5867
(lp5868
S'0:17:05'
p5869
aV11
p5870
asg9
V2015-10-15 08:58:44
p5871
sS'part2_incorrect_attempt'
p5872
(lp5873
(S'0:11:56'
p5874
V13*12
p5875
tp5876
a(S'0:12:03'
p5877
V13*16
p5878
tp5879
a(S'0:12:08'
p5880
V13*6
p5881
tp5882
a(S'0:13:53'
p5883
V13^2
p5884
tp5885
assVnnh002
p5886
(dp5887
S'part2_correct_attempt'
p5888
(lp5889
S'0:00:00'
p5890
aV13
p5891
asg9
g3915
sS'part2_incorrect_attempt'
p5892
(lp5893
(S'-1 day, 23:40:11'
p5894
V15*2+14*2
p5895
tp5896
assVbtn023
p5897
(dp5898
S'part2_correct_attempt'
p5899
(lp5900
S'0:01:49'
p5901
aVC(14,1)
p5902
asg9
g1995
sS'part2_incorrect_attempt'
p5903
(lp5904
(S'0:00:00'
p5905
VC(16,1)
p5906
tp5907
assVtwsalim
p5908
(dp5909
S'part2_correct_attempt'
p5910
(lp5911
S'0:05:34'
p5912
aV13
p5913
asg9
V2015-10-12 00:10:41
p5914
sS'part2_incorrect_attempt'
p5915
(lp5916
(S'-1 day, 23:03:34'
p5917
V15!/(4!11!)
p5918
tp5919
assVlalacson
p5920
(dp5921
S'part2_correct_attempt'
p5922
(lp5923
S'0:00:12'
p5924
aVC(11,1)
p5925
asg9
g2023
sS'part2_incorrect_attempt'
p5926
(lp5927
(S'0:00:00'
p5928
VC(13,1)
p5929
tp5930
assVjap009
p5931
(dp5932
S'part2_correct_attempt'
p5933
(lp5934
S'0:04:13'
p5935
aV11
p5936
asg9
g4866
sS'part2_incorrect_attempt'
p5937
(lp5938
(S'0:00:39'
p5939
V13!/(8!)
p5940
tp5941
assVdis003
p5942
(dp5943
S'part2_correct_attempt'
p5944
(lp5945
S'0:05:52'
p5946
aVC(12-2,1)
p5947
asg9
g2937
sS'part2_incorrect_attempt'
p5948
(lp5949
(S'0:00:19'
p5950
VC(12,1)
p5951
tp5952
a(S'0:00:45'
p5953
VC(121,1)
p5954
tp5955
a(S'0:00:49'
p5956
VC(11,1)
p5957
tp5958
a(S'0:01:13'
p5959
VC(12,1)
p5960
tp5961
a(S'0:04:47'
p5962
VC(4,2)
p5963
tp5964
assVtol003
p5965
(dp5966
S'part2_correct_attempt'
p5967
(lp5968
S'0:02:06'
p5969
aVC(12,1)
p5970
asg9
g3964
sS'part2_incorrect_attempt'
p5971
(lp5972
(S'0:00:36'
p5973
VC(14,1)
p5974
tp5975
a(S'0:01:16'
p5976
VC(4,2)
p5977
tp5978
a(S'0:01:52'
p5979
VC(13,1)
p5980
tp5981
assVmsaguiar
p5982
(dp5983
S'part2_correct_attempt'
p5984
(lp5985
S'0:00:00'
p5986
aV10
p5987
asg9
g4909
sS'part2_incorrect_attempt'
p5988
(lp5989
(S'-2 days, 1:45:11'
p5990
V12*2
p5991
tp5992
assVvsosnovs
p5993
(dp5994
S'part2_correct_attempt'
p5995
(lp5996
S'1:57:30'
p5997
aVC(12,1)
p5998
asg9
g4544
sS'part2_incorrect_attempt'
p5999
(lp6000
(S'0:00:00'
p6001
VC(14,2)*13
p6002
tp6003
a(S'0:00:15'
p6004
VC(14,1)*13
p6005
tp6006
a(S'0:02:17'
p6007
VC(14,2)*13
p6008
tp6009
a(S'0:04:19'
p6010
VC(14,1)*13
p6011
tp6012
a(S'0:04:28'
p6013
VC(14,1)
p6014
tp6015
a(S'0:21:17'
p6016
VC(14,2)*12
p6017
tp6018
a(S'0:22:29'
p6019
VC(14,1)*12
p6020
tp6021
a(S'0:22:42'
p6022
VC(14,2)*13
p6023
tp6024
a(S'1:21:05'
p6025
VC(14,2)*11
p6026
tp6027
a(S'1:21:15'
p6028
VC(14,2)*10
p6029
tp6030
a(S'1:21:31'
p6031
VC(14,1)*12
p6032
tp6033
a(S'1:21:38'
p6034
VC(14,1)*13
p6035
tp6036
a(S'1:23:18'
p6037
VC(14,2)*11
p6038
tp6039
a(S'1:23:53'
p6040
VC(14,2)C(13,1)
p6041
tp6042
a(S'1:25:12'
p6043
VC(14,2)C(13,1)C(13,1)
p6044
tp6045
a(S'1:28:35'
p6046
VC(14,2)C(6,1)C(6,1)
p6047
tp6048
a(S'1:35:43'
p6049
VC(14,2)C(14,1)C(14,1)C(14,1)
p6050
tp6051
a(S'1:37:43'
p6052
VC(14,2)*12
p6053
tp6054
a(S'1:40:39'
p6055
VC(14,2)*C(5,1)*C(14,1)
p6056
tp6057
a(S'1:45:55'
p6058
VC(14,2)*C(12,1)*C(14,1)
p6059
tp6060
a(S'1:46:06'
p6061
VC(14,2)*C(12,1)
p6062
tp6063
a(S'1:47:45'
p6064
V91*12
p6065
tp6066
a(S'1:56:48'
p6067
VC(13,1)
p6068
tp6069
a(S'1:57:07'
p6070
VC(13,1)C(6,1)
p6071
tp6072
assVssamudra
p6073
(dp6074
S'part2_correct_attempt'
p6075
(lp6076
S'0:01:09'
p6077
aV11!/(10!1!)
p6078
asg9
g2035
sS'part2_incorrect_attempt'
p6079
(lp6080
(S'0:00:32'
p6081
V13!/(12!1!)
p6082
tp6083
a(S'0:00:44'
p6084
V12!/(11!1!)
p6085
tp6086
assVjhw015
p6087
(dp6088
S'part2_correct_attempt'
p6089
(lp6090
S'0:07:08'
p6091
aV10
p6092
asg9
g2975
sS'part2_incorrect_attempt'
p6093
(lp6094
(S'0:00:10'
p6095
VC(12,1)
p6096
tp6097
assVdtea
p6098
(dp6099
g9
g4029
sS'part2_incorrect_attempt'
p6100
(lp6101
(S'0:02:23'
p6102
VC(14,1)
p6103
tp6104
a(S'0:03:15'
p6105
VC(14,5)
p6106
tp6107
assVtcn013
p6108
(dp6109
S'part2_correct_attempt'
p6110
(lp6111
S'0:00:19'
p6112
aV14
p6113
asg9
g2056
sS'part2_incorrect_attempt'
p6114
(lp6115
(S'0:00:06'
p6116
VC(16,1)
p6117
tp6118
assVakhmelni
p6119
(dp6120
S'part2_correct_attempt'
p6121
(lp6122
S'0:11:05'
p6123
aV10
p6124
asg9
g3943
sS'part2_incorrect_attempt'
p6125
(lp6126
(S'0:00:31'
p6127
VC(12,1)
p6128
tp6129
a(S'0:10:25'
p6130
VC(10,2)
p6131
tp6132
assVjtfrankl
p6133
(dp6134
S'part2_correct_attempt'
p6135
(lp6136
S'0:02:04'
p6137
aV10
p6138
asg9
g3202
sS'part2_incorrect_attempt'
p6139
(lp6140
(S'0:01:08'
p6141
VC(12,1)
p6142
tp6143
assVhah008
p6144
(dp6145
S'part2_correct_attempt'
p6146
(lp6147
S'1:35:41'
p6148
aV8
p6149
asg9
g4953
sS'part2_incorrect_attempt'
p6150
(lp6151
(S'0:01:33'
p6152
VC(10, 1)
p6153
tp6154
assVbkoli
p6155
(dp6156
S'part2_correct_attempt'
p6157
(lp6158
S'0:18:03'
p6159
aV8
p6160
asg9
V2015-10-15 20:30:09
p6161
sS'part2_incorrect_attempt'
p6162
(lp6163
(S'0:00:24'
p6164
V10!/(9!1!)
p6165
tp6166
assVdjk006
p6167
(dp6168
S'part2_correct_attempt'
p6169
(lp6170
S'0:09:41'
p6171
aV12
p6172
asg9
g2153
sS'part2_incorrect_attempt'
p6173
(lp6174
(S'0:00:34'
p6175
V14*13/2
p6176
tp6177
assVytc012
p6178
(dp6179
S'part2_correct_attempt'
p6180
(lp6181
S'0:01:02'
p6182
aV13
p6183
asg9
V2015-10-15 09:24:50
p6184
sS'part2_incorrect_attempt'
p6185
(lp6186
(S'0:00:47'
p6187
V15!/(13!2!)
p6188
tp6189
assVlcardoso
p6190
(dp6191
S'part2_correct_attempt'
p6192
(lp6193
S'2:51:43'
p6194
aVC(14-2,1)
p6195
asg9
g3045
sS'part2_incorrect_attempt'
p6196
(lp6197
(S'-1 day, 23:58:24'
p6198
VC(13,1)
p6199
tp6200
a(S'-1 day, 23:58:54'
p6201
VC(14,1)
p6202
tp6203
assVmcatozzi
p6204
(dp6205
S'part2_correct_attempt'
p6206
(lp6207
S'0:01:27'
p6208
aVC(9,1)
p6209
asg9
g4974
sS'part2_incorrect_attempt'
p6210
(lp6211
(S'0:00:18'
p6212
VC(5,1)
p6213
tp6214
a(S'0:01:06'
p6215
VC(10,1)
p6216
tp6217
a(S'0:01:17'
p6218
VC(11,1)
p6219
tp6220
assVabasu
p6221
(dp6222
S'part2_correct_attempt'
p6223
(lp6224
S'0:01:47'
p6225
aVC(13,1)
p6226
asg9
g3619
sS'part2_incorrect_attempt'
p6227
(lp6228
(S'0:00:07'
p6229
VC(15,1)
p6230
tp6231
assVm4bui
p6232
(dp6233
S'part2_correct_attempt'
p6234
(lp6235
S'0:50:43'
p6236
aV9
p6237
asg9
g2242
sS'part2_incorrect_attempt'
p6238
(lp6239
(S'0:00:00'
p6240
VC(11,1)
p6241
tp6242
a(S'0:01:19'
p6243
VC(6,1)
p6244
tp6245
assVachava
p6246
(dp6247
S'part2_correct_attempt'
p6248
(lp6249
S'0:07:57'
p6250
aVC(8,1)
p6251
asg9
g3652
sS'part2_incorrect_attempt'
p6252
(lp6253
(S'0:05:12'
p6254
VC(10,1)
p6255
tp6256
a(S'0:07:48'
p6257
VC(9,1)
p6258
tp6259
assVflhernan
p6260
(dp6261
S'part2_correct_attempt'
p6262
(lp6263
S'0:00:53'
p6264
aVC(8,1)
p6265
asg9
g2282
sS'part2_incorrect_attempt'
p6266
(lp6267
(S'-1 day, 23:51:08'
p6268
V6*C(10,2)*6*C(9,2)*C(32,1)
p6269
tp6270
a(S'0:00:41'
p6271
VC(8,2)
p6272
tp6273
assVhsc052
p6274
(dp6275
S'part2_correct_attempt'
p6276
(lp6277
S'0:03:59'
p6278
aVC(8,1)
p6279
asg9
g3424
sS'part2_incorrect_attempt'
p6280
(lp6281
(S'0:00:00'
p6282
VC(10,1)
p6283
tp6284
a(S'0:00:52'
p6285
VC(9,1)
p6286
tp6287
assVc3chung
p6288
(dp6289
g9
V2015-10-15 23:00:44
p6290
sS'part2_incorrect_attempt'
p6291
(lp6292
(S'0:00:00'
p6293
V5^5
p6294
tp6295
a(S'0:00:00'
p6296
VC(75,5)
p6297
tp6298
a(S'0:00:00'
p6299
VC(5,2)15*70*65*60
p6300
tp6301
assVrbdoming
p6302
(dp6303
S'part2_correct_attempt'
p6304
(lp6305
S'0:20:04'
p6306
aVC(13,1)
p6307
asg9
g4185
sS'part2_incorrect_attempt'
p6308
(lp6309
(S'0:00:33'
p6310
VC(15,1)
p6311
tp6312
a(S'0:01:34'
p6313
VC(14,1)
p6314
tp6315
assVtak068
p6316
(dp6317
S'part2_correct_attempt'
p6318
(lp6319
S'0:01:46'
p6320
aVC(8,1)
p6321
asg9
g2404
sS'part2_incorrect_attempt'
p6322
(lp6323
(S'-1 day, 23:52:39'
p6324
V45*15^2
p6325
tp6326
a(S'0:00:29'
p6327
VC(10,1)
p6328
tp6329
assVkquong
p6330
(dp6331
S'part2_correct_attempt'
p6332
(lp6333
S'0:03:29'
p6334
aV12
p6335
asg9
V2015-10-11 05:14:30
p6336
sS'part2_incorrect_attempt'
p6337
(lp6338
(S'0:01:21'
p6339
V5!/(2!(5-2)!)
p6340
tp6341
a(S'0:01:48'
p6342
V5!/(2!*(5-2)!)
p6343
tp6344
a(S'0:02:15'
p6345
V(5!/(2!*(5-2)!))^2
p6346
tp6347
assVvasharma
p6348
(dp6349
S'part2_correct_attempt'
p6350
(lp6351
S'18:33:26'
p6352
aVC(9,1)
p6353
asg9
g5151
sS'part2_incorrect_attempt'
p6354
(lp6355
(S'0:00:20'
p6356
VC(11,1)
p6357
tp6358
a(S'0:00:55'
p6359
V11*6
p6360
tp6361
a(S'0:01:26'
p6362
VC(11,6)
p6363
tp6364
a(S'0:01:32'
p6365
VC(6,2)
p6366
tp6367
a(S'0:04:18'
p6368
VC(11,1)
p6369
tp6370
a(S'0:05:06'
p6371
V11!
p6372
tp6373
assVglcohen
p6374
(dp6375
S'part2_correct_attempt'
p6376
(lp6377
S'0:01:43'
p6378
aV11
p6379
asg9
g2202
sS'part2_incorrect_attempt'
p6380
(lp6381
(S'0:00:00'
p6382
V5*13
p6383
tp6384
a(S'0:00:18'
p6385
V(13!)/(12!)
p6386
tp6387
a(S'0:01:11'
p6388
V(12!)/(11!)
p6389
tp6390
assVvolim
p6391
(dp6392
S'part2_correct_attempt'
p6393
(lp6394
S'0:00:47'
p6395
aVC(9,1)
p6396
asg9
V2015-10-12 22:49:03
p6397
sS'part2_incorrect_attempt'
p6398
(lp6399
(S'-1 day, 23:58:53'
p6400
VC(10,1)
p6401
tp6402
a(S'0:00:00'
p6403
VC(10,1)
p6404
tp6405
assVamquinte
p6406
(dp6407
S'part2_correct_attempt'
p6408
(lp6409
S'0:00:00'
p6410
aV10
p6411
asg9
g5228
sS'part2_incorrect_attempt'
p6412
(lp6413
(S'-1 day, 23:55:25'
p6414
VC(60,1)
p6415
tp6416
assVyypan
p6417
(dp6418
S'part2_correct_attempt'
p6419
(lp6420
S'0:00:44'
p6421
aV10
p6422
asg9
g5244
sS'part2_incorrect_attempt'
p6423
(lp6424
(S'0:00:19'
p6425
VC(12,1)
p6426
tp6427
assVabjara
p6428
(dp6429
S'part2_correct_attempt'
p6430
(lp6431
S'2 days, 0:52:54'
p6432
aV9
p6433
asg9
V2015-10-12 21:49:53
p6434
sS'part2_incorrect_attempt'
p6435
(lp6436
(S'-1 day, 23:44:36'
p6437
V[4!/(1!*3!)]*11
p6438
tp6439
a(S'-1 day, 23:48:23'
p6440
V[44!/(1!*3!)]*11
p6441
tp6442
a(S'0:00:27'
p6443
V[11!/(10!)]
p6444
tp6445
assVdac064
p6446
(dp6447
S'part2_correct_attempt'
p6448
(lp6449
S'-1 day, 23:56:05'
p6450
aV14
p6451
asg9
V2015-10-15 21:51:26
p6452
sS'part2_incorrect_attempt'
p6453
(lp6454
(S'-1 day, 23:49:00'
p6455
VC(16,1)
p6456
tp6457
assVjhp077
p6458
(dp6459
S'part2_correct_attempt'
p6460
(lp6461
S'0:15:13'
p6462
aV11
p6463
asg9
g2453
sS'part2_incorrect_attempt'
p6464
(lp6465
(S'0:02:53'
p6466
V13*12*11*10
p6467
tp6468
a(S'0:03:03'
p6469
VC(13,4)
p6470
tp6471
a(S'0:03:14'
p6472
VC(13,5)
p6473
tp6474
a(S'0:05:46'
p6475
VC(13,1)*C(12,3)
p6476
tp6477
a(S'0:06:00'
p6478
VC(13,1)*C(12,4)
p6479
tp6480
a(S'0:07:41'
p6481
VC(13,5)
p6482
tp6483
a(S'0:08:21'
p6484
V13*12*11*10
p6485
tp6486
a(S'0:08:31'
p6487
V13*12*11*10*9
p6488
tp6489
a(S'0:10:25'
p6490
VC(13,5)
p6491
tp6492
a(S'0:11:47'
p6493
V13*12^4
p6494
tp6495
a(S'0:13:13'
p6496
V13*13*C(12,3)
p6497
tp6498
assVzig006
p6499
(dp6500
S'part2_correct_attempt'
p6501
(lp6502
S'0:01:08'
p6503
aV14
p6504
asg9
g5291
sS'part2_incorrect_attempt'
p6505
(lp6506
(S'0:00:35'
p6507
V14!/(3!11!)
p6508
tp6509
assVaurodrig
p6510
(dp6511
S'part2_correct_attempt'
p6512
(lp6513
S'0:02:15'
p6514
aV10!/(1!9!)
p6515
asg9
g3399
sS'part2_incorrect_attempt'
p6516
(lp6517
(S'0:01:21'
p6518
V12!/(1!11!)
p6519
tp6520
assVcagatep
p6521
(dp6522
S'part2_correct_attempt'
p6523
(lp6524
S'0:00:15'
p6525
aVC(10,1)
p6526
asg9
g4237
sS'part2_incorrect_attempt'
p6527
(lp6528
(S'-1 day, 23:51:53'
p6529
VC(12, 1) * C(11, 1) * C(10, 1) * C(9, 1) * C(8,1) * 4
p6530
tp6531
a(S'-1 day, 23:52:37'
p6532
VC(12, 1)
p6533
tp6534
assVhmnaing
p6535
(dp6536
S'part2_correct_attempt'
p6537
(lp6538
S'1 day, 23:50:24'
p6539
aVC(14-2, 1)
p6540
asg9
g4283
sS'part2_incorrect_attempt'
p6541
(lp6542
(S'0:00:00'
p6543
VC(42, 1)
p6544
tp6545
a(S'0:01:45'
p6546
VC((5*14)-4, 1)
p6547
tp6548
a(S'1 day, 5:59:03'
p6549
VC((5*14)-8, 1)
p6550
tp6551
a(S'1 day, 5:59:26'
p6552
VC((5*14)-10, 1)
p6553
tp6554
assVggaddi
p6555
(dp6556
S'part2_correct_attempt'
p6557
(lp6558
S'0:04:46'
p6559
aV8
p6560
asg9
g2438
sS'part2_incorrect_attempt'
p6561
(lp6562
(S'0:01:19'
p6563
V10!/(1!*9!)
p6564
tp6565
assVjit002
p6566
(dp6567
S'part2_correct_attempt'
p6568
(lp6569
S'0:00:00'
p6570
aV11
p6571
asg9
g2468
sS'part2_incorrect_attempt'
p6572
(lp6573
(S'-1 day, 23:47:23'
p6574
V13*6
p6575
tp6576
assVmjethani
p6577
(dp6578
S'part2_correct_attempt'
p6579
(lp6580
S'0:03:02'
p6581
aV11!/((1!)(10!))
p6582
asg9
V2015-10-15 01:50:07
p6583
sS'part2_incorrect_attempt'
p6584
(lp6585
(S'0:00:23'
p6586
V13!/((1!)(12!))
p6587
tp6588
a(S'0:02:13'
p6589
V12!/((1!)(11!))
p6590
tp6591
assVkgrozav
p6592
(dp6593
S'part2_correct_attempt'
p6594
(lp6595
S'0:09:04'
p6596
aV14
p6597
asg9
g5306
sS'part2_incorrect_attempt'
p6598
(lp6599
(S'0:01:54'
p6600
VC(16,1)
p6601
tp6602
a(S'0:06:36'
p6603
VC(16,3)
p6604
tp6605
assVklala
p6606
(dp6607
S'part2_correct_attempt'
p6608
(lp6609
S'0:00:16'
p6610
aVC(11,1)
p6611
asg9
V2015-10-12 04:41:20
p6612
sS'part2_incorrect_attempt'
p6613
(lp6614
(S'-1 day, 23:56:20'
p6615
VC(6,1)
p6616
tp6617
assVj2phung
p6618
(dp6619
S'part2_correct_attempt'
p6620
(lp6621
S'0:08:11'
p6622
aV(11!/(10!1!))
p6623
asg9
g5324
sS'part2_incorrect_attempt'
p6624
(lp6625
(S'0:01:11'
p6626
V13!/(12!1!)
p6627
tp6628
a(S'0:01:58'
p6629
V2(13!/(12!1!))
p6630
tp6631
a(S'0:05:53'
p6632
V(13!/(12!1!))
p6633
tp6634
a(S'0:07:13'
p6635
V(12!/(11!1!))
p6636
tp6637
asssV5
p6638
(dp6639
Vapokhare
p6640
(dp6641
S'part5_correct_attempt'
p6642
(lp6643
S'0:06:24'
p6644
aV[[16!/(2!*14!)]*14*4*[4!/(2!*2!)]^2]
p6645
asS'part2_correct_attempt'
p6646
(lp6647
S'0:04:09'
p6648
aV14
p6649
asS'part5_incorrect_attempt'
p6650
(lp6651
(S'0:04:48'
p6652
V[16!/(2!*14!)]*14*2*4*[4!/(2!*2!)]^2
p6653
tp6654
asS'part4_correct_attempt'
p6655
(lp6656
S'0:02:23'
p6657
aV4
p6658
asS'part3_correct_attempt'
p6659
(lp6660
S'0:02:23'
p6661
ag1770
asS'part1_correct_attempt'
p6662
(lp6663
S'0:00:00'
p6664
ag1779
asg9
g1780
ssVjag028
p6665
(dp6666
S'part5_correct_attempt'
p6667
(lp6668
S'3:32:53'
p6669
aV4*C(13,2)*C(11,1)*36
p6670
asS'part2_correct_attempt'
p6671
(lp6672
S'0:06:21'
p6673
ag5723
asS'part5_incorrect_attempt'
p6674
(lp6675
(S'3:32:41'
p6676
VC(13,2)*C(11,1)*36
p6677
tp6678
asS'part4_correct_attempt'
p6679
(lp6680
S'0:16:51'
p6681
aV4
p6682
asS'part3_correct_attempt'
p6683
(lp6684
S'0:14:38'
p6685
aV36
p6686
asS'part1_correct_attempt'
p6687
(lp6688
S'0:00:00'
p6689
aVC(13,2)
p6690
asg9
g5724
ssVvsamant
p6691
(dp6692
S'part5_correct_attempt'
p6693
(lp6694
S'0:02:24'
p6695
aVC(13,2)*C(11,1)*C(6,2)*C(6,1)*C(6,2)
p6696
asS'part2_correct_attempt'
p6697
(lp6698
S'-1 day, 23:58:32'
p6699
aVC(11,1)
p6700
asS'part5_incorrect_attempt'
p6701
(lp6702
(S'0:00:00'
p6703
VC(13,2)*C(6,2)*C(6,2)
p6704
tp6705
asS'part4_correct_attempt'
p6706
(lp6707
S'-1 day, 23:58:32'
p6708
aVC(6,1)
p6709
asS'part3_correct_attempt'
p6710
(lp6711
S'-1 day, 23:58:32'
p6712
aVC(6,2)*C(6,2)
p6713
asS'part1_correct_attempt'
p6714
(lp6715
S'0:00:00'
p6716
aVC(13,2)
p6717
asg9
V2015-10-10 17:09:14
p6718
ssVkebao
p6719
(dp6720
S'part5_correct_attempt'
p6721
(lp6722
S'0:01:39'
p6723
aV13!/(2!*11!)*11*(4!/(2!*2!))^2*4
p6724
asS'part2_correct_attempt'
p6725
(lp6726
S'0:00:00'
p6727
aV11
p6728
asS'part5_incorrect_attempt'
p6729
(lp6730
(S'0:00:44'
p6731
V13!/(2!*11!)*11*(4!/(2!*2!))^2
p6732
tp6733
asS'part4_correct_attempt'
p6734
(lp6735
S'-1 day, 23:58:52'
p6736
aV4
p6737
asS'part3_correct_attempt'
p6738
(lp6739
S'0:00:00'
p6740
aV(4!/(2!*2!))^2
p6741
asS'part1_correct_attempt'
p6742
(lp6743
S'0:00:00'
p6744
aV13!/(2!*11!)
p6745
asg9
V2015-10-15 06:17:35
p6746
ssVnisharma
p6747
(dp6748
S'part5_correct_attempt'
p6749
(lp6750
S'0:19:24'
p6751
aVC(16,2)*C(6,2)^2 * 14 *6
p6752
asS'part2_correct_attempt'
p6753
(lp6754
S'0:00:16'
p6755
aV14
p6756
asS'part5_incorrect_attempt'
p6757
(lp6758
(S'0:18:38'
p6759
VC(16,2)
p6760
tp6761
asS'part4_correct_attempt'
p6762
(lp6763
S'0:01:39'
p6764
aV6
p6765
asS'part3_correct_attempt'
p6766
(lp6767
S'0:01:39'
p6768
aVC(6,2)^2
p6769
asS'part1_correct_attempt'
p6770
(lp6771
S'0:00:00'
p6772
ag953
asg9
V2015-10-14 18:11:35
p6773
ssVlguintu
p6774
(dp6775
S'part5_correct_attempt'
p6776
(lp6777
S'0:06:09'
p6778
aV5*14*C(16,2)*C(5,2)^2
p6779
asS'part5_incorrect_attempt'
p6780
(lp6781
(S'0:05:59'
p6782
VC(16,2)*C(5,2)^2
p6783
tp6784
asS'part3_correct_attempt'
p6785
(lp6786
S'0:04:48'
p6787
ag2547
asS'part1_correct_attempt'
p6788
(lp6789
S'0:00:00'
p6790
ag1187
asg9
g2562
ssVachava
p6791
(dp6792
S'part5_correct_attempt'
p6793
(lp6794
S'1 day, 11:04:17'
p6795
aVC(10,2)* C(8,1) * C(6,2) * C(6,2) * C(6,1)
p6796
asS'part2_correct_attempt'
p6797
(lp6798
S'0:07:57'
p6799
ag6251
asS'part5_incorrect_attempt'
p6800
(lp6801
(S'1 day, 11:04:07'
p6802
VC(8,1) * C(6,2) * C(6,2) * C(6,1)
p6803
tp6804
asS'part4_correct_attempt'
p6805
(lp6806
S'1 day, 11:03:23'
p6807
aVC(6,1)
p6808
asS'part3_correct_attempt'
p6809
(lp6810
S'1 day, 11:02:06'
p6811
ag3625
asS'part1_correct_attempt'
p6812
(lp6813
S'0:00:00'
p6814
ag998
asg9
g3652
ssVqtluong
p6815
(dp6816
S'part5_correct_attempt'
p6817
(lp6818
S'0:04:50'
p6819
aV[10!/(2!(10-2)!)][8!/(1!(8-1)!)][[6!/(2!(6-2)!)]^2][6!/(1!(6-1)!)]
p6820
asS'part2_correct_attempt'
p6821
(lp6822
S'0:00:57'
p6823
ag5573
asS'part5_incorrect_attempt'
p6824
(lp6825
(S'0:03:51'
p6826
V(10!/(2!(10-2)!))(10!/(2!(10-2)!))(10!/(2!(10-2)!))(10!/(2!(10-2)!))
p6827
tp6828
asS'part4_correct_attempt'
p6829
(lp6830
S'0:01:45'
p6831
aV6!/(1!(6-1)!)
p6832
asS'part3_correct_attempt'
p6833
(lp6834
S'0:01:45'
p6835
aV[6!/(2!(6-2)!)]^2
p6836
asS'part1_correct_attempt'
p6837
(lp6838
S'0:00:00'
p6839
aV10!/(2!(10-2)!)
p6840
asg9
g5574
ssVasp025
p6841
(dp6842
S'part5_correct_attempt'
p6843
(lp6844
S'0:46:28'
p6845
aV6*13(15!/(2!(15-2)!))*(6!/(2!(6-2)!))^2
p6846
asS'part2_correct_attempt'
p6847
(lp6848
S'0:00:00'
p6849
aV13
p6850
asS'part5_incorrect_attempt'
p6851
(lp6852
(S'0:44:41'
p6853
V(15!/(2!(15-2)!))*(6!/(2!(6-2)!))^2
p6854
tp6855
asS'part4_correct_attempt'
p6856
(lp6857
S'0:01:45'
p6858
aV6
p6859
asS'part3_correct_attempt'
p6860
(lp6861
S'0:44:15'
p6862
ag4289
asS'part1_correct_attempt'
p6863
(lp6864
S'0:00:00'
p6865
ag4298
asg9
g4299
ssVjjm019
p6866
(dp6867
S'part5_incorrect_attempt'
p6868
(lp6869
(S'0:02:16'
p6870
V5*45
p6871
tp6872
a(S'0:02:46'
p6873
V5*45*4
p6874
tp6875
a(S'0:03:16'
p6876
V5*45*4*120
p6877
tp6878
a(S'0:03:37'
p6879
V(5*45*4*120)^2
p6880
tp6881
asS'part3_correct_attempt'
p6882
(lp6883
S'-1 day, 23:59:08'
p6884
aV100
p6885
asS'part1_correct_attempt'
p6886
(lp6887
S'0:00:00'
p6888
ag45
asg9
V2015-10-15 23:47:08
p6889
ssVe9brown
p6890
(dp6891
S'part5_correct_attempt'
p6892
(lp6893
S'1:55:18'
p6894
aVC(6,2) * C(6,2) * C(16,2) * 14 * 6
p6895
asS'part2_correct_attempt'
p6896
(lp6897
S'0:03:04'
p6898
aV14
p6899
asS'part5_incorrect_attempt'
p6900
(lp6901
(S'1:55:07'
p6902
VC(6,2) * C(6,2) * C(16,2)
p6903
tp6904
asS'part4_correct_attempt'
p6905
(lp6906
S'0:00:00'
p6907
aV6
p6908
asS'part3_correct_attempt'
p6909
(lp6910
S'1:54:42'
p6911
ag4450
asS'part1_correct_attempt'
p6912
(lp6913
S'0:00:00'
p6914
ag4504
asg9
g4505
ssVmrchin
p6915
(dp6916
S'part5_correct_attempt'
p6917
(lp6918
S'3:23:56'
p6919
aV36*[10!/(8!*2!)]*[8*4!/(1!*3!)]
p6920
asS'part5_incorrect_attempt'
p6921
(lp6922
(S'3:23:11'
p6923
V36*[10!/(8!*2!)]-[8*4!/(1!*3!)]
p6924
tp6925
asS'part4_correct_attempt'
p6926
(lp6927
S'3:22:16'
p6928
aV4!/(1!*3!)
p6929
asS'part3_correct_attempt'
p6930
(lp6931
S'3:22:25'
p6932
ag2100
asS'part1_correct_attempt'
p6933
(lp6934
S'0:00:00'
p6935
ag2121
asg9
g2122
ssVjic212
p6936
(dp6937
S'part5_correct_attempt'
p6938
(lp6939
S'0:13:21'
p6940
aVC(15,2)*13*C(4,2)*C(4,2)*4
p6941
asS'part2_correct_attempt'
p6942
(lp6943
S'0:00:52'
p6944
ag5738
asS'part5_incorrect_attempt'
p6945
(lp6946
(S'0:11:41'
p6947
V13*C(4,2)*C(4,2)*4
p6948
tp6949
asS'part4_correct_attempt'
p6950
(lp6951
S'0:03:42'
p6952
aV4
p6953
asS'part3_correct_attempt'
p6954
(lp6955
S'0:10:59'
p6956
ag2792
asS'part1_correct_attempt'
p6957
(lp6958
S'0:00:00'
p6959
ag2813
asg9
g2814
ssVksmurlo
p6960
(dp6961
S'part5_correct_attempt'
p6962
(lp6963
S'0:33:16'
p6964
aV[12*4]*[C(14,2)*36]
p6965
asS'part2_correct_attempt'
p6966
(lp6967
S'0:00:32'
p6968
aV14-2
p6969
asS'part5_incorrect_attempt'
p6970
(lp6971
(S'0:33:07'
p6972
V[12*4]+[C(14,2)*36]
p6973
tp6974
asS'part4_correct_attempt'
p6975
(lp6976
S'0:06:39'
p6977
aV4
p6978
asS'part3_correct_attempt'
p6979
(lp6980
S'0:32:55'
p6981
ag3783
asS'part1_correct_attempt'
p6982
(lp6983
S'0:00:00'
p6984
ag3822
asg9
g3823
ssVjmmcalex
p6985
(dp6986
S'part5_correct_attempt'
p6987
(lp6988
S'0:22:51'
p6989
aVC(13,2)*11*C(4,2)^2*4
p6990
asS'part2_correct_attempt'
p6991
(lp6992
S'0:17:05'
p6993
ag5870
asS'part5_incorrect_attempt'
p6994
(lp6995
(S'0:22:23'
p6996
VC(13,2)*11*C(4,2)/2*4
p6997
tp6998
asS'part4_correct_attempt'
p6999
(lp7000
S'0:18:11'
p7001
aV4
p7002
asS'part3_correct_attempt'
p7003
(lp7004
S'0:17:58'
p7005
aVC(4,2)^2
p7006
asS'part1_correct_attempt'
p7007
(lp7008
S'0:00:00'
p7009
ag168
asg9
g5871
ssVc1sorian
p7010
(dp7011
S'part5_correct_attempt'
p7012
(lp7013
S'1:02:34'
p7014
aV66*225*60
p7015
asS'part2_correct_attempt'
p7016
(lp7017
S'0:00:16'
p7018
aV10
p7019
asS'part5_incorrect_attempt'
p7020
(lp7021
(S'0:56:34'
p7022
V66*225
p7023
tp7024
asS'part4_correct_attempt'
p7025
(lp7026
S'0:04:45'
p7027
aV6
p7028
asS'part3_correct_attempt'
p7029
(lp7030
S'0:55:04'
p7031
ag4086
asS'part1_correct_attempt'
p7032
(lp7033
S'0:00:00'
p7034
ag4098
asg9
g4099
ssVs6deng
p7035
(dp7036
S'part5_correct_attempt'
p7037
(lp7038
S'0:11:52'
p7039
aV[[[(44*3)/2]*[(40*3)/2]]/2]*36
p7040
asS'part2_correct_attempt'
p7041
(lp7042
S'0:00:48'
p7043
aVC(9,1)
p7044
asS'part5_incorrect_attempt'
p7045
(lp7046
(S'0:09:39'
p7047
V(5!/(1!4!))*(11!/(2!9!))*(4!/(1!3!))
p7048
tp7049
asS'part4_correct_attempt'
p7050
(lp7051
S'0:04:13'
p7052
aVC(4,1)
p7053
asS'part3_correct_attempt'
p7054
(lp7055
S'0:03:41'
p7056
ag4819
asS'part1_correct_attempt'
p7057
(lp7058
S'0:00:00'
p7059
ag1474
asg9
g4828
ssVdis003
p7060
(dp7061
S'part5_correct_attempt'
p7062
(lp7063
S'0:08:54'
p7064
aVC(12,2)C(12-2,1)C(4,2)C(4,2)C(4,1)
p7065
asS'part2_correct_attempt'
p7066
(lp7067
S'0:05:52'
p7068
ag5947
asS'part5_incorrect_attempt'
p7069
(lp7070
(S'0:08:41'
p7071
VC(12,2)C(12-2,1)C(4,2)C(4,2)
p7072
tp7073
asS'part4_correct_attempt'
p7074
(lp7075
S'0:08:41'
p7076
aVC(4,1)
p7077
asS'part3_correct_attempt'
p7078
(lp7079
S'0:06:11'
p7080
ag2912
asS'part1_correct_attempt'
p7081
(lp7082
S'0:00:00'
p7083
ag2936
asg9
g2937
ssVrraiyyan
p7084
(dp7085
S'part5_correct_attempt'
p7086
(lp7087
S'0:10:58'
p7088
aVC(12,2)*10*5*(C(5,2))^2
p7089
asS'part2_correct_attempt'
p7090
(lp7091
S'0:00:00'
p7092
aV10
p7093
asS'part5_incorrect_attempt'
p7094
(lp7095
(S'0:09:58'
p7096
VC(12,2)*10*(C(5,2))^2
p7097
tp7098
asS'part4_correct_attempt'
p7099
(lp7100
S'0:00:00'
p7101
aV5
p7102
asS'part3_correct_attempt'
p7103
(lp7104
S'0:04:47'
p7105
ag2943
asS'part1_correct_attempt'
p7106
(lp7107
S'0:00:00'
p7108
ag2958
asg9
g2959
ssVjcl084
p7109
(dp7110
S'part5_correct_attempt'
p7111
(lp7112
S'0:05:16'
p7113
aVC(10,2)*8*C(4,2)^2*C(4,1)
p7114
asS'part2_correct_attempt'
p7115
(lp7116
S'0:00:47'
p7117
ag5514
asS'part5_incorrect_attempt'
p7118
(lp7119
(S'0:04:02'
p7120
VC(10,2)*C(4,2)^2
p7121
tp7122
asS'part4_correct_attempt'
p7123
(lp7124
S'0:03:21'
p7125
aVC(4,1)
p7126
asS'part3_correct_attempt'
p7127
(lp7128
S'0:02:47'
p7129
ag3594
asS'part1_correct_attempt'
p7130
(lp7131
S'0:00:00'
p7132
ag1498
asg9
g3603
ssVskodigal
p7133
(dp7134
S'part5_correct_attempt'
p7135
(lp7136
S'2:26:03'
p7137
aV10*6*C(12,2)*C(6,2)^2
p7138
asS'part2_correct_attempt'
p7139
(lp7140
S'-1 day, 23:59:21'
p7141
aV10
p7142
asS'part5_incorrect_attempt'
p7143
(lp7144
(S'0:00:55'
p7145
VC(6,2)^2 * C(12,2)
p7146
tp7147
asS'part4_correct_attempt'
p7148
(lp7149
S'0:00:27'
p7150
aV6
p7151
asS'part3_correct_attempt'
p7152
(lp7153
S'0:00:15'
p7154
aVC(6,2)^2
p7155
asS'part1_correct_attempt'
p7156
(lp7157
S'0:00:00'
p7158
aVC(12,2)
p7159
asg9
V2015-10-15 01:42:02
p7160
ssVaakumar
p7161
(dp7162
S'part5_correct_attempt'
p7163
(lp7164
S'0:25:29'
p7165
aV429000
p7166
asS'part2_correct_attempt'
p7167
(lp7168
S'0:06:52'
p7169
aV11
p7170
asS'part5_incorrect_attempt'
p7171
(lp7172
(S'0:14:17'
p7173
V13*12*11
p7174
tp7175
asS'part4_correct_attempt'
p7176
(lp7177
S'0:11:53'
p7178
aV5
p7179
asS'part3_correct_attempt'
p7180
(lp7181
S'0:11:44'
p7182
ag3970
asS'part1_correct_attempt'
p7183
(lp7184
S'0:00:00'
p7185
ag3979
asg9
g3980
ssVjhw015
p7186
(dp7187
S'part5_correct_attempt'
p7188
(lp7189
S'0:24:30'
p7190
aV10*5*C(12,2)*C(5,2)^2
p7191
asS'part2_correct_attempt'
p7192
(lp7193
S'0:07:08'
p7194
ag6092
asS'part5_incorrect_attempt'
p7195
(lp7196
(S'0:08:57'
p7197
V66-10
p7198
tp7199
a(S'0:09:13'
p7200
V60-10
p7201
tp7202
a(S'0:11:04'
p7203
VC(12,2) + C(5,2)^2
p7204
tp7205
asS'part4_correct_attempt'
p7206
(lp7207
S'0:05:34'
p7208
aV5
p7209
asS'part3_correct_attempt'
p7210
(lp7211
S'0:05:54'
p7212
ag2965
asS'part1_correct_attempt'
p7213
(lp7214
S'0:00:00'
p7215
ag2974
asg9
g2975
ssVtstevens
p7216
(dp7217
S'part5_correct_attempt'
p7218
(lp7219
S'4 days, 17:01:37'
p7220
aV100*66*10*5
p7221
asS'part2_correct_attempt'
p7222
(lp7223
S'0:16:16'
p7224
aV10
p7225
asS'part5_incorrect_attempt'
p7226
(lp7227
(S'4 days, 16:57:00'
p7228
V100*91*12*5
p7229
tp7230
a(S'4 days, 16:57:18'
p7231
V100*91*10*5
p7232
tp7233
a(S'4 days, 17:01:20'
p7234
V100*66*12*5
p7235
tp7236
asS'part4_correct_attempt'
p7237
(lp7238
S'0:00:46'
p7239
aV5
p7240
asS'part3_correct_attempt'
p7241
(lp7242
S'4 days, 16:56:38'
p7243
ag2062
asS'part1_correct_attempt'
p7244
(lp7245
S'0:00:00'
p7246
ag2077
asg9
g2078
ssVkmc012
p7247
(dp7248
S'part5_correct_attempt'
p7249
(lp7250
S'0:09:14'
p7251
aV40*((12!)/((2!)*(10!)))*((((4!)/((2!)*(2!))))^2)
p7252
asS'part2_correct_attempt'
p7253
(lp7254
S'0:00:00'
p7255
aV10
p7256
asS'part5_incorrect_attempt'
p7257
(lp7258
(S'0:07:27'
p7259
V((((4!)/((2!)*(2!))))^2)*4
p7260
tp7261
asS'part3_correct_attempt'
p7262
(lp7263
S'0:07:01'
p7264
ag4035
asS'part1_correct_attempt'
p7265
(lp7266
S'0:00:00'
p7267
ag1160
asg9
g4044
ssVbpandayk
p7268
(dp7269
S'part5_correct_attempt'
p7270
(lp7271
S'0:01:28'
p7272
aVC(15,2)*(15-2)*[C(4,2)]^2*4
p7273
asS'part2_correct_attempt'
p7274
(lp7275
S'0:00:07'
p7276
aV13
p7277
asS'part5_incorrect_attempt'
p7278
(lp7279
(S'0:01:14'
p7280
VC(15,2)*(15-2)*[C(4,2)]^(2*5)
p7281
tp7282
asS'part4_correct_attempt'
p7283
(lp7284
S'0:00:36'
p7285
aV4
p7286
asS'part3_correct_attempt'
p7287
(lp7288
S'0:00:29'
p7289
aVC(4,2)^2
p7290
asS'part1_correct_attempt'
p7291
(lp7292
S'0:00:00'
p7293
aVC(15,2)
p7294
asg9
V2015-10-15 22:04:18
p7295
ssVjel075
p7296
(dp7297
S'part5_correct_attempt'
p7298
(lp7299
S'0:09:58'
p7300
aV(12!/(10!*2!))*(4!/(2!*2!)*(4!/(2!*2!)))*10*4
p7301
asS'part5_incorrect_attempt'
p7302
(lp7303
(S'0:08:52'
p7304
V12!/(10!*2!)*4!/(2!*2!)*(4!/(2!*2!))*4
p7305
tp7306
asS'part4_correct_attempt'
p7307
(lp7308
S'0:03:00'
p7309
aV4
p7310
asS'part3_correct_attempt'
p7311
(lp7312
S'0:04:32'
p7313
ag3051
asS'part1_correct_attempt'
p7314
(lp7315
S'0:00:00'
p7316
ag740
asg9
g3063
ssVaysee
p7317
(dp7318
S'part5_correct_attempt'
p7319
(lp7320
S'1:02:00'
p7321
aVC(5,2)*C(5,2)*C(13,2)*C(11,1)*C(5,1)
p7322
asS'part2_correct_attempt'
p7323
(lp7324
S'0:44:48'
p7325
ag5392
asS'part5_incorrect_attempt'
p7326
(lp7327
(S'0:44:48'
p7328
VC(5,2)*C(13,2)
p7329
tp7330
a(S'0:47:17'
p7331
VC(5,2)*C(5,2)*C(13,2)
p7332
tp7333
a(S'0:48:04'
p7334
VC(5,2)*C(5,2)*C(13,2)*C(11,1)
p7335
tp7336
a(S'0:48:51'
p7337
VC(5,2)*C(5,2)*C(5,2)*C(13,2)*C(11,1)
p7338
tp7339
a(S'0:49:44'
p7340
VC(5,2)*C(13,2)*C(11,1)
p7341
tp7342
a(S'0:50:18'
p7343
VC(5,2)*C(5,2)*C(13,2)*C(11,1)
p7344
tp7345
asS'part4_correct_attempt'
p7346
(lp7347
S'0:00:00'
p7348
aVC(5,1)
p7349
asS'part3_correct_attempt'
p7350
(lp7351
S'0:44:48'
p7352
ag2159
asS'part1_correct_attempt'
p7353
(lp7354
S'0:00:00'
p7355
ag2168
asg9
g2169
ssVeaherman
p7356
(dp7357
S'part5_correct_attempt'
p7358
(lp7359
S'0:11:30'
p7360
aV(C(10,2))(C(5,2))^2(5)(8)
p7361
asS'part2_correct_attempt'
p7362
(lp7363
S'0:00:15'
p7364
aV8
p7365
asS'part5_incorrect_attempt'
p7366
(lp7367
(S'0:08:51'
p7368
V8(5)(C(5,2)^2)
p7369
tp7370
a(S'0:09:04'
p7371
V8(5)[(C(5,2)^2)]
p7372
tp7373
a(S'0:10:37'
p7374
V(C(5,2))^2(5)(8)
p7375
tp7376
asS'part4_correct_attempt'
p7377
(lp7378
S'0:00:37'
p7379
aV5
p7380
asS'part3_correct_attempt'
p7381
(lp7382
S'0:08:18'
p7383
aVC(5,2)C(5,2)
p7384
asS'part1_correct_attempt'
p7385
(lp7386
S'0:00:00'
p7387
aVC(10,2)
p7388
asg9
V2015-10-14 02:53:58
p7389
ssVbakang
p7390
(dp7391
S'part5_correct_attempt'
p7392
(lp7393
S'0:16:43'
p7394
aVC(11,2)*9*((C(6,2))^2)*6
p7395
asS'part2_correct_attempt'
p7396
(lp7397
S'-1 day, 23:58:26'
p7398
aVC(5,2)
p7399
asS'part5_incorrect_attempt'
p7400
(lp7401
(S'0:15:36'
p7402
VC(11,2)*9*((C(6,2))^2)*6*((C(6,2))^2)
p7403
tp7404
asS'part4_correct_attempt'
p7405
(lp7406
S'0:10:12'
p7407
aV6
p7408
asS'part3_correct_attempt'
p7409
(lp7410
S'0:12:48'
p7411
ag3120
asS'part1_correct_attempt'
p7412
(lp7413
S'0:00:00'
p7414
ag1082
asg9
g3144
ssVanvan
p7415
(dp7416
S'part5_correct_attempt'
p7417
(lp7418
S'0:35:37'
p7419
aV14!/(2!12!) * 60 * ( 5!/(2!3!) )^2
p7420
asS'part2_correct_attempt'
p7421
(lp7422
S'-1 day, 22:47:33'
p7423
aV2
p7424
asS'part5_incorrect_attempt'
p7425
(lp7426
(S'0:04:07'
p7427
V14!/(2!12!)  *60 * ( 5!/(2!3!) )
p7428
tp7429
a(S'0:05:04'
p7430
V14!/(2!12!) * ( 5!/(2!3!) )
p7431
tp7432
a(S'0:34:25'
p7433
V14!/(2!12!)  * 12
p7434
tp7435
a(S'0:35:11'
p7436
V14!/(2!12!) * 12
p7437
tp7438
asS'part4_correct_attempt'
p7439
(lp7440
S'0:03:06'
p7441
aV5
p7442
asS'part3_correct_attempt'
p7443
(lp7444
S'0:03:36'
p7445
ag2208
asS'part1_correct_attempt'
p7446
(lp7447
S'0:00:00'
p7448
ag266
asg9
g2220
ssVacvuong
p7449
(dp7450
S'part5_correct_attempt'
p7451
(lp7452
S'0:05:07'
p7453
aV45*8*100*5
p7454
asS'part2_correct_attempt'
p7455
(lp7456
S'0:02:05'
p7457
aV8
p7458
asS'part5_incorrect_attempt'
p7459
(lp7460
(S'0:04:14'
p7461
V40*C(5,2)*C(5,2)
p7462
tp7463
asS'part4_correct_attempt'
p7464
(lp7465
S'0:03:23'
p7466
aV5
p7467
asS'part3_correct_attempt'
p7468
(lp7469
S'0:04:14'
p7470
ag2248
asS'part1_correct_attempt'
p7471
(lp7472
S'0:00:00'
p7473
ag2266
asg9
g2267
ssVlahawkin
p7474
(dp7475
S'part5_correct_attempt'
p7476
(lp7477
S'0:08:13'
p7478
aV(12!/(10!*2!))*10*5*((5!)/(3!*2!))^2
p7479
asS'part2_correct_attempt'
p7480
(lp7481
S'0:01:27'
p7482
aV10
p7483
asS'part5_incorrect_attempt'
p7484
(lp7485
(S'0:07:31'
p7486
V(12!/(10!*2!))*10*5
p7487
tp7488
asS'part4_correct_attempt'
p7489
(lp7490
S'0:06:03'
p7491
aV5
p7492
asS'part3_correct_attempt'
p7493
(lp7494
S'0:06:37'
p7495
ag5058
asS'part1_correct_attempt'
p7496
(lp7497
S'0:00:00'
p7498
ag1576
asg9
g5067
ssVcstringh
p7499
(dp7500
S'part5_correct_attempt'
p7501
(lp7502
S'1 day, 1:08:53'
p7503
aV(C(15,2) C(5,2) C(5,2) C(13,1)C(5,1))
p7504
asS'part2_correct_attempt'
p7505
(lp7506
S'-1 day, 23:58:12'
p7507
aV3
p7508
asS'part5_incorrect_attempt'
p7509
(lp7510
(S'1 day, 0:48:44'
p7511
VC(15, 2) *100
p7512
tp7513
asS'part4_correct_attempt'
p7514
(lp7515
S'-1 day, 23:22:54'
p7516
aV5
p7517
asS'part3_correct_attempt'
p7518
(lp7519
S'1 day, 0:32:49'
p7520
ag3208
asS'part1_correct_attempt'
p7521
(lp7522
S'0:00:00'
p7523
ag815
asg9
g3346
ssVeshung
p7524
(dp7525
S'part5_correct_attempt'
p7526
(lp7527
S'0:01:34'
p7528
aVC(10,2)*8*C(5,2)*C(5,2)*5
p7529
asS'part2_correct_attempt'
p7530
(lp7531
S'0:01:21'
p7532
aV8
p7533
asS'part5_incorrect_attempt'
p7534
(lp7535
(S'0:01:21'
p7536
VC(10,2)*9*C(5,2)*C(5,2)*5
p7537
tp7538
asS'part4_correct_attempt'
p7539
(lp7540
S'0:00:00'
p7541
aV5
p7542
asS'part3_correct_attempt'
p7543
(lp7544
S'0:01:21'
p7545
ag3352
asS'part1_correct_attempt'
p7546
(lp7547
S'0:00:00'
p7548
ag3361
asg9
g3362
ssVralhadda
p7549
(dp7550
S'part4_correct_attempt'
p7551
(lp7552
S'0:01:24'
p7553
aV6
p7554
asS'part2_correct_attempt'
p7555
(lp7556
S'0:00:30'
p7557
aV8
p7558
asS'part1_correct_attempt'
p7559
(lp7560
S'0:00:00'
p7561
ag4215
asg9
g4216
sS'part5_incorrect_attempt'
p7562
(lp7563
(S'0:03:22'
p7564
V15*15
p7565
tp7566
a(S'2:46:59'
p7567
V15*15
p7568
tp7569
assVr2fisher
p7570
(dp7571
S'part5_correct_attempt'
p7572
(lp7573
S'23:07:51'
p7574
aV45*8*225*6
p7575
asS'part2_correct_attempt'
p7576
(lp7577
S'-1 day, 23:57:31'
p7578
aV8
p7579
asS'part5_incorrect_attempt'
p7580
(lp7581
(S'22:58:48'
p7582
V255*45*8*6
p7583
tp7584
a(S'22:59:38'
p7585
V255*45+8*6
p7586
tp7587
a(S'23:00:24'
p7588
V(255+45)*(8+6)
p7589
tp7590
asS'part4_correct_attempt'
p7591
(lp7592
S'22:50:36'
p7593
aV6
p7594
asS'part3_correct_attempt'
p7595
(lp7596
S'22:58:13'
p7597
ag5073
asS'part1_correct_attempt'
p7598
(lp7599
S'0:00:00'
p7600
ag1588
asg9
g5097
ssVvasharma
p7601
(dp7602
S'part5_correct_attempt'
p7603
(lp7604
S'19:28:02'
p7605
aVC(6,1)C(6,2)C(6,2)C(9,1)C(11,2)
p7606
asS'part2_correct_attempt'
p7607
(lp7608
S'18:33:26'
p7609
ag6353
asS'part5_incorrect_attempt'
p7610
(lp7611
(S'19:20:44'
p7612
VC(6,2)C(6,2)C(11,2)
p7613
tp7614
a(S'19:22:00'
p7615
VC(11,2)C(6,2)C(6,2)
p7616
tp7617
a(S'19:22:20'
p7618
VC(11,2)C(6,2)
p7619
tp7620
a(S'19:27:08'
p7621
VC(11,2)C(6,2)C(6,2)
p7622
tp7623
asS'part4_correct_attempt'
p7624
(lp7625
S'0:04:09'
p7626
aVC(6,1)
p7627
asS'part3_correct_attempt'
p7628
(lp7629
S'19:20:17'
p7630
ag5103
asS'part1_correct_attempt'
p7631
(lp7632
S'0:00:00'
p7633
ag1600
asg9
g5151
ssVhpc001
p7634
(dp7635
S'part5_correct_attempt'
p7636
(lp7637
S'0:49:03'
p7638
aV100*91*12*5
p7639
asS'part2_correct_attempt'
p7640
(lp7641
S'0:10:08'
p7642
ag5591
asS'part5_incorrect_attempt'
p7643
(lp7644
(S'0:48:09'
p7645
V100*5*14
p7646
tp7647
a(S'0:48:15'
p7648
V100*5
p7649
tp7650
a(S'0:48:45'
p7651
V100*91
p7652
tp7653
asS'part4_correct_attempt'
p7654
(lp7655
S'0:00:22'
p7656
aVC(5,1)
p7657
asS'part3_correct_attempt'
p7658
(lp7659
S'0:47:46'
p7660
ag5157
asS'part1_correct_attempt'
p7661
(lp7662
S'0:00:00'
p7663
ag5169
asg9
g5170
ssVc3chung
p7664
(dp7665
S'part5_incorrect_attempt'
p7666
(lp7667
(S'0:00:00'
p7668
V5^5
p7669
tp7670
a(S'0:00:00'
p7671
VC(75,5)
p7672
tp7673
asg9
V2015-10-15 23:00:44
p7674
ssVk3tan
p7675
(dp7676
S'part5_correct_attempt'
p7677
(lp7678
S'0:24:09'
p7679
aV(15*14*13*6*6*4)/2
p7680
asS'part5_incorrect_attempt'
p7681
(lp7682
(S'0:19:33'
p7683
V15*14*13*6*6*4
p7684
tp7685
a(S'0:19:50'
p7686
V15*14*6*6
p7687
tp7688
a(S'0:23:03'
p7689
V15*14*13*6*6*4
p7690
tp7691
asS'part4_correct_attempt'
p7692
(lp7693
S'0:13:32'
p7694
aV4
p7695
asS'part3_correct_attempt'
p7696
(lp7697
S'0:13:22'
p7698
ag3468
asS'part1_correct_attempt'
p7699
(lp7700
S'0:00:00'
p7701
ag3477
asg9
g3478
ssVaurodrig
p7702
(dp7703
S'part5_correct_attempt'
p7704
(lp7705
S'2:01:55'
p7706
aV12!/(2!10!) * 4!/(1!3!) * 10!/(1!9!) * 36 
p7707
asS'part2_correct_attempt'
p7708
(lp7709
S'0:02:15'
p7710
ag6515
asS'part5_incorrect_attempt'
p7711
(lp7712
(S'0:15:47'
p7713
V12!/2!10!
p7714
tp7715
a(S'0:16:06'
p7716
V12!/(2!10!)
p7717
tp7718
a(S'0:28:50'
p7719
V12*11*4*6
p7720
tp7721
a(S'0:30:06'
p7722
V12!/(2!10!)
p7723
tp7724
a(S'1:59:21'
p7725
V13!/(2!11!)
p7726
tp7727
a(S'1:59:39'
p7728
V13!/(2!11!) * 11
p7729
tp7730
a(S'2:04:20'
p7731
V13!/(2!10!) * 11 * (4!/(1!3!))
p7732
tp7733
a(S'2:04:45'
p7734
V13!/(2!10!) * 11 * 4^3
p7735
tp7736
a(S'2:05:02'
p7737
V13!/(2!10!) * 11 * 3^4
p7738
tp7739
asS'part4_correct_attempt'
p7740
(lp7741
S'0:14:22'
p7742
aV4!/(1!3!)
p7743
asS'part3_correct_attempt'
p7744
(lp7745
S'0:09:49'
p7746
ag3387
asS'part1_correct_attempt'
p7747
(lp7748
S'0:00:00'
p7749
ag857
asg9
g3399
ssVytc012
p7750
(dp7751
S'part5_correct_attempt'
p7752
(lp7753
S'1:36:49'
p7754
aV105*13*225*6
p7755
asS'part2_correct_attempt'
p7756
(lp7757
S'0:01:02'
p7758
ag6183
asS'part5_incorrect_attempt'
p7759
(lp7760
(S'0:12:34'
p7761
V15!/2!13!
p7762
tp7763
a(S'0:12:43'
p7764
V15!/(2!13!)
p7765
tp7766
a(S'0:19:03'
p7767
V6!15*15*6!/(2!4!2!4!)
p7768
tp7769
a(S'0:19:41'
p7770
V13*6*6!15*15*6!/(2!4!2!4!)
p7771
tp7772
a(S'0:51:27'
p7773
V15!6!6!/(2!2!2!4!4!13!)
p7774
tp7775
asS'part4_correct_attempt'
p7776
(lp7777
S'0:02:17'
p7778
aV6
p7779
asS'part3_correct_attempt'
p7780
(lp7781
S'0:01:55'
p7782
aV6!6!/(2!4!2!4!)
p7783
asS'part1_correct_attempt'
p7784
(lp7785
S'0:00:00'
p7786
ag1283
asg9
g6184
ssVsyc078
p7787
(dp7788
S'part5_correct_attempt'
p7789
(lp7790
S'0:09:07'
p7791
aV(16! / (14!2!)) * (( (5!) / (3!2!) ) ^2) * (14*5)
p7792
asS'part2_correct_attempt'
p7793
(lp7794
S'0:02:50'
p7795
aV14
p7796
asS'part5_incorrect_attempt'
p7797
(lp7798
(S'0:07:59'
p7799
V(16! / (14!2!)) * (( (5!) / (3!2!) ) ^2)
p7800
tp7801
asS'part4_correct_attempt'
p7802
(lp7803
S'0:07:05'
p7804
aV5
p7805
asS'part3_correct_attempt'
p7806
(lp7807
S'0:06:59'
p7808
aV( (5!) / (3!2!) ) ^2
p7809
asS'part1_correct_attempt'
p7810
(lp7811
S'0:00:00'
p7812
aV16! / (14!2!)
p7813
asg9
V2015-10-15 01:47:59
p7814
ssVmsaguiar
p7815
(dp7816
S'part5_correct_attempt'
p7817
(lp7818
S'2:12:06'
p7819
aVC(12,2)*10*C(6,2)*(C(6,2))*6
p7820
asS'part2_correct_attempt'
p7821
(lp7822
S'0:00:00'
p7823
ag5987
asS'part5_incorrect_attempt'
p7824
(lp7825
(S'0:08:14'
p7826
VC(6,2)*C(6,2)*C(12,2)*10
p7827
tp7828
a(S'0:08:32'
p7829
VC(6,2)*C(12,2)*10
p7830
tp7831
a(S'2:03:28'
p7832
V(C(6,2)*C(12,1))*(C(6,2)*C(11,1))*(6*10)
p7833
tp7834
asS'part4_correct_attempt'
p7835
(lp7836
S'0:08:14'
p7837
aV6
p7838
asS'part3_correct_attempt'
p7839
(lp7840
S'0:06:32'
p7841
ag4896
asS'part1_correct_attempt'
p7842
(lp7843
S'0:00:00'
p7844
ag4908
asg9
g4909
sssV4
p7845
(dp7846
Vv4zhang
p7847
(dp7848
S'part4_correct_attempt'
p7849
(lp7850
S'0:04:11'
p7851
aVC(4, 1)
p7852
asS'part2_correct_attempt'
p7853
(lp7854
S'0:01:34'
p7855
ag5414
asS'part4_incorrect_attempt'
p7856
(lp7857
(S'0:03:57'
p7858
VC(2, 1)
p7859
tp7860
asg9
g1807
ssVt2shin
p7861
(dp7862
S'part4_correct_attempt'
p7863
(lp7864
S'1:44:08'
p7865
aV5
p7866
asS'part2_correct_attempt'
p7867
(lp7868
S'0:09:13'
p7869
ag5818
asS'part4_incorrect_attempt'
p7870
(lp7871
(S'1:05:34'
p7872
V5!/(2!3!)
p7873
tp7874
asg9
g4346
ssVachava
p7875
(dp7876
S'part4_correct_attempt'
p7877
(lp7878
S'1 day, 11:03:23'
p7879
ag6808
asS'part2_correct_attempt'
p7880
(lp7881
S'0:07:57'
p7882
ag6251
asS'part4_incorrect_attempt'
p7883
(lp7884
(S'1 day, 11:01:57'
p7885
VC(6,2) * C(6,2)
p7886
tp7887
a(S'1 day, 11:03:05'
p7888
VC(10,1)
p7889
tp7890
a(S'1 day, 11:03:15'
p7891
VC(10,2)
p7892
tp7893
asg9
g3652
ssVewbrenna
p7894
(dp7895
S'part4_correct_attempt'
p7896
(lp7897
S'9:03:41'
p7898
aV6
p7899
asS'part2_correct_attempt'
p7900
(lp7901
S'0:04:45'
p7902
ag5562
asS'part4_incorrect_attempt'
p7903
(lp7904
(S'0:27:44'
p7905
V4!
p7906
tp7907
a(S'9:02:48'
p7908
V15^2
p7909
tp7910
asg9
g4391
ssVmroknich
p7911
(dp7912
S'part4_correct_attempt'
p7913
(lp7914
S'22:37:25'
p7915
aVC(6,1)
p7916
asS'part2_correct_attempt'
p7917
(lp7918
S'0:00:27'
p7919
aVC(13,1)
p7920
asS'part4_incorrect_attempt'
p7921
(lp7922
(S'0:06:36'
p7923
V6*5
p7924
tp7925
a(S'22:35:18'
p7926
V6^2
p7927
tp7928
asg9
g2734
ssVakhmelni
p7929
(dp7930
S'part4_correct_attempt'
p7931
(lp7932
S'0:15:02'
p7933
aV5
p7934
asS'part2_correct_attempt'
p7935
(lp7936
S'0:11:05'
p7937
ag6124
asS'part4_incorrect_attempt'
p7938
(lp7939
(S'0:12:54'
p7940
V2*C(5,2)
p7941
tp7942
asg9
g3943
ssVmbl003
p7943
(dp7944
S'part4_correct_attempt'
p7945
(lp7946
S'0:03:08'
p7947
aVC(4,1)
p7948
asS'part2_correct_attempt'
p7949
(lp7950
S'0:00:21'
p7951
aVC(14,1)
p7952
asS'part4_incorrect_attempt'
p7953
(lp7954
(S'0:03:02'
p7955
VC(2,1)
p7956
tp7957
asg9
g3758
ssVj5phung
p7958
(dp7959
S'part4_correct_attempt'
p7960
(lp7961
S'0:03:22'
p7962
aVC(5,1)
p7963
asS'part2_correct_attempt'
p7964
(lp7965
S'0:00:50'
p7966
aVC(9,1)
p7967
asS'part4_incorrect_attempt'
p7968
(lp7969
(S'0:02:06'
p7970
VC(3,1)
p7971
tp7972
a(S'0:02:34'
p7973
VC(1,1)
p7974
tp7975
asg9
g1941
ssVp4kumar
p7976
(dp7977
S'part4_correct_attempt'
p7978
(lp7979
S'1:28:42'
p7980
aV4
p7981
asS'part2_correct_attempt'
p7982
(lp7983
S'0:04:21'
p7984
aV13
p7985
asS'part4_incorrect_attempt'
p7986
(lp7987
(S'1:28:34'
p7988
VC(4, 2)
p7989
tp7990
asg9
g4619
ssVhaw081
p7991
(dp7992
S'part4_correct_attempt'
p7993
(lp7994
S'3 days, 0:04:43'
p7995
aV6
p7996
asS'part2_correct_attempt'
p7997
(lp7998
S'2 days, 0:30:27'
p7999
ag5775
asS'part4_incorrect_attempt'
p8000
(lp8001
(S'2 days, 20:09:04'
p8002
VC(5,1)
p8003
tp8004
asg9
g1963
ssVbmilton
p8005
(dp8006
S'part4_correct_attempt'
p8007
(lp8008
S'0:01:58'
p8009
aVC(6,1)
p8010
asS'part2_correct_attempt'
p8011
(lp8012
S'0:00:00'
p8013
aV11
p8014
asS'part4_incorrect_attempt'
p8015
(lp8016
(S'0:00:00'
p8017
VC(2,1)
p8018
tp8019
asg9
g4697
ssVjew037
p8020
(dp8021
S'part4_correct_attempt'
p8022
(lp8023
S'0:01:58'
p8024
aV6
p8025
asS'part2_correct_attempt'
p8026
(lp8027
S'0:00:12'
p8028
aV(10-2)
p8029
asS'part4_incorrect_attempt'
p8030
(lp8031
(S'0:01:19'
p8032
VC(10,2)*(10-2)*C(6,2)^2 * 6
p8033
tp8034
asg9
g1979
ssVs6deng
p8035
(dp8036
S'part4_correct_attempt'
p8037
(lp8038
S'0:04:13'
p8039
ag7053
asS'part2_correct_attempt'
p8040
(lp8041
S'0:00:48'
p8042
ag7044
asS'part4_incorrect_attempt'
p8043
(lp8044
(S'0:02:08'
p8045
VC(2,1)
p8046
tp8047
asg9
g4828
ssVdis003
p8048
(dp8049
S'part4_correct_attempt'
p8050
(lp8051
S'0:08:41'
p8052
ag7077
asS'part2_correct_attempt'
p8053
(lp8054
S'0:05:52'
p8055
ag5947
asS'part4_incorrect_attempt'
p8056
(lp8057
(S'0:07:53'
p8058
VC(4,1)C(4,2)*C(4,2)
p8059
tp8060
asg9
g2937
ssVssamudra
p8061
(dp8062
S'part4_correct_attempt'
p8063
(lp8064
S'0:02:05'
p8065
aV4!/(3!1!)
p8066
asS'part2_correct_attempt'
p8067
(lp8068
S'0:01:09'
p8069
ag6078
asS'part4_incorrect_attempt'
p8070
(lp8071
(S'0:01:55'
p8072
V4!(3!1!)
p8073
tp8074
asg9
g2035
ssVthwan
p8075
(dp8076
S'part4_correct_attempt'
p8077
(lp8078
S'0:02:11'
p8079
aVC(6,1)
p8080
asS'part2_correct_attempt'
p8081
(lp8082
S'-1 day, 23:57:35'
p8083
aVC(10,1)
p8084
asS'part4_incorrect_attempt'
p8085
(lp8086
(S'-1 day, 23:57:35'
p8087
VC(4,1)
p8088
tp8089
a(S'0:00:00'
p8090
VC(4,4)
p8091
tp8092
a(S'0:01:25'
p8093
VC(6,6)
p8094
tp8095
asg9
g3006
ssVanvan
p8096
(dp8097
S'part4_correct_attempt'
p8098
(lp8099
S'0:03:06'
p8100
ag7442
asS'part2_correct_attempt'
p8101
(lp8102
S'-1 day, 22:47:33'
p8103
ag7424
asS'part4_incorrect_attempt'
p8104
(lp8105
(S'-1 day, 23:09:56'
p8106
V12*4
p8107
tp8108
a(S'-1 day, 23:10:00'
p8109
V12*3
p8110
tp8111
asg9
g2220
ssVjnn015
p8112
(dp8113
S'part4_correct_attempt'
p8114
(lp8115
S'0:05:38'
p8116
aV5
p8117
asS'part2_correct_attempt'
p8118
(lp8119
S'-1 day, 16:24:17'
p8120
aV10
p8121
asS'part4_incorrect_attempt'
p8122
(lp8123
(S'0:04:54'
p8124
V(5!/2!/3!)^2
p8125
tp8126
asg9
g4990
ssVc1sorian
p8127
(dp8128
S'part4_correct_attempt'
p8129
(lp8130
S'0:04:45'
p8131
ag7028
asS'part2_correct_attempt'
p8132
(lp8133
S'0:00:16'
p8134
ag7019
asS'part4_incorrect_attempt'
p8135
(lp8136
(S'0:04:38'
p8137
V6*5
p8138
tp8139
asg9
g4099
ssVhaliew
p8140
(dp8141
S'part4_correct_attempt'
p8142
(lp8143
S'0:02:16'
p8144
aV5
p8145
asS'part2_correct_attempt'
p8146
(lp8147
S'0:00:00'
p8148
aVC(12,1)
p8149
asS'part4_incorrect_attempt'
p8150
(lp8151
(S'0:00:00'
p8152
VC(3,1)
p8153
tp8154
asg9
g5052
ssVazkong
p8155
(dp8156
S'part4_correct_attempt'
p8157
(lp8158
S'1:37:36'
p8159
aVC(5, 1)
p8160
asS'part2_correct_attempt'
p8161
(lp8162
S'1:23:23'
p8163
ag5343
asS'part4_incorrect_attempt'
p8164
(lp8165
(S'1:23:55'
p8166
VC(3, 1)
p8167
tp8168
asg9
g4151
ssVmitopete
p8169
(dp8170
S'part4_correct_attempt'
p8171
(lp8172
S'0:27:51'
p8173
aV4!/(1!3!)
p8174
asS'part2_correct_attempt'
p8175
(lp8176
S'0:00:27'
p8177
aV9!/(1!8!)
p8178
asS'part4_incorrect_attempt'
p8179
(lp8180
(S'0:17:43'
p8181
V44!/(4!40!)
p8182
tp8183
a(S'0:27:20'
p8184
V36!/(1!35!)
p8185
tp8186
asg9
g2374
ssVr2fisher
p8187
(dp8188
S'part4_correct_attempt'
p8189
(lp8190
S'22:50:36'
p8191
ag7594
asS'part2_correct_attempt'
p8192
(lp8193
S'-1 day, 23:57:31'
p8194
ag7579
asS'part4_incorrect_attempt'
p8195
(lp8196
(S'22:50:07'
p8197
V6!/(4!*2!)
p8198
tp8199
asg9
g5097
ssVtak068
p8200
(dp8201
S'part4_correct_attempt'
p8202
(lp8203
S'0:03:38'
p8204
aVC(6,1)
p8205
asS'part2_correct_attempt'
p8206
(lp8207
S'0:01:46'
p8208
ag6321
asS'part4_incorrect_attempt'
p8209
(lp8210
(S'0:03:25'
p8211
VC(4,1)
p8212
tp8213
asg9
g2404
ssVhsc052
p8214
(dp8215
S'part4_correct_attempt'
p8216
(lp8217
S'0:07:14'
p8218
aV5
p8219
asS'part2_correct_attempt'
p8220
(lp8221
S'0:03:59'
p8222
ag6279
asS'part4_incorrect_attempt'
p8223
(lp8224
(S'0:03:59'
p8225
VC(3,1)
p8226
tp8227
asg9
g3424
ssVc3chung
p8228
(dp8229
S'part4_incorrect_attempt'
p8230
(lp8231
(S'0:00:00'
p8232
V5^5
p8233
tp8234
a(S'0:00:00'
p8235
VC(75,5)
p8236
tp8237
a(S'0:00:00'
p8238
VC(5,2)15*70*65*60
p8239
tp8240
a(S'0:00:00'
p8241
V15^5
p8242
tp8243
a(S'0:00:00'
p8244
V15^5(C(5,1))^5
p8245
tp8246
a(S'0:00:00'
p8247
V15^5(C(5,1))
p8248
tp8249
a(S'0:00:00'
p8250
V75*60*45*30*15
p8251
tp8252
asg9
V2015-10-15 23:00:44
p8253
ssVk4ma
p8254
(dp8255
S'part4_correct_attempt'
p8256
(lp8257
S'0:16:50'
p8258
aV5
p8259
asS'part2_correct_attempt'
p8260
(lp8261
S'0:00:27'
p8262
aV11
p8263
asS'part4_incorrect_attempt'
p8264
(lp8265
(S'0:14:31'
p8266
VC(5,2)
p8267
tp8268
a(S'0:14:38'
p8269
VC(4,2)
p8270
tp8271
asg9
g4204
ssVaurodrig
p8272
(dp8273
S'part4_correct_attempt'
p8274
(lp8275
S'0:14:22'
p8276
ag7743
asS'part2_correct_attempt'
p8277
(lp8278
S'0:02:15'
p8279
ag6515
asS'part4_incorrect_attempt'
p8280
(lp8281
(S'0:14:07'
p8282
V5!/(1!4!)
p8283
tp8284
asg9
g3399
sssV6
p8285
(dp8286
Vachava
p8287
(dp8288
S'part5_correct_attempt'
p8289
(lp8290
S'1 day, 11:04:17'
p8291
ag6796
asS'part6_incorrect_attempt'
p8292
(lp8293
(S'1 day, 11:04:58'
p8294
VC(60, 5)
p8295
tp8296
asS'part2_correct_attempt'
p8297
(lp8298
S'0:07:57'
p8299
ag6251
asS'part6_correct_attempt'
p8300
(lp8301
S'1 day, 11:05:07'
p8302
aV486000 /C(60, 5)
p8303
asS'part4_correct_attempt'
p8304
(lp8305
S'1 day, 11:03:23'
p8306
ag6808
asS'part3_correct_attempt'
p8307
(lp8308
S'1 day, 11:02:06'
p8309
ag3625
asS'part1_correct_attempt'
p8310
(lp8311
S'0:00:00'
p8312
ag998
asg9
g3652
ssVjtfrankl
p8313
(dp8314
S'part5_correct_attempt'
p8315
(lp8316
S'0:16:00'
p8317
aVC(12,2)10C(6,2)^2*6
p8318
asS'part6_incorrect_attempt'
p8319
(lp8320
(S'0:16:17'
p8321
VC(12,2)10C(6,2)^2*6
p8322
tp8323
asS'part2_correct_attempt'
p8324
(lp8325
S'0:02:04'
p8326
ag6138
asS'part6_correct_attempt'
p8327
(lp8328
S'0:18:44'
p8329
aV(C(12,2)10C(6,2)^2*6)/(C(72,5))
p8330
asS'part4_correct_attempt'
p8331
(lp8332
S'0:07:12'
p8333
aV6
p8334
asS'part3_correct_attempt'
p8335
(lp8336
S'0:15:27'
p8337
ag3175
asS'part1_correct_attempt'
p8338
(lp8339
S'0:00:00'
p8340
ag803
asg9
g3202
ssVh4tu
p8341
(dp8342
S'part5_correct_attempt'
p8343
(lp8344
S'0:04:12'
p8345
aV(16*15/2)*14*(6*5/2)^2*6
p8346
asS'part6_incorrect_attempt'
p8347
(lp8348
(S'0:04:25'
p8349
V(16*15/2)*14*(6*5/2)^2*6
p8350
tp8351
a(S'0:04:54'
p8352
V(16*15/2)*14*(6*5/2)^2*6/96!/(91!5!)
p8353
tp8354
asS'part2_correct_attempt'
p8355
(lp8356
S'0:01:09'
p8357
aV14
p8358
asS'part6_correct_attempt'
p8359
(lp8360
S'0:05:22'
p8361
aV(16*15/2)*14*(6*5/2)^2*6/(96!/(91!5!))
p8362
asS'part4_correct_attempt'
p8363
(lp8364
S'0:03:48'
p8365
aV6
p8366
asS'part3_correct_attempt'
p8367
(lp8368
S'0:03:23'
p8369
ag2489
asS'part1_correct_attempt'
p8370
(lp8371
S'0:00:00'
p8372
ag443
asg9
g2501
ssVtak068
p8373
(dp8374
S'part5_correct_attempt'
p8375
(lp8376
S'0:04:24'
p8377
aVC(6,1)C(6,2)^2C(10,2)C(8,1)
p8378
asS'part6_incorrect_attempt'
p8379
(lp8380
(S'0:04:45'
p8381
VC(6,1)(C(6,2))2C(10,2)C(8,1)/C(60,5)
p8382
tp8383
asS'part2_correct_attempt'
p8384
(lp8385
S'0:01:46'
p8386
ag6321
asS'part6_correct_attempt'
p8387
(lp8388
S'0:05:01'
p8389
aV486000/C(60,5)
p8390
asS'part4_correct_attempt'
p8391
(lp8392
S'0:03:38'
p8393
ag8205
asS'part3_correct_attempt'
p8394
(lp8395
S'0:03:54'
p8396
ag2380
asS'part1_correct_attempt'
p8397
(lp8398
S'0:00:00'
p8399
ag359
asg9
g2404
ssVc3chung
p8400
(dp8401
S'part6_incorrect_attempt'
p8402
(lp8403
(S'0:00:00'
p8404
V5^5
p8405
tp8406
a(S'0:00:00'
p8407
VC(75,5)
p8408
tp8409
asg9
V2015-10-15 23:00:44
p8410
ssVrlhagen
p8411
(dp8412
S'part5_correct_attempt'
p8413
(lp8414
S'0:05:02'
p8415
aV12!/(2!(12-2)!)*10*(6!/(2!(6-2)!))^2*6
p8416
asS'part6_incorrect_attempt'
p8417
(lp8418
(S'0:05:02'
p8419
V(12!/(2!(12-2)!)*10*(6!/(2!(6-2)!))^2*6)/12!/(2!(12-2)!)
p8420
tp8421
a(S'0:05:54'
p8422
V((12!/(2!(12-2)!)*10*(6!/(2!(6-2)!))^2*6)/12!/(72!)/(5!(72-5)!))
p8423
tp8424
asS'part2_correct_attempt'
p8425
(lp8426
S'0:03:57'
p8427
ag5858
asS'part6_correct_attempt'
p8428
(lp8429
S'0:06:20'
p8430
aV(12!/(2!(12-2)!)*10*(6!/(2!(6-2)!))^2*6)/(72!/(5!(72-5)!))
p8431
asS'part4_correct_attempt'
p8432
(lp8433
S'0:03:15'
p8434
aV6
p8435
asS'part3_correct_attempt'
p8436
(lp8437
S'0:03:32'
p8438
aV(6!/(2!(6-2)!))^2
p8439
asS'part1_correct_attempt'
p8440
(lp8441
S'0:00:00'
p8442
aV12!/(2!(12-2)!)
p8443
asg9
g5859
ssVaadhakal
p8444
(dp8445
S'part5_correct_attempt'
p8446
(lp8447
S'0:07:02'
p8448
aVC(14,2)*12*[C(6,2)]^2*6
p8449
asS'part6_incorrect_attempt'
p8450
(lp8451
(S'0:07:49'
p8452
VC(14,2)*12*[C(6,2)]^2*6/84!/(5!*(84-5)!)
p8453
tp8454
asS'part2_correct_attempt'
p8455
(lp8456
S'0:02:34'
p8457
aV12
p8458
asS'part6_correct_attempt'
p8459
(lp8460
S'0:08:14'
p8461
aVC(14,2)*12*[C(6,2)]^2*6/(84!/(5!*(84-5)!))
p8462
asS'part4_correct_attempt'
p8463
(lp8464
S'0:03:48'
p8465
aV6
p8466
asS'part3_correct_attempt'
p8467
(lp8468
S'0:02:34'
p8469
aV(C(6,2))^2
p8470
asS'part1_correct_attempt'
p8471
(lp8472
S'0:00:00'
p8473
aVC(14,2)
p8474
asg9
V2015-10-14 05:08:24
p8475
ssVkrau
p8476
(dp8477
S'part5_correct_attempt'
p8478
(lp8479
S'0:02:34'
p8480
aV16!/2!/14!*14*36*4
p8481
asS'part6_incorrect_attempt'
p8482
(lp8483
(S'0:02:34'
p8484
V16!/2!/14!*14*36*4 / 64!/59!/4!
p8485
tp8486
asS'part2_correct_attempt'
p8487
(lp8488
S'-1 day, 23:58:27'
p8489
aV14
p8490
asS'part6_correct_attempt'
p8491
(lp8492
S'0:03:04'
p8493
aV(16!/2!/14!*14*36*4) / (64!/59!/5!)
p8494
asS'part4_correct_attempt'
p8495
(lp8496
S'0:01:43'
p8497
aV4
p8498
asS'part3_correct_attempt'
p8499
(lp8500
S'0:01:18'
p8501
ag2688
asS'part1_correct_attempt'
p8502
(lp8503
S'0:00:00'
p8504
ag599
asg9
g2703
ssVtwsalim
p8505
(dp8506
S'part5_correct_attempt'
p8507
(lp8508
S'0:18:06'
p8509
aV682500
p8510
asS'part6_incorrect_attempt'
p8511
(lp8512
(S'0:18:06'
p8513
V0.0395
p8514
tp8515
asS'part2_correct_attempt'
p8516
(lp8517
S'0:05:34'
p8518
ag5913
asS'part6_correct_attempt'
p8519
(lp8520
S'0:19:22'
p8521
aV0.039543692
p8522
asS'part4_correct_attempt'
p8523
(lp8524
S'0:05:34'
p8525
aV5
p8526
asS'part3_correct_attempt'
p8527
(lp8528
S'0:18:06'
p8529
aV100
p8530
asS'part1_correct_attempt'
p8531
(lp8532
S'0:00:00'
p8533
ag1462
asg9
g5914
ssVpvl001
p8534
(dp8535
S'part5_correct_attempt'
p8536
(lp8537
S'0:03:13'
p8538
aV78 * 11 * 10 * 10 * 5
p8539
asS'part6_incorrect_attempt'
p8540
(lp8541
(S'0:03:37'
p8542
V5 * (13 * 12 * 11 * 10 * 9)
p8543
tp8544
a(S'0:04:15'
p8545
V65! / (5! * 60!)
p8546
tp8547
asS'part2_correct_attempt'
p8548
(lp8549
S'0:00:22'
p8550
aV11
p8551
asS'part6_correct_attempt'
p8552
(lp8553
S'0:04:37'
p8554
aV78 * 11 * 10 * 10 * 5 / (65! / (5! * 60!))
p8555
asS'part4_correct_attempt'
p8556
(lp8557
S'0:03:01'
p8558
aV5
p8559
asS'part3_correct_attempt'
p8560
(lp8561
S'0:02:52'
p8562
ag3716
asS'part1_correct_attempt'
p8563
(lp8564
S'0:00:00'
p8565
ag3725
asg9
g3726
ssVk3tan
p8566
(dp8567
S'part5_correct_attempt'
p8568
(lp8569
S'0:24:09'
p8570
ag7680
asS'part6_incorrect_attempt'
p8571
(lp8572
(S'0:24:56'
p8573
V(60!/(5!(60-5)!))
p8574
tp8575
asS'part6_correct_attempt'
p8576
(lp8577
S'0:25:06'
p8578
aV196560/(60!/(5!(60-5)!))
p8579
asS'part4_correct_attempt'
p8580
(lp8581
S'0:13:32'
p8582
ag7695
asS'part3_correct_attempt'
p8583
(lp8584
S'0:13:22'
p8585
ag3468
asS'part1_correct_attempt'
p8586
(lp8587
S'0:00:00'
p8588
ag3477
asg9
g3478
ssVjcj006
p8589
(dp8590
S'part5_correct_attempt'
p8591
(lp8592
S'0:09:16'
p8593
aV6*14*(6!/(2!4!))^2*(16!/(2*14!))
p8594
asS'part6_incorrect_attempt'
p8595
(lp8596
(S'0:09:16'
p8597
V6*14*(6!/(2!4!))^2*(16!/(2*14!))/(6*16)!/(5!(6*16-5)!)
p8598
tp8599
asS'part2_correct_attempt'
p8600
(lp8601
S'0:03:20'
p8602
aV14
p8603
asS'part6_correct_attempt'
p8604
(lp8605
S'0:10:23'
p8606
aV6*14*(6!/(2!4!))^2*(16!/(2*14!))/((6*16)!/(5!(6*16-5)!))
p8607
asS'part4_correct_attempt'
p8608
(lp8609
S'0:00:00'
p8610
aV6
p8611
asS'part3_correct_attempt'
p8612
(lp8613
S'0:07:56'
p8614
ag3732
asS'part1_correct_attempt'
p8615
(lp8616
S'0:00:00'
p8617
ag3741
asg9
g3742
sss.