(dp0
V1
p1
(dp2
Vjag028
p3
(dp4
S'part1_correct_attempt'
p5
(lp6
S'7:10:16'
p7
aVC(13,1)
p8
asS'first_attempt'
p9
V2015-10-15 14:05:23
p10
sS'part1_incorrect_attempt'
p11
(lp12
(S'0:00:00'
p13
V4*C(13,3)
p14
tp15
a(S'0:00:10'
p16
V3*C(13,2)
p17
tp18
a(S'0:00:37'
p19
VC(13,3)
p20
tp21
a(S'0:00:59'
p22
VC(52,3)
p23
tp24
a(S'0:01:07'
p25
V4*C(52,3)
p26
tp27
a(S'0:01:40'
p28
VC(52,13)
p29
tp30
a(S'0:04:08'
p31
VC(13,1)C(4,3)C(12,1)C(4,2)
p32
tp33
a(S'0:04:22'
p34
VC(13,1)C(4,3)
p35
tp36
a(S'0:05:06'
p37
VC(13,1)C(4,1)
p38
tp39
a(S'0:05:57'
p40
VC(13,3)C(4,1)
p41
tp42
a(S'0:07:00'
p43
VC(13,1)C(4,3)
p44
tp45
a(S'0:07:12'
p46
VC(13,1)*C(4,3)
p47
tp48
a(S'0:08:04'
p49
VC(13,1)*C(4,3)C(12,1)C(4,2)
p50
tp51
a(S'0:00:00'
p52
VC(13,3)
p53
tp54
assVlywong
p55
(dp56
S'part1_correct_attempt'
p57
(lp58
S'0:00:32'
p59
aV11
p60
asg9
V2015-10-13 00:56:12
p61
sS'part1_incorrect_attempt'
p62
(lp63
(S'0:00:00'
p64
V11!/3!(11-9)!
p65
tp66
a(S'0:00:08'
p67
V11!/(3!(11-9)!)
p68
tp69
assVhkhodada
p70
(dp71
S'part1_correct_attempt'
p72
(lp73
S'1 day, 1:20:38'
p74
aV14
p75
asg9
V2015-10-10 23:47:33
p76
sS'part1_incorrect_attempt'
p77
(lp78
(S'0:00:00'
p79
VC(4,3)
p80
tp81
a(S'0:00:00'
p82
V4*C(14,3)
p83
tp84
assVabasu
p85
(dp86
S'part1_correct_attempt'
p87
(lp88
S'0:00:33'
p89
aVC(15,1)
p90
asg9
V2015-10-11 03:04:26
p91
sS'part1_incorrect_attempt'
p92
(lp93
(S'0:00:00'
p94
VC(13,1)
p95
tp96
a(S'0:00:00'
p97
VC(13,2)
p98
tp99
assVachava
p100
(dp101
S'part1_correct_attempt'
p102
(lp103
S'23:24:19'
p104
aVC(10,1)
p105
asg9
V2015-10-13 20:05:12
p106
sS'part1_incorrect_attempt'
p107
(lp108
(S'0:00:00'
p109
VC(13, 3)
p110
tp111
a(S'0:00:32'
p112
VC(10, 3)
p113
tp114
a(S'0:00:47'
p115
VC(10, 3)*6
p116
tp117
a(S'0:00:00'
p118
VC(10, 3)^6
p119
tp120
a(S'0:00:26'
p121
VC(10,3)
p122
tp123
assVjcl084
p124
(dp125
S'part1_correct_attempt'
p126
(lp127
S'0:01:41'
p128
aV10
p129
asg9
V2015-10-13 21:06:18
p130
sS'part1_incorrect_attempt'
p131
(lp132
(S'0:00:00'
p133
VC(10,3)
p134
tp135
assVspw006
p136
(dp137
S'part1_correct_attempt'
p138
(lp139
S'0:02:11'
p140
aV10
p141
asg9
V2015-10-13 23:05:31
p142
sS'part1_incorrect_attempt'
p143
(lp144
(S'0:00:00'
p145
V5^3
p146
tp147
assVcprafull
p148
(dp149
S'part1_correct_attempt'
p150
(lp151
S'13:56:26'
p152
aV14
p153
asg9
V2015-10-14 08:38:07
p154
sS'part1_incorrect_attempt'
p155
(lp156
(S'0:00:00'
p157
V(84!)/((81!)(3!))
p158
tp159
assVpcdo
p160
(dp161
S'part1_correct_attempt'
p162
(lp163
S'0:00:21'
p164
aV16
p165
asg9
V2015-10-13 20:41:48
p166
sS'part1_incorrect_attempt'
p167
(lp168
(S'0:00:00'
p169
VC(5*16, 3)
p170
tp171
assVjcj006
p172
(dp173
S'part1_correct_attempt'
p174
(lp175
S'0:03:03'
p176
aV16
p177
asg9
V2015-10-14 00:36:34
p178
sS'part1_incorrect_attempt'
p179
(lp180
(S'0:00:00'
p181
V16!/(6*13!)
p182
tp183
assVjdeon
p184
(dp185
S'part1_correct_attempt'
p186
(lp187
S'0:00:16'
p188
aV11
p189
asg9
V2015-10-11 23:40:06
p190
sS'part1_incorrect_attempt'
p191
(lp192
(S'0:00:00'
p193
VC(11,3)
p194
tp195
assVt2shin
p196
(dp197
S'part1_correct_attempt'
p198
(lp199
S'5:44:01'
p200
aV11
p201
asg9
V2015-10-15 17:39:02
p202
sS'part1_incorrect_attempt'
p203
(lp204
(S'0:00:00'
p205
V11!(3!8!)
p206
tp207
a(S'0:00:06'
p208
V11!/(3!8!)
p209
tp210
assVdlt009
p211
(dp212
S'part1_correct_attempt'
p213
(lp214
S'0:01:30'
p215
aV15
p216
asg9
V2015-10-14 02:26:11
p217
sS'part1_incorrect_attempt'
p218
(lp219
(S'0:00:00'
p220
V15!/[(15-3)!3!]
p221
tp222
assVmbl003
p223
(dp224
S'part1_correct_attempt'
p225
(lp226
S'0:00:47'
p227
aVC(16,1)
p228
asg9
V2015-10-15 07:34:06
p229
sS'part1_incorrect_attempt'
p230
(lp231
(S'0:00:00'
p232
VC(16,3)
p233
tp234
assVp4kumar
p235
(dp236
S'part1_correct_attempt'
p237
(lp238
S'0:53:31'
p239
aV15
p240
asg9
V2015-10-15 09:38:00
p241
sS'part1_incorrect_attempt'
p242
(lp243
(S'0:00:00'
p244
VC(14, 3)
p245
tp246
a(S'0:00:05'
p247
VC(15, 3)
p248
tp249
a(S'0:00:29'
p250
VC(14, 3)
p251
tp252
a(S'0:50:55'
p253
V14 * 4
p254
tp255
a(S'0:51:58'
p256
V14 * 3
p257
tp258
a(S'0:52:25'
p259
V15 * 3
p260
tp261
a(S'0:53:25'
p262
V15 * 4
p263
tp264
assVjmiclat
p265
(dp266
S'part1_correct_attempt'
p267
(lp268
S'0:00:47'
p269
aV11
p270
asg9
V2015-10-15 19:05:54
p271
sS'part1_incorrect_attempt'
p272
(lp273
(S'0:00:00'
p274
V11!/(3!8!)
p275
tp276
assVc3chung
p277
(dp278
g9
V2015-10-15 23:34:19
p279
sS'part1_incorrect_attempt'
p280
(lp281
(S'0:00:00'
p282
VC(15,1)C(5,3)C(14,2)C(5,2)
p283
tp284
assVjhc010
p285
(dp286
S'part1_correct_attempt'
p287
(lp288
S'0:00:19'
p289
aV10
p290
asg9
V2015-10-15 16:30:46
p291
sS'part1_incorrect_attempt'
p292
(lp293
(S'0:00:00'
p294
VC(6,3)
p295
tp296
assVcfgutier
p297
(dp298
S'part1_correct_attempt'
p299
(lp300
S'0:04:33'
p301
aV14
p302
asg9
V2015-10-15 22:50:45
p303
sS'part1_incorrect_attempt'
p304
(lp305
(S'0:00:00'
p306
V14!/11!/3!
p307
tp308
assVanl114
p309
(dp310
S'part1_correct_attempt'
p311
(lp312
S'0:00:26'
p313
aV12
p314
asg9
V2015-10-15 08:39:27
p315
sS'part1_incorrect_attempt'
p316
(lp317
(S'0:00:00'
p318
V12 * 6^3
p319
tp320
assVc1sorian
p321
(dp322
S'part1_correct_attempt'
p323
(lp324
S'0:00:13'
p325
aV12
p326
asg9
V2015-10-14 22:30:27
p327
sS'part1_incorrect_attempt'
p328
(lp329
(S'0:00:00'
p330
V12!/(3!9!)
p331
tp332
assVctgraves
p333
(dp334
S'part1_correct_attempt'
p335
(lp336
S'0:00:51'
p337
aV11
p338
asg9
V2015-10-15 05:06:04
p339
sS'part1_incorrect_attempt'
p340
(lp341
(S'0:00:00'
p342
V11!/(3!*8!)
p343
tp344
assVakhmelni
p345
(dp346
S'part1_correct_attempt'
p347
(lp348
S'0:02:23'
p349
aV12
p350
asg9
V2015-10-15 23:27:37
p351
sS'part1_incorrect_attempt'
p352
(lp353
(S'0:00:00'
p354
VC(12,2)
p355
tp356
a(S'0:00:46'
p357
V12*11
p358
tp359
assVkalang
p360
(dp361
S'part1_correct_attempt'
p362
(lp363
S'0:00:43'
p364
aV16
p365
asg9
V2015-10-15 23:23:43
p366
sS'part1_incorrect_attempt'
p367
(lp368
(S'0:00:00'
p369
V16-2
p370
tp371
a(S'0:00:29'
p372
V16-3
p373
tp374
assVmsaguiar
p375
(dp376
S'part1_correct_attempt'
p377
(lp378
S'0:00:51'
p379
aV12
p380
asg9
V2015-10-13 04:28:58
p381
sS'part1_incorrect_attempt'
p382
(lp383
(S'0:00:00'
p384
VC(12,3)
p385
tp386
assVvsosnovs
p387
(dp388
S'part1_correct_attempt'
p389
(lp390
S'0:46:00'
p391
aVC(14,1)
p392
asg9
V2015-10-15 06:02:03
p393
sS'part1_incorrect_attempt'
p394
(lp395
(S'0:00:00'
p396
VC(14,3)
p397
tp398
a(S'0:20:50'
p399
VC(6,1)
p400
tp401
a(S'0:21:56'
p402
VC(14,2)C(13,3)
p403
tp404
a(S'0:22:03'
p405
VC(14,2)*C(13,3)
p406
tp407
a(S'0:42:04'
p408
VC(14,1)C(6,3)
p409
tp410
a(S'0:43:51'
p411
VC(14,1)C(6,3)C(13,2)C(6,2)
p412
tp413
a(S'0:44:05'
p414
VC(14,1)C(6,3)C(13,1)C(6,2)
p415
tp416
a(S'0:45:28'
p417
VC(14,3)
p418
tp419
a(S'0:45:38'
p420
VC(14,3)C(6,1)
p421
tp422
assVaakumar
p423
(dp424
S'part1_correct_attempt'
p425
(lp426
S'0:00:48'
p427
aVC(13,1)
p428
asg9
V2015-10-11 03:04:26
p429
sS'part1_incorrect_attempt'
p430
(lp431
(S'0:00:00'
p432
V13*12
p433
tp434
a(S'0:00:00'
p435
VC(13,2)
p436
tp437
assVjhw015
p438
(dp439
S'part1_correct_attempt'
p440
(lp441
S'0:00:57'
p442
aV12
p443
asg9
V2015-10-15 03:11:16
p444
sS'part1_incorrect_attempt'
p445
(lp446
(S'0:00:00'
p447
VC(5,3)
p448
tp449
a(S'0:00:40'
p450
VC(5,3)
p451
tp452
a(S'0:00:40'
p453
VC(5,3)
p454
tp455
assVaggouw
p456
(dp457
g9
V2015-10-15 08:02:51
p458
sS'part1_incorrect_attempt'
p459
(lp460
(S'0:00:00'
p461
V(15)*(4!/3!)
p462
tp463
assVtcn013
p464
(dp465
S'part1_correct_attempt'
p466
(lp467
S'0:00:25'
p468
aV16
p469
asg9
V2015-10-15 04:27:33
p470
sS'part1_incorrect_attempt'
p471
(lp472
(S'0:00:00'
p473
VC(16,3)
p474
tp475
assVdtea
p476
(dp477
S'part1_correct_attempt'
p478
(lp479
S'0:00:12'
p480
aV14
p481
asg9
V2015-10-15 23:46:17
p482
sS'part1_incorrect_attempt'
p483
(lp484
(S'0:00:00'
p485
VC(14,3)
p486
tp487
assVtak068
p488
(dp489
S'part1_correct_attempt'
p490
(lp491
S'0:00:22'
p492
aVC(10,1)
p493
asg9
V2015-10-14 08:12:57
p494
sS'part1_incorrect_attempt'
p495
(lp496
(S'0:00:00'
p497
VC(10,1)C(6,3)
p498
tp499
assVajabasa
p500
(dp501
S'part1_correct_attempt'
p502
(lp503
S'0:00:41'
p504
aV13
p505
asg9
V2015-10-14 18:24:41
p506
sS'part1_incorrect_attempt'
p507
(lp508
(S'0:00:00'
p509
V13*12*11
p510
tp511
assVjel075
p512
(dp513
S'part1_correct_attempt'
p514
(lp515
S'0:04:54'
p516
aV12!/11!
p517
asg9
V2015-10-15 04:47:11
p518
sS'part1_incorrect_attempt'
p519
(lp520
(S'0:00:00'
p521
V12!/(7!*3!)
p522
tp523
a(S'0:00:14'
p524
V12!/(3!*9!)
p525
tp526
assVaysee
p527
(dp528
S'part1_correct_attempt'
p529
(lp530
S'0:01:16'
p531
aVC(13,1)
p532
asg9
V2015-10-13 23:20:52
p533
sS'part1_incorrect_attempt'
p534
(lp535
(S'0:00:00'
p536
VC(13,3)
p537
tp538
assVmcatozzi
p539
(dp540
S'part1_correct_attempt'
p541
(lp542
S'0:01:27'
p543
aVC(11,1)
p544
asg9
V2015-10-14 01:20:39
p545
sS'part1_incorrect_attempt'
p546
(lp547
(S'0:00:00'
p548
VC(55,3)
p549
tp550
assVasetters
p551
(dp552
S'part1_correct_attempt'
p553
(lp554
S'0:01:30'
p555
aV11
p556
asg9
V2015-10-12 06:51:21
p557
sS'part1_incorrect_attempt'
p558
(lp559
(S'0:00:00'
p560
VC(4,3)
p561
tp562
assVanvan
p563
(dp564
S'part1_correct_attempt'
p565
(lp566
S'1:21:01'
p567
aV14
p568
asg9
V2015-10-15 00:08:56
p569
sS'part1_incorrect_attempt'
p570
(lp571
(S'0:00:00'
p572
V13!(10!3!)
p573
tp574
a(S'0:00:10'
p575
V13!/(10!3!)
p576
tp577
assVsmohiman
p578
(dp579
S'part1_correct_attempt'
p580
(lp581
S'0:08:29'
p582
aVC(16,1)
p583
asg9
V2015-10-11 22:56:13
p584
sS'part1_incorrect_attempt'
p585
(lp586
(S'0:00:00'
p587
VC(96,5)*6^3
p588
tp589
a(S'0:01:29'
p590
VC(16,3)
p591
tp592
a(S'0:03:05'
p593
VC(6,3)*C(16,1)
p594
tp595
assVhmshah
p596
(dp597
S'part1_correct_attempt'
p598
(lp599
S'0:02:37'
p600
aVC(13,1)
p601
asg9
V2015-10-14 09:05:41
p602
sS'part1_incorrect_attempt'
p603
(lp604
(S'0:00:00'
p605
VC(13,2)
p606
tp607
a(S'0:00:28'
p608
VC(13,2)
p609
tp610
a(S'0:00:36'
p611
VC(13,2)
p612
tp613
a(S'0:00:44'
p614
VC(13,2)
p615
tp616
assVflhernan
p617
(dp618
S'part1_correct_attempt'
p619
(lp620
S'0:00:15'
p621
aVC(10,1)
p622
asg9
V2015-10-14 22:19:03
p623
sS'part1_incorrect_attempt'
p624
(lp625
(S'0:00:00'
p626
VC(10,3)
p627
tp628
assVa2ahmed
p629
(dp630
S'part1_correct_attempt'
p631
(lp632
S'0:00:34'
p633
aV15
p634
asg9
V2015-10-15 22:30:50
p635
sS'part1_incorrect_attempt'
p636
(lp637
(S'0:00:00'
p638
VC(14,3)
p639
tp640
a(S'0:00:23'
p641
VC(15,3)
p642
tp643
assVc1wei
p644
(dp645
S'part1_correct_attempt'
p646
(lp647
S'0:00:31'
p648
aV15
p649
asg9
V2015-10-14 21:02:01
p650
sS'part1_incorrect_attempt'
p651
(lp652
(S'0:00:00'
p653
V15*14
p654
tp655
assVazkong
p656
(dp657
S'part1_correct_attempt'
p658
(lp659
S'0:01:21'
p660
aVC(15, 1)
p661
asg9
V2015-10-15 18:22:31
p662
sS'part1_incorrect_attempt'
p663
(lp664
(S'0:00:00'
p665
VC(15, 3)
p666
tp667
assVmitopete
p668
(dp669
S'part1_correct_attempt'
p670
(lp671
S'17:48:58'
p672
aV11
p673
asg9
V2015-10-13 23:23:35
p674
sS'part1_incorrect_attempt'
p675
(lp676
(S'0:00:00'
p677
V11!/(3!8!)
p678
tp679
a(S'0:00:00'
p680
V11!/(3!8!)*2
p681
tp682
a(S'0:00:46'
p683
V11!/(3!8!)*10!/(2!8!)
p684
tp685
a(S'0:01:02'
p686
V11!/(3!8!)*(10!/(2!8!))
p687
tp688
a(S'0:01:15'
p689
V11!/(3!8!)+(10!/(2!8!))
p690
tp691
a(S'0:00:00'
p692
V11!/(3!8!)
p693
tp694
assVvasharma
p695
(dp696
S'part1_correct_attempt'
p697
(lp698
S'0:07:46'
p699
aV11
p700
asg9
V2015-10-11 06:42:25
p701
sS'part1_incorrect_attempt'
p702
(lp703
(S'0:00:00'
p704
VC(6,1)
p705
tp706
a(S'0:00:08'
p707
VC(6,1)C(6,1)C(6,1)
p708
tp709
a(S'0:02:29'
p710
V6^3
p711
tp712
a(S'0:03:14'
p713
VC(11,1)*3
p714
tp715
a(S'0:03:20'
p716
VC(11,3)
p717
tp718
a(S'0:04:25'
p719
VC(6,1)^3
p720
tp721
a(S'0:04:35'
p722
VC(6,1)
p723
tp724
a(S'0:04:53'
p725
VC(6,3)
p726
tp727
a(S'0:05:03'
p728
VC(6,3)
p729
tp730
a(S'0:05:24'
p731
VC(11,2)
p732
tp733
a(S'0:06:01'
p734
VC(11,2)
p735
tp736
a(S'0:06:27'
p737
VC(11,3)
p738
tp739
a(S'0:06:48'
p740
V11*C(11,3)
p741
tp742
a(S'0:07:02'
p743
VC(11,3)
p744
tp745
assVxweng
p746
(dp747
S'part1_correct_attempt'
p748
(lp749
S'0:00:18'
p750
aV16
p751
asg9
V2015-10-13 02:23:54
p752
sS'part1_incorrect_attempt'
p753
(lp754
(S'0:00:00'
p755
VC(16,1)C(4,3)
p756
tp757
assVyypan
p758
(dp759
S'part1_correct_attempt'
p760
(lp761
S'0:00:07'
p762
aVC(12,1)
p763
asg9
V2015-10-12 21:07:13
p764
sS'part1_incorrect_attempt'
p765
(lp766
(S'0:00:00'
p767
VC(13,1)
p768
tp769
assVajvanega
p770
(dp771
S'part1_correct_attempt'
p772
(lp773
S'0:00:09'
p774
aV16
p775
asg9
V2015-10-14 22:55:57
p776
sS'part1_incorrect_attempt'
p777
(lp778
(S'0:00:00'
p779
V16!/(13!3!)
p780
tp781
assVzig006
p782
(dp783
S'part1_correct_attempt'
p784
(lp785
S'0:01:29'
p786
aV16
p787
asg9
V2015-10-12 23:36:06
p788
sS'part1_incorrect_attempt'
p789
(lp790
(S'0:00:00'
p791
V5!(2!3!)
p792
tp793
a(S'0:00:51'
p794
V16!(3!13!)
p795
tp796
assVmjethani
p797
(dp798
S'part1_correct_attempt'
p799
(lp800
S'12:15:54'
p801
aV13
p802
asg9
V2015-10-15 02:44:50
p803
sS'part1_incorrect_attempt'
p804
(lp805
(S'0:00:00'
p806
V13!/((3!)(10!))
p807
tp808
assVk3tan
p809
(dp810
S'part1_correct_attempt'
p811
(lp812
S'0:00:44'
p813
aV15
p814
asg9
V2015-10-13 16:10:42
p815
sS'part1_incorrect_attempt'
p816
(lp817
(S'0:00:00'
p818
V(15*14)/2!
p819
tp820
a(S'0:00:15'
p821
V(15*14)/3!
p822
tp823
assVasp025
p824
(dp825
S'part1_correct_attempt'
p826
(lp827
S'0:03:24'
p828
aV15
p829
asg9
V2015-10-15 08:02:12
p830
sS'part1_incorrect_attempt'
p831
(lp832
(S'0:00:00'
p833
V15!/(3!(15-3)!)
p834
tp835
asssV3
p836
(dp837
Vh4tu
p838
(dp839
S'part3_correct_attempt'
p840
(lp841
S'0:01:12'
p842
aV6*5*4/3!
p843
asS'part3_incorrect_attempt'
p844
(lp845
(S'0:00:59'
p846
V4*3*2/3!
p847
tp848
asg9
V2015-10-15 09:39:52
p849
ssVhah008
p850
(dp851
S'part3_correct_attempt'
p852
(lp853
S'0:04:40'
p854
aVC(6, 3)
p855
asS'part3_incorrect_attempt'
p856
(lp857
(S'0:00:36'
p858
VC(6,5)
p859
tp860
asg9
V2015-10-15 09:18:30
p861
ssVhkhodada
p862
(dp863
S'part3_correct_attempt'
p864
(lp865
S'0:01:07'
p866
aVC(4,3)
p867
asS'part3_incorrect_attempt'
p868
(lp869
(S'-2 days, 22:39:22'
p870
VC(14,11)
p871
tp872
asg9
V2015-10-12 01:08:11
p873
ssVglcohen
p874
(dp875
S'part3_correct_attempt'
p876
(lp877
S'0:04:12'
p878
aV5!/(3!2!)
p879
asS'part3_incorrect_attempt'
p880
(lp881
(S'0:00:54'
p882
V5*5*5
p883
tp884
asg9
V2015-10-13 21:09:52
p885
ssVachava
p886
(dp887
S'part3_correct_attempt'
p888
(lp889
S'0:12:54'
p890
aVC(6,3)
p891
asS'part3_incorrect_attempt'
p892
(lp893
(S'0:04:44'
p894
VC(6,1)
p895
tp896
a(S'0:07:44'
p897
VC(6,3)^2
p898
tp899
a(S'0:07:51'
p900
VC(6,3)^4
p901
tp902
asg9
V2015-10-14 19:29:31
p903
ssVthk002
p904
(dp905
S'part3_correct_attempt'
p906
(lp907
S'0:00:43'
p908
aVC(6,3)
p909
asS'part3_incorrect_attempt'
p910
(lp911
(S'0:00:21'
p912
VC(6,5)
p913
tp914
asg9
V2015-10-12 04:16:16
p915
ssVbeyounge
p916
(dp917
S'part3_correct_attempt'
p918
(lp919
S'0:02:58'
p920
aVC(6,3)
p921
asS'part3_incorrect_attempt'
p922
(lp923
(S'0:00:00'
p924
V6*5*4
p925
tp926
asg9
V2015-10-09 06:19:14
p927
ssVb1green
p928
(dp929
S'part3_correct_attempt'
p930
(lp931
S'0:00:47'
p932
aVC(6,3)
p933
asS'part3_incorrect_attempt'
p934
(lp935
(S'0:00:30'
p936
VC(6,1)
p937
tp938
asg9
V2015-10-15 21:54:18
p939
ssVpsable
p940
(dp941
S'part3_correct_attempt'
p942
(lp943
S'0:14:50'
p944
aVC(6,3)
p945
asS'part3_incorrect_attempt'
p946
(lp947
(S'0:13:51'
p948
VC(6,1)
p949
tp950
asg9
V2015-10-15 23:40:51
p951
ssVj5phung
p952
(dp953
S'part3_correct_attempt'
p954
(lp955
S'0:03:20'
p956
aVC(5,3)
p957
asS'part3_incorrect_attempt'
p958
(lp959
(S'0:00:32'
p960
VC(5,1)
p961
tp962
asg9
V2015-10-09 19:13:22
p963
ssVrsmurlo
p964
(dp965
S'part3_correct_attempt'
p966
(lp967
S'3:28:20'
p968
aV20
p969
asS'part3_incorrect_attempt'
p970
(lp971
(S'0:02:46'
p972
V24/6
p973
tp974
asg9
V2015-10-15 00:00:11
p975
ssVaakumar
p976
(dp977
S'part3_correct_attempt'
p978
(lp979
S'1:34:35'
p980
aVC(5,3)
p981
asS'part3_incorrect_attempt'
p982
(lp983
(S'0:01:27'
p984
VC(5,1)
p985
tp986
a(S'0:01:58'
p987
V3*C(5,1)
p988
tp989
a(S'0:25:52'
p990
VC(5,3)+C(5,2)+C(5,1)
p991
tp992
asg9
V2015-10-11 03:05:14
p993
ssVtcuddy
p994
(dp995
S'part3_correct_attempt'
p996
(lp997
S'0:01:20'
p998
aV6!/(3!3!)
p999
asS'part3_incorrect_attempt'
p1000
(lp1001
(S'0:01:01'
p1002
V6!/(2!4!)
p1003
tp1004
asg9
V2015-10-10 20:25:50
p1005
ssVw4shin
p1006
(dp1007
S'part3_correct_attempt'
p1008
(lp1009
S'0:05:48'
p1010
aV5!/(3!2!)
p1011
asS'part3_incorrect_attempt'
p1012
(lp1013
(S'0:01:39'
p1014
V5^3-5
p1015
tp1016
asg9
V2015-10-15 00:16:10
p1017
ssVjguanzho
p1018
(dp1019
S'part3_correct_attempt'
p1020
(lp1021
S'0:02:40'
p1022
aV5!/(2!*3!)
p1023
asS'part3_incorrect_attempt'
p1024
(lp1025
(S'0:00:00'
p1026
V5!/(4!)
p1027
tp1028
asg9
V2015-10-09 21:05:51
p1029
ssVcsl030
p1030
(dp1031
S'part3_correct_attempt'
p1032
(lp1033
S'0:01:57'
p1034
aVC(6,3)
p1035
asS'part3_incorrect_attempt'
p1036
(lp1037
(S'0:00:00'
p1038
VC(6,1)
p1039
tp1040
asg9
V2015-10-14 03:39:49
p1041
ssVarc013
p1042
(dp1043
S'part3_correct_attempt'
p1044
(lp1045
S'0:00:55'
p1046
aVC(6, 3)
p1047
asS'part3_incorrect_attempt'
p1048
(lp1049
(S'0:00:28'
p1050
V6*5*4
p1051
tp1052
asg9
V2015-10-14 03:51:43
p1053
ssVazkong
p1054
(dp1055
S'part3_correct_attempt'
p1056
(lp1057
S'0:01:17'
p1058
aVC(5, 3)
p1059
asS'part3_incorrect_attempt'
p1060
(lp1061
(S'0:00:30'
p1062
VC(5, 1)
p1063
tp1064
a(S'0:00:49'
p1065
VC(5, 1)*C(5, 1)*C(5, 1)
p1066
tp1067
a(S'0:01:07'
p1068
VC(5, 1)
p1069
tp1070
asg9
V2015-10-15 18:23:52
p1071
ssVmitopete
p1072
(dp1073
S'part3_correct_attempt'
p1074
(lp1075
S'0:27:39'
p1076
aV4!/(3!(4-3)!)
p1077
asS'part3_incorrect_attempt'
p1078
(lp1079
(S'0:26:58'
p1080
V4!/(2!(4-2)!)
p1081
tp1082
asg9
V2015-10-14 17:12:33
p1083
ssVzig006
p1084
(dp1085
S'part3_correct_attempt'
p1086
(lp1087
S'0:00:17'
p1088
aV5!/(2!3!)
p1089
asS'part3_incorrect_attempt'
p1090
(lp1091
(S'0:00:00'
p1092
V5!(2!3!)
p1093
tp1094
asg9
V2015-10-12 23:37:35
p1095
ssVsghouse
p1096
(dp1097
S'part3_correct_attempt'
p1098
(lp1099
S'0:00:36'
p1100
aV5*4
p1101
asS'part3_incorrect_attempt'
p1102
(lp1103
(S'0:00:00'
p1104
V2*5*4
p1105
tp1106
asg9
V2015-10-12 20:20:13
p1107
ssVmjethani
p1108
(dp1109
S'part3_correct_attempt'
p1110
(lp1111
S'0:02:00'
p1112
aV6!/((3!)(3!))
p1113
asS'part3_incorrect_attempt'
p1114
(lp1115
(S'0:01:26'
p1116
V13!/((3!)(10!))
p1117
tp1118
asg9
V2015-10-15 15:00:44
p1119
ssVkgrozav
p1120
(dp1121
S'part3_correct_attempt'
p1122
(lp1123
S'0:01:07'
p1124
aVC(6,3)
p1125
asS'part3_incorrect_attempt'
p1126
(lp1127
(S'0:00:00'
p1128
VC(6,1)
p1129
tp1130
asg9
V2015-10-15 20:23:27
p1131
ssVjhp077
p1132
(dp1133
S'part3_correct_attempt'
p1134
(lp1135
S'0:01:42'
p1136
aVC(6,3)
p1137
asS'part3_incorrect_attempt'
p1138
(lp1139
(S'0:01:00'
p1140
V6*5*4
p1141
tp1142
asg9
V2015-10-15 06:40:54
p1143
sssV2
p1144
(dp1145
Vhmshah
p1146
(dp1147
S'part2_correct_attempt'
p1148
(lp1149
S'0:00:18'
p1150
aVC(12,1)
p1151
asS'part1_correct_attempt'
p1152
(lp1153
S'0:00:00'
p1154
ag601
asg9
V2015-10-14 09:08:18
p1155
sS'part2_incorrect_attempt'
p1156
(lp1157
(S'0:00:14'
p1158
VC(12,2)
p1159
tp1160
assVjel075
p1161
(dp1162
S'part2_correct_attempt'
p1163
(lp1164
S'0:00:09'
p1165
aV11!/10!
p1166
asS'part1_correct_attempt'
p1167
(lp1168
S'0:00:00'
p1169
ag517
asg9
V2015-10-15 04:52:05
p1170
sS'part2_incorrect_attempt'
p1171
(lp1172
(S'0:00:00'
p1173
V12!/11!
p1174
tp1175
assVdaw023
p1176
(dp1177
S'part2_correct_attempt'
p1178
(lp1179
S'0:01:27'
p1180
aVC(14,1)
p1181
asS'part1_correct_attempt'
p1182
(lp1183
S'0:00:00'
p1184
aVC(15,1)
p1185
asg9
V2015-10-15 06:10:02
p1186
sS'part2_incorrect_attempt'
p1187
(lp1188
(S'0:00:00'
p1189
VC(14,2)
p1190
tp1191
assVs2chaudh
p1192
(dp1193
S'part2_correct_attempt'
p1194
(lp1195
S'0:00:30'
p1196
aVC(13,1)
p1197
asS'part1_correct_attempt'
p1198
(lp1199
S'0:00:00'
p1200
aVC(14,1)
p1201
asg9
V2015-10-13 20:04:02
p1202
sS'part2_incorrect_attempt'
p1203
(lp1204
(S'0:00:00'
p1205
VC(11,1)
p1206
tp1207
assVjew037
p1208
(dp1209
S'part2_correct_attempt'
p1210
(lp1211
S'0:02:03'
p1212
aV10-1
p1213
asS'part1_correct_attempt'
p1214
(lp1215
S'0:00:00'
p1216
aV10
p1217
asg9
V2015-10-14 04:36:33
p1218
sS'part2_incorrect_attempt'
p1219
(lp1220
(S'0:00:00'
p1221
VC(10-1, 2)
p1222
tp1223
a(S'0:00:54'
p1224
V6^2
p1225
tp1226
assVtak068
p1227
(dp1228
S'part2_correct_attempt'
p1229
(lp1230
S'0:06:45'
p1231
aVC(9,1)
p1232
asS'part1_correct_attempt'
p1233
(lp1234
S'0:00:00'
p1235
ag493
asg9
V2015-10-14 08:13:19
p1236
sS'part2_incorrect_attempt'
p1237
(lp1238
(S'0:00:18'
p1239
VC(6,3)
p1240
tp1241
a(S'0:01:39'
p1242
VC(9,3)
p1243
tp1244
a(S'0:01:46'
p1245
VC(7,3)
p1246
tp1247
a(S'0:05:10'
p1248
VC(9,3)
p1249
tp1250
a(S'0:05:48'
p1251
VC(7,1)
p1252
tp1253
a(S'0:06:02'
p1254
VC(7,2)
p1255
tp1256
a(S'0:06:08'
p1257
VC(7,1)^2
p1258
tp1259
assVcprafull
p1260
(dp1261
S'part2_correct_attempt'
p1262
(lp1263
S'0:00:54'
p1264
aV13!/((1!)(12!))
p1265
asS'part1_correct_attempt'
p1266
(lp1267
S'0:00:00'
p1268
ag153
asg9
V2015-10-14 22:34:33
p1269
sS'part2_incorrect_attempt'
p1270
(lp1271
(S'0:00:19'
p1272
V6!/((3!)(3!))
p1273
tp1274
a(S'0:00:38'
p1275
V13!/((2!)(11!))
p1276
tp1277
assVvsosnovs
p1278
(dp1279
S'part2_correct_attempt'
p1280
(lp1281
S'0:03:29'
p1282
aVC(13,1)
p1283
asS'part1_correct_attempt'
p1284
(lp1285
S'0:00:00'
p1286
ag392
asg9
V2015-10-15 06:48:03
p1287
sS'part2_incorrect_attempt'
p1288
(lp1289
(S'0:00:32'
p1290
VC(6,3)
p1291
tp1292
a(S'0:00:48'
p1293
VC(14,1)C(6,3)
p1294
tp1295
a(S'0:02:46'
p1296
VC(6,2)
p1297
tp1298
a(S'0:02:51'
p1299
VC(6,3)
p1300
tp1301
assVetemlock
p1302
(dp1303
S'part2_correct_attempt'
p1304
(lp1305
S'0:00:06'
p1306
aVC(12,1)
p1307
asS'part1_correct_attempt'
p1308
(lp1309
S'0:00:00'
p1310
aVC(13,1)
p1311
asg9
V2015-10-11 01:44:52
p1312
sS'part2_incorrect_attempt'
p1313
(lp1314
(S'0:00:00'
p1315
VC(12,2)
p1316
tp1317
assVachava
p1318
(dp1319
S'part2_correct_attempt'
p1320
(lp1321
S'0:04:23'
p1322
aVC(9,1)
p1323
asS'part1_correct_attempt'
p1324
(lp1325
S'0:00:00'
p1326
ag105
asg9
g903
sS'part2_incorrect_attempt'
p1327
(lp1328
(S'0:00:24'
p1329
VC(10,1)
p1330
tp1331
assVt2li
p1332
(dp1333
S'part2_correct_attempt'
p1334
(lp1335
S'0:00:59'
p1336
aV13
p1337
asS'part1_correct_attempt'
p1338
(lp1339
S'0:00:00'
p1340
aV14
p1341
asg9
V2015-10-14 07:17:11
p1342
sS'part2_incorrect_attempt'
p1343
(lp1344
(S'0:00:36'
p1345
VC(13,2)
p1346
tp1347
asssV5
p1348
(dp1349
Vssamudra
p1350
(dp1351
S'part5_correct_attempt'
p1352
(lp1353
S'0:08:05'
p1354
aV(24 * 13* 12)
p1355
asS'part2_correct_attempt'
p1356
(lp1357
S'0:00:00'
p1358
aV12
p1359
asS'part5_incorrect_attempt'
p1360
(lp1361
(S'0:07:26'
p1362
V(144 * 13)
p1363
tp1364
asS'part4_correct_attempt'
p1365
(lp1366
S'0:07:26'
p1367
aV6
p1368
asS'part3_correct_attempt'
p1369
(lp1370
S'0:00:00'
p1371
aV4
p1372
asS'part1_correct_attempt'
p1373
(lp1374
S'0:00:00'
p1375
aV13
p1376
asg9
V2015-10-15 03:35:23
p1377
ssVmsaguiar
p1378
(dp1379
S'part5_correct_attempt'
p1380
(lp1381
S'0:05:07'
p1382
aV(12*C(6,3))*(11*C(6,2))
p1383
asS'part2_correct_attempt'
p1384
(lp1385
S'0:00:12'
p1386
aV11
p1387
asS'part5_incorrect_attempt'
p1388
(lp1389
(S'0:01:48'
p1390
VC(6,2)*C(6,3)
p1391
tp1392
asS'part4_correct_attempt'
p1393
(lp1394
S'0:01:15'
p1395
aVC(6,2)
p1396
asS'part3_correct_attempt'
p1397
(lp1398
S'0:01:02'
p1399
aVC(6,3)
p1400
asS'part1_correct_attempt'
p1401
(lp1402
S'0:00:00'
p1403
ag380
asg9
V2015-10-13 04:29:49
p1404
ssVlpettit
p1405
(dp1406
S'part5_correct_attempt'
p1407
(lp1408
S'0:09:43'
p1409
aV(16*15*100)
p1410
asS'part2_correct_attempt'
p1411
(lp1412
S'0:00:00'
p1413
aV15
p1414
asS'part5_incorrect_attempt'
p1415
(lp1416
(S'0:08:48'
p1417
V((16^15)*100)
p1418
tp1419
asS'part4_correct_attempt'
p1420
(lp1421
S'0:02:20'
p1422
aV5!/(3!*2!)
p1423
asS'part3_correct_attempt'
p1424
(lp1425
S'0:02:20'
p1426
aV5!/(3!*2!)
p1427
asS'part1_correct_attempt'
p1428
(lp1429
S'0:00:00'
p1430
aV16
p1431
asg9
V2015-10-14 21:23:40
p1432
ssVjhw015
p1433
(dp1434
S'part5_correct_attempt'
p1435
(lp1436
S'0:02:51'
p1437
aV12*11 * C(5,3) * C(5,2)
p1438
asS'part5_incorrect_attempt'
p1439
(lp1440
(S'0:01:23'
p1441
V12*11
p1442
tp1443
asS'part2_correct_attempt'
p1444
(lp1445
S'0:00:21'
p1446
aV11
p1447
asS'part1_correct_attempt'
p1448
(lp1449
S'0:00:00'
p1450
ag443
asg9
V2015-10-15 03:12:13
p1451
ssVnisharma
p1452
(dp1453
S'part5_correct_attempt'
p1454
(lp1455
S'0:02:55'
p1456
aVC(6,2)*C(6,3) * 16 *15
p1457
asS'part2_correct_attempt'
p1458
(lp1459
S'0:00:42'
p1460
aV15
p1461
asS'part5_incorrect_attempt'
p1462
(lp1463
(S'0:01:18'
p1464
VC(6,3) * 16 *15
p1465
tp1466
asS'part4_correct_attempt'
p1467
(lp1468
S'0:00:42'
p1469
aVC(6,2)
p1470
asS'part3_correct_attempt'
p1471
(lp1472
S'0:00:42'
p1473
aVC(6,3)
p1474
asS'part1_correct_attempt'
p1475
(lp1476
S'0:00:00'
p1477
aV16
p1478
asg9
V2015-10-14 18:22:29
p1479
ssVtcuddy
p1480
(dp1481
S'part5_correct_attempt'
p1482
(lp1483
S'0:02:34'
p1484
aV[ 15*16* ( 6!/(2!4!) ) * ( 6!/(3!3!) )]
p1485
asS'part2_correct_attempt'
p1486
(lp1487
S'0:00:40'
p1488
aV15
p1489
asS'part5_incorrect_attempt'
p1490
(lp1491
(S'0:01:20'
p1492
V6!/(2!4!)6!/(2!4!)6!/(3!3!)*15*16
p1493
tp1494
asS'part4_correct_attempt'
p1495
(lp1496
S'0:00:40'
p1497
aV6!/(2!4!)
p1498
asS'part3_correct_attempt'
p1499
(lp1500
S'0:01:20'
p1501
ag999
asS'part1_correct_attempt'
p1502
(lp1503
S'0:00:00'
p1504
aV16
p1505
asg9
g1005
ssVtak068
p1506
(dp1507
S'part5_correct_attempt'
p1508
(lp1509
S'0:07:15'
p1510
aVC(10,1)C(9,1)C(6,2)C(6,3)
p1511
asS'part2_correct_attempt'
p1512
(lp1513
S'0:06:45'
p1514
ag1232
asS'part5_incorrect_attempt'
p1515
(lp1516
(S'0:06:57'
p1517
VC(10,1)C(6,2)C(6,2)C(6,3)
p1518
tp1519
a(S'0:07:05'
p1520
VC(10,1)C(6,3)C(6,2)C(6,3)
p1521
tp1522
asS'part4_correct_attempt'
p1523
(lp1524
S'0:05:10'
p1525
aVC(6,2)
p1526
asS'part3_correct_attempt'
p1527
(lp1528
S'0:00:49'
p1529
aVC(6,3)
p1530
asS'part1_correct_attempt'
p1531
(lp1532
S'0:00:00'
p1533
ag493
asg9
g1236
ssVjnatale
p1534
(dp1535
S'part5_correct_attempt'
p1536
(lp1537
S'0:15:08'
p1538
aV12*11*4*6
p1539
asS'part2_correct_attempt'
p1540
(lp1541
S'0:00:14'
p1542
aV11
p1543
asS'part5_incorrect_attempt'
p1544
(lp1545
(S'0:14:50'
p1546
V12*11
p1547
tp1548
asS'part4_correct_attempt'
p1549
(lp1550
S'0:14:19'
p1551
aV6
p1552
asS'part3_correct_attempt'
p1553
(lp1554
S'0:00:21'
p1555
aV4
p1556
asS'part1_correct_attempt'
p1557
(lp1558
S'0:00:00'
p1559
aV12
p1560
asg9
V2015-10-13 04:15:56
p1561
ssVabjara
p1562
(dp1563
S'part5_correct_attempt'
p1564
(lp1565
S'0:01:36'
p1566
aV11*6*10*4
p1567
asS'part2_correct_attempt'
p1568
(lp1569
S'0:00:00'
p1570
aV10
p1571
asS'part5_incorrect_attempt'
p1572
(lp1573
(S'0:00:57'
p1574
V[4!/(3!)]*4!/(2!*2!)
p1575
tp1576
a(S'0:01:25'
p1577
V24*6*10*4
p1578
tp1579
asS'part4_correct_attempt'
p1580
(lp1581
S'0:00:00'
p1582
aV4!/(2!*2!)
p1583
asS'part3_correct_attempt'
p1584
(lp1585
S'0:00:00'
p1586
aV4!/(3!)
p1587
asS'part1_correct_attempt'
p1588
(lp1589
S'0:00:00'
p1590
aV11
p1591
asg9
V2015-10-14 23:06:38
p1592
ssVytc012
p1593
(dp1594
S'part5_correct_attempt'
p1595
(lp1596
S'0:02:00'
p1597
aV15*14*6!6!/(3!3!2!4!)
p1598
asS'part2_correct_attempt'
p1599
(lp1600
S'0:00:15'
p1601
aV14
p1602
asS'part5_incorrect_attempt'
p1603
(lp1604
(S'0:01:46'
p1605
V6!6!/(3!3!2!4!)
p1606
tp1607
asS'part4_correct_attempt'
p1608
(lp1609
S'0:01:24'
p1610
aV6!/(2!4!)
p1611
asS'part3_correct_attempt'
p1612
(lp1613
S'0:00:48'
p1614
aV6!/(3!3!)
p1615
asS'part1_correct_attempt'
p1616
(lp1617
S'0:00:00'
p1618
aV15
p1619
asg9
V2015-10-15 10:58:28
p1620
ssVe9brown
p1621
(dp1622
S'part5_correct_attempt'
p1623
(lp1624
S'0:01:44'
p1625
aV15*16*C(6,2)*C(6,3)
p1626
asS'part2_correct_attempt'
p1627
(lp1628
S'0:00:00'
p1629
aV15
p1630
asS'part5_incorrect_attempt'
p1631
(lp1632
(S'0:01:28'
p1633
VC(6,2)*C(6,3)
p1634
tp1635
asS'part4_correct_attempt'
p1636
(lp1637
S'0:01:00'
p1638
aVC(6,2)
p1639
asS'part3_correct_attempt'
p1640
(lp1641
S'0:00:46'
p1642
aVC(6,3)
p1643
asS'part1_correct_attempt'
p1644
(lp1645
S'0:00:00'
p1646
aV16 
p1647
asg9
V2015-10-14 11:24:35
p1648
sssV4
p1649
(dp1650
Vjag028
p1651
(dp1652
S'part4_correct_attempt'
p1653
(lp1654
S'0:04:33'
p1655
aVC(4,2)
p1656
asS'part4_incorrect_attempt'
p1657
(lp1658
(S'-1 day, 16:59:01'
p1659
VC(12,1)C(4,2)
p1660
tp1661
asg9
V2015-10-15 21:15:39
p1662
ssVglcohen
p1663
(dp1664
S'part4_correct_attempt'
p1665
(lp1666
S'0:04:12'
p1667
aV5!/(3!2!)
p1668
asS'part4_incorrect_attempt'
p1669
(lp1670
(S'0:00:54'
p1671
V4*4
p1672
tp1673
asg9
g885
ssVabasu
p1674
(dp1675
S'part4_correct_attempt'
p1676
(lp1677
S'1:35:22'
p1678
aVC(4,2)
p1679
asS'part4_incorrect_attempt'
p1680
(lp1681
(S'0:01:10'
p1682
VC(3,1)
p1683
tp1684
asg9
V2015-10-11 03:04:59
p1685
ssVk5law
p1686
(dp1687
S'part4_correct_attempt'
p1688
(lp1689
S'0:02:54'
p1690
aV5!/(2!3!)
p1691
asS'part4_incorrect_attempt'
p1692
(lp1693
(S'0:02:31'
p1694
V4!/(2!3!)
p1695
tp1696
asg9
V2015-10-13 05:00:58
p1697
ssVbeyounge
p1698
(dp1699
S'part4_correct_attempt'
p1700
(lp1701
S'0:03:09'
p1702
aVC(6,2)
p1703
asS'part4_incorrect_attempt'
p1704
(lp1705
(S'0:00:00'
p1706
V6*5*4
p1707
tp1708
asg9
g927
ssVb1green
p1709
(dp1710
S'part4_correct_attempt'
p1711
(lp1712
S'0:01:07'
p1713
aVC(6,2)
p1714
asS'part4_incorrect_attempt'
p1715
(lp1716
(S'0:00:30'
p1717
VC(5,1)
p1718
tp1719
asg9
g939
ssVmbl003
p1720
(dp1721
S'part4_correct_attempt'
p1722
(lp1723
S'0:03:24'
p1724
aVC(4,2)
p1725
asS'part4_incorrect_attempt'
p1726
(lp1727
(S'0:00:47'
p1728
VC(4,1)
p1729
tp1730
a(S'0:00:54'
p1731
VC(3,1)
p1732
tp1733
a(S'0:03:17'
p1734
VC(4,3)
p1735
tp1736
asg9
V2015-10-15 07:34:53
p1737
ssVpsable
p1738
(dp1739
S'part4_correct_attempt'
p1740
(lp1741
S'0:14:57'
p1742
aVC(6,2)
p1743
asS'part4_incorrect_attempt'
p1744
(lp1745
(S'0:14:42'
p1746
VC(6,1)
p1747
tp1748
asg9
g951
ssVj5phung
p1749
(dp1750
S'part4_correct_attempt'
p1751
(lp1752
S'0:03:40'
p1753
aVC(5,2)
p1754
asS'part4_incorrect_attempt'
p1755
(lp1756
(S'0:00:32'
p1757
VC(4,1)
p1758
tp1759
asg9
g963
ssVp4kumar
p1760
(dp1761
S'part4_correct_attempt'
p1762
(lp1763
S'0:18:00'
p1764
aVC(4, 2)
p1765
asS'part4_incorrect_attempt'
p1766
(lp1767
(S'0:17:55'
p1768
VC(4, 3)
p1769
tp1770
asg9
V2015-10-15 10:31:31
p1771
ssVjmiclat
p1772
(dp1773
S'part4_correct_attempt'
p1774
(lp1775
S'0:00:52'
p1776
aV6!/(2!4!)
p1777
asS'part4_incorrect_attempt'
p1778
(lp1779
(S'0:00:45'
p1780
V6!(2!4!)
p1781
tp1782
asg9
V2015-10-15 19:06:41
p1783
ssVrsmurlo
p1784
(dp1785
S'part4_correct_attempt'
p1786
(lp1787
S'3:32:27'
p1788
aV6!/(4!2!)
p1789
asS'part4_incorrect_attempt'
p1790
(lp1791
(S'3:31:15'
p1792
V4!/(2!2!)
p1793
tp1794
asg9
g975
ssVjnatale
p1795
(dp1796
S'part4_correct_attempt'
p1797
(lp1798
S'0:14:19'
p1799
ag1552
asS'part4_incorrect_attempt'
p1800
(lp1801
(S'0:02:02'
p1802
VC(4,1)
p1803
tp1804
a(S'0:02:09'
p1805
VC(3,1)
p1806
tp1807
asg9
g1561
ssVjap009
p1808
(dp1809
S'part4_correct_attempt'
p1810
(lp1811
S'0:00:59'
p1812
aV6!/(2!4!)
p1813
asS'part4_incorrect_attempt'
p1814
(lp1815
(S'0:00:33'
p1816
V4!/(2!2!)
p1817
tp1818
asg9
V2015-10-15 22:32:01
p1819
ssVmuy002
p1820
(dp1821
S'part4_correct_attempt'
p1822
(lp1823
S'0:00:12'
p1824
aV4!/(2!2!)
p1825
asS'part4_incorrect_attempt'
p1826
(lp1827
(S'0:00:00'
p1828
V4!(2!2!)
p1829
tp1830
asg9
V2015-10-14 21:55:38
p1831
ssVtcuddy
p1832
(dp1833
S'part4_correct_attempt'
p1834
(lp1835
S'0:00:40'
p1836
ag1498
asS'part4_incorrect_attempt'
p1837
(lp1838
(S'0:00:00'
p1839
V4!/4
p1840
tp1841
asg9
g1005
ssVaysee
p1842
(dp1843
S'part4_correct_attempt'
p1844
(lp1845
S'0:00:00'
p1846
aVC(5,2)
p1847
asS'part4_incorrect_attempt'
p1848
(lp1849
(S'-1 day, 23:58:44'
p1850
VC(2,2)
p1851
tp1852
asg9
V2015-10-13 23:22:08
p1853
ssVw4shin
p1854
(dp1855
S'part4_correct_attempt'
p1856
(lp1857
S'0:05:58'
p1858
aV5!/(3!2!)
p1859
asS'part4_incorrect_attempt'
p1860
(lp1861
(S'0:01:39'
p1862
V5^2-5
p1863
tp1864
a(S'0:05:48'
p1865
V5!(3!2!)
p1866
tp1867
asg9
g1017
ssVanvan
p1868
(dp1869
S'part4_correct_attempt'
p1870
(lp1871
S'1:36:59'
p1872
aV5!/(2!3!)
p1873
asS'part4_incorrect_attempt'
p1874
(lp1875
(S'1:36:44'
p1876
V5!(2!3!)
p1877
tp1878
asg9
V2015-10-15 01:29:57
p1879
ssVhmshah
p1880
(dp1881
S'part4_correct_attempt'
p1882
(lp1883
S'0:01:58'
p1884
aVC(4,2)
p1885
asS'part4_incorrect_attempt'
p1886
(lp1887
(S'0:01:36'
p1888
VC(3,1)
p1889
tp1890
asg9
g1155
ssVflhernan
p1891
(dp1892
S'part4_correct_attempt'
p1893
(lp1894
S'0:03:15'
p1895
aVC(4,2)
p1896
asS'part4_incorrect_attempt'
p1897
(lp1898
(S'0:02:01'
p1899
VC(3,1)
p1900
tp1901
a(S'0:02:28'
p1902
VC(4,1)
p1903
tp1904
asg9
V2015-10-14 22:19:18
p1905
ssVcstringh
p1906
(dp1907
S'part4_correct_attempt'
p1908
(lp1909
S'0:04:24'
p1910
aV10
p1911
asS'part4_incorrect_attempt'
p1912
(lp1913
(S'0:04:06'
p1914
V2^5
p1915
tp1916
asg9
V2015-10-14 00:44:45
p1917
ssVcsl030
p1918
(dp1919
S'part4_correct_attempt'
p1920
(lp1921
S'0:01:57'
p1922
aVC(6,2)
p1923
asS'part4_incorrect_attempt'
p1924
(lp1925
(S'0:00:00'
p1926
VC(6,1)
p1927
tp1928
asg9
g1041
ssVazkong
p1929
(dp1930
S'part4_correct_attempt'
p1931
(lp1932
S'0:01:47'
p1933
aVC(5, 2)
p1934
asS'part4_incorrect_attempt'
p1935
(lp1936
(S'0:00:30'
p1937
VC(4, 1)
p1938
tp1939
a(S'0:00:49'
p1940
VC(4, 1)*C(4,1)
p1941
tp1942
asg9
g1071
ssVjguanzho
p1943
(dp1944
S'part4_correct_attempt'
p1945
(lp1946
S'0:02:40'
p1947
aV5!/(2!*3!)
p1948
asS'part4_incorrect_attempt'
p1949
(lp1950
(S'0:00:00'
p1951
V5!/(3!)
p1952
tp1953
asg9
g1029
ssVytc012
p1954
(dp1955
S'part4_correct_attempt'
p1956
(lp1957
S'0:01:24'
p1958
ag1611
asS'part4_incorrect_attempt'
p1959
(lp1960
(S'0:01:10'
p1961
V5!(2!3!)
p1962
tp1963
a(S'0:01:20'
p1964
V6!(2!4!)
p1965
tp1966
asg9
g1620
ssVmtrafeca
p1967
(dp1968
S'part4_correct_attempt'
p1969
(lp1970
S'0:00:32'
p1971
aV4!/(2!*2!)
p1972
asS'part4_incorrect_attempt'
p1973
(lp1974
(S'0:00:25'
p1975
V4!(2!*2!)
p1976
tp1977
asg9
V2015-10-11 21:55:13
p1978
ssVkgrozav
p1979
(dp1980
S'part4_correct_attempt'
p1981
(lp1982
S'0:02:31'
p1983
aVC(6,2)
p1984
asS'part4_incorrect_attempt'
p1985
(lp1986
(S'0:00:00'
p1987
VC(5,1)
p1988
tp1989
asg9
g1131
sssV6
p1990
(dp1991
Vkquong
p1992
(dp1993
S'part5_correct_attempt'
p1994
(lp1995
S'0:00:35'
p1996
aV14 * 13 * 5!/(3!(5-3)!) * 5!/(2!(5-2)!)
p1997
asS'part6_incorrect_attempt'
p1998
(lp1999
(S'0:00:35'
p2000
V(14 * 13 * 5!/(3!(5-3)!) * 5!/(2!(5-2)!))/ 70!/(5(70-5)!)
p2001
tp2002
a(S'0:00:45'
p2003
V(14 * 13 * 5!/(3!(5-3)!) * 5!/(2!(5-2)!))/ 70!/(5!*(70-5)!)
p2004
tp2005
asS'part2_correct_attempt'
p2006
(lp2007
S'0:00:00'
p2008
aV13
p2009
asS'part6_correct_attempt'
p2010
(lp2011
S'0:01:26'
p2012
aV(14 * 13 * 5!/(3!(5-3)!) * 5!/(2!(5-2)!))/(70!/(5!*(70-5)!))
p2013
asS'part4_correct_attempt'
p2014
(lp2015
S'0:00:00'
p2016
aV5!/(2!(5-2)!)
p2017
asS'part3_correct_attempt'
p2018
(lp2019
S'0:00:00'
p2020
aV5!/(3!(5-3)!)
p2021
asS'part1_correct_attempt'
p2022
(lp2023
S'0:00:00'
p2024
aV14
p2025
asg9
V2015-10-11 05:44:02
p2026
ssVp4kumar
p2027
(dp2028
S'part5_correct_attempt'
p2029
(lp2030
S'0:18:55'
p2031
aVC(15, 1) * C(14, 1) * C(4, 3) * C(4, 2)
p2032
asS'part6_incorrect_attempt'
p2033
(lp2034
(S'0:18:55'
p2035
VC(15, 1) * C(14, 1) * C(4, 3) * C(4, 2)
p2036
tp2037
asS'part2_correct_attempt'
p2038
(lp2039
S'0:00:07'
p2040
aV14
p2041
asS'part6_correct_attempt'
p2042
(lp2043
S'0:19:08'
p2044
aVC(15, 1) * C(14, 1) * C(4, 3) * C(4, 2)/C(4 * 15, 5)
p2045
asS'part4_correct_attempt'
p2046
(lp2047
S'0:18:00'
p2048
ag1765
asS'part3_correct_attempt'
p2049
(lp2050
S'0:00:16'
p2051
aV4
p2052
asS'part1_correct_attempt'
p2053
(lp2054
S'0:00:00'
p2055
ag240
asg9
g1771
ssVlywong
p2056
(dp2057
S'part5_correct_attempt'
p2058
(lp2059
S'7:44:13'
p2060
aV33000
p2061
asS'part6_incorrect_attempt'
p2062
(lp2063
(S'7:46:03'
p2064
V52!/47!
p2065
tp2066
asS'part2_correct_attempt'
p2067
(lp2068
S'7:41:44'
p2069
aV10
p2070
asS'part6_correct_attempt'
p2071
(lp2072
S'7:46:36'
p2073
aV33000/(66!/(5!61!))
p2074
asS'part4_correct_attempt'
p2075
(lp2076
S'7:43:00'
p2077
aV6!/(2!(4!))
p2078
asS'part3_correct_attempt'
p2079
(lp2080
S'7:42:33'
p2081
aV6!/((3!(3!)))
p2082
asS'part1_correct_attempt'
p2083
(lp2084
S'0:00:00'
p2085
ag60
asg9
V2015-10-13 00:56:44
p2086
ssVaurodrig
p2087
(dp2088
S'part5_correct_attempt'
p2089
(lp2090
S'0:04:28'
p2091
aV12*11*4*6
p2092
asS'part6_incorrect_attempt'
p2093
(lp2094
(S'0:04:42'
p2095
V12*11*4*6
p2096
tp2097
asS'part2_correct_attempt'
p2098
(lp2099
S'0:01:23'
p2100
aV11
p2101
asS'part6_correct_attempt'
p2102
(lp2103
S'0:05:32'
p2104
aV12*11*4*6/[48!/(5!43!)]
p2105
asS'part4_correct_attempt'
p2106
(lp2107
S'0:03:02'
p2108
aV4!/(2!(4-2)!)
p2109
asS'part3_correct_attempt'
p2110
(lp2111
S'0:02:23'
p2112
aV4!/(3!(4-3)!)
p2113
asS'part1_correct_attempt'
p2114
(lp2115
S'0:00:00'
p2116
aV12
p2117
asg9
V2015-10-15 21:31:50
p2118
ssVq3wen
p2119
(dp2120
S'part5_correct_attempt'
p2121
(lp2122
S'0:00:00'
p2123
aV27000
p2124
asS'part6_incorrect_attempt'
p2125
(lp2126
(S'0:00:00'
p2127
V0.0049
p2128
tp2129
asS'part2_correct_attempt'
p2130
(lp2131
S'0:00:00'
p2132
aV9
p2133
asS'part6_correct_attempt'
p2134
(lp2135
S'0:01:35'
p2136
aV27000/5461512
p2137
asS'part4_correct_attempt'
p2138
(lp2139
S'-1 day, 23:58:55'
p2140
aV15
p2141
asS'part3_correct_attempt'
p2142
(lp2143
S'-1 day, 23:58:55'
p2144
aV20
p2145
asS'part1_correct_attempt'
p2146
(lp2147
S'0:00:00'
p2148
aV10
p2149
asg9
V2015-10-14 05:17:37
p2150
ssVmnrahman
p2151
(dp2152
S'part5_correct_attempt'
p2153
(lp2154
S'0:00:53'
p2155
aV16*(16-1)C(5,3)C(5,2)
p2156
asS'part6_incorrect_attempt'
p2157
(lp2158
(S'0:01:34'
p2159
V(916*(16-1)C(5,3)C(5,2))/(C(60,5))
p2160
tp2161
asS'part2_correct_attempt'
p2162
(lp2163
S'0:00:00'
p2164
aV15
p2165
asS'part6_correct_attempt'
p2166
(lp2167
S'0:02:46'
p2168
aV(16*(16-1)C(5,3)C(5,2))/(C(80,5))
p2169
asS'part4_correct_attempt'
p2170
(lp2171
S'0:00:19'
p2172
aVC(5,2)
p2173
asS'part3_correct_attempt'
p2174
(lp2175
S'-1 day, 23:59:18'
p2176
aVC(5,3)
p2177
asS'part1_correct_attempt'
p2178
(lp2179
S'0:00:00'
p2180
aV16
p2181
asg9
V2015-10-15 07:04:17
p2182
ssVkrau
p2183
(dp2184
S'part5_correct_attempt'
p2185
(lp2186
S'0:01:19'
p2187
aV16*15*4*6
p2188
asS'part6_incorrect_attempt'
p2189
(lp2190
(S'0:01:19'
p2191
V16*15*4*6/64!/59!/5!
p2192
tp2193
asS'part2_correct_attempt'
p2194
(lp2195
S'0:00:31'
p2196
aV15
p2197
asS'part6_correct_attempt'
p2198
(lp2199
S'0:01:32'
p2200
aV16*15*4*6/(64!/59!/5!)
p2201
asS'part4_correct_attempt'
p2202
(lp2203
S'0:01:19'
p2204
aV6
p2205
asS'part3_correct_attempt'
p2206
(lp2207
S'0:01:19'
p2208
aV4
p2209
asS'part1_correct_attempt'
p2210
(lp2211
S'0:00:00'
p2212
aV16
p2213
asg9
V2015-10-14 04:28:38
p2214
ssVmjethani
p2215
(dp2216
S'part5_correct_attempt'
p2217
(lp2218
S'0:03:05'
p2219
aV(13*12)(6!/((3!)(3!)))(6!/((2!)(4!)))
p2220
asS'part6_incorrect_attempt'
p2221
(lp2222
(S'0:05:05'
p2223
V(13*12)(6!/((3!)(3!)))(6!/((2!)(4!)))/78
p2224
tp2225
asS'part2_correct_attempt'
p2226
(lp2227
S'0:01:06'
p2228
aV12
p2229
asS'part6_correct_attempt'
p2230
(lp2231
S'0:09:22'
p2232
aV((13*12)(6!/((3!)(3!)))(6!/((2!)(4!))))/((78!)/((5!)(73!)))
p2233
asS'part4_correct_attempt'
p2234
(lp2235
S'0:02:34'
p2236
aV6!/((2!)(4!))
p2237
asS'part3_correct_attempt'
p2238
(lp2239
S'0:02:00'
p2240
ag1113
asS'part1_correct_attempt'
p2241
(lp2242
S'0:00:00'
p2243
ag802
asg9
g1119
sss.