(dp0
V1
p1
ccollections
defaultdict
p2
(c__builtin__
list
p3
tp4
Rp5
S'Digits'
p6
(lp7
(VC(44,5)
p8
V195312500
p9
tp10
a(g8
V1953125108600800
p11
tp12
a(VC(60,5)
p13
V792
p14
tp15
a(VC(72,5)
p16
V72
p17
tp18
a(VC(40,5)
p19
V2598960
p20
tp21
a(VC(78,5)
p22
V5
p23
tp24
a(g22
V23856384552
p25
tp26
a(VC(80,5)
p27
V16
p28
tp29
a(VC(65,5)
p30
V991186560
p31
tp32
a(VC(60,5)
p33
V12
p34
tp35
a(g33
V60
p36
tp37
a(VC(66,5)
p38
V66
p39
tp40
a(g38
V462
p41
tp42
a(g38
V2598960
p43
tp44
a(VC(65,5)
p45
V290345392512
p46
tp47
a(VC(44,5)
p48
V44
p49
tp50
a(VC(56,5)
p51
V2598960
p52
tp53
a(VC(75,5)
p54
V360360
p55
tp56
a(VC(60,5)
p57
V60
p58
tp59
a(VC(96,5)
p60
V2598960
p61
tp62
a(VC(44,5)
p63
V44
p64
tp65
a(VC(60,5)
p66
V3,838,380
p67
tp68
a(g66
V3838380
p69
tp70
a(VC(56,5)
p71
V367290
p72
tp73
a(VC(48,5)
p74
V48
p75
tp76
a(VC(60,5)
p77
V3003
p78
tp79
asS"['R.1']"
p80
(lp81
(VC(78,5)
p82
VC(52,5)
p83
(lp84
(S'R.1'
p85
F5.0
V5
p86
g86
tp87
aVvsamant
p88
(lp89
(V$n
p90
V78
p91
tp92
a(V$ns
p93
V6
p94
tp95
a(V$nr
p96
V13
p97
tp98
a(V$n
p99
V78
p100
tp101
a(V$ns
p102
V6
p103
tp104
a(V$nr
p105
V13
p106
tp107
aV2015-10-10 17:03:54
p108
tp109
a(VC(64,5)
p110
VC(16,5)
p111
(lp112
(S'R.1'
p113
F5.0
g86
g86
tp114
aVffhaddad
p115
(lp116
(V$n
p117
V64
p118
tp119
a(V$ns
p120
V4
p121
tp122
a(V$nr
p123
V16
p124
tp125
a(V$n
p126
V64
p127
tp128
a(V$ns
p129
V4
p130
tp131
a(V$nr
p132
V16
p133
tp134
aV2015-10-10 21:12:40
p135
tp136
a(VC(78,5)
p137
VC(65,5)
p138
(lp139
(S'R.1'
p140
F5.0
g86
g86
tp141
aVetemlock
p142
(lp143
(V$n
p144
V78
p145
tp146
a(V$ns
p147
V6
p148
tp149
a(V$nr
p150
V13
p151
tp152
a(V$n
p153
V78
p154
tp155
a(V$ns
p156
V6
p157
tp158
a(V$nr
p159
V13
p160
tp161
aV2015-10-11 01:19:35
p162
tp163
a(VC(70,5)
p164
V14^5 *5
p165
(lp166
(S'R.1'
p167
F5.0
g86
g86
tp168
aVkquong
p169
(lp170
(V$n
p171
V70
p172
tp173
a(V$ns
p174
V5
p175
tp176
a(V$nr
p177
V14
p178
tp179
a(V$n
p180
V70
p181
tp182
a(V$ns
p183
V5
p184
tp185
a(V$nr
p186
V14
p187
tp188
aV2015-10-11 05:02:10
p189
tp190
a(g164
V14!/(5! *(14-5)!) * 5
p191
(lp192
(S'R.1'
p193
F5.0
g86
g86
tp194
aVkquong
p195
g170
V2015-10-11 05:02:51
p196
tp197
a(VC(75,5)
p198
VC(15, 5)
p199
(lp200
(S'R.1'
p201
F5.0
g86
g86
tp202
aVcstringh
p203
(lp204
(V$n
p205
V75
p206
tp207
a(V$ns
p208
V5
p209
tp210
a(V$nr
p211
V15
p212
tp213
a(V$n
p214
V75
p215
tp216
a(V$ns
p217
V5
p218
tp219
a(V$nr
p220
V15
p221
tp222
aV2015-10-12 22:36:19
p223
tp224
a(g198
V15^5
p225
(lp226
(S'R.1'
p227
F5.0
g86
g86
tp228
aVcstringh
p229
g204
V2015-10-12 22:37:25
p230
tp231
a(g198
VC(60, 5)
p232
(lp233
(S'R.1'
p234
F5.0
g86
g86
tp235
aVcstringh
p236
g204
V2015-10-12 22:38:19
p237
tp238
a(g198
VC(52, 5)
p239
(lp240
(S'R.1'
p241
F5.0
g86
g86
tp242
aVcstringh
p243
g204
V2015-10-12 22:40:33
p244
tp245
a(g198
VC(60, 5)
p246
(lp247
(S'R.1'
p248
F5.0
g86
g86
tp249
aVcstringh
p250
g204
V2015-10-12 22:41:14
p251
tp252
a(g198
VC(13, 5)
p253
(lp254
(S'R.1'
p255
F5.0
g86
g86
tp256
aVcstringh
p257
g204
V2015-10-12 23:03:07
p258
tp259
a(g198
VC(15, 5)
p260
(lp261
(S'R.1'
p262
F5.0
g86
g86
tp263
aVcstringh
p264
g204
V2015-10-12 23:03:18
p265
tp266
a(VC(48,5)
p267
VC(52,5)
p268
(lp269
(S'R.1'
p270
F5.0
g86
g86
tp271
aVjnatale
p272
(lp273
(V$n
p274
V48
p275
tp276
a(V$ns
p277
V4
p278
tp279
a(V$nr
p280
V12
p281
tp282
a(V$n
p283
V48
p284
tp285
a(V$ns
p286
V4
p287
tp288
a(V$nr
p289
V12
p290
tp291
aV2015-10-13 01:34:24
p292
tp293
a(VC(60,5)
p294
VC(52, 5)
p295
(lp296
(S'R.1'
p297
F5.0
g86
g86
tp298
aVhah008
p299
(lp300
(V$n
p301
V60
p302
tp303
a(V$ns
p304
V6
p305
tp306
a(V$nr
p307
V10
p308
tp309
a(V$n
p310
V60
p311
tp312
a(V$ns
p313
V6
p314
tp315
a(V$nr
p316
V10
p317
tp318
aV2015-10-13 06:35:17
p319
tp320
a(VC(90,5)
p321
VC(21,5)
p322
(lp323
(S'R.1'
p324
F5.0
g86
g86
tp325
aVasp025
p326
(lp327
(V$n
p328
V90
p329
tp330
a(V$ns
p331
V6
p332
tp333
a(V$nr
p334
V15
p335
tp336
a(V$n
p337
V90
p338
tp339
a(V$ns
p340
V6
p341
tp342
a(V$nr
p343
V15
p344
tp345
aV2015-10-13 06:57:28
p346
tp347
a(g33
V13*5
p348
(lp349
(S'R.1'
p350
F5.0
g86
g86
tp351
aVachava
p352
(lp353
(V$n
p354
V60
p355
tp356
a(V$ns
p357
V6
p358
tp359
a(V$nr
p360
V10
p361
tp362
a(V$n
p363
V60
p364
tp365
a(V$ns
p366
V6
p367
tp368
a(V$nr
p369
V10
p370
tp371
aV2015-10-13 07:20:09
p372
tp373
a(g33
VC(52, 5)
p374
(lp375
(S'R.1'
p376
F5.0
g86
g86
tp377
aVachava
p378
g353
V2015-10-13 08:02:58
p379
tp380
a(VC(72,5)
p381
VC(52,5)
p382
(lp383
(S'R.1'
p384
F5.0
g86
g86
tp385
aVdwzhang
p386
(lp387
(V$n
p388
V72
p389
tp390
a(V$ns
p391
V6
p392
tp393
a(V$nr
p394
V12
p395
tp396
a(V$n
p397
V72
p398
tp399
a(V$ns
p400
V6
p401
tp402
a(V$nr
p403
V12
p404
tp405
aV2015-10-13 22:14:01
p406
tp407
a(VC(55,5)
p408
VC(11,5)
p409
(lp410
(S'R.1'
p411
F5.0
g86
g86
tp412
aVmcatozzi
p413
(lp414
(V$n
p415
V55
p416
tp417
a(V$ns
p418
V5
p419
tp420
a(V$nr
p421
V11
p422
tp423
a(V$n
p424
V55
p425
tp426
a(V$ns
p427
V5
p428
tp429
a(V$nr
p430
V11
p431
tp432
aV2015-10-14 00:40:31
p433
tp434
a(g408
VC(52,5)
p435
(lp436
(S'R.1'
p437
F5.0
g86
g86
tp438
aVmcatozzi
p439
g414
V2015-10-14 00:40:43
p440
tp441
a(VC(90,5)
p442
VC(52,5)
p443
(lp444
(S'R.1'
p445
F5.0
g86
g86
tp446
aVmroknich
p447
(lp448
(V$n
p449
V90
p450
tp451
a(V$ns
p452
V6
p453
tp454
a(V$nr
p455
V15
p456
tp457
a(V$n
p458
V90
p459
tp460
a(V$ns
p461
V6
p462
tp463
a(V$nr
p464
V15
p465
tp466
aV2015-10-14 01:01:39
p467
tp468
a(VC(60,5)
p469
VC(6,5)
p470
(lp471
(S'R.1'
p472
F5.0
g86
g86
tp473
aVjew037
p474
(lp475
(V$n
p476
V60
p477
tp478
a(V$ns
p479
V6
p480
tp481
a(V$nr
p482
V10
p483
tp484
a(V$n
p485
V60
p486
tp487
a(V$ns
p488
V6
p489
tp490
a(V$nr
p491
V10
p492
tp493
aV2015-10-14 04:28:39
p494
tp495
a(VC(56,5)
p496
VC(52,5)
p497
(lp498
(S'R.1'
p499
F5.0
g86
g86
tp500
aVsachadal
p501
(lp502
(V$n
p503
V56
p504
tp505
a(V$ns
p506
V4
p507
tp508
a(V$nr
p509
V14
p510
tp511
a(V$n
p512
V56
p513
tp514
a(V$ns
p515
V4
p516
tp517
a(V$nr
p518
V14
p519
tp520
aV2015-10-14 18:07:45
p521
tp522
a(VC(75,5)
p523
VC(15,5)
p524
(lp525
(S'R.1'
p526
F5.0
g86
g86
tp527
aVrbdoming
p528
(lp529
(V$n
p530
V75
p531
tp532
a(V$ns
p533
V5
p534
tp535
a(V$nr
p536
V15
p537
tp538
a(V$n
p539
V75
p540
tp541
a(V$ns
p542
V5
p543
tp544
a(V$nr
p545
V15
p546
tp547
aV2015-10-14 19:11:03
p548
tp549
a(g54
V(360360)^5
p550
(lp551
(S'R.1'
p552
F5.0
g86
g86
tp553
aVnhn018
p554
(lp555
(V$n
p556
V75
p557
tp558
a(V$ns
p559
V5
p560
tp561
a(V$nr
p562
V15
p563
tp564
a(V$n
p565
V75
p566
tp567
a(V$ns
p568
V5
p569
tp570
a(V$nr
p571
V15
p572
tp573
aV2015-10-15 01:56:19
p574
tp575
a(VC(60,5)
p576
VC(52,5)
p577
(lp578
(S'R.1'
p579
F5.0
g86
g86
tp580
aVjhw015
p581
(lp582
(V$n
p583
V60
p584
tp585
a(V$ns
p586
V5
p587
tp588
a(V$nr
p589
V12
p590
tp591
a(V$n
p592
V60
p593
tp594
a(V$ns
p595
V5
p596
tp597
a(V$nr
p598
V12
p599
tp600
aV2015-10-15 02:46:50
p601
tp602
a(g576
VC(12,5)
p603
(lp604
(S'R.1'
p605
F5.0
g86
g86
tp606
aVjhw015
p607
g582
V2015-10-15 02:47:05
p608
tp609
a(VC(80,5)
p610
V16^5
p611
(lp612
(S'R.1'
p613
F5.0
g86
g86
tp614
aVdcastlem
p615
(lp616
(V$n
p617
V80
p618
tp619
a(V$ns
p620
V5
p621
tp622
a(V$nr
p623
V16
p624
tp625
a(V$n
p626
V80
p627
tp628
a(V$ns
p629
V5
p630
tp631
a(V$nr
p632
V16
p633
tp634
aV2015-10-15 03:33:14
p635
tp636
a(VC(60,5)
p637
VC(52,5)
p638
(lp639
(S'R.1'
p640
F5.0
g86
g86
tp641
aVnnh002
p642
(lp643
(V$n
p644
V60
p645
tp646
a(V$ns
p647
V4
p648
tp649
a(V$nr
p650
V15
p651
tp652
a(V$n
p653
V60
p654
tp655
a(V$ns
p656
V4
p657
tp658
a(V$nr
p659
V15
p660
tp661
aV2015-10-15 05:45:56
p662
tp663
a(VC(44,5)
p664
VC(15,5)
p665
(lp666
(S'R.1'
p667
F5.0
g86
g86
tp668
aVdgunawan
p669
(lp670
(V$n
p671
V44
p672
tp673
a(V$ns
p674
V4
p675
tp676
a(V$nr
p677
V11
p678
tp679
a(V$n
p680
V44
p681
tp682
a(V$ns
p683
V4
p684
tp685
a(V$nr
p686
V11
p687
tp688
aV2015-10-15 19:06:56
p689
tp690
a(g664
VC(11,5)
p691
(lp692
(S'R.1'
p693
F5.0
g86
g86
tp694
aVdgunawan
p695
g670
V2015-10-15 19:07:02
p696
tp697
a(g63
VC(11^4,5)
p698
(lp699
(S'R.1'
p700
F5.0
g86
g86
tp701
aVwcwhite
p702
(lp703
(V$n
p704
V44
p705
tp706
a(V$ns
p707
V4
p708
tp709
a(V$nr
p710
V11
p711
tp712
a(V$n
p713
V44
p714
tp715
a(V$ns
p716
V4
p717
tp718
a(V$nr
p719
V11
p720
tp721
aV2015-10-15 22:15:36
p722
tp723
asS"['R.0', 'R.1']"
p724
(lp725
(VC(40,5)
p726
V40^5
p727
(lp728
(S'R.0'
p729
F40.0
V40
p730
V40
p731
tp732
a(S'R.1'
p733
F5.0
g86
g86
tp734
aVhak014
p735
(lp736
(V$n
p737
V40
p738
tp739
a(V$ns
p740
V4
p741
tp742
a(V$nr
p743
V10
p744
tp745
a(V$n
p746
V40
p747
tp748
a(V$ns
p749
V4
p750
tp751
a(V$nr
p752
V10
p753
tp754
aV2015-10-13 05:20:27
p755
tp756
a(g33
V60/5
p757
(lp758
(S'R.0'
p759
F60.0
V60
p760
V60
p761
tp762
a(S'R.1'
p763
F5.0
g86
g86
tp764
aVachava
p765
g353
V2015-10-13 07:21:54
p766
tp767
a(g33
V60^5
p768
(lp769
(S'R.0'
p770
F60.0
V60
p771
V60
p772
tp773
a(S'R.1'
p774
F5.0
g86
g86
tp775
aVachava
p776
g353
V2015-10-13 07:22:43
p777
tp778
a(g33
V60*5
p779
(lp780
(S'R.0'
p781
F60.0
V60
p782
V60
p783
tp784
a(S'R.1'
p785
F5.0
g86
g86
tp786
aVachava
p787
g353
V2015-10-13 07:22:49
p788
tp789
a(VC(40,5)
p790
V40^5
p791
(lp792
(S'R.0'
p793
F40.0
V40
p794
V40
p795
tp796
a(S'R.1'
p797
F5.0
g86
g86
tp798
aVmrchin
p799
(lp800
(V$n
p801
V40
p802
tp803
a(V$ns
p804
V4
p805
tp806
a(V$nr
p807
V10
p808
tp809
a(V$n
p810
V40
p811
tp812
a(V$ns
p813
V4
p814
tp815
a(V$nr
p816
V10
p817
tp818
aV2015-10-14 19:21:23
p819
tp820
a(g54
V(5*15)^5
p821
(lp822
(S'R.0'
p823
F75.0
V75
p824
V5*15
p825
tp826
a(S'R.1'
p827
F5.0
g86
g86
tp828
aVnhn018
p829
g555
V2015-10-15 01:55:22
p830
tp831
asS'Fraction'
p832
(lp833
(VC(65,5)
p834
V65!/60!
p835
tp836
a(VC(72,5)
p837
V60!/(5!(60-5)!)
p838
tp839
a(g198
V60!/(5!(55!))
p840
tp841
a(VC(65,5)
p842
V65!/((65-5)!)
p843
tp844
a(g842
V65!/(65-5)!
p845
tp846
a(VC(40,5)
p847
V40!/(40 - 5)!
p848
tp849
a(VC(70,5)
p850
V60! / (55!5!)
p851
tp852
a(g847
V40!/35!
p853
tp854
a(g60
V96/5
p855
tp856
a(VC(66,5)
p857
V66!/61!
p858
tp859
asS"['R.0']"
p860
(lp861
(VC(56,5)
p862
VC(56,4)
p863
(lp864
(S'R.0'
p865
F56.0
V56
p866
V56
p867
tp868
aVhkhodada
p869
(lp870
(V$n
p871
V56
p872
tp873
a(V$ns
p874
V4
p875
tp876
a(V$nr
p877
V14
p878
tp879
a(V$n
p880
V56
p881
tp882
a(V$ns
p883
V4
p884
tp885
a(V$nr
p886
V14
p887
tp888
aV2015-10-10 19:07:50
p889
tp890
a(VC(72,5)
p891
VC(72,6)
p892
(lp893
(S'R.0'
p894
F72.0
V72
p895
V72
p896
tp897
aVmsaguiar
p898
(lp899
(V$n
p900
V72
p901
tp902
a(V$ns
p903
V6
p904
tp905
a(V$nr
p906
V12
p907
tp908
a(V$n
p909
V72
p910
tp911
a(V$ns
p912
V6
p913
tp914
a(V$nr
p915
V12
p916
tp917
aV2015-10-12 04:10:17
p918
tp919
a(VC(60,5)
p920
V(15*4)^4
p921
(lp922
(S'R.0'
p923
F60.0
V60
p924
V15*4
p925
tp926
aVaggouw
p927
(lp928
(V$n
p929
V60
p930
tp931
a(V$ns
p932
V4
p933
tp934
a(V$nr
p935
V15
p936
tp937
a(V$n
p938
V60
p939
tp940
a(V$ns
p941
V4
p942
tp943
a(V$nr
p944
V15
p945
tp946
aV2015-10-12 22:11:23
p947
tp948
a(VC(65,5)
p949
VC(13*5,4)
p950
(lp951
(S'R.0'
p952
F65.0
V65
p953
V13*5
p954
tp955
aVagian
p956
(lp957
(V$n
p958
V65
p959
tp960
a(V$ns
p961
V5
p962
tp963
a(V$nr
p964
V13
p965
tp966
a(V$n
p967
V65
p968
tp969
a(V$ns
p970
V5
p971
tp972
a(V$nr
p973
V13
p974
tp975
aV2015-10-15 07:29:09
p976
tp977
a(g949
VC(5*13,4)
p978
(lp979
(S'R.0'
p980
F65.0
V65
p981
V5*13
p982
tp983
aVagian
p984
g957
V2015-10-15 07:29:51
p985
tp986
a(g949
VC(65,4)
p987
(lp988
(S'R.0'
p989
F65.0
V65
p990
V65
p991
tp992
aVagian
p993
g957
V2015-10-15 07:30:09
p994
tp995
a(VC(60,5)
p996
V(5*12)!
p997
(lp998
(S'R.0'
p999
F60.0
V60
p1000
V5*12
p1001
tp1002
aVakhmelni
p1003
(lp1004
(V$n
p1005
V60
p1006
tp1007
a(V$ns
p1008
V5
p1009
tp1010
a(V$nr
p1011
V12
p1012
tp1013
a(V$n
p1014
V60
p1015
tp1016
a(V$ns
p1017
V5
p1018
tp1019
a(V$nr
p1020
V12
p1021
tp1022
aV2015-10-15 23:00:09
p1023
tp1024
ass.