(dp0
V1
p1
(dp2
sV2
p3
(dp4
Vj5phung
p5
(dp6
S'part2_correct_attempt'
p7
(lp8
S'-1 day, 23:59:54'
p9
aV0
p10
asS'first_attempt'
p11
V2015-11-10 22:01:59
p12
sS'part2_incorrect_attempt'
p13
(lp14
(S'-1 day, 23:57:35'
p15
V-1
p16
tp17
assVagoldsht
p18
(dp19
S'part2_correct_attempt'
p20
(lp21
S'0:00:06'
p22
aV0
p23
asg11
V2015-11-13 01:32:14
p24
sS'part2_incorrect_attempt'
p25
(lp26
(S'0:00:00'
p27
V-1
p28
tp29
assVtcn013
p30
(dp31
S'part2_correct_attempt'
p32
(lp33
S'0:00:05'
p34
aV0
p35
asg11
V2015-11-11 01:38:46
p36
sS'part2_incorrect_attempt'
p37
(lp38
(S'-1 day, 23:59:55'
p39
V-1
p40
tp41
assVyhhan
p42
(dp43
S'part2_correct_attempt'
p44
(lp45
S'0:00:10'
p46
aV0
p47
asg11
V2015-11-13 19:25:37
p48
sS'part2_incorrect_attempt'
p49
(lp50
(S'0:00:04'
p51
V-1
p52
tp53
assVanl114
p54
(dp55
S'part2_correct_attempt'
p56
(lp57
S'0:00:09'
p58
aV0
p59
asg11
V2015-11-13 22:34:09
p60
sS'part2_incorrect_attempt'
p61
(lp62
(S'0:00:00'
p63
V-1
p64
tp65
assVr9jiang
p66
(dp67
S'part2_correct_attempt'
p68
(lp69
S'0:02:31'
p70
aV0
p71
asg11
V2015-11-11 09:53:01
p72
sS'part2_incorrect_attempt'
p73
(lp74
(S'0:00:00'
p75
V-1
p76
tp77
assVcprafull
p78
(dp79
S'part2_correct_attempt'
p80
(lp81
S'0:00:10'
p82
aV0
p83
asg11
V2015-11-12 00:30:33
p84
sS'part2_incorrect_attempt'
p85
(lp86
(S'0:00:06'
p87
V-1
p88
tp89
assVjjm019
p90
(dp91
S'part2_correct_attempt'
p92
(lp93
S'0:00:14'
p94
aV0
p95
asg11
V2015-11-13 04:23:49
p96
sS'part2_incorrect_attempt'
p97
(lp98
(S'0:00:00'
p99
V-1
p100
tp101
a(S'0:00:09'
p102
V-1
p103
tp104
assVsmohiman
p105
(dp106
S'part2_correct_attempt'
p107
(lp108
S'0:00:12'
p109
aV0
p110
asg11
V2015-11-09 04:47:01
p111
sS'part2_incorrect_attempt'
p112
(lp113
(S'0:00:00'
p114
V-1
p115
tp116
asss.