(dp0
V1
p1
ccollections
defaultdict
p2
(c__builtin__
list
p3
tp4
Rp5
S'Digits'
p6
(lp7
(V-1
p8
V0
p9
tp10
a(V-1
p11
V0
p12
tp13
a(V-1
p14
V0
p15
tp16
a(V-1
p17
V0
p18
tp19
a(g17
V0
p20
tp21
a(V-1
p22
V0
p23
tp24
a(V-1
p25
V0
p26
tp27
asS'Wrong_Sign'
p28
(lp29
(V-1
p30
V0.1
p31
tp32
a(g30
V10
p33
tp34
a(g30
V1000000
p35
tp36
a(g30
V10000
p37
tp38
a(V-1
p39
V4
p40
tp41
a(V-1
p42
V1
p43
tp44
a(V-1
p45
V1
p46
tp47
a(V-1
p48
V1
p49
tp50
a(V-1
p51
V1
p52
tp53
a(V-1
p54
V1
p55
tp56
a(V-1
p57
V1
p58
tp59
a(V-1
p60
V1
p61
tp62
a(V-1
p63
V1
p64
tp65
a(V-1
p66
V1
p67
tp68
a(V-1
p69
V1
p70
tp71
a(V-1
p72
V1
p73
tp74
a(g8
V1
p75
tp76
a(V-1
p77
V1
p78
tp79
a(V-1
p80
V1
p81
tp82
a(V-1
p83
V1
p84
tp85
a(V-1
p86
V1
p87
tp88
a(V-1
p89
V1
p90
tp91
a(g11
V1
p92
tp93
a(V-1
p94
V1
p95
tp96
a(V-1
p97
V1
p98
tp99
a(V-1
p100
V1
p101
tp102
a(V-1
p103
V1
p104
tp105
a(V-1
p106
V1
p107
tp108
a(V-1
p109
V1
p110
tp111
a(g14
V1
p112
tp113
a(V-1
p114
V1
p115
tp116
a(V-1
p117
V1
p118
tp119
a(g17
V1
p120
tp121
a(V-1
p122
V1
p123
tp124
a(V-1
p125
V1
p126
tp127
a(V-1
p128
V1
p129
tp130
a(V-1
p131
V1
p132
tp133
a(V-1
p134
V1
p135
tp136
a(V-1
p137
V1
p138
tp139
a(V-1
p140
V1
p141
tp142
a(V-1
p143
V1
p144
tp145
a(V-1
p146
V1
p147
tp148
a(V-1
p149
V1
p150
tp151
a(V-1
p152
V1
p153
tp154
a(V-1
p155
V1
p156
tp157
a(g22
V1
p158
tp159
a(V-1
p160
V1
p161
tp162
a(g39
V2
p163
tp164
a(V-1
p165
V1
p166
tp167
a(V-1
p168
V1
p169
tp170
a(V-1
p171
V1
p172
tp173
a(V-1
p174
V1
p175
tp176
a(V-1
p177
V1
p178
tp179
a(V-1
p180
V1
p181
tp182
a(V-1
p183
V1
p184
tp185
a(V-1
p186
V1
p187
tp188
a(V-1
p189
V1
p190
tp191
a(V-1
p192
V1
p193
tp194
a(V-1
p195
V1
p196
tp197
a(V-1
p198
V1
p199
tp200
a(V-1
p201
V1
p202
tp203
a(V-1
p204
V1
p205
tp206
a(V-1
p207
V1
p208
tp209
a(V-1
p210
V1
p211
tp212
a(V-1
p213
V1
p214
tp215
a(V-1
p216
V1
p217
tp218
a(V-1
p219
V1
p220
tp221
a(V-1
p222
V1
p223
tp224
a(V-1
p225
V1
p226
tp227
a(V-1
p228
V1
p229
tp230
a(V-1
p231
V1
p232
tp233
a(V-1
p234
V1
p235
tp236
a(V-1
p237
V1
p238
tp239
a(V-1
p240
V1
p241
tp242
a(V-1
p243
V1
p244
tp245
a(V-1
p246
V1
p247
tp248
a(V-1
p249
V1
p250
tp251
a(V-1
p252
V1
p253
tp254
a(V-1
p255
V1
p256
tp257
asS"['R']"
p258
(lp259
(V-1
p260
V-1
p261
(lp262
(S'R'
p263
F-1.0
g260
g261
tp264
aVasetters
p265
(lp266
(V$alpha
p267
V0.046
p268
tp269
a(V$alpha
p270
V0.046
p271
tp272
a(V$x
p273
V1
p274
tp275
a(V$n
p276
V25
p277
tp278
a(V$sampleMean
p279
V-0.04
p280
tp281
a(V$variance
p282
V3
p283
tp284
a(V$quantile
p285
V2
p286
tp287
aV2015-11-11 04:27:23
p288
tp289
a(V-1
p290
V-1
p291
(lp292
(g263
F-1.0
g290
g291
tp293
aVklala
p294
(lp295
(V$alpha
p296
V0.032
p297
tp298
a(V$alpha
p299
V0.032
p300
tp301
a(V$x
p302
V1
p303
tp304
a(V$n
p305
V25
p306
tp307
a(V$sampleMean
p308
V-0.03
p309
tp310
a(V$variance
p311
V3
p312
tp313
a(V$quantile
p314
V2
p315
tp316
aV2015-11-11 08:14:12
p317
tp318
a(V-1
p319
V-1
p320
(lp321
(g263
F-1.0
g319
g320
tp322
aVs1powers
p323
(lp324
(V$alpha
p325
V0.04
p326
tp327
a(V$alpha
p328
V0.04
p329
tp330
a(V$x
p331
V1
p332
tp333
a(V$n
p334
V25
p335
tp336
a(V$sampleMean
p337
V0.04
p338
tp339
a(V$variance
p340
V1
p341
tp342
a(V$quantile
p343
V2
p344
tp345
aV2015-11-13 08:36:07
p346
tp347
a(V-1
p348
V-1
p349
(lp350
(g263
F-1.0
g348
g349
tp351
aVanislam
p352
(lp353
(V$alpha
p354
V0.064
p355
tp356
a(V$alpha
p357
V0.064
p358
tp359
a(V$x
p360
V1
p361
tp362
a(V$n
p363
V25
p364
tp365
a(V$sampleMean
p366
V0.02
p367
tp368
a(V$variance
p369
V3
p370
tp371
a(V$quantile
p372
V2
p373
tp374
aV2015-11-13 09:11:13
p375
tp376
assV3
p377
g2
(g3
tp378
Rp379
g6
(lp380
(V1
p381
V100
p382
tp383
a(g381
V10
p384
tp385
a(V1
p386
V4
p387
tp388
a(V1
p389
V0
p390
tp391
a(g386
V2
p392
tp393
asg28
(lp394
(V1
p395
V-1
p396
tp397
a(V1
p398
V-1
p399
tp400
a(V1
p401
V-1
p402
tp403
a(V1
p404
V-1
p405
tp406
a(V1
p407
V-1
p408
tp409
a(V1
p410
V-1
p411
tp412
a(V1
p413
V-1
p414
tp415
a(V1
p416
V-1
p417
tp418
a(V1
p419
V-1
p420
tp421
a(V1
p422
V-1
p423
tp424
a(V1
p425
V-1
p426
tp427
a(V1
p428
V-1
p429
tp430
a(V1
p431
V-1
p432
tp433
a(V1
p434
V-1
p435
tp436
a(V1
p437
V-1
p438
tp439
a(V1
p440
V-1
p441
tp442
a(V1
p443
V-1
p444
tp445
a(V1
p446
V-1
p447
tp448
a(V1
p449
V-1
p450
tp451
a(V1
p452
V-1
p453
tp454
a(V1
p455
V-1
p456
tp457
a(V1
p458
V-1
p459
tp460
a(V1
p461
V-1
p462
tp463
a(V1
p464
V-1
p465
tp466
a(V1
p467
V-1
p468
tp469
a(V1
p470
V-1
p471
tp472
a(V1
p473
V-1
p474
tp475
a(V1
p476
V-1
p477
tp478
a(g386
V-1
p479
tp480
a(V1
p481
V-1
p482
tp483
a(V1
p484
V-1
p485
tp486
a(V1
p487
V-1
p488
tp489
a(V1
p490
V-1
p491
tp492
a(V1
p493
V-1
p494
tp495
a(V1
p496
V-1
p497
tp498
a(V1
p499
V-1
p500
tp501
a(V1
p502
V-1
p503
tp504
a(V1
p505
V-1
p506
tp507
a(V1
p508
V-1
p509
tp510
a(V1
p511
V-1
p512
tp513
a(V1
p514
V-1
p515
tp516
a(V1
p517
V-1
p518
tp519
a(V1
p520
V-1
p521
tp522
a(V1
p523
V-1
p524
tp525
a(V1
p526
V-1
p527
tp528
a(V1
p529
V-1
p530
tp531
a(V1
p532
V-1
p533
tp534
a(V1
p535
V-1
p536
tp537
a(V1
p538
V-1
p539
tp540
a(V1
p541
V-1
p542
tp543
a(V1
p544
V-1
p545
tp546
a(V1
p547
V-1
p548
tp549
a(V1
p550
V-1
p551
tp552
assV2
p553
g2
(g3
tp554
Rp555
g6
(lp556
(V-1
p557
V0
p558
tp559
a(V-1
p560
V0
p561
tp562
asg28
(lp563
(V-1
p564
V100
p565
tp566
a(g564
V1000
p567
tp568
a(g564
V100
p569
tp570
a(g564
V100000
p571
tp572
a(V-1
p573
V100
p574
tp575
a(V-1
p576
V4
p577
tp578
a(V-1
p579
V1
p580
tp581
a(V-1
p582
V1
p583
tp584
a(V-1
p585
V1
p586
tp587
a(V-1
p588
V1
p589
tp590
a(g573
V1
p591
tp592
a(V-1
p593
V1
p594
tp595
a(V-1
p596
V1
p597
tp598
a(V-1
p599
V1
p600
tp601
a(V-1
p602
V1
p603
tp604
a(V-1
p605
V1
p606
tp607
a(V-1
p608
V1
p609
tp610
a(V-1
p611
V1
p612
tp613
a(V-1
p614
V1
p615
tp616
a(V-1
p617
V1
p618
tp619
a(V-1
p620
V1
p621
tp622
a(V-1
p623
V1
p624
tp625
a(g623
V1
p626
tp627
a(V-1
p628
V1
p629
tp630
a(V-1
p631
V1
p632
tp633
a(V-1
p634
V1
p635
tp636
a(V-1
p637
V1
p638
tp639
a(V-1
p640
V1
p641
tp642
a(V-1
p643
V1
p644
tp645
a(V-1
p646
V1
p647
tp648
a(V-1
p649
V1
p650
tp651
a(V-1
p652
V1
p653
tp654
a(V-1
p655
V1
p656
tp657
a(V-1
p658
V1
p659
tp660
a(V-1
p661
V1
p662
tp663
a(V-1
p664
V1
p665
tp666
a(V-1
p667
V1
p668
tp669
a(V-1
p670
V1
p671
tp672
a(V-1
p673
V1
p674
tp675
a(V-1
p676
V1
p677
tp678
a(V-1
p679
V1
p680
tp681
a(V-1
p682
V1
p683
tp684
a(V-1
p685
V1
p686
tp687
a(V-1
p688
V1
p689
tp690
a(V-1
p691
V1
p692
tp693
a(V-1
p694
V1
p695
tp696
a(V-1
p697
V1
p698
tp699
a(V-1
p700
V1
p701
tp702
a(g557
V1
p703
tp704
a(V-1
p705
V1
p706
tp707
a(V-1
p708
V1
p709
tp710
a(V-1
p711
V1
p712
tp713
a(V-1
p714
V1
p715
tp716
a(V-1
p717
V1
p718
tp719
a(V-1
p720
V1
p721
tp722
a(V-1
p723
V1
p724
tp725
a(V-1
p726
V1
p727
tp728
a(V-1
p729
V1
p730
tp731
a(V-1
p732
V1
p733
tp734
a(V-1
p735
V1
p736
tp737
a(V-1
p738
V1
p739
tp740
a(V-1
p741
V1
p742
tp743
a(V-1
p744
V1
p745
tp746
a(g560
V1
p747
tp748
a(V-1
p749
V1
p750
tp751
a(g576
V2
p752
tp753
a(V-1
p754
V1
p755
tp756
a(V-1
p757
V1
p758
tp759
a(V-1
p760
V1
p761
tp762
a(V-1
p763
V1
p764
tp765
a(V-1
p766
V1
p767
tp768
a(V-1
p769
V1
p770
tp771
a(V-1
p772
V1
p773
tp774
a(V-1
p775
V1
p776
tp777
a(V-1
p778
V1
p779
tp780
a(V-1
p781
V1
p782
tp783
a(V-1
p784
V1
p785
tp786
a(g784
V1
p787
tp788
a(V-1
p789
V1
p790
tp791
a(V-1
p792
V1
p793
tp794
a(V-1
p795
V1
p796
tp797
a(V-1
p798
V1
p799
tp800
a(V-1
p801
V1
p802
tp803
a(V-1
p804
V1
p805
tp806
a(V-1
p807
V1
p808
tp809
a(V-1
p810
V1
p811
tp812
a(V-1
p813
V1
p814
tp815
a(V-1
p816
V1
p817
tp818
a(V-1
p819
V1
p820
tp821
a(V-1
p822
V1
p823
tp824
a(V-1
p825
V1
p826
tp827
a(V-1
p828
V1
p829
tp830
a(V-1
p831
V1
p832
tp833
a(V-1
p834
V1
p835
tp836
a(V-1
p837
V1
p838
tp839
a(V-1
p840
V1
p841
tp842
a(V-1
p843
V1
p844
tp845
a(V-1
p846
V1
p847
tp848
a(V-1
p849
V1
p850
tp851
a(V-1
p852
V1
p853
tp854
a(V-1
p855
V1
p856
tp857
a(V-1
p858
V1
p859
tp860
a(V-1
p861
V1
p862
tp863
asS"['R']"
p864
(lp865
(V-1
p866
V-1
p867
(lp868
(g263
F-1.0
g866
g867
tp869
aVhachrist
p870
(lp871
(V$alpha
p872
V0.09
p873
tp874
a(V$alpha
p875
V0.09
p876
tp877
a(V$x
p878
V1
p879
tp880
a(V$n
p881
V25
p882
tp883
a(V$sampleMean
p884
V-0.05
p885
tp886
a(V$variance
p887
V3
p888
tp889
a(V$quantile
p890
V2
p891
tp892
aV2015-11-09 07:33:02
p893
tp894
a(V-1
p895
V-1
p896
(lp897
(g263
F-1.0
g895
g896
tp898
aVaordookh
p899
(lp900
(V$alpha
p901
V0.011
p902
tp903
a(V$alpha
p904
V0.011
p905
tp906
a(V$x
p907
V1
p908
tp909
a(V$n
p910
V25
p911
tp912
a(V$sampleMean
p913
V-0.04
p914
tp915
a(V$variance
p916
V1
p917
tp918
a(V$quantile
p919
V2
p920
tp921
aV2015-11-13 16:11:01
p922
tp923
assV5
p924
g2
(g3
tp925
Rp926
g6
(lp927
(V1
p928
V4
p929
tp930
a(V1
p931
V0
p932
tp933
a(V1
p934
V0
p935
tp936
a(g928
V2
p937
tp938
asg28
(lp939
(V1
p940
V-1
p941
tp942
a(V1
p943
V-1
p944
tp945
a(V1
p946
V-1
p947
tp948
a(V1
p949
V-1
p950
tp951
a(V1
p952
V-1
p953
tp954
a(V1
p955
V-1
p956
tp957
a(V1
p958
V-1
p959
tp960
a(V1
p961
V-1
p962
tp963
a(V1
p964
V-1
p965
tp966
a(V1
p967
V-1
p968
tp969
a(V1
p970
V-1
p971
tp972
a(V1
p973
V-1
p974
tp975
a(V1
p976
V-1
p977
tp978
a(V1
p979
V-1
p980
tp981
a(V1
p982
V-1
p983
tp984
a(V1
p985
V-1
p986
tp987
a(V1
p988
V-1
p989
tp990
a(V1
p991
V-1
p992
tp993
a(V1
p994
V-1
p995
tp996
a(V1
p997
V-1
p998
tp999
a(V1
p1000
V-1
p1001
tp1002
a(V1
p1003
V-1
p1004
tp1005
a(V1
p1006
V-1
p1007
tp1008
a(V1
p1009
V-1
p1010
tp1011
a(V1
p1012
V-1
p1013
tp1014
a(g931
V-1
p1015
tp1016
a(V1
p1017
V-1
p1018
tp1019
a(V1
p1020
V-1
p1021
tp1022
a(V1
p1023
V-1
p1024
tp1025
a(V1
p1026
V-1
p1027
tp1028
a(g928
V-1
p1029
tp1030
a(V1
p1031
V-1
p1032
tp1033
a(V1
p1034
V-1
p1035
tp1036
a(V1
p1037
V-1
p1038
tp1039
a(V1
p1040
V-1
p1041
tp1042
a(V1
p1043
V-1
p1044
tp1045
a(V1
p1046
V-1
p1047
tp1048
a(V1
p1049
V-1
p1050
tp1051
a(V1
p1052
V-1
p1053
tp1054
a(V1
p1055
V-1
p1056
tp1057
a(V1
p1058
V-1
p1059
tp1060
a(V1
p1061
V-1
p1062
tp1063
a(V1
p1064
V-1
p1065
tp1066
a(V1
p1067
V-1
p1068
tp1069
a(V1
p1070
V-1
p1071
tp1072
a(V1
p1073
V-1
p1074
tp1075
a(V1
p1076
V-1
p1077
tp1078
a(V1
p1079
V-1
p1080
tp1081
a(V1
p1082
V-1
p1083
tp1084
a(V1
p1085
V-1
p1086
tp1087
a(V1
p1088
V-1
p1089
tp1090
a(V1
p1091
V-1
p1092
tp1093
assV4
p1094
g2
(g3
tp1095
Rp1096
g6
(lp1097
(V1
p1098
V4
p1099
tp1100
a(g1098
V2
p1101
tp1102
asg28
(lp1103
(V1
p1104
V-1
p1105
tp1106
a(V1
p1107
V-1
p1108
tp1109
a(V1
p1110
V-1
p1111
tp1112
a(V1
p1113
V-1
p1114
tp1115
a(V1
p1116
V-1
p1117
tp1118
a(V1
p1119
V-1
p1120
tp1121
a(V1
p1122
V-1
p1123
tp1124
a(V1
p1125
V-1
p1126
tp1127
a(V1
p1128
V-1
p1129
tp1130
a(V1
p1131
V-1
p1132
tp1133
a(V1
p1134
V-1
p1135
tp1136
a(V1
p1137
V-1
p1138
tp1139
a(V1
p1140
V-1
p1141
tp1142
a(V1
p1143
V-1
p1144
tp1145
a(V1
p1146
V-1
p1147
tp1148
a(V1
p1149
V-1
p1150
tp1151
a(V1
p1152
V-1
p1153
tp1154
a(V1
p1155
V-1
p1156
tp1157
a(V1
p1158
V-1
p1159
tp1160
a(V1
p1161
V-1
p1162
tp1163
a(V1
p1164
V-1
p1165
tp1166
a(V1
p1167
V-1
p1168
tp1169
a(V1
p1170
V-1
p1171
tp1172
a(V1
p1173
V-1
p1174
tp1175
a(V1
p1176
V-1
p1177
tp1178
a(V1
p1179
V-1
p1180
tp1181
a(V1
p1182
V-1
p1183
tp1184
a(V1
p1185
V-1
p1186
tp1187
a(V1
p1188
V-1
p1189
tp1190
a(g1098
V-1
p1191
tp1192
a(V1
p1193
V-1
p1194
tp1195
a(V1
p1196
V-1
p1197
tp1198
a(V1
p1199
V-1
p1200
tp1201
a(V1
p1202
V-1
p1203
tp1204
a(V1
p1205
V-1
p1206
tp1207
a(V1
p1208
V-1
p1209
tp1210
a(V1
p1211
V-1
p1212
tp1213
a(V1
p1214
V-1
p1215
tp1216
a(V1
p1217
V-1
p1218
tp1219
a(V1
p1220
V-1
p1221
tp1222
a(V1
p1223
V-1
p1224
tp1225
a(V1
p1226
V-1
p1227
tp1228
a(V1
p1229
V-1
p1230
tp1231
a(V1
p1232
V-1
p1233
tp1234
a(V1
p1235
V-1
p1236
tp1237
a(V1
p1238
V-1
p1239
tp1240
a(V1
p1241
V-1
p1242
tp1243
a(V1
p1244
V-1
p1245
tp1246
ass.