(dp0
V1
p1
ccollections
defaultdict
p2
(c__builtin__
list
p3
tp4
Rp5
S'Digits'
p6
(lp7
(V1
p8
V0
p9
tp10
a(V1
p11
V0
p12
tp13
a(V1
p14
V0
p15
tp16
a(V1
p17
V0
p18
tp19
a(V1
p20
V0
p21
tp22
a(V1
p23
V0
p24
tp25
a(V1
p26
V0
p27
tp28
a(V1
p29
V0
p30
tp31
a(V1
p32
V0
p33
tp34
a(V1
p35
V0
p36
tp37
a(V1
p38
V0
p39
tp40
a(V1
p41
V0
p42
tp43
a(V1
p44
V0
p45
tp46
a(V1
p47
V0
p48
tp49
a(V1
p50
V0
p51
tp52
a(V1
p53
V0
p54
tp55
a(V1
p56
V0
p57
tp58
a(V1
p59
V0
p60
tp61
a(V1
p62
V0
p63
tp64
a(V1
p65
V0
p66
tp67
a(V1
p68
V0
p69
tp70
a(V1
p71
V0
p72
tp73
a(V1
p74
V0
p75
tp76
a(V1
p77
V0
p78
tp79
a(V1
p80
V0
p81
tp82
a(V1
p83
V0
p84
tp85
a(V1
p86
V0
p87
tp88
a(V1
p89
V0
p90
tp91
a(V1
p92
V0
p93
tp94
a(V1
p95
V0
p96
tp97
a(V1
p98
V0
p99
tp100
a(V1
p101
V0
p102
tp103
a(V1
p104
V0
p105
tp106
a(V1
p107
V0
p108
tp109
a(V1
p110
V0
p111
tp112
a(V1
p113
V0
p114
tp115
a(V1
p116
V0
p117
tp118
a(V1
p119
V0
p120
tp121
a(V1
p122
V0
p123
tp124
a(V1
p125
V0
p126
tp127
a(V1
p128
V0
p129
tp130
a(V1
p131
V0
p132
tp133
a(V1
p134
V0
p135
tp136
a(V1
p137
V0
p138
tp139
a(V1
p140
V0
p141
tp142
a(V1
p143
V0
p144
tp145
a(V1
p146
V0
p147
tp148
a(V1
p149
V0
p150
tp151
a(V1
p152
V0
p153
tp154
a(V1
p155
V0
p156
tp157
a(V1
p158
V0
p159
tp160
a(V1
p161
V0
p162
tp163
a(V1
p164
V0
p165
tp166
a(V1
p167
V0
p168
tp169
a(V1
p170
V0
p171
tp172
a(V1
p173
V0
p174
tp175
a(V1
p176
V0
p177
tp178
a(V1
p179
V0
p180
tp181
a(V1
p182
V0
p183
tp184
a(V1
p185
V0
p186
tp187
a(V1
p188
V0
p189
tp190
a(V1
p191
V0
p192
tp193
a(V1
p194
V0
p195
tp196
a(V1
p197
V0
p198
tp199
a(V1
p200
V0
p201
tp202
a(V1
p203
V0
p204
tp205
a(V1
p206
V0
p207
tp208
a(V1
p209
V0
p210
tp211
a(V1
p212
V0
p213
tp214
a(V1
p215
V0
p216
tp217
a(V1
p218
V0
p219
tp220
a(V1
p221
V0
p222
tp223
a(V1
p224
V0
p225
tp226
a(V1
p227
V0
p228
tp229
a(V1
p230
V0
p231
tp232
a(V1
p233
V0
p234
tp235
a(V1
p236
V0
p237
tp238
asS'Wrong_Sign'
p239
(lp240
(g26
V-1
p241
tp242
a(V1
p243
V-1
p244
tp245
a(V1
p246
V-1
p247
tp248
a(V1
p249
V-1
p250
tp251
asS"['R']"
p252
(lp253
(V1
p254
V1
p255
(lp256
(S'R'
p257
F1.0
g254
g255
tp258
aVany027
p259
(lp260
(V$n
p261
V25
p262
tp263
a(V$sampleMean
p264
V0.04
p265
tp266
a(V$variance
p267
V3
p268
tp269
a(V$quantile
p270
V2
p271
tp272
aV2015-11-08 21:17:35
p273
tp274
assV2
p275
g2
(g3
tp276
Rp277
g6
(lp278
(V0
p279
V1
p280
tp281
a(V0
p282
V1
p283
tp284
a(V0
p285
V1
p286
tp287
a(V0
p288
V1
p289
tp290
a(V0
p291
V1
p292
tp293
a(V0
p294
V1
p295
tp296
a(V0
p297
V1
p298
tp299
a(V0
p300
V1
p301
tp302
a(V0
p303
V1
p304
tp305
a(V0
p306
V1
p307
tp308
a(V0
p309
V1
p310
tp311
a(V0
p312
V1
p313
tp314
a(V0
p315
V1
p316
tp317
a(V0
p318
V1
p319
tp320
a(V0
p321
V1
p322
tp323
a(V0
p324
V1
p325
tp326
a(V0
p327
V1
p328
tp329
a(V0
p330
V1
p331
tp332
a(V0
p333
V1
p334
tp335
a(V0
p336
V1
p337
tp338
a(V0
p339
V1
p340
tp341
a(V0
p342
V1
p343
tp344
a(V0
p345
V1
p346
tp347
a(V0
p348
V1
p349
tp350
a(V0
p351
V1
p352
tp353
a(V0
p354
V1
p355
tp356
a(V0
p357
V1
p358
tp359
a(V0
p360
V1
p361
tp362
a(V0
p363
V1
p364
tp365
a(V0
p366
V1
p367
tp368
a(V0
p369
V1
p370
tp371
a(V0
p372
V1
p373
tp374
a(V0
p375
V1
p376
tp377
a(V0
p378
V1
p379
tp380
a(V0
p381
V1
p382
tp383
a(V0
p384
V1
p385
tp386
a(V0
p387
V1
p388
tp389
a(V0
p390
V1
p391
tp392
a(V0
p393
V1
p394
tp395
a(V0
p396
V1
p397
tp398
a(V0
p399
V1
p400
tp401
a(V0
p402
V1
p403
tp404
a(V0
p405
V1
p406
tp407
a(V0
p408
V1
p409
tp410
a(V0
p411
V1
p412
tp413
a(V0
p414
V1
p415
tp416
a(V0
p417
V1
p418
tp419
a(V0
p420
V1
p421
tp422
a(V0
p423
V1
p424
tp425
a(V0
p426
V1
p427
tp428
a(V0
p429
V1
p430
tp431
a(V0
p432
V1
p433
tp434
a(V0
p435
V1
p436
tp437
a(V0
p438
V1
p439
tp440
a(V0
p441
V1
p442
tp443
a(V0
p444
V1
p445
tp446
a(V0
p447
V1
p448
tp449
a(V0
p450
V1
p451
tp452
a(V0
p453
V1
p454
tp455
a(V0
p456
V1
p457
tp458
a(V0
p459
V1
p460
tp461
a(V0
p462
V1
p463
tp464
a(V0
p465
V1
p466
tp467
a(V0
p468
V1
p469
tp470
a(V0
p471
V1
p472
tp473
a(V0
p474
V1
p475
tp476
a(V0
p477
V1
p478
tp479
a(V0
p480
V1
p481
tp482
a(V0
p483
V1
p484
tp485
a(V0
p486
V1
p487
tp488
a(V0
p489
V1
p490
tp491
a(V0
p492
V1
p493
tp494
a(g492
V2
p495
tp496
a(V0
p497
V1
p498
tp499
a(V0
p500
V1
p501
tp502
a(V0
p503
V1
p504
tp505
a(V0
p506
V1
p507
tp508
a(V0
p509
V1
p510
tp511
a(V0
p512
V1
p513
tp514
a(V0
p515
V1
p516
tp517
a(V0
p518
V1
p519
tp520
a(V0
p521
V1
p522
tp523
a(V0
p524
V1
p525
tp526
a(V0
p527
V1
p528
tp529
a(V0
p530
V1
p531
tp532
a(V0
p533
V1
p534
tp535
a(V0
p536
V1
p537
tp538
a(V0
p539
V1
p540
tp541
a(V0
p542
V1
p543
tp544
a(V0
p545
V1
p546
tp547
a(V0
p548
V1
p549
tp550
a(V0
p551
V1
p552
tp553
a(V0
p554
V1
p555
tp556
a(V0
p557
V1
p558
tp559
a(V0
p560
V1
p561
tp562
a(g560
V1
p563
tp564
a(V0
p565
V1
p566
tp567
a(V0
p568
V1
p569
tp570
a(V0
p571
V1
p572
tp573
a(V0
p574
V1
p575
tp576
a(V0
p577
V1
p578
tp579
a(V0
p580
V1
p581
tp582
a(V0
p583
V1
p584
tp585
a(V0
p586
V1
p587
tp588
a(V0
p589
V1
p590
tp591
a(V0
p592
V1
p593
tp594
a(V0
p595
V1
p596
tp597
a(V0
p598
V1
p599
tp600
ass.