(dp0
V1
p1
ccollections
defaultdict
p2
(c__builtin__
list
p3
tp4
Rp5
S'Digits'
p6
(lp7
(V0.05/[sqrt(0.16/200)]
p8
V0
p9
tp10
a(V0.05/[sqrt(0.16/200)]
p11
V40
p12
tp13
a(V0.05/[sqrt(0.16/200)]
p14
V8
p15
tp16
a(V0.05/[sqrt(0.16/200)]
p17
V1
p18
tp19
a(V0.05/[sqrt(0.16/200)]
p20
V1
p21
tp22
a(V0.05/[sqrt(0.16/200)]
p23
V25
p24
tp25
a(g23
V25
p26
tp27
a(V0.05/[sqrt(0.16/200)]
p28
V10
p29
tp30
a(V0.05/[sqrt(0.16/200)]
p31
V0
p32
tp33
a(V0.05/[sqrt(0.16/200)]
p34
V40
p35
tp36
a(V0.05/[sqrt(0.16/200)]
p37
V1
p38
tp39
a(g37
V396
p40
tp41
a(V0.05/[sqrt(0.16/200)]
p42
V0
p43
tp44
a(V0.05/[sqrt(0.16/200)]
p45
V0
p46
tp47
a(g45
V5
p48
tp49
a(V0.05/[sqrt(0.16/200)]
p50
V10
p51
tp52
a(V0.05/[sqrt(0.16/200)]
p53
V0
p54
tp55
a(V0.05/[sqrt(0.16/200)]
p56
V40
p57
tp58
a(g56
V200
p59
tp60
a(g56
V40
p61
tp62
a(g56
V10
p63
tp64
a(g56
V35
p65
tp66
a(V0.05/[sqrt(0.16/200)]
p67
V0
p68
tp69
a(g56
V50
p70
tp71
a(V0.05/[sqrt(0.16/200)]
p72
V23
p73
tp74
a(V0.05/[sqrt(0.16/200)]
p75
V1
p76
tp77
a(V0.05/[sqrt(0.16/200)]
p78
V20
p79
tp80
a(V0.05/[sqrt(0.16/200)]
p81
V50
p82
tp83
a(g81
V200
p84
tp85
asS"['R.0', 'R.1.0.0']"
p86
(lp87
(V0.05/[sqrt(0.16/200)]
p88
V(0.25-0.2) / ( sqrt( 0.2(1-0.2) ) / (200)  )
p89
(lp90
(S'R.0'
p91
F0.05
V0.05
p92
V0.25-0.2
p93
tp94
a(S'R.1.0.0'
p95
F0.16
V0.16
p96
V0.2(1-0.2)
p97
tp98
aVachava
p99
(lp100
(V$phi
p101
V0
p102
tp103
a(V$x
p104
V0.05
p105
tp106
a(V$phi
p107
V0
p108
tp109
a(V$x
p110
V0.05
p111
tp112
a(V$phi
p113
V0
p114
tp115
a(V$x
p116
V0.05
p117
tp118
a(V$phi
p119
V0
p120
tp121
a(V$x
p122
V0.05
p123
tp124
aV2015-11-09 19:09:31
p125
tp126
a(g75
V(.25-.2)/(sqrt(.2(1-.2))/200)
p127
(lp128
(S'R.0'
p129
F0.05
V0.05
p130
V.25-.2)
p131
tp132
a(S'R.1.0.0'
p133
F0.16
V0.16
p134
V.2(1-.2)
p135
tp136
aVjmmcalex
p137
(lp138
(V$phi
p139
V0
p140
tp141
a(V$x
p142
V0.05
p143
tp144
a(V$phi
p145
V0
p146
tp147
a(V$x
p148
V0.05
p149
tp150
a(V$phi
p151
V0
p152
tp153
a(V$x
p154
V0.05
p155
tp156
a(V$phi
p157
V0
p158
tp159
a(V$x
p160
V0.05
p161
tp162
aV2015-11-13 23:02:19
p163
tp164
asS"['R.1.0']"
p165
(lp166
(V0.05/[sqrt(0.16/200)]
p167
V(50 - (40))/(.2*.8/200)^2
p168
(lp169
(S'R.1.0'
p170
F0.0008
V0.16/200
p171
V.2*.8/200
p172
tp173
aVasetters
p174
(lp175
(V$phi
p176
V0
p177
tp178
a(V$x
p179
V0.05
p180
tp181
a(V$phi
p182
V0
p183
tp184
a(V$x
p185
V0.05
p186
tp187
a(V$phi
p188
V0
p189
tp190
a(V$x
p191
V0.05
p192
tp193
a(V$phi
p194
V0
p195
tp196
a(V$x
p197
V0.05
p198
tp199
aV2015-11-10 23:03:09
p200
tp201
a(V0.05/[sqrt(0.16/200)]
p202
V0.5/(0.16/200)^2
p203
(lp204
(S'R.1.0'
p205
F0.0008
V0.16/200
p206
V0.16/200
p207
tp208
aVaordookh
p209
(lp210
(V$phi
p211
V0
p212
tp213
a(V$x
p214
V0.05
p215
tp216
a(V$phi
p217
V0
p218
tp219
a(V$x
p220
V0.05
p221
tp222
a(V$phi
p223
V0
p224
tp225
a(V$x
p226
V0.05
p227
tp228
a(V$phi
p229
V0
p230
tp231
a(V$x
p232
V0.05
p233
tp234
aV2015-11-13 15:58:07
p235
tp236
asS"['R.1']"
p237
(lp238
(V0.05/[sqrt(0.16/200)]
p239
V0.5/sqrt(0.16/200)
p240
(lp241
(S'R.1'
p242
F0.0282842712474619
Vsqrt(0.16/200)
p243
Vsqrt(0.16/200)
p244
tp245
aVapokhare
p246
(lp247
(V$phi
p248
V0
p249
tp250
a(V$x
p251
V0.05
p252
tp253
a(V$phi
p254
V0
p255
tp256
a(V$x
p257
V0.05
p258
tp259
a(V$phi
p260
V0
p261
tp262
a(V$x
p263
V0.05
p264
tp265
a(V$phi
p266
V0
p267
tp268
a(V$x
p269
V0.05
p270
tp271
aV2015-11-09 20:00:54
p272
tp273
a(V0.05/[sqrt(0.16/200)]
p274
V(50-40)/(sqrt(0.2 * ( 1 - 0.2 ) / 200 ))
p275
(lp276
(S'R.1'
p277
F0.0282842712474619
Vsqrt(0.16/200)
p278
Vsqrt(0.2 * ( 1 - 0.2 ) / 200 )
p279
tp280
aVhaw081
p281
(lp282
(V$phi
p283
V0
p284
tp285
a(V$x
p286
V0.05
p287
tp288
a(V$phi
p289
V0
p290
tp291
a(V$x
p292
V0.05
p293
tp294
a(V$phi
p295
V0
p296
tp297
a(V$x
p298
V0.05
p299
tp300
a(V$phi
p301
V0
p302
tp303
a(V$x
p304
V0.05
p305
tp306
aV2015-11-10 04:31:42
p307
tp308
a(g167
V(50 - .2*200)/sqrt(.2*.8/200)
p309
(lp310
(S'R.1'
p311
F0.0282842712474619
Vsqrt(0.16/200)
p312
Vsqrt(.2*.8/200)
p313
tp314
aVasetters
p315
g175
V2015-11-10 22:58:01
p316
tp317
a(g167
V(50 - (40))/sqrt(.2*.8/200)
p318
(lp319
(S'R.1'
p320
F0.0282842712474619
Vsqrt(0.16/200)
p321
Vsqrt(.2*.8/200)
p322
tp323
aVasetters
p324
g175
V2015-11-10 23:02:42
p325
tp326
a(V0.05/[sqrt(0.16/200)]
p327
V(50 - (200 * .2)) / (sqrt((.2*.8)/200))
p328
(lp329
(S'R.1'
p330
F0.0282842712474619
Vsqrt(0.16/200)
p331
Vsqrt((.2*.8)/200)
p332
tp333
aVklala
p334
(lp335
(V$phi
p336
V0
p337
tp338
a(V$x
p339
V0.05
p340
tp341
a(V$phi
p342
V0
p343
tp344
a(V$x
p345
V0.05
p346
tp347
a(V$phi
p348
V0
p349
tp350
a(V$x
p351
V0.05
p352
tp353
a(V$phi
p354
V0
p355
tp356
a(V$x
p357
V0.05
p358
tp359
aV2015-11-11 07:30:28
p360
tp361
a(V0.05/[sqrt(0.16/200)]
p362
V(50-40)/sqrt((.2*.8)/200)
p363
(lp364
(S'R.1'
p365
F0.0282842712474619
Vsqrt(0.16/200)
p366
Vsqrt((.2*.8)/200)
p367
tp368
aVsayao
p369
(lp370
(V$phi
p371
V0
p372
tp373
a(V$x
p374
V0.05
p375
tp376
a(V$phi
p377
V0
p378
tp379
a(V$x
p380
V0.05
p381
tp382
a(V$phi
p383
V0
p384
tp385
a(V$x
p386
V0.05
p387
tp388
a(V$phi
p389
V0
p390
tp391
a(V$x
p392
V0.05
p393
tp394
aV2015-11-11 16:59:54
p395
tp396
a(V0.05/[sqrt(0.16/200)]
p397
V[50-200*0.2]/[sqrt([0.2*(1-0.2)]/200)]
p398
(lp399
(S'R.1'
p400
F0.0282842712474619
Vsqrt(0.16/200)
p401
Vsqrt([0.2*(1-0.2)]/200)
p402
tp403
aVtjke
p404
(lp405
(V$phi
p406
V0
p407
tp408
a(V$x
p409
V0.05
p410
tp411
a(V$phi
p412
V0
p413
tp414
a(V$x
p415
V0.05
p416
tp417
a(V$phi
p418
V0
p419
tp420
a(V$x
p421
V0.05
p422
tp423
a(V$phi
p424
V0
p425
tp426
a(V$x
p427
V0.05
p428
tp429
aV2015-11-12 04:18:39
p430
tp431
a(V0.05/[sqrt(0.16/200)]
p432
V10/(((0.2*0.8)/200)^0.5)
p433
(lp434
(S'R.1'
p435
F0.0282842712474619
Vsqrt(0.16/200)
p436
V((0.2*0.8)/200)^0.5
p437
tp438
aVzig006
p439
(lp440
(V$phi
p441
V0
p442
tp443
a(V$x
p444
V0.05
p445
tp446
a(V$phi
p447
V0
p448
tp449
a(V$x
p450
V0.05
p451
tp452
a(V$phi
p453
V0
p454
tp455
a(V$x
p456
V0.05
p457
tp458
a(V$phi
p459
V0
p460
tp461
a(V$x
p462
V0.05
p463
tp464
aV2015-11-12 08:02:22
p465
tp466
a(V0.05/[sqrt(0.16/200)]
p467
V(0.25-.02)/sqrt(0.2(1-0.2)/200)
p468
(lp469
(S'R.1'
p470
F0.0282842712474619
Vsqrt(0.16/200)
p471
Vsqrt(0.2(1-0.2)/200)
p472
tp473
aVkew060
p474
(lp475
(V$phi
p476
V0
p477
tp478
a(V$x
p479
V0.05
p480
tp481
a(V$phi
p482
V0
p483
tp484
a(V$x
p485
V0.05
p486
tp487
a(V$phi
p488
V0
p489
tp490
a(V$x
p491
V0.05
p492
tp493
a(V$phi
p494
V0
p495
tp496
a(V$x
p497
V0.05
p498
tp499
aV2015-11-12 23:33:37
p500
tp501
a(V0.05/[sqrt(0.16/200)]
p502
V10/sqrt((0.2)*(0.8)/200)
p503
(lp504
(S'R.1'
p505
F0.0282842712474619
Vsqrt(0.16/200)
p506
Vsqrt((0.2)*(0.8)/200)
p507
tp508
aVrraiyyan
p509
(lp510
(V$phi
p511
V0
p512
tp513
a(V$x
p514
V0.05
p515
tp516
a(V$phi
p517
V0
p518
tp519
a(V$x
p520
V0.05
p521
tp522
a(V$phi
p523
V0
p524
tp525
a(V$x
p526
V0.05
p527
tp528
a(V$phi
p529
V0
p530
tp531
a(V$x
p532
V0.05
p533
tp534
aV2015-11-13 07:45:43
p535
tp536
a(g202
V0.5/(0.16/200)^(1/2)
p537
(lp538
(S'R.1'
p539
F0.0282842712474619
Vsqrt(0.16/200)
p540
V(0.16/200)^(1/2)
p541
tp542
aVaordookh
p543
g210
V2015-11-13 15:59:03
p544
tp545
a(V0.05/[sqrt(0.16/200)]
p546
V0.5/sqrt(0.16/200)
p547
(lp548
(S'R.1'
p549
F0.0282842712474619
Vsqrt(0.16/200)
p550
Vsqrt(0.16/200)
p551
tp552
aVdis003
p553
(lp554
(V$phi
p555
V0
p556
tp557
a(V$x
p558
V0.05
p559
tp560
a(V$phi
p561
V0
p562
tp563
a(V$x
p564
V0.05
p565
tp566
a(V$phi
p567
V0
p568
tp569
a(V$x
p570
V0.05
p571
tp572
a(V$phi
p573
V0
p574
tp575
a(V$x
p576
V0.05
p577
tp578
aV2015-11-13 21:53:50
p579
tp580
asS"['R.1.0.1']"
p581
(lp582
(V0.05/[sqrt(0.16/200)]
p583
V(.20/sqrt(.40/200))
p584
(lp585
(S'R.1.0.1'
p586
F200.0
V200
p587
V200
p588
tp589
aVmtrafeca
p590
(lp591
(V$phi
p592
V0
p593
tp594
a(V$x
p595
V0.05
p596
tp597
a(V$phi
p598
V0
p599
tp600
a(V$x
p601
V0.05
p602
tp603
a(V$phi
p604
V0
p605
tp606
a(V$x
p607
V0.05
p608
tp609
a(V$phi
p610
V0
p611
tp612
a(V$x
p613
V0.05
p614
tp615
aV2015-11-10 01:42:46
p616
tp617
a(g583
V(.40/sqrt(.20/200))
p618
(lp619
(S'R.1.0.1'
p620
F200.0
V200
p621
V200
p622
tp623
aVmtrafeca
p624
g591
V2015-11-10 01:42:59
p625
tp626
a(g546
V0.5/sqrt(0.20/200)
p627
(lp628
(S'R.1.0.1'
p629
F200.0
V200
p630
V200
p631
tp632
aVdis003
p633
g554
V2015-11-13 21:54:05
p634
tp635
asS"['R.0']"
p636
(lp637
(V0.05/[sqrt(0.16/200)]
p638
V(50/200 - (.2))/sqrt(40 * 4/5)
p639
(lp640
(S'R.0'
p641
F0.05
V0.05
p642
V50/200 - (.2)
p643
tp644
aVkquong
p645
(lp646
(V$phi
p647
V0
p648
tp649
a(V$x
p650
V0.05
p651
tp652
a(V$phi
p653
V0
p654
tp655
a(V$x
p656
V0.05
p657
tp658
a(V$phi
p659
V0
p660
tp661
a(V$x
p662
V0.05
p663
tp664
a(V$phi
p665
V0
p666
tp667
a(V$x
p668
V0.05
p669
tp670
aV2015-11-07 20:18:32
p671
tp672
a(V0.05/[sqrt(0.16/200)]
p673
V(.25-0.20) / sqrt((200*0.25)*(0.75))
p674
(lp675
(S'R.0'
p676
F0.05
V0.05
p677
V.25-0.2
p678
tp679
aVany027
p680
(lp681
(V$phi
p682
V0
p683
tp684
a(V$x
p685
V0.05
p686
tp687
a(V$phi
p688
V0
p689
tp690
a(V$x
p691
V0.05
p692
tp693
a(V$phi
p694
V0
p695
tp696
a(V$x
p697
V0.05
p698
tp699
a(V$phi
p700
V0
p701
tp702
a(V$x
p703
V0.05
p704
tp705
aV2015-11-08 20:07:10
p706
tp707
a(g673
V(.25-0.20) / sqrt((200*0.20)*(0.80))
p708
(lp709
(S'R.0'
p710
F0.05
V0.05
p711
V.25-0.2
p712
tp713
aVany027
p714
g681
V2015-11-08 20:07:32
p715
tp716
a(g673
V(.25-0.20) / sqrt( (200*0.20)*(1 - 0.20 ) )
p717
(lp718
(S'R.0'
p719
F0.05
V0.05
p720
V.25-0.2
p721
tp722
aVany027
p723
g681
V2015-11-08 20:08:45
p724
tp725
a(g673
V(.25-0.20) / sqrt( (200*0.25)*(1 - 0.25 ) )
p726
(lp727
(S'R.0'
p728
F0.05
V0.05
p729
V.25-0.2
p730
tp731
aVany027
p732
g681
V2015-11-08 20:11:51
p733
tp734
a(V0.05/[sqrt(0.16/200)]
p735
V(0.25-0.2)/(200*0.2*0.8)^0.5
p736
(lp737
(S'R.0'
p738
F0.05
V0.05
p739
V0.25-0.2
p740
tp741
aVz2tan
p742
(lp743
(V$phi
p744
V0
p745
tp746
a(V$x
p747
V0.05
p748
tp749
a(V$phi
p750
V0
p751
tp752
a(V$x
p753
V0.05
p754
tp755
a(V$phi
p756
V0
p757
tp758
a(V$x
p759
V0.05
p760
tp761
a(V$phi
p762
V0
p763
tp764
a(V$x
p765
V0.05
p766
tp767
aV2015-11-09 00:59:25
p768
tp769
a(g735
V(0.25-0.2)/(0.2*0.8)^0.5
p770
(lp771
(S'R.0'
p772
F0.05
V0.05
p773
V0.25-0.2
p774
tp775
aVz2tan
p776
g743
V2015-11-09 01:00:08
p777
tp778
a(g735
V(0.25-0.2)/(0.25*0.75)^0.5
p779
(lp780
(S'R.0'
p781
F0.05
V0.05
p782
V0.25-0.2
p783
tp784
aVz2tan
p785
g743
V2015-11-09 01:00:59
p786
tp787
a(g88
V(0.25-0.2)/(40/sqrt(200))
p788
(lp789
(S'R.0'
p790
F0.05
V0.05
p791
V0.25-0.2
p792
tp793
aVachava
p794
g100
V2015-11-09 19:03:54
p795
tp796
a(g88
V(0.25-0.2)/(40)
p797
(lp798
(S'R.0'
p799
F0.05
V0.05
p800
V0.25-0.2
p801
tp802
aVachava
p803
g100
V2015-11-09 19:04:01
p804
tp805
a(g88
V(0.25-0.2) / ( ( 0.2(1-0.2) ) /(sqrt(200) ) )
p806
(lp807
(S'R.0'
p808
F0.05
V0.05
p809
V0.25-0.2
p810
tp811
aVachava
p812
g100
V2015-11-09 19:08:01
p813
tp814
a(g583
V(.05/sqrt(40))
p815
(lp816
(S'R.0'
p817
F0.05
V0.05
p818
V.05/
p819
tp820
aVmtrafeca
p821
g591
V2015-11-10 06:35:23
p822
tp823
a(V0.05/[sqrt(0.16/200)]
p824
V(0.25-0.2)/50
p825
(lp826
(S'R.0'
p827
F0.05
V0.05
p828
V0.25-0.2
p829
tp830
aVkew017
p831
(lp832
(V$phi
p833
V0
p834
tp835
a(V$x
p836
V0.05
p837
tp838
a(V$phi
p839
V0
p840
tp841
a(V$x
p842
V0.05
p843
tp844
a(V$phi
p845
V0
p846
tp847
a(V$x
p848
V0.05
p849
tp850
a(V$phi
p851
V0
p852
tp853
a(V$x
p854
V0.05
p855
tp856
aV2015-11-11 01:43:53
p857
tp858
a(V0.05/[sqrt(0.16/200)]
p859
V((50/200)-.2)/((.2*(1-.2)/200))
p860
(lp861
(S'R.0'
p862
F0.05
V0.05
p863
V(50/200)-.2)
p864
tp865
aVhmnaing
p866
(lp867
(V$phi
p868
V0
p869
tp870
a(V$x
p871
V0.05
p872
tp873
a(V$phi
p874
V0
p875
tp876
a(V$x
p877
V0.05
p878
tp879
a(V$phi
p880
V0
p881
tp882
a(V$x
p883
V0.05
p884
tp885
a(V$phi
p886
V0
p887
tp888
a(V$x
p889
V0.05
p890
tp891
aV2015-11-11 19:15:13
p892
tp893
a(g859
V((50/200)-.2)/(200 * .2 * (1-.2))
p894
(lp895
(S'R.0'
p896
F0.05
V0.05
p897
V(50/200)-.2)
p898
tp899
aVhmnaing
p900
g867
V2015-11-11 19:17:11
p901
tp902
a(g859
V((50/200)-.2)/(200 * .2 * (1-.2)^2)
p903
(lp904
(S'R.0'
p905
F0.05
V0.05
p906
V(50/200)-.2)
p907
tp908
aVhmnaing
p909
g867
V2015-11-11 19:17:28
p910
tp911
a(g859
V((50/200)-.2)/(200 * .2 * (1-.2))^2
p912
(lp913
(S'R.0'
p914
F0.05
V0.05
p915
V(50/200)-.2)
p916
tp917
aVhmnaing
p918
g867
V2015-11-11 19:18:02
p919
tp920
a(g859
V((50/200)-.2)/sqrt(200 * .2 * (1-.2))
p921
(lp922
(S'R.0'
p923
F0.05
V0.05
p924
V(50/200)-.2)
p925
tp926
aVhmnaing
p927
g867
V2015-11-11 19:18:23
p928
tp929
a(g859
V((50/200)-.2)/sqrt(50 * .2 * (1-.2))
p930
(lp931
(S'R.0'
p932
F0.05
V0.05
p933
V(50/200)-.2)
p934
tp935
aVhmnaing
p936
g867
V2015-11-11 19:21:12
p937
tp938
a(g859
V((50/200)-.2)/sqrt(200 * .2 * (1-.2))
p939
(lp940
(S'R.0'
p941
F0.05
V0.05
p942
V(50/200)-.2)
p943
tp944
aVhmnaing
p945
g867
V2015-11-11 19:21:22
p946
tp947
a(g859
V((50/200)-.2)/sqrt((50/200) * .2 * (1-.2))
p948
(lp949
(S'R.0'
p950
F0.05
V0.05
p951
V(50/200)-.2)
p952
tp953
aVhmnaing
p954
g867
V2015-11-11 19:22:44
p955
tp956
a(g859
V((50/200)-.2)/sqrt((200) * .2 * (1-.2))
p957
(lp958
(S'R.0'
p959
F0.05
V0.05
p960
V(50/200)-.2)
p961
tp962
aVhmnaing
p963
g867
V2015-11-11 19:22:59
p964
tp965
a(V0.05/[sqrt(0.16/200)]
p966
V(0.25 - 0.2)/(0.2(1 - 0.2))^0.5
p967
(lp968
(S'R.0'
p969
F0.05
V0.05
p970
V0.25 - 0.2
p971
tp972
aVatorr
p973
(lp974
(V$phi
p975
V0
p976
tp977
a(V$x
p978
V0.05
p979
tp980
a(V$phi
p981
V0
p982
tp983
a(V$x
p984
V0.05
p985
tp986
a(V$phi
p987
V0
p988
tp989
a(V$x
p990
V0.05
p991
tp992
a(V$phi
p993
V0
p994
tp995
a(V$x
p996
V0.05
p997
tp998
aV2015-11-11 22:52:57
p999
tp1000
a(g966
V[(50/200) - 0.2]/[(0.2) * (1 - 0.2)]^0.5
p1001
(lp1002
(S'R.0'
p1003
F0.05
V0.05
p1004
V(50/200) - 0.2
p1005
tp1006
aVatorr
p1007
g974
V2015-11-11 22:53:42
p1008
tp1009
a(g11
V((50/200)-(40/200))/sqrt(( ((50^2)+ (40^2) )/2))
p1010
(lp1011
(S'R.0'
p1012
F0.05
V0.05
p1013
V(50/200)-(40/200)
p1014
tp1015
aVlywong
p1016
(lp1017
(V$phi
p1018
V0
p1019
tp1020
a(V$x
p1021
V0.05
p1022
tp1023
a(V$phi
p1024
V0
p1025
tp1026
a(V$x
p1027
V0.05
p1028
tp1029
a(V$phi
p1030
V0
p1031
tp1032
a(V$x
p1033
V0.05
p1034
tp1035
a(V$phi
p1036
V0
p1037
tp1038
a(V$x
p1039
V0.05
p1040
tp1041
aV2015-11-12 03:27:03
p1042
tp1043
a(V0.05/[sqrt(0.16/200)]
p1044
V((50/200) - .20) / (.20(1 - .20)200)
p1045
(lp1046
(S'R.0'
p1047
F0.05
V0.05
p1048
V(50/200) - .20
p1049
tp1050
aVahh002
p1051
(lp1052
(V$phi
p1053
V0
p1054
tp1055
a(V$x
p1056
V0.05
p1057
tp1058
a(V$phi
p1059
V0
p1060
tp1061
a(V$x
p1062
V0.05
p1063
tp1064
a(V$phi
p1065
V0
p1066
tp1067
a(V$x
p1068
V0.05
p1069
tp1070
a(V$phi
p1071
V0
p1072
tp1073
a(V$x
p1074
V0.05
p1075
tp1076
aV2015-11-12 04:21:22
p1077
tp1078
a(V0.05/[sqrt(0.16/200)]
p1079
V.05/(200*.2*.8)
p1080
(lp1081
(S'R.0'
p1082
F0.05
V0.05
p1083
V.05/
p1084
tp1085
aVcagatep
p1086
(lp1087
(V$phi
p1088
V0
p1089
tp1090
a(V$x
p1091
V0.05
p1092
tp1093
a(V$phi
p1094
V0
p1095
tp1096
a(V$x
p1097
V0.05
p1098
tp1099
a(V$phi
p1100
V0
p1101
tp1102
a(V$x
p1103
V0.05
p1104
tp1105
a(V$phi
p1106
V0
p1107
tp1108
a(V$x
p1109
V0.05
p1110
tp1111
aV2015-11-12 21:41:57
p1112
tp1113
a(g1079
V.05/sqrt(200*.2*.8)
p1114
(lp1115
(S'R.0'
p1116
F0.05
V0.05
p1117
V.05/
p1118
tp1119
aVcagatep
p1120
g1087
V2015-11-12 21:42:45
p1121
tp1122
a(V0.05/[sqrt(0.16/200)]
p1123
V((50/200)-(40/200))/((.2*.8)/200)
p1124
(lp1125
(S'R.0'
p1126
F0.05
V0.05
p1127
V(50/200)-(40/200)
p1128
tp1129
aVyhhan
p1130
(lp1131
(V$phi
p1132
V0
p1133
tp1134
a(V$x
p1135
V0.05
p1136
tp1137
a(V$phi
p1138
V0
p1139
tp1140
a(V$x
p1141
V0.05
p1142
tp1143
a(V$phi
p1144
V0
p1145
tp1146
a(V$x
p1147
V0.05
p1148
tp1149
a(V$phi
p1150
V0
p1151
tp1152
a(V$x
p1153
V0.05
p1154
tp1155
aV2015-11-13 04:39:23
p1156
tp1157
a(g1123
V((50/200)-(40/200))/((.25*.75)/200)
p1158
(lp1159
(S'R.0'
p1160
F0.05
V0.05
p1161
V(50/200)-(40/200)
p1162
tp1163
aVyhhan
p1164
g1131
V2015-11-13 04:40:14
p1165
tp1166
a(g1123
V((50/200)-(40/200))/((.25*.75)/200)^.5
p1167
(lp1168
(S'R.0'
p1169
F0.05
V0.05
p1170
V(50/200)-(40/200)
p1171
tp1172
aVyhhan
p1173
g1131
V2015-11-13 04:41:11
p1174
tp1175
a(V0.05/[sqrt(0.16/200)]
p1176
V(.25 - .2)/((.2)(.8)/(200)^(1/2))
p1177
(lp1178
(S'R.0'
p1179
F0.05
V0.05
p1180
V.25 - .2)
p1181
tp1182
aVbtn023
p1183
(lp1184
(V$phi
p1185
V0
p1186
tp1187
a(V$x
p1188
V0.05
p1189
tp1190
a(V$phi
p1191
V0
p1192
tp1193
a(V$x
p1194
V0.05
p1195
tp1196
a(V$phi
p1197
V0
p1198
tp1199
a(V$x
p1200
V0.05
p1201
tp1202
a(V$phi
p1203
V0
p1204
tp1205
a(V$x
p1206
V0.05
p1207
tp1208
aV2015-11-13 08:25:50
p1209
tp1210
a(V0.05/[sqrt(0.16/200)]
p1211
V(.25-.2)/sqrt(200)
p1212
(lp1213
(S'R.0'
p1214
F0.05
V0.05
p1215
V.25-.2)
p1216
tp1217
aVewbrenna
p1218
(lp1219
(V$phi
p1220
V0
p1221
tp1222
a(V$x
p1223
V0.05
p1224
tp1225
a(V$phi
p1226
V0
p1227
tp1228
a(V$x
p1229
V0.05
p1230
tp1231
a(V$phi
p1232
V0
p1233
tp1234
a(V$x
p1235
V0.05
p1236
tp1237
a(V$phi
p1238
V0
p1239
tp1240
a(V$x
p1241
V0.05
p1242
tp1243
aV2015-11-13 09:18:03
p1244
tp1245
a(V0.05/[sqrt(0.16/200)]
p1246
V(.25 -  .2) / sqrt( (.2 * .8 ) )
p1247
(lp1248
(S'R.0'
p1249
F0.05
V0.05
p1250
V.25 -  .2)
p1251
tp1252
aVv3doan
p1253
(lp1254
(V$phi
p1255
V0
p1256
tp1257
a(V$x
p1258
V0.05
p1259
tp1260
a(V$phi
p1261
V0
p1262
tp1263
a(V$x
p1264
V0.05
p1265
tp1266
a(V$phi
p1267
V0
p1268
tp1269
a(V$x
p1270
V0.05
p1271
tp1272
a(V$phi
p1273
V0
p1274
tp1275
a(V$x
p1276
V0.05
p1277
tp1278
aV2015-11-13 22:53:21
p1279
tp1280
asS'Wrong_Sign'
p1281
(lp1282
(g638
V(20 - (200/5))/sqrt(5/6 * 200/5)
p1283
tp1284
a(g638
V(20 - (200/5))/sqrt(40 * 4/5)
p1285
tp1286
a(g638
V(50/200 - (200/5))/sqrt(40 * 4/5)
p1287
tp1288
a(V0.05/[sqrt(0.16/200)]
p1289
V(50 - 40) / (800 - 1600)
p1290
tp1291
a(V0.05/[sqrt(0.16/200)]
p1292
V-3.4
p1293
tp1294
a(g1292
V-0.841621
p1295
tp1296
a(g1292
V-3.4
p1297
tp1298
a(g1292
V-0.8
p1299
tp1300
a(g1292
V-0.8/2
p1301
tp1302
a(g673
V(.20-0.25) / sqrt( (200*0.20)*(1 - 0.20 ) )
p1303
tp1304
a(g673
V(.20-0.22) / sqrt( (200*0.25)*(1 - 0.25 ) )
p1305
tp1306
a(g88
V-0.0141
p1307
tp1308
a(g88
V(0.2-0.25)/40
p1309
tp1310
a(g88
V(0.2-0.25)/(40/sqrt(200))
p1311
tp1312
a(V0.05/[sqrt(0.16/200)]
p1313
V(.20-(.2*200))/((.2*200)(1-.2))^(1/2)
p1314
tp1315
a(g1313
V(.20-(.25*200))/((.25*200)(1-(.25)))^(1/2)
p1316
tp1317
a(g274
V-8.4
p1318
tp1319
a(V0.05/[sqrt(0.16/200)]
p1320
V(200*0.2 - 50)/sqrt(200*0.2(1-0.2))
p1321
tp1322
a(V0.05/[sqrt(0.16/200)]
p1323
V(40-50)/sqrt(40)
p1324
tp1325
a(V0.05/[sqrt(0.16/200)]
p1326
V-750
p1327
tp1328
a(g824
V(0.2-0.25)/50
p1329
tp1330
a(g824
V(0.2-0.25)/(sqrt(200*0.2*0.8))
p1331
tp1332
a(g824
V(0.2-0.25)/(sqrt(0.2*0.8/200))
p1333
tp1334
a(V0.05/[sqrt(0.16/200)]
p1335
V(200*.2-50)/(sqrt(200*.2(1-.2)))
p1336
tp1337
a(g1335
V(200*.2-50)/(sqrt(200*.2))
p1338
tp1339
a(V0.05/[sqrt(0.16/200)]
p1340
V(50/200)-.20/(sqrt(.2(1-.2)/200))
p1341
tp1342
a(V0.05/[sqrt(0.16/200)]
p1343
V-10/sqrt(32)
p1344
tp1345
a(g859
V(200-(51*5))/(sqrt(.2 * (1-.2)*50))
p1346
tp1347
a(g859
V(50-(51*5))/((.2*(1-.2)/200))
p1348
tp1349
a(V0.05/[sqrt(0.16/200)]
p1350
V(50 - ((1/5)*200))/(((1/5)^2*200) - ((1/5)*200)^2)
p1351
tp1352
a(V0.05/[sqrt(0.16/200)]
p1353
V(200*.2 - 50)/(sqrt(200*.2*(1-.2)))
p1354
tp1355
a(V0.05/[sqrt(0.16/200)]
p1356
V-.2/.5
p1357
tp1358
a(V0.05/[sqrt(0.16/200)]
p1359
V.2(200) - 220*.20(1-.2)
p1360
tp1361
a(V0.05/[sqrt(0.16/200)]
p1362
V(200*.2-50)/sqrt(200*.2)
p1363
tp1364
a(g14
V(40-50)/sqrt(40)
p1365
tp1366
a(g17
V-1.7
p1367
tp1368
a(V0.05/[sqrt(0.16/200)]
p1369
V.25-.2/(((.2*.8)/200)^(1/2))
p1370
tp1371
a(V0.05/[sqrt(0.16/200)]
p1372
V(40-50)/(200*.20*.8)**0.5
p1373
tp1374
a(V0.05/[sqrt(0.16/200)]
p1375
V(40-50)/((40(.8))^(1/2))
p1376
tp1377
a(V0.05/[sqrt(0.16/200)]
p1378
V(40-50)/((200*0.2)(0.8))
p1379
tp1380
a(g1378
V(40-50)/((200*0.2)(0.8))
p1381
tp1382
a(g1378
V(40-50)/((40000*0.2)(0.8))
p1383
tp1384
a(g1378
V(40-50)/((200*0.2)(0.8))
p1385
tp1386
a(g1378
V(40-50)/(sqrt((200*0.2)(0.8)))
p1387
tp1388
a(g1378
V(40-50)/(sqrt((200*0.2)))
p1389
tp1390
a(g1378
V(40-50)/(sqrt((200*0.2)*0.8))
p1391
tp1392
a(g1378
V(40-50)/(sqrt((200*0.2*0.8)))
p1393
tp1394
a(V0.05/[sqrt(0.16/200)]
p1395
V(40 - 50)/sqrt(40*.8)
p1396
tp1397
a(V0.05/[sqrt(0.16/200)]
p1398
V(.20*200 - 200*50/200)/sqrt(200*(50/200)*(1-50/200))
p1399
tp1400
a(V0.05/[sqrt(0.16/200)]
p1401
V(40-200)/(.5)
p1402
tp1403
a(V0.05/[sqrt(0.16/200)]
p1404
V(5/200-.2)/(.2*.8/200)^(1/2)
p1405
tp1406
a(g1211
V-.842
p1407
tp1408
a(g1211
V-(50-40)/sqrt(40)
p1409
tp1410
a(g1211
V(40-50)/sqrt(40)
p1411
tp1412
a(g1211
V(40-50)/sqrt(40*(1-.2))
p1413
tp1414
a(V0.05/[sqrt(0.16/200)]
p1415
V-0.841621
p1416
tp1417
a(V0.05/[sqrt(0.16/200)]
p1418
V(200 * .2 - 50) / (sqrt((200 * .2) - (1 - .2)))
p1419
tp1420
a(g1418
V(200 * .2 - 50) / (sqrt((200 * .2) * (1 - .2)))
p1421
tp1422
a(g1415
V-0.67449
p1423
tp1424
a(V0.05/[sqrt(0.16/200)]
p1425
V(-10)/(40^(1/2))
p1426
tp1427
a(g1246
V(.2 - .25) / sqrt( (.2 * .8 ) )
p1428
tp1429
a(V0.05/[sqrt(0.16/200)]
p1430
V(32-50)/sqrt(32)
p1431
tp1432
a(g1430
V(32-40)/sqrt(32)
p1433
tp1434
a(g1430
V(40-50)/sqrt(40)
p1435
tp1436
asS"['R.1.0.0']"
p1437
(lp1438
(g362
V(50-40)/sqrt((.2*.8)/40)
p1439
(lp1440
(S'R.1.0.0'
p1441
F0.16
V0.16
p1442
V.2*.8)
p1443
tp1444
aVsayao
p1445
g370
V2015-11-11 17:00:04
p1446
tp1447
a(g362
V(50-40)/sqrt((.2*.8)/50)
p1448
(lp1449
(S'R.1.0.0'
p1450
F0.16
V0.16
p1451
V.2*.8)
p1452
tp1453
aVsayao
p1454
g370
V2015-11-11 17:00:08
p1455
tp1456
a(g362
V(200-40)/sqrt((.2*.8)/50)
p1457
(lp1458
(S'R.1.0.0'
p1459
F0.16
V0.16
p1460
V.2*.8)
p1461
tp1462
aVsayao
p1463
g370
V2015-11-11 17:00:16
p1464
tp1465
a(g362
V(200-50)/sqrt((.2*.8)/40)
p1466
(lp1467
(S'R.1.0.0'
p1468
F0.16
V0.16
p1469
V.2*.8)
p1470
tp1471
aVsayao
p1472
g370
V2015-11-11 17:00:23
p1473
tp1474
a(g362
V(200-50)/sqrt(.2*.8*40)
p1475
(lp1476
(S'R.1.0.0'
p1477
F0.16
V0.16
p1478
V.2*.8*
p1479
tp1480
aVsayao
p1481
g370
V2015-11-11 17:00:51
p1482
tp1483
a(g362
V(200-50)/sqrt(.2*.8*200)
p1484
(lp1485
(S'R.1.0.0'
p1486
F0.16
V0.16
p1487
V.2*.8*
p1488
tp1489
aVsayao
p1490
g370
V2015-11-11 17:01:00
p1491
tp1492
a(g362
V(200-40)/sqrt(.2*.8*200)
p1493
(lp1494
(S'R.1.0.0'
p1495
F0.16
V0.16
p1496
V.2*.8*
p1497
tp1498
aVsayao
p1499
g370
V2015-11-11 17:01:14
p1500
tp1501
a(V0.05/[sqrt(0.16/200)]
p1502
V(200-0.2*200)/(sqrt(0.2*(1-0.2)200))
p1503
(lp1504
(S'R.1.0.0'
p1505
F0.16
V0.16
p1506
V0.2*(1-0.2)
p1507
tp1508
aVtpmach
p1509
(lp1510
(V$phi
p1511
V0
p1512
tp1513
a(V$x
p1514
V0.05
p1515
tp1516
a(V$phi
p1517
V0
p1518
tp1519
a(V$x
p1520
V0.05
p1521
tp1522
a(V$phi
p1523
V0
p1524
tp1525
a(V$x
p1526
V0.05
p1527
tp1528
a(V$phi
p1529
V0
p1530
tp1531
a(V$x
p1532
V0.05
p1533
tp1534
aV2015-11-12 16:30:45
p1535
tp1536
asS"['R.0', 'R.1.0.1']"
p1537
(lp1538
(g546
V0.05/sqrt(0.20/200)
p1539
(lp1540
(S'R.0'
p1541
F0.05
V0.05
p1542
V0.05
p1543
tp1544
a(S'R.1.0.1'
p1545
F200.0
V200
p1546
V200
p1547
tp1548
aVdis003
p1549
g554
V2015-11-13 21:54:26
p1550
tp1551
asS"['R']"
p1552
(lp1553
(V0.05/[sqrt(0.16/200)]
p1554
V(50 - 40) / 4 sqrt(2)
p1555
(lp1556
(S'R'
p1557
F1.7677669529663689
g1554
g1555
tp1558
aVjjm019
p1559
(lp1560
(V$phi
p1561
V0
p1562
tp1563
a(V$x
p1564
V0.05
p1565
tp1566
a(V$phi
p1567
V0
p1568
tp1569
a(V$x
p1570
V0.05
p1571
tp1572
a(V$phi
p1573
V0
p1574
tp1575
a(V$x
p1576
V0.05
p1577
tp1578
a(V$phi
p1579
V0
p1580
tp1581
a(V$x
p1582
V0.05
p1583
tp1584
aV2015-11-11 03:13:38
p1585
tp1586
assV2
p1587
g2
(g3
tp1588
Rp1589
g6
(lp1590
(VQ(1.76777)
p1591
V1
p1592
tp1593
a(g1591
V3
p1594
tp1595
a(VQ(1.76777)
p1596
V0
p1597
tp1598
a(VQ(1.76777)
p1599
V0
p1600
tp1601
a(g1599
V5
p1602
tp1603
a(VQ(1.76777)
p1604
V1
p1605
tp1606
a(g1604
V2
p1607
tp1608
a(g1604
V3
p1609
tp1610
a(g1604
V4
p1611
tp1612
a(VQ(1.76777)
p1613
V20
p1614
tp1615
asS"['R.0']"
p1616
(lp1617
(g1604
V1.76777-.2
p1618
(lp1619
(S'R.0'
p1620
F1.76777
V1.76777
p1621
V1.76777
p1622
tp1623
aVeaherman
p1624
(lp1625
(V$phi
p1626
V0
p1627
tp1628
a(V$x
p1629
V0.05
p1630
tp1631
a(V$phi
p1632
V0
p1633
tp1634
a(V$x
p1635
V0.05
p1636
tp1637
a(V$phi
p1638
V0
p1639
tp1640
a(V$x
p1641
V0.05
p1642
tp1643
a(V$phi
p1644
V0
p1645
tp1646
a(V$x
p1647
V0.05
p1648
tp1649
aV2015-11-13 20:21:06
p1650
tp1651
asg1281
(lp1652
(VQ(1.76777)
p1653
V1 - [(50/200) - 0.2]/[(0.2) * (1 - 0.2)/200]^0.5
p1654
tp1655
a(g1604
V.2-1.76777
p1656
tp1657
a(g1604
V-.2608
p1658
tp1659
ass.