(dp0
V1
p1
(dp2
Vdmn009
p3
(dp4
S'part1_correct_attempt'
p5
(lp6
S'0:06:14'
p7
aV.382089
p8
asS'first_attempt'
p9
V2015-11-05 09:12:08
p10
sS'part1_incorrect_attempt'
p11
(lp12
(S'0:00:00'
p13
V23/5
p14
tp15
a(S'0:02:08'
p16
V23/5
p17
tp18
a(S'0:02:45'
p19
V23/5
p20
tp21
a(S'0:04:11'
p22
V23/5
p23
tp24
assVtstevens
p25
(dp26
S'part1_correct_attempt'
p27
(lp28
S'0:00:18'
p29
aVQ(0.3)
p30
asg9
V2015-11-06 11:59:43
p31
sS'part1_incorrect_attempt'
p32
(lp33
(S'0:00:00'
p34
V24*.5
p35
tp36
assVjfalcone
p37
(dp38
S'part1_correct_attempt'
p39
(lp40
S'0:00:21'
p41
aVQ(.3)
p42
asg9
V2015-11-05 05:37:08
p43
sS'part1_incorrect_attempt'
p44
(lp45
(S'0:00:00'
p46
V26/4
p47
tp48
assVctroncos
p49
(dp50
S'part1_correct_attempt'
p51
(lp52
S'0:06:20'
p53
aVQ(0.3)
p54
asg9
V2015-11-05 17:10:34
p55
sS'part1_incorrect_attempt'
p56
(lp57
(S'0:00:00'
p58
V24/6
p59
tp60
a(S'0:00:51'
p61
V24/6
p62
tp63
a(S'0:00:59'
p64
V24/6
p65
tp66
a(S'0:01:06'
p67
V24/6
p68
tp69
a(S'0:01:22'
p70
V24/6
p71
tp72
a(S'0:03:36'
p73
V24/6
p74
tp75
a(S'0:05:37'
p76
V24/6
p77
tp78
assVhkhodada
p79
(dp80
S'part1_correct_attempt'
p81
(lp82
S'0:03:26'
p83
aV1-Phi(0.3)
p84
asg9
V2015-10-31 17:42:02
p85
sS'part1_incorrect_attempt'
p86
(lp87
(S'0:00:00'
p88
V0.7
p89
tp90
assVmroknich
p91
(dp92
S'part1_correct_attempt'
p93
(lp94
S'0:15:53'
p95
aV1-(1/2+1/2erf(.3/sqrt(2)))
p96
asg9
V2015-11-01 21:59:53
p97
sS'part1_incorrect_attempt'
p98
(lp99
(S'0:00:00'
p100
V26*(1/6)
p101
tp102
a(S'0:02:27'
p103
V26*(1/6)
p104
tp105
a(S'0:03:23'
p106
V26*(1/6)
p107
tp108
a(S'0:04:21'
p109
V26*(1/6)
p110
tp111
assVd6he
p112
(dp113
S'part1_correct_attempt'
p114
(lp115
S'0:18:55'
p116
aV1-Phi(0.3)
p117
asg9
V2015-11-05 05:50:11
p118
sS'part1_incorrect_attempt'
p119
(lp120
(S'0:00:00'
p121
V0.7
p122
tp123
assVmasaro
p124
(dp125
S'part1_correct_attempt'
p126
(lp127
S'0:00:05'
p128
aV1-0.6179
p129
asg9
V2015-11-03 17:10:53
p130
sS'part1_incorrect_attempt'
p131
(lp132
(S'0:00:00'
p133
V0.6179
p134
tp135
assVkrau
p136
(dp137
S'part1_correct_attempt'
p138
(lp139
S'0:00:18'
p140
aVQ(.3)
p141
asg9
V2015-11-05 03:11:21
p142
sS'part1_incorrect_attempt'
p143
(lp144
(S'0:00:00'
p145
V.7
p146
tp147
assVcfgutier
p148
(dp149
S'part1_correct_attempt'
p150
(lp151
S'0:01:46'
p152
aV1-(1/2 + 1/2erf(.3/sqrt(2)))
p153
asg9
V2015-11-06 20:03:13
p154
sS'part1_incorrect_attempt'
p155
(lp156
(S'0:00:00'
p157
V30/4
p158
tp159
a(S'0:00:24'
p160
V21/12
p161
tp162
assVpcdo
p163
(dp164
S'part1_correct_attempt'
p165
(lp166
S'0:03:24'
p167
aVQ(0.3)
p168
asg9
V2015-11-02 18:55:14
p169
sS'part1_incorrect_attempt'
p170
(lp171
(S'0:00:00'
p172
V29*.25
p173
tp174
a(S'0:00:33'
p175
V29*.25
p176
tp177
a(S'0:01:20'
p178
V29*.25
p179
tp180
a(S'0:01:44'
p181
V29*.25
p182
tp183
a(S'0:01:52'
p184
V29*.25
p185
tp186
a(S'0:02:00'
p187
V29*.25
p188
tp189
assVpvl001
p190
(dp191
S'part1_correct_attempt'
p192
(lp193
S'0:00:13'
p194
aV1 - Phi(0.3)
p195
asg9
V2015-11-03 20:47:23
p196
sS'part1_incorrect_attempt'
p197
(lp198
(S'0:00:00'
p199
V1 - Phi(3)
p200
tp201
assVt2li
p202
(dp203
S'part1_correct_attempt'
p204
(lp205
S'0:01:00'
p206
aV1-(0.5+0.5*erf(0.3/sqrt(2)))
p207
asg9
V2015-11-06 02:56:38
p208
sS'part1_incorrect_attempt'
p209
(lp210
(S'0:00:00'
p211
V0.7
p212
tp213
assVbeyounge
p214
(dp215
S'part1_correct_attempt'
p216
(lp217
S'0:01:51'
p218
aV1 - [(1/2) + ((1/2) * erf(0.3/sqrt(2)))]
p219
asg9
V2015-10-30 06:03:19
p220
sS'part1_incorrect_attempt'
p221
(lp222
(S'0:00:00'
p223
V3.820886 ^ (-1)
p224
tp225
assVamquinte
p226
(dp227
S'part1_correct_attempt'
p228
(lp229
S'0:00:42'
p230
aV.382
p231
asg9
V2015-11-05 06:34:01
p232
sS'part1_incorrect_attempt'
p233
(lp234
(S'0:00:00'
p235
V.618
p236
tp237
assVbakang
p238
(dp239
S'part1_correct_attempt'
p240
(lp241
S'0:01:51'
p242
aV1-Phi(0.3)
p243
asg9
V2015-11-05 08:50:00
p244
sS'part1_incorrect_attempt'
p245
(lp246
(S'0:00:00'
p247
V1/0.3
p248
tp249
a(S'0:00:00'
p250
V0/0.3
p251
tp252
assVrsmurlo
p253
(dp254
S'part1_correct_attempt'
p255
(lp256
S'0:00:55'
p257
aVQ(.3)
p258
asg9
V2015-11-03 18:32:59
p259
sS'part1_incorrect_attempt'
p260
(lp261
(S'0:00:00'
p262
V3.820886e^-1
p263
tp264
assVjnatale
p265
(dp266
S'part1_correct_attempt'
p267
(lp268
S'0:00:31'
p269
aV.382
p270
asg9
V2015-11-05 02:19:05
p271
sS'part1_incorrect_attempt'
p272
(lp273
(S'0:00:00'
p274
V3.82*e^-1
p275
tp276
assVrlhagen
p277
(dp278
S'part1_correct_attempt'
p279
(lp280
S'0:03:13'
p281
aV1-Phi(0.3)
p282
asg9
V2015-10-31 19:13:39
p283
sS'part1_incorrect_attempt'
p284
(lp285
(S'0:00:00'
p286
V1-0.3
p287
tp288
assVagarango
p289
(dp290
S'part1_correct_attempt'
p291
(lp292
S'0:03:05'
p293
aV0.382
p294
asg9
V2015-11-06 20:11:14
p295
sS'part1_incorrect_attempt'
p296
(lp297
(S'0:00:00'
p298
V(.5)+(.5)*(0.3/sqrt(2))
p299
tp300
assVbtn023
p301
(dp302
S'part1_correct_attempt'
p303
(lp304
S'0:14:43'
p305
aV1-(1/2+1/2erf(.3/sqrt(2)))
p306
asg9
V2015-11-06 11:06:26
p307
sS'part1_incorrect_attempt'
p308
(lp309
(S'0:00:00'
p310
V23*(1/5)
p311
tp312
a(S'0:01:37'
p313
V23*(1/5)
p314
tp315
a(S'0:06:41'
p316
V23*(1/5)
p317
tp318
a(S'0:06:52'
p319
V23*(1/5)
p320
tp321
a(S'0:08:04'
p322
V23*(1/5)
p323
tp324
a(S'0:09:06'
p325
V23*(1/5)
p326
tp327
assVlalacson
p328
(dp329
S'part1_correct_attempt'
p330
(lp331
S'0:08:24'
p332
aVQ(.3)
p333
asg9
V2015-11-05 08:49:18
p334
sS'part1_incorrect_attempt'
p335
(lp336
(S'0:00:00'
p337
V24/5
p338
tp339
a(S'0:00:00'
p340
V24/5
p341
tp342
a(S'0:00:57'
p343
V24/5
p344
tp345
a(S'0:00:00'
p346
V24/5
p347
tp348
assVdwzhang
p349
(dp350
S'part1_correct_attempt'
p351
(lp352
S'0:01:52'
p353
aVQ(0.3)
p354
asg9
V2015-11-06 21:31:17
p355
sS'part1_incorrect_attempt'
p356
(lp357
(S'0:00:00'
p358
V20 * 6
p359
tp360
a(S'0:00:00'
p361
V20 / 6
p362
tp363
assVatorr
p364
(dp365
S'part1_correct_attempt'
p366
(lp367
S'0:01:22'
p368
aV1 - Phi(0.3)
p369
asg9
V2015-11-05 20:10:41
p370
sS'part1_incorrect_attempt'
p371
(lp372
(S'0:00:00'
p373
V1-0.3
p374
tp375
a(S'0:00:38'
p376
V0.5 + 0.5*[0.3/(2^0.5)]
p377
tp378
assVjhw015
p379
(dp380
S'part1_correct_attempt'
p381
(lp382
S'0:03:32'
p383
aV1-(0.5 + 0.5erf(0.3/sqrt(2)))
p384
asg9
V2015-11-06 19:10:40
p385
sS'part1_incorrect_attempt'
p386
(lp387
(S'0:00:00'
p388
V(1/6)29
p389
tp390
assVdsmonaha
p391
(dp392
S'part1_correct_attempt'
p393
(lp394
S'2 days, 3:47:47'
p395
aVQ(.3)
p396
asg9
V2015-11-04 15:35:39
p397
sS'part1_incorrect_attempt'
p398
(lp399
(S'0:00:00'
p400
V.3
p401
tp402
a(S'0:01:33'
p403
Ve^0
p404
tp405
a(S'0:12:08'
p406
V1-.3
p407
tp408
a(S'0:22:17'
p409
V(1/2^(1/2))e^-(.3^2/2)
p410
tp411
assVyeh013
p412
(dp413
S'part1_correct_attempt'
p414
(lp415
S'0:00:13'
p416
aV1-Phi(0.3)
p417
asg9
V2015-11-05 03:49:56
p418
sS'part1_incorrect_attempt'
p419
(lp420
(S'0:00:00'
p421
V1-Phi(0.7)
p422
tp423
assVhah008
p424
(dp425
S'part1_correct_attempt'
p426
(lp427
S'0:04:16'
p428
aVQ(0.3)
p429
asg9
V2015-11-06 23:08:20
p430
sS'part1_incorrect_attempt'
p431
(lp432
(S'0:00:00'
p433
V1/2 + 1/2
p434
tp435
a(S'0:00:30'
p436
V21* (1/6)
p437
tp438
a(S'0:01:28'
p439
V21* (1/6)
p440
tp441
a(S'0:03:51'
p442
V21* (1/6)
p443
tp444
assVl8ngo
p445
(dp446
S'part1_correct_attempt'
p447
(lp448
S'0:01:06'
p449
aV0.382089
p450
asg9
V2015-11-04 01:11:33
p451
sS'part1_incorrect_attempt'
p452
(lp453
(S'0:00:00'
p454
V2.7
p455
tp456
assVsayao
p457
(dp458
S'part1_correct_attempt'
p459
(lp460
S'0:00:53'
p461
aV1-(1/2+1/2erf(.3/sqrt(2)))
p462
asg9
V2015-11-05 03:38:46
p463
sS'part1_incorrect_attempt'
p464
(lp465
(S'0:00:00'
p466
V(22+23)/2/22
p467
tp468
assVachava
p469
(dp470
S'part1_correct_attempt'
p471
(lp472
S'0:02:11'
p473
aV3.820886*10^(-1)
p474
asg9
V2015-11-06 08:10:08
p475
sS'part1_incorrect_attempt'
p476
(lp477
(S'0:00:00'
p478
V.6179
p479
tp480
a(S'0:01:15'
p481
V1-(3.820886*10^(-1))
p482
tp483
assVhmshah
p484
(dp485
S'part1_correct_attempt'
p486
(lp487
S'0:00:23'
p488
aVQ(.3)
p489
asg9
V2015-11-05 10:23:46
p490
sS'part1_incorrect_attempt'
p491
(lp492
(S'0:00:00'
p493
V.5*((1.7^0 / (0! * e^1.7) ) + (1^0 / (0! * e^1) ))
p494
tp495
a(S'0:00:09'
p496
V1-0.275281
p497
tp498
assVcstringh
p499
(dp500
S'part1_correct_attempt'
p501
(lp502
S'0:00:52'
p503
aV1-Phi(0.3)
p504
asg9
V2015-11-04 07:05:51
p505
sS'part1_incorrect_attempt'
p506
(lp507
(S'0:00:00'
p508
V0.3
p509
tp510
assVv4sharma
p511
(dp512
S'part1_correct_attempt'
p513
(lp514
S'0:01:22'
p515
aV1 - ((1/2) + ((1/2) (0.235823)))
p516
asg9
V2015-11-05 22:13:29
p517
sS'part1_incorrect_attempt'
p518
(lp519
(S'0:00:00'
p520
V1 - ((1/2) + ((1/2) (0.328627)))
p521
tp522
assVaordookh
p523
(dp524
S'part1_correct_attempt'
p525
(lp526
S'0:00:45'
p527
aV1-0.6179
p528
asg9
V2015-11-04 22:21:45
p529
sS'part1_incorrect_attempt'
p530
(lp531
(S'0:00:00'
p532
V0.5120
p533
tp534
a(S'0:00:15'
p535
V0.6179
p536
tp537
assVbpandayk
p538
(dp539
S'part1_correct_attempt'
p540
(lp541
S'0:00:14'
p542
aV1-(1/2+(1/2)erf(0.3/sqrt2))
p543
asg9
V2015-11-06 21:31:33
p544
sS'part1_incorrect_attempt'
p545
(lp546
(S'0:00:00'
p547
V22/4
p548
tp549
assVtak068
p550
(dp551
S'part1_correct_attempt'
p552
(lp553
S'0:16:58'
p554
aVQ(0.3)
p555
asg9
V2015-11-05 21:10:39
p556
sS'part1_incorrect_attempt'
p557
(lp558
(S'0:00:00'
p559
V30*(1/4)
p560
tp561
a(S'0:00:26'
p562
V30*(1/4)
p563
tp564
a(S'0:01:52'
p565
V30*(1/4)
p566
tp567
a(S'0:02:29'
p568
V30*(1/4)
p569
tp570
a(S'0:15:45'
p571
VQ((11-30/4)/(sqrt(30*1/4*(1-1/4))))
p572
tp573
a(S'0:16:47'
p574
VQ((0.3)/(sqrt(30*1/4*(1-1/4))))
p575
tp576
assVs2chaudh
p577
(dp578
S'part1_correct_attempt'
p579
(lp580
S'16:17:28'
p581
aV1-(1/2+1/2erf(.3/sqrt(2)))
p582
asg9
V2015-11-06 07:05:56
p583
sS'part1_incorrect_attempt'
p584
(lp585
(S'0:00:00'
p586
V28/5
p587
tp588
assVabjara
p589
(dp590
S'part1_correct_attempt'
p591
(lp592
S'0:02:33'
p593
aVQ(.3)
p594
asg9
V2015-11-04 03:03:29
p595
sS'part1_incorrect_attempt'
p596
(lp597
(S'0:00:00'
p598
V.7
p599
tp600
assVaurodrig
p601
(dp602
S'part1_correct_attempt'
p603
(lp604
S'0:02:14'
p605
aV0.382089
p606
asg9
V2015-11-06 23:31:52
p607
sS'part1_incorrect_attempt'
p608
(lp609
(S'0:00:00'
p610
V3.820886
p611
tp612
assVkosung
p613
(dp614
S'part1_correct_attempt'
p615
(lp616
S'0:03:53'
p617
aV0.5-0.5erf(0.3/1.414)
p618
asg9
V2015-11-05 18:15:14
p619
sS'part1_incorrect_attempt'
p620
(lp621
(S'0:00:00'
p622
V3.82*e^-1
p623
tp624
a(S'0:00:25'
p625
V3.82*e^-0.1
p626
tp627
a(S'0:02:42'
p628
V3.82e^-01
p629
tp630
assVk3tan
p631
(dp632
S'part1_correct_attempt'
p633
(lp634
S'0:00:17'
p635
aV0.3820886
p636
asg9
V2015-11-04 06:07:02
p637
sS'part1_incorrect_attempt'
p638
(lp639
(S'0:00:00'
p640
V3.820886e^-1
p641
tp642
asssV3
p643
(dp644
Vgthorn
p645
(dp646
S'part3_correct_attempt'
p647
(lp648
S'11:05:57'
p649
aVsqrt(.2*.8*28)
p650
asS'part2_correct_attempt'
p651
(lp652
S'0:00:59'
p653
aV28/5
p654
asg9
V2015-11-05 07:00:22
p655
sS'part3_incorrect_attempt'
p656
(lp657
(S'10:46:57'
p658
Vsqrt((.2 * .8)/28)
p659
tp660
a(S'11:02:19'
p661
V(28^2/5)-(28/5)^2
p662
tp663
assVkbielawi
p664
(dp665
S'part3_correct_attempt'
p666
(lp667
S'0:07:20'
p668
aVsqrt((1/5)*(1-(1/5))*24)
p669
asS'part2_correct_attempt'
p670
(lp671
S'0:02:14'
p672
aV24/5
p673
asg9
V2015-11-05 21:20:09
p674
sS'part3_incorrect_attempt'
p675
(lp676
(S'0:06:18'
p677
Vsqrt((24/5)*(1-(1/5))*24)
p678
tp679
assVjguanzho
p680
(dp681
S'part3_correct_attempt'
p682
(lp683
S'2:52:03'
p684
aV(1/6*5/6*28)**0.5
p685
asS'part2_correct_attempt'
p686
(lp687
S'0:01:00'
p688
aV28*(1/6)
p689
asg9
V2015-11-05 14:49:30
p690
sS'part3_incorrect_attempt'
p691
(lp692
(S'0:01:00'
p693
V(28*(1/6))**0.5
p694
tp695
assValakamsa
p696
(dp697
S'part3_correct_attempt'
p698
(lp699
S'0:00:27'
p700
aVsqrt(24*(1/6)*(1-(1/6)))
p701
asS'part2_correct_attempt'
p702
(lp703
S'0:00:00'
p704
aV4
p705
asg9
V2015-11-04 18:21:07
p706
sS'part3_incorrect_attempt'
p707
(lp708
(S'0:00:00'
p709
V24*(1/6)*(1-(1/6))
p710
tp711
assVctgraves
p712
(dp713
S'part3_correct_attempt'
p714
(lp715
S'2 days, 21:04:23'
p716
aV(5/36*29)**0.5
p717
asS'part2_correct_attempt'
p718
(lp719
S'0:01:06'
p720
aV29/6
p721
asg9
V2015-11-03 05:25:59
p722
sS'part3_incorrect_attempt'
p723
(lp724
(S'2 days, 20:36:30'
p725
V1/6
p726
tp727
a(S'2 days, 20:41:33'
p728
V( 29*29/36- 29/36)**0.5
p729
tp730
a(S'2 days, 20:50:29'
p731
V(5/36/29)**0.5
p732
tp733
assVdkurli
p734
(dp735
S'part3_correct_attempt'
p736
(lp737
S'0:14:54'
p738
aVsqrt(22*3/16)
p739
asS'part2_correct_attempt'
p740
(lp741
S'0:00:54'
p742
aV22/4
p743
asg9
V2015-11-05 03:11:30
p744
sS'part3_incorrect_attempt'
p745
(lp746
(S'0:02:28'
p747
V22/4
p748
tp749
a(S'0:05:13'
p750
V3.31662479036
p751
tp752
a(S'0:13:49'
p753
VPhi(1)
p754
tp755
assVdan029
p756
(dp757
S'part3_correct_attempt'
p758
(lp759
S'0:07:40'
p760
aVsqrt(3.75)
p761
asS'part2_correct_attempt'
p762
(lp763
S'0:06:47'
p764
aV5
p765
asg9
V2015-11-05 09:16:18
p766
sS'part3_incorrect_attempt'
p767
(lp768
(S'0:07:20'
p769
V3.75
p770
tp771
assVjyc018
p772
(dp773
S'part3_correct_attempt'
p774
(lp775
S'5:07:40'
p776
aVsqrt(20*1/6*(5/6))
p777
asS'part2_correct_attempt'
p778
(lp779
S'4:59:40'
p780
aV20/6
p781
asg9
V2015-11-04 19:01:01
p782
sS'part3_incorrect_attempt'
p783
(lp784
(S'5:04:16'
p785
V0.5
p786
tp787
a(S'5:04:22'
p788
V1/6
p789
tp790
a(S'5:06:40'
p791
V20*1/6*(5/6)
p792
tp793
assVvqt004
p794
(dp795
S'part3_correct_attempt'
p796
(lp797
S'0:10:45'
p798
aVsqrt(4/25*30)
p799
asS'part2_correct_attempt'
p800
(lp801
S'0:10:09'
p802
aV30*1/5
p803
asg9
V2015-11-06 05:57:50
p804
sS'part3_incorrect_attempt'
p805
(lp806
(S'0:10:09'
p807
Vsqrt(1/25*30)
p808
tp809
assVdgunawan
p810
(dp811
S'part3_correct_attempt'
p812
(lp813
S'15:23:45'
p814
aV((1/4) * 28 (1-1/4))^(1/2)
p815
asS'part2_correct_attempt'
p816
(lp817
S'0:00:00'
p818
aV(1/4) * 28
p819
asg9
V2015-11-05 08:48:59
p820
sS'part3_incorrect_attempt'
p821
(lp822
(S'0:00:00'
p823
V([(1/4) * 28]^2)^(1/2)
p824
tp825
a(S'1:03:33'
p826
V([(1/4) * 28]^2/28)^(1/2)
p827
tp828
a(S'1:05:01'
p829
V1/4
p830
tp831
a(S'1:06:24'
p832
V(13-7)^2
p833
tp834
a(S'1:06:54'
p835
V(13-7)^2/28
p836
tp837
a(S'1:07:07'
p838
V[(13-7)^2/28]^(1/2)
p839
tp840
a(S'1:07:19'
p841
V[(13-7)^2/4]^(1/2)
p842
tp843
assVmpanelo
p844
(dp845
S'part3_correct_attempt'
p846
(lp847
S'0:09:29'
p848
aVsqrt(65/18)
p849
asS'part2_correct_attempt'
p850
(lp851
S'0:00:00'
p852
aV13/3
p853
asg9
V2015-11-05 22:51:02
p854
sS'part3_incorrect_attempt'
p855
(lp856
(S'0:04:36'
p857
V65/18
p858
tp859
assVtstevens
p860
(dp861
S'part3_correct_attempt'
p862
(lp863
S'0:05:23'
p864
aV1.959591794
p865
asS'part2_correct_attempt'
p866
(lp867
S'0:00:10'
p868
aV24*.2
p869
asg9
V2015-11-06 12:00:01
p870
sS'part3_incorrect_attempt'
p871
(lp872
(S'0:00:40'
p873
V.2
p874
tp875
assVtcuddy
p876
(dp877
S'part3_correct_attempt'
p878
(lp879
S'2 days, 0:11:33'
p880
aV[ (1/4)(1-.25)24 ]**.5
p881
asS'part2_correct_attempt'
p882
(lp883
S'0:47:02'
p884
aV(1/4)24
p885
asg9
V2015-11-03 17:42:18
p886
sS'part3_incorrect_attempt'
p887
(lp888
(S'0:48:21'
p889
V(1/4)(1-(1/4))**(.5)
p890
tp891
assVdjk006
p892
(dp893
S'part3_correct_attempt'
p894
(lp895
S'1:38:44'
p896
aV(27(.25)(.75))^(1/2)
p897
asS'part2_correct_attempt'
p898
(lp899
S'0:25:13'
p900
aV27/4
p901
asg9
V2015-11-04 00:35:35
p902
sS'part3_incorrect_attempt'
p903
(lp904
(S'0:25:13'
p905
V.341*27/4
p906
tp907
a(S'0:30:35'
p908
V(.25*27)^(1/2)
p909
tp910
a(S'0:30:50'
p911
V(.25*28)^(1/2)
p912
tp913
a(S'0:35:49'
p914
V(.25^2*27)^(1/2)
p915
tp916
a(S'0:36:01'
p917
V(.25^2*28)^(1/2)
p918
tp919
a(S'0:36:09'
p920
V(.25^2*26)^(1/2)
p921
tp922
a(S'1:12:55'
p923
V(.25*27)^(1/2)
p924
tp925
a(S'1:16:47'
p926
V27*34.1
p927
tp928
a(S'1:17:00'
p929
V27*.341
p930
tp931
a(S'1:20:54'
p932
V27*.34
p933
tp934
a(S'1:25:59'
p935
V6.75*.341
p936
tp937
a(S'1:26:04'
p938
V6.75*.34
p939
tp940
assVdando
p941
(dp942
S'part3_correct_attempt'
p943
(lp944
S'0:51:46'
p945
aVsqrt((1/5)(4/5)23)
p946
asS'part2_correct_attempt'
p947
(lp948
S'0:00:00'
p949
aV23/5
p950
asg9
V2015-11-06 22:50:24
p951
sS'part3_incorrect_attempt'
p952
(lp953
(S'0:14:53'
p954
V3.6
p955
tp956
assVdsriniva
p957
(dp958
S'part3_correct_attempt'
p959
(lp960
S'2:33:19'
p961
aVsqrt(27*(1/6)(5/6))
p962
asS'part2_correct_attempt'
p963
(lp964
S'0:03:10'
p965
aV27/6
p966
asg9
V2015-11-05 16:50:26
p967
sS'part3_incorrect_attempt'
p968
(lp969
(S'0:05:38'
p970
V0.372678
p971
tp972
a(S'0:12:05'
p973
V1/27
p974
tp975
a(S'0:12:17'
p976
V1/6
p977
tp978
a(S'2:32:58'
p979
V27*(1/6)(5/6)
p980
tp981
assVsayao
p982
(dp983
S'part3_correct_attempt'
p984
(lp985
S'19:33:44'
p986
aVsqrt(.25*.75*22)
p987
asS'part2_correct_attempt'
p988
(lp989
S'0:04:04'
p990
aV.25*22
p991
asg9
V2015-11-05 03:39:39
p992
sS'part3_incorrect_attempt'
p993
(lp994
(S'0:09:27'
p995
Vsqrt(((1-5.5)^2+(2-5.5)^2+(3-5.5)^2+(4-5.5)^2+(5-5.5)^2+(6-5.5)^2+(7-5.5)^2+(8-5.5)^2+(9-5.5)^2+(10-5.5)^2+(11-5.5)^2+(12-5.5)^2+(13-5.5)^2+(14-5.5)^2+(15-5.5)^2+(16-5.5)^2+(17-5.5)^2+(18-5.5)^2+(19-5.5)^2+(20-5.5)^2+(21-5.5)^2+(22-5.5)^2)/22)
p996
tp997
a(S'0:12:15'
p998
Vsqrt(((1-5.5)^2+(2-5.5)^2+(3-5.5)^2+(4-5.5)^2+(5-5.5)^2+(6-5.5)^2+(7-5.5)^2+(8-5.5)^2+(9-5.5)^2+(10-5.5)^2+(11-5.5)^2+(12-5.5)^2+(13-5.5)^2+(14-5.5)^2+(15-5.5)^2+(16-5.5)^2+(17-5.5)^2+(18-5.5)^2+(19-5.5)^2+(20-5.5)^2+(21-5.5)^2+(22-5.5)^2)/21)
p999
tp1000
a(S'0:16:50'
p1001
Vsqrt(((1-5.5)^2+(2-5.5)^2+(3-5.5)^2+(4-5.5)^2+(5-5.5)^2+(6-5.5)^2+(7-5.5)^2+(8-5.5)^2+(9-5.5)^2+(10-5.5)^2+(11-5.5)^2+(12-5.5)^2+(13-5.5)^2+(14-5.5)^2+(15-5.5)^2+(16-5.5)^2+(17-5.5)^2+(18-5.5)^2+(19-5.5)^2+(20-5.5)^2+(21-5.5)^2+(22-5.5)^2)/21)/4
p1002
tp1003
a(S'0:17:01'
p1004
Vsqrt(((1-5.5)^2+(2-5.5)^2+(3-5.5)^2+(4-5.5)^2+(5-5.5)^2+(6-5.5)^2+(7-5.5)^2+(8-5.5)^2+(9-5.5)^2+(10-5.5)^2+(11-5.5)^2+(12-5.5)^2+(13-5.5)^2+(14-5.5)^2+(15-5.5)^2+(16-5.5)^2+(17-5.5)^2+(18-5.5)^2+(19-5.5)^2+(20-5.5)^2+(21-5.5)^2+(22-5.5)^2)/21)*4
p1005
tp1006
a(S'0:17:13'
p1007
Vsqrt(((1-5.5)^2+(2-5.5)^2+(3-5.5)^2+(4-5.5)^2+(5-5.5)^2+(6-5.5)^2+(7-5.5)^2+(8-5.5)^2+(9-5.5)^2+(10-5.5)^2+(11-5.5)^2+(12-5.5)^2+(13-5.5)^2+(14-5.5)^2+(15-5.5)^2+(16-5.5)^2+(17-5.5)^2+(18-5.5)^2+(19-5.5)^2+(20-5.5)^2+(21-5.5)^2+(22-5.5)^2)/21)/2
p1008
tp1009
assVm4bui
p1010
(dp1011
S'part3_correct_attempt'
p1012
(lp1013
S'0:04:49'
p1014
aVsqrt(21*(1/6)*(1-1/6))
p1015
asS'part2_correct_attempt'
p1016
(lp1017
S'0:02:35'
p1018
aV21/6
p1019
asg9
V2015-11-06 04:35:06
p1020
sS'part3_incorrect_attempt'
p1021
(lp1022
(S'0:04:07'
p1023
Vsqrt(21)*(1/6)*(1-1/6)
p1024
tp1025
assVflhernan
p1026
(dp1027
S'part3_correct_attempt'
p1028
(lp1029
S'0:04:04'
p1030
aVsqrt(26/5*(4/5))
p1031
asS'part2_correct_attempt'
p1032
(lp1033
S'0:00:00'
p1034
aV26/5
p1035
asg9
V2015-11-03 20:40:09
p1036
sS'part3_incorrect_attempt'
p1037
(lp1038
(S'0:00:45'
p1039
V(26/5)^2
p1040
tp1041
assVa2ahmed
p1042
(dp1043
S'part3_correct_attempt'
p1044
(lp1045
S'0:12:26'
p1046
aV1.707825128
p1047
asS'part2_correct_attempt'
p1048
(lp1049
S'0:04:25'
p1050
aV3.5
p1051
asg9
V2015-11-07 00:47:00
p1052
sS'part3_incorrect_attempt'
p1053
(lp1054
(S'0:05:58'
p1055
V2.5
p1056
tp1057
a(S'0:08:07'
p1058
V.119047
p1059
tp1060
a(S'0:11:12'
p1061
V35/12
p1062
tp1063
assVc1wei
p1064
(dp1065
S'part3_correct_attempt'
p1066
(lp1067
S'0:22:21'
p1068
aVsqrt(6*.8)
p1069
asS'part2_correct_attempt'
p1070
(lp1071
S'0:06:47'
p1072
aV6
p1073
asg9
V2015-11-04 06:53:18
p1074
sS'part3_incorrect_attempt'
p1075
(lp1076
(S'0:20:04'
p1077
V1-Phi(1/5)
p1078
tp1079
a(S'0:20:37'
p1080
V1/5
p1081
tp1082
assVm8woo
p1083
(dp1084
S'part3_correct_attempt'
p1085
(lp1086
S'0:09:55'
p1087
aV[(1/6)*(5/6)*30]^(1/2)
p1088
asS'part2_correct_attempt'
p1089
(lp1090
S'-1 day, 23:57:29'
p1091
aV1/6 * 30
p1092
asg9
V2015-11-05 21:11:06
p1093
sS'part3_incorrect_attempt'
p1094
(lp1095
(S'0:05:54'
p1096
V[(1/6)*(5/6)/30]^(1/2)
p1097
tp1098
assVggaddi
p1099
(dp1100
S'part3_correct_attempt'
p1101
(lp1102
S'12:34:05'
p1103
aVsqrt((3/16)*24)
p1104
asS'part2_correct_attempt'
p1105
(lp1106
S'0:05:04'
p1107
aV6
p1108
asg9
V2015-11-05 05:19:24
p1109
sS'part3_incorrect_attempt'
p1110
(lp1111
(S'0:12:34'
p1112
V(25+16+9+4+1+0+1+4+9+16+25+36+49+64+81+100+121+144+169+196+225+256+289+324)/24
p1113
tp1114
a(S'0:13:19'
p1115
V(25+16+9+4+1+0+1+4+9+16+25+36+49+64+81+100+121+144+169+196+225+256+289+324)/4/24
p1116
tp1117
a(S'0:21:21'
p1118
Vsqrt((25+16+9+4+1+0+1+4+9+16+25+36+49+64+81+100+121+144+169+196+225+256+289+324)/24)
p1119
tp1120
a(S'0:21:39'
p1121
Vsqrt((25+16+9+4+1+0+1+4+9+16+25+36+49+64+81+100+121+144+169+196+225+256+289+324)/4/24)
p1122
tp1123
assVjhp077
p1124
(dp1125
S'part3_correct_attempt'
p1126
(lp1127
S'0:22:54'
p1128
aV(15)^(1/2) / 2
p1129
asS'part2_correct_attempt'
p1130
(lp1131
S'0:00:57'
p1132
aV5
p1133
asg9
V2015-11-05 13:19:35
p1134
sS'part3_incorrect_attempt'
p1135
(lp1136
(S'0:02:06'
p1137
V(75)^(1/2)
p1138
tp1139
a(S'0:03:35'
p1140
V75^(1/2)
p1141
tp1142
a(S'0:08:28'
p1143
V5^(3/2)
p1144
tp1145
a(S'0:14:07'
p1146
V15/4
p1147
tp1148
a(S'0:17:07'
p1149
V75^(1/2)
p1150
tp1151
a(S'0:21:29'
p1152
V(3/320)^(1/2)
p1153
tp1154
assVb3hwang
p1155
(dp1156
S'part3_correct_attempt'
p1157
(lp1158
S'9:34:47'
p1159
aV(((1/6)*26)(1-(1/6)))^(1/2)
p1160
asS'part2_correct_attempt'
p1161
(lp1162
S'9:32:10'
p1163
aV(1/6)*26
p1164
asg9
V2015-11-05 09:45:50
p1165
sS'part3_incorrect_attempt'
p1166
(lp1167
(S'9:34:17'
p1168
V((1/6)*26)(1-(1/6))^1/2
p1169
tp1170
a(S'9:34:32'
p1171
V((1/6)*26)(1-(1/6))^(1/2)
p1172
tp1173
assVccn001
p1174
(dp1175
S'part3_correct_attempt'
p1176
(lp1177
S'3 days, 2:07:39'
p1178
aV((0.25(1-0.25))22)^(0.5)
p1179
asS'part2_correct_attempt'
p1180
(lp1181
S'3 days, 1:58:44'
p1182
aV22(0.25)
p1183
asg9
V2015-11-02 19:52:13
p1184
sS'part3_incorrect_attempt'
p1185
(lp1186
(S'3 days, 1:58:44'
p1187
V((0.25(1-0.25))/22)^(0.5)
p1188
tp1189
assVlguintu
p1190
(dp1191
S'part3_correct_attempt'
p1192
(lp1193
S'0:14:03'
p1194
aV(24*(1/5)*(4/5))^(1/2)
p1195
asS'part2_correct_attempt'
p1196
(lp1197
S'0:03:20'
p1198
aV24/5
p1199
asg9
V2015-11-03 04:53:50
p1200
sS'part3_incorrect_attempt'
p1201
(lp1202
(S'0:05:21'
p1203
V4.8
p1204
tp1205
a(S'0:05:55'
p1206
V(24-4.8)^(1/2)
p1207
tp1208
assVc1sorian
p1209
(dp1210
S'part3_correct_attempt'
p1211
(lp1212
S'1 day, 3:18:02'
p1213
aV(((1/6)(5/6)27))^.5
p1214
asS'part2_correct_attempt'
p1215
(lp1216
S'1:08:22'
p1217
aV(1/6)27
p1218
asg9
V2015-11-05 00:40:50
p1219
sS'part3_incorrect_attempt'
p1220
(lp1221
(S'1:13:53'
p1222
V6(7^.5)
p1223
tp1224
assVatorr
p1225
(dp1226
S'part3_correct_attempt'
p1227
(lp1228
S'0:06:22'
p1229
aV(30 * 0.2 * 0.8)^0.5
p1230
asS'part2_correct_attempt'
p1231
(lp1232
S'0:00:54'
p1233
aV(1/5) * 30
p1234
asg9
V2015-11-05 20:12:03
p1235
sS'part3_incorrect_attempt'
p1236
(lp1237
(S'0:03:24'
p1238
V((1/5) * 30)^0.5
p1239
tp1240
assVb1yao
p1241
(dp1242
S'part3_correct_attempt'
p1243
(lp1244
S'0:21:04'
p1245
aV(29*1*5/36)^0.5
p1246
asS'part2_correct_attempt'
p1247
(lp1248
S'0:11:45'
p1249
aV(29/6)
p1250
asg9
V2015-11-04 19:19:02
p1251
sS'part3_incorrect_attempt'
p1252
(lp1253
(S'0:11:45'
p1254
V((-2*(29/6)*29+8555-29*(29/6)^2)/29)^0.5
p1255
tp1256
a(S'0:17:14'
p1257
V((-2*(29/6)*30+8555-30*(29/6)^2)/29)^0.5
p1258
tp1259
a(S'0:17:43'
p1260
V((-2*(29/6)*30+8555+30*(29/6)^2)/29)^0.5
p1261
tp1262
a(S'0:18:08'
p1263
V29/6
p1264
tp1265
assVsachadal
p1266
(dp1267
S'part3_correct_attempt'
p1268
(lp1269
S'0:07:17'
p1270
aVsqrt(30*((1*(1/4)+0*(3/4)) - (1*(1/4)+0*(3/4))^2))
p1271
asS'part2_correct_attempt'
p1272
(lp1273
S'0:01:35'
p1274
aV30*(1*(1/4)+0*(3/4))
p1275
asg9
V2015-11-05 20:09:44
p1276
sS'part3_incorrect_attempt'
p1277
(lp1278
(S'0:06:53'
p1279
V30*((1*(1/4)+0*(3/4)) - (1*(1/4)+0*(3/4))^2)
p1280
tp1281
assVkrau
p1282
(dp1283
S'part3_correct_attempt'
p1284
(lp1285
S'0:15:22'
p1286
aV(29*4/25)^.5
p1287
asS'part2_correct_attempt'
p1288
(lp1289
S'0:01:27'
p1290
aV29/5
p1291
asg9
V2015-11-05 03:11:39
p1292
sS'part3_incorrect_attempt'
p1293
(lp1294
(S'0:02:29'
p1295
V11/5
p1296
tp1297
a(S'0:06:00'
p1298
V5.62731
p1299
tp1300
a(S'0:13:05'
p1301
Vsqrt((11-29/5)/29)
p1302
tp1303
assVcrmirand
p1304
(dp1305
S'part3_correct_attempt'
p1306
(lp1307
S'0:43:11'
p1308
aV(27*4/25)^.5
p1309
asS'part2_correct_attempt'
p1310
(lp1311
S'0:01:16'
p1312
aV27/5
p1313
asg9
V2015-11-03 05:26:40
p1314
sS'part3_incorrect_attempt'
p1315
(lp1316
(S'0:06:57'
p1317
V27/5 + 1
p1318
tp1319
a(S'0:08:11'
p1320
V27/15
p1321
tp1322
a(S'0:12:30'
p1323
V27-(27/5)/3
p1324
tp1325
a(S'0:12:41'
p1326
V(27-(27/5))/3
p1327
tp1328
a(S'0:13:39'
p1329
V(27/5)^1/2
p1330
tp1331
a(S'0:16:15'
p1332
V(27-27/5)^2+ (27/5)^2
p1333
tp1334
a(S'0:16:41'
p1335
V(((27-27/5)^2+ (27/5)^2)/2)^1/2
p1336
tp1337
a(S'0:17:00'
p1338
V(((27-27/5)^2+ (27/5)^2)/2)^(1/2)
p1339
tp1340
assVbeyounge
p1341
(dp1342
S'part3_correct_attempt'
p1343
(lp1344
S'6 days, 1:50:13'
p1345
aVsqrt(28*(5/36))
p1346
asS'part2_correct_attempt'
p1347
(lp1348
S'6 days, 0:08:52'
p1349
aV28/6
p1350
asg9
V2015-10-30 06:05:10
p1351
sS'part3_incorrect_attempt'
p1352
(lp1353
(S'6 days, 0:13:14'
p1354
Vsqrt((28^2) - ((28/6) ^ 2))
p1355
tp1356
a(S'6 days, 0:17:24'
p1357
Vsqrt((28) - ((28/6) ^ 2))
p1358
tp1359
a(S'6 days, 0:22:05'
p1360
Vsqrt((28 * (28/6)^2) - ((28/6) ^ 2))
p1361
tp1362
a(S'6 days, 0:30:27'
p1363
Vsqrt((28 - (28/6)) ^ 2)
p1364
tp1365
a(S'6 days, 0:45:20'
p1366
Vsqrt(7714 - ((28/6) ^ 2))
p1367
tp1368
a(S'6 days, 0:50:08'
p1369
Vsqrt((((28*5)/6) ^2) - ((28/6)^2))
p1370
tp1371
a(S'6 days, 1:11:42'
p1372
Vsqrt(((28/6)^2))
p1373
tp1374
a(S'6 days, 1:38:06'
p1375
Vsqrt((406) - ((28/6)^2))
p1376
tp1377
a(S'6 days, 1:38:24'
p1378
Vsqrt((406/6) - ((28/6)^2))
p1379
tp1380
a(S'6 days, 1:43:13'
p1381
Vsqrt(5/36)
p1382
tp1383
a(S'6 days, 1:44:16'
p1384
Vsqrt(5/(36*28))
p1385
tp1386
a(S'6 days, 1:47:53'
p1387
Vsqrt(((29*57)/6) - ((28/6) ^2))
p1388
tp1389
assVtpmach
p1390
(dp1391
S'part3_correct_attempt'
p1392
(lp1393
S'17:57:41'
p1394
aVsqrt(1/5(1-1/5)22)
p1395
asS'part2_correct_attempt'
p1396
(lp1397
S'17:50:50'
p1398
aV22*(1/5)
p1399
asg9
V2015-11-04 23:01:27
p1400
sS'part3_incorrect_attempt'
p1401
(lp1402
(S'17:51:07'
p1403
Vsqrt(22*(1/5))
p1404
tp1405
assVjhw015
p1406
(dp1407
S'part3_correct_attempt'
p1408
(lp1409
S'0:01:17'
p1410
aVsqrt((29/6) * (5/6))
p1411
asS'part3_incorrect_attempt'
p1412
(lp1413
(S'0:00:00'
p1414
Vsqrt((29/6))
p1415
tp1416
asg9
V2015-11-06 19:14:12
p1417
ssVt1tran
p1418
(dp1419
S'part3_correct_attempt'
p1420
(lp1421
S'0:51:33'
p1422
aV(24(1/4)(1-(1/4)))^(1/2)
p1423
asS'part2_correct_attempt'
p1424
(lp1425
S'0:07:09'
p1426
aV24(1/4)
p1427
asg9
V2015-11-03 19:21:22
p1428
sS'part3_incorrect_attempt'
p1429
(lp1430
(S'0:16:11'
p1431
V24(1/4)(1-1/4)
p1432
tp1433
assVz3meng
p1434
(dp1435
S'part3_correct_attempt'
p1436
(lp1437
S'0:38:23'
p1438
aV(3.84)^0.5
p1439
asS'part2_correct_attempt'
p1440
(lp1441
S'0:14:18'
p1442
aV4.8
p1443
asg9
V2015-11-05 08:07:19
p1444
sS'part3_incorrect_attempt'
p1445
(lp1446
(S'0:20:13'
p1447
V2/25
p1448
tp1449
a(S'0:20:28'
p1450
V4/25
p1451
tp1452
a(S'0:36:17'
p1453
V4.8*0.8
p1454
tp1455
a(S'0:36:30'
p1456
V4.8*0.2
p1457
tp1458
a(S'0:36:36'
p1459
V4.8*0.8
p1460
tp1461
a(S'0:37:28'
p1462
V3.84
p1463
tp1464
assVakalathi
p1465
(dp1466
S'part3_correct_attempt'
p1467
(lp1468
S'0:02:46'
p1469
aVsqrt((29(1/5)*(4/5)))
p1470
asS'part2_correct_attempt'
p1471
(lp1472
S'0:00:17'
p1473
aV1/5 * 29
p1474
asg9
V2015-11-04 06:30:40
p1475
sS'part3_incorrect_attempt'
p1476
(lp1477
(S'0:01:49'
p1478
V((12/5)*(36/5))^2
p1479
tp1480
assVjel075
p1481
(dp1482
S'part3_correct_attempt'
p1483
(lp1484
S'13:40:20'
p1485
aVsqrt(26*(1/5) * (1-1/5))
p1486
asS'part2_correct_attempt'
p1487
(lp1488
S'0:02:18'
p1489
aV5.2
p1490
asg9
V2015-11-05 09:10:18
p1491
sS'part3_incorrect_attempt'
p1492
(lp1493
(S'0:03:05'
p1494
V0.2
p1495
tp1496
a(S'13:32:36'
p1497
Vsqrt(5.2)
p1498
tp1499
a(S'13:36:00'
p1500
V.1
p1501
tp1502
a(S'13:36:06'
p1503
V.3
p1504
tp1505
a(S'13:36:11'
p1506
V.4
p1507
tp1508
a(S'13:36:14'
p1509
V.5
p1510
tp1511
assVedescobe
p1512
(dp1513
S'part3_correct_attempt'
p1514
(lp1515
S'3 days, 1:50:16'
p1516
aV( 20 / 6* (1-1/ 6))^(1/2)
p1517
asS'part2_correct_attempt'
p1518
(lp1519
S'3 days, 1:45:13'
p1520
aV20/6
p1521
asg9
V2015-11-01 09:54:00
p1522
sS'part3_incorrect_attempt'
p1523
(lp1524
(S'3 days, 1:47:21'
p1525
V1.3416
p1526
tp1527
assVbakang
p1528
(dp1529
S'part3_correct_attempt'
p1530
(lp1531
S'8:04:15'
p1532
aVsqrt(1/6*(5/6)*21)
p1533
asS'part2_correct_attempt'
p1534
(lp1535
S'0:15:55'
p1536
aV1/6*21
p1537
asg9
V2015-11-05 08:51:51
p1538
sS'part3_incorrect_attempt'
p1539
(lp1540
(S'0:19:26'
p1541
Vsqrt((1/36*21)+(1/6*21)^2)
p1542
tp1543
a(S'0:27:48'
p1544
V1/6*21
p1545
tp1546
a(S'0:33:20'
p1547
Vsqrt(((5/6)^2+5*(1/6)^2)*21)
p1548
tp1549
assVakg009
p1550
(dp1551
S'part3_correct_attempt'
p1552
(lp1553
S'0:04:31'
p1554
aV(6/5)*sqrt(3)
p1555
asS'part2_correct_attempt'
p1556
(lp1557
S'0:01:35'
p1558
aV27*(1/5)
p1559
asg9
V2015-11-06 21:52:34
p1560
sS'part3_incorrect_attempt'
p1561
(lp1562
(S'0:02:14'
p1563
V1/5
p1564
tp1565
assVmuy002
p1566
(dp1567
S'part3_correct_attempt'
p1568
(lp1569
S'4:13:31'
p1570
aVsqrt(80/25)
p1571
asS'part2_correct_attempt'
p1572
(lp1573
S'4:12:15'
p1574
aV4
p1575
asg9
V2015-11-06 00:19:06
p1576
sS'part3_incorrect_attempt'
p1577
(lp1578
(S'4:12:52'
p1579
V80/25
p1580
tp1581
assVv4sharma
p1582
(dp1583
S'part3_correct_attempt'
p1584
(lp1585
S'0:51:52'
p1586
aVsqrt((20)(1/5)(4/5))
p1587
asS'part2_correct_attempt'
p1588
(lp1589
S'0:07:23'
p1590
aV4
p1591
asg9
V2015-11-05 22:14:51
p1592
sS'part3_incorrect_attempt'
p1593
(lp1594
(S'0:51:21'
p1595
V(20)(1/5)(4/5)
p1596
tp1597
assVqfu
p1598
(dp1599
S'part3_correct_attempt'
p1600
(lp1601
S'1 day, 0:07:24'
p1602
aVsqrt(28*(4/25))
p1603
asS'part2_correct_attempt'
p1604
(lp1605
S'1 day, 0:06:07'
p1606
aV28/5
p1607
asg9
V2015-11-05 02:59:09
p1608
sS'part3_incorrect_attempt'
p1609
(lp1610
(S'1 day, 0:06:07'
p1611
Vsqrt(5*(4/25))
p1612
tp1613
assVyjshin
p1614
(dp1615
S'part3_correct_attempt'
p1616
(lp1617
S'0:03:01'
p1618
aVsqrt(((1/6)(5/6))22)
p1619
asS'part2_correct_attempt'
p1620
(lp1621
S'0:00:42'
p1622
aV22/6
p1623
asg9
V2015-11-06 23:59:29
p1624
sS'part3_incorrect_attempt'
p1625
(lp1626
(S'0:02:16'
p1627
Vsqrt(((1/6)(5/6))/22)
p1628
tp1629
assVbpandayk
p1630
(dp1631
S'part3_correct_attempt'
p1632
(lp1633
S'0:14:27'
p1634
aVsqrt((1- 1/4)*(22/4))
p1635
asS'part3_incorrect_attempt'
p1636
(lp1637
(S'0:00:37'
p1638
Vsqrt((1-1/5)*22/4)
p1639
tp1640
a(S'0:01:47'
p1641
Vsqrt((1- 4/22)*22/4)
p1642
tp1643
a(S'0:02:25'
p1644
Vsqrt((1- 4/22)*(22/4))
p1645
tp1646
asg9
V2015-11-06 21:31:47
p1647
ssVarvenega
p1648
(dp1649
S'part3_correct_attempt'
p1650
(lp1651
S'0:11:40'
p1652
aVsqrt((29/5)*(1-(1/5)))
p1653
asS'part2_correct_attempt'
p1654
(lp1655
S'0:00:59'
p1656
aV29/5
p1657
asg9
V2015-11-06 23:36:36
p1658
sS'part3_incorrect_attempt'
p1659
(lp1660
(S'0:00:59'
p1661
V29/5
p1662
tp1663
assVhsc052
p1664
(dp1665
S'part3_correct_attempt'
p1666
(lp1667
S'0:01:52'
p1668
aVsqrt(4(1-(1/6)))
p1669
asS'part2_correct_attempt'
p1670
(lp1671
S'0:00:00'
p1672
aV24*(1/6)
p1673
asg9
V2015-11-06 22:42:39
p1674
sS'part3_incorrect_attempt'
p1675
(lp1676
(S'0:00:00'
p1677
V4(1-(1/6))
p1678
tp1679
assVxil109
p1680
(dp1681
S'part3_correct_attempt'
p1682
(lp1683
S'0:14:28'
p1684
aVsqrt(25*1/6*(1-1/6))
p1685
asS'part2_correct_attempt'
p1686
(lp1687
S'0:06:08'
p1688
aV25/6
p1689
asg9
V2015-11-06 01:09:45
p1690
sS'part3_incorrect_attempt'
p1691
(lp1692
(S'0:07:21'
p1693
V5/6
p1694
tp1695
a(S'0:07:38'
p1696
V25/36
p1697
tp1698
a(S'0:08:05'
p1699
V1/36
p1700
tp1701
assVsghouse
p1702
(dp1703
S'part3_correct_attempt'
p1704
(lp1705
S'18:32:48'
p1706
aVsqrt(.2(.8)23)
p1707
asS'part2_correct_attempt'
p1708
(lp1709
S'0:05:58'
p1710
aV23/5
p1711
asg9
V2015-11-05 02:43:39
p1712
sS'part3_incorrect_attempt'
p1713
(lp1714
(S'0:07:48'
p1715
Vsqrt(23^2/12)
p1716
tp1717
a(S'0:08:21'
p1718
Vsqrt(18.4^2/12)
p1719
tp1720
a(S'0:08:31'
p1721
Vsqrt(4.6^2/12)
p1722
tp1723
assVwmiao
p1724
(dp1725
S'part3_correct_attempt'
p1726
(lp1727
S'21:16:47'
p1728
aV(0.2*(1-0.2)*21)^0.5
p1729
asS'part2_correct_attempt'
p1730
(lp1731
S'21:13:10'
p1732
aV21*1/5
p1733
asg9
V2015-11-05 01:13:16
p1734
sS'part3_incorrect_attempt'
p1735
(lp1736
(S'21:13:10'
p1737
V21*1/5
p1738
tp1739
assVk3tan
p1740
(dp1741
S'part3_correct_attempt'
p1742
(lp1743
S'2 days, 17:19:49'
p1744
aVsqrt(27*5/36)
p1745
asS'part2_correct_attempt'
p1746
(lp1747
S'0:04:54'
p1748
aV27/6
p1749
asg9
V2015-11-04 06:07:19
p1750
sS'part3_incorrect_attempt'
p1751
(lp1752
(S'2 days, 17:07:23'
p1753
V27*5/6*6
p1754
tp1755
a(S'2 days, 17:07:37'
p1756
V27*5/36
p1757
tp1758
assVlywong
p1759
(dp1760
S'part3_correct_attempt'
p1761
(lp1762
S'1 day, 16:09:21'
p1763
aV(23*(1/4)(1-(1/4)))^(1/2)
p1764
asS'part2_correct_attempt'
p1765
(lp1766
S'1 day, 12:29:27'
p1767
aV(1/4)*23
p1768
asg9
V2015-11-04 07:31:23
p1769
sS'part3_incorrect_attempt'
p1770
(lp1771
(S'1 day, 16:05:44'
p1772
VQ((1/4)*23)
p1773
tp1774
a(S'1 day, 16:08:11'
p1775
V23*(1/4)(1-(1/4))
p1776
tp1777
assVkebao
p1778
(dp1779
S'part3_correct_attempt'
p1780
(lp1781
S'0:11:06'
p1782
aVsqrt(26*(1/5)*(4/5))
p1783
asS'part2_correct_attempt'
p1784
(lp1785
S'0:08:58'
p1786
aV26/5
p1787
asg9
V2015-11-05 21:42:57
p1788
sS'part3_incorrect_attempt'
p1789
(lp1790
(S'0:09:13'
p1791
Vsqrt(26*5*4)
p1792
tp1793
assVabasu
p1794
(dp1795
S'part3_correct_attempt'
p1796
(lp1797
S'2:13:59'
p1798
aV2.15406592285
p1799
asS'part2_correct_attempt'
p1800
(lp1801
S'0:06:00'
p1802
aV29(1/5)
p1803
asg9
V2015-11-05 03:07:09
p1804
sS'part3_incorrect_attempt'
p1805
(lp1806
(S'0:34:26'
p1807
V12.2735
p1808
tp1809
a(S'0:59:10'
p1810
V16.8868785353
p1811
tp1812
a(S'2:03:10'
p1813
V8.80341
p1814
tp1815
a(S'2:07:15'
p1816
V12.2264194813
p1817
tp1818
assVthk002
p1819
(dp1820
S'part3_correct_attempt'
p1821
(lp1822
S'1 day, 7:09:29'
p1823
aVsqrt(4* (1-1/6))
p1824
asS'part2_correct_attempt'
p1825
(lp1826
S'1 day, 6:12:15'
p1827
aV4
p1828
asg9
V2015-11-03 23:40:48
p1829
sS'part3_incorrect_attempt'
p1830
(lp1831
(S'1 day, 7:09:11'
p1832
V4* (1-1/6)
p1833
tp1834
assVpvl001
p1835
(dp1836
S'part3_correct_attempt'
p1837
(lp1838
S'6:49:47'
p1839
aVsqrt(21 * .2 * .8)
p1840
asS'part2_correct_attempt'
p1841
(lp1842
S'0:01:22'
p1843
aV21*0.2
p1844
asg9
V2015-11-03 20:47:36
p1845
sS'part3_incorrect_attempt'
p1846
(lp1847
(S'0:04:41'
p1848
V8 - (21*0.2)
p1849
tp1850
a(S'0:07:25'
p1851
V(21*0.2)^2
p1852
tp1853
a(S'0:09:06'
p1854
V.5
p1855
tp1856
a(S'0:22:34'
p1857
V(.2 * (1 - 4.2)^2) + (.8 * (-1 - 4.2)^2)
p1858
tp1859
a(S'0:22:46'
p1860
V((.2 * (1 - 4.2)^2) + (.8 * (-1 - 4.2)^2))/21
p1861
tp1862
a(S'0:24:00'
p1863
V((.2 * (1 - 4.2)^2) + (.8 * (-1 - 4.2)^2))/sqrt(21)
p1864
tp1865
a(S'0:26:59'
p1866
Vsqrt(((.2 * (1 - 4.2)^2) + (.8 * (-1 - 4.2)^2)))
p1867
tp1868
a(S'0:27:12'
p1869
Vsqrt(((.2 * (1 - 4.2)^2) + (.8 * (-1 - 4.2)^2)))/sqrt(21)
p1870
tp1871
a(S'0:34:56'
p1872
V8/21
p1873
tp1874
a(S'0:35:17'
p1875
Vsqrt(8/21)
p1876
tp1877
a(S'0:40:32'
p1878
V(1-4.2)^2
p1879
tp1880
a(S'0:40:47'
p1881
Vsqrt((1-4.2)^2)
p1882
tp1883
a(S'0:44:30'
p1884
V((1 - 4.2)^2 + (2 - 4.2)^2 + (3 - 4.2)^2 + (4 - 4.2)^2 + (5 - 4.2)^2 + (6 - 4.2)^2 + (7 - 4.2)^2 + (8 - 4.2)^2 + (9 - 4.2)^2 + (10 - 4.2)^2 + (11 - 4.2)^2 + (12 - 4.2)^2 + (13 - 4.2)^2 + (14 - 4.2)^2 + (15 - 4.2)^2 + (16 - 4.2)^2 + (17 - 4.2)^2 + (18 - 4.2)^2 + (19 - 4.2)^2 + (20 - 4.2)^2 + (21 - 4.2)^2) / 21
p1885
tp1886
a(S'0:45:17'
p1887
Vsqrt(((1 - 4.2)^2 + (2 - 4.2)^2 + (3 - 4.2)^2 + (4 - 4.2)^2 + (5 - 4.2)^2 + (6 - 4.2)^2 + (7 - 4.2)^2 + (8 - 4.2)^2 + (9 - 4.2)^2 + (10 - 4.2)^2 + (11 - 4.2)^2 + (12 - 4.2)^2 + (13 - 4.2)^2 + (14 - 4.2)^2 + (15 - 4.2)^2 + (16 - 4.2)^2 + (17 - 4.2)^2 + (18 - 4.2)^2 + (19 - 4.2)^2 + (20 - 4.2)^2 + (21 - 4.2)^2) / 21)
p1888
tp1889
a(S'0:46:57'
p1890
V4.2/21
p1891
tp1892
a(S'0:47:30'
p1893
Vsqrt(4.2)
p1894
tp1895
a(S'0:52:58'
p1896
Vsqrt((.20*.80)/21)
p1897
tp1898
assVjcj006
p1899
(dp1900
S'part3_correct_attempt'
p1901
(lp1902
S'16:23:19'
p1903
aVsqrt(29*.2*.8)
p1904
asS'part2_correct_attempt'
p1905
(lp1906
S'-1 day, 23:59:50'
p1907
aV29/5
p1908
asg9
V2015-11-04 06:04:21
p1909
sS'part3_incorrect_attempt'
p1910
(lp1911
(S'16:22:30'
p1912
V29*.2*.8
p1913
tp1914
assVmbl003
p1915
(dp1916
S'part3_correct_attempt'
p1917
(lp1918
S'1 day, 0:01:03'
p1919
aVsqrt(1/6(1-1/6)24)
p1920
asS'part2_correct_attempt'
p1921
(lp1922
S'0:08:37'
p1923
aV24/6
p1924
asg9
V2015-11-05 21:04:59
p1925
sS'part3_incorrect_attempt'
p1926
(lp1927
(S'0:10:58'
p1928
V(1/6-24/6)^2
p1929
tp1930
a(S'0:11:19'
p1931
Vsqrt((1/6-24/6)^2*24)
p1932
tp1933
a(S'23:59:55'
p1934
Vsqrt((24/6-1/6)*24)
p1935
tp1936
assVetemlock
p1937
(dp1938
S'part3_correct_attempt'
p1939
(lp1940
S'0:31:26'
p1941
aV(112/25)^.5
p1942
asS'part2_correct_attempt'
p1943
(lp1944
S'0:27:23'
p1945
aV28/5
p1946
asg9
V2015-11-06 21:35:14
p1947
sS'part3_incorrect_attempt'
p1948
(lp1949
(S'0:30:53'
p1950
V(4/25)^.5
p1951
tp1952
a(S'0:31:01'
p1953
V28(4/25)^.5
p1954
tp1955
assVksmurlo
p1956
(dp1957
S'part3_correct_attempt'
p1958
(lp1959
S'8:23:07'
p1960
aVsqrt(29*.25*.75)
p1961
asS'part2_correct_attempt'
p1962
(lp1963
S'0:03:47'
p1964
aV29*.25
p1965
asg9
V2015-11-05 06:45:24
p1966
sS'part3_incorrect_attempt'
p1967
(lp1968
(S'0:50:00'
p1969
Vsqrt((49*29)/29)
p1970
tp1971
assVttimmons
p1972
(dp1973
S'part3_correct_attempt'
p1974
(lp1975
S'0:19:47'
p1976
aVsqrt(30*(1/4)*(1-(1/4)))
p1977
asS'part2_correct_attempt'
p1978
(lp1979
S'0:09:13'
p1980
aV(1/4)*30
p1981
asg9
V2015-11-03 18:36:16
p1982
sS'part3_incorrect_attempt'
p1983
(lp1984
(S'0:10:19'
p1985
Vsqrt((1/4)*30^2-[(1/4)*30]^2)
p1986
tp1987
a(S'0:11:57'
p1988
Vsqrt((1/4)*30^2-[(1/4)*30]^2)
p1989
tp1990
a(S'0:12:15'
p1991
V15-7.5
p1992
tp1993
a(S'0:12:34'
p1994
Vsqrt((1/4)*30^2-[(1/4)*30]^2)
p1995
tp1996
a(S'0:19:37'
p1997
V30*(1/4)*(1-(1/4))
p1998
tp1999
assVjnatale
p2000
(dp2001
S'part3_correct_attempt'
p2002
(lp2003
S'0:04:44'
p2004
aVsqrt(23*(1/4)*(1-.25))
p2005
asS'part2_correct_attempt'
p2006
(lp2007
S'0:00:41'
p2008
aV23/4
p2009
asg9
V2015-11-05 02:19:36
p2010
sS'part3_incorrect_attempt'
p2011
(lp2012
(S'0:01:41'
p2013
Vsqrt(23/(1/4))
p2014
tp2015
assVjblynch
p2016
(dp2017
S'part3_correct_attempt'
p2018
(lp2019
S'9:13:39'
p2020
aVsqrt((1/5)(20)(4/5))
p2021
asS'part2_correct_attempt'
p2022
(lp2023
S'0:00:57'
p2024
aV(1/5)*20
p2025
asg9
V2015-11-04 21:04:35
p2026
sS'part3_incorrect_attempt'
p2027
(lp2028
(S'0:01:39'
p2029
Vsqrt((1/5)*20^2 - 4^2)
p2030
tp2031
a(S'0:03:01'
p2032
V(1/5)(20-4)
p2033
tp2034
assVnnh002
p2035
(dp2036
S'part3_correct_attempt'
p2037
(lp2038
S'1 day, 15:59:05'
p2039
aVsqrt((1/5)*(4/5)*22)
p2040
asS'part2_correct_attempt'
p2041
(lp2042
S'0:01:20'
p2043
aV0.2*22
p2044
asg9
V2015-11-05 05:08:53
p2045
sS'part3_incorrect_attempt'
p2046
(lp2047
(S'1 day, 3:52:43'
p2048
Vsqrt((1/5)^12*(1-(1/5)^12)*22)
p2049
tp2050
a(S'1 day, 4:00:26'
p2051
Vsqrt((12/22)^12*(1-(12/22)^12)*22)
p2052
tp2053
a(S'1 day, 4:10:13'
p2054
Vsqrt((12/22)*(1-(12/22))*22)
p2055
tp2056
a(S'1 day, 15:57:51'
p2057
Vsqrt((1/5)^12*(1-((4/5)^12))*22)
p2058
tp2059
a(S'1 day, 15:58:15'
p2060
Vsqrt((1/5)^22*(1-((4/5)^22))*22)
p2061
tp2062
a(S'1 day, 15:58:41'
p2063
Vsqrt((1/5)*(1-((4/5)))*22)
p2064
tp2065
assVagian
p2066
(dp2067
S'part3_correct_attempt'
p2068
(lp2069
S'0:16:32'
p2070
aVsqrt((30-7.5)/4)
p2071
asS'part2_correct_attempt'
p2072
(lp2073
S'0:13:31'
p2074
aV30/4
p2075
asg9
V2015-11-07 00:29:52
p2076
sS'part3_incorrect_attempt'
p2077
(lp2078
(S'0:14:23'
p2079
Vsqrt(7.5)
p2080
tp2081
assVtol003
p2082
(dp2083
S'part3_correct_attempt'
p2084
(lp2085
S'0:41:09'
p2086
aVsqrt(28*(1/5)*(1-(1/5)))
p2087
asS'part2_correct_attempt'
p2088
(lp2089
S'0:05:33'
p2090
aV28*(1/5)
p2091
asg9
V2015-11-03 19:59:02
p2092
sS'part3_incorrect_attempt'
p2093
(lp2094
(S'0:12:46'
p2095
V28*(21.16*(1/5))
p2096
tp2097
a(S'0:19:32'
p2098
V28*[1-(28*1/5)]^2
p2099
tp2100
a(S'0:21:39'
p2101
Vsqrt(28*[1-(28*(1/5))]^2)
p2102
tp2103
a(S'0:31:59'
p2104
V5.07543
p2105
tp2106
a(S'0:38:16'
p2107
V5.075431016
p2108
tp2109
assVaakumar
p2110
(dp2111
S'part3_correct_attempt'
p2112
(lp2113
S'2:09:35'
p2114
aV(23*5/36)^(1/2)
p2115
asS'part2_correct_attempt'
p2116
(lp2117
S'0:12:20'
p2118
aV23(1/6)
p2119
asg9
V2015-11-05 03:13:47
p2120
sS'part3_incorrect_attempt'
p2121
(lp2122
(S'1:29:41'
p2123
V15.077689
p2124
tp2125
a(S'1:47:28'
p2126
V6.913
p2127
tp2128
a(S'2:03:35'
p2129
V31.9133
p2130
tp2131
assVyeh013
p2132
(dp2133
S'part3_correct_attempt'
p2134
(lp2135
S'3:17:42'
p2136
aV4.5^(1/2)
p2137
asS'part2_correct_attempt'
p2138
(lp2139
S'2:26:57'
p2140
aV6
p2141
asg9
V2015-11-05 03:50:09
p2142
sS'part3_incorrect_attempt'
p2143
(lp2144
(S'2:47:35'
p2145
V36-24/16
p2146
tp2147
a(S'2:47:48'
p2148
V34.5^(1/2)
p2149
tp2150
a(S'2:58:09'
p2151
V108^(1/2)
p2152
tp2153
a(S'3:13:50'
p2154
V75^(1/2)
p2155
tp2156
assVasetters
p2157
(dp2158
S'part3_correct_attempt'
p2159
(lp2160
S'0:04:10'
p2161
aVsqrt(21/6*(5/6))
p2162
asS'part2_correct_attempt'
p2163
(lp2164
S'0:00:00'
p2165
aV21/6
p2166
asg9
V2015-11-05 20:08:55
p2167
sS'part3_incorrect_attempt'
p2168
(lp2169
(S'0:00:39'
p2170
V(21/6)^2 - 21/6
p2171
tp2172
assVppanourg
p2173
(dp2174
S'part3_correct_attempt'
p2175
(lp2176
S'9:30:01'
p2177
aVsqrt((28/5)(1-1/5))
p2178
asS'part2_correct_attempt'
p2179
(lp2180
S'9:27:31'
p2181
aV28/5
p2182
asg9
V2015-11-06 09:57:58
p2183
sS'part3_incorrect_attempt'
p2184
(lp2185
(S'9:29:09'
p2186
V(28/5)(1-1/5)
p2187
tp2188
assVksrijong
p2189
(dp2190
S'part3_correct_attempt'
p2191
(lp2192
S'0:07:53'
p2193
aVsqrt((1/6)(5/6)(25))
p2194
asS'part2_correct_attempt'
p2195
(lp2196
S'0:03:45'
p2197
aV(1/6)*25
p2198
asg9
V2015-11-06 20:22:16
p2199
sS'part3_incorrect_attempt'
p2200
(lp2201
(S'0:05:33'
p2202
V(1/6)*25
p2203
tp2204
assVyhhan
p2205
(dp2206
S'part3_correct_attempt'
p2207
(lp2208
S'0:05:10'
p2209
aV(.25*.75*28)^.5
p2210
asS'part2_correct_attempt'
p2211
(lp2212
S'0:00:38'
p2213
aV28/4
p2214
asg9
V2015-11-07 00:05:22
p2215
sS'part3_incorrect_attempt'
p2216
(lp2217
(S'0:03:06'
p2218
V.25
p2219
tp2220
a(S'0:03:24'
p2221
V.5
p2222
tp2223
assVcagatep
p2224
(dp2225
S'part3_correct_attempt'
p2226
(lp2227
S'1 day, 11:45:41'
p2228
aVsqrt(.2 * .8 * 21)
p2229
asS'part2_correct_attempt'
p2230
(lp2231
S'0:01:39'
p2232
aV.2 * 21
p2233
asg9
V2015-11-05 07:44:14
p2234
sS'part3_incorrect_attempt'
p2235
(lp2236
(S'0:02:08'
p2237
VPhi(.2 * 21)
p2238
tp2239
a(S'0:23:58'
p2240
VQ(.2 * 21)
p2241
tp2242
assVhmnaing
p2243
(dp2244
S'part3_correct_attempt'
p2245
(lp2246
S'3:52:15'
p2247
aVsqrt(0.25*0.75*26)
p2248
asS'part2_correct_attempt'
p2249
(lp2250
S'3:41:28'
p2251
aV26/4
p2252
asg9
V2015-11-06 18:32:06
p2253
sS'part3_incorrect_attempt'
p2254
(lp2255
(S'3:45:21'
p2256
Vsqrt(26/12)
p2257
tp2258
a(S'3:49:13'
p2259
Vsqrt(26*25/4)
p2260
tp2261
a(S'3:51:05'
p2262
Vsqrt(0.25*3/4/4)
p2263
tp2264
a(S'3:52:03'
p2265
Vsqrt(0.25*0.75/26)
p2266
tp2267
assVtjke
p2268
(dp2269
S'part3_correct_attempt'
p2270
(lp2271
S'0:04:00'
p2272
aVsqrt(1/6*(1-1/6)*24)
p2273
asS'part2_correct_attempt'
p2274
(lp2275
S'0:00:00'
p2276
aV24*1/6
p2277
asg9
V2015-11-06 17:13:34
p2278
sS'part3_incorrect_attempt'
p2279
(lp2280
(S'0:01:00'
p2281
Vsqrt(1/6*24^2 - (1/6*24)^2)
p2282
tp2283
assVklala
p2284
(dp2285
S'part3_correct_attempt'
p2286
(lp2287
S'0:13:03'
p2288
aVsqrt(28*(1/6)*(5/6))
p2289
asS'part2_correct_attempt'
p2290
(lp2291
S'0:09:26'
p2292
aV28 * (1/6)
p2293
asg9
V2015-11-05 06:24:05
p2294
sS'part3_incorrect_attempt'
p2295
(lp2296
(S'0:10:50'
p2297
V(1/6) * (5/6)
p2298
tp2299
assVasp025
p2300
(dp2301
S'part3_correct_attempt'
p2302
(lp2303
S'0:49:11'
p2304
aV[24(1/6)(1-1/6)]^(1/2)
p2305
asS'part2_correct_attempt'
p2306
(lp2307
S'0:43:48'
p2308
aV24/6
p2309
asg9
V2015-11-06 22:08:56
p2310
sS'part3_incorrect_attempt'
p2311
(lp2312
(S'0:45:51'
p2313
V24(1/6)(1-1/6)
p2314
tp2315
assVdlgoldbe
p2316
(dp2317
S'part3_correct_attempt'
p2318
(lp2319
S'0:09:26'
p2320
aVsqrt((22/4)*(1-(1/4)))
p2321
asS'part2_correct_attempt'
p2322
(lp2323
S'0:05:09'
p2324
aV22/4
p2325
asg9
V2015-11-05 06:23:46
p2326
sS'part3_incorrect_attempt'
p2327
(lp2328
(S'0:06:37'
p2329
V1/(sqrt(22-13))
p2330
tp2331
a(S'0:07:37'
p2332
Vsqrt((22/4)*22-13)
p2333
tp2334
assVkquong
p2335
(dp2336
S'part3_correct_attempt'
p2337
(lp2338
S'0:00:56'
p2339
aVsqrt(125/36)
p2340
asS'part2_correct_attempt'
p2341
(lp2342
S'0:00:00'
p2343
aV25/6
p2344
asg9
V2015-11-04 23:52:13
p2345
sS'part3_incorrect_attempt'
p2346
(lp2347
(S'0:00:00'
p2348
V125/36
p2349
tp2350
assVt2shin
p2351
(dp2352
S'part3_correct_attempt'
p2353
(lp2354
S'0:13:43'
p2355
aVsqrt(24*1/4*3/4)
p2356
asS'part2_correct_attempt'
p2357
(lp2358
S'0:04:23'
p2359
aV1/4*24
p2360
asg9
V2015-11-05 21:33:48
p2361
sS'part3_incorrect_attempt'
p2362
(lp2363
(S'0:05:34'
p2364
V0.1
p2365
tp2366
a(S'0:07:33'
p2367
Vsqrt(((4-6)^2)/24)
p2368
tp2369
a(S'0:08:50'
p2370
Vsqrt(((1-6)^2)/24)
p2371
tp2372
a(S'0:11:07'
p2373
V0.5
p2374
tp2375
a(S'0:11:15'
p2376
V0.4
p2377
tp2378
a(S'0:13:25'
p2379
Vsqrt(24*3)
p2380
tp2381
assVvsamant
p2382
(dp2383
S'part3_correct_attempt'
p2384
(lp2385
S'1 day, 2:55:53'
p2386
aV((1-1/6)*(27/6))^(1/2)
p2387
asS'part2_correct_attempt'
p2388
(lp2389
S'0:01:18'
p2390
aV27/6
p2391
asg9
V2015-11-04 00:59:19
p2392
sS'part3_incorrect_attempt'
p2393
(lp2394
(S'0:14:22'
p2395
V(27/6)^(1/2)
p2396
tp2397
a(S'22:22:01'
p2398
V(27/6)^(1/2)
p2399
tp2400
assVfichoi
p2401
(dp2402
S'part3_correct_attempt'
p2403
(lp2404
S'6:12:31'
p2405
aVsqrt(27 * 1/6(1 - 1/6))
p2406
asS'part2_correct_attempt'
p2407
(lp2408
S'0:50:42'
p2409
aV27/6
p2410
asg9
V2015-11-04 18:14:52
p2411
sS'part3_incorrect_attempt'
p2412
(lp2413
(S'0:52:03'
p2414
V1.5
p2415
tp2416
a(S'0:52:57'
p2417
V27-4.5
p2418
tp2419
a(S'0:56:42'
p2420
V21/162
p2421
tp2422
a(S'0:57:32'
p2423
V5.196
p2424
tp2425
a(S'1:21:53'
p2426
V0.3727
p2427
tp2428
a(S'1:25:35'
p2429
V0.04137
p2430
tp2431
assVrohan
p2432
(dp2433
S'part3_incorrect_attempt'
p2434
(lp2435
(S'0:02:23'
p2436
Vsqrt(15/28(1-15/28)4)
p2437
tp2438
asg9
V2015-11-07 00:10:27
p2439
ssVany027
p2440
(dp2441
S'part3_correct_attempt'
p2442
(lp2443
S'1:32:21'
p2444
aVsqrt( (27*1/6)* (1-1/6) )
p2445
asS'part2_correct_attempt'
p2446
(lp2447
S'0:02:37'
p2448
aV27/6
p2449
asg9
V2015-11-01 20:36:42
p2450
sS'part3_incorrect_attempt'
p2451
(lp2452
(S'0:07:40'
p2453
Vsqrt (( ((0-4.5)^2) + ((1-4.5)^2) + ((2-4.5)^2) + ((3-4.5)^2) + ((4-4.5)^2) + ((5-4.5)^2) + ((6-4.5)^2) +((7-4.5)^2) + ((8-4.5)^2) + ((9-4.5)^2) + ((10-4.5)^2) + ((11-4.5)^2) + ((12-4.5)^2) + ((13-4.5)^2) + ((14-4.5)^2) +  ((15-4.5)^2) + ((16-4.5)^2) + ((17-4.5)^2) + ((18-4.5)^2) + ((19-4.5)^2) + ((20-4.5)^2) + ((21-4.5)^2) + ((22-4.5)^2) + ((23-4.5)^2) + ((24-4.5)^2) +((25-4.5)^2) + ((26-4.5)^2) + ((27-4.5)^2) ) / 27 )
p2454
tp2455
a(S'0:09:17'
p2456
Vsqrt (( ((0-4.5)^2) + ((1-4.5)^2) + ((2-4.5)^2) + ((3-4.5)^2) + ((4-4.5)^2) + ((5-4.5)^2) + ((6-4.5)^2) +((7-4.5)^2) + ((8-4.5)^2) + ((9-4.5)^2) + ((10-4.5)^2) + ((11-4.5)^2) + ((12-4.5)^2) + ((13-4.5)^2) + ((14-4.5)^2) + ((15-4.5)^2) + ((16-4.5)^2) + ((17-4.5)^2) + ((18-4.5)^2) + ((19-4.5)^2) + ((20-4.5)^2) + ((21-4.5)^2) + ((22-4.5)^2) + ((23-4.5)^2) + ((24-4.5)^2) +((25-4.5)^2) + ((26-4.5)^2) + ((27-4.5)^2) ) / 28 )
p2457
tp2458
a(S'0:20:34'
p2459
Vsqrt (( ((0/6-4.5)^2) + ((1/6-4.5)^2) + ((2/6-4.5)^2) + ((3/6-4.5)^2) + ((4/6-4.5)^2) + ((5/6-4.5)^2) + ((6/6-4.5)^2) +((7/6-4.5)^2) + ((8/6-4.5)^2) + ((9/6-4.5)^2) + ((10/6-4.5)^2) + ((11/6-4.5)^2) + ((12/6-4.5)^2) + ((13/6-4.5)^2) + ((14/6-4.5)^2) + ((15/6-4.5)^2) + ((16/6-4.5)^2) + ((17/6-4.5)^2) + ((18/6-4.5)^2) + ((19/6-4.5)^2) + ((20/6-4.5)^2) + ((21/6-4.5)^2) + ((22/6-4.5)^2) + ((23/6-4.5)^2) + ((24/6-4.5)^2) +((25/6-4.5)^2) + ((26/6-4.5)^2) + ((27/6-4.5)^2) ) / 28 )
p2460
tp2461
a(S'0:22:18'
p2462
V1/6
p2463
tp2464
a(S'0:38:47'
p2465
Vsqrt (( ((0-4.5)^2) + ((1-4.5)^2) + ((2-4.5)^2) + ((3-4.5)^2) + ((4-4.5)^2) + ((5-4.5)^2) + ((6-4.5)^2) +((7-4.5)^2) + ((8-4.5)^2) + ((9-4.5)^2) + ((10-4.5)^2) + ((11-4.5)^2) + ((12-4.5)^2) + ((13-4.5)^2) + ((14-4.5)^2) + ((15-4.5)^2) + ((16-4.5)^2) + ((17-4.5)^2) + ((18-4.5)^2) + ((19-4.5)^2) + ((20-4.5)^2) + ((21-4.5)^2) + ((22-4.5)^2) + ((23-4.5)^2) + ((24-4.5)^2) +((25-4.5)^2) + ((26-4.5)^2) + ((27-4.5)^2) ) / 28 )
p2466
tp2467
a(S'1:18:30'
p2468
Vsqrt (( ((27/1-4.5)^2) + ((2-4.5)^2) + ((3-4.5)^2) + ((4-4.5)^2) + ((5-4.5)^2) + ((6-4.5)^2) +((7-4.5)^2) + ((8-4.5)^2) + ((9-4.5)^2) + ((10-4.5)^2) + ((11-4.5)^2) + ((12-4.5)^2) + ((13-4.5)^2) + ((14-4.5)^2) + ((15-4.5)^2) + ((16-4.5)^2) + ((17-4.5)^2) + ((18-4.5)^2) + ((19-4.5)^2) + ((20-4.5)^2) + ((21-4.5)^2) + ((22-4.5)^2) + ((23-4.5)^2) + ((24-4.5)^2) +((25-4.5)^2) + ((26-4.5)^2) + ((27-4.5)^2) ) / 28 )
p2469
tp2470
a(S'1:20:14'
p2471
Vsqrt (( ((27/1-4.5)^2) + ((27/2-4.5)^2) + ((27/3-4.5)^2) + ((27/4-4.5)^2) + ((27/5-4.5)^2) + ((27/6-4.5)^2) +((27/7-4.5)^2) + ((27/8-4.5)^2) + ((27/9-4.5)^2) + ((27/10-4.5)^2) + ((27/11-4.5)^2) + ((27/12-4.5)^2) + ((27/13-4.5)^2) + ((27/14-4.5)^2) + ((27/15-4.5)^2) + ((27/16-4.5)^2) + ((27/17-4.5)^2) + ((27/18-4.5)^2) + ((27/19-4.5)^2) + ((27/20-4.5)^2) + ((27/21-4.5)^2) + ((27/22-4.5)^2) + ((27/23-4.5)^2) + ((27/24-4.5)^2) +((27/25-4.5)^2) + ((27/26-4.5)^2) + ((27/27-4.5)^2) ) / 27 )
p2472
tp2473
a(S'1:23:02'
p2474
Vsqrt (( ((0-4.5)^2) + ((1-4.5)^2) + ((2-4.5)^2) + ((3-4.5)^2) + ((4-4.5)^2) + ((5-4.5)^2) + ((6-4.5)^2) +((7-4.5)^2) + ((8-4.5)^2) + ((9-4.5)^2) + ((10-4.5)^2) + ((11-4.5)^2) + ((12-4.5)^2) + ((13-4.5)^2) + ((14-4.5)^2) + ((15-4.5)^2) + ((16-4.5)^2) + ((17-4.5)^2) + ((18-4.5)^2) + ((19-4.5)^2) + ((20-4.5)^2) + ((21-4.5)^2) + ((22-4.5)^2) + ((23-4.5)^2) + ((24-4.5)^2) +((25-4.5)^2) + ((26-4.5)^2) + ((27-4.5)^2) ) / 28 )
p2475
tp2476
a(S'1:26:17'
p2477
V27/11
p2478
tp2479
assVjdeon
p2480
(dp2481
S'part3_correct_attempt'
p2482
(lp2483
S'-2 days, 9:15:39'
p2484
aV2.29128
p2485
asS'part2_correct_attempt'
p2486
(lp2487
S'-2 days, 8:52:28'
p2488
aV7
p2489
asg9
V2015-11-05 20:09:34
p2490
sS'part3_incorrect_attempt'
p2491
(lp2492
(S'-2 days, 9:03:53'
p2493
V1/7
p2494
tp2495
a(S'-2 days, 9:05:53'
p2496
V(1/4)*(3/4)
p2497
tp2498
assVj6quach
p2499
(dp2500
S'part3_correct_attempt'
p2501
(lp2502
S'1:26:23'
p2503
aVsqrt(26*.2*.8)
p2504
asS'part2_correct_attempt'
p2505
(lp2506
S'1:20:29'
p2507
aV26*1/5
p2508
asg9
V2015-11-05 09:30:45
p2509
sS'part3_incorrect_attempt'
p2510
(lp2511
(S'1:20:29'
p2512
V5.2/4
p2513
tp2514
assVsyc078
p2515
(dp2516
S'part3_correct_attempt'
p2517
(lp2518
S'23:03:04'
p2519
aVsqrt(7*(1-0.25))
p2520
asS'part2_correct_attempt'
p2521
(lp2522
S'22:55:37'
p2523
aV(1/4)(28)
p2524
asg9
V2015-11-05 03:08:01
p2525
sS'part3_incorrect_attempt'
p2526
(lp2527
(S'22:56:27'
p2528
V13-7
p2529
tp2530
a(S'22:56:43'
p2531
V((13-7)^2)/7
p2532
tp2533
assVjhc010
p2534
(dp2535
S'part3_correct_attempt'
p2536
(lp2537
S'0:24:34'
p2538
aVsqrt(.25(.75)25)
p2539
asS'part2_correct_attempt'
p2540
(lp2541
S'0:00:53'
p2542
aV25/4
p2543
asg9
V2015-11-06 10:34:37
p2544
sS'part3_incorrect_attempt'
p2545
(lp2546
(S'0:01:17'
p2547
V25/4^2
p2548
tp2549
a(S'0:02:11'
p2550
V25/16
p2551
tp2552
a(S'0:02:18'
p2553
V25/4*2
p2554
tp2555
a(S'0:03:04'
p2556
V(1-4/25)/(4/25)^2
p2557
tp2558
a(S'0:04:53'
p2559
V((1-4/25)/(4/25)^2)^2
p2560
tp2561
a(S'0:09:07'
p2562
Vsqrt((1-.5)/(.5^2))
p2563
tp2564
a(S'0:09:53'
p2565
Vsqrt((1-4/25)/((4/25)^2))
p2566
tp2567
a(S'0:10:58'
p2568
Vsqrt((1-1/4)/((1/4)^2))
p2569
tp2570
a(S'0:12:02'
p2571
Vsqrt(-1*(1-25/4)/((25/4)^2))
p2572
tp2573
a(S'0:13:05'
p2574
Vsqrt((1-1/4)/((1/4)^2))
p2575
tp2576
a(S'0:13:27'
p2577
Vsqrt((1-1/4)/((1/4)^2))
p2578
tp2579
a(S'0:17:15'
p2580
Vsqrt((1-1/4)/((1/4)^2))
p2581
tp2582
a(S'0:17:40'
p2583
Vsqrt((25-25/4)/((25/4)^2))
p2584
tp2585
a(S'0:18:56'
p2586
Vsqrt((1-4/25)/((4/25)^2))
p2587
tp2588
assVagarango
p2589
(dp2590
S'part3_correct_attempt'
p2591
(lp2592
S'3:28:35'
p2593
aVsqrt(5*21)/6
p2594
asS'part2_correct_attempt'
p2595
(lp2596
S'0:18:35'
p2597
aV21*(1/6)
p2598
asg9
V2015-11-06 20:14:19
p2599
sS'part3_incorrect_attempt'
p2600
(lp2601
(S'0:19:58'
p2602
Vsqrt((5*21)/6)
p2603
tp2604
a(S'0:20:42'
p2605
Vsqrt((5*21)/21)
p2606
tp2607
a(S'0:21:06'
p2608
Vsqrt((5/6)/21)
p2609
tp2610
a(S'3:26:05'
p2611
Vsqrt((5*21)/6)
p2612
tp2613
assVtwsalim
p2614
(dp2615
S'part3_correct_attempt'
p2616
(lp2617
S'0:32:20'
p2618
aV5/3
p2619
asS'part2_correct_attempt'
p2620
(lp2621
S'0:00:00'
p2622
aV20/6
p2623
asg9
V2015-11-06 02:09:27
p2624
sS'part3_incorrect_attempt'
p2625
(lp2626
(S'0:12:31'
p2627
V7.45356
p2628
tp2629
a(S'0:22:55'
p2630
V21.615
p2631
tp2632
assVachinn
p2633
(dp2634
S'part3_correct_attempt'
p2635
(lp2636
S'0:36:02'
p2637
aVsqrt(5*0.75)
p2638
asS'part2_correct_attempt'
p2639
(lp2640
S'0:00:00'
p2641
aV5
p2642
asg9
V2015-11-03 21:26:44
p2643
sS'part3_incorrect_attempt'
p2644
(lp2645
(S'0:29:35'
p2646
Vsqrt(64.75)
p2647
tp2648
a(S'0:30:41'
p2649
Vsqrt(20*0.5)
p2650
tp2651
assVmcatozzi
p2652
(dp2653
S'part3_correct_attempt'
p2654
(lp2655
S'0:55:37'
p2656
aVsqrt(28*(1/5)*(4/5))
p2657
asS'part2_correct_attempt'
p2658
(lp2659
S'0:20:14'
p2660
aV28/5
p2661
asg9
V2015-11-03 19:47:20
p2662
sS'part3_incorrect_attempt'
p2663
(lp2664
(S'0:30:44'
p2665
V((28-5.6)^2) +((27-5.6)^2) +((26-5.6)^2) +((25-5.6)^2) +((24-5.6)^2) +((23-5.6)^2) +((22-5.6)^2) +((21-5.6)^2) +((20-5.6)^2) +((19-5.6)^2) +((18-5.6)^2) +((17-5.6)^2) +((16-5.6)^2) +((15-5.6)^2) +((14-5.6)^2) +((13-5.6)^2) +((12-5.6)^2) +((11-5.6)^2) +((10-5.6)^2) +((9-5.6)^2) +((8-5.6)^2) +((7-5.6)^2) +((6-5.6)^2) +((5-5.6)^2) +((4-5.6)^2) +((3-5.6)^2) +((2-5.6)^2) +((1-5.6)^2)
p2666
tp2667
a(S'0:33:15'
p2668
Vsqrt((((28-5.6)^2) +((27-5.6)^2) +((26-5.6)^2) +((25-5.6)^2) +((24-5.6)^2) +((23-5.6)^2) +((22-5.6)^2) +((21-5.6)^2) +((20-5.6)^2) +((19-5.6)^2) +((18-5.6)^2) +((17-5.6)^2) +((16-5.6)^2) +((15-5.6)^2) +((14-5.6)^2) +((13-5.6)^2) +((12-5.6)^2) +((11-5.6)^2) +((10-5.6)^2) +((9-5.6)^2) +((8-5.6)^2) +((7-5.6)^2) +((6-5.6)^2) +((5-5.6)^2) +((4-5.6)^2) +((3-5.6)^2) +((2-5.6)^2) +((1-5.6)^2)+((-5.6)^2))/28 )
p2669
tp2670
a(S'0:36:07'
p2671
Vsqrt((((28-5.6)^2) +((27-5.6)^2) +((26-5.6)^2) +((25-5.6)^2) +((24-5.6)^2) +((23-5.6)^2) +((22-5.6)^2) +((21-5.6)^2) +((20-5.6)^2) +((19-5.6)^2) +((18-5.6)^2) +((17-5.6)^2) +((16-5.6)^2) +((15-5.6)^2) +((14-5.6)^2) +((13-5.6)^2) +((12-5.6)^2) +((11-5.6)^2) +((10-5.6)^2) +((9-5.6)^2) +((8-5.6)^2) +((7-5.6)^2) +((6-5.6)^2) +((5-5.6)^2) +((4-5.6)^2) +((3-5.6)^2) +((2-5.6)^2) +((1-5.6)^2)+((-5.6)^2))/29 )
p2672
tp2673
a(S'0:38:45'
p2674
Vsqrt((((28-5.6)^2) +((27-5.6)^2) +((26-5.6)^2) +((25-5.6)^2) +((24-5.6)^2) +((23-5.6)^2) +((22-5.6)^2) +((21-5.6)^2) +((20-5.6)^2) +((19-5.6)^2) +((18-5.6)^2) +((17-5.6)^2) +((16-5.6)^2) +((15-5.6)^2) +((14-5.6)^2) +((13-5.6)^2) +((12-5.6)^2) +((11-5.6)^2) +((10-5.6)^2) +((9-5.6)^2) +((8-5.6)^2) +((7-5.6)^2) +((6-5.6)^2) +((5-5.6)^2) +((4-5.6)^2) +((3-5.6)^2) +((2-5.6)^2) +((1-5.6)^2)/28) )
p2675
tp2676
a(S'0:39:19'
p2677
Vsqrt((((28-5.6)^2) +((27-5.6)^2) +((26-5.6)^2) +((25-5.6)^2) +((24-5.6)^2) +((23-5.6)^2) +((22-5.6)^2) +((21-5.6)^2) +((20-5.6)^2) +((19-5.6)^2) +((18-5.6)^2) +((17-5.6)^2) +((16-5.6)^2) +((15-5.6)^2) +((14-5.6)^2) +((13-5.6)^2) +((12-5.6)^2) +((11-5.6)^2) +((10-5.6)^2) +((9-5.6)^2) +((8-5.6)^2) +((7-5.6)^2) +((6-5.6)^2) +((5-5.6)^2) +((4-5.6)^2) +((3-5.6)^2) +((2-5.6)^2) +((1-5.6)^2))/28 )
p2678
tp2679
a(S'0:39:39'
p2680
V12.2
p2681
tp2682
a(S'0:39:47'
p2683
V11.2
p2684
tp2685
assVaadhakal
p2686
(dp2687
S'part3_correct_attempt'
p2688
(lp2689
S'0:00:48'
p2690
aVsqrt(20.84/6)
p2691
asS'part2_correct_attempt'
p2692
(lp2693
S'0:00:00'
p2694
aV4.16
p2695
asg9
V2015-11-05 23:02:48
p2696
sS'part3_incorrect_attempt'
p2697
(lp2698
(S'0:00:00'
p2699
Vsqrt(25/6)
p2700
tp2701
a(S'0:00:36'
p2702
Vsqrt(21.84/6)
p2703
tp2704
assVacs008
p2705
(dp2706
S'part3_correct_attempt'
p2707
(lp2708
S'5:40:29'
p2709
aVsqrt(29*1/5*4/5)
p2710
asS'part2_correct_attempt'
p2711
(lp2712
S'5:26:25'
p2713
aV1/5*29
p2714
asg9
V2015-11-05 16:06:10
p2715
sS'part3_incorrect_attempt'
p2716
(lp2717
(S'5:26:54'
p2718
V12-5.8
p2719
tp2720
a(S'5:27:03'
p2721
V(12-5.8)
p2722
tp2723
a(S'5:31:15'
p2724
V1.067
p2725
tp2726
a(S'5:31:25'
p2727
V1.069
p2728
tp2729
a(S'5:32:22'
p2730
VQ(12)
p2731
tp2732
a(S'5:35:35'
p2733
Vsqrt(24*1/5*4/5)
p2734
tp2735
a(S'5:35:47'
p2736
Vsqrt(24*4/5)
p2737
tp2738
a(S'5:36:16'
p2739
Vsqrt(24*4/5*1/5)
p2740
tp2741
a(S'5:36:27'
p2742
V12*sqrt(24*4/5*1/5)
p2743
tp2744
a(S'5:38:09'
p2745
V1-Q(12)
p2746
tp2747
a(S'5:38:16'
p2748
VQ(12)
p2749
tp2750
a(S'5:38:23'
p2751
VQ(12/29)
p2752
tp2753
a(S'5:38:29'
p2754
V1-Q(12/29)
p2755
tp2756
a(S'5:38:38'
p2757
V1-Q(1/5)
p2758
tp2759
a(S'5:38:44'
p2760
V12*Q(1/5)
p2761
tp2762
assVdpereira
p2763
(dp2764
S'part3_correct_attempt'
p2765
(lp2766
S'6 days, 0:38:43'
p2767
aVsqrt(.25*.75*20)
p2768
asS'part2_correct_attempt'
p2769
(lp2770
S'6 days, 0:19:27'
p2771
aV20/4
p2772
asg9
V2015-10-30 22:16:13
p2773
sS'part3_incorrect_attempt'
p2774
(lp2775
(S'6 days, 0:24:07'
p2776
Vsqrt(100-25)
p2777
tp2778
assVhaliew
p2779
(dp2780
S'part3_correct_attempt'
p2781
(lp2782
S'0:56:11'
p2783
aVsqrt((1/5)(4/5)27)
p2784
asS'part2_correct_attempt'
p2785
(lp2786
S'0:43:58'
p2787
aV27/5
p2788
asg9
V2015-11-06 23:10:07
p2789
sS'part3_incorrect_attempt'
p2790
(lp2791
(S'0:46:31'
p2792
V(13-(27/5))^2
p2793
tp2794
a(S'0:53:49'
p2795
V13-5.4/sqrt(27)
p2796
tp2797
a(S'0:54:00'
p2798
V13-5.4
p2799
tp2800
assVlahawkin
p2801
(dp2802
S'part3_correct_attempt'
p2803
(lp2804
S'1 day, 2:24:56'
p2805
aV((30*.25)*(.75))^(1/2)
p2806
asS'part2_correct_attempt'
p2807
(lp2808
S'0:01:32'
p2809
aV30*.25
p2810
asg9
V2015-11-04 17:21:24
p2811
sS'part3_incorrect_attempt'
p2812
(lp2813
(S'0:02:42'
p2814
V((30*.25)^2-(30*(.25^2)))^(1/2)
p2815
tp2816
a(S'0:03:37'
p2817
V((30*(.25^2))-(30*(.25)^2))^(1/2)
p2818
tp2819
a(S'1 day, 2:19:07'
p2820
V((((30*.25)-.75)^2)/30)^(1/2)
p2821
tp2822
a(S'1 day, 2:21:28'
p2823
V((((30*.25)-11)^2)/30)^(1/2)
p2824
tp2825
a(S'1 day, 2:24:40'
p2826
V(30*.25)*(.75)
p2827
tp2828
assVz2tan
p2829
(dp2830
S'part3_correct_attempt'
p2831
(lp2832
S'0:27:53'
p2833
aV(26*0.8*0.2)^0.5
p2834
asS'part2_correct_attempt'
p2835
(lp2836
S'0:01:04'
p2837
aV26/5
p2838
asg9
V2015-11-02 05:28:45
p2839
sS'part3_incorrect_attempt'
p2840
(lp2841
(S'0:03:23'
p2842
V26-5.2
p2843
tp2844
a(S'0:08:31'
p2845
V(5.2^2+4.2^2+3.2^2+2.2^2+1.2^2+0.2^2+0.8^2+1.8^2+2.8^2+3.8^2+4.8^2+5.8^2+6.8^2+7.8^2+8.8^2+9.8^2+10.8^2+11.8^2+12.8^2+13.8^2+14.8^2+15.8^2+16.8^2+17.8^2+18.8^2+19.8^2+20.8^2)^0.5
p2846
tp2847
a(S'0:14:16'
p2848
V((5.2^2+4.2^2+3.2^2+2.2^2+1.2^2+0.2^2+0.8^2+1.8^2+2.8^2+3.8^2+4.8^2+5.8^2+6.8^2+7.8^2+8.8^2+9.8^2+10.8^2+11.8^2+12.8^2+13.8^2+14.8^2+15.8^2+16.8^2+17.8^2+18.8^2+19.8^2+20.8^2)/27)^0.5
p2849
tp2850
assVyig015
p2851
(dp2852
S'part3_correct_attempt'
p2853
(lp2854
S'0:31:26'
p2855
aV2.371708245
p2856
asS'part2_correct_attempt'
p2857
(lp2858
S'0:09:09'
p2859
aV30/4
p2860
asg9
V2015-11-05 10:50:36
p2861
sS'part3_incorrect_attempt'
p2862
(lp2863
(S'0:11:27'
p2864
V0.0585207071
p2865
tp2866
assVvasharma
p2867
(dp2868
S'part3_correct_attempt'
p2869
(lp2870
S'0:04:22'
p2871
aVsqrt((28*.2)(1-.2))
p2872
asS'part2_correct_attempt'
p2873
(lp2874
S'0:02:58'
p2875
aV28*.2
p2876
asg9
V2015-11-04 19:06:11
p2877
sS'part3_incorrect_attempt'
p2878
(lp2879
(S'0:03:14'
p2880
V(28*.2)(1-.2)
p2881
tp2882
assVc3chung
p2883
(dp2884
S'part3_correct_attempt'
p2885
(lp2886
S'0:12:04'
p2887
aVsqrt(1/6(5/6)(21))
p2888
asS'part2_correct_attempt'
p2889
(lp2890
S'0:02:16'
p2891
aV1/6(21)
p2892
asg9
V2015-11-06 11:03:55
p2893
sS'part3_incorrect_attempt'
p2894
(lp2895
(S'0:03:35'
p2896
V3.5/20
p2897
tp2898
assVajvanega
p2899
(dp2900
S'part3_correct_attempt'
p2901
(lp2902
S'7:18:34'
p2903
aVsqrt((30/4)*(.75))
p2904
asS'part2_correct_attempt'
p2905
(lp2906
S'7:09:10'
p2907
aV(1/4)30
p2908
asg9
V2015-11-05 18:54:48
p2909
sS'part3_incorrect_attempt'
p2910
(lp2911
(S'7:09:40'
p2912
V(12-7.5)
p2913
tp2914
a(S'7:10:03'
p2915
V((12-7.5)^2)/30
p2916
tp2917
a(S'7:10:19'
p2918
V((12-7.5)^2)4
p2919
tp2920
a(S'7:10:29'
p2921
V((12-7.5)^2)/4
p2922
tp2923
a(S'7:10:41'
p2924
V((12-7.5)^2)/12
p2925
tp2926
a(S'7:11:10'
p2927
V((12-7.5)^2)
p2928
tp2929
a(S'7:17:21'
p2930
Vsqrt(30*.24*7.5)
p2931
tp2932
a(S'7:17:43'
p2933
Vsqrt(30*.25*7.5)
p2934
tp2935
assVzig006
p2936
(dp2937
S'part3_correct_attempt'
p2938
(lp2939
S'0:34:12'
p2940
aV((21)^0.5)/2
p2941
asS'part2_correct_attempt'
p2942
(lp2943
S'0:00:21'
p2944
aV7
p2945
asg9
V2015-11-04 21:24:02
p2946
sS'part3_incorrect_attempt'
p2947
(lp2948
(S'0:08:19'
p2949
V1/2
p2950
tp2951
assVjmiclat
p2952
(dp2953
S'part3_correct_attempt'
p2954
(lp2955
S'14:30:51'
p2956
aVsqrt([(1/4)(3/4)]*29)
p2957
asS'part2_correct_attempt'
p2958
(lp2959
S'14:29:16'
p2960
aV29*(1/4)
p2961
asg9
V2015-11-06 09:04:02
p2962
sS'part3_incorrect_attempt'
p2963
(lp2964
(S'14:30:19'
p2965
Vsqrt([(1/4)(3/4)]/29)
p2966
tp2967
assVsthapa
p2968
(dp2969
S'part3_correct_attempt'
p2970
(lp2971
S'0:43:22'
p2972
aVsqrt((5*4.33)/6)
p2973
asS'part2_correct_attempt'
p2974
(lp2975
S'0:25:33'
p2976
aV26/6
p2977
asg9
V2015-11-07 00:03:07
p2978
sS'part3_incorrect_attempt'
p2979
(lp2980
(S'0:29:34'
p2981
Vsqrt((4.3*6)/6)
p2982
tp2983
a(S'0:31:21'
p2984
V2.08
p2985
tp2986
a(S'0:33:23'
p2987
V0.84
p2988
tp2989
a(S'0:33:35'
p2990
V0.849
p2991
tp2992
a(S'0:34:49'
p2993
V0.84950966249
p2994
tp2995
a(S'0:42:56'
p2996
Vsqrt((26/5)/6)
p2997
tp2998
assVmjethani
p2999
(dp3000
S'part2_correct_attempt'
p3001
(lp3002
S'22:51:31'
p3003
aV30/6
p3004
asg9
V2015-11-06 02:05:57
p3005
sS'part3_incorrect_attempt'
p3006
(lp3007
(S'22:51:31'
p3008
Vsqrt((1-(1/180)))
p3009
tp3010
assVkgrozav
p3011
(dp3012
S'part3_correct_attempt'
p3013
(lp3014
S'0:16:16'
p3015
aV2.207940
p3016
asS'part2_correct_attempt'
p3017
(lp3018
S'0:12:04'
p3019
aV26 * (1/4)
p3020
asg9
V2015-11-05 20:31:16
p3021
sS'part3_incorrect_attempt'
p3022
(lp3023
(S'0:15:29'
p3024
V4.875
p3025
tp3026
assVj2phung
p3027
(dp3028
S'part3_correct_attempt'
p3029
(lp3030
S'0:34:15'
p3031
aV(30*(1/4)*(3/4))^(1/2)
p3032
asS'part2_correct_attempt'
p3033
(lp3034
S'0:01:53'
p3035
aV30/4
p3036
asg9
V2015-11-05 09:45:24
p3037
sS'part3_incorrect_attempt'
p3038
(lp3039
(S'0:17:47'
p3040
V30/4
p3041
tp3042
asssV2
p3043
(dp3044
Vb3hwang
p3045
(dp3046
S'part2_correct_attempt'
p3047
(lp3048
S'9:32:10'
p3049
ag1164
asg9
g1165
sS'part2_incorrect_attempt'
p3050
(lp3051
(S'0:10:25'
p3052
VC(26,9)
p3053
tp3054
a(S'9:21:13'
p3055
V9/26
p3056
tp3057
a(S'9:22:00'
p3058
V1/26
p3059
tp3060
assVkew017
p3061
(dp3062
S'part2_correct_attempt'
p3063
(lp3064
S'0:38:21'
p3065
aV22/5
p3066
asg9
V2015-11-06 00:03:03
p3067
sS'part2_incorrect_attempt'
p3068
(lp3069
(S'0:37:01'
p3070
V22/12
p3071
tp3072
a(S'0:37:55'
p3073
V22/12
p3074
tp3075
assVppanourg
p3076
(dp3077
S'part2_correct_attempt'
p3078
(lp3079
S'9:27:31'
p3080
ag2182
asg9
g2183
sS'part2_incorrect_attempt'
p3081
(lp3082
(S'0:00:58'
p3083
V5.5
p3084
tp3085
a(S'9:24:04'
p3086
V2.5
p3087
tp3088
a(S'9:26:01'
p3089
V(1/5)*(1+2+3+4+5+6+7+8+9+10+11+12+13+14+15+16+17+18+19+20+21+22+23+24+25+26+27+28)
p3090
tp3091
assVagoldsht
p3092
(dp3093
S'part2_correct_attempt'
p3094
(lp3095
S'0:01:59'
p3096
aV28/5
p3097
asg9
V2015-11-04 20:02:15
p3098
sS'part2_incorrect_attempt'
p3099
(lp3100
(S'0:01:13'
p3101
V10/28
p3102
tp3103
assVccn001
p3104
(dp3105
S'part2_correct_attempt'
p3106
(lp3107
S'3 days, 1:58:44'
p3108
ag1183
asg9
g1184
sS'part2_incorrect_attempt'
p3109
(lp3110
(S'0:00:00'
p3111
V11.5
p3112
tp3113
a(S'21:44:05'
p3114
V10/22
p3115
tp3116
a(S'21:50:38'
p3117
V(10+11+12+13+14+15+16+17+18+19+20+21+22)/13
p3118
tp3119
a(S'2 days, 6:11:16'
p3120
V22/2
p3121
tp3122
assVvsamant
p3123
(dp3124
S'part2_correct_attempt'
p3125
(lp3126
S'0:01:18'
p3127
ag2391
asg9
g2392
sS'part2_incorrect_attempt'
p3128
(lp3129
(S'0:01:00'
p3130
V27/2
p3131
tp3132
assVdsmonaha
p3133
(dp3134
S'part2_correct_attempt'
p3135
(lp3136
S'0:13:27'
p3137
aV1/4*28
p3138
asg9
V2015-11-06 19:23:26
p3139
sS'part2_incorrect_attempt'
p3140
(lp3141
(S'0:00:41'
p3142
V28/2
p3143
tp3144
assVhkhodada
p3145
(dp3146
S'part2_correct_attempt'
p3147
(lp3148
S'4 days, 1:06:07'
p3149
aV11/2
p3150
asg9
V2015-10-31 17:45:28
p3151
sS'part2_incorrect_attempt'
p3152
(lp3153
(S'2 days, 7:18:32'
p3154
VC(22,11)
p3155
tp3156
a(S'3 days, 11:48:21'
p3157
V(12*13)/8
p3158
tp3159
assVvasharma
p3160
(dp3161
S'part2_correct_attempt'
p3162
(lp3163
S'0:02:58'
p3164
ag2876
asg9
g2877
sS'part2_incorrect_attempt'
p3165
(lp3166
(S'0:02:47'
p3167
V0.00990321756631932
p3168
tp3169
assVfichoi
p3170
(dp3171
S'part2_correct_attempt'
p3172
(lp3173
S'0:50:42'
p3174
ag2410
asg9
g2411
sS'part2_incorrect_attempt'
p3175
(lp3176
(S'0:42:26'
p3177
V1/6*8
p3178
tp3179
assVabjara
p3180
(dp3181
S'part2_correct_attempt'
p3182
(lp3183
S'0:10:01'
p3184
aV22*1/5
p3185
asg9
V2015-11-04 03:06:02
p3186
sS'part2_incorrect_attempt'
p3187
(lp3188
(S'0:02:57'
p3189
V8/22
p3190
tp3191
assVj6quach
p3192
(dp3193
S'part2_correct_attempt'
p3194
(lp3195
S'1:20:29'
p3196
ag2508
asg9
g2509
sS'part2_incorrect_attempt'
p3197
(lp3198
(S'0:18:30'
p3199
V(1+2+3+4+5+6+7+8+9+10+11+12+13+14+15+16+17+18+19+20+21+22+23+24+25+26)/26
p3200
tp3201
assVjjm019
p3202
(dp3203
S'part2_correct_attempt'
p3204
(lp3205
S'6:23:53'
p3206
aV26*(1/6)
p3207
asg9
V2015-11-04 23:37:26
p3208
sS'part2_incorrect_attempt'
p3209
(lp3210
(S'5:59:18'
p3211
V[1*(1/2)]+[2*(1/2)]+[3*(1/2)]+[4*(1/2)]+[5*(1/2)]+[6*(1/2)]+[7*(1/2)]+[8*(1/2)]+[9*(1/2)]+[10*(1/2)]+[11*(1/2)]+[12*(1/2)]+[13*(1/2)]+[14*(1/2)]+[15*(1/2)]+[16*(1/2)]+[17*(1/2)]+[18*(1/2)]+[19*(1/2)]+[20*(1/2)]+[21*(1/2)]+[22*(1/2)]+[23*(1/2)]+[24*(1/2)]+[25*(1/2)]+[26*(1/2)]
p3212
tp3213
assVmhale
p3214
(dp3215
S'part2_correct_attempt'
p3216
(lp3217
S'0:01:30'
p3218
aV27/6
p3219
asg9
V2015-11-05 20:28:57
p3220
sS'part2_incorrect_attempt'
p3221
(lp3222
(S'0:01:06'
p3223
V6/27
p3224
tp3225
assVkrau
p3226
(dp3227
S'part2_correct_attempt'
p3228
(lp3229
S'0:01:27'
p3230
ag1291
asg9
g1292
sS'part2_incorrect_attempt'
p3231
(lp3232
(S'0:01:16'
p3233
V40/2
p3234
tp3235
assVdcrume
p3236
(dp3237
S'part2_correct_attempt'
p3238
(lp3239
S'0:19:11'
p3240
aV25(1/5)
p3241
asg9
V2015-11-06 20:38:07
p3242
sS'part2_incorrect_attempt'
p3243
(lp3244
(S'0:09:47'
p3245
V25(1-10/25)
p3246
tp3247
a(S'0:12:18'
p3248
V25*(C(25,10))
p3249
tp3250
a(S'0:12:37'
p3251
V25*C(25,10)
p3252
tp3253
assVpvl001
p3254
(dp3255
S'part2_correct_attempt'
p3256
(lp3257
S'0:01:22'
p3258
ag1844
asg9
g1845
sS'part2_incorrect_attempt'
p3259
(lp3260
(S'0:00:49'
p3261
V10.5
p3262
tp3263
assVmrchin
p3264
(dp3265
S'part2_correct_attempt'
p3266
(lp3267
S'0:06:57'
p3268
aV25/6
p3269
asg9
V2015-11-06 19:53:59
p3270
sS'part2_incorrect_attempt'
p3271
(lp3272
(S'0:00:23'
p3273
V25*12
p3274
tp3275
assVjmiclat
p3276
(dp3277
S'part2_correct_attempt'
p3278
(lp3279
S'14:29:16'
p3280
ag2961
asg9
g2962
sS'part2_incorrect_attempt'
p3281
(lp3282
(S'0:05:30'
p3283
V1-Phi(11)
p3284
tp3285
a(S'0:05:39'
p3286
V1-Phi(29)
p3287
tp3288
a(S'14:20:17'
p3289
VPhi(11)
p3290
tp3291
a(S'14:20:55'
p3292
VQ(11)
p3293
tp3294
a(S'14:22:20'
p3295
V11/29
p3296
tp3297
a(S'14:23:57'
p3298
V11/(29*4)
p3299
tp3300
a(S'14:24:56'
p3301
V4/29
p3302
tp3303
a(S'14:25:23'
p3304
V11/29^4
p3305
tp3306
a(S'14:28:34'
p3307
V29*(11^4/29^4)
p3308
tp3309
assVbeyounge
p3310
(dp3311
S'part2_correct_attempt'
p3312
(lp3313
S'6 days, 0:08:52'
p3314
ag1350
asg9
g1351
sS'part2_incorrect_attempt'
p3315
(lp3316
(S'0:03:09'
p3317
V28 / 2
p3318
tp3319
a(S'18:01:18'
p3320
V28/2
p3321
tp3322
a(S'18:01:29'
p3323
V9/2
p3324
tp3325
a(S'18:12:59'
p3326
V9 + [(28-9)/2]
p3327
tp3328
a(S'5 days, 23:32:51'
p3329
V28/2
p3330
tp3331
a(S'5 days, 23:33:10'
p3332
V9/2
p3333
tp3334
a(S'5 days, 23:33:24'
p3335
V(28-9)
p3336
tp3337
a(S'5 days, 23:38:57'
p3338
V(6 * (28 - 9)) / 2
p3339
tp3340
assVpsable
p3341
(dp3342
S'part2_correct_attempt'
p3343
(lp3344
S'0:08:56'
p3345
aV23/6
p3346
asg9
V2015-11-06 00:30:41
p3347
sS'part2_incorrect_attempt'
p3348
(lp3349
(S'0:05:20'
p3350
V6/23
p3351
tp3352
a(S'0:05:47'
p3353
V8/23
p3354
tp3355
assVtpmach
p3356
(dp3357
S'part2_correct_attempt'
p3358
(lp3359
S'17:50:50'
p3360
ag1399
asg9
g1400
sS'part2_incorrect_attempt'
p3361
(lp3362
(S'0:00:27'
p3363
V1/2
p3364
tp3365
a(S'17:46:59'
p3366
V22/2
p3367
tp3368
assVksmurlo
p3369
(dp3370
S'part2_correct_attempt'
p3371
(lp3372
S'0:03:47'
p3373
ag1965
asg9
g1966
sS'part2_incorrect_attempt'
p3374
(lp3375
(S'0:00:00'
p3376
VC(29,11)(.25^11)(.75^18)
p3377
tp3378
a(S'0:03:08'
p3379
V(34597290)(.25^11)(.75^18)
p3380
tp3381
assVjyc018
p3382
(dp3383
S'part2_correct_attempt'
p3384
(lp3385
S'4:59:40'
p3386
ag781
asg9
g782
sS'part2_incorrect_attempt'
p3387
(lp3388
(S'1:04:44'
p3389
V210/20
p3390
tp3391
a(S'1:05:14'
p3392
V210/21
p3393
tp3394
a(S'1:05:42'
p3395
V(0+1+2+3+4+5+6+7+8+9+10+11+12+13+14+15+16+17+18+19+20)/21
p3396
tp3397
a(S'4:55:14'
p3398
V210/6**20
p3399
tp3400
a(S'4:57:28'
p3401
V(C(20,0) +C(20,1)+C(20,2)+C(20,3)+C(20,4)+C(20,5)+C(20,6)+C(20,7)+C(20,18)+C(20,9)+C(20,10))/6**20*2
p3402
tp3403
assVjew037
p3404
(dp3405
S'part2_correct_attempt'
p3406
(lp3407
S'0:01:00'
p3408
aV26/6
p3409
asg9
V2015-11-05 00:24:42
p3410
sS'part2_incorrect_attempt'
p3411
(lp3412
(S'0:00:37'
p3413
V26/(1/6)
p3414
tp3415
assVdkostins
p3416
(dp3417
S'part2_correct_attempt'
p3418
(lp3419
S'1 day, 21:45:27'
p3420
aV21/5
p3421
asg9
V2015-11-04 07:15:29
p3422
sS'part2_incorrect_attempt'
p3423
(lp3424
(S'0:05:48'
p3425
V.2
p3426
tp3427
a(S'0:06:00'
p3428
V.2/21
p3429
tp3430
assVmnrahman
p3431
(dp3432
S'part2_correct_attempt'
p3433
(lp3434
S'0:26:56'
p3435
aV26/5
p3436
asg9
V2015-11-07 00:02:07
p3437
sS'part2_incorrect_attempt'
p3438
(lp3439
(S'0:00:18'
p3440
V4.16
p3441
tp3442
assVagarango
p3443
(dp3444
S'part2_correct_attempt'
p3445
(lp3446
S'0:18:35'
p3447
ag2598
asg9
g2599
sS'part2_incorrect_attempt'
p3448
(lp3449
(S'0:17:16'
p3450
V21/2
p3451
tp3452
assVavasavad
p3453
(dp3454
g9
V2015-11-04 23:24:31
p3455
sS'part2_incorrect_attempt'
p3456
(lp3457
(S'-1 day, 23:58:47'
p3458
V11/29
p3459
tp3460
a(S'1 day, 13:22:09'
p3461
V(5/29)^29
p3462
tp3463
a(S'1 day, 13:24:06'
p3464
V5(1/29 + 2/29+3/29+4/29+6/29+7/29+8/29+9/29+10/29+11/29+12/29+13/29+14/29+15/29+16/29+17/29+18/29+20/29+21/29+22/29+23/29+24/29+25/29+26/29+27/29+28/29+1)
p3465
tp3466
a(S'1 day, 13:24:36'
p3467
V5(1/29 + 5/29 + 19/299 + 2/29+3/29+4/29+6/29+7/29+8/29+9/29+10/29+11/29+12/29+13/29+14/29+15/29+16/29+17/29+18/29+20/29+21/29+22/29+23/29+24/29+25/29+26/29+27/29+28/29+1)
p3468
tp3469
a(S'1 day, 13:24:58'
p3470
V5(1/29 + 5/29 + 19/29 + 2/29+3/29+4/29+6/29+7/29+8/29+9/29+10/29+11/29+12/29+13/29+14/29+15/29+16/29+17/29+18/29+20/29+21/29+22/29+23/29+24/29+25/29+26/29+27/29+28/29+1)
p3471
tp3472
a(S'1 day, 13:25:25'
p3473
V5/11(1+2+3+4+5+6+7+8+9+10+11)
p3474
tp3475
a(S'1 day, 13:25:32'
p3476
V1/11(1+2+3+4+5+6+7+8+9+10+11)
p3477
tp3478
assVqfu
p3479
(dp3480
S'part2_correct_attempt'
p3481
(lp3482
S'1 day, 0:06:07'
p3483
ag1607
asg9
g1608
sS'part2_incorrect_attempt'
p3484
(lp3485
(S'0:13:17'
p3486
V1/5*14*29
p3487
tp3488
assVajvanega
p3489
(dp3490
S'part2_correct_attempt'
p3491
(lp3492
S'7:09:10'
p3493
ag2908
asg9
g2909
sS'part2_incorrect_attempt'
p3494
(lp3495
(S'0:27:56'
p3496
V12/30
p3497
tp3498
assVtol003
p3499
(dp3500
S'part2_correct_attempt'
p3501
(lp3502
S'0:05:33'
p3503
ag2091
asg9
g2092
sS'part2_incorrect_attempt'
p3504
(lp3505
(S'0:04:52'
p3506
V9/28
p3507
tp3508
assVskodigal
p3509
(dp3510
S'part2_correct_attempt'
p3511
(lp3512
S'0:03:13'
p3513
aV27* (1/6)
p3514
asg9
V2015-11-06 05:35:00
p3515
sS'part2_incorrect_attempt'
p3516
(lp3517
(S'0:01:12'
p3518
V17383860(1/6)^12 * (1-1/6)^(27-12)
p3519
tp3520
a(S'0:01:22'
p3521
V(1/6)^12 * (1-1/6)^(27-12)
p3522
tp3523
assVhachrist
p3524
(dp3525
S'part2_correct_attempt'
p3526
(lp3527
S'2 days, 0:32:41'
p3528
aV21 * 1/5
p3529
asg9
V2015-11-03 21:54:37
p3530
sS'part2_incorrect_attempt'
p3531
(lp3532
(S'1 day, 2:50:40'
p3533
V1/5 * 11
p3534
tp3535
a(S'1 day, 9:09:19'
p3536
V5^11
p3537
tp3538
a(S'1 day, 10:49:03'
p3539
V2^11
p3540
tp3541
a(S'1 day, 22:56:21'
p3542
V21/2
p3543
tp3544
a(S'1 day, 22:56:52'
p3545
V1- (21/2 / 11)
p3546
tp3547
a(S'1 day, 22:58:43'
p3548
V1/5 * 21 /2
p3549
tp3550
a(S'1 day, 22:59:07'
p3551
V5.5
p3552
tp3553
a(S'1 day, 23:10:26'
p3554
V1/5/21
p3555
tp3556
a(S'1 day, 23:11:46'
p3557
V(11/5 + 12/5 + 13/5 + 14/5 + 16/5 + 17/5 + 18/5 + 19/5 + 20/5+ 21/5)/10
p3558
tp3559
assVhmshah
p3560
(dp3561
g9
V2015-11-05 10:24:09
p3562
sS'part2_incorrect_attempt'
p3563
(lp3564
(S'11:09:43'
p3565
V21/2
p3566
tp3567
a(S'11:09:53'
p3568
V13/2
p3569
tp3570
a(S'11:09:59'
p3571
V8/2
p3572
tp3573
a(S'11:14:18'
p3574
V21*(8/21)
p3575
tp3576
a(S'11:15:54'
p3577
V21*(8/21)*(13/21)*15
p3578
tp3579
assVt1tran
p3580
(dp3581
S'part2_correct_attempt'
p3582
(lp3583
S'0:07:09'
p3584
ag1427
asg9
g1428
sS'part2_incorrect_attempt'
p3585
(lp3586
(S'0:03:23'
p3587
V12(4/24)
p3588
tp3589
assVaggouw
p3590
(dp3591
S'part2_correct_attempt'
p3592
(lp3593
S'0:00:52'
p3594
aV29(1/5)
p3595
asg9
V2015-11-04 08:53:06
p3596
sS'part2_incorrect_attempt'
p3597
(lp3598
(S'0:00:16'
p3599
V25(1/4)
p3600
tp3601
assVdtea
p3602
(dp3603
g9
V2015-11-07 00:23:01
p3604
sS'part2_incorrect_attempt'
p3605
(lp3606
(S'0:01:09'
p3607
V(0+1+2+3+4+5+6+7+8+9+10+11+12+13+14+15+16+17+18+19+20+21+22)/22
p3608
tp3609
a(S'0:01:16'
p3610
V(0+1+2+3+4+5+6+7+8+9+10+11+12+13+14+15+16+17+18+19+20+21+22)/23
p3611
tp3612
a(S'0:01:35'
p3613
V(0+1+2+3+4+5+6+7+8+9+10+11+12+13+14+15+16+17+18+19+20+21+22)/22
p3614
tp3615
assVl8ngo
p3616
(dp3617
S'part2_correct_attempt'
p3618
(lp3619
S'1 day, 21:43:38'
p3620
aV21/4
p3621
asg9
V2015-11-04 01:12:39
p3622
sS'part2_incorrect_attempt'
p3623
(lp3624
(S'1 day, 21:39:05'
p3625
V21/2
p3626
tp3627
a(S'1 day, 21:40:00'
p3628
V11/21
p3629
tp3630
a(S'1 day, 21:40:13'
p3631
V21/11
p3632
tp3633
a(S'1 day, 21:41:56'
p3634
V231/2
p3635
tp3636
a(S'1 day, 21:43:14'
p3637
V21/2
p3638
tp3639
assVdsriniva
p3640
(dp3641
S'part2_correct_attempt'
p3642
(lp3643
S'0:03:10'
p3644
ag966
asg9
g967
sS'part2_incorrect_attempt'
p3645
(lp3646
(S'0:00:56'
p3647
V13.5
p3648
tp3649
assVabasu
p3650
(dp3651
S'part2_correct_attempt'
p3652
(lp3653
S'0:06:00'
p3654
ag1803
asg9
g1804
sS'part2_incorrect_attempt'
p3655
(lp3656
(S'0:02:55'
p3657
V29/2
p3658
tp3659
a(S'0:03:32'
p3660
V5/145
p3661
tp3662
assVsayao
p3663
(dp3664
S'part2_correct_attempt'
p3665
(lp3666
S'0:04:04'
p3667
ag991
asg9
g992
sS'part2_incorrect_attempt'
p3668
(lp3669
(S'-2 days, 22:13:27'
p3670
V((22*21/2)- (8*9/2))/14
p3671
tp3672
a(S'-2 days, 22:13:36'
p3673
V((22*21/2)- (8*9/2))/13
p3674
tp3675
a(S'-1 day, 23:57:41'
p3676
V(9+10+11+12+13+14+15+16+17+18+19+20+21+22)/14
p3677
tp3678
a(S'-1 day, 23:59:25'
p3679
V(22+23)/2/22
p3680
tp3681
a(S'0:02:44'
p3682
V22*4/22
p3683
tp3684
assVanvan
p3685
(dp3686
S'part2_correct_attempt'
p3687
(lp3688
S'1 day, 5:43:16'
p3689
aV28(.2)
p3690
asg9
V2015-11-05 08:30:59
p3691
sS'part2_incorrect_attempt'
p3692
(lp3693
(S'8:35:43'
p3694
V28 * (28! / 10!18!) * (.2)^10*(.8)18
p3695
tp3696
a(S'1 day, 5:42:06'
p3697
V28! / (5!23!) * (10)^.2 * (18)^.8
p3698
tp3699
a(S'1 day, 5:42:25'
p3700
V28! / (10!18!) * (10)^.2 * (18)^.8
p3701
tp3702
assVdpereira
p3703
(dp3704
S'part2_correct_attempt'
p3705
(lp3706
S'6 days, 0:19:27'
p3707
ag2772
asg9
g2773
sS'part2_incorrect_attempt'
p3708
(lp3709
(S'0:06:32'
p3710
VQ(12)
p3711
tp3712
a(S'0:06:45'
p3713
VQ(11)
p3714
tp3715
assVc1sorian
p3716
(dp3717
S'part2_correct_attempt'
p3718
(lp3719
S'1:08:22'
p3720
ag1218
asg9
g1219
sS'part2_incorrect_attempt'
p3721
(lp3722
(S'0:09:16'
p3723
V1+2+3+4+5+6+7+8+9+10+11+12+13+14+15+16+17+18+19+20+21+22+23+24+25+26+27
p3724
tp3725
a(S'0:09:35'
p3726
V(1+2+3+4+5+6+7+8+9+10+11+12+13+14+15+16+17+18+19+20+21+22+23+24+25+26+27)/27
p3727
tp3728
assVhaliew
p3729
(dp3730
S'part2_correct_attempt'
p3731
(lp3732
S'0:43:58'
p3733
ag2788
asg9
g2789
sS'part2_incorrect_attempt'
p3734
(lp3735
(S'0:02:29'
p3736
V13(1/5)
p3737
tp3738
a(S'0:02:43'
p3739
V13/27
p3740
tp3741
assVbakang
p3742
(dp3743
S'part2_correct_attempt'
p3744
(lp3745
S'0:15:55'
p3746
ag1537
asg9
g1538
sS'part2_incorrect_attempt'
p3747
(lp3748
(S'0:04:33'
p3749
V6+C(6,2)+C(6,3)+C(6,4)+C(6,5)+1
p3750
tp3751
a(S'0:13:18'
p3752
V(6+2*15+3*40+4*15+5*6+6)/126
p3753
tp3754
assVaordookh
p3755
(dp3756
S'part2_correct_attempt'
p3757
(lp3758
S'1 day, 7:31:46'
p3759
aV28/6
p3760
asg9
V2015-11-04 22:22:30
p3761
sS'part2_incorrect_attempt'
p3762
(lp3763
(S'0:06:01'
p3764
V11(1/(28*6))
p3765
tp3766
a(S'1:33:32'
p3767
V1/(28*6)
p3768
tp3769
assVstarinia
p3770
(dp3771
S'part2_correct_attempt'
p3772
(lp3773
S'1:04:37'
p3774
aV28 *( 1/5)
p3775
asg9
V2015-11-05 03:24:47
p3776
sS'part2_incorrect_attempt'
p3777
(lp3778
(S'0:53:02'
p3779
V1/5 + 2/5 + 3/5 + 4/5 + 1
p3780
tp3781
a(S'1:03:33'
p3782
V28 / (1/5)
p3783
tp3784
a(S'1:03:59'
p3785
V28 /9
p3786
tp3787
assVdcastlem
p3788
(dp3789
S'part2_correct_attempt'
p3790
(lp3791
S'1:14:44'
p3792
aV1/5*26
p3793
asg9
V2015-11-03 00:40:08
p3794
sS'part2_incorrect_attempt'
p3795
(lp3796
(S'0:22:26'
p3797
V10/26
p3798
tp3799
a(S'0:35:34'
p3800
V5/26
p3801
tp3802
assVkgrozav
p3803
(dp3804
S'part2_correct_attempt'
p3805
(lp3806
S'0:12:04'
p3807
ag3020
asg9
g3021
sS'part2_incorrect_attempt'
p3808
(lp3809
(S'0:11:54'
p3810
V12 * (1/4)
p3811
tp3812
assVvolim
p3813
(dp3814
S'part2_correct_attempt'
p3815
(lp3816
S'0:48:55'
p3817
aV23*(1/6)
p3818
asg9
V2015-11-04 23:30:44
p3819
sS'part2_incorrect_attempt'
p3820
(lp3821
(S'0:00:27'
p3822
V9/23
p3823
tp3824
a(S'0:00:49'
p3825
V9/(23*6)
p3826
tp3827
a(S'0:38:37'
p3828
VPhi(23)
p3829
tp3830
a(S'0:48:37'
p3831
V23*.5
p3832
tp3833
assVyypan
p3834
(dp3835
S'part2_correct_attempt'
p3836
(lp3837
S'1:00:46'
p3838
aV23*0.2
p3839
asg9
V2015-11-03 00:31:21
p3840
sS'part2_incorrect_attempt'
p3841
(lp3842
(S'0:06:17'
p3843
V0.5
p3844
tp3845
a(S'0:06:49'
p3846
V0.5*23
p3847
tp3848
a(S'0:08:52'
p3849
V0.5
p3850
tp3851
a(S'0:11:30'
p3852
V23/1+23/2+23/3+23/4+23/5+23/6+23/7+23/8+23/9+23/10+23/11+23/12+23/13+23/14+23/15+23/16+23/17+23/18+23/19+23/20+23/21+23/22+23/23
p3853
tp3854
a(S'0:46:56'
p3855
V1/0.5
p3856
tp3857
a(S'1:00:27'
p3858
V23*0.5
p3859
tp3860
assVaurodrig
p3861
(dp3862
S'part2_correct_attempt'
p3863
(lp3864
S'0:17:59'
p3865
aV24 * 1/4
p3866
asg9
V2015-11-06 23:34:06
p3867
sS'part2_incorrect_attempt'
p3868
(lp3869
(S'0:03:55'
p3870
V(4*24)/24
p3871
tp3872
a(S'0:06:39'
p3873
V24*(11/24)
p3874
tp3875
a(S'0:12:46'
p3876
V24 * (11/24)
p3877
tp3878
assVkew060
p3879
(dp3880
S'part2_correct_attempt'
p3881
(lp3882
S'22:02:32'
p3883
aV(1/4)*26
p3884
asg9
V2015-11-05 01:37:43
p3885
sS'part2_incorrect_attempt'
p3886
(lp3887
(S'22:02:19'
p3888
V(1/4)*13
p3889
tp3890
a(S'22:02:25'
p3891
V(1/4)*14
p3892
tp3893
assVv3doan
p3894
(dp3895
S'part2_correct_attempt'
p3896
(lp3897
S'1 day, 19:03:32'
p3898
aV25 / 6
p3899
asg9
V2015-11-05 05:30:30
p3900
sS'part2_incorrect_attempt'
p3901
(lp3902
(S'10:52:24'
p3903
V(8+25)/2
p3904
tp3905
assVjguanzho
p3906
(dp3907
S'part2_correct_attempt'
p3908
(lp3909
S'0:01:00'
p3910
ag689
asg9
g690
sS'part2_incorrect_attempt'
p3911
(lp3912
(S'0:00:00'
p3913
V28*0.5
p3914
tp3915
assVralhadda
p3916
(dp3917
S'part2_correct_attempt'
p3918
(lp3919
S'0:05:12'
p3920
aV6.25
p3921
asg9
V2015-10-31 21:01:50
p3922
sS'part2_incorrect_attempt'
p3923
(lp3924
(S'0:03:39'
p3925
V1/100
p3926
tp3927
a(S'0:03:49'
p3928
V1/25
p3929
tp3930
a(S'0:04:07'
p3931
V4/25
p3932
tp3933
assVsghouse
p3934
(dp3935
S'part2_correct_attempt'
p3936
(lp3937
S'0:05:58'
p3938
ag1711
asg9
g1712
sS'part2_incorrect_attempt'
p3939
(lp3940
(S'0:05:29'
p3941
V11.5
p3942
tp3943
assVkosung
p3944
(dp3945
S'part2_correct_attempt'
p3946
(lp3947
S'0:17:05'
p3948
aV21/4
p3949
asg9
V2015-11-05 18:19:07
p3950
sS'part2_incorrect_attempt'
p3951
(lp3952
(S'0:04:32'
p3953
V2.5
p3954
tp3955
a(S'0:05:57'
p3956
V52.5
p3957
tp3958
asssV5
p3959
(dp3960
Vdmn009
p3961
(dp3962
S'part5_correct_attempt'
p3963
(lp3964
S'0:01:15'
p3965
aV.000424966
p3966
asS'part5_incorrect_attempt'
p3967
(lp3968
(S'0:01:05'
p3969
V3.336
p3970
tp3971
asS'part3_correct_attempt'
p3972
(lp3973
S'-1 day, 23:57:57'
p3974
aV3.336
p3975
asS'part2_correct_attempt'
p3976
(lp3977
S'-1 day, 23:57:57'
p3978
aV1.91833
p3979
asg9
V2015-11-05 09:18:22
p3980
ssVb3hwang
p3981
(dp3982
S'part5_correct_attempt'
p3983
(lp3984
S'9:50:26'
p3985
aV1 - Phi(2.45576)
p3986
asS'part2_correct_attempt'
p3987
(lp3988
S'9:32:10'
p3989
ag1164
asS'part5_incorrect_attempt'
p3990
(lp3991
(S'9:41:06'
p3992
V.008
p3993
tp3994
a(S'9:44:28'
p3995
V(.5-0.4929)
p3996
tp3997
a(S'9:45:04'
p3998
V(.5+0.4929)
p3999
tp4000
a(S'9:45:18'
p4001
V(.5+0.4931)
p4002
tp4003
a(S'9:45:25'
p4004
V(.5-0.4931)
p4005
tp4006
a(S'9:47:37'
p4007
V0.16157
p4008
tp4009
a(S'9:48:17'
p4010
V0.992971
p4011
tp4012
asS'part4_correct_attempt'
p4013
(lp4014
S'9:39:31'
p4015
aV(9-((1/6)*26))/(((1/6)*26)(1-(1/6)))^(1/2)
p4016
asS'part3_correct_attempt'
p4017
(lp4018
S'9:34:47'
p4019
ag1160
asg9
g1165
ssVppanourg
p4020
(dp4021
S'part5_correct_attempt'
p4022
(lp4023
S'9:42:28'
p4024
aV1 - .9946
p4025
asS'part2_correct_attempt'
p4026
(lp4027
S'9:27:31'
p4028
ag2182
asS'part5_incorrect_attempt'
p4029
(lp4030
(S'9:40:11'
p4031
V.4946
p4032
tp4033
a(S'9:40:59'
p4034
V.9946
p4035
tp4036
asS'part4_correct_attempt'
p4037
(lp4038
S'9:31:38'
p4039
aV(11-28/5)/sqrt((28/5)(1-1/5))
p4040
asS'part3_correct_attempt'
p4041
(lp4042
S'9:30:01'
p4043
ag2178
asg9
g2183
ssVv4zhang
p4044
(dp4045
S'part5_correct_attempt'
p4046
(lp4047
S'0:08:28'
p4048
aVQ((9-(29/6))/[sqrt((1/6)*(1-1/6)*29)])
p4049
asS'part2_correct_attempt'
p4050
(lp4051
S'0:03:40'
p4052
aV29/6
p4053
asS'part5_incorrect_attempt'
p4054
(lp4055
(S'0:07:45'
p4056
V1.8e^-2
p4057
tp4058
asS'part4_correct_attempt'
p4059
(lp4060
S'0:07:45'
p4061
aV(9-(29/6))/[sqrt((1/6)*(1-1/6)*29)]
p4062
asS'part3_correct_attempt'
p4063
(lp4064
S'0:07:45'
p4065
aVsqrt((1/6)*(1-1/6)*29)
p4066
asg9
V2015-11-06 07:21:17
p4067
ssVquwong
p4068
(dp4069
S'part5_correct_attempt'
p4070
(lp4071
S'0:23:21'
p4072
aV0.002254
p4073
asS'part2_correct_attempt'
p4074
(lp4075
S'0:17:06'
p4076
aV27/6
p4077
asS'part5_incorrect_attempt'
p4078
(lp4079
(S'0:21:36'
p4080
V0.81421
p4081
tp4082
a(S'0:22:11'
p4083
V0.981421
p4084
tp4085
a(S'0:22:34'
p4086
V0.018579
p4087
tp4088
asS'part4_correct_attempt'
p4089
(lp4090
S'0:21:36'
p4091
aV(10 - 27/6)/((27/6*5/6)^0.5)
p4092
asS'part3_correct_attempt'
p4093
(lp4094
S'0:17:57'
p4095
aV(27/6*5/6)^0.5
p4096
asg9
V2015-11-03 01:16:34
p4097
ssVaggouw
p4098
(dp4099
S'part5_correct_attempt'
p4100
(lp4101
S'0:02:21'
p4102
aVQ([12-[29(1/5)]]/sqrt(29(1/5)*(1-1/5)))
p4103
asS'part2_correct_attempt'
p4104
(lp4105
S'0:00:52'
p4106
ag3595
asS'part5_incorrect_attempt'
p4107
(lp4108
(S'0:02:04'
p4109
VQ([11-[25(1/4)]]/sqrt(25(1/4)*(1-1/4)))
p4110
tp4111
asS'part4_correct_attempt'
p4112
(lp4113
S'0:01:57'
p4114
aV[12-[29(1/5)]]/sqrt(29(1/5)*(1-1/5))
p4115
asS'part3_correct_attempt'
p4116
(lp4117
S'0:01:16'
p4118
aVsqrt(29(1/5)*(1-1/5))
p4119
asg9
g3596
ssVkbielawi
p4120
(dp4121
S'part5_correct_attempt'
p4122
(lp4123
S'4:15:14'
p4124
aVQ((8-(24/5))/(1.95959))
p4125
asS'part2_correct_attempt'
p4126
(lp4127
S'0:02:14'
p4128
ag673
asS'part5_incorrect_attempt'
p4129
(lp4130
(S'0:12:55'
p4131
V1-Phi(8)
p4132
tp4133
a(S'0:13:34'
p4134
V1-(1-Phi(8))
p4135
tp4136
asS'part4_correct_attempt'
p4137
(lp4138
S'0:11:13'
p4139
aV(8-(24/5))/(1.95959)
p4140
asS'part3_correct_attempt'
p4141
(lp4142
S'0:07:20'
p4143
ag669
asg9
g674
ssVlguintu
p4144
(dp4145
S'part5_correct_attempt'
p4146
(lp4147
S'0:31:16'
p4148
aV1-Phi((11-24/5)/(24*(1/5)*(4/5))^(1/2))
p4149
asS'part2_correct_attempt'
p4150
(lp4151
S'0:03:20'
p4152
ag1199
asS'part5_incorrect_attempt'
p4153
(lp4154
(S'0:17:59'
p4155
V13/24
p4156
tp4157
a(S'0:25:04'
p4158
VC(24,0)*(1/5)^0*(4/5)^24+C(24,1)+C(24,2)+C(24,3)+C(24,4)+C(24,5)+C(24,6)+C(24,7)+C(24,8)+C(24,9)+C(24,10)
p4159
tp4160
a(S'0:29:01'
p4161
V.9992
p4162
tp4163
a(S'0:29:07'
p4164
V1-.9992
p4165
tp4166
a(S'0:31:04'
p4167
V1-Phi(0.3)
p4168
tp4169
asS'part4_correct_attempt'
p4170
(lp4171
S'0:14:23'
p4172
aV(11-24/5)/(24*(1/5)*(4/5))^(1/2)
p4173
asS'part3_correct_attempt'
p4174
(lp4175
S'0:14:03'
p4176
ag1195
asg9
g1200
ssVacvuong
p4177
(dp4178
S'part5_correct_attempt'
p4179
(lp4180
S'0:03:37'
p4181
aVQ((12-(30/4))/((30(1/4)(3/4))^0.5))
p4182
asS'part2_correct_attempt'
p4183
(lp4184
S'0:00:00'
p4185
aV30/4
p4186
asS'part5_incorrect_attempt'
p4187
(lp4188
(S'0:01:12'
p4189
Ve^(-12*30/4)
p4190
tp4191
asS'part4_correct_attempt'
p4192
(lp4193
S'0:00:00'
p4194
aV(12-(30/4))/((30(1/4)(3/4))^0.5)
p4195
asS'part3_correct_attempt'
p4196
(lp4197
S'0:00:00'
p4198
aV(30(1/4)(3/4))^0.5
p4199
asg9
V2015-11-05 00:53:44
p4200
ssValakamsa
p4201
(dp4202
S'part5_correct_attempt'
p4203
(lp4204
S'0:30:03'
p4205
aVQ(3.2863)
p4206
asS'part2_correct_attempt'
p4207
(lp4208
S'0:00:00'
p4209
ag705
asS'part5_incorrect_attempt'
p4210
(lp4211
(S'0:29:28'
p4212
VQ(3.2863) + e^-4*(4^10/10!)
p4213
tp4214
asS'part4_correct_attempt'
p4215
(lp4216
S'0:25:58'
p4217
aV3.2863
p4218
asS'part3_correct_attempt'
p4219
(lp4220
S'0:00:27'
p4221
ag701
asg9
g706
ssVabjara
p4222
(dp4223
S'part5_correct_attempt'
p4224
(lp4225
S'0:26:05'
p4226
aVQ((8-4.4)/[sqrt(4.4*(1-(1/5)))])
p4227
asS'part2_correct_attempt'
p4228
(lp4229
S'0:10:01'
p4230
ag3185
asS'part5_incorrect_attempt'
p4231
(lp4232
(S'0:18:19'
p4233
V(8-4.4)*[sqrt(4.4*(1-(1/5)))]
p4234
tp4235
asS'part4_correct_attempt'
p4236
(lp4237
S'0:16:06'
p4238
aV(8-4.4)/[sqrt(4.4*(1-(1/5)))]
p4239
asS'part3_correct_attempt'
p4240
(lp4241
S'0:14:03'
p4242
aVsqrt(4.4*(1-(1/5)))
p4243
asg9
g3186
ssVspw006
p4244
(dp4245
S'part5_correct_attempt'
p4246
(lp4247
S'0:39:26'
p4248
aV1-Phi((11 - 22*(1/4))/sqrt(22*(1/4)*(3/4)))
p4249
asS'part2_correct_attempt'
p4250
(lp4251
S'0:26:44'
p4252
aV22*(1/4)
p4253
asS'part5_incorrect_attempt'
p4254
(lp4255
(S'0:39:16'
p4256
V1-Phi(11 - 22*(1/4))/sqrt(22*(1/4)*(3/4))
p4257
tp4258
asS'part4_correct_attempt'
p4259
(lp4260
S'0:37:34'
p4261
aV(11 - 22*(1/4))/sqrt(22*(1/4)*(3/4))
p4262
asS'part3_correct_attempt'
p4263
(lp4264
S'0:37:03'
p4265
aVsqrt(22*(1/4)*(3/4))
p4266
asg9
V2015-11-04 02:48:59
p4267
ssVmasaro
p4268
(dp4269
S'part5_correct_attempt'
p4270
(lp4271
S'0:13:30'
p4272
aV0.0009676
p4273
asS'part2_correct_attempt'
p4274
(lp4275
S'-1 day, 23:59:21'
p4276
aVsqrt(3.75)
p4277
asS'part5_incorrect_attempt'
p4278
(lp4279
(S'0:12:49'
p4280
V0.0013498
p4281
tp4282
asS'part4_correct_attempt'
p4283
(lp4284
S'-1 day, 23:59:21'
p4285
aV0.1
p4286
asS'part3_correct_attempt'
p4287
(lp4288
S'-1 day, 23:59:21'
p4289
aV6/sqrt(3.75)
p4290
asg9
V2015-11-03 17:10:58
p4291
ssVajvanega
p4292
(dp4293
S'part5_correct_attempt'
p4294
(lp4295
S'7:29:54'
p4296
aV.0287
p4297
asS'part2_correct_attempt'
p4298
(lp4299
S'7:09:10'
p4300
ag2908
asS'part5_incorrect_attempt'
p4301
(lp4302
(S'7:24:52'
p4303
V.0035
p4304
tp4305
a(S'7:25:39'
p4306
V.0089
p4307
tp4308
a(S'7:25:48'
p4309
V1-.0089
p4310
tp4311
a(S'7:26:06'
p4312
V.0023
p4313
tp4314
a(S'7:26:15'
p4315
V.0233
p4316
tp4317
a(S'7:26:25'
p4318
V1-.0233
p4319
tp4320
a(S'7:26:51'
p4321
V.0294
p4322
tp4323
a(S'7:26:59'
p4324
V1-.0294
p4325
tp4326
a(S'7:29:05'
p4327
V.9706
p4328
tp4329
a(S'7:29:22'
p4330
V.4706
p4331
tp4332
asS'part4_correct_attempt'
p4333
(lp4334
S'7:20:34'
p4335
aV(12-7.5)/(sqrt((30/4)*(.75)))
p4336
asS'part3_correct_attempt'
p4337
(lp4338
S'7:18:34'
p4339
ag2904
asg9
g2909
ssVksrijong
p4340
(dp4341
S'part5_correct_attempt'
p4342
(lp4343
S'0:24:23'
p4344
aVQ([8-(1/6)*25]/(sqrt((1/6)(5/6)(25))))
p4345
asS'part2_correct_attempt'
p4346
(lp4347
S'0:03:45'
p4348
ag2198
asS'part5_incorrect_attempt'
p4349
(lp4350
(S'0:12:33'
p4351
V0.0188
p4352
tp4353
a(S'0:19:27'
p4354
V0.02580125
p4355
tp4356
a(S'0:23:14'
p4357
V2.27*10^-2
p4358
tp4359
asS'part4_correct_attempt'
p4360
(lp4361
S'0:08:30'
p4362
aV[8-(1/6)*25]/(sqrt((1/6)(5/6)(25)))
p4363
asS'part3_correct_attempt'
p4364
(lp4365
S'0:07:53'
p4366
ag2194
asg9
g2199
ssVl5han
p4367
(dp4368
S'part5_correct_attempt'
p4369
(lp4370
S'0:02:29'
p4371
aVQ((10-25/4)/[[(1/4)*(3/4)*25]^(1/2)])
p4372
asS'part2_correct_attempt'
p4373
(lp4374
S'0:00:00'
p4375
aV25*1/4
p4376
asS'part5_incorrect_attempt'
p4377
(lp4378
(S'0:00:00'
p4379
VQ(10)
p4380
tp4381
asS'part4_correct_attempt'
p4382
(lp4383
S'0:00:00'
p4384
aV(10-25/4)/[[(1/4)*(3/4)*25]^(1/2)]
p4385
asS'part3_correct_attempt'
p4386
(lp4387
S'0:00:00'
p4388
aV[(1/4)*(3/4)*25]^(1/2)
p4389
asg9
V2015-11-06 19:37:46
p4390
ssVjcj006
p4391
(dp4392
S'part5_correct_attempt'
p4393
(lp4394
S'16:33:01'
p4395
aVQ((9-29/5)/sqrt(29*.2*.8))
p4396
asS'part2_correct_attempt'
p4397
(lp4398
S'-1 day, 23:59:50'
p4399
ag1908
asS'part5_incorrect_attempt'
p4400
(lp4401
(S'16:32:09'
p4402
VQ(9)
p4403
tp4404
asS'part4_correct_attempt'
p4405
(lp4406
S'16:23:19'
p4407
aV(9-29/5)/sqrt(29*.2*.8)
p4408
asS'part3_correct_attempt'
p4409
(lp4410
S'16:23:19'
p4411
ag1904
asg9
g1909
ssVcrmirand
p4412
(dp4413
S'part5_correct_attempt'
p4414
(lp4415
S'1:17:50'
p4416
aV0.000748
p4417
asS'part2_correct_attempt'
p4418
(lp4419
S'0:01:16'
p4420
ag1313
asS'part5_incorrect_attempt'
p4421
(lp4422
(S'0:47:20'
p4423
V0.0762
p4424
tp4425
a(S'0:49:39'
p4426
V1 - .99924
p4427
tp4428
a(S'0:51:09'
p4429
V(1-.99924)/2
p4430
tp4431
a(S'0:53:03'
p4432
V0.1496111
p4433
tp4434
a(S'0:53:20'
p4435
V0.0748055
p4436
tp4437
a(S'0:55:30'
p4438
V0.0748055 + C(27, 12)*(1/5)^12*(4/5)^15
p4439
tp4440
a(S'0:56:50'
p4441
VC(27, 12)*(1/5)^12*(4/5)^15
p4442
tp4443
a(S'0:57:17'
p4444
V27!/(12!15!)*(1/5)^12*(4/5)^15
p4445
tp4446
a(S'0:57:30'
p4447
V0.0748055+27!/(12!15!)*(1/5)^12*(4/5)^15
p4448
tp4449
a(S'1:06:40'
p4450
V(12-(27/5))/(27*4/25)^.5
p4451
tp4452
a(S'1:08:09'
p4453
V100 - 99.9251945
p4454
tp4455
a(S'1:10:02'
p4456
V27!/(12!15!)*(1/5)^12*(4/5)^15 + 0.0748055
p4457
tp4458
asS'part4_correct_attempt'
p4459
(lp4460
S'0:45:06'
p4461
aV(12-(27/5))/(27*4/25)^.5
p4462
asS'part3_correct_attempt'
p4463
(lp4464
S'0:43:11'
p4465
ag1309
asg9
g1314
ssVdkurli
p4466
(dp4467
S'part5_correct_attempt'
p4468
(lp4469
S'0:16:00'
p4470
aVQ(2.21565)
p4471
asS'part2_correct_attempt'
p4472
(lp4473
S'0:00:54'
p4474
ag743
asS'part5_incorrect_attempt'
p4475
(lp4476
(S'0:15:52'
p4477
VPhi(2.21565)
p4478
tp4479
asS'part4_correct_attempt'
p4480
(lp4481
S'0:15:39'
p4482
aV4.5/(sqrt(22*3/16))
p4483
asS'part3_correct_attempt'
p4484
(lp4485
S'0:14:54'
p4486
ag739
asg9
g744
ssVdlt009
p4487
(dp4488
S'part5_correct_attempt'
p4489
(lp4490
S'0:06:26'
p4491
aVQ([(9-5.25) / sqrt [21*0.25*0.75] ])
p4492
asS'part2_correct_attempt'
p4493
(lp4494
S'0:00:00'
p4495
aV21(1/4)
p4496
asS'part5_incorrect_attempt'
p4497
(lp4498
(S'0:02:14'
p4499
V1-Q(9)
p4500
tp4501
a(S'0:02:36'
p4502
V1-Q(1.88982)
p4503
tp4504
asS'part4_correct_attempt'
p4505
(lp4506
S'0:01:40'
p4507
aV(9-5.25) / sqrt [21*0.25*0.75]
p4508
asS'part3_correct_attempt'
p4509
(lp4510
S'0:00:31'
p4511
aVsqrt [21*.25*0.75] 
p4512
asg9
V2015-11-05 08:17:51
p4513
ssVdan029
p4514
(dp4515
S'part5_correct_attempt'
p4516
(lp4517
S'0:16:25'
p4518
aVQ((12-5)/sqrt(3.75))
p4519
asS'part2_correct_attempt'
p4520
(lp4521
S'0:06:47'
p4522
ag765
asS'part5_incorrect_attempt'
p4523
(lp4524
(S'0:16:01'
p4525
VQ(12)
p4526
tp4527
asS'part4_correct_attempt'
p4528
(lp4529
S'0:16:01'
p4530
aV(12-5)/sqrt(3.75)
p4531
asS'part3_correct_attempt'
p4532
(lp4533
S'0:07:40'
p4534
ag761
asg9
g766
ssVn2patil
p4535
(dp4536
S'part5_correct_attempt'
p4537
(lp4538
S'1:49:48'
p4539
aVQ((9-5.6)/2.1166)
p4540
asS'part2_correct_attempt'
p4541
(lp4542
S'0:15:39'
p4543
aV5.6
p4544
asS'part5_incorrect_attempt'
p4545
(lp4546
(S'0:30:02'
p4547
V.4147
p4548
tp4549
a(S'0:30:09'
p4550
V41.47
p4551
tp4552
a(S'0:32:48'
p4553
V.9147
p4554
tp4555
a(S'0:32:55'
p4556
V91.47
p4557
tp4558
a(S'0:35:06'
p4559
V.8554
p4560
tp4561
a(S'0:36:32'
p4562
V.91466
p4563
tp4564
asS'part4_correct_attempt'
p4565
(lp4566
S'0:28:46'
p4567
aV(9-5.6)/2.1166
p4568
asS'part3_correct_attempt'
p4569
(lp4570
S'0:16:53'
p4571
aV(4.48)^(1/2)
p4572
asg9
V2015-11-05 02:01:47
p4573
ssVarvenega
p4574
(dp4575
S'part5_correct_attempt'
p4576
(lp4577
S'0:23:53'
p4578
aV1-0.9319
p4579
asS'part2_correct_attempt'
p4580
(lp4581
S'0:00:59'
p4582
ag1657
asS'part5_incorrect_attempt'
p4583
(lp4584
(S'0:22:58'
p4585
V1-0.9306
p4586
tp4587
asS'part4_correct_attempt'
p4588
(lp4589
S'0:11:40'
p4590
aV(9-(29/5))/sqrt((29/5)*(1-(1/5)))
p4591
asS'part3_correct_attempt'
p4592
(lp4593
S'0:11:40'
p4594
ag1653
asg9
g1658
ssVj6quach
p4595
(dp4596
S'part5_correct_attempt'
p4597
(lp4598
S'1:49:07'
p4599
aV1 - Phi(3.33397)
p4600
asS'part2_correct_attempt'
p4601
(lp4602
S'1:20:29'
p4603
ag2508
asS'part5_incorrect_attempt'
p4604
(lp4605
(S'1:29:43'
p4606
VQ(12)
p4607
tp4608
a(S'1:31:02'
p4609
VQ(11)
p4610
tp4611
a(S'1:38:22'
p4612
V1 - Phi(12)
p4613
tp4614
a(S'1:42:23'
p4615
V1 - Phi(12) + 9657700*(.2^12)*(.8^14)
p4616
tp4617
asS'part4_correct_attempt'
p4618
(lp4619
S'1:29:43'
p4620
aV(12-5.2)/2.03961
p4621
asS'part3_correct_attempt'
p4622
(lp4623
S'1:26:23'
p4624
ag2504
asg9
g2509
ssVsyc078
p4625
(dp4626
S'part5_correct_attempt'
p4627
(lp4628
S'23:11:49'
p4629
aV0.0044
p4630
asS'part2_correct_attempt'
p4631
(lp4632
S'22:55:37'
p4633
ag2524
asS'part5_incorrect_attempt'
p4634
(lp4635
(S'23:11:27'
p4636
V1-0.0045
p4637
tp4638
a(S'23:11:34'
p4639
V0.0045
p4640
tp4641
asS'part4_correct_attempt'
p4642
(lp4643
S'23:07:21'
p4644
aV(13-7)/(sqrt(7*(1-0.25)))
p4645
asS'part3_correct_attempt'
p4646
(lp4647
S'23:03:04'
p4648
ag2520
asg9
g2525
ssVhaw081
p4649
(dp4650
S'part5_correct_attempt'
p4651
(lp4652
S'1 day, 3:17:01'
p4653
aVQ((13-5)/sqrt(30(1/6)(5/6)))
p4654
asS'part2_correct_attempt'
p4655
(lp4656
S'0:06:56'
p4657
aV1/6*30
p4658
asS'part5_incorrect_attempt'
p4659
(lp4660
(S'0:20:34'
p4661
V0.00003
p4662
tp4663
a(S'0:22:44'
p4664
V.00004
p4665
tp4666
a(S'0:23:01'
p4667
V.00005
p4668
tp4669
asS'part4_correct_attempt'
p4670
(lp4671
S'0:11:58'
p4672
aV(13-5)/sqrt(30(1/6)(5/6))
p4673
asS'part3_correct_attempt'
p4674
(lp4675
S'0:11:15'
p4676
aVsqrt(30(1/6)(5/6))
p4677
asg9
V2015-11-01 22:30:24
p4678
ssVvqt004
p4679
(dp4680
S'part5_correct_attempt'
p4681
(lp4682
S'0:16:13'
p4683
aVQ((13-30*1/5)/sqrt(4/25*30))
p4684
asS'part2_correct_attempt'
p4685
(lp4686
S'0:10:09'
p4687
ag803
asS'part5_incorrect_attempt'
p4688
(lp4689
(S'0:14:25'
p4690
V1-Phi(13)
p4691
tp4692
a(S'0:15:09'
p4693
VPhi(13)
p4694
tp4695
asS'part4_correct_attempt'
p4696
(lp4697
S'0:14:25'
p4698
aV(13-30*1/5)/sqrt(4/25*30)
p4699
asS'part3_correct_attempt'
p4700
(lp4701
S'0:10:45'
p4702
ag799
asg9
g804
ssVjew037
p4703
(dp4704
S'part5_correct_attempt'
p4705
(lp4706
S'1 day, 2:39:35'
p4707
aVQ((12-(26*(1/6))) / ( sqrt( 26 / 6 * (1-1/ 6))))
p4708
asS'part2_correct_attempt'
p4709
(lp4710
S'0:01:00'
p4711
ag3409
asS'part5_incorrect_attempt'
p4712
(lp4713
(S'0:08:27'
p4714
V(12-(26*(1/6))) / ( sqrt( 26 / 6 * (1-1/ 6)))
p4715
tp4716
asS'part4_correct_attempt'
p4717
(lp4718
S'0:05:38'
p4719
aV( 12 - (26* (1/6)) ) / ( sqrt( 26 / 6 * (1-1/ 6)) )
p4720
asS'part3_correct_attempt'
p4721
(lp4722
S'0:01:44'
p4723
aVsqrt(26*(1/6)*(1-(1/6)))
p4724
asg9
g3410
ssVcfgutier
p4725
(dp4726
S'part5_correct_attempt'
p4727
(lp4728
S'0:21:21'
p4729
aVQ(4.25525)
p4730
asS'part2_correct_attempt'
p4731
(lp4732
S'0:00:28'
p4733
aV21/5
p4734
asS'part5_incorrect_attempt'
p4735
(lp4736
(S'0:11:27'
p4737
V1 - 0.9306
p4738
tp4739
asS'part4_correct_attempt'
p4740
(lp4741
S'0:09:13'
p4742
aV(12 - 21/5)/ (21*(1/5)*(4/5))^(1/2)
p4743
asS'part3_correct_attempt'
p4744
(lp4745
S'0:08:26'
p4746
aV(21*(1/5)*(4/5))^(1/2)
p4747
asg9
V2015-11-06 20:04:59
p4748
ssVasp025
p4749
(dp4750
S'part5_correct_attempt'
p4751
(lp4752
S'1:08:32'
p4753
aV1-Phi((12-4)/([24(1/6)(1-1/6)]^(1/2)))
p4754
asS'part2_correct_attempt'
p4755
(lp4756
S'0:43:48'
p4757
ag2309
asS'part5_incorrect_attempt'
p4758
(lp4759
(S'1:06:17'
p4760
VQ(12)
p4761
tp4762
asS'part4_correct_attempt'
p4763
(lp4764
S'1:04:30'
p4765
aV(12-4)/([24(1/6)(1-1/6)]^(1/2))
p4766
asS'part3_correct_attempt'
p4767
(lp4768
S'0:49:11'
p4769
ag2305
asg9
g2310
ssVjnatale
p4770
(dp4771
S'part5_correct_attempt'
p4772
(lp4773
S'0:19:06'
p4774
aVQ(3.49119)
p4775
asS'part2_correct_attempt'
p4776
(lp4777
S'0:00:41'
p4778
ag2009
asS'part5_incorrect_attempt'
p4779
(lp4780
(S'0:06:20'
p4781
V0.5
p4782
tp4783
a(S'0:16:10'
p4784
V2.33E-4
p4785
tp4786
a(S'0:16:38'
p4787
V2.326E-4
p4788
tp4789
a(S'0:17:27'
p4790
V3.369E-4
p4791
tp4792
asS'part4_correct_attempt'
p4793
(lp4794
S'0:05:06'
p4795
aV(13-(23/4))/(sqrt(23*(1/4)*(1-.25)))
p4796
asS'part3_correct_attempt'
p4797
(lp4798
S'0:04:44'
p4799
ag2005
asg9
g2010
ssVyos017
p4800
(dp4801
S'part5_correct_attempt'
p4802
(lp4803
S'1:23:07'
p4804
aV1 - Phi(2.53)
p4805
asS'part2_correct_attempt'
p4806
(lp4807
S'0:01:33'
p4808
aV23 * 1/4
p4809
asS'part5_incorrect_attempt'
p4810
(lp4811
(S'0:58:59'
p4812
VQ(11)
p4813
tp4814
a(S'1:11:38'
p4815
V0.9943
p4816
tp4817
a(S'1:20:19'
p4818
VQ(11)
p4819
tp4820
a(S'1:20:28'
p4821
V-Q(11)
p4822
tp4823
a(S'1:20:56'
p4824
V1-Q(11)
p4825
tp4826
a(S'1:22:13'
p4827
VPhi(11)
p4828
tp4829
a(S'1:22:42'
p4830
VPhi(2.53)
p4831
tp4832
asS'part4_correct_attempt'
p4833
(lp4834
S'0:24:15'
p4835
aV[11 - 5.75 ] / 2.07
p4836
asS'part3_correct_attempt'
p4837
(lp4838
S'0:07:21'
p4839
aV(1/4 * (1 - 1/4 ) * 23 )^(1/2)
p4840
asg9
V2015-11-06 08:25:22
p4841
ssVagarango
p4842
(dp4843
S'part4_correct_attempt'
p4844
(lp4845
S'3:41:30'
p4846
aV(11-(21/6))/(sqrt(5*21)/6)
p4847
asS'part3_correct_attempt'
p4848
(lp4849
S'3:28:35'
p4850
ag2594
asS'part2_correct_attempt'
p4851
(lp4852
S'0:18:35'
p4853
ag2598
asg9
g2599
sS'part5_incorrect_attempt'
p4854
(lp4855
(S'3:55:46'
p4856
V5.41*10^-6
p4857
tp4858
a(S'4:37:16'
p4859
V0.00003
p4860
tp4861
a(S'4:37:31'
p4862
V0.0003
p4863
tp4864
assVavasavad
p4865
(dp4866
S'part5_incorrect_attempt'
p4867
(lp4868
(S'0:11:56'
p4869
VQ(11)
p4870
tp4871
a(S'0:12:14'
p4872
VPhi(11)
p4873
tp4874
asg9
g3455
ssVtdurrer
p4875
(dp4876
S'part5_correct_attempt'
p4877
(lp4878
S'0:22:07'
p4879
aV.0044
p4880
asS'part2_correct_attempt'
p4881
(lp4882
S'0:09:41'
p4883
aV4.2
p4884
asS'part5_incorrect_attempt'
p4885
(lp4886
(S'0:12:14'
p4887
V4.661189E-3
p4888
tp4889
asS'part4_correct_attempt'
p4890
(lp4891
S'0:09:41'
p4892
aV(9-4.2)/(sqrt((.2)(.8)(21)))
p4893
asS'part3_correct_attempt'
p4894
(lp4895
S'0:09:41'
p4896
aVsqrt((.2)(.8)(21))
p4897
asg9
V2015-11-06 05:48:59
p4898
ssVzhz159
p4899
(dp4900
S'part5_correct_attempt'
p4901
(lp4902
S'0:04:11'
p4903
aV0.0000056273
p4904
asS'part2_correct_attempt'
p4905
(lp4906
S'0:00:00'
p4907
aV21/6
p4908
asS'part5_incorrect_attempt'
p4909
(lp4910
(S'0:00:30'
p4911
V0.5412542*10^(-6)
p4912
tp4913
a(S'0:00:58'
p4914
V5.412542*10^(-6)
p4915
tp4916
asS'part4_correct_attempt'
p4917
(lp4918
S'0:00:00'
p4919
aV4.391550
p4920
asS'part3_correct_attempt'
p4921
(lp4922
S'0:00:00'
p4923
aV1.707825
p4924
asg9
V2015-11-05 23:25:57
p4925
ssVetemlock
p4926
(dp4927
S'part5_correct_attempt'
p4928
(lp4929
S'0:32:34'
p4930
aVQ(3.49617)
p4931
asS'part2_correct_attempt'
p4932
(lp4933
S'0:27:23'
p4934
ag1946
asS'part5_incorrect_attempt'
p4935
(lp4936
(S'0:32:20'
p4937
VQ(13)
p4938
tp4939
asS'part4_correct_attempt'
p4940
(lp4941
S'0:32:11'
p4942
aV(13 - 5.6)/2.1166
p4943
asS'part3_correct_attempt'
p4944
(lp4945
S'0:31:26'
p4946
ag1942
asg9
g1947
ssVtol003
p4947
(dp4948
S'part5_correct_attempt'
p4949
(lp4950
S'2:49:21'
p4951
aV1-Phi([9-(28/5)]/2.1166)
p4952
asS'part2_correct_attempt'
p4953
(lp4954
S'0:05:33'
p4955
ag2091
asS'part5_incorrect_attempt'
p4956
(lp4957
(S'0:46:32'
p4958
V1-(1/5)
p4959
tp4960
a(S'0:48:00'
p4961
V[9-(28/5)]/[sqrt(28*(1/5)*(1-(1/5)))]
p4962
tp4963
a(S'0:54:38'
p4964
V[10-(28/5)]/[sqrt(28*(1/5)*(1-(1/5)))]
p4965
tp4966
a(S'1:05:09'
p4967
V[10-(28/5)]/2.1166-[9-(28/5)]/2.1166
p4968
tp4969
a(S'1:05:50'
p4970
V[10-(28/5)]/2.1166
p4971
tp4972
a(S'2:48:33'
p4973
V1-Phi(9)
p4974
tp4975
a(S'2:48:51'
p4976
V1-Phi(28/5)
p4977
tp4978
a(S'2:49:01'
p4979
V1-Phi(1/5)
p4980
tp4981
asS'part4_correct_attempt'
p4982
(lp4983
S'0:44:44'
p4984
aV[9-(28/5)]/2.1166
p4985
asS'part3_correct_attempt'
p4986
(lp4987
S'0:41:09'
p4988
ag2087
asg9
g2092
ssVq3wen
p4989
(dp4990
S'part5_correct_attempt'
p4991
(lp4992
S'0:12:14'
p4993
aVQ(2.5)
p4994
asS'part2_correct_attempt'
p4995
(lp4996
S'0:10:53'
p4997
aV5
p4998
asS'part5_incorrect_attempt'
p4999
(lp5000
(S'0:10:53'
p5001
V1-Phi(10)
p5002
tp5003
a(S'0:11:51'
p5004
VQ(10)
p5005
tp5006
asS'part4_correct_attempt'
p5007
(lp5008
S'0:10:53'
p5009
aV2.5
p5010
asS'part3_correct_attempt'
p5011
(lp5012
S'0:10:53'
p5013
aV2
p5014
asg9
V2015-11-06 19:27:15
p5015
ssVjhw015
p5016
(dp5017
S'part5_correct_attempt'
p5018
(lp5019
S'0:06:53'
p5020
aV0.005021
p5021
asS'part4_correct_attempt'
p5022
(lp5023
S'0:01:58'
p5024
aV(10-(29/6))/sqrt((29/6) * (5/6))
p5025
asS'part3_correct_attempt'
p5026
(lp5027
S'0:01:17'
p5028
ag1411
asg9
g1417
sS'part5_incorrect_attempt'
p5029
(lp5030
(S'0:03:23'
p5031
V0.9949
p5032
tp5033
a(S'0:03:51'
p5034
V0.9948
p5035
tp5036
a(S'0:04:28'
p5037
V0.0057
p5038
tp5039
a(S'0:04:53'
p5040
V0.057
p5041
tp5042
a(S'0:05:40'
p5043
V6.20 * 10^-3
p5044
tp5045
assVk3tan
p5046
(dp5047
S'part4_correct_attempt'
p5048
(lp5049
S'2 days, 17:21:19'
p5050
aV(11-27/6)/sqrt(27*5/36)
p5051
asS'part3_correct_attempt'
p5052
(lp5053
S'2 days, 17:19:49'
p5054
ag1745
asS'part2_correct_attempt'
p5055
(lp5056
S'0:04:54'
p5057
ag1749
asg9
g1750
sS'part5_incorrect_attempt'
p5058
(lp5059
(S'2 days, 17:24:21'
p5060
V0.5-0.49
p5061
tp5062
a(S'2 days, 17:24:34'
p5063
V0.5-0.4998
p5064
tp5065
a(S'2 days, 17:26:27'
p5066
V0.0004
p5067
tp5068
a(S'2 days, 17:26:45'
p5069
V0.004
p5070
tp5071
a(S'2 days, 17:26:55'
p5072
V0.0004
p5073
tp5074
a(S'2 days, 17:27:30'
p5075
V0.00039
p5076
tp5077
a(S'2 days, 17:27:50'
p5078
V0.00040
p5079
tp5080
a(S'2 days, 17:28:01'
p5081
V0.00042
p5082
tp5083
a(S'2 days, 17:28:10'
p5084
V0.00038
p5085
tp5086
a(S'2 days, 17:29:34'
p5087
V0.5-0.0004
p5088
tp5089
a(S'2 days, 17:29:40'
p5090
V0.5-0.00039
p5091
tp5092
a(S'2 days, 17:30:56'
p5093
V0.9996
p5094
tp5095
a(S'2 days, 17:31:12'
p5096
V1-0.9996
p5097
tp5098
a(S'2 days, 17:54:19'
p5099
V0.00037
p5100
tp5101
a(S'2 days, 17:54:26'
p5102
V0.00036
p5103
tp5104
a(S'2 days, 17:54:36'
p5105
V0.00041
p5106
tp5107
a(S'2 days, 17:54:42'
p5108
V0.00042
p5109
tp5110
a(S'2 days, 17:56:00'
p5111
V1-0.0004
p5112
tp5113
a(S'2 days, 17:56:07'
p5114
V1-0.00039
p5115
tp5116
a(S'2 days, 17:57:11'
p5117
V0.4996
p5118
tp5119
a(S'2 days, 17:57:16'
p5120
V1-0.4996
p5121
tp5122
a(S'2 days, 17:57:25'
p5123
V0.5-0.4996
p5124
tp5125
assVhmshah
p5126
(dp5127
S'part5_incorrect_attempt'
p5128
(lp5129
(S'0:14:16'
p5130
VQ(8)
p5131
tp5132
asg9
g3562
ssVhkhodada
p5133
(dp5134
S'part5_correct_attempt'
p5135
(lp5136
S'4 days, 1:28:29'
p5137
aVQ(14/sqrt(66))
p5138
asS'part2_correct_attempt'
p5139
(lp5140
S'4 days, 1:06:07'
p5141
ag3150
asS'part5_incorrect_attempt'
p5142
(lp5143
(S'4 days, 1:26:13'
p5144
V1-Q(9)
p5145
tp5146
a(S'4 days, 1:26:19'
p5147
VQ(9)
p5148
tp5149
asS'part4_correct_attempt'
p5150
(lp5151
S'4 days, 1:11:06'
p5152
aV14/sqrt(66)
p5153
asS'part3_correct_attempt'
p5154
(lp5155
S'4 days, 1:07:18'
p5156
aVsqrt(66)/4
p5157
asg9
g3151
ssVtcn013
p5158
(dp5159
S'part5_correct_attempt'
p5160
(lp5161
S'0:08:56'
p5162
aVQ(2.89077)
p5163
asS'part2_correct_attempt'
p5164
(lp5165
S'0:00:00'
p5166
aV23/6
p5167
asS'part5_incorrect_attempt'
p5168
(lp5169
(S'0:08:29'
p5170
V(9)
p5171
tp5172
asS'part4_correct_attempt'
p5173
(lp5174
S'0:08:29'
p5175
aV(9-23/6)/1.7873
p5176
asS'part3_correct_attempt'
p5177
(lp5178
S'0:05:58'
p5179
aVsqrt( (1/6)* (5/6) * 23)
p5180
asg9
V2015-11-05 20:47:22
p5181
ssVpthsu
p5182
(dp5183
S'part5_correct_attempt'
p5184
(lp5185
S'0:04:35'
p5186
aVQ((12-(1/5*23) )/ sqrt(23*1/5*(1-1/5)))
p5187
asS'part2_correct_attempt'
p5188
(lp5189
S'0:01:10'
p5190
aV1/5*23
p5191
asS'part5_incorrect_attempt'
p5192
(lp5193
(S'0:04:15'
p5194
VQ(11)
p5195
tp5196
asS'part4_correct_attempt'
p5197
(lp5198
S'0:03:05'
p5199
aV(12-(1/5*23) )/ sqrt(23*1/5*(1-1/5))
p5200
asS'part3_correct_attempt'
p5201
(lp5202
S'0:02:58'
p5203
aVsqrt(23*1/5*(1-1/5))
p5204
asg9
V2015-10-31 03:41:17
p5205
ssVcprafull
p5206
(dp5207
S'part5_correct_attempt'
p5208
(lp5209
S'18:06:26'
p5210
aVQ((10 - 6)/(sqrt(30/5 * (4/5))))
p5211
asS'part2_correct_attempt'
p5212
(lp5213
S'0:14:16'
p5214
aV30 * 1/5
p5215
asS'part5_incorrect_attempt'
p5216
(lp5217
(S'18:05:39'
p5218
VQ((10 - 6)/(sqrt(30/5 * (4/5))))/(sqrt(30/5 * (4/5)))
p5219
tp5220
asS'part4_correct_attempt'
p5221
(lp5222
S'0:15:55'
p5223
aV(10 - 6)/(sqrt(30/5 * (4/5)))
p5224
asS'part3_correct_attempt'
p5225
(lp5226
S'0:14:57'
p5227
aVsqrt(30/5 * (4/5))
p5228
asg9
V2015-11-05 08:58:12
p5229
ssVl8ngo
p5230
(dp5231
S'part5_correct_attempt'
p5232
(lp5233
S'1 day, 21:54:50'
p5234
aVQ({11-[21/4]}/sqrt[21*[1/4]*[1-1/4]])
p5235
asS'part2_correct_attempt'
p5236
(lp5237
S'1 day, 21:43:38'
p5238
ag3621
asS'part5_incorrect_attempt'
p5239
(lp5240
(S'1 day, 21:53:04'
p5241
V1.349^(-3)
p5242
tp5243
a(S'1 day, 21:53:34'
p5244
V1.8658^(-3)
p5245
tp5246
asS'part4_correct_attempt'
p5247
(lp5248
S'1 day, 21:47:57'
p5249
aV{11-[21/4]}/sqrt[21*[1/4]*[1-1/4]]
p5250
asS'part3_correct_attempt'
p5251
(lp5252
S'1 day, 21:46:20'
p5253
aVsqrt[21*[1/4]*[1-1/4]]
p5254
asg9
g3622
ssVdjk006
p5255
(dp5256
S'part5_correct_attempt'
p5257
(lp5258
S'3:34:59'
p5259
aVQ((14-6.75)/2.25)
p5260
asS'part2_correct_attempt'
p5261
(lp5262
S'0:25:13'
p5263
ag901
asS'part5_incorrect_attempt'
p5264
(lp5265
(S'1:48:13'
p5266
V.0005
p5267
tp5268
asS'part4_correct_attempt'
p5269
(lp5270
S'1:40:36'
p5271
aV(14-6.75)/2.25
p5272
asS'part3_correct_attempt'
p5273
(lp5274
S'1:38:44'
p5275
ag897
asg9
g902
ssVhmnaing
p5276
(dp5277
S'part5_correct_attempt'
p5278
(lp5279
S'3:55:57'
p5280
aVQ((13- (26/4))/ (sqrt(0.25*0.75*26)))
p5281
asS'part2_correct_attempt'
p5282
(lp5283
S'3:41:28'
p5284
ag2252
asS'part5_incorrect_attempt'
p5285
(lp5286
(S'3:53:30'
p5287
V2 * (13- (26/4))/ (sqrt(0.25*0.75*26))
p5288
tp5289
a(S'3:55:38'
p5290
V2 * Q(13- (26/4))/ (sqrt(0.25*0.75*26))
p5291
tp5292
asS'part4_correct_attempt'
p5293
(lp5294
S'3:53:12'
p5295
aV(13- (26/4))/ (sqrt(0.25*0.75*26))
p5296
asS'part3_correct_attempt'
p5297
(lp5298
S'3:52:15'
p5299
ag2248
asg9
g2253
ssVdsriniva
p5300
(dp5301
S'part5_correct_attempt'
p5302
(lp5303
S'2:39:18'
p5304
aVQ(2.32379201545)
p5305
asS'part2_correct_attempt'
p5306
(lp5307
S'0:03:10'
p5308
ag966
asS'part5_incorrect_attempt'
p5309
(lp5310
(S'2:36:53'
p5311
V1-1.072411*10^-2
p5312
tp5313
a(S'2:37:17'
p5314
V1.072411*10^-2
p5315
tp5316
a(S'2:38:47'
p5317
V0.0102
p5318
tp5319
asS'part4_correct_attempt'
p5320
(lp5321
S'2:36:08'
p5322
aV2.32379201545
p5323
asS'part3_correct_attempt'
p5324
(lp5325
S'2:33:19'
p5326
ag962
asg9
g967
ssVcstringh
p5327
(dp5328
S'part5_correct_attempt'
p5329
(lp5330
S'0:16:32'
p5331
aVQ(((12)-(24*1/6))/(sqrt(24*1/6*(1-1/6))))
p5332
asS'part2_correct_attempt'
p5333
(lp5334
S'0:01:20'
p5335
aV24*1/6
p5336
asS'part5_incorrect_attempt'
p5337
(lp5338
(S'0:13:31'
p5339
V([12]-[24*1/6])/(sqrt(24*1/6*(1-1/6)))
p5340
tp5341
asS'part4_correct_attempt'
p5342
(lp5343
S'0:07:52'
p5344
aV(12-(24*1/6))/(sqrt(24*1/6*(1-1/6)))
p5345
asS'part3_correct_attempt'
p5346
(lp5347
S'0:06:40'
p5348
aVsqrt(24*1/6*(1-1/6))
p5349
asg9
V2015-11-04 07:06:43
p5350
ssVedescobe
p5351
(dp5352
S'part5_correct_attempt'
p5353
(lp5354
S'3 days, 2:18:17'
p5355
aVQ(4.00016)
p5356
asS'part2_correct_attempt'
p5357
(lp5358
S'3 days, 1:45:13'
p5359
ag1521
asS'part5_incorrect_attempt'
p5360
(lp5361
(S'3 days, 2:16:27'
p5362
VC(20,10)*(1/6)^10 * (1-1/6)^10
p5363
tp5364
a(S'3 days, 2:17:13'
p5365
V184756*(1/6)^10 * (1-1/6)^10
p5366
tp5367
asS'part4_correct_attempt'
p5368
(lp5369
S'3 days, 2:11:43'
p5370
aV(10-20/6)/1.6666
p5371
asS'part3_correct_attempt'
p5372
(lp5373
S'3 days, 1:50:16'
p5374
ag1517
asg9
g1522
ssVasetters
p5375
(dp5376
S'part5_correct_attempt'
p5377
(lp5378
S'6:19:03'
p5379
aVQ((11-21/6)/sqrt(21/6*(5/6)))
p5380
asS'part2_correct_attempt'
p5381
(lp5382
S'0:00:00'
p5383
ag2166
asS'part5_incorrect_attempt'
p5384
(lp5385
(S'0:07:14'
p5386
VC(21,11)*(1/6)^11*(5/6)^(10)
p5387
tp5388
a(S'0:12:43'
p5389
V1- (7152001806640625/7312316880125952)
p5390
tp5391
a(S'0:13:47'
p5392
VQ(10)
p5393
tp5394
a(S'0:14:22'
p5395
V1-Phi(10)
p5396
tp5397
a(S'1:07:44'
p5398
VQ(10)
p5399
tp5400
a(S'1:07:52'
p5401
VQ(11)
p5402
tp5403
a(S'5:49:20'
p5404
VQ(10)
p5405
tp5406
a(S'5:49:35'
p5407
V1 - Q(10)
p5408
tp5409
a(S'5:49:48'
p5410
VQ(11)
p5411
tp5412
a(S'6:12:07'
p5413
V.3
p5414
tp5415
asS'part4_correct_attempt'
p5416
(lp5417
S'0:07:14'
p5418
aV(11-21/6)/sqrt(21/6*(5/6))
p5419
asS'part3_correct_attempt'
p5420
(lp5421
S'0:04:10'
p5422
ag2162
asg9
g2167
ssVbakang
p5423
(dp5424
S'part5_correct_attempt'
p5425
(lp5426
S'8:08:49'
p5427
aVQ((9-(1/6*21))/(sqrt(1/6*(5/6)*21)))
p5428
asS'part2_correct_attempt'
p5429
(lp5430
S'0:15:55'
p5431
ag1537
asS'part5_incorrect_attempt'
p5432
(lp5433
(S'8:05:37'
p5434
VQ(9)
p5435
tp5436
a(S'8:06:01'
p5437
VQ(9)+(9-(1/6*21))/(sqrt(1/6*(5/6)*21))
p5438
tp5439
asS'part4_correct_attempt'
p5440
(lp5441
S'8:05:24'
p5442
aV(9-(1/6*21))/(sqrt(1/6*(5/6)*21))
p5443
asS'part3_correct_attempt'
p5444
(lp5445
S'8:04:15'
p5446
ag1533
asg9
g1538
ssVanvan
p5447
(dp5448
S'part5_correct_attempt'
p5449
(lp5450
S'1 day, 6:19:56'
p5451
aVQ(2.0788)
p5452
asS'part2_correct_attempt'
p5453
(lp5454
S'1 day, 5:43:16'
p5455
ag3690
asS'part5_incorrect_attempt'
p5456
(lp5457
(S'1 day, 5:45:31'
p5458
V98.1182
p5459
tp5460
a(S'1 day, 6:19:46'
p5461
V1 - Q(2.0788)
p5462
tp5463
asS'part4_correct_attempt'
p5464
(lp5465
S'1 day, 5:44:49'
p5466
aV( 10 - 28(.2) ) / sqrt(.8 * .2 * 28)
p5467
asS'part3_correct_attempt'
p5468
(lp5469
S'1 day, 5:43:52'
p5470
aVsqrt(.8 * .2 * 28)
p5471
asg9
g3691
ssVacs008
p5472
(dp5473
S'part5_correct_attempt'
p5474
(lp5475
S'5:42:18'
p5476
aVQ(2.87837)
p5477
asS'part2_correct_attempt'
p5478
(lp5479
S'5:26:25'
p5480
ag2714
asS'part5_incorrect_attempt'
p5481
(lp5482
(S'5:42:10'
p5483
VQ(2.87)
p5484
tp5485
asS'part4_correct_attempt'
p5486
(lp5487
S'5:41:54'
p5488
aV(12-5.8)/2.154
p5489
asS'part3_correct_attempt'
p5490
(lp5491
S'5:40:29'
p5492
ag2710
asg9
g2715
ssVk4ma
p5493
(dp5494
S'part5_correct_attempt'
p5495
(lp5496
S'0:10:59'
p5497
aV1-Phi([12-(27*.25)]/sqrt(.25(1-.25)27))
p5498
asS'part2_correct_attempt'
p5499
(lp5500
S'0:03:46'
p5501
aV27*(.25)
p5502
asS'part5_incorrect_attempt'
p5503
(lp5504
(S'0:09:19'
p5505
V1-Phi(12)
p5506
tp5507
asS'part4_correct_attempt'
p5508
(lp5509
S'0:08:47'
p5510
aV[12-(27*.25)]/sqrt(.25(1-.25)27)
p5511
asS'part3_correct_attempt'
p5512
(lp5513
S'0:04:13'
p5514
aVsqrt(.25(1-.25)27)
p5515
asg9
V2015-11-06 21:29:44
p5516
ssVssamudra
p5517
(dp5518
S'part5_correct_attempt'
p5519
(lp5520
S'0:18:35'
p5521
aV0.01
p5522
asS'part2_correct_attempt'
p5523
(lp5524
S'0:00:43'
p5525
aV4.5
p5526
asS'part5_incorrect_attempt'
p5527
(lp5528
(S'0:12:50'
p5529
V0.0102
p5530
tp5531
a(S'0:13:58'
p5532
V0.9898
p5533
tp5534
a(S'0:14:04'
p5535
V1 - 0.9898
p5536
tp5537
a(S'0:14:19'
p5538
V(1 - 0.9898)100
p5539
tp5540
a(S'0:16:07'
p5541
V2.54 * 10^-6
p5542
tp5543
a(S'0:16:15'
p5544
V2.54 * 10^-4
p5545
tp5546
a(S'0:16:46'
p5547
V0.4657
p5548
tp5549
a(S'0:16:53'
p5550
V0.534
p5551
tp5552
a(S'0:17:43'
p5553
V1 - 0.9911
p5554
tp5555
asS'part4_correct_attempt'
p5556
(lp5557
S'0:12:50'
p5558
aV2.32379
p5559
asS'part3_correct_attempt'
p5560
(lp5561
S'0:12:50'
p5562
aV1.9365
p5563
asg9
V2015-11-05 06:26:43
p5564
ssVflhernan
p5565
(dp5566
S'part5_correct_attempt'
p5567
(lp5568
S'1 day, 22:24:47'
p5569
aV1-0.99777
p5570
asS'part2_correct_attempt'
p5571
(lp5572
S'0:00:00'
p5573
ag1035
asS'part5_incorrect_attempt'
p5574
(lp5575
(S'0:09:05'
p5576
V1-(e^-6.25 *6.25^5/5!)
p5577
tp5578
a(S'0:09:38'
p5579
V1-(e^-2.84 *2.84^11/11!)
p5580
tp5581
a(S'1 day, 21:37:34'
p5582
V0.00791031029834799
p5583
tp5584
a(S'1 day, 22:20:35'
p5585
V((11+12+13+14+15+16+17+18+19+20+21+22+23+24+25+26-26/5*16))/sqrt(26/5*(4/5))
p5586
tp5587
asS'part4_correct_attempt'
p5588
(lp5589
S'0:05:38'
p5590
aV(11-26/5)/sqrt(26/5*(4/5))
p5591
asS'part3_correct_attempt'
p5592
(lp5593
S'0:04:04'
p5594
ag1031
asg9
g1036
ssVjhp077
p5595
(dp5596
S'part5_correct_attempt'
p5597
(lp5598
S'0:33:22'
p5599
aVQ((13-5)/ ((15)^(1/2) / 2))
p5600
asS'part2_correct_attempt'
p5601
(lp5602
S'0:00:57'
p5603
ag1133
asS'part5_incorrect_attempt'
p5604
(lp5605
(S'0:28:01'
p5606
Ve^(-5*13)
p5607
tp5608
a(S'0:28:10'
p5609
Ve^(-13/5)
p5610
tp5611
a(S'0:28:52'
p5612
Ve^(-13/4)
p5613
tp5614
a(S'0:31:16'
p5615
VQ(13)
p5616
tp5617
a(S'0:31:30'
p5618
V1 - Q(13)
p5619
tp5620
a(S'0:32:49'
p5621
V1-Q(13)
p5622
tp5623
a(S'0:33:16'
p5624
V1-Q((13-5)/ ((15)^(1/2) / 2))
p5625
tp5626
asS'part4_correct_attempt'
p5627
(lp5628
S'0:24:06'
p5629
aV(13-5)/ ((15)^(1/2) / 2)
p5630
asS'part3_correct_attempt'
p5631
(lp5632
S'0:22:54'
p5633
ag1129
asg9
g1134
ssVc1wei
p5634
(dp5635
S'part5_correct_attempt'
p5636
(lp5637
S'0:34:22'
p5638
aV1-Phi(3.65148)
p5639
asS'part2_correct_attempt'
p5640
(lp5641
S'0:06:47'
p5642
ag1073
asS'part5_incorrect_attempt'
p5643
(lp5644
(S'0:26:55'
p5645
V0.0031
p5646
tp5647
a(S'0:29:24'
p5648
V.0001
p5649
tp5650
a(S'0:29:44'
p5651
V.0002
p5652
tp5653
asS'part4_correct_attempt'
p5654
(lp5655
S'0:23:09'
p5656
aV8/2.19089
p5657
asS'part3_correct_attempt'
p5658
(lp5659
S'0:22:21'
p5660
ag1069
asg9
g1074
ssVxweng
p5661
(dp5662
S'part5_correct_attempt'
p5663
(lp5664
S'0:27:08'
p5665
aV0.5-0.4929
p5666
asS'part2_correct_attempt'
p5667
(lp5668
S'0:15:30'
p5669
aV22/5
p5670
asS'part5_incorrect_attempt'
p5671
(lp5672
(S'0:26:39'
p5673
V0.4929
p5674
tp5675
asS'part4_correct_attempt'
p5676
(lp5677
S'0:24:36'
p5678
aV(9-22/5)/1.8761669
p5679
asS'part3_correct_attempt'
p5680
(lp5681
S'0:17:39'
p5682
aV1.876166
p5683
asg9
V2015-11-06 00:34:03
p5684
ssVphodgson
p5685
(dp5686
S'part5_incorrect_attempt'
p5687
(lp5688
(S'0:00:00'
p5689
VQ(13/29)
p5690
tp5691
a(S'0:00:13'
p5692
VPhi(13/29)
p5693
tp5694
asS'part2_correct_attempt'
p5695
(lp5696
S'0:00:00'
p5697
aV29 * .2
p5698
asg9
V2015-11-06 06:40:21
p5699
ssVdcgriffi
p5700
(dp5701
S'part5_correct_attempt'
p5702
(lp5703
S'0:03:28'
p5704
aVQ((8-(23/5))/(sqrt(23/5*(4/5))))
p5705
asS'part2_correct_attempt'
p5706
(lp5707
S'0:00:00'
p5708
aV23/5
p5709
asS'part5_incorrect_attempt'
p5710
(lp5711
(S'0:03:08'
p5712
VQ((8-(23/5))/(sqrt(23/5*(4/5))))+(8-(23/5))/(sqrt(23/5*(4/5)))
p5713
tp5714
asS'part4_correct_attempt'
p5715
(lp5716
S'0:02:56'
p5717
aV(8-(23/5))/(sqrt(23/5*(4/5)))
p5718
asS'part3_correct_attempt'
p5719
(lp5720
S'0:00:41'
p5721
aVsqrt(23/5*(4/5))
p5722
asg9
V2015-11-07 00:03:12
p5723
ssVz2tan
p5724
(dp5725
S'part5_correct_attempt'
p5726
(lp5727
S'0:42:12'
p5728
aV1-Phi((12-5.2)/(26*0.8*0.2)^0.5)
p5729
asS'part2_correct_attempt'
p5730
(lp5731
S'0:01:04'
p5732
ag2838
asS'part5_incorrect_attempt'
p5733
(lp5734
(S'0:40:57'
p5735
V0.04
p5736
tp5737
a(S'0:41:06'
p5738
V0.4
p5739
tp5740
a(S'0:41:13'
p5741
V0.004
p5742
tp5743
a(S'0:41:35'
p5744
V0.0004
p5745
tp5746
asS'part4_correct_attempt'
p5747
(lp5748
S'0:29:26'
p5749
aV(12-5.2)/(26*0.8*0.2)^0.5
p5750
asS'part3_correct_attempt'
p5751
(lp5752
S'0:27:53'
p5753
ag2834
asg9
g2839
ssVaordookh
p5754
(dp5755
S'part5_correct_attempt'
p5756
(lp5757
S'1 day, 9:27:05'
p5758
aV1-Phi((11-(28/6))/(28(1/6)(5/6))^(1/2))
p5759
asS'part2_correct_attempt'
p5760
(lp5761
S'1 day, 7:31:46'
p5762
ag3760
asS'part5_incorrect_attempt'
p5763
(lp5764
(S'1 day, 7:39:01'
p5765
Ve^(-28/6(11))
p5766
tp5767
a(S'1 day, 7:39:43'
p5768
Ve^(-6/28(11))
p5769
tp5770
a(S'1 day, 7:41:13'
p5771
V1-Phi(11)
p5772
tp5773
a(S'1 day, 9:22:21'
p5774
VQ(11)
p5775
tp5776
a(S'1 day, 9:25:38'
p5777
V1-(1-e^((-6/28)11))
p5778
tp5779
asS'part4_correct_attempt'
p5780
(lp5781
S'1 day, 7:39:01'
p5782
aV(11-(28/6))/(28(1/6)(5/6))^(1/2)
p5783
asS'part3_correct_attempt'
p5784
(lp5785
S'1 day, 7:39:01'
p5786
aV(28(1/6)(5/6))^(1/2)
p5787
asg9
g3761
ssVkquong
p5788
(dp5789
S'part5_correct_attempt'
p5790
(lp5791
S'3:59:18'
p5792
aVQ((9 - (25/6))/sqrt(125/36))
p5793
asS'part2_correct_attempt'
p5794
(lp5795
S'0:00:00'
p5796
ag2344
asS'part5_incorrect_attempt'
p5797
(lp5798
(S'0:02:03'
p5799
V100 - ((9 - (25/6))/sqrt(125/36))
p5800
tp5801
asS'part4_correct_attempt'
p5802
(lp5803
S'0:00:40'
p5804
aV(9 - (25/6))/sqrt(125/36)
p5805
asS'part3_correct_attempt'
p5806
(lp5807
S'0:00:56'
p5808
ag2340
asg9
g2345
ssVdcastlem
p5809
(dp5810
S'part5_correct_attempt'
p5811
(lp5812
S'1 day, 23:58:54'
p5813
aVQ((10-5.2)/2.03961)
p5814
asS'part2_correct_attempt'
p5815
(lp5816
S'1:14:44'
p5817
ag3793
asS'part5_incorrect_attempt'
p5818
(lp5819
(S'1:24:29'
p5820
V.0031
p5821
tp5822
a(S'1:24:34'
p5823
V.003
p5824
tp5825
a(S'1 day, 23:52:58'
p5826
VQ(14/sqrt(66))
p5827
tp5828
a(S'1 day, 23:53:43'
p5829
VQ(10/sqrt(66))
p5830
tp5831
a(S'1 day, 23:54:16'
p5832
VQ(10/2.03961)
p5833
tp5834
a(S'1 day, 23:54:28'
p5835
VQ(10/sqrt(2.03961))
p5836
tp5837
a(S'1 day, 23:58:43'
p5838
VQ(10-5.2/(sqrt(26*1/5*4/5)))
p5839
tp5840
asS'part4_correct_attempt'
p5841
(lp5842
S'1:17:15'
p5843
aV(10-5.2)/2.03961
p5844
asS'part3_correct_attempt'
p5845
(lp5846
S'1:15:49'
p5847
aVsqrt(26*1/5*4/5)
p5848
asg9
g3794
ssVvolim
p5849
(dp5850
S'part5_correct_attempt'
p5851
(lp5852
S'1:19:45'
p5853
aVQ([9-23*(1/6)]/[23*(1/6)*(1-(1/6))]^(1/2))
p5854
asS'part2_correct_attempt'
p5855
(lp5856
S'0:48:55'
p5857
ag3818
asS'part5_incorrect_attempt'
p5858
(lp5859
(S'1:18:02'
p5860
V50-49.81
p5861
tp5862
a(S'1:18:11'
p5863
V.50-.4981
p5864
tp5865
a(S'1:19:10'
p5866
V.19
p5867
tp5868
asS'part4_correct_attempt'
p5869
(lp5870
S'1:12:26'
p5871
aV[9-23*(1/6)]/[23*(1/6)*(1-(1/6))]^(1/2)
p5872
asS'part3_correct_attempt'
p5873
(lp5874
S'1:09:34'
p5875
aV[23*(1/6)*(1-(1/6))]^(1/2)
p5876
asg9
g3819
ssVv4sharma
p5877
(dp5878
S'part5_correct_attempt'
p5879
(lp5880
S'1:07:20'
p5881
aV0.00259434
p5882
asS'part2_correct_attempt'
p5883
(lp5884
S'0:07:23'
p5885
ag1591
asS'part5_incorrect_attempt'
p5886
(lp5887
(S'0:57:22'
p5888
V0.01
p5889
tp5890
a(S'0:57:43'
p5891
V0.05
p5892
tp5893
a(S'0:59:14'
p5894
V0.025
p5895
tp5896
asS'part4_correct_attempt'
p5897
(lp5898
S'0:54:44'
p5899
aV(9-4)/(sqrt((20)(1/5)(4/5)))
p5900
asS'part3_correct_attempt'
p5901
(lp5902
S'0:51:52'
p5903
ag1587
asg9
g1592
ssVc3chung
p5904
(dp5905
S'part5_correct_attempt'
p5906
(lp5907
S'0:22:55'
p5908
aV0.5-0.49936
p5909
asS'part2_correct_attempt'
p5910
(lp5911
S'0:02:16'
p5912
ag2892
asS'part5_incorrect_attempt'
p5913
(lp5914
(S'0:16:08'
p5915
V0.0014
p5916
tp5917
a(S'0:16:20'
p5918
V0.0007
p5919
tp5920
a(S'0:16:33'
p5921
V1-0.9986
p5922
tp5923
a(S'0:17:10'
p5924
V1-0.9994
p5925
tp5926
a(S'0:17:19'
p5927
V0.0003
p5928
tp5929
a(S'0:18:06'
p5930
V0.0006
p5931
tp5932
a(S'0:18:11'
p5933
V0.0003
p5934
tp5935
a(S'0:19:18'
p5936
V1-0.9993
p5937
tp5938
a(S'0:22:29'
p5939
V1-0.99872
p5940
tp5941
asS'part4_correct_attempt'
p5942
(lp5943
S'0:12:49'
p5944
aV(9-1/6(21))/sqrt(1/6(5/6)(21))
p5945
asS'part3_correct_attempt'
p5946
(lp5947
S'0:12:04'
p5948
ag2888
asg9
g2893
ssVatorr
p5949
(dp5950
S'part5_correct_attempt'
p5951
(lp5952
S'0:12:16'
p5953
aV1 - Phi((10 - 6)/((30 * 0.2 * 0.8)^0.5))
p5954
asS'part2_correct_attempt'
p5955
(lp5956
S'0:00:54'
p5957
ag1234
asS'part5_incorrect_attempt'
p5958
(lp5959
(S'0:09:40'
p5960
V1 - [(10 - 6)/((30 * 0.2 * 0.8)^0.5)/30]
p5961
tp5962
a(S'0:09:49'
p5963
V1 - [(10 - 6)/((30 * 0.2 * 0.8)^0.5)/10]
p5964
tp5965
asS'part4_correct_attempt'
p5966
(lp5967
S'0:06:58'
p5968
aV(10 - 6)/((30 * 0.2 * 0.8)^0.5)
p5969
asS'part3_correct_attempt'
p5970
(lp5971
S'0:06:22'
p5972
ag1230
asg9
g1235
ssVhabuamar
p5973
(dp5974
S'part5_correct_attempt'
p5975
(lp5976
S'0:00:30'
p5977
aVQ((10-27*(1/4))/(sqrt(27*(1/4)*(3/4))))
p5978
asS'part2_correct_attempt'
p5979
(lp5980
S'0:00:00'
p5981
aV27*(1/4)
p5982
asS'part5_incorrect_attempt'
p5983
(lp5984
(S'0:00:00'
p5985
V1-Q((10-27*(1/4))/(sqrt(27*(1/4)*(3/4))))
p5986
tp5987
asS'part4_correct_attempt'
p5988
(lp5989
S'0:00:00'
p5990
aV(10-27*(1/4))/(sqrt(27*(1/4)*(3/4)))
p5991
asS'part3_correct_attempt'
p5992
(lp5993
S'0:00:00'
p5994
aVsqrt(27*(1/4)*(3/4))
p5995
asg9
V2015-11-03 00:29:11
p5996
ssVzig006
p5997
(dp5998
S'part5_correct_attempt'
p5999
(lp6000
S'0:41:50'
p6001
aVQ(1.745743)
p6002
asS'part2_correct_attempt'
p6003
(lp6004
S'0:00:21'
p6005
ag2945
asS'part5_incorrect_attempt'
p6006
(lp6007
(S'0:39:22'
p6008
V0.035930
p6009
tp6010
a(S'0:39:48'
p6011
V0.044565
p6012
tp6013
asS'part4_correct_attempt'
p6014
(lp6015
S'0:38:41'
p6016
aV1.745743
p6017
asS'part3_correct_attempt'
p6018
(lp6019
S'0:34:12'
p6020
ag2941
asg9
g2946
ssVtpmach
p6021
(dp6022
S'part5_correct_attempt'
p6023
(lp6024
S'19:23:57'
p6025
aV1-Phi((9-22/5)/(sqrt(1/5(1-1/5)22)))
p6026
asS'part2_correct_attempt'
p6027
(lp6028
S'17:50:50'
p6029
ag1399
asS'part5_incorrect_attempt'
p6030
(lp6031
(S'18:01:16'
p6032
V2*((9-22/5)/(sqrt(1/5(1-1/5)22)))
p6033
tp6034
a(S'19:15:40'
p6035
V2*2*((9-22/5)/(sqrt(1/5(1-1/5)22)))
p6036
tp6037
asS'part4_correct_attempt'
p6038
(lp6039
S'18:00:41'
p6040
aV(9-22/5)/(sqrt(1/5(1-1/5)22))
p6041
asS'part3_correct_attempt'
p6042
(lp6043
S'17:57:41'
p6044
ag1395
asg9
g1400
ssVany027
p6045
(dp6046
S'part5_correct_attempt'
p6047
(lp6048
S'1:33:54'
p6049
aVQ((11 - (27/6)) / (sqrt( (27*1/6)* (1-1/6) )))
p6050
asS'part2_correct_attempt'
p6051
(lp6052
S'0:02:37'
p6053
ag2449
asS'part5_incorrect_attempt'
p6054
(lp6055
(S'1:33:46'
p6056
VQ(11)
p6057
tp6058
asS'part4_correct_attempt'
p6059
(lp6060
S'1:33:24'
p6061
aV(11 - (27/6)) / (sqrt( (27*1/6)* (1-1/6) ))
p6062
asS'part3_correct_attempt'
p6063
(lp6064
S'1:32:21'
p6065
ag2445
asg9
g2450
ssVm8woo
p6066
(dp6067
S'part5_correct_attempt'
p6068
(lp6069
S'0:18:42'
p6070
aVQ([11-(1/6 * 30)]/[(1/6)*(5/6)*30]^(1/2))
p6071
asS'part2_correct_attempt'
p6072
(lp6073
S'-1 day, 23:57:29'
p6074
ag1092
asS'part5_incorrect_attempt'
p6075
(lp6076
(S'0:18:15'
p6077
VQ(11)
p6078
tp6079
asS'part4_correct_attempt'
p6080
(lp6081
S'0:13:02'
p6082
aV[11-(1/6 * 30)]/[(1/6)*(5/6)*30]^(1/2)
p6083
asS'part3_correct_attempt'
p6084
(lp6085
S'0:09:55'
p6086
ag1088
asg9
g1093
ssVj2phung
p6087
(dp6088
S'part5_correct_attempt'
p6089
(lp6090
S'0:56:22'
p6091
aV1-(.9306)
p6092
asS'part2_correct_attempt'
p6093
(lp6094
S'0:01:53'
p6095
ag3036
asS'part5_incorrect_attempt'
p6096
(lp6097
(S'0:51:52'
p6098
V(1-(.9292))*100
p6099
tp6100
a(S'0:52:47'
p6101
V(1-(.9306))*100
p6102
tp6103
a(S'0:53:10'
p6104
V(1-(.9279))*100
p6105
tp6106
a(S'0:55:33'
p6107
V1-(.9292)
p6108
tp6109
asS'part4_correct_attempt'
p6110
(lp6111
S'0:36:58'
p6112
aV(11-(30/4))/((30*(1/4)*(3/4))^(1/2))
p6113
asS'part3_correct_attempt'
p6114
(lp6115
S'0:34:15'
p6116
ag3032
asg9
g3037
ssVwmiao
p6117
(dp6118
S'part5_correct_attempt'
p6119
(lp6120
S'21:35:18'
p6121
aV1-(0.5+0.5erf(((11-21*1/5)/((0.2*(1-0.2)*21)^0.5))/(2^0.5)))
p6122
asS'part2_correct_attempt'
p6123
(lp6124
S'21:13:10'
p6125
ag1733
asS'part5_incorrect_attempt'
p6126
(lp6127
(S'21:20:12'
p6128
V1/21*(11+12+13+14+15+16+17+18+19+20+21)
p6129
tp6130
a(S'21:21:09'
p6131
V1/21*(1/5*11)
p6132
tp6133
asS'part4_correct_attempt'
p6134
(lp6135
S'21:16:47'
p6136
aV(11-21*1/5)/((0.2*(1-0.2)*21)^0.5)
p6137
asS'part3_correct_attempt'
p6138
(lp6139
S'21:16:47'
p6140
ag1729
asg9
g1734
ssVklala
p6141
(dp6142
S'part5_correct_attempt'
p6143
(lp6144
S'0:23:23'
p6145
aV1-((1/2)+(1/2)*erf((((12-(28 * (1/6)))/(sqrt(28*(1/6)*(5/6)))))/sqrt(2)))
p6146
asS'part2_correct_attempt'
p6147
(lp6148
S'0:09:26'
p6149
ag2293
asS'part5_incorrect_attempt'
p6150
(lp6151
(S'0:19:30'
p6152
V0.0001078
p6153
tp6154
asS'part4_correct_attempt'
p6155
(lp6156
S'0:13:40'
p6157
aV(12-(28 * (1/6)))/(sqrt(28*(1/6)*(5/6)))
p6158
asS'part3_correct_attempt'
p6159
(lp6160
S'0:13:03'
p6161
ag2289
asg9
g2294
ssVb1yao
p6162
(dp6163
S'part5_correct_attempt'
p6164
(lp6165
S'0:30:11'
p6166
aV1-0.9429
p6167
asS'part2_correct_attempt'
p6168
(lp6169
S'0:11:45'
p6170
ag1250
asS'part5_incorrect_attempt'
p6171
(lp6172
(S'0:28:30'
p6173
V1-5.48*10^-2
p6174
tp6175
a(S'0:28:46'
p6176
V5.48*10^-2
p6177
tp6178
a(S'0:30:04'
p6179
V0.9429
p6180
tp6181
asS'part4_correct_attempt'
p6182
(lp6183
S'0:25:23'
p6184
aV(8-(29/6))/((29*1*5/36)^0.5)
p6185
asS'part3_correct_attempt'
p6186
(lp6187
S'0:21:04'
p6188
ag1246
asg9
g1251
sssV4
p6189
(dp6190
Vdlgoldbe
p6191
(dp6192
S'part4_correct_attempt'
p6193
(lp6194
S'0:13:59'
p6195
aV(13-(22/4))/(sqrt((22/4)*(1-(1/4))))
p6196
asS'part3_correct_attempt'
p6197
(lp6198
S'0:09:26'
p6199
ag2321
asS'part2_correct_attempt'
p6200
(lp6201
S'0:05:09'
p6202
ag2325
asS'part4_incorrect_attempt'
p6203
(lp6204
(S'0:12:41'
p6205
VQ(13)
p6206
tp6207
asg9
g2326
ssVh4tu
p6208
(dp6209
S'part4_correct_attempt'
p6210
(lp6211
S'0:33:22'
p6212
aV(14-6)/sqrt((1/5)*(1-1/5)*30)
p6213
asS'part3_correct_attempt'
p6214
(lp6215
S'0:18:42'
p6216
aVsqrt((1/5)*(1-1/5)*30)
p6217
asS'part2_correct_attempt'
p6218
(lp6219
S'0:16:55'
p6220
aV6
p6221
asS'part4_incorrect_attempt'
p6222
(lp6223
(S'0:24:31'
p6224
V6/14
p6225
tp6226
a(S'0:24:39'
p6227
V14/6
p6228
tp6229
a(S'0:24:45'
p6230
V14-6
p6231
tp6232
a(S'0:29:58'
p6233
V1-Phi(14)
p6234
tp6235
a(S'0:30:43'
p6236
VPhi(14)
p6237
tp6238
a(S'0:30:56'
p6239
VQ(14)
p6240
tp6241
asg9
V2015-11-06 23:39:46
p6242
ssVlywong
p6243
(dp6244
S'part4_correct_attempt'
p6245
(lp6246
S'1 day, 16:18:11'
p6247
aV(9-(1/4)*23)/(23*(1/4)(1-(1/4)))^(1/2)
p6248
asS'part3_correct_attempt'
p6249
(lp6250
S'1 day, 16:09:21'
p6251
ag1764
asS'part2_correct_attempt'
p6252
(lp6253
S'1 day, 12:29:27'
p6254
ag1768
asS'part4_incorrect_attempt'
p6255
(lp6256
(S'1 day, 16:14:36'
p6257
VQ((23*(1/4)(1-(1/4)))^(1/2))
p6258
tp6259
asg9
g1769
ssVabasu
p6260
(dp6261
S'part4_correct_attempt'
p6262
(lp6263
S'2:21:25'
p6264
aV2.8783
p6265
asS'part3_correct_attempt'
p6266
(lp6267
S'2:13:59'
p6268
ag1799
asS'part2_correct_attempt'
p6269
(lp6270
S'0:06:00'
p6271
ag1803
asS'part4_incorrect_attempt'
p6272
(lp6273
(S'2:15:56'
p6274
V12-(5.8/2.154065)
p6275
tp6276
a(S'2:16:05'
p6277
V12-(5.8/2.15406592285)
p6278
tp6279
a(S'2:20:03'
p6280
V7.20416847669
p6281
tp6282
asg9
g1804
ssValakamsa
p6283
(dp6284
S'part4_correct_attempt'
p6285
(lp6286
S'0:25:58'
p6287
ag4218
asS'part3_correct_attempt'
p6288
(lp6289
S'0:00:27'
p6290
ag701
asS'part2_correct_attempt'
p6291
(lp6292
S'0:00:00'
p6293
ag705
asS'part4_incorrect_attempt'
p6294
(lp6295
(S'0:02:07'
p6296
V0.0005075
p6297
tp6298
a(S'0:05:29'
p6299
V0.000507494
p6300
tp6301
asg9
g706
ssVany027
p6302
(dp6303
S'part4_correct_attempt'
p6304
(lp6305
S'1:33:24'
p6306
ag6062
asS'part3_correct_attempt'
p6307
(lp6308
S'1:32:21'
p6309
ag2445
asS'part2_correct_attempt'
p6310
(lp6311
S'0:02:37'
p6312
ag2449
asS'part4_incorrect_attempt'
p6313
(lp6314
(S'1:33:11'
p6315
V11 - (27/6) / (sqrt( (27*1/6)* (1-1/6) ))
p6316
tp6317
asg9
g2450
ssVrwthomps
p6318
(dp6319
S'part4_correct_attempt'
p6320
(lp6321
S'0:09:59'
p6322
aV(11 - 4)/sqrt(0.2 * 0.8 * 20)
p6323
asS'part3_correct_attempt'
p6324
(lp6325
S'0:08:03'
p6326
aVsqrt(0.2 * 0.8 * 20)
p6327
asS'part2_correct_attempt'
p6328
(lp6329
S'0:00:44'
p6330
aV4
p6331
asS'part4_incorrect_attempt'
p6332
(lp6333
(S'0:08:20'
p6334
VQ(11)
p6335
tp6336
asg9
V2015-11-06 21:39:26
p6337
ssVawollner
p6338
(dp6339
S'part4_correct_attempt'
p6340
(lp6341
S'0:20:43'
p6342
aV(12-6.25)/sqrt(.25*.75*25)
p6343
asS'part3_correct_attempt'
p6344
(lp6345
S'0:04:41'
p6346
aVsqrt(.25*.75*25)
p6347
asS'part2_correct_attempt'
p6348
(lp6349
S'0:00:43'
p6350
aV25/4
p6351
asS'part4_incorrect_attempt'
p6352
(lp6353
(S'0:05:11'
p6354
VQ(12)
p6355
tp6356
a(S'0:07:30'
p6357
VQ(2.16506)
p6358
tp6359
a(S'0:11:37'
p6360
VQ(6.25/2.16506)
p6361
tp6362
a(S'0:13:00'
p6363
VQ(5.75/2.16506)
p6364
tp6365
a(S'0:13:32'
p6366
VQ((12-6.25)/2.16506)
p6367
tp6368
asg9
V2015-11-06 23:45:59
p6369
ssVkthui
p6370
(dp6371
S'part4_correct_attempt'
p6372
(lp6373
S'0:15:08'
p6374
aV(8-20/6)/((1/6)(1-1/6)20)^(1/2)
p6375
asS'part3_correct_attempt'
p6376
(lp6377
S'0:12:11'
p6378
aV((1/6)(1-1/6)20)^(1/2)
p6379
asS'part2_correct_attempt'
p6380
(lp6381
S'0:08:57'
p6382
aV20/6
p6383
asS'part4_incorrect_attempt'
p6384
(lp6385
(S'0:14:48'
p6386
V(8-20/6)/10+5/2+10/9+5/8+2/5
p6387
tp6388
asg9
V2015-11-06 08:10:25
p6389
ssVrraiyyan
p6390
(dp6391
S'part4_correct_attempt'
p6392
(lp6393
S'0:17:36'
p6394
aV(10-4.8)/(sqrt(4*24/25))
p6395
asS'part3_correct_attempt'
p6396
(lp6397
S'0:05:19'
p6398
aVsqrt(4*24/25)
p6399
asS'part2_correct_attempt'
p6400
(lp6401
S'0:04:10'
p6402
aV24/5
p6403
asS'part4_incorrect_attempt'
p6404
(lp6405
(S'0:09:49'
p6406
V24/5 + 10 * sqrt(4*24/25)
p6407
tp6408
a(S'0:12:35'
p6409
V10 * (24/5 + sqrt(4*24/25))
p6410
tp6411
a(S'0:13:25'
p6412
V24/5 + 10 * sqrt(4*24/25)
p6413
tp6414
a(S'0:17:22'
p6415
V10-4.8/(sqrt(4*24/25))
p6416
tp6417
asg9
V2015-11-06 23:38:15
p6418
ssVdan029
p6419
(dp6420
S'part4_correct_attempt'
p6421
(lp6422
S'0:16:01'
p6423
ag4531
asS'part3_correct_attempt'
p6424
(lp6425
S'0:07:40'
p6426
ag761
asS'part2_correct_attempt'
p6427
(lp6428
S'0:06:47'
p6429
ag765
asS'part4_incorrect_attempt'
p6430
(lp6431
(S'0:08:07'
p6432
VQ(12)
p6433
tp6434
a(S'0:09:28'
p6435
VPhi(12)
p6436
tp6437
a(S'0:13:38'
p6438
VQ(5-12)
p6439
tp6440
a(S'0:14:05'
p6441
VPhi(12)
p6442
tp6443
asg9
g766
ssVgsrandha
p6444
(dp6445
S'part4_correct_attempt'
p6446
(lp6447
S'0:13:31'
p6448
aV((12-4.2)/(1.83303))
p6449
asS'part3_correct_attempt'
p6450
(lp6451
S'0:11:23'
p6452
aVsqrt(4.2(1-.2))
p6453
asS'part2_correct_attempt'
p6454
(lp6455
S'0:06:51'
p6456
aV21 * .2
p6457
asS'part4_incorrect_attempt'
p6458
(lp6459
(S'0:12:23'
p6460
VQ((12-4.2)/(1.83303))
p6461
tp6462
asg9
V2015-11-05 08:11:06
p6463
ssVttimmons
p6464
(dp6465
S'part4_correct_attempt'
p6466
(lp6467
S'1 day, 1:14:20'
p6468
aV[15 - (1/4)*30]/[sqrt(30*(1/4)*(1-(1/4)))]
p6469
asS'part3_correct_attempt'
p6470
(lp6471
S'0:19:47'
p6472
ag1977
asS'part2_correct_attempt'
p6473
(lp6474
S'0:09:13'
p6475
ag1981
asS'part4_incorrect_attempt'
p6476
(lp6477
(S'1 day, 0:40:51'
p6478
VQ(7)
p6479
tp6480
a(S'1 day, 0:40:57'
p6481
VQ(15)
p6482
tp6483
asg9
g1982
ssVjew037
p6484
(dp6485
S'part4_correct_attempt'
p6486
(lp6487
S'0:05:38'
p6488
ag4720
asS'part3_correct_attempt'
p6489
(lp6490
S'0:01:44'
p6491
ag4724
asS'part2_correct_attempt'
p6492
(lp6493
S'0:01:00'
p6494
ag3409
asS'part4_incorrect_attempt'
p6495
(lp6496
(S'0:04:03'
p6497
V12-(26*(1/6))/ (sqrt( 26 / 6 * (1-1/ 6)))
p6498
tp6499
asg9
g3410
ssVmnrahman
p6500
(dp6501
S'part4_correct_attempt'
p6502
(lp6503
S'0:43:37'
p6504
aV(10-5.2)/sqrt(20.84/5)
p6505
asS'part3_correct_attempt'
p6506
(lp6507
S'0:28:01'
p6508
aVsqrt(20.84/5)
p6509
asS'part2_correct_attempt'
p6510
(lp6511
S'0:26:56'
p6512
ag3436
asS'part4_incorrect_attempt'
p6513
(lp6514
(S'0:28:01'
p6515
V(8-5.2)/sqrt(20.84/6)
p6516
tp6517
asg9
g3437
ssVrlhagen
p6518
(dp6519
S'part4_correct_attempt'
p6520
(lp6521
S'0:06:51'
p6522
aV(10-(25*(1/5)))/(sqrt(25*(1/5)*(1-(1/5))))
p6523
asS'part3_correct_attempt'
p6524
(lp6525
S'0:03:30'
p6526
aVsqrt(25*(1/5)*(1-(1/5)))
p6527
asS'part2_correct_attempt'
p6528
(lp6529
S'0:02:09'
p6530
aV25*(1/5)
p6531
asS'part4_incorrect_attempt'
p6532
(lp6533
(S'0:06:25'
p6534
V10-(25*(1/5))/(sqrt(25*(1/5)*(1-(1/5))))
p6535
tp6536
asg9
V2015-10-31 19:16:52
p6537
ssVagarango
p6538
(dp6539
S'part4_correct_attempt'
p6540
(lp6541
S'3:41:30'
p6542
ag4847
asS'part3_correct_attempt'
p6543
(lp6544
S'3:28:35'
p6545
ag2594
asS'part2_correct_attempt'
p6546
(lp6547
S'0:18:35'
p6548
ag2598
asS'part4_incorrect_attempt'
p6549
(lp6550
(S'3:39:23'
p6551
V11-(1/6)/(sqrt(5*1)/6)
p6552
tp6553
a(S'3:39:49'
p6554
V11-(21/6)/(sqrt(5*21)/6)
p6555
tp6556
a(S'3:40:13'
p6557
V11-(11/6)/(sqrt(5*11)/6)
p6558
tp6559
a(S'3:40:49'
p6560
V11-(21/6)/(sqrt(5*21)/6)
p6561
tp6562
asg9
g2599
ssVavasavad
p6563
(dp6564
S'part4_incorrect_attempt'
p6565
(lp6566
(S'0:11:48'
p6567
VQ(11)
p6568
tp6569
a(S'0:12:14'
p6570
VPhi(11)
p6571
tp6572
asg9
g3455
ssVs6deng
p6573
(dp6574
S'part4_incorrect_attempt'
p6575
(lp6576
(S'0:46:30'
p6577
V(23-8)/(1/5)
p6578
tp6579
asg9
V2015-11-05 07:34:09
p6580
ssVdgunawan
p6581
(dp6582
S'part4_correct_attempt'
p6583
(lp6584
S'15:24:23'
p6585
aV[13-7]/[((1/4) * 28 (1-1/4))^(1/2)]
p6586
asS'part3_correct_attempt'
p6587
(lp6588
S'15:23:45'
p6589
ag815
asS'part2_correct_attempt'
p6590
(lp6591
S'0:00:00'
p6592
ag819
asS'part4_incorrect_attempt'
p6593
(lp6594
(S'15:24:13'
p6595
V13-7/[((1/4) * 28 (1-1/4))^(1/2)]
p6596
tp6597
asg9
g820
ssVaakumar
p6598
(dp6599
S'part4_correct_attempt'
p6600
(lp6601
S'2:34:32'
p6602
aV1.7719
p6603
asS'part3_correct_attempt'
p6604
(lp6605
S'2:09:35'
p6606
ag2115
asS'part2_correct_attempt'
p6607
(lp6608
S'0:12:20'
p6609
ag2119
asS'part4_incorrect_attempt'
p6610
(lp6611
(S'2:19:24'
p6612
V1.4771
p6613
tp6614
asg9
g2120
ssVtstevens
p6615
(dp6616
S'part4_correct_attempt'
p6617
(lp6618
S'0:08:17'
p6619
aV2.143303628
p6620
asS'part3_correct_attempt'
p6621
(lp6622
S'0:05:23'
p6623
ag865
asS'part2_correct_attempt'
p6624
(lp6625
S'0:00:10'
p6626
ag869
asS'part4_incorrect_attempt'
p6627
(lp6628
(S'0:07:37'
p6629
V2.3474
p6630
tp6631
asg9
g870
ssVtcn013
p6632
(dp6633
S'part4_correct_attempt'
p6634
(lp6635
S'0:08:29'
p6636
ag5176
asS'part3_correct_attempt'
p6637
(lp6638
S'0:05:58'
p6639
ag5180
asS'part2_correct_attempt'
p6640
(lp6641
S'0:00:00'
p6642
ag5167
asS'part4_incorrect_attempt'
p6643
(lp6644
(S'0:06:20'
p6645
V23/6+1.7873*9
p6646
tp6647
asg9
g5181
ssVyeh013
p6648
(dp6649
S'part4_correct_attempt'
p6650
(lp6651
S'3:22:10'
p6652
aV4/(4.5^(1/2))
p6653
asS'part3_correct_attempt'
p6654
(lp6655
S'3:17:42'
p6656
ag2137
asS'part2_correct_attempt'
p6657
(lp6658
S'2:26:57'
p6659
ag2141
asS'part4_incorrect_attempt'
p6660
(lp6661
(S'3:18:27'
p6662
V9^(1/2)
p6663
tp6664
a(S'3:20:12'
p6665
V2*(30/16)^(1/2)
p6666
tp6667
asg9
g2142
ssVakalathi
p6668
(dp6669
S'part4_correct_attempt'
p6670
(lp6671
S'0:05:44'
p6672
aV(12- 5.8)/(sqrt((29(1/5)*(4/5))))
p6673
asS'part3_correct_attempt'
p6674
(lp6675
S'0:02:46'
p6676
ag1470
asS'part2_correct_attempt'
p6677
(lp6678
S'0:00:17'
p6679
ag1474
asS'part4_incorrect_attempt'
p6680
(lp6681
(S'0:04:37'
p6682
V12 - (5.8/(sqrt((29(1/5)*(4/5)))))
p6683
tp6684
asg9
g1475
ssVlcardoso
p6685
(dp6686
S'part4_correct_attempt'
p6687
(lp6688
S'0:00:24'
p6689
aV(11-[28*(1/5)])/[sqrt((28*(1/5))*(1-(1/5)))]
p6690
asS'part3_correct_attempt'
p6691
(lp6692
S'-1 day, 23:58:55'
p6693
aVsqrt((28*(1/5))*(1-(1/5)))
p6694
asS'part2_correct_attempt'
p6695
(lp6696
S'-1 day, 23:58:55'
p6697
aV28*(1/5)
p6698
asS'part4_incorrect_attempt'
p6699
(lp6700
(S'-1 day, 23:58:55'
p6701
V11-[28*(1/5)]/[sqrt((28*(1/5))*(1-(1/5)))]
p6702
tp6703
asg9
V2015-11-06 21:19:27
p6704
ssVjel075
p6705
(dp6706
S'part4_correct_attempt'
p6707
(lp6708
S'13:42:16'
p6709
aV(9-5.2)/2.03961
p6710
asS'part3_correct_attempt'
p6711
(lp6712
S'13:40:20'
p6713
ag1486
asS'part2_correct_attempt'
p6714
(lp6715
S'0:02:18'
p6716
ag1490
asS'part4_incorrect_attempt'
p6717
(lp6718
(S'13:41:49'
p6719
V(26-5.2)/2.03961
p6720
tp6721
asg9
g1491
ssVdsriniva
p6722
(dp6723
S'part4_correct_attempt'
p6724
(lp6725
S'2:36:08'
p6726
ag5323
asS'part3_correct_attempt'
p6727
(lp6728
S'2:33:19'
p6729
ag962
asS'part2_correct_attempt'
p6730
(lp6731
S'0:03:10'
p6732
ag966
asS'part4_incorrect_attempt'
p6733
(lp6734
(S'2:34:52'
p6735
V1.390345*10^-2
p6736
tp6737
a(S'2:35:04'
p6738
V1.390345*10^2
p6739
tp6740
a(S'2:35:50'
p6741
V2.23
p6742
tp6743
asg9
g967
ssVedescobe
p6744
(dp6745
S'part4_correct_attempt'
p6746
(lp6747
S'3 days, 2:11:43'
p6748
ag5371
asS'part3_correct_attempt'
p6749
(lp6750
S'3 days, 1:50:16'
p6751
ag1517
asS'part2_correct_attempt'
p6752
(lp6753
S'3 days, 1:45:13'
p6754
ag1521
asS'part4_incorrect_attempt'
p6755
(lp6756
(S'3 days, 2:10:00'
p6757
V.99999
p6758
tp6759
asg9
g1522
ssVw4shin
p6760
(dp6761
S'part4_correct_attempt'
p6762
(lp6763
S'0:11:46'
p6764
aV(13-27*(1/5))/sqrt(27*(1/5)*(4/5))
p6765
asS'part3_correct_attempt'
p6766
(lp6767
S'0:05:56'
p6768
aVsqrt(27*(1/5)*(4/5))
p6769
asS'part2_correct_attempt'
p6770
(lp6771
S'-1 day, 23:59:40'
p6772
aV27*(1/5)
p6773
asS'part4_incorrect_attempt'
p6774
(lp6775
(S'0:09:02'
p6776
VPhi(13)
p6777
tp6778
asg9
V2015-11-06 23:31:49
p6779
ssVhmshah
p6780
(dp6781
S'part4_incorrect_attempt'
p6782
(lp6783
(S'0:15:53'
p6784
VQ(8)
p6785
tp6786
asg9
g3562
ssVralhadda
p6787
(dp6788
S'part4_correct_attempt'
p6789
(lp6790
S'4:22:08'
p6791
aV1.732
p6792
asS'part3_correct_attempt'
p6793
(lp6794
S'4:20:31'
p6795
aV2.165
p6796
asS'part2_correct_attempt'
p6797
(lp6798
S'0:05:12'
p6799
ag3921
asS'part4_incorrect_attempt'
p6800
(lp6801
(S'4:21:18'
p6802
V2.8867
p6803
tp6804
asg9
g3922
ssVyig015
p6805
(dp6806
S'part4_correct_attempt'
p6807
(lp6808
S'23:27:03'
p6809
aV7*sqrt(10)/15
p6810
asS'part3_correct_attempt'
p6811
(lp6812
S'0:31:26'
p6813
ag2856
asS'part2_correct_attempt'
p6814
(lp6815
S'0:09:09'
p6816
ag2860
asS'part4_incorrect_attempt'
p6817
(lp6818
(S'0:33:55'
p6819
VPhi(11)
p6820
tp6821
a(S'0:34:37'
p6822
V0.7
p6823
tp6824
asg9
g2861
ssVxweng
p6825
(dp6826
S'part4_correct_attempt'
p6827
(lp6828
S'0:24:36'
p6829
ag5679
asS'part3_correct_attempt'
p6830
(lp6831
S'0:17:39'
p6832
ag5683
asS'part2_correct_attempt'
p6833
(lp6834
S'0:15:30'
p6835
ag5670
asS'part4_incorrect_attempt'
p6836
(lp6837
(S'0:19:57'
p6838
V0.876166
p6839
tp6840
asg9
g5684
ssVyypan
p6841
(dp6842
S'part4_correct_attempt'
p6843
(lp6844
S'2 days, 5:40:05'
p6845
aV(8-23*0.2)/sqrt((23*0.2*23*0.8)/23)
p6846
asS'part3_correct_attempt'
p6847
(lp6848
S'1:19:07'
p6849
aVsqrt((23*0.2*23*0.8)/23)
p6850
asS'part2_correct_attempt'
p6851
(lp6852
S'1:00:46'
p6853
ag3839
asS'part4_incorrect_attempt'
p6854
(lp6855
(S'1:49:07'
p6856
V(8!/(23!*15!))*0.2^8*0.8^15
p6857
tp6858
a(S'1:49:29'
p6859
V1-(8!/(23!*15!))*0.2^8*0.8^15
p6860
tp6861
asg9
g3840
ssVk4ma
p6862
(dp6863
S'part4_correct_attempt'
p6864
(lp6865
S'0:08:47'
p6866
ag5511
asS'part3_correct_attempt'
p6867
(lp6868
S'0:04:13'
p6869
ag5515
asS'part2_correct_attempt'
p6870
(lp6871
S'0:03:46'
p6872
ag5502
asS'part4_incorrect_attempt'
p6873
(lp6874
(S'0:05:04'
p6875
V1-Phi(12)
p6876
tp6877
a(S'0:05:41'
p6878
VPhi(12)
p6879
tp6880
asg9
g5516
ssVv3doan
p6881
(dp6882
S'part4_correct_attempt'
p6883
(lp6884
S'1 day, 19:08:19'
p6885
aV(8 - 25 / 6) / (sqrt(1/6 (5/6) 25))
p6886
asS'part3_correct_attempt'
p6887
(lp6888
S'1 day, 19:04:23'
p6889
aVsqrt(1/6 (5/6) 25)
p6890
asS'part2_correct_attempt'
p6891
(lp6892
S'1 day, 19:03:32'
p6893
ag3899
asS'part4_incorrect_attempt'
p6894
(lp6895
(S'1 day, 19:04:44'
p6896
V1 - Phi(8)
p6897
tp6898
a(S'1 day, 19:05:16'
p6899
VQ(8)
p6900
tp6901
a(S'1 day, 19:05:25'
p6902
VQ(1/25)
p6903
tp6904
asg9
g3900
ssVzig006
p6905
(dp6906
S'part4_correct_attempt'
p6907
(lp6908
S'0:38:41'
p6909
ag6017
asS'part3_correct_attempt'
p6910
(lp6911
S'0:34:12'
p6912
ag2941
asS'part2_correct_attempt'
p6913
(lp6914
S'0:00:21'
p6915
ag2945
asS'part4_incorrect_attempt'
p6916
(lp6917
(S'0:35:19'
p6918
V7.93327*10^(-7)
p6919
tp6920
a(S'0:36:37'
p6921
V0.04456
p6922
tp6923
a(S'0:37:19'
p6924
V0.035930
p6925
tp6926
asg9
g2946
ssVhmnaing
p6927
(dp6928
S'part4_correct_attempt'
p6929
(lp6930
S'3:53:12'
p6931
ag5296
asS'part3_correct_attempt'
p6932
(lp6933
S'3:52:15'
p6934
ag2248
asS'part2_correct_attempt'
p6935
(lp6936
S'3:41:28'
p6937
ag2252
asS'part4_incorrect_attempt'
p6938
(lp6939
(S'3:52:57'
p6940
V13- (26/4)/ (sqrt(0.25*0.75*26))
p6941
tp6942
asg9
g2253
ssVmjethani
p6943
(dp6944
S'part2_correct_attempt'
p6945
(lp6946
S'22:51:31'
p6947
ag3004
asS'part4_incorrect_attempt'
p6948
(lp6949
(S'22:52:56'
p6950
V(11-5)
p6951
tp6952
asg9
g3005
ssVasp025
p6953
(dp6954
S'part4_correct_attempt'
p6955
(lp6956
S'1:04:30'
p6957
ag4766
asS'part3_correct_attempt'
p6958
(lp6959
S'0:49:11'
p6960
ag2305
asS'part2_correct_attempt'
p6961
(lp6962
S'0:43:48'
p6963
ag2309
asS'part4_incorrect_attempt'
p6964
(lp6965
(S'0:56:50'
p6966
V1-Phi(12)
p6967
tp6968
a(S'0:57:02'
p6969
V1-Phi(12/6)
p6970
tp6971
a(S'0:57:14'
p6972
V1-Phi(6/12)
p6973
tp6974
asg9
g2310
sss.