(dp0
V1
p1
ccollections
defaultdict
p2
(c__builtin__
list
p3
tp4
Rp5
S'Digits'
p6
(lp7
(V0
p8
V1
p9
tp10
a(V0
p11
V10
p12
tp13
a(V0
p14
V1
p15
tp16
a(V0
p17
V1
p18
tp19
a(V0
p20
V0
p21
tp22
a(g20
V0
p23
tp24
a(g20
V0
p25
tp26
a(V0
p27
V0
p28
tp29
a(V0
p30
V50
p31
tp32
a(V0
p33
V1
p34
tp35
a(V0
p36
V1
p37
tp38
a(V0
p39
V1
p40
tp41
asS'Fraction'
p42
(lp43
(V0
p44
V(1+-.5) + (1+.5) / 2
p45
tp46
a(V0
p47
V0.3
p48
tp49
a(V0
p50
V0.5
p51
tp52
a(V0
p53
Vsqrt(0.288675*60)
p54
tp55
a(g53
V0.288675*sqrt(60)
p56
tp57
a(V0
p58
V75/2
p59
tp60
a(g58
V75/2
p61
tp62
a(V0
p63
V1/2
p64
tp65
a(V0
p66
V.5
p67
tp68
a(V0
p69
V85/2
p70
tp71
a(g14
V.5
p72
tp73
a(V0
p74
V0.5
p75
tp76
a(g17
V.5
p77
tp78
a(g17
V.25
p79
tp80
a(g14
V1/6
p81
tp82
a(V0
p83
Vsqrt(1/12)
p84
tp85
a(V0
p86
V0.5
p87
tp88
a(g20
V0.5
p89
tp90
a(g27
V74/80
p91
tp92
a(g27
V74/80
p93
tp94
a(V0
p95
V0.5
p96
tp97
a(V0
p98
Vsqrt(1/12)
p99
tp100
a(V0
p101
V.5
p102
tp103
a(V0
p104
V1/2
p105
tp106
a(V0
p107
V0.5
p108
tp109
a(g30
V0.5
p110
tp111
a(V0
p112
V.5
p113
tp114
a(g112
V(-.5-.5)/2
p115
tp116
a(g112
V-((-.5-.5)/2)
p117
tp118
a(V0
p119
V0.25
p120
tp121
a(g33
V0.5
p122
tp123
a(V0
p124
V.5
p125
tp126
a(V0
p127
V.5
p128
tp129
a(V0
p130
V0.5
p131
tp132
a(g130
V1/100
p133
tp134
a(g36
V1/2
p135
tp136
a(V0
p137
V(-.5+5)/2
p138
tp139
a(g137
V75*(-.5+5)/2
p140
tp141
a(V0
p142
V0.5
p143
tp144
a(V0
p145
V.5
p146
tp147
assV3
p148
g2
(g3
tp149
Rp150
g6
(lp151
(V0
p152
V65
p153
tp154
a(g152
V22
p155
tp156
a(V0
p157
V40
p158
tp159
a(V0
p160
V2
p161
tp162
asS'redirect'
p163
(lp164
(V0
p165
V46 / 2
p166
tp167
asg42
(lp168
(V0
p169
V1/12
p170
tp171
a(g152
V1/12
p172
tp173
a(g152
V65/12
p174
tp175
a(V0
p176
V(81)/2
p177
tp178
a(V0
p179
V55/2
p180
tp181
a(V0
p182
V1/12
p183
tp184
a(V0
p185
V1/sqrt(12)*sqrt(55)
p186
tp187
a(V0
p188
V17.32050809
p189
tp190
a(V0
p191
V0.5*45
p192
tp193
a(V0
p194
V(40/12)^(1/2)
p195
tp196
a(g194
V(80/12)^(1/2)
p197
tp198
a(V0
p199
Vsqrt(((.5+.5)^2)/12)/90
p200
tp201
a(V0
p202
V1/2
p203
tp204
a(V0
p205
V1/12
p206
tp207
assV2
p208
g2
(g3
tp209
Rp210
S"['R.0.1']"
p211
(lp212
(Vsqrt(1/12)
p213
V(1/12)(0.5-(-0.5))^2
p214
(lp215
(S'R.0.1'
p216
F12.0
V12
p217
V12
p218
tp219
aVrlhagen
p220
(lp221
(V$n
p222
V0
p223
tp224
a(V$phi
p225
V3
p226
tp227
a(V$d
p228
V2
p229
tp230
a(V$x
p231
V75
p232
tp233
a(V$a
p234
V2.5
p235
tp236
aV2015-10-31 19:50:09
p237
tp238
a(Vsqrt(1/12)
p239
V(1/12)*(0.5-(-0.5))**2
p240
(lp241
(S'R.0.1'
p242
F12.0
V12
p243
V12
p244
tp245
aVkrkelkar
p246
(lp247
(V$n
p248
V0
p249
tp250
a(V$phi
p251
V2
p252
tp253
a(V$d
p254
V2
p255
tp256
a(V$x
p257
V85
p258
tp259
a(V$a
p260
V2.66145
p261
tp262
aV2015-10-31 21:49:34
p263
tp264
a(Vsqrt(1/12)
p265
V1/12 ( .5 - (-.5) )^2
p266
(lp267
(S'R.0.1'
p268
F12.0
V12
p269
V12
p270
tp271
aVany027
p272
(lp273
(V$n
p274
V0
p275
tp276
a(V$phi
p277
V4
p278
tp279
a(V$d
p280
V2
p281
tp282
a(V$x
p283
V40
p284
tp285
a(V$a
p286
V1.82574
p287
tp288
aV2015-11-01 22:14:09
p289
tp290
a(Vsqrt(1/12)
p291
Vsqrt(.5*1/12)
p292
(lp293
(S'R.0.1'
p294
F12.0
V12
p295
V12
p296
tp297
aVdcastlem
p298
(lp299
(V$n
p300
V0
p301
tp302
a(V$phi
p303
V4
p304
tp305
a(V$d
p306
V2
p307
tp308
a(V$x
p309
V50
p310
tp311
a(V$a
p312
V2.04124
p313
tp314
aV2015-11-03 02:14:29
p315
tp316
a(g291
Vsqrt(.5*.5*1/12)
p317
(lp318
(S'R.0.1'
p319
F12.0
V12
p320
V12
p321
tp322
aVdcastlem
p323
g299
V2015-11-03 02:14:39
p324
tp325
a(Vsqrt(1/12)
p326
V(1/12)(0.5-(-0.5))^2
p327
(lp328
(S'R.0.1'
p329
F12.0
V12
p330
V12
p331
tp332
aVttimmons
p333
(lp334
(V$n
p335
V0
p336
tp337
a(V$phi
p338
V3
p339
tp340
a(V$d
p341
V2
p342
tp343
a(V$x
p344
V80
p345
tp346
a(V$a
p347
V2.58199
p348
tp349
aV2015-11-03 18:58:02
p350
tp351
a(Vsqrt(1/12)
p352
V(1/12)(1)^(1/2)
p353
(lp354
(S'R.0.1'
p355
F12.0
V12
p356
V12
p357
tp358
aVmitopete
p359
(lp360
(V$n
p361
V0
p362
tp363
a(V$phi
p364
V3
p365
tp366
a(V$d
p367
V2
p368
tp369
a(V$x
p370
V80
p371
tp372
a(V$a
p373
V2.58199
p374
tp375
aV2015-11-04 05:20:12
p376
tp377
a(g352
V(1/12)(1)^(2)
p378
(lp379
(S'R.0.1'
p380
F12.0
V12
p381
V12
p382
tp383
aVmitopete
p384
g360
V2015-11-04 05:20:22
p385
tp386
a(Vsqrt(1/12)
p387
V(100/12)^(1/2)
p388
(lp389
(S'R.0.1'
p390
F12.0
V12
p391
V12
p392
tp393
aVlywong
p394
(lp395
(V$n
p396
V0
p397
tp398
a(V$phi
p399
V3
p400
tp401
a(V$d
p402
V2
p403
tp404
a(V$x
p405
V50
p406
tp407
a(V$a
p408
V2.04124
p409
tp410
aV2015-11-04 07:35:45
p411
tp412
a(g387
V(100/12)^(1/2)
p413
(lp414
(S'R.0.1'
p415
F12.0
V12
p416
V12
p417
tp418
aVlywong
p419
g395
V2015-11-04 07:37:22
p420
tp421
a(Vsqrt(1/12)
p422
V(1/12)(1)^2
p423
(lp424
(S'R.0.1'
p425
F12.0
V12
p426
V12
p427
tp428
aVc1sorian
p429
(lp430
(V$n
p431
V0
p432
tp433
a(V$phi
p434
V5
p435
tp436
a(V$d
p437
V2
p438
tp439
a(V$x
p440
V40
p441
tp442
a(V$a
p443
V1.82574
p444
tp445
aV2015-11-05 00:55:19
p446
tp447
a(g422
V(1/12)(.5+.5)^2
p448
(lp449
(S'R.0.1'
p450
F12.0
V12
p451
V12
p452
tp453
aVc1sorian
p454
g430
V2015-11-05 00:56:00
p455
tp456
a(g422
V(1/12)(.5+.5)^2
p457
(lp458
(S'R.0.1'
p459
F12.0
V12
p460
V12
p461
tp462
aVc1sorian
p463
g430
V2015-11-05 00:56:32
p464
tp465
a(Vsqrt(1/12)
p466
Vsqrt(85/12)
p467
(lp468
(S'R.0.1'
p469
F12.0
V12
p470
V12
p471
tp472
aVkquong
p473
(lp474
(V$n
p475
V0
p476
tp477
a(V$phi
p478
V2
p479
tp480
a(V$d
p481
V2
p482
tp483
a(V$x
p484
V85
p485
tp486
a(V$a
p487
V2.66145
p488
tp489
aV2015-11-05 03:25:14
p490
tp491
a(Vsqrt(1/12)
p492
V(90/12)^(1/2)
p493
(lp494
(S'R.0.1'
p495
F12.0
V12
p496
V12
p497
tp498
aVyeh013
p499
(lp500
(V$n
p501
V0
p502
tp503
a(V$phi
p504
V4
p505
tp506
a(V$d
p507
V2
p508
tp509
a(V$x
p510
V90
p511
tp512
a(V$a
p513
V2.73861
p514
tp515
aV2015-11-05 03:25:27
p516
tp517
a(Vsqrt(1/12)
p518
Vsqrt(55/12)
p519
(lp520
(S'R.0.1'
p521
F12.0
V12
p522
V12
p523
tp524
aVagarango
p525
(lp526
(V$n
p527
V0
p528
tp529
a(V$phi
p530
V2
p531
tp532
a(V$d
p533
V2
p534
tp535
a(V$x
p536
V55
p537
tp538
a(V$a
p539
V2.14087
p540
tp541
aV2015-11-05 03:52:59
p542
tp543
a(Vsqrt(1/12)
p544
V1/12(.5-(-.5))^2
p545
(lp546
(S'R.0.1'
p547
F12.0
V12
p548
V12
p549
tp550
aVksmurlo
p551
(lp552
(V$n
p553
V0
p554
tp555
a(V$phi
p556
V4
p557
tp558
a(V$d
p559
V2
p560
tp561
a(V$x
p562
V75
p563
tp564
a(V$a
p565
V2.5
p566
tp567
aV2015-11-05 06:55:43
p568
tp569
a(Vsqrt(1/12)
p570
Vsqrt(50/12)
p571
(lp572
(S'R.0.1'
p573
F12.0
V12
p574
V12
p575
tp576
aVd6he
p577
(lp578
(V$n
p579
V0
p580
tp581
a(V$phi
p582
V2
p583
tp584
a(V$d
p585
V2
p586
tp587
a(V$x
p588
V50
p589
tp590
a(V$a
p591
V2.04124
p592
tp593
aV2015-11-05 07:14:03
p594
tp595
a(Vsqrt(1/12)
p596
V1/12 * (.5 + .5)^2
p597
(lp598
(S'R.0.1'
p599
F12.0
V12
p600
V12
p601
tp602
aVgthorn
p603
(lp604
(V$n
p605
V0
p606
tp607
a(V$phi
p608
V2
p609
tp610
a(V$d
p611
V2
p612
tp613
a(V$x
p614
V80
p615
tp616
a(V$a
p617
V2.58199
p618
tp619
aV2015-11-05 07:14:35
p620
tp621
a(Vsqrt(1/12)
p622
V1/12(1)
p623
(lp624
(S'R.0.1'
p625
F12.0
V12
p626
V12
p627
tp628
aVgsrandha
p629
(lp630
(V$n
p631
V0
p632
tp633
a(V$phi
p634
V3
p635
tp636
a(V$d
p637
V2
p638
tp639
a(V$x
p640
V75
p641
tp642
a(V$a
p643
V2.5
p644
tp645
aV2015-11-05 09:05:33
p646
tp647
a(Vsqrt(1/12)
p648
V1/12*(.5+.5)^2
p649
(lp650
(S'R.0.1'
p651
F12.0
V12
p652
V12
p653
tp654
aVb3hwang
p655
(lp656
(V$n
p657
V0
p658
tp659
a(V$phi
p660
V5
p661
tp662
a(V$d
p663
V2
p664
tp665
a(V$x
p666
V70
p667
tp668
a(V$a
p669
V2.41523
p670
tp671
aV2015-11-05 19:44:50
p672
tp673
a(g648
V(1/12)*(.5--.5)^2
p674
(lp675
(S'R.0.1'
p676
F12.0
V12
p677
V12
p678
tp679
aVb3hwang
p680
g656
V2015-11-05 19:46:04
p681
tp682
a(Vsqrt(1/12)
p683
V(1/12)*(.5 +.5)^2
p684
(lp685
(S'R.0.1'
p686
F12.0
V12
p687
V12
p688
tp689
aVkgrozav
p690
(lp691
(V$n
p692
V0
p693
tp694
a(V$phi
p695
V2
p696
tp697
a(V$d
p698
V2
p699
tp700
a(V$x
p701
V60
p702
tp703
a(V$a
p704
V2.23607
p705
tp706
aV2015-11-05 20:52:42
p707
tp708
a(Vsqrt(1/12)
p709
V(1/12)(.5+.5)^2
p710
(lp711
(S'R.0.1'
p712
F12.0
V12
p713
V12
p714
tp715
aVaalhaida
p716
(lp717
(V$n
p718
V0
p719
tp720
a(V$phi
p721
V2
p722
tp723
a(V$d
p724
V2
p725
tp726
a(V$x
p727
V60
p728
tp729
a(V$a
p730
V2.23607
p731
tp732
aV2015-11-05 23:53:42
p733
tp734
a(Vsqrt(1/12)
p735
V1/12(.5-(-.5))^2
p736
(lp737
(S'R.0.1'
p738
F12.0
V12
p739
V12
p740
tp741
aVaordookh
p742
(lp743
(V$n
p744
V0
p745
tp746
a(V$phi
p747
V5
p748
tp749
a(V$d
p750
V2
p751
tp752
a(V$x
p753
V70
p754
tp755
a(V$a
p756
V2.41523
p757
tp758
aV2015-11-06 06:20:36
p759
tp760
a(Vsqrt(1/12)
p761
V1/12*(.5-(-.5))^2
p762
(lp763
(S'R.0.1'
p764
F12.0
V12
p765
V12
p766
tp767
aVachava
p768
(lp769
(V$n
p770
V0
p771
tp772
a(V$phi
p773
V4
p774
tp775
a(V$d
p776
V2
p777
tp778
a(V$x
p779
V55
p780
tp781
a(V$a
p782
V2.14087
p783
tp784
aV2015-11-06 08:23:32
p785
tp786
a(Vsqrt(1/12)
p787
V1/12*(.5 + .5)^2
p788
(lp789
(S'R.0.1'
p790
F12.0
V12
p791
V12
p792
tp793
aVdcrume
p794
(lp795
(V$n
p796
V0
p797
tp798
a(V$phi
p799
V3
p800
tp801
a(V$d
p802
V2
p803
tp804
a(V$x
p805
V100
p806
tp807
a(V$a
p808
V2.88675
p809
tp810
aV2015-11-06 21:13:25
p811
tp812
a(Vsqrt(1/12)
p813
V(1/12)*(.5--.5)^2
p814
(lp815
(S'R.0.1'
p816
F12.0
V12
p817
V12
p818
tp819
aVlcardoso
p820
(lp821
(V$n
p822
V0
p823
tp824
a(V$phi
p825
V5
p826
tp827
a(V$d
p828
V2
p829
tp830
a(V$x
p831
V100
p832
tp833
a(V$a
p834
V2.88675
p835
tp836
aV2015-11-06 22:16:39
p837
tp838
a(g813
V(1/12)*((.5-(-.5))^2)
p839
(lp840
(S'R.0.1'
p841
F12.0
V12
p842
V12
p843
tp844
aVlcardoso
p845
g821
V2015-11-06 22:17:45
p846
tp847
a(Vsqrt(1/12)
p848
V1/12*((.5+.5)^2)
p849
(lp850
(S'R.0.1'
p851
F12.0
V12
p852
V12
p853
tp854
aVaurodrig
p855
(lp856
(V$n
p857
V0
p858
tp859
a(V$phi
p860
V2
p861
tp862
a(V$d
p863
V2
p864
tp865
a(V$x
p866
V65
p867
tp868
a(V$a
p869
V2.32737
p870
tp871
aV2015-11-06 23:33:14
p872
tp873
a(Vsqrt(1/12)
p874
V1/12(1)
p875
(lp876
(S'R.0.1'
p877
F12.0
V12
p878
V12
p879
tp880
aVdtea
p881
(lp882
(V$n
p883
V0
p884
tp885
a(V$phi
p886
V3
p887
tp888
a(V$d
p889
V2
p890
tp891
a(V$x
p892
V95
p893
tp894
a(V$a
p895
V2.81366
p896
tp897
aV2015-11-07 00:51:38
p898
tp899
a(g874
V1/12(.5--.5)^2
p900
(lp901
(S'R.0.1'
p902
F12.0
V12
p903
V12
p904
tp905
aVdtea
p906
g882
V2015-11-07 00:51:51
p907
tp908
a(g874
V(1/12)(.5--.5)^2
p909
(lp910
(S'R.0.1'
p911
F12.0
V12
p912
V12
p913
tp914
aVdtea
p915
g882
V2015-11-07 00:52:46
p916
tp917
asg6
(lp918
(Vsqrt(1/12)
p919
V2
p920
tp921
a(Vsqrt(1/12)
p922
V0
p923
tp924
a(g922
V1
p925
tp926
a(g922
V1
p927
tp928
a(g922
V0
p929
tp930
a(g265
V0
p931
tp932
a(g291
V0
p933
tp934
a(g919
V0
p935
tp936
a(Vsqrt(1/12)
p937
V0
p938
tp939
a(Vsqrt(1/12)
p940
V0
p941
tp942
a(Vsqrt(1/12)
p943
V1
p944
tp945
a(Vsqrt(1/12)
p946
V1
p947
tp948
a(g946
V0
p949
tp950
a(Vsqrt(1/12)
p951
V1
p952
tp953
a(Vsqrt(1/12)
p954
V0
p955
tp956
a(g954
V1
p957
tp958
a(g387
V0
p959
tp960
a(g954
V50
p961
tp962
a(Vsqrt(1/12)
p963
V0
p964
tp965
a(Vsqrt(1/12)
p966
V1
p967
tp968
a(Vsqrt(1/12)
p969
V0
p970
tp971
a(Vsqrt(1/12)
p972
V0
p973
tp974
a(Vsqrt(1/12)
p975
V0
p976
tp977
a(Vsqrt(1/12)
p978
V0
p979
tp980
a(Vsqrt(1/12)
p981
V0
p982
tp983
a(Vsqrt(1/12)
p984
V0
p985
tp986
a(g466
V0
p987
tp988
a(g518
V1
p989
tp990
a(g518
V0
p991
tp992
a(Vsqrt(1/12)
p993
V0
p994
tp995
a(Vsqrt(1/12)
p996
V0
p997
tp998
a(Vsqrt(1/12)
p999
V0
p1000
tp1001
a(g999
V1
p1002
tp1003
a(g999
V0
p1004
tp1005
a(Vsqrt(1/12)
p1006
V0
p1007
tp1008
a(Vsqrt(1/12)
p1009
V0
p1010
tp1011
a(g544
V0
p1012
tp1013
a(g570
V0
p1014
tp1015
a(g622
V0
p1016
tp1017
a(Vsqrt(1/12)
p1018
V0
p1019
tp1020
a(g946
V1
p1021
tp1022
a(Vsqrt(1/12)
p1023
V1
p1024
tp1025
a(Vsqrt(1/12)
p1026
V0
p1027
tp1028
a(g648
V0
p1029
tp1030
a(Vsqrt(1/12)
p1031
V0
p1032
tp1033
a(Vsqrt(1/12)
p1034
V0
p1035
tp1036
a(Vsqrt(1/12)
p1037
V1
p1038
tp1039
a(g683
V0
p1040
tp1041
a(Vsqrt(1/12)
p1042
V0
p1043
tp1044
a(Vsqrt(1/12)
p1045
V0
p1046
tp1047
a(Vsqrt(1/12)
p1048
V0
p1049
tp1050
a(g387
V0
p1051
tp1052
a(g387
V1
p1053
tp1054
a(g1042
V1
p1055
tp1056
a(Vsqrt(1/12)
p1057
V0
p1058
tp1059
a(g1057
V1
p1060
tp1061
a(Vsqrt(1/12)
p1062
V0
p1063
tp1064
a(g1062
V1
p1065
tp1066
a(g1062
V0
p1067
tp1068
a(Vsqrt(1/12)
p1069
V0
p1070
tp1071
a(Vsqrt(1/12)
p1072
V0
p1073
tp1074
a(Vsqrt(1/12)
p1075
V1
p1076
tp1077
a(g1075
V0
p1078
tp1079
a(Vsqrt(1/12)
p1080
V1
p1081
tp1082
a(g735
V0
p1083
tp1084
a(Vsqrt(1/12)
p1085
V0
p1086
tp1087
a(Vsqrt(1/12)
p1088
V1
p1089
tp1090
a(g1088
V25
p1091
tp1092
a(Vsqrt(1/12)
p1093
V0
p1094
tp1095
a(g1093
V1
p1096
tp1097
a(g1093
V2
p1098
tp1099
a(Vsqrt(1/12)
p1100
V0
p1101
tp1102
a(Vsqrt(1/12)
p1103
V0
p1104
tp1105
a(Vsqrt(1/12)
p1106
V0
p1107
tp1108
a(Vsqrt(1/12)
p1109
V0
p1110
tp1111
a(g1034
V0
p1112
tp1113
a(Vsqrt(1/12)
p1114
V0
p1115
tp1116
a(g1114
V0
p1117
tp1118
a(Vsqrt(1/12)
p1119
V0
p1120
tp1121
a(Vsqrt(1/12)
p1122
V0
p1123
tp1124
a(Vsqrt(1/12)
p1125
V0
p1126
tp1127
a(Vsqrt(1/12)
p1128
V0
p1129
tp1130
a(Vsqrt(1/12)
p1131
V0
p1132
tp1133
a(Vsqrt(1/12)
p1134
V0
p1135
tp1136
a(Vsqrt(1/12)
p1137
V0
p1138
tp1139
a(Vsqrt(1/12)
p1140
V0
p1141
tp1142
a(g874
V0
p1143
tp1144
asS"['R.0.0']"
p1145
(lp1146
(g969
Vsqrt((1/8))
p1147
(lp1148
(S'R.0.0'
p1149
F1.0
V1
p1150
g1150
tp1151
aVj5phung
p1152
(lp1153
(V$n
p1154
V0
p1155
tp1156
a(V$phi
p1157
V3
p1158
tp1159
a(V$d
p1160
V2
p1161
tp1162
a(V$x
p1163
V80
p1164
tp1165
a(V$a
p1166
V2.58199
p1167
tp1168
aV2015-11-04 21:22:28
p1169
tp1170
a(Vsqrt(1/12)
p1171
V1/sqrt(12)*sqrt(50)
p1172
(lp1173
(S'R.0.0'
p1174
F1.0
g1150
g1150
tp1175
aVctroncos
p1176
(lp1177
(V$n
p1178
V0
p1179
tp1180
a(V$phi
p1181
V2
p1182
tp1183
a(V$d
p1184
V2
p1185
tp1186
a(V$x
p1187
V50
p1188
tp1189
a(V$a
p1190
V2.04124
p1191
tp1192
aV2015-11-05 17:18:43
p1193
tp1194
a(Vsqrt(1/12)
p1195
V(1/2)^.5
p1196
(lp1197
(S'R.0.0'
p1198
F1.0
g1150
g1150
tp1199
aVetemlock
p1200
(lp1201
(V$n
p1202
V0
p1203
tp1204
a(V$phi
p1205
V3
p1206
tp1207
a(V$d
p1208
V2
p1209
tp1210
a(V$x
p1211
V65
p1212
tp1213
a(V$a
p1214
V2.32737
p1215
tp1216
aV2015-11-06 00:46:52
p1217
tp1218
a(Vsqrt(1/12)
p1219
V1/sqrt(12)*sqrt(80)
p1220
(lp1221
(S'R.0.0'
p1222
F1.0
g1150
g1150
tp1223
aVs2chaudh
p1224
(lp1225
(V$n
p1226
V0
p1227
tp1228
a(V$phi
p1229
V3
p1230
tp1231
a(V$d
p1232
V2
p1233
tp1234
a(V$x
p1235
V80
p1236
tp1237
a(V$a
p1238
V2.58199
p1239
tp1240
aV2015-11-06 06:42:11
p1241
tp1242
asS'Wrong_Sign'
p1243
(lp1244
(g999
V-.5
p1245
tp1246
a(Vsqrt(1/12)
p1247
V-1/12
p1248
tp1249
a(g1034
V-1/sqrt(12)
p1250
tp1251
a(g1114
V-1/12
p1252
tp1253
asS"['R.0']"
p1254
(lp1255
(Vsqrt(1/12)
p1256
V(1/12)^2
p1257
(lp1258
(S'R.0'
p1259
F0.08333333333333333
V1/12
p1260
V1/12
p1261
tp1262
aVbeerye28
p1263
(lp1264
(V$n
p1265
V0
p1266
tp1267
a(V$phi
p1268
V4
p1269
tp1270
a(V$d
p1271
V2
p1272
tp1273
a(V$x
p1274
V85
p1275
tp1276
a(V$a
p1277
V2.66145
p1278
tp1279
aV2015-11-03 06:40:10
p1280
tp1281
a(g352
V((1/12)(1)^(2))^1/2
p1282
(lp1283
(S'R.0'
p1284
F0.08333333333333333
V1/12
p1285
V((1/12)(1)^(2))^1
p1286
tp1287
aVmitopete
p1288
g360
V2015-11-04 05:20:39
p1289
tp1290
a(Vsqrt(1/12)
p1291
V(1/12)^2
p1292
(lp1293
(S'R.0'
p1294
F0.08333333333333333
V1/12
p1295
V1/12
p1296
tp1297
aVdsmonaha
p1298
(lp1299
(V$n
p1300
V0
p1301
tp1302
a(V$phi
p1303
V5
p1304
tp1305
a(V$d
p1306
V2
p1307
tp1308
a(V$x
p1309
V75
p1310
tp1311
a(V$a
p1312
V2.5
p1313
tp1314
aV2015-11-04 16:46:52
p1315
tp1316
a(Vsqrt(1/12)
p1317
V(1/12)(75)^2
p1318
(lp1319
(S'R.0'
p1320
F0.08333333333333333
V1/12
p1321
V1/12
p1322
tp1323
aVjblynch
p1324
(lp1325
(V$n
p1326
V0
p1327
tp1328
a(V$phi
p1329
V5
p1330
tp1331
a(V$d
p1332
V2
p1333
tp1334
a(V$x
p1335
V75
p1336
tp1337
a(V$a
p1338
V2.5
p1339
tp1340
aV2015-11-04 21:09:31
p1341
tp1342
a(g422
V((1/12)(.5+.5))^2
p1343
(lp1344
(S'R.0'
p1345
F0.08333333333333333
V1/12
p1346
V(1/12)(.5+.5)
p1347
tp1348
aVc1sorian
p1349
g430
V2015-11-05 00:56:16
p1350
tp1351
a(g518
V(1/12)*55
p1352
(lp1353
(S'R.0'
p1354
F0.08333333333333333
V1/12
p1355
V1/12
p1356
tp1357
aVagarango
p1358
g526
V2015-11-05 03:25:12
p1359
tp1360
a(Vsqrt(1/12)
p1361
V1/12 (-.5-.5)^2
p1362
(lp1363
(S'R.0'
p1364
F0.08333333333333333
V1/12
p1365
V1/12
p1366
tp1367
aVstarinia
p1368
(lp1369
(V$n
p1370
V0
p1371
tp1372
a(V$phi
p1373
V4
p1374
tp1375
a(V$d
p1376
V2
p1377
tp1378
a(V$x
p1379
V90
p1380
tp1381
a(V$a
p1382
V2.73861
p1383
tp1384
aV2015-11-05 03:37:59
p1385
tp1386
a(g648
V1/12*(.5--5)^2
p1387
(lp1388
(S'R.0'
p1389
F0.08333333333333333
V1/12
p1390
V1/12
p1391
tp1392
aVb3hwang
p1393
g656
V2015-11-05 19:45:14
p1394
tp1395
a(g648
V(1/12)^1/2
p1396
(lp1397
(S'R.0'
p1398
F0.08333333333333333
V1/12
p1399
V(1/12)^1
p1400
tp1401
aVb3hwang
p1402
g656
V2015-11-05 19:48:02
p1403
tp1404
a(Vsqrt(1/12)
p1405
V1/12(-0.5-0.5)^2
p1406
(lp1407
(S'R.0'
p1408
F0.08333333333333333
V1/12
p1409
V1/12
p1410
tp1411
aVacs008
p1412
(lp1413
(V$n
p1414
V0
p1415
tp1416
a(V$phi
p1417
V4
p1418
tp1419
a(V$d
p1420
V2
p1421
tp1422
a(V$x
p1423
V95
p1424
tp1425
a(V$a
p1426
V2.81366
p1427
tp1428
aV2015-11-05 21:49:53
p1429
tp1430
a(g709
V(1/12)^2
p1431
(lp1432
(S'R.0'
p1433
F0.08333333333333333
V1/12
p1434
V1/12
p1435
tp1436
aVaalhaida
p1437
g717
V2015-11-05 23:52:07
p1438
tp1439
a(g709
V((1/12)(.5+.5)^2)^2
p1440
(lp1441
(S'R.0'
p1442
F0.08333333333333333
V1/12
p1443
V(1/12)(.5+.5)^2
p1444
tp1445
aVaalhaida
p1446
g717
V2015-11-05 23:54:10
p1447
tp1448
a(Vsqrt(1/12)
p1449
V([(.5--.5)^2]/12)^2
p1450
(lp1451
(S'R.0'
p1452
F0.08333333333333333
V1/12
p1453
V[(.5--.5)^2]/12
p1454
tp1455
aVv4zhang
p1456
(lp1457
(V$n
p1458
V0
p1459
tp1460
a(V$phi
p1461
V3
p1462
tp1463
a(V$d
p1464
V2
p1465
tp1466
a(V$x
p1467
V90
p1468
tp1469
a(V$a
p1470
V2.73861
p1471
tp1472
aV2015-11-06 07:33:52
p1473
tp1474
a(g1449
V(1/12)^2
p1475
(lp1476
(S'R.0'
p1477
F0.08333333333333333
V1/12
p1478
V1/12
p1479
tp1480
aVv4zhang
p1481
g1457
V2015-11-06 07:34:24
p1482
tp1483
a(g1088
V1/12(.5)^2
p1484
(lp1485
(S'R.0'
p1486
F0.08333333333333333
V1/12
p1487
V1/12
p1488
tp1489
aVbtn023
p1490
(lp1491
(V$n
p1492
V0
p1493
tp1494
a(V$phi
p1495
V5
p1496
tp1497
a(V$d
p1498
V2
p1499
tp1500
a(V$x
p1501
V75
p1502
tp1503
a(V$a
p1504
V2.5
p1505
tp1506
aV2015-11-06 11:30:01
p1507
tp1508
a(g1088
V1/12(.5)^2*2
p1509
(lp1510
(S'R.0'
p1511
F0.08333333333333333
V1/12
p1512
V1/12
p1513
tp1514
aVbtn023
p1515
g1491
V2015-11-06 11:30:13
p1516
tp1517
a(g1093
V.08333333333333333333330.288675135
p1518
(lp1519
(S'R.0'
p1520
F0.08333333333333333
V1/12
p1521
V.08333333333333
p1522
tp1523
aVtstevens
p1524
(lp1525
(V$n
p1526
V0
p1527
tp1528
a(V$phi
p1529
V2
p1530
tp1531
a(V$d
p1532
V2
p1533
tp1534
a(V$x
p1535
V95
p1536
tp1537
a(V$a
p1538
V2.81366
p1539
tp1540
aV2015-11-06 12:13:10
p1541
tp1542
a(g848
V1/12*((.5-.5)^2)
p1543
(lp1544
(S'R.0'
p1545
F0.08333333333333333
V1/12
p1546
V1/12
p1547
tp1548
aVaurodrig
p1549
g856
V2015-11-06 23:33:32
p1550
tp1551
a(Vsqrt(1/12)
p1552
V(1/12)^2
p1553
(lp1554
(S'R.0'
p1555
F0.08333333333333333
V1/12
p1556
V1/12
p1557
tp1558
aVdando
p1559
(lp1560
(V$n
p1561
V0
p1562
tp1563
a(V$phi
p1564
V4
p1565
tp1566
a(V$d
p1567
V2
p1568
tp1569
a(V$x
p1570
V80
p1571
tp1572
a(V$a
p1573
V2.58199
p1574
tp1575
aV2015-11-06 23:47:21
p1576
tp1577
a(Vsqrt(1/12)
p1578
V(1/12)^2
p1579
(lp1580
(S'R.0'
p1581
F0.08333333333333333
V1/12
p1582
V1/12
p1583
tp1584
aVh4tu
p1585
(lp1586
(V$n
p1587
V0
p1588
tp1589
a(V$phi
p1590
V2
p1591
tp1592
a(V$d
p1593
V2
p1594
tp1595
a(V$x
p1596
V75
p1597
tp1598
a(V$a
p1599
V2.5
p1600
tp1601
aV2015-11-06 23:49:07
p1602
tp1603
assV5
p1604
g2
(g3
tp1605
Rp1606
g6
(lp1607
(V(3-0)/2.04124145231932
p1608
V3
p1609
tp1610
a(V(3-0)/2.5
p1611
V0
p1612
tp1613
a(V(4-0)/2.14087209644419
p1614
V0
p1615
tp1616
a(g1614
V1
p1617
tp1618
a(V(3-0)/2.04124145231932
p1619
V0
p1620
tp1621
a(g1619
V1
p1622
tp1623
a(V(2-0)/2.41522945769824
p1624
V0
p1625
tp1626
a(V(3-0)/2.81365716935569
p1627
V1
p1628
tp1629
a(V(2-0)/2.66145323711189
p1630
V0
p1631
tp1632
a(g1630
V1
p1633
tp1634
a(V(5-0)/2.81365716935569
p1635
V0
p1636
tp1637
a(g1630
V2
p1638
tp1639
a(V(4-0)/2.73861278752583
p1640
V4
p1641
tp1642
a(g1640
V94
p1643
tp1644
a(g1640
V86
p1645
tp1646
a(V(2-0)/2.04124145231932
p1647
V0
p1648
tp1649
a(V(3-0)/2.5
p1650
V0
p1651
tp1652
a(V(3-0)/2.73861278752583
p1653
V0
p1654
tp1655
a(V(4-0)/2.23606797749979
p1656
V0
p1657
tp1658
a(V(3-0)/2.32737334062816
p1659
V0
p1660
tp1661
a(V(4-0)/2.58198889747161
p1662
V4
p1663
tp1664
a(V(5-0)/2.32737334062816
p1665
V0
p1666
tp1667
a(V(3-0)/2.66145323711189
p1668
V2
p1669
tp1670
a(g1668
V3
p1671
tp1672
a(g1668
V1
p1673
tp1674
a(V(3-0)/1.82574185835055
p1675
V3
p1676
tp1677
a(V(3-0)/2.81365716935569
p1678
V6
p1679
tp1680
a(V(4-0)/2.41522945769824
p1681
V4
p1682
tp1683
a(V(5-0)/1.93649167310371
p1684
V0
p1685
tp1686
a(g1684
V5
p1687
tp1688
a(g1684
V1
p1689
tp1690
asS"['R.0.0']"
p1691
(lp1692
(V(4-0)/1.93649167310371
p1693
V4/1/sqrt(12)*sqrt(40)
p1694
(lp1695
(S'R.0.0'
p1696
F4.0
V4
p1697
V4/1
p1698
tp1699
aVaggouw
p1700
(lp1701
(V$n
p1702
V0
p1703
tp1704
a(V$phi
p1705
V4
p1706
tp1707
a(V$d
p1708
V2
p1709
tp1710
a(V$x
p1711
V45
p1712
tp1713
a(V$a
p1714
V1.93649
p1715
tp1716
aV2015-11-04 09:13:08
p1717
tp1718
a(V(4-0)/2.23606797749979
p1719
V4/1/sqrt(12)*sqrt(60)
p1720
(lp1721
(S'R.0.0'
p1722
F4.0
g1697
V4/1
p1723
tp1724
aVagoldsht
p1725
(lp1726
(V$n
p1727
V0
p1728
tp1729
a(V$phi
p1730
V4
p1731
tp1732
a(V$d
p1733
V2
p1734
tp1735
a(V$x
p1736
V60
p1737
tp1738
a(V$a
p1739
V2.23607
p1740
tp1741
aV2015-11-04 20:35:43
p1742
tp1743
a(V(3-0)/2.58198889747161
p1744
VQ(3/80)
p1745
(lp1746
(S'R.0.0'
p1747
F3.0
V3
p1748
g1748
tp1749
aVavasavad
p1750
(lp1751
(V$n
p1752
V0
p1753
tp1754
a(V$phi
p1755
V3
p1756
tp1757
a(V$d
p1758
V2
p1759
tp1760
a(V$x
p1761
V80
p1762
tp1763
a(V$a
p1764
V2.58199
p1765
tp1766
aV2015-11-04 23:31:57
p1767
tp1768
a(V(2-0)/2.04124145231932
p1769
Vsqrt(2)/sqrt(5)
p1770
(lp1771
(S'R.0.0'
p1772
F2.0
V2
p1773
g1773
tp1774
aVkrau
p1775
(lp1776
(V$n
p1777
V0
p1778
tp1779
a(V$phi
p1780
V2
p1781
tp1782
a(V$d
p1783
V2
p1784
tp1785
a(V$x
p1786
V50
p1787
tp1788
a(V$a
p1789
V2.04124
p1790
tp1791
aV2015-11-05 03:33:53
p1792
tp1793
a(V(4-0)/1.93649167310371
p1794
V4/sqrt(1/2)*sqrt(50)
p1795
(lp1796
(S'R.0.0'
p1797
F4.0
g1697
g1697
tp1798
aVnhn018
p1799
(lp1800
(V$n
p1801
V0
p1802
tp1803
a(V$phi
p1804
V4
p1805
tp1806
a(V$d
p1807
V2
p1808
tp1809
a(V$x
p1810
V45
p1811
tp1812
a(V$a
p1813
V1.93649
p1814
tp1815
aV2015-11-05 06:00:59
p1816
tp1817
a(g1794
V4/sqrt(12)*sqrt(50)
p1818
(lp1819
(S'R.0.0'
p1820
F4.0
g1697
g1697
tp1821
aVnhn018
p1822
g1800
V2015-11-05 06:01:43
p1823
tp1824
a(g1794
V4/sqrt(12)*sqrt(45)
p1825
(lp1826
(S'R.0.0'
p1827
F4.0
g1697
g1697
tp1828
aVnhn018
p1829
g1800
V2015-11-05 06:03:27
p1830
tp1831
a(V(3-0)/2.5
p1832
V(3-2.5)/(sqrt(sqrt((1/12)(0.5 + 0.5)(75))))
p1833
(lp1834
(S'R.0.0'
p1835
F3.0
g1748
g1748
tp1836
aVklala
p1837
(lp1838
(V$n
p1839
V0
p1840
tp1841
a(V$phi
p1842
V3
p1843
tp1844
a(V$d
p1845
V2
p1846
tp1847
a(V$x
p1848
V75
p1849
tp1850
a(V$a
p1851
V2.5
p1852
tp1853
aV2015-11-05 06:51:12
p1854
tp1855
a(V(4-0)/2.66145323711189
p1856
V4/85*sqrt(1/12)
p1857
(lp1858
(S'R.0.0'
p1859
F4.0
g1697
g1697
tp1860
aVasetters
p1861
(lp1862
(V$n
p1863
V0
p1864
tp1865
a(V$phi
p1866
V4
p1867
tp1868
a(V$d
p1869
V2
p1870
tp1871
a(V$x
p1872
V85
p1873
tp1874
a(V$a
p1875
V2.66145
p1876
tp1877
aV2015-11-05 20:26:17
p1878
tp1879
a(V(4-0)/2.32737334062816
p1880
V(4-0)/1/sqrt(12)*sqrt(65)
p1881
(lp1882
(S'R.0.0'
p1883
F4.0
g1697
V(4-0)/1
p1884
tp1885
aVtak068
p1886
(lp1887
(V$n
p1888
V0
p1889
tp1890
a(V$phi
p1891
V4
p1892
tp1893
a(V$d
p1894
V2
p1895
tp1896
a(V$x
p1897
V65
p1898
tp1899
a(V$a
p1900
V2.32737
p1901
tp1902
aV2015-11-05 21:17:43
p1903
tp1904
a(V(2-0)/2.88675134594813
p1905
V2/1/sqrt(12)*sqrt(100)
p1906
(lp1907
(S'R.0.0'
p1908
F2.0
g1773
V2/1
p1909
tp1910
aVm4bui
p1911
(lp1912
(V$n
p1913
V0
p1914
tp1915
a(V$phi
p1916
V2
p1917
tp1918
a(V$d
p1919
V2
p1920
tp1921
a(V$x
p1922
V100
p1923
tp1924
a(V$a
p1925
V2.88675
p1926
tp1927
aV2015-11-06 04:28:16
p1928
tp1929
a(g1659
V3/8.0622578*0.288675
p1930
(lp1931
(S'R.0.0'
p1932
F3.0
g1748
g1748
tp1933
aVyig015
p1934
(lp1935
(V$n
p1936
V0
p1937
tp1938
a(V$phi
p1939
V3
p1940
tp1941
a(V$d
p1942
V2
p1943
tp1944
a(V$x
p1945
V65
p1946
tp1947
a(V$a
p1948
V2.32737
p1949
tp1950
aV2015-11-06 12:53:09
p1951
tp1952
a(g1678
Vsqrt(3/2.81366)
p1953
(lp1954
(S'R.0.0'
p1955
F3.0
g1748
g1748
tp1956
aVc3chung
p1957
(lp1958
(V$n
p1959
V0
p1960
tp1961
a(V$phi
p1962
V3
p1963
tp1964
a(V$d
p1965
V2
p1966
tp1967
a(V$x
p1968
V95
p1969
tp1970
a(V$a
p1971
V2.81366
p1972
tp1973
aV2015-11-06 22:33:48
p1974
tp1975
a(V(5-0)/2.66145323711189
p1976
Vsqrt(5/12)
p1977
(lp1978
(S'R.0.0'
p1979
F5.0
V5
p1980
g1980
tp1981
aVrraiyyan
p1982
(lp1983
(V$n
p1984
V0
p1985
tp1986
a(V$phi
p1987
V5
p1988
tp1989
a(V$d
p1990
V2
p1991
tp1992
a(V$x
p1993
V85
p1994
tp1995
a(V$a
p1996
V2.66145
p1997
tp1998
aV2015-11-07 00:13:12
p1999
tp2000
asS"['R.1']"
p2001
(lp2002
(V(5-0)/2.23606797749979
p2003
V5-sqrt(60*(1/12))
p2004
(lp2005
(S'R.1'
p2006
F2.23606797749979
V2.2360679774
p2007
Vsqrt(60*(1/12))
p2008
tp2009
aVk5law
p2010
(lp2011
(V$n
p2012
V0
p2013
tp2014
a(V$phi
p2015
V5
p2016
tp2017
a(V$d
p2018
V2
p2019
tp2020
a(V$x
p2021
V60
p2022
tp2023
a(V$a
p2024
V2.23607
p2025
tp2026
aV2015-11-04 08:38:34
p2027
tp2028
a(V(4-0)/2.04124145231932
p2029
V4*(1/sqrt(12)*sqrt(50))
p2030
(lp2031
(S'R.1'
p2032
F2.04124145231932
V2.04124145231
p2033
V1/sqrt(12)*sqrt(50)
p2034
tp2035
aVm4salaza
p2036
(lp2037
(V$n
p2038
V0
p2039
tp2040
a(V$phi
p2041
V4
p2042
tp2043
a(V$d
p2044
V2
p2045
tp2046
a(V$x
p2047
V50
p2048
tp2049
a(V$a
p2050
V2.04124
p2051
tp2052
aV2015-11-05 05:43:48
p2053
tp2054
a(V(5-0)/1.82574185835055
p2055
V2*5/sqrt(40*1/12(0.5+0.5)^2)
p2056
(lp2057
(S'R.1'
p2058
F1.82574185835055
V1.82574185835
p2059
Vsqrt(40*1/12(0.5+0.5)^2)
p2060
tp2061
aVtpmach
p2062
(lp2063
(V$n
p2064
V0
p2065
tp2066
a(V$phi
p2067
V5
p2068
tp2069
a(V$d
p2070
V2
p2071
tp2072
a(V$x
p2073
V40
p2074
tp2075
a(V$a
p2076
V1.82574
p2077
tp2078
aV2015-11-05 17:17:55
p2079
tp2080
a(V(2-0)/2.32737334062816
p2081
V.5/sqrt((1/12)*65)
p2082
(lp2083
(S'R.1'
p2084
F2.32737334062816
V2.32737334062
p2085
Vsqrt((1/12)*65)
p2086
tp2087
aVmtrafeca
p2088
(lp2089
(V$n
p2090
V0
p2091
tp2092
a(V$phi
p2093
V2
p2094
tp2095
a(V$d
p2096
V2
p2097
tp2098
a(V$x
p2099
V65
p2100
tp2101
a(V$a
p2102
V2.32737
p2103
tp2104
aV2015-11-05 21:32:14
p2105
tp2106
a(g2081
V65/sqrt((1/12)*65)
p2107
(lp2108
(S'R.1'
p2109
F2.32737334062816
V2.32737334062
p2110
Vsqrt((1/12)*65)
p2111
tp2112
aVmtrafeca
p2113
g2089
V2015-11-05 21:32:23
p2114
tp2115
a(g2081
V1/sqrt((1/12)*65)
p2116
(lp2117
(S'R.1'
p2118
F2.32737334062816
V2.32737334062
p2119
Vsqrt((1/12)*65)
p2120
tp2121
aVmtrafeca
p2122
g2089
V2015-11-05 21:32:40
p2123
tp2124
a(V(4-0)/2.81365716935569
p2125
V95/sqrt(1/12*95)
p2126
(lp2127
(S'R.1'
p2128
F2.81365716935569
V2.81365716935
p2129
Vsqrt(1/12*95)
p2130
tp2131
aVacs008
p2132
g1413
V2015-11-05 21:53:21
p2133
tp2134
a(V(5-0)/1.82574185835055
p2135
V2/sqrt(40/12)
p2136
(lp2137
(S'R.1'
p2138
F1.82574185835055
V1.82574185835
p2139
Vsqrt(40/12)
p2140
tp2141
aVytc012
p2142
(lp2143
(V$n
p2144
V0
p2145
tp2146
a(V$phi
p2147
V5
p2148
tp2149
a(V$d
p2150
V2
p2151
tp2152
a(V$x
p2153
V40
p2154
tp2155
a(V$a
p2156
V1.82574
p2157
tp2158
aV2015-11-05 22:07:24
p2159
tp2160
a(V(3-0)/2.04124145231932
p2161
V(50)/(sqrt(50(1/12)))
p2162
(lp2163
(S'R.1'
p2164
F2.04124145231932
V2.04124145231
p2165
Vsqrt(50(1/12))
p2166
tp2167
aVlywong
p2168
g395
V2015-11-06 00:05:39
p2169
tp2170
a(V(4-0)/2.14087209644419
p2171
V55/sqrt(55/12)
p2172
(lp2173
(S'R.1'
p2174
F2.14087209644419
V2.14087209644
p2175
Vsqrt(55/12)
p2176
tp2177
aVachava
p2178
g769
V2015-11-06 08:32:10
p2179
tp2180
a(V(4-0)/2.04124145231932
p2181
V3/((sqrt((1/12)*50)))
p2182
(lp2183
(S'R.1'
p2184
F2.04124145231932
V2.04124145231
p2185
Vsqrt((1/12)*50)
p2186
tp2187
aVdcastlem
p2188
g299
V2015-11-06 19:57:19
p2189
tp2190
a(V(3-0)/2.66145323711189
p2191
V(85-3)/[85(.5+.5)^2/12]^(1/2)
p2192
(lp2193
(S'R.1'
p2194
F2.66145323711189
V2.66145323711
p2195
V[85(.5+.5)^2/12]^(1/2)
p2196
tp2197
aVasp025
p2198
(lp2199
(V$n
p2200
V0
p2201
tp2202
a(V$phi
p2203
V3
p2204
tp2205
a(V$d
p2206
V2
p2207
tp2208
a(V$x
p2209
V85
p2210
tp2211
a(V$a
p2212
V2.66145
p2213
tp2214
aV2015-11-06 23:37:31
p2215
tp2216
a(g2191
V(85-0)/[85(.5+.5)^2/12]^(1/2)
p2217
(lp2218
(S'R.1'
p2219
F2.66145323711189
V2.66145323711
p2220
V[85(.5+.5)^2/12]^(1/2)
p2221
tp2222
aVasp025
p2223
g2199
V2015-11-06 23:40:29
p2224
tp2225
a(V(4-0)/2.32737334062816
p2226
V3/(sqrt(65)/sqrt(12))
p2227
(lp2228
(S'R.1'
p2229
F2.32737334062816
V2.32737334062
p2230
Vsqrt(65)/sqrt(12)
p2231
tp2232
aVagian
p2233
(lp2234
(V$n
p2235
V0
p2236
tp2237
a(V$phi
p2238
V4
p2239
tp2240
a(V$d
p2241
V2
p2242
tp2243
a(V$x
p2244
V65
p2245
tp2246
a(V$a
p2247
V2.32737
p2248
tp2249
aV2015-11-07 00:35:51
p2250
tp2251
a(V(2-0)/2.66145323711189
p2252
V85 / sqrt(85/12)
p2253
(lp2254
(S'R.1'
p2255
F2.66145323711189
V2.66145323711
p2256
Vsqrt(85/12)
p2257
tp2258
aVv3doan
p2259
(lp2260
(V$n
p2261
V0
p2262
tp2263
a(V$phi
p2264
V2
p2265
tp2266
a(V$d
p2267
V2
p2268
tp2269
a(V$x
p2270
V85
p2271
tp2272
a(V$a
p2273
V2.66145
p2274
tp2275
aV2015-11-07 00:56:23
p2276
tp2277
asS"['R.0.0', 'R.1']"
p2278
(lp2279
(g1832
V(3-2.5)/(sqrt((1/12)(0.5 + 0.5)(75)))
p2280
(lp2281
(S'R.0.0'
p2282
F3.0
g1748
g1748
tp2283
a(S'R.1'
p2284
F2.5
V2.5
p2285
Vsqrt((1/12)(0.5 + 0.5)(75))
p2286
tp2287
aVklala
p2288
g1838
V2015-11-05 06:51:28
p2289
tp2290
asg1243
(lp2291
(V(3-0)/2.73861278752583
p2292
V(-3)/(90*(1/12))^(.5)
p2293
tp2294
a(g1640
V-4
p2295
tp2296
a(g1856
V-4/(sqrt(1/12))
p2297
tp2298
a(V(4-0)/2.04124145231932
p2299
V-2.04124/ 4
p2300
tp2301
a(V(3-0)/1.93649167310371
p2302
V(3-0.5*45)/[[(1/12)*45]^(1/2)]
p2303
tp2304
asS"['R']"
p2305
(lp2306
(V(4-0)/2.23606797749979
p2307
V4/sqrt(1/12)sqrt(60)
p2308
(lp2309
(S'R'
p2310
F1.7888543819998317
V(4-0)/2.2360679774
p2311
g2308
tp2312
aVt2li
p2313
(lp2314
(V$n
p2315
V0
p2316
tp2317
a(V$phi
p2318
V4
p2319
tp2320
a(V$d
p2321
V2
p2322
tp2323
a(V$x
p2324
V60
p2325
tp2326
a(V$a
p2327
V2.23607
p2328
tp2329
aV2015-11-06 03:19:23
p2330
tp2331
assV4
p2332
g2
(g3
tp2333
Rp2334
g6
(lp2335
(V1/sqrt(12)*sqrt(50)
p2336
V25
p2337
tp2338
a(V1/sqrt(12)*sqrt(50)
p2339
V0
p2340
tp2341
a(V1/sqrt(12)*sqrt(45)
p2342
V0
p2343
tp2344
a(V1/sqrt(12)*sqrt(80)
p2345
V0
p2346
tp2347
a(V1/sqrt(12)*sqrt(55)
p2348
V0
p2349
tp2350
a(V1/sqrt(12)*sqrt(100)
p2351
V0
p2352
tp2353
a(V1/sqrt(12)*sqrt(50)
p2354
V0
p2355
tp2356
a(g2354
V1
p2357
tp2358
a(V1/sqrt(12)*sqrt(70)
p2359
V0
p2360
tp2361
a(V1/sqrt(12)*sqrt(50)
p2362
V0
p2363
tp2364
a(V1/sqrt(12)*sqrt(60)
p2365
V0
p2366
tp2367
a(V1/sqrt(12)*sqrt(95)
p2368
V0
p2369
tp2370
a(V1/sqrt(12)*sqrt(80)
p2371
V0
p2372
tp2373
a(V1/sqrt(12)*sqrt(60)
p2374
V0
p2375
tp2376
a(V1/sqrt(12)*sqrt(65)
p2377
V0
p2378
tp2379
a(V1/sqrt(12)*sqrt(60)
p2380
V1
p2381
tp2382
a(V1/sqrt(12)*sqrt(90)
p2383
V0
p2384
tp2385
a(V1/sqrt(12)*sqrt(40)
p2386
V0
p2387
tp2388
a(V1/sqrt(12)*sqrt(75)
p2389
V0
p2390
tp2391
a(g2389
V1
p2392
tp2393
a(g2389
V1
p2394
tp2395
a(V1/sqrt(12)*sqrt(100)
p2396
V0
p2397
tp2398
a(V1/sqrt(12)*sqrt(85)
p2399
V0
p2400
tp2401
a(g2396
V1
p2402
tp2403
a(g2336
V1
p2404
tp2405
a(V1/sqrt(12)*sqrt(75)
p2406
V1
p2407
tp2408
a(V1/sqrt(12)*sqrt(95)
p2409
V0
p2410
tp2411
a(g2409
V1
p2412
tp2413
a(g2409
V0
p2414
tp2415
a(V1/sqrt(12)*sqrt(95)
p2416
V0
p2417
tp2418
a(g2416
V1
p2419
tp2420
a(V1/sqrt(12)*sqrt(80)
p2421
V0
p2422
tp2423
a(V1/sqrt(12)*sqrt(90)
p2424
V0
p2425
tp2426
a(V1/sqrt(12)*sqrt(75)
p2427
V0
p2428
tp2429
a(V1/sqrt(12)*sqrt(90)
p2430
V0
p2431
tp2432
a(V1/sqrt(12)*sqrt(80)
p2433
V1
p2434
tp2435
a(g2433
V80
p2436
tp2437
a(g2433
V0
p2438
tp2439
a(V1/sqrt(12)*sqrt(85)
p2440
V0
p2441
tp2442
a(g2440
V0
p2443
tp2444
a(V1/sqrt(12)*sqrt(65)
p2445
V1
p2446
tp2447
a(V1/sqrt(12)*sqrt(65)
p2448
V0
p2449
tp2450
a(V1/sqrt(12)*sqrt(95)
p2451
V0
p2452
tp2453
a(g2427
V1
p2454
tp2455
a(g2427
V2
p2456
tp2457
a(g2451
V3
p2458
tp2459
a(g2362
V1
p2460
tp2461
a(g2445
V0
p2462
tp2463
a(g2445
V1
p2464
tp2465
a(V1/sqrt(12)*sqrt(65)
p2466
V0
p2467
tp2468
a(V1/sqrt(12)*sqrt(65)
p2469
V1
p2470
tp2471
a(V1/sqrt(12)*sqrt(65)
p2472
V1
p2473
tp2474
a(V1/sqrt(12)*sqrt(55)
p2475
V0
p2476
tp2477
a(g2475
V1
p2478
tp2479
a(V1/sqrt(12)*sqrt(70)
p2480
V0
p2481
tp2482
a(V1/sqrt(12)*sqrt(85)
p2483
V0
p2484
tp2485
a(V1/sqrt(12)*sqrt(40)
p2486
V0
p2487
tp2488
a(g2486
V0
p2489
tp2490
a(V1/sqrt(12)*sqrt(80)
p2491
V0
p2492
tp2493
a(V1/sqrt(12)*sqrt(70)
p2494
V0
p2495
tp2496
a(V1/sqrt(12)*sqrt(80)
p2497
V0
p2498
tp2499
a(V1/sqrt(12)*sqrt(100)
p2500
V0
p2501
tp2502
a(V1/sqrt(12)*sqrt(80)
p2503
V1
p2504
tp2505
a(g2503
V0
p2506
tp2507
a(V1/sqrt(12)*sqrt(85)
p2508
V0
p2509
tp2510
a(g2508
V85
p2511
tp2512
a(V1/sqrt(12)*sqrt(90)
p2513
V0
p2514
tp2515
a(V1/sqrt(12)*sqrt(75)
p2516
V0
p2517
tp2518
a(V1/sqrt(12)*sqrt(45)
p2519
V0
p2520
tp2521
a(g2516
V1
p2522
tp2523
asS"['R.0.0']"
p2524
(lp2525
(V1/sqrt(12)*sqrt(100)
p2526
V(1/12) ^ 50
p2527
(lp2528
(S'R.0.0'
p2529
F1.0
g1150
g1150
tp2530
aVbeyounge
p2531
(lp2532
(V$n
p2533
V0
p2534
tp2535
a(V$phi
p2536
V4
p2537
tp2538
a(V$d
p2539
V2
p2540
tp2541
a(V$x
p2542
V100
p2543
tp2544
a(V$a
p2545
V2.88675
p2546
tp2547
aV2015-10-30 06:16:27
p2548
tp2549
a(g2526
Vsqrt(1/12)
p2550
(lp2551
(S'R.0.0'
p2552
F1.0
g1150
g1150
tp2553
aVbeyounge
p2554
g2532
V2015-10-30 06:18:23
p2555
tp2556
a(V1/sqrt(12)*sqrt(65)
p2557
V(1/3)^(1/2)
p2558
(lp2559
(S'R.0.0'
p2560
F1.0
g1150
g1150
tp2561
aVr9jiang
p2562
(lp2563
(V$n
p2564
V0
p2565
tp2566
a(V$phi
p2567
V3
p2568
tp2569
a(V$d
p2570
V2
p2571
tp2572
a(V$x
p2573
V65
p2574
tp2575
a(V$a
p2576
V2.32737
p2577
tp2578
aV2015-11-02 03:50:08
p2579
tp2580
a(V1/sqrt(12)*sqrt(60)
p2581
V(1/12)^0.5
p2582
(lp2583
(S'R.0.0'
p2584
F1.0
g1150
g1150
tp2585
aVz2tan
p2586
(lp2587
(V$n
p2588
V0
p2589
tp2590
a(V$phi
p2591
V5
p2592
tp2593
a(V$d
p2594
V2
p2595
tp2596
a(V$x
p2597
V60
p2598
tp2599
a(V$a
p2600
V2.23607
p2601
tp2602
aV2015-11-02 06:14:57
p2603
tp2604
a(g2339
Vsqrt(1/12)
p2605
(lp2606
(S'R.0.0'
p2607
F1.0
g1150
g1150
tp2608
aVdcastlem
p2609
g299
V2015-11-03 02:15:14
p2610
tp2611
a(g2339
Vsqrt(1/12)
p2612
(lp2613
(S'R.0.0'
p2614
F1.0
g1150
g1150
tp2615
aVdcastlem
p2616
g299
V2015-11-03 02:17:42
p2617
tp2618
a(V1/sqrt(12)*sqrt(80)
p2619
V(1/12)^(1/2)
p2620
(lp2621
(S'R.0.0'
p2622
F1.0
g1150
g1150
tp2623
aVlguintu
p2624
(lp2625
(V$n
p2626
V0
p2627
tp2628
a(V$phi
p2629
V4
p2630
tp2631
a(V$d
p2632
V2
p2633
tp2634
a(V$x
p2635
V80
p2636
tp2637
a(V$a
p2638
V2.58199
p2639
tp2640
aV2015-11-03 05:27:22
p2641
tp2642
a(V1/sqrt(12)*sqrt(90)
p2643
Vsqrt(1/12)
p2644
(lp2645
(S'R.0.0'
p2646
F1.0
g1150
g1150
tp2647
aVmasaro
p2648
(lp2649
(V$n
p2650
V0
p2651
tp2652
a(V$phi
p2653
V3
p2654
tp2655
a(V$d
p2656
V2
p2657
tp2658
a(V$x
p2659
V90
p2660
tp2661
a(V$a
p2662
V2.73861
p2663
tp2664
aV2015-11-03 17:28:08
p2665
tp2666
a(g2348
Vsqrt(1/12)
p2667
(lp2668
(S'R.0.0'
p2669
F1.0
g1150
g1150
tp2670
aVmcatozzi
p2671
(lp2672
(V$n
p2673
V0
p2674
tp2675
a(V$phi
p2676
V4
p2677
tp2678
a(V$d
p2679
V2
p2680
tp2681
a(V$x
p2682
V55
p2683
tp2684
a(V$a
p2685
V2.14087
p2686
tp2687
aV2015-11-03 21:00:40
p2688
tp2689
a(g2339
Vsqrt(1/12)
p2690
(lp2691
(S'R.0.0'
p2692
F1.0
g1150
g1150
tp2693
aVdcastlem
p2694
g299
V2015-11-03 21:53:02
p2695
tp2696
a(V1/sqrt(12)*sqrt(45)
p2697
Vsqrt(1/12)
p2698
(lp2699
(S'R.0.0'
p2700
F1.0
g1150
g1150
tp2701
aVpvl001
p2702
(lp2703
(V$n
p2704
V0
p2705
tp2706
a(V$phi
p2707
V4
p2708
tp2709
a(V$d
p2710
V2
p2711
tp2712
a(V$x
p2713
V45
p2714
tp2715
a(V$a
p2716
V1.93649
p2717
tp2718
aV2015-11-04 03:49:16
p2719
tp2720
a(g2383
V(1/12)^(.5)
p2721
(lp2722
(S'R.0.0'
p2723
F1.0
g1150
g1150
tp2724
aVjdeon
p2725
(lp2726
(V$n
p2727
V0
p2728
tp2729
a(V$phi
p2730
V3
p2731
tp2732
a(V$d
p2733
V2
p2734
tp2735
a(V$x
p2736
V90
p2737
tp2738
a(V$a
p2739
V2.73861
p2740
tp2741
aV2015-11-04 05:55:38
p2742
tp2743
a(V1/sqrt(12)*sqrt(75)
p2744
V(1/12)^(1/2)
p2745
(lp2746
(S'R.0.0'
p2747
F1.0
g1150
g1150
tp2748
aVdsmonaha
p2749
g1299
V2015-11-04 16:54:22
p2750
tp2751
a(g2744
V(1/12)/75
p2752
(lp2753
(S'R.0.0'
p2754
F1.0
g1150
g1150
tp2755
aVdsmonaha
p2756
g1299
V2015-11-04 17:00:46
p2757
tp2758
a(g2368
V(1/12)^(1/2)
p2759
(lp2760
(S'R.0.0'
p2761
F1.0
g1150
g1150
tp2762
aVlahawkin
p2763
(lp2764
(V$n
p2765
V0
p2766
tp2767
a(V$phi
p2768
V3
p2769
tp2770
a(V$d
p2771
V2
p2772
tp2773
a(V$x
p2774
V95
p2775
tp2776
a(V$a
p2777
V2.81366
p2778
tp2779
aV2015-11-04 17:27:33
p2780
tp2781
a(V1/sqrt(12)*sqrt(50)
p2782
Vsqrt(1/12)
p2783
(lp2784
(S'R.0.0'
p2785
F1.0
g1150
g1150
tp2786
aValakamsa
p2787
(lp2788
(V$n
p2789
V0
p2790
tp2791
a(V$phi
p2792
V3
p2793
tp2794
a(V$d
p2795
V2
p2796
tp2797
a(V$x
p2798
V50
p2799
tp2800
a(V$a
p2801
V2.04124
p2802
tp2803
aV2015-11-04 19:27:50
p2804
tp2805
a(g2782
Vsqrt((1/12))
p2806
(lp2807
(S'R.0.0'
p2808
F1.0
g1150
g1150
tp2809
aValakamsa
p2810
g2788
V2015-11-04 19:32:01
p2811
tp2812
a(g2371
Vsqrt(1/12)
p2813
(lp2814
(S'R.0.0'
p2815
F1.0
g1150
g1150
tp2816
aVj5phung
p2817
g1153
V2015-11-04 21:31:37
p2818
tp2819
a(g2371
Vsqrt(1/12)
p2820
(lp2821
(S'R.0.0'
p2822
F1.0
g1150
g1150
tp2823
aVj5phung
p2824
g1153
V2015-11-04 21:35:13
p2825
tp2826
a(g2374
Vsqrt(1/12)
p2827
(lp2828
(S'R.0.0'
p2829
F1.0
g1150
g1150
tp2830
aVjhw015
p2831
(lp2832
(V$n
p2833
V0
p2834
tp2835
a(V$phi
p2836
V3
p2837
tp2838
a(V$d
p2839
V2
p2840
tp2841
a(V$x
p2842
V60
p2843
tp2844
a(V$a
p2845
V2.23607
p2846
tp2847
aV2015-11-04 21:45:20
p2848
tp2849
a(g2377
Vsqrt(1/12)
p2850
(lp2851
(S'R.0.0'
p2852
F1.0
g1150
g1150
tp2853
aVk3tan
p2854
(lp2855
(V$n
p2856
V0
p2857
tp2858
a(V$phi
p2859
V5
p2860
tp2861
a(V$d
p2862
V2
p2863
tp2864
a(V$x
p2865
V65
p2866
tp2867
a(V$a
p2868
V2.32737
p2869
tp2870
aV2015-11-04 21:50:20
p2871
tp2872
a(V1/sqrt(12)*sqrt(40)
p2873
V(1/12)^0.5
p2874
(lp2875
(S'R.0.0'
p2876
F1.0
g1150
g1150
tp2877
aVzig006
p2878
(lp2879
(V$n
p2880
V0
p2881
tp2882
a(V$phi
p2883
V5
p2884
tp2885
a(V$d
p2886
V2
p2887
tp2888
a(V$x
p2889
V40
p2890
tp2891
a(V$a
p2892
V1.82574
p2893
tp2894
aV2015-11-04 22:14:27
p2895
tp2896
a(g2389
Vsqrt(1/12)
p2897
(lp2898
(S'R.0.0'
p2899
F1.0
g1150
g1150
tp2900
aVjyc018
p2901
(lp2902
(V$n
p2903
V0
p2904
tp2905
a(V$phi
p2906
V3
p2907
tp2908
a(V$d
p2909
V2
p2910
tp2911
a(V$x
p2912
V75
p2913
tp2914
a(V$a
p2915
V2.5
p2916
tp2917
aV2015-11-05 00:17:41
p2918
tp2919
a(g2389
Vsqrt(1/12)
p2920
(lp2921
(S'R.0.0'
p2922
F1.0
g1150
g1150
tp2923
aVjyc018
p2924
g2902
V2015-11-05 00:32:49
p2925
tp2926
a(V1/sqrt(12)*sqrt(95)
p2927
Vsqrt(1/12)
p2928
(lp2929
(S'R.0.0'
p2930
F1.0
g1150
g1150
tp2931
aVjnatale
p2932
(lp2933
(V$n
p2934
V0
p2935
tp2936
a(V$phi
p2937
V5
p2938
tp2939
a(V$d
p2940
V2
p2941
tp2942
a(V$x
p2943
V95
p2944
tp2945
a(V$a
p2946
V2.81366
p2947
tp2948
aV2015-11-05 01:32:40
p2949
tp2950
a(V1/sqrt(12)*sqrt(75)
p2951
Vsqrt(1/12)
p2952
(lp2953
(S'R.0.0'
p2954
F1.0
g1150
g1150
tp2955
aVsghouse
p2956
(lp2957
(V$n
p2958
V0
p2959
tp2960
a(V$phi
p2961
V5
p2962
tp2963
a(V$d
p2964
V2
p2965
tp2966
a(V$x
p2967
V75
p2968
tp2969
a(V$a
p2970
V2.5
p2971
tp2972
aV2015-11-05 03:14:23
p2973
tp2974
a(g2406
V(1/12)+(1/12)
p2975
(lp2976
(S'R.0.0'
p2977
F1.0
g1150
g1150
tp2978
aVjblynch
p2979
g1325
V2015-11-05 03:16:01
p2980
tp2981
a(V1/sqrt(12)*sqrt(95)
p2982
Vsqrt(1/3)
p2983
(lp2984
(S'R.0.0'
p2985
F1.0
g1150
g1150
tp2986
aVsyc078
p2987
(lp2988
(V$n
p2989
V0
p2990
tp2991
a(V$phi
p2992
V5
p2993
tp2994
a(V$d
p2995
V2
p2996
tp2997
a(V$x
p2998
V95
p2999
tp3000
a(V$a
p3001
V2.81366
p3002
tp3003
aV2015-11-05 03:16:25
p3004
tp3005
a(g2406
V(1/12)(1+1)^2
p3006
(lp3007
(S'R.0.0'
p3008
F1.0
g1150
g1150
tp3009
aVjblynch
p3010
g1325
V2015-11-05 03:16:28
p3011
tp3012
a(g2396
V(1/3)^(1/2)
p3013
(lp3014
(S'R.0.0'
p3015
F1.0
g1150
g1150
tp3016
aVn2patil
p3017
(lp3018
(V$n
p3019
V0
p3020
tp3021
a(V$phi
p3022
V5
p3023
tp3024
a(V$d
p3025
V2
p3026
tp3027
a(V$x
p3028
V100
p3029
tp3030
a(V$a
p3031
V2.88675
p3032
tp3033
aV2015-11-05 03:16:28
p3034
tp3035
a(g2396
V(1/6)^(1/2)
p3036
(lp3037
(S'R.0.0'
p3038
F1.0
g1150
g1150
tp3039
aVn2patil
p3040
g3018
V2015-11-05 03:16:35
p3041
tp3042
a(g2951
Vsqrt(1/3)
p3043
(lp3044
(S'R.0.0'
p3045
F1.0
g1150
g1150
tp3046
aVsghouse
p3047
g2957
V2015-11-05 03:16:35
p3048
tp3049
a(g2982
Vsqrt(1/6)
p3050
(lp3051
(S'R.0.0'
p3052
F1.0
g1150
g1150
tp3053
aVsyc078
p3054
g2988
V2015-11-05 03:16:41
p3055
tp3056
a(g2406
V(1/12)+(1/12)
p3057
(lp3058
(S'R.0.0'
p3059
F1.0
g1150
g1150
tp3060
aVjblynch
p3061
g1325
V2015-11-05 03:17:08
p3062
tp3063
a(g2396
V(1/12)^(1/2)
p3064
(lp3065
(S'R.0.0'
p3066
F1.0
g1150
g1150
tp3067
aVn2patil
p3068
g3018
V2015-11-05 03:17:23
p3069
tp3070
a(g2396
V(1/3)^(1/2)
p3071
(lp3072
(S'R.0.0'
p3073
F1.0
g1150
g1150
tp3074
aVn2patil
p3075
g3018
V2015-11-05 03:18:00
p3076
tp3077
a(g2406
V(1/12)*2
p3078
(lp3079
(S'R.0.0'
p3080
F1.0
g1150
g1150
tp3081
aVjblynch
p3082
g1325
V2015-11-05 03:21:36
p3083
tp3084
a(V1/sqrt(12)*sqrt(60)
p3085
Vsqrt(1/12)
p3086
(lp3087
(S'R.0.0'
p3088
F1.0
g1150
g1150
tp3089
aVdkurli
p3090
(lp3091
(V$n
p3092
V0
p3093
tp3094
a(V$phi
p3095
V5
p3096
tp3097
a(V$d
p3098
V2
p3099
tp3100
a(V$x
p3101
V60
p3102
tp3103
a(V$a
p3104
V2.23607
p3105
tp3106
aV2015-11-05 03:32:05
p3107
tp3108
a(V1/sqrt(12)*sqrt(90)
p3109
V1/12 (-.5-.5)^2
p3110
(lp3111
(S'R.0.0'
p3112
F1.0
g1150
g1150
tp3113
aVstarinia
p3114
g1369
V2015-11-05 03:37:59
p3115
tp3116
a(g2368
V(1/2)^(1/2)
p3117
(lp3118
(S'R.0.0'
p3119
F1.0
g1150
g1150
tp3120
aVlahawkin
p3121
g2764
V2015-11-05 03:54:02
p3122
tp3123
a(g2409
Vsqrt(1/12)
p3124
(lp3125
(S'R.0.0'
p3126
F1.0
g1150
g1150
tp3127
aVc1wei
p3128
(lp3129
(V$n
p3130
V0
p3131
tp3132
a(V$phi
p3133
V5
p3134
tp3135
a(V$d
p3136
V2
p3137
tp3138
a(V$x
p3139
V95
p3140
tp3141
a(V$a
p3142
V2.81366
p3143
tp3144
aV2015-11-05 05:05:22
p3145
tp3146
a(V1/sqrt(12)*sqrt(80)
p3147
Vsqrt(1/12)
p3148
(lp3149
(S'R.0.0'
p3150
F1.0
g1150
g1150
tp3151
aVabasu
p3152
(lp3153
(V$n
p3154
V0
p3155
tp3156
a(V$phi
p3157
V5
p3158
tp3159
a(V$d
p3160
V2
p3161
tp3162
a(V$x
p3163
V80
p3164
tp3165
a(V$a
p3166
V2.58199
p3167
tp3168
aV2015-11-05 05:39:43
p3169
tp3170
a(V1/sqrt(12)*sqrt(75)
p3171
Vsqrt(1/12)
p3172
(lp3173
(S'R.0.0'
p3174
F1.0
g1150
g1150
tp3175
aVggaddi
p3176
(lp3177
(V$n
p3178
V0
p3179
tp3180
a(V$phi
p3181
V3
p3182
tp3183
a(V$d
p3184
V2
p3185
tp3186
a(V$x
p3187
V75
p3188
tp3189
a(V$a
p3190
V2.5
p3191
tp3192
aV2015-11-05 05:45:24
p3193
tp3194
a(V1/sqrt(12)*sqrt(80)
p3195
Vsqrt(1/12)
p3196
(lp3197
(S'R.0.0'
p3198
F1.0
g1150
g1150
tp3199
aVjfalcone
p3200
(lp3201
(V$n
p3202
V0
p3203
tp3204
a(V$phi
p3205
V4
p3206
tp3207
a(V$d
p3208
V2
p3209
tp3210
a(V$x
p3211
V80
p3212
tp3213
a(V$a
p3214
V2.58199
p3215
tp3216
aV2015-11-05 05:51:26
p3217
tp3218
a(g3195
Vsqrt(1/80)
p3219
(lp3220
(S'R.0.0'
p3221
F1.0
g1150
g1150
tp3222
aVjfalcone
p3223
g3201
V2015-11-05 05:53:49
p3224
tp3225
a(V1/sqrt(12)*sqrt(45)
p3226
V1/sqrt(1/2)*sqrt(50)
p3227
(lp3228
(S'R.0.0'
p3229
F1.0
g1150
g1150
tp3230
aVnhn018
p3231
g1800
V2015-11-05 06:00:59
p3232
tp3233
a(V1/sqrt(12)*sqrt(80)
p3234
V(1/2) * (1/(12)^(1/2))
p3235
(lp3236
(S'R.0.0'
p3237
F1.0
g1150
g1150
tp3238
aVjhp077
p3239
(lp3240
(V$n
p3241
V0
p3242
tp3243
a(V$phi
p3244
V4
p3245
tp3246
a(V$d
p3247
V2
p3248
tp3249
a(V$x
p3250
V80
p3251
tp3252
a(V$a
p3253
V2.58199
p3254
tp3255
aV2015-11-05 13:55:56
p3256
tp3257
a(V1/sqrt(12)*sqrt(85)
p3258
Vsqrt(1/12)
p3259
(lp3260
(S'R.0.0'
p3261
F1.0
g1150
g1150
tp3262
aVv3doan
p3263
g2260
V2015-11-05 16:31:42
p3264
tp3265
a(V1/sqrt(12)*sqrt(80)
p3266
Vsqrt(1/12)
p3267
(lp3268
(S'R.0.0'
p3269
F1.0
g1150
g1150
tp3270
aVanvan
p3271
(lp3272
(V$n
p3273
V0
p3274
tp3275
a(V$phi
p3276
V2
p3277
tp3278
a(V$d
p3279
V2
p3280
tp3281
a(V$x
p3282
V80
p3283
tp3284
a(V$a
p3285
V2.58199
p3286
tp3287
aV2015-11-05 17:22:01
p3288
tp3289
a(g2433
V(1/12)**0.5
p3290
(lp3291
(S'R.0.0'
p3292
F1.0
g1150
g1150
tp3293
aVjguanzho
p3294
(lp3295
(V$n
p3296
V0
p3297
tp3298
a(V$phi
p3299
V4
p3300
tp3301
a(V$d
p3302
V2
p3303
tp3304
a(V$x
p3305
V80
p3306
tp3307
a(V$a
p3308
V2.58199
p3309
tp3310
aV2015-11-05 18:05:33
p3311
tp3312
a(V1/sqrt(12)*sqrt(45)
p3313
V(1/12)**.5
p3314
(lp3315
(S'R.0.0'
p3316
F1.0
g1150
g1150
tp3317
aVtcuddy
p3318
(lp3319
(V$n
p3320
V0
p3321
tp3322
a(V$phi
p3323
V2
p3324
tp3325
a(V$d
p3326
V2
p3327
tp3328
a(V$x
p3329
V45
p3330
tp3331
a(V$a
p3332
V1.93649
p3333
tp3334
aV2015-11-05 18:20:51
p3335
tp3336
a(g2368
V(1/12)^(1/2)
p3337
(lp3338
(S'R.0.0'
p3339
F1.0
g1150
g1150
tp3340
aVlahawkin
p3341
g2764
V2015-11-05 19:47:38
p3342
tp3343
a(g2440
Vsqrt(1/12)
p3344
(lp3345
(S'R.0.0'
p3346
F1.0
g1150
g1150
tp3347
aVasetters
p3348
g1862
V2015-11-05 20:25:28
p3349
tp3350
a(g2440
Vsqrt(1/12)
p3351
(lp3352
(S'R.0.0'
p3353
F1.0
g1150
g1150
tp3354
aVasetters
p3355
g1862
V2015-11-05 20:29:01
p3356
tp3357
a(g2445
V(1/12)^0.5
p3358
(lp3359
(S'R.0.0'
p3360
F1.0
g1150
g1150
tp3361
aVatorr
p3362
(lp3363
(V$n
p3364
V0
p3365
tp3366
a(V$phi
p3367
V5
p3368
tp3369
a(V$d
p3370
V2
p3371
tp3372
a(V$x
p3373
V65
p3374
tp3375
a(V$a
p3376
V2.32737
p3377
tp3378
aV2015-11-05 20:30:35
p3379
tp3380
a(V1/sqrt(12)*sqrt(45)
p3381
Vsqrt(1/12)
p3382
(lp3383
(S'R.0.0'
p3384
F1.0
g1150
g1150
tp3385
aVtcn013
p3386
(lp3387
(V$n
p3388
V0
p3389
tp3390
a(V$phi
p3391
V5
p3392
tp3393
a(V$d
p3394
V2
p3395
tp3396
a(V$x
p3397
V45
p3398
tp3399
a(V$a
p3400
V1.93649
p3401
tp3402
aV2015-11-05 20:59:38
p3403
tp3404
a(V1/sqrt(12)*sqrt(50)
p3405
Vsqrt(1/12)
p3406
(lp3407
(S'R.0.0'
p3408
F1.0
g1150
g1150
tp3409
aVhmshah
p3410
(lp3411
(V$n
p3412
V0
p3413
tp3414
a(V$phi
p3415
V4
p3416
tp3417
a(V$d
p3418
V2
p3419
tp3420
a(V$x
p3421
V50
p3422
tp3423
a(V$a
p3424
V2.04124
p3425
tp3426
aV2015-11-05 21:23:51
p3427
tp3428
a(g2427
V1/12(1) * 75
p3429
(lp3430
(S'R.0.0'
p3431
F1.0
g1150
g1150
tp3432
aVgsrandha
p3433
g630
V2015-11-05 21:41:40
p3434
tp3435
a(g2451
Vsqrt((1/12))
p3436
(lp3437
(S'R.0.0'
p3438
F1.0
g1150
g1150
tp3439
aVvasharma
p3440
(lp3441
(V$n
p3442
V0
p3443
tp3444
a(V$phi
p3445
V2
p3446
tp3447
a(V$d
p3448
V2
p3449
tp3450
a(V$x
p3451
V95
p3452
tp3453
a(V$a
p3454
V2.81366
p3455
tp3456
aV2015-11-05 21:45:38
p3457
tp3458
a(V1/sqrt(12)*sqrt(95)
p3459
Vsqrt(1/12)
p3460
(lp3461
(S'R.0.0'
p3462
F1.0
g1150
g1150
tp3463
aVacs008
p3464
g1413
V2015-11-05 21:50:33
p3465
tp3466
a(V1/sqrt(12)*sqrt(45)
p3467
V(1/45)^(0.5)
p3468
(lp3469
(S'R.0.0'
p3470
F1.0
g1150
g1150
tp3471
aVccn001
p3472
(lp3473
(V$n
p3474
V0
p3475
tp3476
a(V$phi
p3477
V2
p3478
tp3479
a(V$d
p3480
V2
p3481
tp3482
a(V$x
p3483
V45
p3484
tp3485
a(V$a
p3486
V1.93649
p3487
tp3488
aV2015-11-05 22:05:29
p3489
tp3490
a(g2427
V1/12 * 75
p3491
(lp3492
(S'R.0.0'
p3493
F1.0
g1150
g1150
tp3494
aVgsrandha
p3495
g630
V2015-11-05 22:17:19
p3496
tp3497
a(V1/sqrt(12)*sqrt(80)
p3498
V(1/12)^(1/2)
p3499
(lp3500
(S'R.0.0'
p3501
F1.0
g1150
g1150
tp3502
aVjap009
p3503
(lp3504
(V$n
p3505
V0
p3506
tp3507
a(V$phi
p3508
V4
p3509
tp3510
a(V$d
p3511
V2
p3512
tp3513
a(V$x
p3514
V80
p3515
tp3516
a(V$a
p3517
V2.58199
p3518
tp3519
aV2015-11-05 22:39:58
p3520
tp3521
a(V1/sqrt(12)*sqrt(80)
p3522
Vsqrt(1/12)
p3523
(lp3524
(S'R.0.0'
p3525
F1.0
g1150
g1150
tp3526
aVmpanelo
p3527
(lp3528
(V$n
p3529
V0
p3530
tp3531
a(V$phi
p3532
V5
p3533
tp3534
a(V$d
p3535
V2
p3536
tp3537
a(V$x
p3538
V80
p3539
tp3540
a(V$a
p3541
V2.58199
p3542
tp3543
aV2015-11-05 23:04:16
p3544
tp3545
a(V1/sqrt(12)*sqrt(85)
p3546
Vsqrt(1/12)
p3547
(lp3548
(S'R.0.0'
p3549
F1.0
g1150
g1150
tp3550
aVjel075
p3551
(lp3552
(V$n
p3553
V0
p3554
tp3555
a(V$phi
p3556
V5
p3557
tp3558
a(V$d
p3559
V2
p3560
tp3561
a(V$x
p3562
V85
p3563
tp3564
a(V$a
p3565
V2.66145
p3566
tp3567
aV2015-11-05 23:23:03
p3568
tp3569
a(V1/sqrt(12)*sqrt(40)
p3570
Vsqrt(1/12)
p3571
(lp3572
(S'R.0.0'
p3573
F1.0
g1150
g1150
tp3574
aVv4sharma
p3575
(lp3576
(V$n
p3577
V0
p3578
tp3579
a(V$phi
p3580
V3
p3581
tp3582
a(V$d
p3583
V2
p3584
tp3585
a(V$x
p3586
V40
p3587
tp3588
a(V$a
p3589
V1.82574
p3590
tp3591
aV2015-11-05 23:24:40
p3592
tp3593
a(V1/sqrt(12)*sqrt(70)
p3594
Vsqrt(1/12)
p3595
(lp3596
(S'R.0.0'
p3597
F1.0
g1150
g1150
tp3598
aVsayao
p3599
(lp3600
(V$n
p3601
V0
p3602
tp3603
a(V$phi
p3604
V4
p3605
tp3606
a(V$d
p3607
V2
p3608
tp3609
a(V$x
p3610
V70
p3611
tp3612
a(V$a
p3613
V2.41523
p3614
tp3615
aV2015-11-06 00:01:07
p3616
tp3617
a(V1/sqrt(12)*sqrt(85)
p3618
V(1/12)^(1/2)
p3619
(lp3620
(S'R.0.0'
p3621
F1.0
g1150
g1150
tp3622
aVdgunawan
p3623
(lp3624
(V$n
p3625
V0
p3626
tp3627
a(V$phi
p3628
V5
p3629
tp3630
a(V$d
p3631
V2
p3632
tp3633
a(V$x
p3634
V85
p3635
tp3636
a(V$a
p3637
V2.66145
p3638
tp3639
aV2015-11-06 00:17:25
p3640
tp3641
a(g2445
V(1/12)^0.5
p3642
(lp3643
(S'R.0.0'
p3644
F1.0
g1150
g1150
tp3645
aVatorr
p3646
g3363
V2015-11-06 00:23:39
p3647
tp3648
a(V1/sqrt(12)*sqrt(80)
p3649
Vsqrt(1/12)
p3650
(lp3651
(S'R.0.0'
p3652
F1.0
g1150
g1150
tp3653
aVkew017
p3654
(lp3655
(V$n
p3656
V0
p3657
tp3658
a(V$phi
p3659
V4
p3660
tp3661
a(V$d
p3662
V2
p3663
tp3664
a(V$x
p3665
V80
p3666
tp3667
a(V$a
p3668
V2.58199
p3669
tp3670
aV2015-11-06 01:39:21
p3671
tp3672
a(V1/sqrt(12)*sqrt(80)
p3673
Vsqrt(1/12)
p3674
(lp3675
(S'R.0.0'
p3676
F1.0
g1150
g1150
tp3677
aVcprafull
p3678
(lp3679
(V$n
p3680
V0
p3681
tp3682
a(V$phi
p3683
V3
p3684
tp3685
a(V$d
p3686
V2
p3687
tp3688
a(V$x
p3689
V80
p3690
tp3691
a(V$a
p3692
V2.58199
p3693
tp3694
aV2015-11-06 02:58:16
p3695
tp3696
a(V1/sqrt(12)*sqrt(65)
p3697
Vsqrt(1/12)
p3698
(lp3699
(S'R.0.0'
p3700
F1.0
g1150
g1150
tp3701
aVganajera
p3702
(lp3703
(V$n
p3704
V0
p3705
tp3706
a(V$phi
p3707
V3
p3708
tp3709
a(V$d
p3710
V2
p3711
tp3712
a(V$x
p3713
V65
p3714
tp3715
a(V$a
p3716
V2.32737
p3717
tp3718
aV2015-11-06 03:33:59
p3719
tp3720
a(g2466
Vsqrt(1/12)
p3721
(lp3722
(S'R.0.0'
p3723
F1.0
g1150
g1150
tp3724
aVmuy002
p3725
(lp3726
(V$n
p3727
V0
p3728
tp3729
a(V$phi
p3730
V2
p3731
tp3732
a(V$d
p3733
V2
p3734
tp3735
a(V$x
p3736
V65
p3737
tp3738
a(V$a
p3739
V2.32737
p3740
tp3741
aV2015-11-06 04:52:34
p3742
tp3743
a(V1/sqrt(12)*sqrt(70)
p3744
V(1/12)^(1/2)
p3745
(lp3746
(S'R.0.0'
p3747
F1.0
g1150
g1150
tp3748
aVaordookh
p3749
g743
V2015-11-06 06:24:27
p3750
tp3751
a(g2472
Vsqrt(1/12)
p3752
(lp3753
(S'R.0.0'
p3754
F1.0
g1150
g1150
tp3755
aVtdurrer
p3756
(lp3757
(V$n
p3758
V0
p3759
tp3760
a(V$phi
p3761
V4
p3762
tp3763
a(V$d
p3764
V2
p3765
tp3766
a(V$x
p3767
V65
p3768
tp3769
a(V$a
p3770
V2.32737
p3771
tp3772
aV2015-11-06 06:26:20
p3773
tp3774
a(g2475
Vsqrt(1/12)
p3775
(lp3776
(S'R.0.0'
p3777
F1.0
g1150
g1150
tp3778
aVachava
p3779
g769
V2015-11-06 08:30:03
p3780
tp3781
a(V1/sqrt(12)*sqrt(55)
p3782
Vsqrt(1/12)
p3783
(lp3784
(S'R.0.0'
p3785
F1.0
g1150
g1150
tp3786
aVjhc010
p3787
(lp3788
(V$n
p3789
V0
p3790
tp3791
a(V$phi
p3792
V3
p3793
tp3794
a(V$d
p3795
V2
p3796
tp3797
a(V$x
p3798
V55
p3799
tp3800
a(V$a
p3801
V2.14087
p3802
tp3803
aV2015-11-06 11:01:42
p3804
tp3805
a(g2483
Vsqrt(1/12)
p3806
(lp3807
(S'R.0.0'
p3808
F1.0
g1150
g1150
tp3809
aVazkong
p3810
(lp3811
(V$n
p3812
V0
p3813
tp3814
a(V$phi
p3815
V4
p3816
tp3817
a(V$d
p3818
V2
p3819
tp3820
a(V$x
p3821
V85
p3822
tp3823
a(V$a
p3824
V2.66145
p3825
tp3826
aV2015-11-06 20:14:38
p3827
tp3828
a(g2483
Vsqrt(1/12)
p3829
(lp3830
(S'R.0.0'
p3831
F1.0
g1150
g1150
tp3832
aVazkong
p3833
g3811
V2015-11-06 20:18:17
p3834
tp3835
a(V1/sqrt(12)*sqrt(90)
p3836
Vsqrt(1/12)
p3837
(lp3838
(S'R.0.0'
p3839
F1.0
g1150
g1150
tp3840
aVakg009
p3841
(lp3842
(V$n
p3843
V0
p3844
tp3845
a(V$phi
p3846
V2
p3847
tp3848
a(V$d
p3849
V2
p3850
tp3851
a(V$x
p3852
V90
p3853
tp3854
a(V$a
p3855
V2.73861
p3856
tp3857
aV2015-11-06 21:10:38
p3858
tp3859
a(g2486
Vsqrt(1/12)
p3860
(lp3861
(S'R.0.0'
p3862
F1.0
g1150
g1150
tp3863
aVppanourg
p3864
(lp3865
(V$n
p3866
V0
p3867
tp3868
a(V$phi
p3869
V3
p3870
tp3871
a(V$d
p3872
V2
p3873
tp3874
a(V$x
p3875
V40
p3876
tp3877
a(V$a
p3878
V1.82574
p3879
tp3880
aV2015-11-06 21:13:07
p3881
tp3882
a(g2486
Vsqrt(1/12)
p3883
(lp3884
(S'R.0.0'
p3885
F1.0
g1150
g1150
tp3886
aVppanourg
p3887
g3865
V2015-11-06 21:14:57
p3888
tp3889
a(V1/sqrt(12)*sqrt(95)
p3890
Vsqrt(1/12)
p3891
(lp3892
(S'R.0.0'
p3893
F1.0
g1150
g1150
tp3894
aVc3chung
p3895
g1958
V2015-11-06 22:31:38
p3896
tp3897
a(g2491
Vsqrt((0.5+0.5)^2/12)
p3898
(lp3899
(S'R.0.0'
p3900
F1.0
g1150
V(0.5+0.5)^2
p3901
tp3902
aVksrijong
p3903
(lp3904
(V$n
p3905
V0
p3906
tp3907
a(V$phi
p3908
V4
p3909
tp3910
a(V$d
p3911
V2
p3912
tp3913
a(V$x
p3914
V80
p3915
tp3916
a(V$a
p3917
V2.58199
p3918
tp3919
aV2015-11-06 22:36:59
p3920
tp3921
a(g2497
V(1/12)^(2)
p3922
(lp3923
(S'R.0.0'
p3924
F1.0
g1150
g1150
tp3925
aVmitopete
p3926
g360
V2015-11-06 23:27:08
p3927
tp3928
a(g2513
Vsqrt(((.5+.5)^2)/12)
p3929
(lp3930
(S'R.0.0'
p3931
F1.0
g1150
V(.5+.5)^2
p3932
tp3933
aVyjshin
p3934
(lp3935
(V$n
p3936
V0
p3937
tp3938
a(V$phi
p3939
V4
p3940
tp3941
a(V$d
p3942
V2
p3943
tp3944
a(V$x
p3945
V90
p3946
tp3947
a(V$a
p3948
V2.73861
p3949
tp3950
aV2015-11-06 23:29:31
p3951
tp3952
a(g2500
Vsqrt(1/12)
p3953
(lp3954
(S'R.0.0'
p3955
F1.0
g1150
g1150
tp3956
aVawollner
p3957
(lp3958
(V$n
p3959
V0
p3960
tp3961
a(V$phi
p3962
V2
p3963
tp3964
a(V$d
p3965
V2
p3966
tp3967
a(V$x
p3968
V100
p3969
tp3970
a(V$a
p3971
V2.88675
p3972
tp3973
aV2015-11-06 23:43:31
p3974
tp3975
a(V1/sqrt(12)*sqrt(70)
p3976
V(1/6)^(1/2)
p3977
(lp3978
(S'R.0.0'
p3979
F1.0
g1150
g1150
tp3980
aVthwan
p3981
(lp3982
(V$n
p3983
V0
p3984
tp3985
a(V$phi
p3986
V5
p3987
tp3988
a(V$d
p3989
V2
p3990
tp3991
a(V$x
p3992
V70
p3993
tp3994
a(V$a
p3995
V2.41523
p3996
tp3997
aV2015-11-06 23:45:14
p3998
tp3999
a(g2503
Vsqrt(1/12)
p4000
(lp4001
(S'R.0.0'
p4002
F1.0
g1150
g1150
tp4003
aVdando
p4004
g1560
V2015-11-06 23:52:53
p4005
tp4006
a(g2508
Vsqrt(1/12)
p4007
(lp4008
(S'R.0.0'
p4009
F1.0
g1150
g1150
tp4010
aVrraiyyan
p4011
g1983
V2015-11-07 00:02:58
p4012
tp4013
a(V1/sqrt(12)*sqrt(70)
p4014
Vsqrt(1/12)
p4015
(lp4016
(S'R.0.0'
p4017
F1.0
g1150
g1150
tp4018
aVdcgriffi
p4019
(lp4020
(V$n
p4021
V0
p4022
tp4023
a(V$phi
p4024
V4
p4025
tp4026
a(V$d
p4027
V2
p4028
tp4029
a(V$x
p4030
V70
p4031
tp4032
a(V$a
p4033
V2.41523
p4034
tp4035
aV2015-11-07 00:08:24
p4036
tp4037
a(g2519
Vsqrt(1/12)
p4038
(lp4039
(S'R.0.0'
p4040
F1.0
g1150
g1150
tp4041
aVrohan
p4042
(lp4043
(V$n
p4044
V0
p4045
tp4046
a(V$phi
p4047
V5
p4048
tp4049
a(V$d
p4050
V2
p4051
tp4052
a(V$x
p4053
V45
p4054
tp4055
a(V$a
p4056
V1.93649
p4057
tp4058
aV2015-11-07 00:19:28
p4059
tp4060
a(g2516
Vsqrt(1/12)
p4061
(lp4062
(S'R.0.0'
p4063
F1.0
g1150
g1150
tp4064
aVedcole
p4065
(lp4066
(V$n
p4067
V0
p4068
tp4069
a(V$phi
p4070
V2
p4071
tp4072
a(V$d
p4073
V2
p4074
tp4075
a(V$x
p4076
V75
p4077
tp4078
a(V$a
p4079
V2.5
p4080
tp4081
aV2015-11-07 00:35:24
p4082
tp4083
asS"['R.0', 'R.1.0']"
p4084
(lp4085
(g3649
Vsqrt(1/12) * 80^2
p4086
(lp4087
(S'R.0'
p4088
F0.2886751345948129
V1/sqrt(12)
p4089
Vsqrt(1/12)
p4090
tp4091
a(S'R.1.0'
p4092
F80.0
V80
p4093
V80
p4094
tp4095
aVkew017
p4096
g3655
V2015-11-06 01:40:31
p4097
tp4098
a(V1/sqrt(12)*sqrt(55)
p4099
Vsqrt(1/12)*55^2
p4100
(lp4101
(S'R.0'
p4102
F0.2886751345948129
V1/sqrt(12)
p4103
Vsqrt(1/12)
p4104
tp4105
a(S'R.1.0'
p4106
F55.0
V55
p4107
V55
p4108
tp4109
aVqfu
p4110
(lp4111
(V$n
p4112
V0
p4113
tp4114
a(V$phi
p4115
V4
p4116
tp4117
a(V$d
p4118
V2
p4119
tp4120
a(V$x
p4121
V55
p4122
tp4123
a(V$a
p4124
V2.14087
p4125
tp4126
aV2015-11-06 03:13:20
p4127
tp4128
a(g2472
Vsqrt(1/12)*(65^2)
p4129
(lp4130
(S'R.0'
p4131
F0.2886751345948129
V1/sqrt(12)
p4132
Vsqrt(1/12)
p4133
tp4134
a(S'R.1.0'
p4135
F65.0
V65
p4136
V65
p4137
tp4138
aVtdurrer
p4139
g3757
V2015-11-06 06:26:59
p4140
tp4141
asS"['R.1.0']"
p4142
(lp4143
(V1/sqrt(12)*sqrt(60)
p4144
V1/60sqrt(1/12(.5+.5)^2)
p4145
(lp4146
(S'R.1.0'
p4147
F60.0
V60
p4148
V60
p4149
tp4150
aVt1tran
p4151
(lp4152
(V$n
p4153
V0
p4154
tp4155
a(V$phi
p4156
V4
p4157
tp4158
a(V$d
p4159
V2
p4160
tp4161
a(V$x
p4162
V60
p4163
tp4164
a(V$a
p4165
V2.23607
p4166
tp4167
aV2015-11-04 00:50:23
p4168
tp4169
a(V1/sqrt(12)*sqrt(100)
p4170
V1/(100*sqrt(12))
p4171
(lp4172
(S'R.1.0'
p4173
F100.0
V100
p4174
V100
p4175
tp4176
aVj6quach
p4177
(lp4178
(V$n
p4179
V0
p4180
tp4181
a(V$phi
p4182
V4
p4183
tp4184
a(V$d
p4185
V2
p4186
tp4187
a(V$x
p4188
V100
p4189
tp4190
a(V$a
p4191
V2.88675
p4192
tp4193
aV2015-11-05 08:46:34
p4194
tp4195
asg163
(lp4196
(g2782
V1/12
p4197
tp4198
a(g2336
V0.288
p4199
tp4200
a(V1/sqrt(12)*sqrt(65)
p4201
V2.887
p4202
tp4203
a(g4201
V187.655
p4204
tp4205
a(V1/sqrt(12)*sqrt(40)
p4206
V40/144
p4207
tp4208
a(g3594
V.5
p4209
tp4210
a(g2362
V100/12
p4211
tp4212
a(g2362
V100/(100/12)^(1/2)
p4213
tp4214
a(g2362
V(100/12)^(1/2)
p4215
tp4216
a(g2371
V.5
p4217
tp4218
a(g2371
Vsqrt((1/12)*79^2)
p4219
tp4220
a(g2371
Vsqrt((1/12)*70^2)
p4221
tp4222
a(g2873
V40/12
p4223
tp4224
a(V1/sqrt(12)*sqrt(50)
p4225
V50/12
p4226
tp4227
a(V1/sqrt(12)*sqrt(90)
p4228
V1/6
p4229
tp4230
a(g2399
V85/12
p4231
tp4232
a(g4228
V90/12
p4233
tp4234
a(V1/sqrt(12)*sqrt(50)
p4235
Vsqrt(50/2)
p4236
tp4237
a(g3109
Vsqrt(90 * 1/2 *(1-1/2))
p4238
tp4239
a(g3195
V1/12
p4240
tp4241
a(g3195
V1/12^2
p4242
tp4243
a(g2427
Vsqrt(75*.5(1-.5))
p4244
tp4245
a(g2427
V1/12(1)
p4246
tp4247
a(V1/sqrt(12)*sqrt(65)
p4248
V1/12
p4249
tp4250
a(g2433
V80 * (0.5*0.5*80)**0.5
p4251
tp4252
a(V1/sqrt(12)*sqrt(90)
p4253
V14.2302494708
p4254
tp4255
a(g3594
V70sqrt(1/12)
p4256
tp4257
a(g3594
V70*sqrt(1/12)
p4258
tp4259
a(g3594
V70^2*sqrt(1/12)
p4260
tp4261
a(V1/sqrt(12)*sqrt(40)
p4262
V40*(((1/12)(.5+.5)^2)^.5)
p4263
tp4264
a(V1/sqrt(12)*sqrt(90)
p4265
V1/6
p4266
tp4267
a(V1/sqrt(12)*sqrt(90)
p4268
V90/12
p4269
tp4270
a(V1/sqrt(12)*sqrt(60)
p4271
V17.32050809
p4272
tp4273
a(V1/sqrt(12)*sqrt(80)
p4274
V80/12
p4275
tp4276
a(g3890
V1/12
p4277
tp4278
a(g2494
V70/12
p4279
tp4280
a(V1/sqrt(12)*sqrt(85)
p4281
V1/6
p4282
tp4283
a(g4281
V[1/2(.5+.5)^2]^(1/2)
p4284
tp4285
a(g2503
V1/12
p4286
tp4287
a(V1/sqrt(12)*sqrt(85)
p4288
V85/12
p4289
tp4290
asS"['R.0', 'R.1']"
p4291
(lp4292
(g2472
Vsqrt(1/12)/sqrt(65)
p4293
(lp4294
(S'R.0'
p4295
F0.2886751345948129
V1/sqrt(12)
p4296
Vsqrt(1/12)
p4297
tp4298
a(S'R.1'
p4299
F8.06225774829855
Vsqrt(65)
p4300
Vsqrt(65)
p4301
tp4302
aVtdurrer
p4303
g3757
V2015-11-06 06:19:29
p4304
tp4305
a(g2472
V(sqrt(1/12))/(sqrt(65))
p4306
(lp4307
(S'R.0'
p4308
F0.2886751345948129
V1/sqrt(12)
p4309
Vsqrt(1/12)
p4310
tp4311
a(S'R.1'
p4312
F8.06225774829855
Vsqrt(65)
p4313
Vsqrt(65)
p4314
tp4315
aVtdurrer
p4316
g3757
V2015-11-06 06:21:48
p4317
tp4318
asS"['R.0.0', 'R.1.0']"
p4319
(lp4320
(V1/sqrt(12)*sqrt(85)
p4321
V(1/12)( (85*0.5) - (85*-0.5) ) **2
p4322
(lp4323
(S'R.0.0'
p4324
F1.0
g1150
g1150
tp4325
a(S'R.1.0'
p4326
F85.0
V85
p4327
V(85*0.5) - (85*-0.5)
p4328
tp4329
aVkrkelkar
p4330
g247
V2015-10-31 21:49:34
p4331
tp4332
asS"['R.0.1.0']"
p4333
(lp4334
(g2377
Vsqrt(65*11/12^2)
p4335
(lp4336
(S'R.0.1.0'
p4337
F12.0
V12
p4338
V12
p4339
tp4340
aVk3tan
p4341
g2855
V2015-11-06 23:45:18
p4342
tp4343
a(V1/sqrt(12)*sqrt(50)
p4344
Vsqrt(50*11/12^2)
p4345
(lp4346
(S'R.0.1.0'
p4347
F12.0
V12
p4348
V12
p4349
tp4350
aVxweng
p4351
(lp4352
(V$n
p4353
V0
p4354
tp4355
a(V$phi
p4356
V3
p4357
tp4358
a(V$d
p4359
V2
p4360
tp4361
a(V$x
p4362
V50
p4363
tp4364
a(V$a
p4365
V2.04124
p4366
tp4367
aV2015-11-06 23:45:52
p4368
tp4369
a(g4344
Vsqrt(50/12^2)
p4370
(lp4371
(S'R.0.1.0'
p4372
F12.0
V12
p4373
V12
p4374
tp4375
aVxweng
p4376
g4352
V2015-11-06 23:46:42
p4377
tp4378
asS"['R.0']"
p4379
(lp4380
(g2526
V(sqrt(1/12)) ^ 100
p4381
(lp4382
(S'R.0'
p4383
F0.2886751345948129
V1/sqrt(12)
p4384
Vsqrt(1/12)
p4385
tp4386
aVbeyounge
p4387
g2532
V2015-10-30 06:15:09
p4388
tp4389
a(V1/sqrt(12)*sqrt(40)
p4390
Vsqrt(1/12 ( .5 - (-.5) )^2) * 2
p4391
(lp4392
(S'R.0'
p4393
F0.2886751345948129
V1/sqrt(12)
p4394
Vsqrt(1/12 ( .5 - (-.5) )^2)
p4395
tp4396
aVany027
p4397
g273
V2015-11-01 22:17:36
p4398
tp4399
a(g2581
V(1/12)^0.5^60
p4400
(lp4401
(S'R.0'
p4402
F0.2886751345948129
V1/sqrt(12)
p4403
V(1/12)^0.5
p4404
tp4405
aVz2tan
p4406
g2587
V2015-11-02 06:15:17
p4407
tp4408
a(g2581
V(1/12)^0.5*60
p4409
(lp4410
(S'R.0'
p4411
F0.2886751345948129
V1/sqrt(12)
p4412
V(1/12)^0.5
p4413
tp4414
aVz2tan
p4415
g2587
V2015-11-02 06:15:30
p4416
tp4417
a(V1/sqrt(12)*sqrt(80)
p4418
V1/sqrt(12)*sqrt(50)
p4419
(lp4420
(S'R.0'
p4421
F0.2886751345948129
V1/sqrt(12)
p4422
V1/sqrt(12)
p4423
tp4424
aVjcl084
p4425
(lp4426
(V$n
p4427
V0
p4428
tp4429
a(V$phi
p4430
V5
p4431
tp4432
a(V$d
p4433
V2
p4434
tp4435
a(V$x
p4436
V80
p4437
tp4438
a(V$a
p4439
V2.58199
p4440
tp4441
aV2015-11-02 20:43:41
p4442
tp4443
a(g2619
V(1/12)^(1/2)*80
p4444
(lp4445
(S'R.0'
p4446
F0.2886751345948129
V1/sqrt(12)
p4447
V(1/12)^(1/2)
p4448
tp4449
aVlguintu
p4450
g2625
V2015-11-03 05:27:14
p4451
tp4452
a(g2619
V((1/12)^(1/2))*80
p4453
(lp4454
(S'R.0'
p4455
F0.2886751345948129
V1/sqrt(12)
p4456
V(1/12)^(1/2)
p4457
tp4458
aVlguintu
p4459
g2625
V2015-11-03 05:28:28
p4460
tp4461
a(V1/sqrt(12)*sqrt(80)
p4462
Vsqrt((1/12))*80
p4463
(lp4464
(S'R.0'
p4465
F0.2886751345948129
V1/sqrt(12)
p4466
Vsqrt((1/12))
p4467
tp4468
aVflhernan
p4469
(lp4470
(V$n
p4471
V0
p4472
tp4473
a(V$phi
p4474
V5
p4475
tp4476
a(V$d
p4477
V2
p4478
tp4479
a(V$x
p4480
V80
p4481
tp4482
a(V$a
p4483
V2.58199
p4484
tp4485
aV2015-11-03 21:02:08
p4486
tp4487
a(V1/sqrt(12)*sqrt(70)
p4488
V0.288675134595*70
p4489
(lp4490
(S'R.0'
p4491
F0.2886751345948129
V1/sqrt(12)
p4492
V0.288675134595
p4493
tp4494
aVaportuga
p4495
(lp4496
(V$n
p4497
V0
p4498
tp4499
a(V$phi
p4500
V5
p4501
tp4502
a(V$d
p4503
V2
p4504
tp4505
a(V$x
p4506
V70
p4507
tp4508
a(V$a
p4509
V2.41523
p4510
tp4511
aV2015-11-03 22:51:12
p4512
tp4513
a(g2557
V(1/12)^(1/2)/65
p4514
(lp4515
(S'R.0'
p4516
F0.2886751345948129
V1/sqrt(12)
p4517
V(1/12)^(1/2)
p4518
tp4519
aVr9jiang
p4520
g2563
V2015-11-04 05:57:46
p4521
tp4522
a(V1/sqrt(12)*sqrt(100)
p4523
V(1/12^(1/2))100
p4524
(lp4525
(S'R.0'
p4526
F0.2886751345948129
V1/sqrt(12)
p4527
V1/12^(1/2)
p4528
tp4529
aVdjk006
p4530
(lp4531
(V$n
p4532
V0
p4533
tp4534
a(V$phi
p4535
V2
p4536
tp4537
a(V$d
p4538
V2
p4539
tp4540
a(V$x
p4541
V100
p4542
tp4543
a(V$a
p4544
V2.88675
p4545
tp4546
aV2015-11-04 06:06:24
p4547
tp4548
a(V1/sqrt(12)*sqrt(45)
p4549
V1/sqrt(12)*sqrt(40)
p4550
(lp4551
(S'R.0'
p4552
F0.2886751345948129
V1/sqrt(12)
p4553
V1/sqrt(12)
p4554
tp4555
aVaggouw
p4556
g1701
V2015-11-04 09:09:24
p4557
tp4558
a(V1/sqrt(12)*sqrt(90)
p4559
V1/12^0.5*90
p4560
(lp4561
(S'R.0'
p4562
F0.2886751345948129
V1/sqrt(12)
p4563
V1/12^0.5
p4564
tp4565
aVb1yao
p4566
(lp4567
(V$n
p4568
V0
p4569
tp4570
a(V$phi
p4571
V5
p4572
tp4573
a(V$d
p4574
V2
p4575
tp4576
a(V$x
p4577
V90
p4578
tp4579
a(V$a
p4580
V2.73861
p4581
tp4582
aV2015-11-04 19:57:44
p4583
tp4584
a(g2782
Vsqrt(1/12)*50
p4585
(lp4586
(S'R.0'
p4587
F0.2886751345948129
V1/sqrt(12)
p4588
Vsqrt(1/12)
p4589
tp4590
aValakamsa
p4591
g2788
V2015-11-04 19:58:08
p4592
tp4593
a(g2782
Vsqrt(1/12)*25
p4594
(lp4595
(S'R.0'
p4596
F0.2886751345948129
V1/sqrt(12)
p4597
Vsqrt(1/12)
p4598
tp4599
aValakamsa
p4600
g2788
V2015-11-04 19:58:15
p4601
tp4602
a(g2782
Vsqrt(1/12)*50
p4603
(lp4604
(S'R.0'
p4605
F0.2886751345948129
V1/sqrt(12)
p4606
Vsqrt(1/12)
p4607
tp4608
aValakamsa
p4609
g2788
V2015-11-04 20:09:30
p4610
tp4611
a(g2782
Vsqrt(1/12) * 50
p4612
(lp4613
(S'R.0'
p4614
F0.2886751345948129
V1/sqrt(12)
p4615
Vsqrt(1/12)
p4616
tp4617
aValakamsa
p4618
g2788
V2015-11-04 20:23:23
p4619
tp4620
a(V1/sqrt(12)*sqrt(80)
p4621
Vsqrt(1/12) * 80
p4622
(lp4623
(S'R.0'
p4624
F0.2886751345948129
V1/sqrt(12)
p4625
Vsqrt(1/12)
p4626
tp4627
aVfichoi
p4628
(lp4629
(V$n
p4630
V0
p4631
tp4632
a(V$phi
p4633
V5
p4634
tp4635
a(V$d
p4636
V2
p4637
tp4638
a(V$x
p4639
V80
p4640
tp4641
a(V$a
p4642
V2.58199
p4643
tp4644
aV2015-11-04 21:40:29
p4645
tp4646
a(g2377
Vsqrt(1/12)*65
p4647
(lp4648
(S'R.0'
p4649
F0.2886751345948129
V1/sqrt(12)
p4650
Vsqrt(1/12)
p4651
tp4652
aVk3tan
p4653
g2855
V2015-11-04 21:47:24
p4654
tp4655
a(g2377
V(sqrt(1/12))*65
p4656
(lp4657
(S'R.0'
p4658
F0.2886751345948129
V1/sqrt(12)
p4659
Vsqrt(1/12)
p4660
tp4661
aVk3tan
p4662
g2855
V2015-11-04 21:47:38
p4663
tp4664
a(g2380
V0.288675*60
p4665
(lp4666
(S'R.0'
p4667
F0.2886751345948129
V1/sqrt(12)
p4668
V0.288675
p4669
tp4670
aVhaw081
p4671
(lp4672
(V$n
p4673
V0
p4674
tp4675
a(V$phi
p4676
V3
p4677
tp4678
a(V$d
p4679
V2
p4680
tp4681
a(V$x
p4682
V60
p4683
tp4684
a(V$a
p4685
V2.23607
p4686
tp4687
aV2015-11-04 22:56:30
p4688
tp4689
a(g2380
Vsqrt(1/12(0.5--0.5)^2)/60
p4690
(lp4691
(S'R.0'
p4692
F0.2886751345948129
V1/sqrt(12)
p4693
Vsqrt(1/12(0.5--0.5)^2)
p4694
tp4695
aVhaw081
p4696
g4672
V2015-11-04 23:05:36
p4697
tp4698
a(V1/sqrt(12)*sqrt(80)
p4699
V((1/12)^0.5)/(8^0.5)
p4700
(lp4701
(S'R.0'
p4702
F0.2886751345948129
V1/sqrt(12)
p4703
V(1/12)^0.5
p4704
tp4705
aVacvuong
p4706
(lp4707
(V$n
p4708
V0
p4709
tp4710
a(V$phi
p4711
V2
p4712
tp4713
a(V$d
p4714
V2
p4715
tp4716
a(V$x
p4717
V80
p4718
tp4719
a(V$a
p4720
V2.58199
p4721
tp4722
aV2015-11-05 01:13:54
p4723
tp4724
a(g2409
Vsqrt(1/12)/95
p4725
(lp4726
(S'R.0'
p4727
F0.2886751345948129
V1/sqrt(12)
p4728
Vsqrt(1/12)
p4729
tp4730
aVc1wei
p4731
g3129
V2015-11-05 05:06:44
p4732
tp4733
a(g3195
Vsqrt(1/12) * 80
p4734
(lp4735
(S'R.0'
p4736
F0.2886751345948129
V1/sqrt(12)
p4737
Vsqrt(1/12)
p4738
tp4739
aVjfalcone
p4740
g3201
V2015-11-05 05:56:45
p4741
tp4742
a(g3226
V1/sqrt(12)*sqrt(50)
p4743
(lp4744
(S'R.0'
p4745
F0.2886751345948129
V1/sqrt(12)
p4746
V1/sqrt(12)
p4747
tp4748
aVnhn018
p4749
g1800
V2015-11-05 06:01:43
p4750
tp4751
a(V1/sqrt(12)*sqrt(75)
p4752
Vsqrt(1/12(1))*75
p4753
(lp4754
(S'R.0'
p4755
F0.2886751345948129
V1/sqrt(12)
p4756
Vsqrt(1/12(1))
p4757
tp4758
aVklala
p4759
g1838
V2015-11-05 06:49:45
p4760
tp4761
a(g2424
Vsqrt(1/12) * 90
p4762
(lp4763
(S'R.0'
p4764
F0.2886751345948129
V1/sqrt(12)
p4765
Vsqrt(1/12)
p4766
tp4767
aVcagatep
p4768
(lp4769
(V$n
p4770
V0
p4771
tp4772
a(V$phi
p4773
V4
p4774
tp4775
a(V$d
p4776
V2
p4777
tp4778
a(V$x
p4779
V90
p4780
tp4781
a(V$a
p4782
V2.73861
p4783
tp4784
aV2015-11-05 07:54:50
p4785
tp4786
a(g2427
Vsqrt(1/12(1)) * 75
p4787
(lp4788
(S'R.0'
p4789
F0.2886751345948129
V1/sqrt(12)
p4790
Vsqrt(1/12(1))
p4791
tp4792
aVgsrandha
p4793
g630
V2015-11-05 09:07:44
p4794
tp4795
a(V1/sqrt(12)*sqrt(60)
p4796
Vsqrt(1/sqrt(12))
p4797
(lp4798
(S'R.0'
p4799
F0.2886751345948129
V1/sqrt(12)
p4800
V1/sqrt(12)
p4801
tp4802
aVdan029
p4803
(lp4804
(V$n
p4805
V0
p4806
tp4807
a(V$phi
p4808
V4
p4809
tp4810
a(V$d
p4811
V2
p4812
tp4813
a(V$x
p4814
V60
p4815
tp4816
a(V$a
p4817
V2.23607
p4818
tp4819
aV2015-11-05 09:42:28
p4820
tp4821
a(g2430
V(((1/12)(1))^(.5))/2
p4822
(lp4823
(S'R.0'
p4824
F0.2886751345948129
V1/sqrt(12)
p4825
V((1/12)(1))^(.5)
p4826
tp4827
aVdac064
p4828
(lp4829
(V$n
p4830
V0
p4831
tp4832
a(V$phi
p4833
V3
p4834
tp4835
a(V$d
p4836
V2
p4837
tp4838
a(V$x
p4839
V90
p4840
tp4841
a(V$a
p4842
V2.73861
p4843
tp4844
aV2015-11-05 09:44:44
p4845
tp4846
a(V1/sqrt(12)*sqrt(90)
p4847
V(1/12)^0.5*90
p4848
(lp4849
(S'R.0'
p4850
F0.2886751345948129
V1/sqrt(12)
p4851
V(1/12)^0.5
p4852
tp4853
aVz3meng
p4854
(lp4855
(V$n
p4856
V0
p4857
tp4858
a(V$phi
p4859
V2
p4860
tp4861
a(V$d
p4862
V2
p4863
tp4864
a(V$x
p4865
V90
p4866
tp4867
a(V$a
p4868
V2.73861
p4869
tp4870
aV2015-11-05 09:56:37
p4871
tp4872
a(g3234
V1/(12)^(1/2) + 1/(12)^(1/2)
p4873
(lp4874
(S'R.0'
p4875
F0.2886751345948129
V1/sqrt(12)
p4876
V1/(12)^(1/2)
p4877
tp4878
aVjhp077
p4879
g3240
V2015-11-05 13:55:31
p4880
tp4881
a(V1/sqrt(12)*sqrt(100)
p4882
Vsqrt((1/12)*(1)^2)*100
p4883
(lp4884
(S'R.0'
p4885
F0.2886751345948129
V1/sqrt(12)
p4886
Vsqrt((1/12)*(1)^2)
p4887
tp4888
aVbakang
p4889
(lp4890
(V$n
p4891
V0
p4892
tp4893
a(V$phi
p4894
V2
p4895
tp4896
a(V$d
p4897
V2
p4898
tp4899
a(V$x
p4900
V100
p4901
tp4902
a(V$a
p4903
V2.88675
p4904
tp4905
aV2015-11-05 16:32:45
p4906
tp4907
a(g4882
Vsqrt((1/12)*(1)^2)*99
p4908
(lp4909
(S'R.0'
p4910
F0.2886751345948129
V1/sqrt(12)
p4911
Vsqrt((1/12)*(1)^2)
p4912
tp4913
aVbakang
p4914
g4890
V2015-11-05 16:34:25
p4915
tp4916
a(V1/sqrt(12)*sqrt(60)
p4917
V(1/12)^0.5*60
p4918
(lp4919
(S'R.0'
p4920
F0.2886751345948129
V1/sqrt(12)
p4921
V(1/12)^0.5
p4922
tp4923
aVjit002
p4924
(lp4925
(V$n
p4926
V0
p4927
tp4928
a(V$phi
p4929
V2
p4930
tp4931
a(V$d
p4932
V2
p4933
tp4934
a(V$x
p4935
V60
p4936
tp4937
a(V$a
p4938
V2.23607
p4939
tp4940
aV2015-11-05 18:42:23
p4941
tp4942
a(V1/sqrt(12)*sqrt(55)
p4943
Vsqrt(1/12)*2
p4944
(lp4945
(S'R.0'
p4946
F0.2886751345948129
V1/sqrt(12)
p4947
Vsqrt(1/12)
p4948
tp4949
aVdsriniva
p4950
(lp4951
(V$n
p4952
V0
p4953
tp4954
a(V$phi
p4955
V4
p4956
tp4957
a(V$d
p4958
V2
p4959
tp4960
a(V$x
p4961
V55
p4962
tp4963
a(V$a
p4964
V2.14087
p4965
tp4966
aV2015-11-05 19:36:59
p4967
tp4968
a(g4943
Vsqrt(1/12)/2
p4969
(lp4970
(S'R.0'
p4971
F0.2886751345948129
V1/sqrt(12)
p4972
Vsqrt(1/12)
p4973
tp4974
aVdsriniva
p4975
g4951
V2015-11-05 19:39:06
p4976
tp4977
a(g4943
Vsqrt(1/12)/55
p4978
(lp4979
(S'R.0'
p4980
F0.2886751345948129
V1/sqrt(12)
p4981
Vsqrt(1/12)
p4982
tp4983
aVdsriniva
p4984
g4951
V2015-11-05 19:39:11
p4985
tp4986
a(V1/sqrt(12)*sqrt(75)
p4987
V(1/12(1)^2)^(1/2) * 75
p4988
(lp4989
(S'R.0'
p4990
F0.2886751345948129
V1/sqrt(12)
p4991
V(1/12(1)^2)^(1/2)
p4992
tp4993
aVmhale
p4994
(lp4995
(V$n
p4996
V0
p4997
tp4998
a(V$phi
p4999
V4
p5000
tp5001
a(V$d
p5002
V2
p5003
tp5004
a(V$x
p5005
V75
p5006
tp5007
a(V$a
p5008
V2.5
p5009
tp5010
aV2015-11-05 20:39:43
p5011
tp5012
a(g3381
Vsqrt(1/12)45
p5013
(lp5014
(S'R.0'
p5015
F0.2886751345948129
V1/sqrt(12)
p5016
Vsqrt(1/12)
p5017
tp5018
aVtcn013
p5019
g3387
V2015-11-05 20:59:48
p5020
tp5021
a(V1/sqrt(12)*sqrt(65)
p5022
Vsqrt(1/12)*6
p5023
(lp5024
(S'R.0'
p5025
F0.2886751345948129
V1/sqrt(12)
p5026
Vsqrt(1/12)
p5027
tp5028
aVmtrafeca
p5029
g2089
V2015-11-05 21:28:18
p5030
tp5031
a(g5022
Vsqrt(1/12)*65
p5032
(lp5033
(S'R.0'
p5034
F0.2886751345948129
V1/sqrt(12)
p5035
Vsqrt(1/12)
p5036
tp5037
aVmtrafeca
p5038
g2089
V2015-11-05 21:28:25
p5039
tp5040
a(g2427
Vsqrt(1/12(1)) * 75
p5041
(lp5042
(S'R.0'
p5043
F0.2886751345948129
V1/sqrt(12)
p5044
Vsqrt(1/12(1))
p5045
tp5046
aVgsrandha
p5047
g630
V2015-11-05 21:41:47
p5048
tp5049
a(g2427
Vsqrt(1/12(1)) /2
p5050
(lp5051
(S'R.0'
p5052
F0.2886751345948129
V1/sqrt(12)
p5053
Vsqrt(1/12(1))
p5054
tp5055
aVgsrandha
p5056
g630
V2015-11-05 21:41:58
p5057
tp5058
a(g2427
Vsqrt(1/12(1))^75
p5059
(lp5060
(S'R.0'
p5061
F0.2886751345948129
V1/sqrt(12)
p5062
Vsqrt(1/12(1))
p5063
tp5064
aVgsrandha
p5065
g630
V2015-11-05 21:44:18
p5066
tp5067
a(g2427
V0.288675 * 75
p5068
(lp5069
(S'R.0'
p5070
F0.2886751345948129
V1/sqrt(12)
p5071
V0.288675
p5072
tp5073
aVgsrandha
p5074
g630
V2015-11-05 21:46:24
p5075
tp5076
a(g3467
V(1/12)^(0.5)(45)
p5077
(lp5078
(S'R.0'
p5079
F0.2886751345948129
V1/sqrt(12)
p5080
V(1/12)^(0.5)
p5081
tp5082
aVccn001
p5083
g3473
V2015-11-05 22:29:23
p5084
tp5085
a(V1/sqrt(12)*sqrt(75)
p5086
V0.288675*75
p5087
(lp5088
(S'R.0'
p5089
F0.2886751345948129
V1/sqrt(12)
p5090
V0.288675
p5091
tp5092
aVajabasa
p5093
(lp5094
(V$n
p5095
V0
p5096
tp5097
a(V$phi
p5098
V4
p5099
tp5100
a(V$d
p5101
V2
p5102
tp5103
a(V$x
p5104
V75
p5105
tp5106
a(V$a
p5107
V2.5
p5108
tp5109
aV2015-11-05 22:32:03
p5110
tp5111
a(g3467
V(1/12)^(0.5)(22.5)
p5112
(lp5113
(S'R.0'
p5114
F0.2886751345948129
V1/sqrt(12)
p5115
V(1/12)^(0.5)
p5116
tp5117
aVccn001
p5118
g3473
V2015-11-05 22:37:46
p5119
tp5120
a(g3467
V(1/12)^(0.5)(90)
p5121
(lp5122
(S'R.0'
p5123
F0.2886751345948129
V1/sqrt(12)
p5124
V(1/12)^(0.5)
p5125
tp5126
aVccn001
p5127
g3473
V2015-11-05 22:38:13
p5128
tp5129
a(g2362
Vsqrt((1/12))/1
p5130
(lp5131
(S'R.0'
p5132
F0.2886751345948129
V1/sqrt(12)
p5133
Vsqrt((1/12))
p5134
tp5135
aVlywong
p5136
g395
V2015-11-06 00:03:06
p5137
tp5138
a(g2362
Vsqrt((1/12))*10
p5139
(lp5140
(S'R.0'
p5141
F0.2886751345948129
V1/sqrt(12)
p5142
Vsqrt((1/12))
p5143
tp5144
aVlywong
p5145
g395
V2015-11-06 00:04:00
p5146
tp5147
a(g2362
Vsqrt((1/12))*50
p5148
(lp5149
(S'R.0'
p5150
F0.2886751345948129
V1/sqrt(12)
p5151
Vsqrt((1/12))
p5152
tp5153
aVlywong
p5154
g395
V2015-11-06 00:04:22
p5155
tp5156
a(g3618
V(1/12)^(1/2) * 85
p5157
(lp5158
(S'R.0'
p5159
F0.2886751345948129
V1/sqrt(12)
p5160
V(1/12)^(1/2)
p5161
tp5162
aVdgunawan
p5163
g3624
V2015-11-06 00:17:17
p5164
tp5165
a(g3649
Vsqrt(1/12) * 80
p5166
(lp5167
(S'R.0'
p5168
F0.2886751345948129
V1/sqrt(12)
p5169
Vsqrt(1/12)
p5170
tp5171
aVkew017
p5172
g3655
V2015-11-06 01:40:58
p5173
tp5174
a(g2469
Vsqrt(1/12*(1)^2)*65
p5175
(lp5176
(S'R.0'
p5177
F0.2886751345948129
V1/sqrt(12)
p5178
Vsqrt(1/12*(1)^2)
p5179
tp5180
aVpnquach
p5181
(lp5182
(V$n
p5183
V0
p5184
tp5185
a(V$phi
p5186
V4
p5187
tp5188
a(V$d
p5189
V2
p5190
tp5191
a(V$x
p5192
V65
p5193
tp5194
a(V$a
p5195
V2.32737
p5196
tp5197
aV2015-11-06 05:54:51
p5198
tp5199
a(V1/sqrt(12)*sqrt(95)
p5200
V0.288675135*95
p5201
(lp5202
(S'R.0'
p5203
F0.2886751345948129
V1/sqrt(12)
p5204
V0.288675135
p5205
tp5206
aVtstevens
p5207
g1525
V2015-11-06 12:13:45
p5208
tp5209
a(g3836
Vsqrt(1/12)/90
p5210
(lp5211
(S'R.0'
p5212
F0.2886751345948129
V1/sqrt(12)
p5213
Vsqrt(1/12)
p5214
tp5215
aVakg009
p5216
g3842
V2015-11-06 21:15:01
p5217
tp5218
a(g2486
Vsqrt(1/12)*40
p5219
(lp5220
(S'R.0'
p5221
F0.2886751345948129
V1/sqrt(12)
p5222
Vsqrt(1/12)
p5223
tp5224
aVppanourg
p5225
g3865
V2015-11-06 21:15:11
p5226
tp5227
a(g3836
Vsqrt(1/12)/45
p5228
(lp5229
(S'R.0'
p5230
F0.2886751345948129
V1/sqrt(12)
p5231
Vsqrt(1/12)
p5232
tp5233
aVakg009
p5234
g3842
V2015-11-06 21:15:17
p5235
tp5236
a(V1/sqrt(12)*sqrt(100)
p5237
V0.288675*100
p5238
(lp5239
(S'R.0'
p5240
F0.2886751345948129
V1/sqrt(12)
p5241
V0.288675
p5242
tp5243
aVdcrume
p5244
g795
V2015-11-06 21:16:40
p5245
tp5246
a(V1/sqrt(12)*sqrt(50)
p5247
Vsqrt(1/12)*50
p5248
(lp5249
(S'R.0'
p5250
F0.2886751345948129
V1/sqrt(12)
p5251
Vsqrt(1/12)
p5252
tp5253
aVk4ma
p5254
(lp5255
(V$n
p5256
V0
p5257
tp5258
a(V$phi
p5259
V2
p5260
tp5261
a(V$d
p5262
V2
p5263
tp5264
a(V$x
p5265
V50
p5266
tp5267
a(V$a
p5268
V2.04124
p5269
tp5270
aV2015-11-06 21:53:06
p5271
tp5272
a(g3836
V(sqrt(1/12))^90
p5273
(lp5274
(S'R.0'
p5275
F0.2886751345948129
V1/sqrt(12)
p5276
Vsqrt(1/12)
p5277
tp5278
aVakg009
p5279
g3842
V2015-11-06 22:02:33
p5280
tp5281
a(g2497
V(((1/12)(1)^(2))^(1/2))*80
p5282
(lp5283
(S'R.0'
p5284
F0.2886751345948129
V1/sqrt(12)
p5285
V((1/12)(1)^(2))^(1/2)
p5286
tp5287
aVmitopete
p5288
g360
V2015-11-06 23:33:43
p5289
tp5290
a(V1/sqrt(12)*sqrt(75)
p5291
V(sqrt(1/12))^75
p5292
(lp5293
(S'R.0'
p5294
F0.2886751345948129
V1/sqrt(12)
p5295
Vsqrt(1/12)
p5296
tp5297
aVh4tu
p5298
g1586
V2015-11-06 23:52:35
p5299
tp5300
a(g4288
V(1/12)^0.5/12
p5301
(lp5302
(S'R.0'
p5303
F0.2886751345948129
V1/sqrt(12)
p5304
V(1/12)^0.5
p5305
tp5306
aVzhw110
p5307
(lp5308
(V$n
p5309
V0
p5310
tp5311
a(V$phi
p5312
V5
p5313
tp5314
a(V$d
p5315
V2
p5316
tp5317
a(V$x
p5318
V85
p5319
tp5320
a(V$a
p5321
V2.66145
p5322
tp5323
aV2015-11-07 00:05:15
p5324
tp5325
a(g2513
Vsqrt(((.5+.5)^2)/12)*90
p5326
(lp5327
(S'R.0'
p5328
F0.2886751345948129
V1/sqrt(12)
p5329
Vsqrt(((.5+.5)^2)/12)
p5330
tp5331
aVyjshin
p5332
g3935
V2015-11-07 00:08:56
p5333
tp5334
a(g2500
Vsqrt(1/12)*2
p5335
(lp5336
(S'R.0'
p5337
F0.2886751345948129
V1/sqrt(12)
p5338
Vsqrt(1/12)
p5339
tp5340
aVawollner
p5341
g3958
V2015-11-07 00:35:16
p5342
tp5343
a(g2500
Vsqrt(1/12)*100
p5344
(lp5345
(S'R.0'
p5346
F0.2886751345948129
V1/sqrt(12)
p5347
Vsqrt(1/12)
p5348
tp5349
aVawollner
p5350
g3958
V2015-11-07 00:35:43
p5351
tp5352
asg1243
(lp5353
(g2475
V-0.5
p5354
tp5355
asS"['R.0.1']"
p5356
(lp5357
(g4796
Vsqrt(60/sqrt(12))
p5358
(lp5359
(S'R.0.1'
p5360
F3.4641016151377544
Vsqrt(12)
p5361
Vsqrt(12)
p5362
tp5363
aVdan029
p5364
g4804
V2015-11-05 09:42:15
p5365
tp5366
a(g4796
Vsqrt(60/sqrt(12))
p5367
(lp5368
(S'R.0.1'
p5369
F3.4641016151377544
Vsqrt(12)
p5370
Vsqrt(12)
p5371
tp5372
aVdan029
p5373
g4804
V2015-11-05 09:57:48
p5374
tp5375
asS"['R.0.0', 'R.1']"
p5376
(lp5377
(g3467
V(1/12)(22.5+22.5)^(0.5)
p5378
(lp5379
(S'R.0.0'
p5380
F1.0
g1150
g1150
tp5381
a(S'R.1'
p5382
F6.708203932499369
Vsqrt(45)
p5383
V(22.5+22.5)^(0.5)
p5384
tp5385
aVccn001
p5386
g3473
V2015-11-05 22:23:55
p5387
tp5388
assV7
p5389
g2
(g3
tp5390
Rp5391
g6
(lp5392
(V2*Q(3/2.04124)
p5393
V12
p5394
tp5395
a(V2*Q(3/2.5)
p5396
V0
p5397
tp5398
a(V2*Q(2/2.88675)
p5399
V1
p5400
tp5401
a(V2*Q(5/2.23607)
p5402
V1
p5403
tp5404
a(V2*Q(3/2.04124)
p5405
V0
p5406
tp5407
a(g5405
V1
p5408
tp5409
a(V2*Q(2/2.41523)
p5410
V0
p5411
tp5412
a(V2*Q(3/2.81366)
p5413
V1
p5414
tp5415
a(V2*Q(3/2.58199)
p5416
V0
p5417
tp5418
a(V2*Q(5/2.58199)
p5419
V1
p5420
tp5421
a(g5393
V1
p5422
tp5423
a(V2*Q(5/2.81366)
p5424
V0
p5425
tp5426
a(V2*Q(3/2.81366)
p5427
V1
p5428
tp5429
a(V2*Q(3/2.5)
p5430
V0
p5431
tp5432
a(V2*Q(4/2.58199)
p5433
V0
p5434
tp5435
a(g5433
V1
p5436
tp5437
a(V2*Q(5/2.58199)
p5438
V1
p5439
tp5440
a(V2*Q(2/2.32737)
p5441
V2
p5442
tp5443
a(V2*Q(4/2.81366)
p5444
V0
p5445
tp5446
a(V2*Q(2/2.81366)
p5447
V0
p5448
tp5449
a(V2*Q(3/2.04124)
p5450
V1
p5451
tp5452
a(V2*Q(4/2.41523)
p5453
V1
p5454
tp5455
a(V2*Q(5/2.32737)
p5456
V0
p5457
tp5458
a(V2*Q(5/2.41523)
p5459
V1
p5460
tp5461
a(V2*Q(5/2.58199)
p5462
V1
p5463
tp5464
a(V2*Q(3/2.81366)
p5465
V1
p5466
tp5467
a(V2*Q(3/2.66145)
p5468
V1
p5469
tp5470
asg163
(lp5471
(V2*Q(4/2.88675)
p5472
V1 - ( 1 / ((4 - 0) / (sqrt(100/12))))
p5473
tp5474
a(g5472
V1 - ((100/12) / 16)
p5475
tp5476
a(V2*Q(2/2.66145)
p5477
V2 * Q([ (2)-(0) ]/ ((1/12)( (85*0.5) - (85*-0.5) ) **2))
p5478
tp5479
a(V2*Q(4/2.58199)
p5480
V1-0.72575
p5481
tp5482
a(g5480
V0.72575
p5483
tp5484
a(V2*Q(4/1.82574)
p5485
V0.025
p5486
tp5487
a(g5485
V0.0278
p5488
tp5489
a(g5485
V0.0286
p5490
tp5491
a(g5485
V0.0143
p5492
tp5493
a(g5485
V0.0286
p5494
tp5495
a(V2*Q(5/2.23607)
p5496
V5-sqrt(60*(1/12))
p5497
tp5498
a(V2*Q(5/2.5)
p5499
V2(1-.9938)
p5500
tp5501
a(g5499
V2(1-.9772)
p5502
tp5503
a(g5499
V(1-.9772)
p5504
tp5505
a(g5499
V.25
p5506
tp5507
a(g5499
V.025
p5508
tp5509
a(g5499
V.0456
p5510
tp5511
a(V2*Q(2/2.04124)
p5512
V2*(2+50)/(100)
p5513
tp5514
a(g5512
V2*(1-(2+50)/(100))
p5515
tp5516
a(g5512
V2*(1-(2+25)/(50))
p5517
tp5518
a(V2*Q(2/2.5)
p5519
VPhi((2 - 0) / ((1/12)^(1/2) * (0.5 + 0.5) * 75))
p5520
tp5521
a(V2*Q(5/2.81366)
p5522
V1-1/(5/sqrt(95/12))
p5523
tp5524
a(g5522
V1/(5/sqrt(95/12))
p5525
tp5526
a(g5522
V.04006
p5527
tp5528
a(g5522
V.03216
p5529
tp5530
a(V2*Q(3/2.32737)
p5531
V2*Q(3)/((65/12)^(1/2))
p5532
tp5533
a(V2*Q(5/2.58199)
p5534
V0.4732
p5535
tp5536
a(g5534
VQ(5)
p5537
tp5538
a(V2*Q(4/2.73861)
p5539
V1-Phi(4)
p5540
tp5541
a(g5427
V.85684
p5542
tp5543
a(g5430
VQ(3)
p5544
tp5545
a(g5430
V1-Phi(3)
p5546
tp5547
a(V2*Q(3/2.58199)
p5548
V1-.8770
p5549
tp5550
a(g5548
V(1-.8770)*2
p5551
tp5552
a(V2*Q(4/2.88675)
p5553
VQ(4)
p5554
tp5555
a(g5433
V4/((80/12)^(1/2))
p5556
tp5557
a(g5433
VQ(4) / (4/((80/12)^(1/2)))
p5558
tp5559
a(g5433
VQ(4/(80/12)^(1/2))
p5560
tp5561
a(V2*Q(4/2.58199)
p5562
VPhi(4)
p5563
tp5564
a(V2*Q(2/2.58199)
p5565
V1 - 2/ sqrt(80/12)
p5566
tp5567
a(g5565
V0.7794
p5568
tp5569
a(g5565
V1 - 0.7794
p5570
tp5571
a(V2*Q(5/2.73861)
p5572
V(1-.9664)*2
p5573
tp5574
a(g5572
V.96638/2
p5575
tp5576
a(g5572
V1-.96638
p5577
tp5578
a(g5572
V(1-.96638)*2
p5579
tp5580
a(V2*Q(4/2.04124)
p5581
VQ(4/2.04124)
p5582
tp5583
a(g5581
VQ(4/2.04124) + Q(-4/2.04124)
p5584
tp5585
a(g5430
VQ(1-Phi(3))
p5586
tp5587
a(V2*Q(5/1.82574)
p5588
V(1-Phi(2/sqrt(40/12)))*2
p5589
tp5590
a(g5430
VQ(1-Phi(3)) * 2
p5591
tp5592
a(g5430
V(1-Phi(3)) * 2
p5593
tp5594
a(g5430
V3 / 2.5
p5595
tp5596
a(V2*Q(2/1.93649)
p5597
VPhi(2/((1/12)(22.5+22.5)^(0.5)))
p5598
tp5599
a(g5597
VPhi(2/(((1/12)(22.5+22.5)^(2))^(0.5)))
p5600
tp5601
a(g5597
VQ(2/((1/12)^(0.5)(45)))+Phi(2/((1/12)^(0.5)(45)))
p5602
tp5603
a(V2*Q(3/2.88675)
p5604
VQ(3/(sqrt(40)/sqrt(12)))
p5605
tp5606
a(V2*Q(3/2.73861)
p5607
V0.833028
p5608
tp5609
a(V2*Q(5/2.66145)
p5610
V[5-((-.5+.5)/2 *85)]/[(85/12)^(1/2)]
p5611
tp5612
a(V2*Q(5/2.04124)
p5613
VQ(sqrt(1/12 * 50))
p5614
tp5615
a(V2*Q(5/2.5)
p5616
V2*Q(5)
p5617
tp5618
a(V2*Q(5/2.81366)
p5619
V0.0375
p5620
tp5621
a(g5619
V1-0.0375
p5622
tp5623
a(V2*Q(2/2.32737)
p5624
V1-(2/sqrt(65/12))
p5625
tp5626
a(V2*Q(4/2.32737)
p5627
VPhi((4)/(sqrt(1/12*(1)^2)*65))
p5628
tp5629
a(V2*Q(4/2.32737)
p5630
V.0436*2
p5631
tp5632
a(g5459
V(5-0)/(1/12(70))^(1/2)
p5633
tp5634
a(V2*Q(4/2.14087)
p5635
V2.871656*10^(-2)
p5636
tp5637
a(V2*Q(3/1.93649)
p5638
VPhi([3 - 0]/ (45/12)^(1/2))
p5639
tp5640
a(V2*Q(3/2.32737)
p5641
V1-Phi(1.28901)
p5642
tp5643
a(g5462
V1-Phi(5)
p5644
tp5645
a(V2*Q(3/1.82574)
p5646
V.4495
p5647
tp5648
a(g5646
V1-.4495
p5649
tp5650
a(V2*Q(2/2.73861)
p5651
VQ(2)
p5652
tp5653
a(g5646
V.9495
p5654
tp5655
a(g5646
V1-.9495
p5656
tp5657
a(g5646
V1-Phi(3)
p5658
tp5659
a(g5651
V1-Q(2)
p5660
tp5661
a(V2*Q(4/2.41523)
p5662
VPhi(4)
p5663
tp5664
a(V2*Q(3/2.5)
p5665
V1-.885
p5666
tp5667
a(g5662
VPhi(48)
p5668
tp5669
a(g5662
VPhi(4/[sqrt(1/12)])
p5670
tp5671
a(V2*Q(3/2.58199)
p5672
V0.877362 * 2
p5673
tp5674
a(g5672
V0.877362
p5675
tp5676
a(V2*Q(3/2.81366)
p5677
V.286
p5678
tp5679
a(V2*Q(5/2.66145)
p5680
VQ(5/((85/12)^0.5))
p5681
tp5682
a(V2*Q(4/2.41523)
p5683
V4/sqrt(70/12)
p5684
tp5685
a(V2*Q(4/2.32737)
p5686
VQ(3/(sqrt(100)/sqrt(12)))*2
p5687
tp5688
a(g5686
VQ(3/(sqrt(65)/sqrt(12)))*2
p5689
tp5690
asS"['R.0', 'R.1.0.0']"
p5691
(lp5692
(V2*Q(5/2.58199)
p5693
V2(Q(5/(1/sqrt(12)*sqrt(50))))
p5694
(lp5695
(S'R.0'
p5696
F2.0
g1773
g1773
tp5697
a(S'R.1.0.0'
p5698
F5.0
g1980
g1980
tp5699
aVjcl084
p5700
g4426
V2015-11-02 20:43:41
p5701
tp5702
a(V2*Q(4/1.93649)
p5703
V2*Q(4/(sqrt(12)*sqrt(50)))
p5704
(lp5705
(S'R.0'
p5706
F2.0
g1773
g1773
tp5707
a(S'R.1.0.0'
p5708
F4.0
g1697
g1697
tp5709
aVnhn018
p5710
g1800
V2015-11-05 06:02:21
p5711
tp5712
a(g5703
V2*Q(4/(sqrt(12)*sqrt(45)))
p5713
(lp5714
(S'R.0'
p5715
F2.0
g1773
g1773
tp5716
a(S'R.1.0.0'
p5717
F4.0
g1697
g1697
tp5718
aVnhn018
p5719
g1800
V2015-11-05 06:03:05
p5720
tp5721
a(g5703
V2*Q(4/(sqrt(12)*sqrt(45)))
p5722
(lp5723
(S'R.0'
p5724
F2.0
g1773
g1773
tp5725
a(S'R.1.0.0'
p5726
F4.0
g1697
g1697
tp5727
aVnhn018
p5728
g1800
V2015-11-05 20:14:44
p5729
tp5730
a(g5468
V2*1-Phi((3-0)/[85(.5+.5)^2/12]^(1/2))
p5731
(lp5732
(S'R.0'
p5733
F2.0
g1773
V2*1
p5734
tp5735
a(S'R.1.0.0'
p5736
F3.0
g1748
V3-0
p5737
tp5738
aVasp025
p5739
g2199
V2015-11-07 00:15:01
p5740
tp5741
asS"['R.1.0']"
p5742
(lp5743
(V2*Q(3/2.88675)
p5744
VPhi(6/2.88675)-Phi(3/2.88675)
p5745
(lp5746
(S'R.1.0'
p5747
F1.0392309690828787
V3/2.88675
p5748
V3/2.88675
p5749
tp5750
aVtol003
p5751
(lp5752
(V$n
p5753
V0
p5754
tp5755
a(V$phi
p5756
V3
p5757
tp5758
a(V$d
p5759
V2
p5760
tp5761
a(V$x
p5762
V100
p5763
tp5764
a(V$a
p5765
V2.88675
p5766
tp5767
aV2015-11-03 23:24:10
p5768
tp5769
a(V2*Q(4/1.93649)
p5770
V4*Q(4/sqrt(45/12))
p5771
(lp5772
(S'R.1.0'
p5773
F2.0655929026227864
V4/1.93649
p5774
V4/sqrt(45/12)
p5775
tp5776
aVaggouw
p5777
g1701
V2015-11-04 09:14:18
p5778
tp5779
a(V2*Q(3/2.58199)
p5780
V1-Phi([3]/[sqrt((80/12)(0.5-(-0.5))^2)])
p5781
(lp5782
(S'R.1.0'
p5783
F1.161894507724662
V3/2.58199
p5784
V[3]/[sqrt((80/12)(0.5-(-0.5))^2)]
p5785
tp5786
aVttimmons
p5787
g334
V2015-11-04 20:08:36
p5788
tp5789
a(g5393
V1-Q(3/sqrt(50/12))
p5790
(lp5791
(S'R.1.0'
p5792
F1.4696948913405576
V3/2.04124
p5793
V3/sqrt(50/12)
p5794
tp5795
aVhkhodada
p5796
(lp5797
(V$n
p5798
V0
p5799
tp5800
a(V$phi
p5801
V3
p5802
tp5803
a(V$d
p5804
V2
p5805
tp5806
a(V$x
p5807
V50
p5808
tp5809
a(V$a
p5810
V2.04124
p5811
tp5812
aV2015-11-05 03:31:14
p5813
tp5814
a(g5393
V1-Phi(3/sqrt(50/12))
p5815
(lp5816
(S'R.1.0'
p5817
F1.4696948913405576
V3/2.04124
p5818
V3/sqrt(50/12)
p5819
tp5820
aVhkhodada
p5821
g5797
V2015-11-05 03:32:54
p5822
tp5823
a(V2*Q(4/2.04124)
p5824
V1-Q(4/(1/sqrt(12)*sqrt(50)))
p5825
(lp5826
(S'R.1.0'
p5827
F1.9595931884540767
V4/2.04124
p5828
V4/(1/sqrt(12)*sqrt(50))
p5829
tp5830
aVm4salaza
p5831
g2037
V2015-11-05 05:47:39
p5832
tp5833
a(V2*Q(2/1.93649)
p5834
V1-Phi((2-(-.5+.5)/2)/sqrt(1/12*(.5+.5)^2*45))
p5835
(lp5836
(S'R.1.0'
p5837
F1.0327964513113932
V2/1.93649
p5838
V(2-(-.5+.5)/2)/sqrt(1/12*(.5+.5)^2*45)
p5839
tp5840
aVyypan
p5841
(lp5842
(V$n
p5843
V0
p5844
tp5845
a(V$phi
p5846
V2
p5847
tp5848
a(V$d
p5849
V2
p5850
tp5851
a(V$x
p5852
V45
p5853
tp5854
a(V$a
p5855
V1.93649
p5856
tp5857
aV2015-11-05 06:47:26
p5858
tp5859
a(g5834
V1-Q((2-(-.5+.5)/2)/sqrt(1/12*(.5+.5)^2*45))
p5860
(lp5861
(S'R.1.0'
p5862
F1.0327964513113932
V2/1.93649
p5863
V(2-(-.5+.5)/2)/sqrt(1/12*(.5+.5)^2*45)
p5864
tp5865
aVyypan
p5866
g5842
V2015-11-05 06:47:40
p5867
tp5868
a(g5548
V1 - Phi((3-0)/((80/12)^(1/2)))
p5869
(lp5870
(S'R.1.0'
p5871
F1.161894507724662
V3/2.58199
p5872
V(3-0)/((80/12)^(1/2))
p5873
tp5874
aVj2phung
p5875
(lp5876
(V$n
p5877
V0
p5878
tp5879
a(V$phi
p5880
V3
p5881
tp5882
a(V$d
p5883
V2
p5884
tp5885
a(V$x
p5886
V80
p5887
tp5888
a(V$a
p5889
V2.58199
p5890
tp5891
aV2015-11-05 11:18:11
p5892
tp5893
a(V2*Q(2/2.88675)
p5894
VQ((2)/(sqrt((1/12)*(1)^2*100)))+Phi((2)/(sqrt((1/12)*(1)^2*100)))
p5895
(lp5896
(S'R.1.0'
p5897
F0.6928206460552524
V2/2.88675
p5898
V(2)/(sqrt((1/12)*(1)^2*100))
p5899
tp5900
aVbakang
p5901
g4890
V2015-11-05 17:01:41
p5902
tp5903
a(V2*Q(2/1.93649)
p5904
V2Phi(2/((45(1/12))**.5))
p5905
(lp5906
(S'R.1.0'
p5907
F1.0327964513113932
V2/1.93649
p5908
V2/((45(1/12))**.5)
p5909
tp5910
aVtcuddy
p5911
g3319
V2015-11-05 18:56:52
p5912
tp5913
a(V2*Q(4/2.88675)
p5914
V1-Q(4/sqrt(100(1/12)(.5+.5)^2))
p5915
(lp5916
(S'R.1.0'
p5917
F1.3856412921105048
V4/2.88675
p5918
V4/sqrt(100(1/12)(.5+.5)^2)
p5919
tp5920
aVt2shin
p5921
(lp5922
(V$n
p5923
V0
p5924
tp5925
a(V$phi
p5926
V4
p5927
tp5928
a(V$d
p5929
V2
p5930
tp5931
a(V$x
p5932
V100
p5933
tp5934
a(V$a
p5935
V2.88675
p5936
tp5937
aV2015-11-05 21:54:20
p5938
tp5939
a(g5914
V9*Q(4/sqrt(100(1/12)(.5+.5)^2))
p5940
(lp5941
(S'R.1.0'
p5942
F1.3856412921105048
V4/2.88675
p5943
V4/sqrt(100(1/12)(.5+.5)^2)
p5944
tp5945
aVt2shin
p5946
g5922
V2015-11-05 21:55:33
p5947
tp5948
a(g5430
V1 - Phi(1.2)
p5949
(lp5950
(S'R.1.0'
p5951
F1.2
V3/2.5
p5952
V1.2
p5953
tp5954
aVgsrandha
p5955
g630
V2015-11-05 22:20:20
p5956
tp5957
a(V2*Q(5/2.88675)
p5958
V1-Q(5/sqrt(100/12))
p5959
(lp5960
(S'R.1.0'
p5961
F1.732051615138131
V5/2.88675
p5962
V5/sqrt(100/12)
p5963
tp5964
aVyil035
p5965
(lp5966
(V$n
p5967
V0
p5968
tp5969
a(V$phi
p5970
V5
p5971
tp5972
a(V$d
p5973
V2
p5974
tp5975
a(V$x
p5976
V100
p5977
tp5978
a(V$a
p5979
V2.88675
p5980
tp5981
aV2015-11-05 22:30:26
p5982
tp5983
a(g5450
V1-Q((3)/sqrt(50(1/12)))
p5984
(lp5985
(S'R.1.0'
p5986
F1.4696948913405576
V3/2.04124
p5987
V(3)/sqrt(50(1/12))
p5988
tp5989
aVlywong
p5990
g395
V2015-11-06 00:07:18
p5991
tp5992
a(V2*Q(4/2.58199)
p5993
V1-Q((4-0)/sqrt(1/12 * 80))
p5994
(lp5995
(S'R.1.0'
p5996
F1.549192676966216
V4/2.58199
p5997
V(4-0)/sqrt(1/12 * 80)
p5998
tp5999
aVkew017
p6000
g3655
V2015-11-06 01:58:58
p6001
tp6002
a(V2*Q(3/2.14087)
p6003
VQ(3/(sqrt(55/12)))+Phi(3/(sqrt(55/12)))
p6004
(lp6005
(S'R.1.0'
p6006
F1.401299471710099
V3/2.14087
p6007
V3/(sqrt(55/12))
p6008
tp6009
aVeshung
p6010
(lp6011
(V$n
p6012
V0
p6013
tp6014
a(V$phi
p6015
V3
p6016
tp6017
a(V$d
p6018
V2
p6019
tp6020
a(V$x
p6021
V55
p6022
tp6023
a(V$a
p6024
V2.14087
p6025
tp6026
aV2015-11-06 08:49:00
p6027
tp6028
a(V2*Q(3/2.14087)
p6029
VQ((3-0)/sqrt(55*(sqrt(1/12)^2)))+Phi((3-0)/sqrt(55*(sqrt(1/12)^2)))
p6030
(lp6031
(S'R.1.0'
p6032
F1.401299471710099
V3/2.14087
p6033
V(3-0)/sqrt(55*(sqrt(1/12)^2))
p6034
tp6035
aVjhc010
p6036
g3788
V2015-11-06 11:05:49
p6037
tp6038
a(g6029
VPhi((3-0)/sqrt(55*(sqrt(1/12)^2)))-Q((3-0)/sqrt(55*(sqrt(1/12)^2)))
p6039
(lp6040
(S'R.1.0'
p6041
F1.401299471710099
V3/2.14087
p6042
V(3-0)/sqrt(55*(sqrt(1/12)^2))
p6043
tp6044
aVjhc010
p6045
g3788
V2015-11-06 11:06:50
p6046
tp6047
a(V2*Q(3/2.23607)
p6048
V3Q((3/sqrt(60/12)))
p6049
(lp6050
(S'R.1.0'
p6051
F1.3416395730008455
V3/2.23607
p6052
V3/sqrt(60/12)
p6053
tp6054
aVjhw015
p6055
g2832
V2015-11-06 18:49:24
p6056
tp6057
a(g6048
V3Q(3/sqrt(60/12))
p6058
(lp6059
(S'R.1.0'
p6060
F1.3416395730008455
V3/2.23607
p6061
V3/sqrt(60/12)
p6062
tp6063
aVjhw015
p6064
g2832
V2015-11-06 18:49:45
p6065
tp6066
a(g5462
V1-Q(5/sqrt(80*(1/12)*(1)^2))
p6067
(lp6068
(S'R.1.0'
p6069
F1.9364908462077701
V5/2.58199
p6070
V5/sqrt(80*(1/12)*(1)^2)
p6071
tp6072
aVmbl003
p6073
(lp6074
(V$n
p6075
V0
p6076
tp6077
a(V$phi
p6078
V5
p6079
tp6080
a(V$d
p6081
V2
p6082
tp6083
a(V$x
p6084
V80
p6085
tp6086
a(V$a
p6087
V2.58199
p6088
tp6089
aV2015-11-06 21:00:45
p6090
tp6091
a(V2*Q(2/2.04124)
p6092
V2*1-Phi(2/sqrt(1/12*50))
p6093
(lp6094
(S'R.1.0'
p6095
F0.9797965942270384
V2/2.04124
p6096
V2/sqrt(1/12*50)
p6097
tp6098
aVk4ma
p6099
g5255
V2015-11-06 22:00:19
p6100
tp6101
a(V2*Q(3/2.58199)
p6102
V1-Phi(3/sqrt(80/12))
p6103
(lp6104
(S'R.1.0'
p6105
F1.161894507724662
V3/2.58199
p6106
V3/sqrt(80/12)
p6107
tp6108
aVw4shin
p6109
(lp6110
(V$n
p6111
V0
p6112
tp6113
a(V$phi
p6114
V3
p6115
tp6116
a(V$d
p6117
V2
p6118
tp6119
a(V$x
p6120
V80
p6121
tp6122
a(V$a
p6123
V2.58199
p6124
tp6125
aV2015-11-06 23:49:49
p6126
tp6127
asS"['R.1']"
p6128
(lp6129
(g5780
V1-Q([3]/[sqrt((80/12)(0.5-(-0.5))^2)])
p6130
(lp6131
(S'R.1'
p6132
cnumpy.core.multiarray
scalar
p6133
(cnumpy
dtype
p6134
(S'f8'
p6135
I0
I1
tp6136
Rp6137
(I3
S'<'
p6138
NNNI-1
I-1
I0
tp6139
bS'\xc8\n\xe4\xa9Ge\xbf?'
p6140
tp6141
Rp6142
VQ(3/2.58199)
p6143
VQ([3]/[sqrt((80/12)(0.5-(-0.5))^2)])
p6144
tp6145
aVttimmons
p6146
g334
V2015-11-04 19:52:09
p6147
tp6148
a(g5780
V1-Q([3]/[sqrt((80/12)(0.5-(-0.5))^2)])
p6149
(lp6150
(S'R.1'
p6151
g6133
(g6137
S'\xc8\n\xe4\xa9Ge\xbf?'
p6152
tp6153
Rp6154
VQ(3/2.58199)
p6155
VQ([3]/[sqrt((80/12)(0.5-(-0.5))^2)])
p6156
tp6157
aVttimmons
p6158
g334
V2015-11-04 20:08:59
p6159
tp6160
a(g5548
V1 - Q((3-0)/((80/12)^(1/2)))
p6161
(lp6162
(S'R.1'
p6163
g6133
(g6137
S'\xc8\n\xe4\xa9Ge\xbf?'
p6164
tp6165
Rp6166
VQ(3/2.58199)
p6167
VQ((3-0)/((80/12)^(1/2)))
p6168
tp6169
aVj2phung
p6170
g5876
V2015-11-05 11:17:14
p6171
tp6172
a(g5780
VPhi([3]/[sqrt((80/12)(0.5-(-0.5))^2)])-Q([3]/[sqrt((80/12)(0.5-(-0.5))^2)])
p6173
(lp6174
(S'R.1'
p6175
g6133
(g6137
S'\xc8\n\xe4\xa9Ge\xbf?'
p6176
tp6177
Rp6178
VQ(3/2.58199)
p6179
VQ([3]/[sqrt((80/12)(0.5-(-0.5))^2)])
p6180
tp6181
aVttimmons
p6182
g334
V2015-11-05 17:34:42
p6183
tp6184
a(V2*Q(3/2.5)
p6185
V1-Q(3/(sqrt(75/12)))
p6186
(lp6187
(S'R.1'
p6188
g6133
(g6137
S'0\x1e]\xb64u\xbd?'
p6189
tp6190
Rp6191
VQ(3/2.5)
p6192
VQ(3/(sqrt(75/12)))
p6193
tp6194
aVggaddi
p6195
g3177
V2015-11-05 19:04:36
p6196
tp6197
a(g5581
V1-Q(4/2.04124)
p6198
(lp6199
(S'R.1'
p6200
g6133
(g6137
S'\x80\x97XuH\x9f\x99?'
p6201
tp6202
Rp6203
VQ(4/2.04124)
p6204
VQ(4/2.04124)
p6205
tp6206
aVhmshah
p6207
g3411
V2015-11-05 21:15:57
p6208
tp6209
a(V2*Q(3/2.58199)
p6210
V1-Q(3/sqrt(80/12))
p6211
(lp6212
(S'R.1'
p6213
g6133
(g6137
S'\xc8\n\xe4\xa9Ge\xbf?'
p6214
tp6215
Rp6216
VQ(3/2.58199)
p6217
VQ(3/sqrt(80/12))
p6218
tp6219
aVjtfrankl
p6220
(lp6221
(V$n
p6222
V0
p6223
tp6224
a(V$phi
p6225
V3
p6226
tp6227
a(V$d
p6228
V2
p6229
tp6230
a(V$x
p6231
V80
p6232
tp6233
a(V$a
p6234
V2.58199
p6235
tp6236
aV2015-11-06 19:13:21
p6237
tp6238
a(g5651
V1-Q(4/sqrt(30))
p6239
(lp6240
(S'R.1'
p6241
g6133
(g6137
S'$\xa0~M\xf9\xc5\xcd?'
p6242
tp6243
Rp6244
VQ(2/2.73861)
p6245
VQ(4/sqrt(30))
p6246
tp6247
aVakg009
p6248
g3842
V2015-11-06 21:59:48
p6249
tp6250
a(V2*Q(3/2.41523)
p6251
V3*Q(3/(1/sqrt(12)*sqrt(70)))
p6252
(lp6253
(S'R.1'
p6254
g6133
(g6137
S'0\xcc11\xaej\xbb?'
p6255
tp6256
Rp6257
VQ(3/2.41523)
p6258
VQ(3/(1/sqrt(12)*sqrt(70)))
p6259
tp6260
aVdis003
p6261
(lp6262
(V$n
p6263
V0
p6264
tp6265
a(V$phi
p6266
V3
p6267
tp6268
a(V$d
p6269
V2
p6270
tp6271
a(V$x
p6272
V70
p6273
tp6274
a(V$a
p6275
V2.41523
p6276
tp6277
aV2015-11-06 22:57:41
p6278
tp6279
asS"['R.1.0.1']"
p6280
(lp6281
(g5744
V1+Phi(3/2.88675)-Phi(6/2.88675)
p6282
(lp6283
(S'R.1.0.1'
p6284
F2.88675
V2.88675
p6285
V2.88675
p6286
tp6287
aVtol003
p6288
g5752
V2015-11-03 23:28:19
p6289
tp6290
a(V2*Q(4/1.93649)
p6291
V1 - Phi((4 - 0) / sqrt(45/12)) + 1 - Phi((-4 - 0) / sqrt(45/12))
p6292
(lp6293
(S'R.1.0.1'
p6294
F1.93649
V1.93649
p6295
Vsqrt(45/12)
p6296
tp6297
aVpvl001
p6298
g2703
V2015-11-04 03:59:55
p6299
tp6300
a(g5780
VQ([3]/[sqrt((80/12)(0.5-(-0.5))^2)])*Phi([3]/[sqrt((80/12)(0.5-(-0.5))^2)])
p6301
(lp6302
(S'R.1.0.1'
p6303
F2.58199
V2.58199
p6304
Vsqrt((80/12)(0.5-(-0.5))^2)
p6305
tp6306
aVttimmons
p6307
g334
V2015-11-04 20:13:30
p6308
tp6309
a(g5419
V1 - Phi((1)/sqrt(1/12 * 80))
p6310
(lp6311
(S'R.1.0.1'
p6312
F2.58199
V2.58199
p6313
Vsqrt(1/12 * 80)
p6314
tp6315
aVfichoi
p6316
g4629
V2015-11-05 01:22:48
p6317
tp6318
a(g5419
V1 - Phi((6)/sqrt(1/12 * 80))
p6319
(lp6320
(S'R.1.0.1'
p6321
F2.58199
V2.58199
p6322
Vsqrt(1/12 * 80)
p6323
tp6324
aVfichoi
p6325
g4629
V2015-11-05 01:22:59
p6326
tp6327
a(g5433
VQ(4/(80/12)^(1/2)) + Phi(4/(80/12)^(1/2))
p6328
(lp6329
(S'R.1.0.1'
p6330
F2.58199
V2.58199
p6331
V(80/12)^(1/2)
p6332
tp6333
aVjhp077
p6334
g3240
V2015-11-05 14:14:41
p6335
tp6336
a(g5433
VQ(4/(80/12)^(1/2)) + Phi(4/(80/12)^(1/2))
p6337
(lp6338
(S'R.1.0.1'
p6339
F2.58199
V2.58199
p6340
V(80/12)^(1/2)
p6341
tp6342
aVjhp077
p6343
g3240
V2015-11-05 14:15:30
p6344
tp6345
a(g5914
V1-Q(1/sqrt(100(1/12)(.5+.5)^2))
p6346
(lp6347
(S'R.1.0.1'
p6348
F2.88675
V2.88675
p6349
Vsqrt(100(1/12)(.5+.5)^2)
p6350
tp6351
aVt2shin
p6352
g5922
V2015-11-05 21:56:49
p6353
tp6354
a(g5562
VPhi(4 / ((80/12)**0.5)) + Q(4 / ((80/12)**0.5))
p6355
(lp6356
(S'R.1.0.1'
p6357
F2.58199
V2.58199
p6358
V(80/12)**0.5
p6359
tp6360
aVjguanzho
p6361
g3295
V2015-11-05 22:41:21
p6362
tp6363
a(V2*Q(3/1.93649)
p6364
V2*Q((3-0.5*45)/[[(1/12)*45]^(1/2)])
p6365
(lp6366
(S'R.1.0.1'
p6367
F1.93649
V1.93649
p6368
V[(1/12)*45]^(1/2)
p6369
tp6370
aVl5han
p6371
(lp6372
(V$n
p6373
V0
p6374
tp6375
a(V$phi
p6376
V3
p6377
tp6378
a(V$d
p6379
V2
p6380
tp6381
a(V$x
p6382
V45
p6383
tp6384
a(V$a
p6385
V1.93649
p6386
tp6387
aV2015-11-06 19:49:17
p6388
tp6389
a(g5462
VPhi(5/sqrt(80*(1/12)*(1)^2))+Q(5/sqrt(80*(1/12)*(1)^2))
p6390
(lp6391
(S'R.1.0.1'
p6392
F2.58199
V2.58199
p6393
Vsqrt(80*(1/12)*(1)^2)
p6394
tp6395
aVmbl003
p6396
g6074
V2015-11-06 21:23:57
p6397
tp6398
a(V2*Q(4/2.41523)
p6399
VQ(4/ [sqrt(70 * (1/12))]) + Phi(4/ [sqrt(70 * (1/12))])
p6400
(lp6401
(S'R.1.0.1'
p6402
F2.41523
V2.41523
p6403
Vsqrt(70 * (1/12))
p6404
tp6405
aVbmilton
p6406
(lp6407
(V$n
p6408
V0
p6409
tp6410
a(V$phi
p6411
V4
p6412
tp6413
a(V$d
p6414
V2
p6415
tp6416
a(V$x
p6417
V70
p6418
tp6419
a(V$a
p6420
V2.41523
p6421
tp6422
aV2015-11-06 22:53:38
p6423
tp6424
a(V2*Q(2/2.5)
p6425
V1-Phi((2-0)/sqrt( 75/12))+1-Phi((-2-0)/sqrt( 75/12))
p6426
(lp6427
(S'R.1.0.1'
p6428
F2.5
V2.5
p6429
Vsqrt( 75/12)
p6430
tp6431
aVh4tu
p6432
g1586
V2015-11-07 00:18:23
p6433
tp6434
asS"['R.0']"
p6435
(lp6436
(V2*Q(3/2.23607)
p6437
V2*Q(3/1/sqrt(12)*sqrt(60))
p6438
(lp6439
(S'R.0'
p6440
F2.0
g1773
g1773
tp6441
aVpthsu
p6442
(lp6443
(V$n
p6444
V0
p6445
tp6446
a(V$phi
p6447
V3
p6448
tp6449
a(V$d
p6450
V2
p6451
tp6452
a(V$x
p6453
V60
p6454
tp6455
a(V$a
p6456
V2.23607
p6457
tp6458
aV2015-10-31 04:01:09
p6459
tp6460
a(g6437
V2*Q(3/sqrt(12)*sqrt(60))
p6461
(lp6462
(S'R.0'
p6463
F2.0
g1773
g1773
tp6464
aVpthsu
p6465
g6443
V2015-10-31 04:01:30
p6466
tp6467
a(g5396
V(2)(3)/(1/sqrt(12)*sqrt(75))
p6468
(lp6469
(S'R.0'
p6470
F2.0
g1773
g1773
tp6471
aVrlhagen
p6472
g221
V2015-10-31 20:21:44
p6473
tp6474
a(g5744
V2-[Phi(6/2.88675)-Phi(3/2.88675)]
p6475
(lp6476
(S'R.0'
p6477
F2.0
g1773
g1773
tp6478
aVtol003
p6479
g5752
V2015-11-03 23:27:22
p6480
tp6481
a(g5744
V2*(1-Phi(6/2.88675))
p6482
(lp6483
(S'R.0'
p6484
F2.0
g1773
g1773
tp6485
aVtol003
p6486
g5752
V2015-11-03 23:32:20
p6487
tp6488
a(g5531
V2*Q(3)
p6489
(lp6490
(S'R.0'
p6491
F2.0
g1773
g1773
tp6492
aVr9jiang
p6493
g2563
V2015-11-05 05:38:39
p6494
tp6495
a(g5703
V2*Q(4/sqrt(1/2)*sqrt(50))
p6496
(lp6497
(S'R.0'
p6498
F2.0
g1773
g1773
tp6499
aVnhn018
p6500
g1800
V2015-11-05 06:00:59
p6501
tp6502
a(g5703
V2*Q(4/sqrt(12)*sqrt(50))
p6503
(lp6504
(S'R.0'
p6505
F2.0
g1773
g1773
tp6506
aVnhn018
p6507
g1800
V2015-11-05 06:01:43
p6508
tp6509
a(g5703
V2*Q(4/sqrt(12)*sqrt(45))
p6510
(lp6511
(S'R.0'
p6512
F2.0
g1773
g1773
tp6513
aVnhn018
p6514
g1800
V2015-11-05 06:03:27
p6515
tp6516
a(V2*Q(5/2.58199)
p6517
V2Q(5)
p6518
(lp6519
(S'R.0'
p6520
F2.0
g1773
g1773
tp6521
aVmpanelo
p6522
g3528
V2015-11-05 23:36:57
p6523
tp6524
a(g5613
V2*Q(sqrt(1/12 * 50))
p6525
(lp6526
(S'R.0'
p6527
F2.0
g1773
g1773
tp6528
aVkvass
p6529
(lp6530
(V$n
p6531
V0
p6532
tp6533
a(V$phi
p6534
V5
p6535
tp6536
a(V$d
p6537
V2
p6538
tp6539
a(V$x
p6540
V50
p6541
tp6542
a(V$a
p6543
V2.04124
p6544
tp6545
aV2015-11-06 00:45:49
p6546
tp6547
a(V2*Q(3/2.58199)
p6548
V2*(3/(1/sqrt(12)*sqrt(80)))
p6549
(lp6550
(S'R.0'
p6551
F2.0
g1773
g1773
tp6552
aVs2chaudh
p6553
g1225
V2015-11-06 06:49:31
p6554
tp6555
a(V2*Q(4/2.73861)
p6556
V2 * Q(4/1/sqrt(12)*sqrt(90))
p6557
(lp6558
(S'R.0'
p6559
F2.0
g1773
g1773
tp6560
aVdwzhang
p6561
(lp6562
(V$n
p6563
V0
p6564
tp6565
a(V$phi
p6566
V4
p6567
tp6568
a(V$d
p6569
V2
p6570
tp6571
a(V$x
p6572
V90
p6573
tp6574
a(V$a
p6575
V2.73861
p6576
tp6577
aV2015-11-06 21:39:53
p6578
tp6579
a(g5465
V2(1-0.92220)
p6580
(lp6581
(S'R.0'
p6582
F2.0
g1773
g1773
tp6583
aVc3chung
p6584
g1958
V2015-11-06 22:43:01
p6585
tp6586
a(g5465
V2(1-0.8554)
p6587
(lp6588
(S'R.0'
p6589
F2.0
g1773
g1773
tp6590
aVc3chung
p6591
g1958
V2015-11-06 22:45:59
p6592
tp6593
a(g5465
V2(1-0.8577)
p6594
(lp6595
(S'R.0'
p6596
F2.0
g1773
g1773
tp6597
aVc3chung
p6598
g1958
V2015-11-06 22:46:26
p6599
tp6600
a(V2*Q(4/2.58199)
p6601
V2*(sqrt(((0.5+0.5)^2/12)*80))
p6602
(lp6603
(S'R.0'
p6604
F2.0
g1773
g1773
tp6605
aVksrijong
p6606
g3904
V2015-11-06 22:53:02
p6607
tp6608
a(V2*Q(5/2.04124)
p6609
V2*(1-Phi(sqrt(50/12)))
p6610
(lp6611
(S'R.0'
p6612
F2.0
g1773
g1773
tp6613
aVjic212
p6614
(lp6615
(V$n
p6616
V0
p6617
tp6618
a(V$phi
p6619
V5
p6620
tp6621
a(V$d
p6622
V2
p6623
tp6624
a(V$x
p6625
V50
p6626
tp6627
a(V$a
p6628
V2.04124
p6629
tp6630
aV2015-11-06 23:17:15
p6631
tp6632
a(V2*Q(5/2.81366)
p6633
V2*(1-0.9625)
p6634
(lp6635
(S'R.0'
p6636
F2.0
g1773
g1773
tp6637
aVjmiclat
p6638
(lp6639
(V$n
p6640
V0
p6641
tp6642
a(V$phi
p6643
V5
p6644
tp6645
a(V$d
p6646
V2
p6647
tp6648
a(V$x
p6649
V95
p6650
tp6651
a(V$a
p6652
V2.81366
p6653
tp6654
aV2015-11-06 23:52:41
p6655
tp6656
asg1243
(lp6657
(V2*Q(4/1.82574)
p6658
V1- 4 / sqrt(1/12 ( .5 - (-.5) )^2 * 40)
p6659
tp6660
a(g6658
V1- (4 / sqrt(1/12 ( .5 - (-.5) )^2 * 40) )
p6661
tp6662
a(g6658
V1- (( 4)/ sqrt(1/12 ( .5 - (-.5) )^2 * 40) )
p6663
tp6664
a(g5399
V-1+Phi(1/(5*(1/12)^(1/2)))
p6665
tp6666
a(V2*Q(5/2.58199)
p6667
V1-2Phi(5/(1/sqrt(12)*sqrt(80) ))
p6668
tp6669
a(g5522
V1-(5/sqrt(95/12))
p6670
tp6671
a(g5433
VQ(4/(80/12)^(1/2)) + Phi(4/(80/12)^(1/2)) - 4/((80/12)^(1/2))
p6672
tp6673
a(g5780
VQ([3]/[sqrt((80/12)(0.5-(-0.5))^2)])-Phi([3]/[sqrt((80/12)(0.5-(-0.5))^2)])
p6674
tp6675
a(g5780
V1-2*Phi([3]/[sqrt((80/12)(0.5-(-0.5))^2)])
p6676
tp6677
a(g5447
V0.0776-0.2386
p6678
tp6679
a(V2*Q(5/2.04124)
p6680
V1 - (5/(sqrt(50*1/12)))
p6681
tp6682
a(g6029
VQ((3-0)/sqrt(55*(sqrt(1/12)^2)))-Phi((3-0)/sqrt(55*(sqrt(1/12)^2)))
p6683
tp6684
a(V2*Q(3/2.66145)
p6685
V1-3/sqrt(85/12)
p6686
tp6687
a(g6092
V1-Phi(2/sqrt(1/12*50))*2
p6688
tp6689
a(g5672
V1-Phi(3/((((1/12)*80)^(1/2))))*2
p6690
tp6691
a(g6425
V1-Phi((2-0)/sqrt( 75/12))-Phi((-2-0)/sqrt( 75/12))
p6692
tp6693
asS"['R.1.0.0']"
p6694
(lp6695
(g6658
V1- Q(( 4)/ sqrt(1/12 ( .5 - (-.5) )^2 * 40) )
p6696
(lp6697
(S'R.1.0.0'
p6698
F4.0
g1697
g1697
tp6699
aVany027
p6700
g273
V2015-11-01 22:21:24
p6701
tp6702
a(V2*Q(2/1.82574)
p6703
V1- Q(2/sqrt(40/12))
p6704
(lp6705
(S'R.1.0.0'
p6706
F2.0
g1773
g1773
tp6707
aVhachrist
p6708
(lp6709
(V$n
p6710
V0
p6711
tp6712
a(V$phi
p6713
V2
p6714
tp6715
a(V$d
p6716
V2
p6717
tp6718
a(V$x
p6719
V40
p6720
tp6721
a(V$a
p6722
V1.82574
p6723
tp6724
aV2015-11-05 08:58:40
p6725
tp6726
a(g5958
V1-Q(5*sqrt(6))
p6727
(lp6728
(S'R.1.0.0'
p6729
F5.0
g1980
g1980
tp6730
aVyil035
p6731
g5966
V2015-11-05 21:14:50
p6732
tp6733
a(g5610
V1-Phi([5-((-.5+.5)/2 *85)]/[(85/12)^(1/2)])
p6734
(lp6735
(S'R.1.0.0'
p6736
F5.0
g1980
V5-((-.5+.5)/2 *85)
p6737
tp6738
aVdgunawan
p6739
g3624
V2015-11-06 00:54:42
p6740
tp6741
a(V2*Q(3/2.32737)
p6742
V1-Q(3/2.32735)
p6743
(lp6744
(S'R.1.0.0'
p6745
F3.0
g1748
g1748
tp6746
aVkosung
p6747
(lp6748
(V$n
p6749
V0
p6750
tp6751
a(V$phi
p6752
V3
p6753
tp6754
a(V$d
p6755
V2
p6756
tp6757
a(V$x
p6758
V65
p6759
tp6760
a(V$a
p6761
V2.32737
p6762
tp6763
aV2015-11-06 02:06:31
p6764
tp6765
a(g6742
V1-Q(3/2.32735)
p6766
(lp6767
(S'R.1.0.0'
p6768
F3.0
g1748
g1748
tp6769
aVkosung
p6770
g6748
V2015-11-06 02:09:59
p6771
tp6772
a(g6742
V1-Phi(3/2.32735)
p6773
(lp6774
(S'R.1.0.0'
p6775
F3.0
g1748
g1748
tp6776
aVkosung
p6777
g6748
V2015-11-06 02:16:04
p6778
tp6779
a(g5624
V1-Q(2/sqrt(65/12))
p6780
(lp6781
(S'R.1.0.0'
p6782
F2.0
g1773
g1773
tp6783
aVmuy002
p6784
g3726
V2015-11-06 05:03:09
p6785
tp6786
a(g5624
V1-Q((2/sqrt(65/12)))
p6787
(lp6788
(S'R.1.0.0'
p6789
F2.0
g1773
g1773
tp6790
aVmuy002
p6791
g3726
V2015-11-06 05:24:49
p6792
tp6793
a(V2*Q(5/2.73861)
p6794
V1-Q(5/sqrt(90/12))
p6795
(lp6796
(S'R.1.0.0'
p6797
F5.0
g1980
g1980
tp6798
aVvqt004
p6799
(lp6800
(V$n
p6801
V0
p6802
tp6803
a(V$phi
p6804
V5
p6805
tp6806
a(V$d
p6807
V2
p6808
tp6809
a(V$x
p6810
V90
p6811
tp6812
a(V$a
p6813
V2.73861
p6814
tp6815
aV2015-11-06 06:32:30
p6816
tp6817
a(g6685
V1-Q(3/sqrt(85/12))
p6818
(lp6819
(S'R.1.0.0'
p6820
F3.0
g1748
g1748
tp6821
aVkbielawi
p6822
(lp6823
(V$n
p6824
V0
p6825
tp6826
a(V$phi
p6827
V3
p6828
tp6829
a(V$d
p6830
V2
p6831
tp6832
a(V$x
p6833
V85
p6834
tp6835
a(V$a
p6836
V2.66145
p6837
tp6838
aV2015-11-06 18:41:03
p6839
tp6840
a(g5619
V1-Q((5-0)/sqrt(95/12))
p6841
(lp6842
(S'R.1.0.0'
p6843
F5.0
g1980
V5-0
p6844
tp6845
aVsyc078
p6846
g2988
V2015-11-06 18:47:04
p6847
tp6848
a(V2*Q(4/2.41523)
p6849
V1-(Q((4-0)/sqrt((70)(1/12)((-0.5-0.5)^2))))
p6850
(lp6851
(S'R.1.0.0'
p6852
F4.0
g1697
V4-0
p6853
tp6854
aVmjethani
p6855
(lp6856
(V$n
p6857
V0
p6858
tp6859
a(V$phi
p6860
V4
p6861
tp6862
a(V$d
p6863
V2
p6864
tp6865
a(V$x
p6866
V70
p6867
tp6868
a(V$a
p6869
V2.41523
p6870
tp6871
aV2015-11-06 18:48:43
p6872
tp6873
a(V2*Q(4/2.66145)
p6874
V1-Q(4/sqrt(85/12))
p6875
(lp6876
(S'R.1.0.0'
p6877
F4.0
g1697
g1697
tp6878
aVazkong
p6879
g3811
V2015-11-06 20:22:16
p6880
tp6881
a(g5646
V1-Phi(3/sqrt((1/12)*40))
p6882
(lp6883
(S'R.1.0.0'
p6884
F3.0
g1748
g1748
tp6885
aVppanourg
p6886
g3865
V2015-11-06 21:28:40
p6887
tp6888
a(V2*Q(3/2.32737)
p6889
V1 - Q(3/sqrt(65 * 1/12 * (.5 + .5)))
p6890
(lp6891
(S'R.1.0.0'
p6892
F3.0
g1748
g1748
tp6893
aVrwthomps
p6894
(lp6895
(V$n
p6896
V0
p6897
tp6898
a(V$phi
p6899
V3
p6900
tp6901
a(V$d
p6902
V2
p6903
tp6904
a(V$x
p6905
V65
p6906
tp6907
a(V$a
p6908
V2.32737
p6909
tp6910
aV2015-11-06 21:57:22
p6911
tp6912
a(g5468
V1-Phi((3-0)/[85(.5+.5)^2/12]^(1/2))
p6913
(lp6914
(S'R.1.0.0'
p6915
F3.0
g1748
V3-0
p6916
tp6917
aVasp025
p6918
g2199
V2015-11-06 23:42:08
p6919
tp6920
asS"['R.0', 'R.1.0']"
p6921
(lp6922
(g5780
V2*Phi([3]/[sqrt((80/12)(0.5-(-0.5))^2)])
p6923
(lp6924
(S'R.0'
p6925
F2.0
g1773
g1773
tp6926
a(S'R.1.0'
p6927
F1.161894507724662
V3/2.58199
p6928
V[3]/[sqrt((80/12)(0.5-(-0.5))^2)]
p6929
tp6930
aVttimmons
p6931
g334
V2015-11-05 17:35:38
p6932
tp6933
a(g5638
V2* Phi([3 - 0]/ (45/12)^(1/2))
p6934
(lp6935
(S'R.0'
p6936
F2.0
g1773
g1773
tp6937
a(S'R.1.0'
p6938
F1.54919467696709
V3/1.93649
p6939
V[3 - 0]/ (45/12)^(1/2)
p6940
tp6941
aVyos017
p6942
(lp6943
(V$n
p6944
V0
p6945
tp6946
a(V$phi
p6947
V3
p6948
tp6949
a(V$d
p6950
V2
p6951
tp6952
a(V$x
p6953
V45
p6954
tp6955
a(V$a
p6956
V1.93649
p6957
tp6958
aV2015-11-06 10:03:42
p6959
tp6960
assV6
p6961
g2
(g3
tp6962
Rp6963
g6
(lp6964
(VQ(3/2.04124)
p6965
V36
p6966
tp6967
a(VQ(3/2.5)
p6968
V0
p6969
tp6970
a(VQ(4/2.58199)
p6971
V0
p6972
tp6973
a(VQ(3/2.04124)
p6974
V0
p6975
tp6976
a(g6974
V1
p6977
tp6978
a(VQ(2/2.41523)
p6979
V0
p6980
tp6981
a(VQ(3/2.81366)
p6982
V1
p6983
tp6984
a(VQ(5/2.5)
p6985
V1
p6986
tp6987
a(VQ(5/2.81366)
p6988
V0
p6989
tp6990
a(VQ(3/2.5)
p6991
V0
p6992
tp6993
a(VQ(3/2.58199)
p6994
V2
p6995
tp6996
a(VQ(2/2.32737)
p6997
V2
p6998
tp6999
a(VQ(5/2.32737)
p7000
V0
p7001
tp7002
a(VQ(5/2.41523)
p7003
V1
p7004
tp7005
a(VQ(5/2.5)
p7006
V97
p7007
tp7008
a(VQ(3/1.82574)
p7009
V0
p7010
tp7011
asS"['R.0.0']"
p7012
(lp7013
(VQ(2/2.66145)
p7014
VQ([ (2)-(0) ]/ ((1/12)( (85*0.5) - (85*-0.5) ) **2))
p7015
(lp7016
(S'R.0.0'
p7017
F2.0
g1773
V(2)-(0)
p7018
tp7019
aVkrkelkar
p7020
g247
V2015-10-31 21:49:34
p7021
tp7022
a(VQ(2/2.04124)
p7023
VQ(2/(Q(2/1/sqrt(12)*sqrt(50))))
p7024
(lp7025
(S'R.0.0'
p7026
F2.0
g1773
g1773
tp7027
aVpcdo
p7028
(lp7029
(V$n
p7030
V0
p7031
tp7032
a(V$phi
p7033
V2
p7034
tp7035
a(V$d
p7036
V2
p7037
tp7038
a(V$x
p7039
V50
p7040
tp7041
a(V$a
p7042
V2.04124
p7043
tp7044
aV2015-11-02 19:02:32
p7045
tp7046
a(VQ(5/2.58199)
p7047
VQ(5/(1/sqrt(12)*sqrt(50)))
p7048
(lp7049
(S'R.0.0'
p7050
F5.0
g1980
g1980
tp7051
aVjcl084
p7052
g4426
V2015-11-02 20:43:41
p7053
tp7054
a(VQ(2/2.04124)
p7055
V(2+50)/(100)
p7056
(lp7057
(S'R.0.0'
p7058
F2.0
g1773
g1773
tp7059
aVjcj006
p7060
(lp7061
(V$n
p7062
V0
p7063
tp7064
a(V$phi
p7065
V2
p7066
tp7067
a(V$d
p7068
V2
p7069
tp7070
a(V$x
p7071
V50
p7072
tp7073
a(V$a
p7074
V2.04124
p7075
tp7076
aV2015-11-04 22:45:24
p7077
tp7078
a(VQ(2/2.5)
p7079
VQ((2 - 0) / ((1/12)^(1/2) * (0.5 + 0.5) * 75))
p7080
(lp7081
(S'R.0.0'
p7082
F2.0
g1773
V2 - 0
p7083
tp7084
aVdruble
p7085
(lp7086
(V$n
p7087
V0
p7088
tp7089
a(V$phi
p7090
V2
p7091
tp7092
a(V$d
p7093
V2
p7094
tp7095
a(V$x
p7096
V75
p7097
tp7098
a(V$a
p7099
V2.5
p7100
tp7101
aV2015-11-05 00:26:41
p7102
tp7103
a(VQ(3/2.32737)
p7104
VQ(3)/((65/12)^(1/2))
p7105
(lp7106
(S'R.0.0'
p7107
F3.0
g1748
g1748
tp7108
aVr9jiang
p7109
g2563
V2015-11-05 05:36:51
p7110
tp7111
a(VQ(4/1.93649)
p7112
VQ(4/(sqrt(12)*sqrt(50)))
p7113
(lp7114
(S'R.0.0'
p7115
F4.0
g1697
g1697
tp7116
aVnhn018
p7117
g1800
V2015-11-05 06:02:21
p7118
tp7119
a(g7112
VQ(4/(sqrt(12)*sqrt(45)))
p7120
(lp7121
(S'R.0.0'
p7122
F4.0
g1697
g1697
tp7123
aVnhn018
p7124
g1800
V2015-11-05 06:03:05
p7125
tp7126
a(VQ(4/2.58199)
p7127
VQ(4-0)/(Q((13-5)/ ((15)^(1/2) / 2)))
p7128
(lp7129
(S'R.0.0'
p7130
F4.0
g1697
V4-0
p7131
tp7132
aVjhp077
p7133
g3240
V2015-11-05 14:06:45
p7134
tp7135
a(g7127
VQ(4)/((13-5)/ ((15)^(1/2) / 2))
p7136
(lp7137
(S'R.0.0'
p7138
F4.0
g1697
g1697
tp7139
aVjhp077
p7140
g3240
V2015-11-05 14:06:59
p7141
tp7142
a(g7127
VQ(4)/((80/12)^(1/2))
p7143
(lp7144
(S'R.0.0'
p7145
F4.0
g1697
g1697
tp7146
aVjhp077
p7147
g3240
V2015-11-05 14:07:19
p7148
tp7149
a(g7127
VQ(4) / (4/((80/12)^(1/2)))
p7150
(lp7151
(S'R.0.0'
p7152
F4.0
g1697
g1697
tp7153
aVjhp077
p7154
g3240
V2015-11-05 14:07:55
p7155
tp7156
a(g7127
VQ(4) / (80/12)^(1/2)
p7157
(lp7158
(S'R.0.0'
p7159
F4.0
g1697
g1697
tp7160
aVjhp077
p7161
g3240
V2015-11-05 14:08:43
p7162
tp7163
a(g7112
VQ(4/(sqrt(12)*sqrt(45)))
p7164
(lp7165
(S'R.0.0'
p7166
F4.0
g1697
g1697
tp7167
aVnhn018
p7168
g1800
V2015-11-05 20:14:44
p7169
tp7170
a(VQ(4/2.66145)
p7171
V(4+(85/2))/85
p7172
(lp7173
(S'R.0.0'
p7174
F4.0
g1697
g1697
tp7175
aVasetters
p7176
g1862
V2015-11-05 20:35:10
p7177
tp7178
a(VQ(5/2.88675)
p7179
VQ(5*sqrt(6))
p7180
(lp7181
(S'R.0.0'
p7182
F5.0
g1980
g1980
tp7183
aVyil035
p7184
g5966
V2015-11-05 21:14:50
p7185
tp7186
a(g7171
V(Phi(4))/2
p7187
(lp7188
(S'R.0.0'
p7189
F4.0
g1697
g1697
tp7190
aVasetters
p7191
g1862
V2015-11-05 21:27:35
p7192
tp7193
a(VQ(2/1.93649)
p7194
VQ(2/((1/12)(22.5+22.5)^(0.5)))
p7195
(lp7196
(S'R.0.0'
p7197
F2.0
g1773
g1773
tp7198
aVccn001
p7199
g3473
V2015-11-05 22:23:55
p7200
tp7201
a(g7194
VQ(2/(((1/12)(22.5+22.5)^(2))^(0.5)))
p7202
(lp7203
(S'R.0.0'
p7204
F2.0
g1773
g1773
tp7205
aVccn001
p7206
g3473
V2015-11-05 22:25:33
p7207
tp7208
a(g7194
VQ(2/((1/12)^(0.5)(45)))
p7209
(lp7210
(S'R.0.0'
p7211
F2.0
g1773
g1773
tp7212
aVccn001
p7213
g3473
V2015-11-05 22:29:23
p7214
tp7215
a(VQ(3/2.88675)
p7216
VQ(3/(sqrt(40)/sqrt(12)))
p7217
(lp7218
(S'R.0.0'
p7219
F3.0
g1748
g1748
tp7220
aVaadhakal
p7221
(lp7222
(V$n
p7223
V0
p7224
tp7225
a(V$phi
p7226
V3
p7227
tp7228
a(V$d
p7229
V2
p7230
tp7231
a(V$x
p7232
V100
p7233
tp7234
a(V$a
p7235
V2.88675
p7236
tp7237
aV2015-11-05 22:45:06
p7238
tp7239
a(VQ(4/2.32737)
p7240
VQ((4)/(sqrt(1/12*(1)^2)*65))
p7241
(lp7242
(S'R.0.0'
p7243
F4.0
g1697
g1697
tp7244
aVpnquach
p7245
g5182
V2015-11-06 05:54:51
p7246
tp7247
a(VQ(4/2.41523)
p7248
VQ(4-0)/sqrt((70)(1/12)((-0.5-0.5)^2))
p7249
(lp7250
(S'R.0.0'
p7251
F4.0
g1697
V4-0
p7252
tp7253
aVmjethani
p7254
g6856
V2015-11-06 18:46:02
p7255
tp7256
a(VQ(5/2.66145)
p7257
VPhi(5/((85/12)^0.5))
p7258
(lp7259
(S'R.0.0'
p7260
F5.0
g1980
g1980
tp7261
aVzhw110
p7262
g5308
V2015-11-07 00:07:49
p7263
tp7264
asg163
(lp7265
(VQ(5/2.23607)
p7266
V5-sqrt(60*(1/12))
p7267
tp7268
a(VQ(2/2.66145)
p7269
VQ(2)
p7270
tp7271
a(VQ(5/1.82574)
p7272
V1-Phi(5)
p7273
tp7274
a(g7272
VQ(5)
p7275
tp7276
a(VQ(4/2.73861)
p7277
V1-Phi(4)
p7278
tp7279
a(g7277
V1-Phi(90)
p7280
tp7281
a(VQ(4/2.73861)
p7282
V1-Phi(4)
p7283
tp7284
a(g7112
VQ(4/sqrt(1/2)*sqrt(50))
p7285
tp7286
a(g7112
VQ(4/sqrt(12)*sqrt(50))
p7287
tp7288
a(g7112
VQ(4/sqrt(12)*sqrt(45))
p7289
tp7290
a(g7282
VQ(4)
p7291
tp7292
a(g6991
VQ(3)
p7293
tp7294
a(g6991
V1-Phi(3)
p7295
tp7296
a(VQ(4/2.04124)
p7297
V1-Q(4)
p7298
tp7299
a(g7297
V1-Phi(4)
p7300
tp7301
a(g7297
VQ(4)
p7302
tp7303
a(VQ(4/2.88675)
p7304
V1 - Phi(4)
p7305
tp7306
a(VQ(4/2.58199)
p7307
VQ(4)
p7308
tp7309
a(g6991
VQ(1-Phi(3))
p7310
tp7311
a(g7194
VQ(2-0/((1/45)^(0.5)))
p7312
tp7313
a(VQ(5/1.82574)
p7314
V1-Phi(2/2sqrt(40/12))
p7315
tp7316
a(g7314
V1-Phi(5/2sqrt(40/12))
p7317
tp7318
a(g6991
VQ(1-Phi(3)) * 2
p7319
tp7320
a(g6991
V(1-Phi(3)) * 2
p7321
tp7322
a(VQ(3/2.73861)
p7323
V0.416514
p7324
tp7325
a(VQ(3/2.32737)
p7326
VQ(3)
p7327
tp7328
a(VQ(3/2.04124)
p7329
V0.14164 
p7330
tp7331
a(g7329
V1.46969
p7332
tp7333
a(VQ(3/1.93649)
p7334
V1 - Phi(3)
p7335
tp7336
a(VQ(5/2.58199)
p7337
V1-Phi(5)
p7338
tp7339
a(g7337
VQ(5)
p7340
tp7341
a(g7009
VQ(1.6)
p7342
tp7343
a(g7009
VQ(0.1)
p7344
tp7345
a(g7009
VQ(0.2)
p7346
tp7347
a(g7009
VQ(0.9)
p7348
tp7349
a(g7009
VQ(0.3)
p7350
tp7351
a(g7009
VQ(0.4)
p7352
tp7353
a(g7009
VQ(0.5)
p7354
tp7355
a(g7009
VQ(0.6)
p7356
tp7357
a(g7009
VQ(0.7)
p7358
tp7359
a(g7009
VQ(0.8)
p7360
tp7361
a(g7009
VQ(1.0)
p7362
tp7363
a(g7009
VQ(1.1)
p7364
tp7365
a(g7009
VQ(1.2)
p7366
tp7367
a(g7009
VQ(1.3)
p7368
tp7369
a(g7009
VQ(1.4)
p7370
tp7371
a(g7009
VQ(1.5)
p7372
tp7373
a(g7009
VQ(1.7)
p7374
tp7375
a(g7009
VQ(1.8)
p7376
tp7377
a(g7009
VQ(1.9)
p7378
tp7379
a(g7009
VQ(2.0)
p7380
tp7381
a(g7009
VQ(2.1)
p7382
tp7383
a(g7009
VQ(2.2)
p7384
tp7385
a(g7009
VQ(2.3)
p7386
tp7387
a(g7009
VQ(2.4)
p7388
tp7389
a(g7009
VQ(2.5)
p7390
tp7391
a(g7009
VQ(2.6)
p7392
tp7393
a(g7009
VQ(2.7)
p7394
tp7395
a(g7009
VQ(2.8)
p7396
tp7397
a(g7009
VQ(2.9)
p7398
tp7399
a(g7009
VQ(3.0)
p7400
tp7401
a(g7009
VQ(3.1)
p7402
tp7403
a(g7009
VQ(3.2)
p7404
tp7405
a(g7009
VQ(3.3)
p7406
tp7407
a(g7009
VQ(3.4)
p7408
tp7409
a(g7009
VQ(3.5)
p7410
tp7411
a(g7009
VQ(3.6)
p7412
tp7413
a(g7009
VQ(3.7)
p7414
tp7415
a(g7009
VQ(3.8)
p7416
tp7417
a(g7009
VQ(3.9)
p7418
tp7419
a(g7009
VQ(4.0)
p7420
tp7421
a(g7009
VQ(1.6)
p7422
tp7423
a(g7009
VQ(0)
p7424
tp7425
a(g7009
VQ(4.1)
p7426
tp7427
a(g7009
VQ(4.2)
p7428
tp7429
a(g7009
VQ(4.3)
p7430
tp7431
a(g7009
VQ(4.4)
p7432
tp7433
a(g7009
VQ(4.5)
p7434
tp7435
a(g7009
VQ(4.6)
p7436
tp7437
a(g7009
VQ(4.7)
p7438
tp7439
a(g7009
VQ(4.8)
p7440
tp7441
a(g7009
VQ(4.9)
p7442
tp7443
a(g7009
VQ(5.0)
p7444
tp7445
a(g7009
VQ(5.1)
p7446
tp7447
a(g7009
VQ(9)
p7448
tp7449
a(g7009
VQ(5.1)
p7450
tp7451
a(g7009
VQ(5.2)
p7452
tp7453
a(g7009
VQ(5.3)
p7454
tp7455
a(VQ(4/2.41523)
p7456
VQ(4)
p7457
tp7458
a(g7456
VQ(48)
p7459
tp7460
a(g7456
VQ(48)4/[sqrt(1/12)]
p7461
tp7462
a(VQ(3/2.66145)
p7463
V1-Phi(3)
p7464
tp7465
a(VQ(4/2.32737)
p7466
V Q(3/(sqrt(100)/sqrt(12)))
p7467
tp7468
a(g7466
V Q(3/(sqrt(65)/sqrt(12)))
p7469
tp7470
asg1243
(lp7471
(VQ(5/2.81366)
p7472
V1-(5/sqrt(95/12))
p7473
tp7474
a(VQ(4/2.41523)
p7475
V1-4/sqrt(70/12)
p7476
tp7477
asS"['R.0']"
p7478
(lp7479
(VQ(5/2.5)
p7480
V2(1-.9938)
p7481
(lp7482
(S'R.0'
p7483
F2.0
V5/2.5
p7484
g1773
tp7485
aVdsmonaha
p7486
g1299
V2015-11-04 17:37:49
p7487
tp7488
a(g7480
V2(1-.9772)
p7489
(lp7490
(S'R.0'
p7491
F2.0
V5/2.5
p7492
g1773
tp7493
aVdsmonaha
p7494
g1299
V2015-11-04 17:39:54
p7495
tp7496
a(VQ(2/2.88675)
p7497
V(2/(1/sqrt(12)*sqrt(100)))/2
p7498
(lp7499
(S'R.0'
p7500
F0.6928206460552524
V2/2.88675
p7501
V2/(1/sqrt(12)*sqrt(100))
p7502
tp7503
aVm4bui
p7504
g1912
V2015-11-06 04:31:20
p7505
tp7506
a(VQ(4/2.58199)
p7507
VPhi(4/sqrt(((0.5+0.5)^2/12)*80))
p7508
(lp7509
(S'R.0'
p7510
F1.549192676966216
V4/2.58199
p7511
V4/sqrt(((0.5+0.5)^2/12)*80)
p7512
tp7513
aVksrijong
p7514
g3904
V2015-11-06 22:52:33
p7515
tp7516
a(VQ(3/2.58199)
p7517
VPhi(3/sqrt(80/12))
p7518
(lp7519
(S'R.0'
p7520
F1.161894507724662
V3/2.58199
p7521
V3/sqrt(80/12)
p7522
tp7523
aVw4shin
p7524
g6110
V2015-11-06 23:49:49
p7525
tp7526
asS"['R.0.0', 'R.0.1']"
p7527
(lp7528
(VQ(4/2.23607)
p7529
VQ(4(sqrt(1/12)sqrt(60)))
p7530
(lp7531
(S'R.0.0'
p7532
F4.0
g1697
g1697
tp7533
a(S'R.0.1'
p7534
F2.23607
V2.23607
p7535
Vsqrt(1/12)sqrt(60)
p7536
tp7537
aVt2li
p7538
g2314
V2015-11-06 03:19:54
p7539
tp7540
asS"['R.0.1']"
p7541
(lp7542
(VQ(4/1.93649)
p7543
VQ(4/4/sqrt(45/12))
p7544
(lp7545
(S'R.0.1'
p7546
F1.93649
V1.93649
p7547
Vsqrt(45/12)
p7548
tp7549
aVaggouw
p7550
g1701
V2015-11-04 09:13:41
p7551
tp7552
a(VQ(3/1.93649)
p7553
VQ((3-0.5*45)/[[(1/12)*45]^(1/2)])
p7554
(lp7555
(S'R.0.1'
p7556
F1.93649
V1.93649
p7557
V[(1/12)*45]^(1/2)
p7558
tp7559
aVl5han
p7560
g6372
V2015-11-06 19:49:17
p7561
tp7562
ass.