(dp0
V1
p1
(dp2
Vdruble
p3
(dp4
S'part1_correct_attempt'
p5
(lp6
S'0:02:13'
p7
aV(1/81) * 400
p8
asS'first_attempt'
p9
V2015-11-04 03:45:08
p10
sS'part1_incorrect_attempt'
p11
(lp12
(S'0:00:00'
p13
V1/400
p14
tp15
a(S'0:00:49'
p16
V81/400
p17
tp18
assVr2fisher
p19
(dp20
S'part1_correct_attempt'
p21
(lp22
S'0:01:17'
p23
aV400/81
p24
asg9
V2015-11-06 02:49:10
p25
sS'part1_incorrect_attempt'
p26
(lp27
(S'0:00:00'
p28
V(1/81)^400
p29
tp30
a(S'0:00:45'
p31
V(1/81)^5
p32
tp33
assVlywong
p34
(dp35
S'part1_correct_attempt'
p36
(lp37
S'2 days, 13:23:01'
p38
aV(1/81)*400
p39
asg9
V2015-11-02 04:47:54
p40
sS'part1_incorrect_attempt'
p41
(lp42
(S'0:00:00'
p43
V4/400
p44
tp45
a(S'0:00:57'
p46
V4/400*(1/81)
p47
tp48
a(S'0:00:00'
p49
V4/400
p50
tp51
assVabasu
p52
(dp53
S'part1_correct_attempt'
p54
(lp55
S'0:01:51'
p56
aV400*(1/64)
p57
asg9
V2015-10-31 23:43:50
p58
sS'part1_incorrect_attempt'
p59
(lp60
(S'0:00:00'
p61
V0.16
p62
tp63
assVb1yao
p64
(dp65
S'part1_correct_attempt'
p66
(lp67
S'0:03:23'
p68
aV400/81
p69
asg9
V2015-11-03 06:09:34
p70
sS'part1_incorrect_attempt'
p71
(lp72
(S'0:00:00'
p73
V(1/100)
p74
tp75
a(S'0:00:20'
p76
V(1/81)^4
p77
tp78
assVvsosnovs
p79
(dp80
S'part1_correct_attempt'
p81
(lp82
S'0:00:06'
p83
aV1/81*400
p84
asg9
V2015-11-05 20:06:51
p85
sS'part1_incorrect_attempt'
p86
(lp87
(S'0:00:00'
p88
V81*400
p89
tp90
assVdlt009
p91
(dp92
S'part1_correct_attempt'
p93
(lp94
S'0:22:23'
p95
aV(1/81)(400)
p96
asg9
V2015-11-04 06:06:49
p97
sS'part1_incorrect_attempt'
p98
(lp99
(S'0:00:00'
p100
V1/400
p101
tp102
assVtpmach
p103
(dp104
S'part1_correct_attempt'
p105
(lp106
S'23:08:47'
p107
aV(1/81)400
p108
asg9
V2015-11-03 23:59:17
p109
sS'part1_incorrect_attempt'
p110
(lp111
(S'0:00:00'
p112
V2/400
p113
tp114
a(S'0:00:00'
p115
V2/400
p116
tp117
assVsyc078
p118
(dp119
S'part1_correct_attempt'
p120
(lp121
S'6 days, 4:48:56'
p122
aV400/81
p123
asg9
V2015-10-30 20:24:15
p124
sS'part1_incorrect_attempt'
p125
(lp126
(S'0:00:00'
p127
V1/3
p128
tp129
assVkew017
p130
(dp131
S'part1_correct_attempt'
p132
(lp133
S'12:13:52'
p134
aV400/81
p135
asg9
V2015-11-05 06:00:12
p136
sS'part1_incorrect_attempt'
p137
(lp138
(S'0:00:00'
p139
V81/4
p140
tp141
assVt2shin
p142
(dp143
S'part1_correct_attempt'
p144
(lp145
S'0:00:45'
p146
aV4
p147
asg9
V2015-11-04 03:50:05
p148
sS'part1_incorrect_attempt'
p149
(lp150
(S'0:00:00'
p151
V(1/100)^400
p152
tp153
assVpnquach
p154
(dp155
S'part1_correct_attempt'
p156
(lp157
S'0:09:19'
p158
aV400/64
p159
asg9
V2015-11-06 01:19:21
p160
sS'part1_incorrect_attempt'
p161
(lp162
(S'0:00:00'
p163
VC(400, 5)*(1/64)^5*(1/64)^395
p164
tp165
a(S'0:01:29'
p166
V(1/64)^5
p167
tp168
assVrlhagen
p169
(dp170
S'part1_correct_attempt'
p171
(lp172
S'0:13:16'
p173
aV400/64
p174
asg9
V2015-10-31 16:02:56
p175
sS'part1_incorrect_attempt'
p176
(lp177
(S'0:00:00'
p178
V(e^(64/400))*((64/400)^3/3)
p179
tp180
a(S'0:01:33'
p181
V(e^(400/64))*((400/64)^3/3)
p182
tp183
a(S'0:03:34'
p184
V(e^(400))*((400)^3/3)
p185
tp186
a(S'0:04:08'
p187
V(e^(-64/400))*((64/400)^3/3)
p188
tp189
a(S'0:04:32'
p190
V(e^(-400/64))*((400/64)^3/3)
p191
tp192
a(S'0:04:53'
p193
V(e^(-400/64))*((400/64)^3/3!)
p194
tp195
a(S'0:05:14'
p196
V(e^(-64/400))*((64/400)^3/3!)
p197
tp198
a(S'0:07:43'
p199
V(e^(-400/64))*((400/64)^3/3!)
p200
tp201
assVganajera
p202
(dp203
S'part1_correct_attempt'
p204
(lp205
S'2 days, 23:36:28'
p206
aV400/81
p207
asg9
V2015-11-01 00:37:40
p208
sS'part1_incorrect_attempt'
p209
(lp210
(S'0:00:00'
p211
V0.000086875
p212
tp213
a(S'0:00:29'
p214
V(1/81)*(80/81)^399
p215
tp216
assVnnh002
p217
(dp218
S'part1_correct_attempt'
p219
(lp220
S'0:04:08'
p221
aV400/81
p222
asg9
V2015-11-05 01:49:49
p223
sS'part1_incorrect_attempt'
p224
(lp225
(S'0:00:00'
p226
V1/200
p227
tp228
assVv3doan
p229
(dp230
S'part1_correct_attempt'
p231
(lp232
S'10:41:39'
p233
aV400/81
p234
asg9
V2015-11-04 18:02:19
p235
sS'part1_incorrect_attempt'
p236
(lp237
(S'0:00:00'
p238
V2/400
p239
tp240
assVdis003
p241
(dp242
S'part1_correct_attempt'
p243
(lp244
S'0:00:34'
p245
aV400/81
p246
asg9
V2015-11-05 21:06:33
p247
sS'part1_incorrect_attempt'
p248
(lp249
(S'0:00:00'
p250
V9*9
p251
tp252
assVaakumar
p253
(dp254
S'part1_correct_attempt'
p255
(lp256
S'0:03:54'
p257
aV400/64
p258
asg9
V2015-11-04 03:01:28
p259
sS'part1_incorrect_attempt'
p260
(lp261
(S'0:00:00'
p262
V.1227
p263
tp264
assVjhw015
p265
(dp266
S'part1_correct_attempt'
p267
(lp268
S'0:02:20'
p269
aV400/81
p270
asg9
V2015-11-04 01:31:08
p271
sS'part1_incorrect_attempt'
p272
(lp273
(S'0:00:00'
p274
V1/8
p275
tp276
assVdsmonaha
p277
(dp278
S'part1_correct_attempt'
p279
(lp280
S'0:06:27'
p281
aV400/64
p282
asg9
V2015-11-02 15:32:49
p283
sS'part1_incorrect_attempt'
p284
(lp285
(S'0:00:00'
p286
V3/400
p287
tp288
assVm8woo
p289
(dp290
S'part1_correct_attempt'
p291
(lp292
S'0:02:37'
p293
aV400/64
p294
asg9
V2015-11-05 20:07:00
p295
sS'part1_incorrect_attempt'
p296
(lp297
(S'0:00:00'
p298
Ve^-(400/64) * (400/64)^2/2!
p299
tp300
assVeaherman
p301
(dp302
S'part1_correct_attempt'
p303
(lp304
S'0:12:23'
p305
aV400/81
p306
asg9
V2015-11-06 19:07:56
p307
sS'part1_incorrect_attempt'
p308
(lp309
(S'0:00:00'
p310
V1/[1/81]
p311
tp312
a(S'0:08:10'
p313
Ve
p314
tp315
a(S'0:08:35'
p316
V2/400
p317
tp318
assVedescobe
p319
(dp320
S'part1_correct_attempt'
p321
(lp322
S'0:07:16'
p323
aV400/81
p324
asg9
V2015-11-01 04:11:17
p325
sS'part1_incorrect_attempt'
p326
(lp327
(S'0:00:00'
p328
V79.7327
p329
tp330
a(S'0:03:13'
p331
V399.52
p332
tp333
assVlguintu
p334
(dp335
S'part1_correct_attempt'
p336
(lp337
S'0:00:33'
p338
aV400/81
p339
asg9
V2015-11-03 03:54:50
p340
sS'part1_incorrect_attempt'
p341
(lp342
(S'0:00:00'
p343
V5/400
p344
tp345
assVakg009
p346
(dp347
S'part1_correct_attempt'
p348
(lp349
S'0:42:02'
p350
aV400/81
p351
asg9
V2015-11-06 19:39:11
p352
sS'part1_incorrect_attempt'
p353
(lp354
(S'0:00:00'
p355
V(1/81)*(1/100)
p356
tp357
assVacs008
p358
(dp359
S'part1_correct_attempt'
p360
(lp361
S'0:01:55'
p362
aV6.25
p363
asg9
V2015-11-04 03:48:39
p364
sS'part1_incorrect_attempt'
p365
(lp366
(S'0:00:00'
p367
V1/64^2
p368
tp369
assVjtfrankl
p370
(dp371
S'part1_correct_attempt'
p372
(lp373
S'0:03:00'
p374
aV400/64
p375
asg9
V2015-11-06 17:47:53
p376
sS'part1_incorrect_attempt'
p377
(lp378
(S'0:00:00'
p379
V(e**(-400))*(400)
p380
tp381
assVlahawkin
p382
(dp383
S'part1_correct_attempt'
p384
(lp385
S'0:05:28'
p386
aV400/64
p387
asg9
V2015-11-04 04:12:18
p388
sS'part1_incorrect_attempt'
p389
(lp390
(S'0:00:00'
p391
V1/400
p392
tp393
assVcstringh
p394
(dp395
S'part1_correct_attempt'
p396
(lp397
S'1 day, 5:22:25'
p398
aV400/81
p399
asg9
V2015-11-03 00:39:45
p400
sS'part1_incorrect_attempt'
p401
(lp402
(S'0:00:00'
p403
V1/9
p404
tp405
a(S'0:00:13'
p406
V5/400
p407
tp408
a(S'0:00:53'
p409
V81/5
p410
tp411
assVw4shin
p412
(dp413
S'part1_correct_attempt'
p414
(lp415
S'0:04:50'
p416
aV400*(1/81)
p417
asg9
V2015-11-04 20:50:03
p418
sS'part1_incorrect_attempt'
p419
(lp420
(S'0:00:00'
p421
V2*(1-((1-1/81)^400))
p422
tp423
a(S'0:01:09'
p424
V(1-((1-1/81)^400))
p425
tp426
assVkquong
p427
(dp428
S'part1_correct_attempt'
p429
(lp430
S'0:05:25'
p431
aV400/81
p432
asg9
V2015-11-01 22:13:18
p433
sS'part1_incorrect_attempt'
p434
(lp435
(S'0:00:00'
p436
V(1/81)^2 * 400
p437
tp438
assVhabuamar
p439
(dp440
S'part1_correct_attempt'
p441
(lp442
S'0:02:08'
p443
aV400*(1/81)
p444
asg9
V2015-11-02 23:54:52
p445
sS'part1_incorrect_attempt'
p446
(lp447
(S'0:00:00'
p448
V81*(1/81)
p449
tp450
assVjmiclat
p451
(dp452
S'part1_correct_attempt'
p453
(lp454
S'0:06:09'
p455
aV400/64
p456
asg9
V2015-11-06 08:01:51
p457
sS'part1_incorrect_attempt'
p458
(lp459
(S'0:00:00'
p460
V3/400
p461
tp462
a(S'0:04:31'
p463
V1.56
p464
tp465
a(S'0:05:41'
p466
V3/400
p467
tp468
assVyil035
p469
(dp470
S'part1_correct_attempt'
p471
(lp472
S'6:32:45'
p473
aV400/64
p474
asg9
V2015-11-03 23:44:47
p475
sS'part1_incorrect_attempt'
p476
(lp477
(S'0:00:00'
p478
V1/8
p479
tp480
assVhmnaing
p481
(dp482
S'part1_correct_attempt'
p483
(lp484
S'18:14:02'
p485
aV1/81*400
p486
asg9
V2015-11-03 23:57:00
p487
sS'part1_incorrect_attempt'
p488
(lp489
(S'0:00:00'
p490
V1/400
p491
tp492
assVtjke
p493
(dp494
S'part1_correct_attempt'
p495
(lp496
S'0:01:58'
p497
aV400*1/81
p498
asg9
V2015-11-04 20:18:54
p499
sS'part1_incorrect_attempt'
p500
(lp501
(S'0:00:00'
p502
V1/81^2
p503
tp504
assVksmurlo
p505
(dp506
S'part1_correct_attempt'
p507
(lp508
S'0:00:34'
p509
aV400/64
p510
asg9
V2015-11-05 04:44:25
p511
sS'part1_incorrect_attempt'
p512
(lp513
(S'0:00:00'
p514
V64/400
p515
tp516
assVany027
p517
(dp518
S'part1_correct_attempt'
p519
(lp520
S'0:01:57'
p521
aV(1/81) * 400
p522
asg9
V2015-11-01 18:58:58
p523
sS'part1_incorrect_attempt'
p524
(lp525
(S'0:00:00'
p526
V1/400
p527
tp528
a(S'0:01:47'
p529
V81/400
p530
tp531
asssV3
p532
(dp533
Vgthorn
p534
(dp535
S'part3_correct_attempt'
p536
(lp537
S'0:02:13'
p538
aV81 * 0.14385
p539
asS'part2_correct_attempt'
p540
(lp541
S'0:01:09'
p542
aVe^(-400/81)*((400/81)^3/(3!))
p543
asg9
V2015-11-02 06:46:38
p544
sS'part3_incorrect_attempt'
p545
(lp546
(S'0:01:57'
p547
V400 * 0.14385
p548
tp549
assVdruble
p550
(dp551
S'part3_correct_attempt'
p552
(lp553
S'0:05:11'
p554
aV(e^-((1/81) * 400))*(((1/81) * 400)/1) * 81
p555
asS'part2_correct_attempt'
p556
(lp557
S'0:00:00'
p558
aV(e^-((1/81) * 400))*(((1/81) * 400)/1)
p559
asg9
V2015-11-04 03:47:21
p560
sS'part3_incorrect_attempt'
p561
(lp562
(S'0:00:00'
p563
V400 / (1/81)
p564
tp565
a(S'0:01:38'
p566
V1 / ((1/81) * 400)
p567
tp568
a(S'0:02:08'
p569
V(1/81) * 400
p570
tp571
a(S'0:03:14'
p572
V1 / ((1/81) * 400)
p573
tp574
assVhaliew
p575
(dp576
S'part3_correct_attempt'
p577
(lp578
S'1 day, 17:24:01'
p579
aVe^(-4)(16/2)(100)
p580
asS'part2_correct_attempt'
p581
(lp582
S'0:00:00'
p583
aVe^(-4)(16/2)
p584
asg9
V2015-11-05 06:53:43
p585
sS'part3_incorrect_attempt'
p586
(lp587
(S'1 day, 17:23:45'
p588
Ve^(-1/10)(1/10)
p589
tp590
assVyig015
p591
(dp592
S'part3_correct_attempt'
p593
(lp594
S'0:01:40'
p595
aV81*0.177592
p596
asS'part2_correct_attempt'
p597
(lp598
S'0:00:00'
p599
aVe^(-400/81)*(400/81)^4/4!
p600
asg9
V2015-11-05 09:25:07
p601
sS'part3_incorrect_attempt'
p602
(lp603
(S'0:00:19'
p604
V400/81
p605
tp606
assVrwthomps
p607
(dp608
S'part3_correct_attempt'
p609
(lp610
S'0:01:09'
p611
aV81 * ((e^(-400/81)) * (((400/81)^2)/2!))
p612
asS'part2_correct_attempt'
p613
(lp614
S'0:00:00'
p615
aV(e^(-400/81)) * (((400/81)^2)/2!)
p616
asg9
V2015-11-06 16:05:03
p617
sS'part3_incorrect_attempt'
p618
(lp619
(S'0:00:32'
p620
V400 * (e^(-400/81)) * (((400/81)^2)/2!)
p621
tp622
assVjag028
p623
(dp624
S'part3_correct_attempt'
p625
(lp626
S'3:02:47'
p627
aV100*(e^(-4)[(4^1)/(1!)])
p628
asS'part2_correct_attempt'
p629
(lp630
S'2:59:50'
p631
aVe^(-4)[(4^1)/(1!)]
p632
asg9
V2015-11-02 15:56:08
p633
sS'part3_incorrect_attempt'
p634
(lp635
(S'3:01:42'
p636
V400*[e^(-4)[(4^1)/(1!)]]
p637
tp638
a(S'3:02:12'
p639
V400*(0.0732626)
p640
tp641
assVccn001
p642
(dp643
S'part3_correct_attempt'
p644
(lp645
S'0:03:31'
p646
aV(64)(e^(-400/64)(400/64)^2/(2!))
p647
asS'part2_correct_attempt'
p648
(lp649
S'0:00:00'
p650
aVe^(-400/64)(400/64)^2/(2!)
p651
asg9
V2015-11-02 21:59:00
p652
sS'part3_incorrect_attempt'
p653
(lp654
(S'0:03:02'
p655
V(400/64)(e^(-400/64)(400/64)^2/(2!))
p656
tp657
a(S'0:03:24'
p658
V(400)(e^(-400/64)(400/64)^2/(2!))
p659
tp660
assVt2shin
p661
(dp662
S'part3_correct_attempt'
p663
(lp664
S'0:02:05'
p665
aV100*0.146525
p666
asS'part2_correct_attempt'
p667
(lp668
S'0:01:16'
p669
aV(e^-4)(4^2)/(2)
p670
asg9
V2015-11-04 03:50:50
p671
sS'part3_incorrect_attempt'
p672
(lp673
(S'0:01:44'
p674
V4*0.146525
p675
tp676
a(S'0:01:59'
p677
V400*0.146525
p678
tp679
assVquwong
p680
(dp681
S'part3_correct_attempt'
p682
(lp683
S'0:04:33'
p684
aVe^(-400/81) * (400)
p685
asS'part2_correct_attempt'
p686
(lp687
S'0:00:37'
p688
aVe^(-400/81) * (400/81)
p689
asg9
V2015-11-02 23:31:39
p690
sS'part3_incorrect_attempt'
p691
(lp692
(S'0:01:47'
p693
V400/81
p694
tp695
assVhkhodada
p696
(dp697
S'part3_correct_attempt'
p698
(lp699
S'0:19:50'
p700
aV81*(400/81)^3/[e^(400/81)*6]
p701
asS'part2_correct_attempt'
p702
(lp703
S'0:05:25'
p704
aV(400/81)^3/[e^(400/81)*6]
p705
asg9
V2015-11-02 22:21:26
p706
sS'part3_incorrect_attempt'
p707
(lp708
(S'0:05:49'
p709
V(400/81)^3/2*[e^(400/81)*6]
p710
tp711
a(S'0:14:08'
p712
V(400/81)^3/[e^(400/81)*6]
p713
tp714
a(S'0:18:12'
p715
V3*(400/81)^3/[e^(400/81)*6]
p716
tp717
assVyjshin
p718
(dp719
S'part3_correct_attempt'
p720
(lp721
S'0:38:18'
p722
aV64e^(-400/64)((400/64)^3/6)
p723
asS'part2_correct_attempt'
p724
(lp725
S'0:12:21'
p726
aVe^(-400/64)((400/64)^3/6)
p727
asg9
V2015-11-05 20:57:33
p728
sS'part3_incorrect_attempt'
p729
(lp730
(S'0:16:36'
p731
Ve^(-400/64)((400/64)^64/64!)
p732
tp733
assVkbielawi
p734
(dp735
S'part3_correct_attempt'
p736
(lp737
S'22:55:53'
p738
aV((400/81)^5/(5!))*e^(-400/81)*81
p739
asS'part2_correct_attempt'
p740
(lp741
S'22:52:42'
p742
aV((400/81)^5/(5!))*e^(-400/81)
p743
asg9
V2015-11-03 20:28:48
p744
sS'part3_incorrect_attempt'
p745
(lp746
(S'22:53:37'
p747
V5*(400/81)
p748
tp749
a(S'22:55:40'
p750
V((400/81)^5/(5!))*e^(-400/81)*400
p751
tp752
assVm4salaza
p753
(dp754
S'part3_correct_attempt'
p755
(lp756
S'0:06:23'
p757
aVe^(-4.938)*(4.938^3/(3*2))*81
p758
asS'part2_correct_attempt'
p759
(lp760
S'0:02:57'
p761
aVe^(-4.938)*(4.938^3/(3*2))
p762
asg9
V2015-11-04 04:13:43
p763
sS'part3_incorrect_attempt'
p764
(lp765
(S'0:04:44'
p766
Ve^(-4.938)
p767
tp768
a(S'0:05:01'
p769
Ve^(-400/81)
p770
tp771
a(S'0:06:04'
p772
Ve^(-4.938)*(4.938^3/(3*2))/81
p773
tp774
assVachava
p775
(dp776
S'part3_correct_attempt'
p777
(lp778
S'15:02:35'
p779
aV81*e^(-400*(1/81)) * (((400*(1/81))^3)/6)
p780
asS'part2_correct_attempt'
p781
(lp782
S'14:53:54'
p783
aVe^(-400*(1/81)) * (((400*(1/81))^3)/6)
p784
asg9
V2015-11-03 07:54:25
p785
sS'part3_incorrect_attempt'
p786
(lp787
(S'14:55:25'
p788
Ve^(-400*(1/81)) * (((400*(1/81))^3)/6) + e^(-400*(1/81)) * (((400*(1/81))^2)/4) + e^(-400*(1/81)) * (((400*(1/81))^1)/1)
p789
tp790
a(S'14:55:55'
p791
V(e^(-400*(1/81)) * (((400*(1/81))^3)/6)) + (e^(-400*(1/81)) * (((400*(1/81))^2)/4)) + (e^(-400*(1/81)) * (((400*(1/81))^1)/1))
p792
tp793
a(S'14:58:14'
p794
Ve^(-400*(1/81)) * (((400*(1/81))^3)/6) * (400/81)
p795
tp796
a(S'14:58:38'
p797
V(e^(-400*(1/81)) * (((400*(1/81))^3)/6)) * (400/81)
p798
tp799
a(S'14:59:17'
p800
V(e^(-400*(1/81)) * (((400*(1/81))^3)/6)) * (3)
p801
tp802
a(S'15:01:15'
p803
V400*(1/81)
p804
tp805
a(S'15:01:24'
p806
V(400*(1/81))*3
p807
tp808
assVabjara
p809
(dp810
S'part3_correct_attempt'
p811
(lp812
S'0:03:34'
p813
aV100*e^-4
p814
asS'part2_correct_attempt'
p815
(lp816
S'0:02:08'
p817
aVe^-4
p818
asg9
V2015-11-04 00:23:20
p819
sS'part3_incorrect_attempt'
p820
(lp821
(S'0:02:08'
p822
Ve^-4
p823
tp824
assVj6quach
p825
(dp826
S'part3_correct_attempt'
p827
(lp828
S'0:00:47'
p829
aV81(e^(-400/81)*(400/81)^2/2!)
p830
asS'part2_correct_attempt'
p831
(lp832
S'0:00:00'
p833
aVe^(-400/81)*(400/81)^2/2!
p834
asg9
V2015-11-05 10:32:05
p835
sS'part3_incorrect_attempt'
p836
(lp837
(S'0:00:00'
p838
V(81*80/2)*(e^(-400/81)*(400/81)^2/2!)
p839
tp840
a(S'0:00:14'
p841
V(81*82/2)*(e^(-400/81)*(400/81)^2/2!)
p842
tp843
assVany027
p844
(dp845
S'part3_correct_attempt'
p846
(lp847
S'0:06:47'
p848
aVe^-((1/81) * 400) * 81
p849
asS'part2_correct_attempt'
p850
(lp851
S'0:04:40'
p852
aVe^-((1/81) * 400)
p853
asg9
V2015-11-01 19:00:55
p854
sS'part3_incorrect_attempt'
p855
(lp856
(S'0:05:57'
p857
Ve^-((1/81) * 400) * ( (((1/81) * 400)^81) / 81!)
p858
tp859
a(S'0:06:08'
p860
Ve^-((1/81) * 400) * ( (((1/81) * 400)^0) / 0!)
p861
tp862
assVanislam
p863
(dp864
S'part3_correct_attempt'
p865
(lp866
S'0:00:34'
p867
aV100 * e^(-4) * (4^4 / 4!)
p868
asS'part2_correct_attempt'
p869
(lp870
S'0:00:00'
p871
aVe^(-4) * (4^4 / 4!)
p872
asg9
V2015-11-05 04:51:07
p873
sS'part3_incorrect_attempt'
p874
(lp875
(S'0:00:00'
p876
V16 * e^(-4) * (4^4 / 4!)
p877
tp878
assVmitopete
p879
(dp880
S'part3_correct_attempt'
p881
(lp882
S'2 days, 17:48:32'
p883
aV(25/4)/(e^(25/4))(64)
p884
asS'part2_correct_attempt'
p885
(lp886
S'0:10:04'
p887
aV(25/4)/(e^(25/4))
p888
asg9
V2015-11-04 03:19:34
p889
sS'part3_incorrect_attempt'
p890
(lp891
(S'0:12:37'
p892
V1/(25/4)^2
p893
tp894
a(S'0:13:03'
p895
V4/25
p896
tp897
a(S'0:13:39'
p898
V25/4
p899
tp900
a(S'0:14:25'
p901
V400/(25/4)
p902
tp903
a(S'2 days, 17:48:17'
p904
V(25/4)/(e^(25/4))(1/64)
p905
tp906
a(S'2 days, 20:58:31'
p907
V400/(25/4)
p908
tp909
assVkrau
p910
(dp911
S'part3_correct_attempt'
p912
(lp913
S'0:01:05'
p914
aV(e^-4)*(4^1)/(1!)*100
p915
asS'part2_correct_attempt'
p916
(lp917
S'0:00:44'
p918
aV(e^-4)*(4^1)/(1!)
p919
asg9
V2015-11-04 19:36:17
p920
sS'part3_incorrect_attempt'
p921
(lp922
(S'0:00:59'
p923
V(e^-4)*(4^1)/(1!)*400
p924
tp925
assVkthui
p926
(dp927
S'part3_correct_attempt'
p928
(lp929
S'0:03:23'
p930
aVe^(-400/81)*((400/81)^3/3!)*81
p931
asS'part2_correct_attempt'
p932
(lp933
S'0:00:52'
p934
aVe^(-400/81)*((400/81)^3/3!)
p935
asg9
V2015-11-05 03:03:04
p936
sS'part3_incorrect_attempt'
p937
(lp938
(S'0:01:15'
p939
V400/81
p940
tp941
assVvsosnovs
p942
(dp943
S'part3_correct_attempt'
p944
(lp945
S'0:10:45'
p946
aV81*0.177592
p947
asS'part2_correct_attempt'
p948
(lp949
S'0:01:09'
p950
aV(e^-(1/81*400)((1/81*400)^4))/4!
p951
asg9
V2015-11-05 20:06:57
p952
sS'part3_incorrect_attempt'
p953
(lp954
(S'0:01:38'
p955
V4*0.177592
p956
tp957
a(S'0:01:56'
p958
V400*0.177592
p959
tp960
a(S'0:02:03'
p961
V80*0.177592
p962
tp963
a(S'0:02:29'
p964
V1-0.177592
p965
tp966
a(S'0:07:41'
p967
V1-((e^-(1/81*400)((1/81*400)^4))/4!+(e^-(1/81*400)((1/81*400)^3))/3!)+(e^-(1/81*400)((1/81*400)^2))/2!+(e^-(1/81*400)((1/81*400)^1))/1!+(e^-(1/81*400)((1/81*400)^0))/0!
p968
tp969
a(S'0:09:40'
p970
V4.93827*0.177592
p971
tp972
a(S'0:09:48'
p973
V4.93827*0.177592*0.177592
p974
tp975
a(S'0:09:59'
p976
V4.93827*0.177592*4.93827
p977
tp978
assVk5law
p979
(dp980
S'part3_correct_attempt'
p981
(lp982
S'0:04:13'
p983
aV81*[e^(-[400*(1/81)])*[[400*(1/81)]^2/2]]
p984
asS'part2_correct_attempt'
p985
(lp986
S'0:02:52'
p987
aVe^(-[400*(1/81)])*[[400*(1/81)]^2/2]
p988
asg9
V2015-11-04 06:57:17
p989
sS'part3_incorrect_attempt'
p990
(lp991
(S'0:03:54'
p992
V400*[e^(-[400*(1/81)])*[[400*(1/81)]^2/2]]
p993
tp994
assVdlt009
p995
(dp996
S'part3_correct_attempt'
p997
(lp998
S'18:01:10'
p999
aV81[e^((-1/81)(400))([(1/81)(400)]^5)/(5!)]
p1000
asS'part2_correct_attempt'
p1001
(lp1002
S'0:03:16'
p1003
aVe^((-1/81)(400))([(1/81)(400)]^5)/(5!)
p1004
asg9
V2015-11-04 06:29:12
p1005
sS'part3_incorrect_attempt'
p1006
(lp1007
(S'0:03:16'
p1008
V[(1/81)(400)]^5
p1009
tp1010
a(S'0:03:31'
p1011
V[(1/81)(400)]^2
p1012
tp1013
a(S'0:08:05'
p1014
V1/[e^((-1/81)(400))([(1/81)(400)]^5)/(5!)]
p1015
tp1016
a(S'0:08:43'
p1017
V1/[(1/81)(400)]
p1018
tp1019
a(S'0:13:14'
p1020
V1/0.1754
p1021
tp1022
a(S'0:17:08'
p1023
V1/[.1754]
p1024
tp1025
assVjfalcone
p1026
(dp1027
S'part3_correct_attempt'
p1028
(lp1029
S'0:03:55'
p1030
aV64 * 0.122735
p1031
asS'part2_correct_attempt'
p1032
(lp1033
S'0:01:43'
p1034
aV[e^(-6.25)6.25^4]/(4!)
p1035
asg9
V2015-11-04 04:08:44
p1036
sS'part3_incorrect_attempt'
p1037
(lp1038
(S'0:03:33'
p1039
V100 * 0.122735
p1040
tp1041
assVj5phung
p1042
(dp1043
S'part3_correct_attempt'
p1044
(lp1045
S'0:12:56'
p1046
aVe^(-4)*((4^3)/3!) * 100
p1047
asS'part2_correct_attempt'
p1048
(lp1049
S'0:02:46'
p1050
aVe^(-4)*((4^3)/3!)
p1051
asg9
V2015-11-02 16:17:24
p1052
sS'part3_incorrect_attempt'
p1053
(lp1054
(S'0:06:32'
p1055
V4/100
p1056
tp1057
assVp4kumar
p1058
(dp1059
S'part3_correct_attempt'
p1060
(lp1061
S'0:01:28'
p1062
aV100 * 0.195367
p1063
asS'part2_correct_attempt'
p1064
(lp1065
S'0:00:35'
p1066
aVe^(-4)*(4^4)/(4!)
p1067
asg9
V2015-11-05 18:45:56
p1068
sS'part3_incorrect_attempt'
p1069
(lp1070
(S'0:00:54'
p1071
V0.195367 * 1/100
p1072
tp1073
assVamquinte
p1074
(dp1075
S'part3_correct_attempt'
p1076
(lp1077
S'0:03:50'
p1078
aV11.65
p1079
asS'part2_correct_attempt'
p1080
(lp1081
S'0:01:53'
p1082
aV0.1438
p1083
asg9
V2015-11-05 05:34:51
p1084
sS'part3_incorrect_attempt'
p1085
(lp1086
(S'0:01:53'
p1087
V400/81
p1088
tp1089
a(S'0:02:45'
p1090
V400/27
p1091
tp1092
assVtpmach
p1093
(dp1094
S'part3_correct_attempt'
p1095
(lp1096
S'4:52:36'
p1097
aV81*(e^(-400/81)*(((400/81)^2)/2!))
p1098
asS'part2_correct_attempt'
p1099
(lp1100
S'0:03:29'
p1101
aVe^(-400/81)*(((400/81)^2)/2!)
p1102
asg9
V2015-11-04 23:08:04
p1103
sS'part3_incorrect_attempt'
p1104
(lp1105
(S'0:05:36'
p1106
V400/81
p1107
tp1108
a(S'0:08:25'
p1109
V1-(e^(-400/81)*(((400/81)^2)/2!))
p1110
tp1111
a(S'4:48:37'
p1112
V(e^(-400/81)*(((400/81)^2)/2!))
p1113
tp1114
assVttimmons
p1115
(dp1116
S'part3_correct_attempt'
p1117
(lp1118
S'0:18:49'
p1119
aV100*[e^(-4)]*([4^2]/(2!))
p1120
asS'part2_correct_attempt'
p1121
(lp1122
S'0:01:57'
p1123
aV[e^(-4)]*([4^2]/(2!))
p1124
asg9
V2015-11-02 03:35:49
p1125
sS'part3_incorrect_attempt'
p1126
(lp1127
(S'0:02:39'
p1128
V2*([e^(-4)]*([4^2]/(2!)))
p1129
tp1130
a(S'0:02:54'
p1131
V400/100
p1132
tp1133
a(S'0:17:17'
p1134
V2*400/100
p1135
tp1136
a(S'0:18:31'
p1137
V2*[e^(-4)]*([4^2]/(2!))
p1138
tp1139
a(S'0:18:36'
p1140
V4*[e^(-4)]*([4^2]/(2!))
p1141
tp1142
assVjhw015
p1143
(dp1144
S'part3_correct_attempt'
p1145
(lp1146
S'0:12:07'
p1147
aV81 * (e ^-(400/81) * ((400/81)^5 / 5!))
p1148
asS'part2_correct_attempt'
p1149
(lp1150
S'0:08:16'
p1151
aVe ^-(400/81) * ((400/81)^5 / 5!)
p1152
asg9
V2015-11-04 01:33:28
p1153
sS'part3_incorrect_attempt'
p1154
(lp1155
(S'0:10:20'
p1156
Ve ^-(400/81) * ((400/81)^5 / 5)
p1157
tp1158
a(S'0:10:29'
p1159
Ve ^-(400/81) * ((400/81)^1 / 5)
p1160
tp1161
assVnisharma
p1162
(dp1163
S'part2_correct_attempt'
p1164
(lp1165
S'0:01:00'
p1166
aV(e^-6.25)(6.25^0)/(0!)
p1167
asg9
V2015-11-06 21:07:56
p1168
sS'part3_incorrect_attempt'
p1169
(lp1170
(S'0:01:30'
p1171
V0(e^-6.25)(6.25^0)/(0!)
p1172
tp1173
a(S'0:01:36'
p1174
V0(e^-6.25)(6.25^0)/(0!)*0
p1175
tp1176
a(S'0:01:47'
p1177
V(e^-6.25)(6.25^0)/(0!)*0
p1178
tp1179
assVdkostins
p1180
(dp1181
S'part3_correct_attempt'
p1182
(lp1183
S'0:14:22'
p1184
aV((e^-(400/64))(400/64)^5)/5!*64
p1185
asS'part2_correct_attempt'
p1186
(lp1187
S'0:12:53'
p1188
aV((e^-(400/64))(400/64)^5)/5!
p1189
asg9
V2015-11-03 05:33:42
p1190
sS'part3_incorrect_attempt'
p1191
(lp1192
(S'0:13:33'
p1193
V((e^-(400/64))(400/64)) * 64
p1194
tp1195
assVmnrahman
p1196
(dp1197
S'part3_correct_attempt'
p1198
(lp1199
S'2:53:47'
p1200
aV81* 0.1754
p1201
asS'part2_correct_attempt'
p1202
(lp1203
S'2:20:20'
p1204
aVe^(-4.93827)* 4.93827 ^5/(5!)
p1205
asg9
V2015-11-06 21:26:36
p1206
sS'part3_incorrect_attempt'
p1207
(lp1208
(S'2:23:40'
p1209
V100*(e^(-4.93827)* 4.93827^1/(1!))
p1210
tp1211
a(S'2:23:52'
p1212
V100*(e^(-4.93827)* 4.93827^5/(5!))
p1213
tp1214
a(S'2:24:26'
p1215
V100*e^(-4.93827)* 4.93827 ^5/(5!)
p1216
tp1217
a(S'2:24:39'
p1218
V100*(e^(-4.93827)* 4.93827 ^5/(5!))
p1219
tp1220
a(S'2:52:47'
p1221
V100* 0.1754
p1222
tp1223
a(S'2:53:36'
p1224
V400* 0.1754
p1225
tp1226
assVr9jiang
p1227
(dp1228
S'part3_correct_attempt'
p1229
(lp1230
S'0:02:12'
p1231
aV19.54
p1232
asS'part2_correct_attempt'
p1233
(lp1234
S'0:00:00'
p1235
aV0.1954
p1236
asg9
V2015-11-02 00:29:02
p1237
sS'part3_incorrect_attempt'
p1238
(lp1239
(S'0:00:00'
p1240
V4/100
p1241
tp1242
assVrlhagen
p1243
(dp1244
S'part3_correct_attempt'
p1245
(lp1246
S'0:01:05'
p1247
aV(e^(-400/64))*((400/64)^3/3!)*64
p1248
asS'part2_correct_attempt'
p1249
(lp1250
S'0:00:13'
p1251
aV(e^(-400/64))*((400/64)^3/3!)
p1252
asg9
V2015-10-31 16:16:12
p1253
sS'part3_incorrect_attempt'
p1254
(lp1255
(S'0:00:51'
p1256
V(e^(-400/64))*((400/64)^3/3!)*1/64
p1257
tp1258
assVnnh002
p1259
(dp1260
S'part3_correct_attempt'
p1261
(lp1262
S'1 day, 20:14:06'
p1263
aV81*e^(-400/81)*((400/81)^2/2!)
p1264
asS'part2_correct_attempt'
p1265
(lp1266
S'0:09:59'
p1267
aVe^(-400/81)*((400/81)^2/2!)
p1268
asg9
V2015-11-05 01:53:57
p1269
sS'part3_incorrect_attempt'
p1270
(lp1271
(S'0:09:59'
p1272
Ve^(-400/81)*((400/81)^2/2!)+1/81
p1273
tp1274
a(S'0:19:20'
p1275
Ve^(-400/81)*((400/81)^2/2!)*1/81
p1276
tp1277
a(S'0:36:34'
p1278
V400/81+400*e^(-400/81)*((400/81)^2/2!)
p1279
tp1280
a(S'1 day, 20:13:56'
p1281
V400*e^(-400/81)*((400/81)^2/2!)
p1282
tp1283
assVbtn023
p1284
(dp1285
S'part3_correct_attempt'
p1286
(lp1287
S'1 day, 9:21:28'
p1288
aV81*(e^(-((1/81)*400))*((1/81)*400)^0/(0)!)
p1289
asS'part2_correct_attempt'
p1290
(lp1291
S'0:01:02'
p1292
aVe^(-((1/81)*400))*((1/81)*400)^0/(0)!
p1293
asg9
V2015-11-05 00:55:30
p1294
sS'part3_incorrect_attempt'
p1295
(lp1296
(S'0:01:28'
p1297
V(1/81)*400
p1298
tp1299
a(S'0:19:40'
p1300
Ve^(-((1/81)*400))*((1/81)*400)^0/(0)!
p1301
tp1302
a(S'0:22:51'
p1303
V1/(e^(-((1/81)*400))*((1/81)*400)^0/(0)!)
p1304
tp1305
a(S'0:24:00'
p1306
V(1/81)*400
p1307
tp1308
assVeaherman
p1309
(dp1310
S'part2_correct_attempt'
p1311
(lp1312
S'0:05:24'
p1313
aVe^[-[400/81]]([400/81]^2)/2
p1314
asg9
V2015-11-06 19:20:19
p1315
sS'part3_incorrect_attempt'
p1316
(lp1317
(S'0:44:01'
p1318
V81/e^[-[400/81]]([400/81]^2)/2
p1319
tp1320
a(S'0:45:37'
p1321
V1/[e^[-[400/81]]([400/81]^2)/2]
p1322
tp1323
a(S'0:46:48'
p1324
V2/[e^[-[400/81]]([400/81]^2)]
p1325
tp1326
a(S'0:49:15'
p1327
V1/[e^[-[400/81]]([400/81]^2)/2]
p1328
tp1329
a(S'0:51:31'
p1330
V400/81
p1331
tp1332
assVjap009
p1333
(dp1334
S'part3_correct_attempt'
p1335
(lp1336
S'0:02:08'
p1337
aV((e^(-4))*(4/1))*100
p1338
asS'part2_correct_attempt'
p1339
(lp1340
S'0:00:46'
p1341
aV(e^(-4))*(4/1)
p1342
asg9
V2015-11-05 18:12:02
p1343
sS'part3_incorrect_attempt'
p1344
(lp1345
(S'0:01:59'
p1346
V((e^(-4))*(4/1))/100
p1347
tp1348
assVppanourg
p1349
(dp1350
S'part3_correct_attempt'
p1351
(lp1352
S'0:06:41'
p1353
aV((e^(-6.25))*((6.25^5)/5!))*64
p1354
asS'part2_correct_attempt'
p1355
(lp1356
S'0:01:29'
p1357
aV(e^(-6.25))*((6.25^5)/5!)
p1358
asg9
V2015-11-05 08:50:33
p1359
sS'part3_incorrect_attempt'
p1360
(lp1361
(S'0:05:24'
p1362
V(e^(-6.25))*((6.25^5)/5!)/64
p1363
tp1364
a(S'0:05:47'
p1365
V64/(e^(-6.25))*((6.25^5)/5!)
p1366
tp1367
a(S'0:06:25'
p1368
V((e^(-6.25))*((6.25^5)/5!))/64
p1369
tp1370
assVthwan
p1371
(dp1372
S'part3_correct_attempt'
p1373
(lp1374
S'0:09:48'
p1375
aV81*e^(-400/81)*(400/81)
p1376
asS'part2_correct_attempt'
p1377
(lp1378
S'0:01:24'
p1379
aVe^(-400/81)*(400/81)
p1380
asg9
V2015-11-06 18:21:59
p1381
sS'part3_incorrect_attempt'
p1382
(lp1383
(S'0:01:24'
p1384
V400/81
p1385
tp1386
a(S'0:02:23'
p1387
VC(400,1)*e^(-400/81)*(400/81)*[e^(-400/81)*(400/81)]^(399)
p1388
tp1389
a(S'0:05:03'
p1390
V400*e^(-400/81)*(400/81)*[e^(-400/81)*(400/81)]^(399)
p1391
tp1392
a(S'0:06:19'
p1393
V400*e^(-400/81)*(400/81)*[1-(e^(-400/81)*(400/81))]^(399)
p1394
tp1395
a(S'0:07:10'
p1396
Ve^(-400/81)*(400/81)
p1397
tp1398
assVatorr
p1399
(dp1400
S'part3_correct_attempt'
p1401
(lp1402
S'1:23:30'
p1403
aVe^(-6.25) * [(6.25^5)/5!] * 64
p1404
asS'part2_correct_attempt'
p1405
(lp1406
S'0:00:31'
p1407
aVe^(-6.25) * [(6.25^5)/5!]
p1408
asg9
V2015-11-05 19:21:20
p1409
sS'part3_incorrect_attempt'
p1410
(lp1411
(S'0:00:45'
p1412
V5*6.25
p1413
tp1414
a(S'0:01:19'
p1415
V5/64
p1416
tp1417
a(S'0:02:01'
p1418
V(1+2+3+4+5) * (1/64)
p1419
tp1420
a(S'0:03:04'
p1421
V5 * (0.153419)
p1422
tp1423
a(S'0:03:17'
p1424
V15 * (0.153419)
p1425
tp1426
a(S'0:05:17'
p1427
V(5/64) * (0.153419)
p1428
tp1429
assVrraiyyan
p1430
(dp1431
S'part3_correct_attempt'
p1432
(lp1433
S'0:05:22'
p1434
aV100 * e^-4 * (4^3)/3!
p1435
asS'part2_correct_attempt'
p1436
(lp1437
S'0:03:23'
p1438
aVe^-4 * (4^3)/3!
p1439
asg9
V2015-11-06 20:20:29
p1440
sS'part3_incorrect_attempt'
p1441
(lp1442
(S'0:03:30'
p1443
Ve^-4 * (4^3)/3!
p1444
tp1445
assVmpanelo
p1446
(dp1447
S'part3_correct_attempt'
p1448
(lp1449
S'0:21:44'
p1450
aV81*e^-(400/81)*[(400/81)^4/4!]
p1451
asS'part2_correct_attempt'
p1452
(lp1453
S'0:03:46'
p1454
aVe^-(400/81)*[(400/81)^4/4!]
p1455
asg9
V2015-11-03 23:03:19
p1456
sS'part3_incorrect_attempt'
p1457
(lp1458
(S'0:03:46'
p1459
V400/81
p1460
tp1461
assVjmiclat
p1462
(dp1463
S'part3_correct_attempt'
p1464
(lp1465
S'0:08:27'
p1466
aV0.0785504*64
p1467
asS'part2_correct_attempt'
p1468
(lp1469
S'0:01:38'
p1470
aVe^-6.25*(6.25^3)/6
p1471
asg9
V2015-11-06 08:08:00
p1472
sS'part3_incorrect_attempt'
p1473
(lp1474
(S'0:01:45'
p1475
V6.25
p1476
tp1477
a(S'0:02:46'
p1478
V[e^-6.25*(6.25^3)/6]*1/64
p1479
tp1480
a(S'0:04:25'
p1481
V[e^-6.25*(6.25^3)/6]*400
p1482
tp1483
a(S'0:05:48'
p1484
V6.25*0.0785504
p1485
tp1486
a(S'0:06:51'
p1487
V400/3
p1488
tp1489
assVaggouw
p1490
(dp1491
S'part3_correct_attempt'
p1492
(lp1493
S'0:02:00'
p1494
aV8*8*(e^(-400/64)*(400/64)^5/5!)
p1495
asS'part2_correct_attempt'
p1496
(lp1497
S'0:01:15'
p1498
aVe^(-400/64)*(400/64) ^ 5/5!
p1499
asg9
V2015-11-03 21:26:25
p1500
sS'part3_incorrect_attempt'
p1501
(lp1502
(S'0:01:47'
p1503
V10*10*(e^(-400/64)*(400/64)^5/5!)
p1504
tp1505
assVq3wen
p1506
(dp1507
S'part3_correct_attempt'
p1508
(lp1509
S'9:00:27'
p1510
aV0.00193*64
p1511
asS'part2_correct_attempt'
p1512
(lp1513
S'0:02:28'
p1514
aV0.001930
p1515
asg9
V2015-11-03 21:20:02
p1516
sS'part3_incorrect_attempt'
p1517
(lp1518
(S'0:02:28'
p1519
V1/0.00193
p1520
tp1521
a(S'0:03:19'
p1522
V10.24
p1523
tp1524
a(S'0:05:50'
p1525
V0.16
p1526
tp1527
a(S'0:08:41'
p1528
V518.0128
p1529
tp1530
a(S'0:18:10'
p1531
V8.095
p1532
tp1533
a(S'0:24:43'
p1534
V33152.8192
p1535
tp1536
assVtstevens
p1537
(dp1538
S'part3_correct_attempt'
p1539
(lp1540
S'0:01:31'
p1541
aV(81)*(e^-(400/81))*((400/81)^3)/3!
p1542
asS'part2_correct_attempt'
p1543
(lp1544
S'0:00:00'
p1545
aV(e^-(400/81))*((400/81)^3)/3!
p1546
asg9
V2015-11-06 23:21:53
p1547
sS'part3_incorrect_attempt'
p1548
(lp1549
(S'0:01:16'
p1550
V(91)*(e^-(400/81))*((400/81)^3)/3!
p1551
tp1552
assVkrkelkar
p1553
(dp1554
S'part3_correct_attempt'
p1555
(lp1556
S'0:03:45'
p1557
aV81 * {(e^-(400/81))*((400/81)^1/1!)}
p1558
asS'part2_correct_attempt'
p1559
(lp1560
S'0:00:00'
p1561
aV(e^-(400/81))*((400/81)^1/1!)
p1562
asg9
V2015-10-31 19:02:57
p1563
sS'part3_incorrect_attempt'
p1564
(lp1565
(S'0:00:00'
p1566
V400/81
p1567
tp1568
a(S'0:00:36'
p1569
V(e^-(400/81))*((400/81)^1/1!)
p1570
tp1571
assVtcuddy
p1572
(dp1573
S'part3_correct_attempt'
p1574
(lp1575
S'0:06:15'
p1576
aV81(((400/81)**0)/(e**(400/81)))
p1577
asS'part2_correct_attempt'
p1578
(lp1579
S'0:01:08'
p1580
aV((400/81)**0)/(e**(400/81))
p1581
asg9
V2015-11-01 19:29:21
p1582
sS'part3_incorrect_attempt'
p1583
(lp1584
(S'0:04:53'
p1585
V(81)/(e**(400/81))*(400/81)
p1586
tp1587
assVdlgoldbe
p1588
(dp1589
S'part3_correct_attempt'
p1590
(lp1591
S'0:05:36'
p1592
aV100*(e^(-4)*((4^3)/(3!)))
p1593
asS'part2_correct_attempt'
p1594
(lp1595
S'0:01:34'
p1596
aVe^(-4)*((4^3)/(3!))
p1597
asg9
V2015-11-05 02:05:33
p1598
sS'part3_incorrect_attempt'
p1599
(lp1600
(S'0:05:07'
p1601
V3*(e^(-4)*((4^3)/(3!)))
p1602
tp1603
assVl8ngo
p1604
(dp1605
S'part3_correct_attempt'
p1606
(lp1607
S'4:56:02'
p1608
aV100*[e^-4]*[16/2]
p1609
asS'part2_correct_attempt'
p1610
(lp1611
S'0:00:51'
p1612
aV[e^-4]*[16/2]
p1613
asg9
V2015-11-03 18:49:15
p1614
sS'part3_incorrect_attempt'
p1615
(lp1616
(S'0:05:03'
p1617
V2*[e^[-1]*4]
p1618
tp1619
a(S'0:13:25'
p1620
V1*[e^-4]*[16/2]+2*[e^-4]*[16/2]
p1621
tp1622
a(S'0:14:01'
p1623
V2*[e^-4]*[16/2]
p1624
tp1625
a(S'0:17:07'
p1626
V550*[e^-4]*[16/2]
p1627
tp1628
a(S'0:22:17'
p1629
V[1+2+3+4]*[e^-4]*[16/2]
p1630
tp1631
a(S'0:23:06'
p1632
V5050*[e^-4]*[16/2]
p1633
tp1634
a(S'4:47:23'
p1635
V4*[e^-4]*[16/2]
p1636
tp1637
a(S'4:47:32'
p1638
V4/[e^-4]*[16/2]
p1639
tp1640
a(S'4:47:42'
p1641
V[e^-4]*[16/2]/4
p1642
tp1643
a(S'4:55:27'
p1644
V5050*[e^-4]*[16/2]
p1645
tp1646
assVajabasa
p1647
(dp1648
S'part3_correct_attempt'
p1649
(lp1650
S'15:24:16'
p1651
aV.1953*10*10
p1652
asS'part2_correct_attempt'
p1653
(lp1654
S'0:08:14'
p1655
aV.1953
p1656
asg9
V2015-11-05 07:42:33
p1657
sS'part3_incorrect_attempt'
p1658
(lp1659
(S'0:12:08'
p1660
V.1953*4
p1661
tp1662
a(S'0:13:26'
p1663
V.1953*4*100
p1664
tp1665
a(S'0:13:35'
p1666
V.1953*4*400
p1667
tp1668
a(S'0:14:32'
p1669
V.1953*4*100
p1670
tp1671
a(S'0:14:37'
p1672
V.1953*400
p1673
tp1674
a(S'15:22:14'
p1675
V.1953*4
p1676
tp1677
assVa2ahmed
p1678
(dp1679
S'part2_correct_attempt'
p1680
(lp1681
S'-1 day, 23:44:52'
p1682
aV0.1753999673
p1683
asg9
V2015-11-04 05:19:22
p1684
sS'part3_incorrect_attempt'
p1685
(lp1686
(S'-1 day, 23:45:54'
p1687
V291257/5000
p1688
tp1689
a(S'-1 day, 23:46:07'
p1690
V2912517/5000
p1691
tp1692
a(S'-1 day, 23:53:00'
p1693
V582.5034
p1694
tp1695
a(S'-1 day, 23:54:25'
p1696
V7.893
p1697
tp1698
a(S'-1 day, 23:54:43'
p1699
V2.631
p1700
tp1701
assVaadhakal
p1702
(dp1703
S'part3_correct_attempt'
p1704
(lp1705
S'0:12:16'
p1706
aV100*(e^(-4)*4^1/(1!))
p1707
asS'part2_correct_attempt'
p1708
(lp1709
S'0:11:03'
p1710
aV(e^(-4)*4^1/(1!))
p1711
asg9
V2015-11-05 20:49:57
p1712
sS'part3_incorrect_attempt'
p1713
(lp1714
(S'0:12:04'
p1715
V4*(e^(-4)*4^1/(1!))
p1716
tp1717
assVchc286
p1718
(dp1719
S'part3_correct_attempt'
p1720
(lp1721
S'0:04:22'
p1722
aV81*(e^(-400*(1/81))*((400*(1/81))^4/(4!)))
p1723
asS'part2_correct_attempt'
p1724
(lp1725
S'0:01:50'
p1726
aVe^(-400*(1/81))*((400*(1/81))^4/(4!))
p1727
asg9
V2015-11-01 00:01:32
p1728
sS'part3_incorrect_attempt'
p1729
(lp1730
(S'0:02:49'
p1731
V400*(1/81)
p1732
tp1733
assVhah008
p1734
(dp1735
S'part3_correct_attempt'
p1736
(lp1737
S'0:06:05'
p1738
aV(9*9)*e^(-400/81)*(400/81)^3/6
p1739
asS'part2_correct_attempt'
p1740
(lp1741
S'0:01:19'
p1742
aVe^(-400/81)*(400/81)^3/6
p1743
asg9
V2015-11-05 22:29:48
p1744
sS'part3_incorrect_attempt'
p1745
(lp1746
(S'0:01:54'
p1747
V400/81*(400/81)*(e^(-400/81)*(400/81)^3/6)
p1748
tp1749
a(S'0:03:04'
p1750
V81*81* 0.14385
p1751
tp1752
a(S'0:05:52'
p1753
V(81*81)*e^(-400/81)*(400/81)^3/6
p1754
tp1755
assVbakang
p1756
(dp1757
S'part3_correct_attempt'
p1758
(lp1759
S'0:02:38'
p1760
aV100*((e^(-4))*((4^4)/(4!)))
p1761
asS'part2_correct_attempt'
p1762
(lp1763
S'0:00:59'
p1764
aV(e^(-4))*((4^4)/(4!))
p1765
asg9
V2015-11-05 06:38:48
p1766
sS'part3_incorrect_attempt'
p1767
(lp1768
(S'0:02:32'
p1769
V400*((e^(-4))*((4^4)/(4!)))
p1770
tp1771
assVctroncos
p1772
(dp1773
S'part3_correct_attempt'
p1774
(lp1775
S'0:12:32'
p1776
aV(10*10)*(e^(-400/100)*(400/100)^2/(2!))
p1777
asS'part2_correct_attempt'
p1778
(lp1779
S'0:06:11'
p1780
aVe^(-400/100)*(400/100)^2/(2!)
p1781
asg9
V2015-11-04 01:30:39
p1782
sS'part3_incorrect_attempt'
p1783
(lp1784
(S'0:07:32'
p1785
V(400*400)*(e^(-400/100)*((400/100)^2)/(2!))
p1786
tp1787
a(S'0:09:57'
p1788
V(10000)*(e^(-400/100)*((400/100)^2)/(2!))
p1789
tp1790
a(S'0:10:09'
p1791
V(100*100)*(e^(-400/100)*((400/100)^2)/(2!))
p1792
tp1793
a(S'0:11:15'
p1794
V(100*100)*(e^(-400/100)*(400/100)^2/(2!))
p1795
tp1796
assVacs008
p1797
(dp1798
S'part3_correct_attempt'
p1799
(lp1800
S'0:02:58'
p1801
aV0.0377042*64
p1802
asS'part2_correct_attempt'
p1803
(lp1804
S'0:02:07'
p1805
aVe^(-6.25)*(6.25^2)/2
p1806
asg9
V2015-11-04 03:50:34
p1807
sS'part3_incorrect_attempt'
p1808
(lp1809
(S'0:02:40'
p1810
V400*e^(-6.25)*(6.25^2)/2
p1811
tp1812
a(S'0:02:53'
p1813
V0.0377042*400
p1814
tp1815
assVdpereira
p1816
(dp1817
S'part3_correct_attempt'
p1818
(lp1819
S'0:01:49'
p1820
aV81 * ((e^(-(400/81))) * ((400/81)^4)/(4!))
p1821
asS'part2_correct_attempt'
p1822
(lp1823
S'0:00:49'
p1824
aV(e^(-(400/81))) * ((400/81)^4)/(4!)
p1825
asg9
V2015-10-30 21:00:37
p1826
sS'part3_incorrect_attempt'
p1827
(lp1828
(S'0:01:23'
p1829
V1/((e^(-(400/81))) * ((400/81)^4)/(4!))
p1830
tp1831
assVacvuong
p1832
(dp1833
S'part3_correct_attempt'
p1834
(lp1835
S'0:00:57'
p1836
aV81*e^(-400/81) * (400/81)
p1837
asS'part2_correct_attempt'
p1838
(lp1839
S'0:00:00'
p1840
aVe^(-400/81) * (400/81)
p1841
asg9
V2015-11-04 19:37:57
p1842
sS'part3_incorrect_attempt'
p1843
(lp1844
(S'0:00:18'
p1845
V400*e^(-400/81) * (400/81)
p1846
tp1847
assVflhernan
p1848
(dp1849
S'part3_correct_attempt'
p1850
(lp1851
S'0:26:39'
p1852
aV(e^-6.25 *6.25^5/5!)*64
p1853
asS'part2_correct_attempt'
p1854
(lp1855
S'0:26:24'
p1856
aV(e^-6.25 *6.25^5/5!)
p1857
asg9
V2015-11-01 18:53:06
p1858
sS'part3_incorrect_attempt'
p1859
(lp1860
(S'0:26:24'
p1861
V(e^-6.25 *6.25^5/5!)*6.25
p1862
tp1863
assVlahawkin
p1864
(dp1865
S'part3_correct_attempt'
p1866
(lp1867
S'0:03:50'
p1868
aV6.25/(e^6.25)*64
p1869
asS'part2_correct_attempt'
p1870
(lp1871
S'0:01:31'
p1872
aV6.25/(e^6.25)
p1873
asg9
V2015-11-04 04:17:46
p1874
sS'part3_incorrect_attempt'
p1875
(lp1876
(S'0:02:02'
p1877
V400/64
p1878
tp1879
a(S'0:02:36'
p1880
V1/(400/64)
p1881
tp1882
assVmuy002
p1883
(dp1884
S'part3_correct_attempt'
p1885
(lp1886
S'0:09:56'
p1887
aV81*((400/81)^2*e^(-400/81)/2!)
p1888
asS'part2_correct_attempt'
p1889
(lp1890
S'0:00:00'
p1891
aV(400/81)^2*e^(-400/81)/2!
p1892
asg9
V2015-11-05 03:52:30
p1893
sS'part3_incorrect_attempt'
p1894
(lp1895
(S'0:06:13'
p1896
V(400/81)^2
p1897
tp1898
a(S'0:06:31'
p1899
V(1/81)^2
p1900
tp1901
assVvasharma
p1902
(dp1903
S'part3_correct_attempt'
p1904
(lp1905
S'0:04:23'
p1906
aV(e^-6.25)*64
p1907
asS'part2_correct_attempt'
p1908
(lp1909
S'0:02:03'
p1910
aV(e^-6.25)
p1911
asg9
V2015-11-04 18:24:19
p1912
sS'part3_incorrect_attempt'
p1913
(lp1914
(S'0:02:18'
p1915
V(e^-6.25)*400
p1916
tp1917
a(S'0:02:32'
p1918
V6.25
p1919
tp1920
a(S'0:02:46'
p1921
V400-6.25
p1922
tp1923
a(S'0:04:15'
p1924
V(e^-6.25)
p1925
tp1926
assVphodgson
p1927
(dp1928
S'part3_correct_attempt'
p1929
(lp1930
S'0:00:21'
p1931
aV81*e^(-400/81)((400/81)^4/4!)
p1932
asS'part2_correct_attempt'
p1933
(lp1934
S'0:00:12'
p1935
aVe^(-400/81)((400/81)^4/4!)
p1936
asg9
V2015-11-06 06:07:31
p1937
sS'part3_incorrect_attempt'
p1938
(lp1939
(S'0:00:12'
p1940
V4*e^(-400/81)((400/81)^4/4!)
p1941
tp1942
assVazkong
p1943
(dp1944
S'part3_correct_attempt'
p1945
(lp1946
S'12:58:51'
p1947
aVe^(-400/81)(400/81)*81
p1948
asS'part2_correct_attempt'
p1949
(lp1950
S'12:57:52'
p1951
aVe^(-400/81)(400/81)
p1952
asg9
V2015-11-05 20:14:56
p1953
sS'part3_incorrect_attempt'
p1954
(lp1955
(S'12:58:34'
p1956
Ve^(-400/81)(400/81)*400
p1957
tp1958
assVralhadda
p1959
(dp1960
S'part3_correct_attempt'
p1961
(lp1962
S'4:26:51'
p1963
aV100*e^-4
p1964
asS'part2_correct_attempt'
p1965
(lp1966
S'0:19:22'
p1967
aVe^-4 (4^0/0!)
p1968
asg9
V2015-10-31 18:39:17
p1969
sS'part3_incorrect_attempt'
p1970
(lp1971
(S'0:21:56'
p1972
V0.018
p1973
tp1974
a(S'0:22:08'
p1975
V0.018315
p1976
tp1977
a(S'2:15:22'
p1978
Ve^-4(4^0/0!)
p1979
tp1980
assVb3hwang
p1981
(dp1982
S'part3_correct_attempt'
p1983
(lp1984
S'0:05:49'
p1985
aV(e^(-4) * 4 ) *100
p1986
asS'part2_correct_attempt'
p1987
(lp1988
S'0:04:07'
p1989
aVe^(-4) * 4
p1990
asg9
V2015-11-05 06:32:23
p1991
sS'part3_incorrect_attempt'
p1992
(lp1993
(S'0:04:51'
p1994
V400*(e^(-4) * 4)
p1995
tp1996
assVkquong
p1997
(dp1998
S'part3_correct_attempt'
p1999
(lp2000
S'0:13:32'
p2001
aV81 * (e^(-400/81) * (400/81)^2/2)
p2002
asS'part2_correct_attempt'
p2003
(lp2004
S'0:02:08'
p2005
aVe^(-400/81) * (400/81)^2/2
p2006
asg9
V2015-11-01 22:18:43
p2007
sS'part3_incorrect_attempt'
p2008
(lp2009
(S'0:10:28'
p2010
V400/81 * 2
p2011
tp2012
a(S'0:10:44'
p2013
V400/81/2
p2014
tp2015
assVrohan
p2016
(dp2017
S'part3_correct_attempt'
p2018
(lp2019
S'0:20:11'
p2020
aV81(e^(-400/81))
p2021
asS'part2_correct_attempt'
p2022
(lp2023
S'0:09:54'
p2024
aVe^(-400/81)
p2025
asg9
V2015-11-06 22:11:26
p2026
sS'part3_incorrect_attempt'
p2027
(lp2028
(S'0:17:07'
p2029
V80200/81
p2030
tp2031
assVdcastlem
p2032
(dp2033
S'part3_correct_attempt'
p2034
(lp2035
S'0:05:12'
p2036
aV64*(0.00193045)
p2037
asS'part2_correct_attempt'
p2038
(lp2039
S'0:02:13'
p2040
aVe^(-6.25)*(6.25^0)/0!
p2041
asg9
V2015-11-02 05:31:46
p2042
sS'part3_incorrect_attempt'
p2043
(lp2044
(S'0:02:59'
p2045
Ve^(-6.25)*(6.25^0)/0!
p2046
tp2047
a(S'0:05:04'
p2048
V400*(0.00193045)
p2049
tp2050
assVhpc001
p2051
(dp2052
S'part3_correct_attempt'
p2053
(lp2054
S'0:02:55'
p2055
aV(8*8)*(e^-(400/64))*((400/64)^5)/5!
p2056
asS'part2_correct_attempt'
p2057
(lp2058
S'0:01:23'
p2059
aV(e^-(400/64))*((400/64)^5)/5!
p2060
asg9
V2015-11-01 00:39:35
p2061
sS'part3_incorrect_attempt'
p2062
(lp2063
(S'0:02:11'
p2064
V(64*64)*(e^-(400/64))*((400/64)^5)/5!
p2065
tp2066
assVtak068
p2067
(dp2068
S'part3_correct_attempt'
p2069
(lp2070
S'0:01:08'
p2071
aV81*e^(-400/81)*(400/81)^3/(3!)
p2072
asS'part2_correct_attempt'
p2073
(lp2074
S'0:00:29'
p2075
aVe^(-400/81)*(400/81)^3/(3!)
p2076
asg9
V2015-11-05 20:47:17
p2077
sS'part3_incorrect_attempt'
p2078
(lp2079
(S'0:00:48'
p2080
V9*e^(-400/81)*(400/81)^3/(3!)
p2081
tp2082
assVdtea
p2083
(dp2084
S'part3_correct_attempt'
p2085
(lp2086
S'0:02:31'
p2087
aV64*0.0785504
p2088
asS'part2_correct_attempt'
p2089
(lp2090
S'0:01:07'
p2091
aVe^(-400/64)*((400/64)^3/3!)
p2092
asg9
V2015-11-06 23:51:28
p2093
sS'part3_incorrect_attempt'
p2094
(lp2095
(S'0:01:39'
p2096
V400*0.0785504
p2097
tp2098
assVxil109
p2099
(dp2100
S'part3_correct_attempt'
p2101
(lp2102
S'0:02:33'
p2103
aV[e^(-400/64)*(400/64)^3]/3!*64
p2104
asS'part2_correct_attempt'
p2105
(lp2106
S'0:01:20'
p2107
aV[e^(-400/64)*(400/64)^3]/3!
p2108
asg9
V2015-11-05 02:40:24
p2109
sS'part3_incorrect_attempt'
p2110
(lp2111
(S'0:02:08'
p2112
V[e^(-400/64)*(400/64)^3]/3!*400
p2113
tp2114
assVmrchin
p2115
(dp2116
S'part3_correct_attempt'
p2117
(lp2118
S'0:03:03'
p2119
aV64*e^(-6.25)*6.25^5/(5!)
p2120
asS'part2_correct_attempt'
p2121
(lp2122
S'0:02:17'
p2123
aVe^(-6.25)*6.25^5/(5!)
p2124
asg9
V2015-11-06 19:25:13
p2125
sS'part3_incorrect_attempt'
p2126
(lp2127
(S'0:02:36'
p2128
V400/64*e^(-6.25)*6.25^5/(5!)
p2129
tp2130
a(S'0:02:50'
p2131
V(400/64)*e^(-6.25)*6.25^5/(5!)
p2132
tp2133
assVzig006
p2134
(dp2135
S'part3_correct_attempt'
p2136
(lp2137
S'0:03:06'
p2138
aV14.384952
p2139
asS'part2_correct_attempt'
p2140
(lp2141
S'0:02:15'
p2142
aV0.177592
p2143
asg9
V2015-11-01 19:47:20
p2144
sS'part3_incorrect_attempt'
p2145
(lp2146
(S'0:02:15'
p2147
V1.234567
p2148
tp2149
a(S'0:02:32'
p2150
V0.81
p2151
tp2152
assVqfu
p2153
(dp2154
S'part3_correct_attempt'
p2155
(lp2156
S'0:10:18'
p2157
aVe^(-400/81)*(400/81)*81
p2158
asS'part2_correct_attempt'
p2159
(lp2160
S'0:00:00'
p2161
aVe^(-400/81)*(400/81)
p2162
asg9
V2015-11-03 18:45:06
p2163
sS'part3_incorrect_attempt'
p2164
(lp2165
(S'0:00:00'
p2166
V400/81
p2167
tp2168
a(S'0:03:33'
p2169
Ve^(-400/81)*(400/81)
p2170
tp2171
a(S'0:04:25'
p2172
V1/81
p2173
tp2174
a(S'0:04:45'
p2175
V400/81
p2176
tp2177
a(S'0:09:30'
p2178
V400/9
p2179
tp2180
assVaurodrig
p2181
(dp2182
S'part3_correct_attempt'
p2183
(lp2184
S'0:05:12'
p2185
aV100 * (e^(-4) * ((4^5)/5!))
p2186
asS'part2_correct_attempt'
p2187
(lp2188
S'0:00:00'
p2189
aVe^(-4) * ((4^5)/5!)
p2190
asg9
V2015-11-06 03:39:29
p2191
sS'part3_incorrect_attempt'
p2192
(lp2193
(S'0:03:12'
p2194
V.1562934519
p2195
tp2196
a(S'0:03:57'
p2197
V.156
p2198
tp2199
assVmtrafeca
p2200
(dp2201
S'part3_correct_attempt'
p2202
(lp2203
S'0:19:14'
p2204
aV0.122735*64
p2205
asS'part2_correct_attempt'
p2206
(lp2207
S'0:02:48'
p2208
aVe^(-6.25)*(6.25^(4)/(4!))
p2209
asg9
V2015-11-01 22:37:32
p2210
sS'part3_incorrect_attempt'
p2211
(lp2212
(S'0:03:28'
p2213
V400*e^(-6.25)*(6.25^(4)/(4!))
p2214
tp2215
a(S'0:05:12'
p2216
Ve^(-6.25)*(6.25^(4)/(4!))*400/64
p2217
tp2218
a(S'0:06:12'
p2219
V0.122735*400
p2220
tp2221
a(S'0:06:36'
p2222
V0.122735*(400/64)
p2223
tp2224
a(S'0:15:50'
p2225
VC(64,4)*0.122735
p2226
tp2227
asssV2
p2228
(dp2229
Vkew060
p2230
(dp2231
S'part2_correct_attempt'
p2232
(lp2233
S'0:00:21'
p2234
aV0.00193
p2235
asg9
V2015-11-03 02:07:15
p2236
sS'part2_incorrect_attempt'
p2237
(lp2238
(S'0:00:12'
p2239
Ve^(-6.25) * 6.250/0!
p2240
tp2241
a(S'0:00:13'
p2242
Ve^(-6.25) * 6.250/0!
p2243
tp2244
assVkbielawi
p2245
(dp2246
S'part2_correct_attempt'
p2247
(lp2248
S'22:52:42'
p2249
ag743
asg9
g744
sS'part2_incorrect_attempt'
p2250
(lp2251
(S'0:00:16'
p2252
V5*(400/81)
p2253
tp2254
a(S'22:47:26'
p2255
Ve^(-400)*((400^5)/(5!))
p2256
tp2257
a(S'22:52:02'
p2258
V((400/81)^5/(5!))*e^(-5)
p2259
tp2260
assVl5han
p2261
(dp2262
S'part2_correct_attempt'
p2263
(lp2264
S'0:00:32'
p2265
aVe^(-400/64)*([(400/64)^2]/2!)
p2266
asg9
V2015-11-06 06:11:36
p2267
sS'part2_incorrect_attempt'
p2268
(lp2269
(S'0:00:00'
p2270
Ve^(400/64)*([(400/64)^2]/2!)
p2271
tp2272
assVskarimik
p2273
(dp2274
S'part2_correct_attempt'
p2275
(lp2276
S'0:07:40'
p2277
aVe^(-4)4^(4)/4!
p2278
asg9
V2015-10-31 20:44:55
p2279
sS'part2_incorrect_attempt'
p2280
(lp2281
(S'0:02:13'
p2282
Ve^(-4)4^(100)/100!
p2283
tp2284
assVmnrahman
p2285
(dp2286
S'part2_correct_attempt'
p2287
(lp2288
S'2:20:20'
p2289
ag1205
asg9
g1206
sS'part2_incorrect_attempt'
p2290
(lp2291
(S'-1 day, 23:58:14'
p2292
V(e^(-4)*4^1/(1!))
p2293
tp2294
a(S'0:00:19'
p2295
V(e^(-5)*5^1/(1!))
p2296
tp2297
a(S'0:00:49'
p2298
V(e^(5)*5^1/(1!))
p2299
tp2300
a(S'2:17:57'
p2301
V(e^(5)*5^5/(5!))
p2302
tp2303
a(S'2:18:54'
p2304
Ve^(-4)*4^5/(5!)
p2305
tp2306
assVrsmurlo
p2307
(dp2308
S'part2_correct_attempt'
p2309
(lp2310
S'0:06:11'
p2311
aV(1/(e^6.25))(6.25^5/(5!))
p2312
asg9
V2015-11-03 16:50:01
p2313
sS'part2_incorrect_attempt'
p2314
(lp2315
(S'0:05:47'
p2316
V(1/6.25)(6.25^5/(5!))
p2317
tp2318
assVjmmcalex
p2319
(dp2320
S'part2_correct_attempt'
p2321
(lp2322
S'0:03:10'
p2323
aV((400/64)^0/(0!))*e^(-400/64)
p2324
asg9
V2015-11-06 23:03:39
p2325
sS'part2_incorrect_attempt'
p2326
(lp2327
(S'0:01:19'
p2328
V((400/64)^5/5(5!))*e^(-400/64)
p2329
tp2330
a(S'0:02:24'
p2331
V((400/64)^5/(5!))*e^(-400/64)
p2332
tp2333
assVdando
p2334
(dp2335
S'part2_correct_attempt'
p2336
(lp2337
S'0:00:40'
p2338
aVe^(-4) * ((4^0)/0!)
p2339
asg9
V2015-11-03 16:51:56
p2340
sS'part2_incorrect_attempt'
p2341
(lp2342
(S'-1 day, 23:57:51'
p2343
Ve^(-100) * ((100^0)/0!)
p2344
tp2345
a(S'-1 day, 23:58:21'
p2346
Ve^(-400) * ((400^0)/0!)
p2347
tp2348
assVsayao
p2349
(dp2350
S'part2_correct_attempt'
p2351
(lp2352
S'0:08:40'
p2353
aVe^(-400/81)*(400/81)^4/4!
p2354
asg9
V2015-11-04 00:38:17
p2355
sS'part2_incorrect_attempt'
p2356
(lp2357
(S'0:05:22'
p2358
V(400/81)/400
p2359
tp2360
a(S'0:06:23'
p2361
Ve^(-400/81)*(400/81)^81/81!
p2362
tp2363
a(S'0:06:48'
p2364
Ve^(-400/9)*(400/9)^9/9!
p2365
tp2366
a(S'0:07:25'
p2367
Ve^(-400/81)*(400/81)^9/9!
p2368
tp2369
assVc1wei
p2370
(dp2371
S'part2_correct_attempt'
p2372
(lp2373
S'0:01:25'
p2374
aVe^(-400/64)* ((400/64)^3)/(3!)
p2375
asg9
V2015-11-04 06:08:38
p2376
sS'part2_incorrect_attempt'
p2377
(lp2378
(S'-1 day, 23:54:01'
p2379
V(1/64)^3
p2380
tp2381
a(S'0:00:13'
p2382
V(400/64)^3
p2383
tp2384
assVmitopete
p2385
(dp2386
S'part2_correct_attempt'
p2387
(lp2388
S'0:10:04'
p2389
ag888
asg9
g889
sS'part2_incorrect_attempt'
p2390
(lp2391
(S'0:05:53'
p2392
V6/(e^6)
p2393
tp2394
a(S'0:07:33'
p2395
V1/64
p2396
tp2397
assVtak068
p2398
(dp2399
S'part2_correct_attempt'
p2400
(lp2401
S'0:00:29'
p2402
ag2076
asg9
g2077
sS'part2_incorrect_attempt'
p2403
(lp2404
(S'0:00:00'
p2405
V"e^(-400/81)*(400/81)^3/(3!)"
p2406
tp2407
a(S'0:00:05'
p2408
Ve^(-400/81)*(400/81)^3/(3!)"
p2409
tp2410
assVdruble
p2411
(dp2412
S'part2_correct_attempt'
p2413
(lp2414
S'0:00:00'
p2415
ag559
asg9
g560
sS'part2_incorrect_attempt'
p2416
(lp2417
(S'-1 day, 23:55:37'
p2418
V(e^-81)(81/1)
p2419
tp2420
a(S'-1 day, 23:57:09'
p2421
V(e^-400)*(400/1)
p2422
tp2423
assVjag028
p2424
(dp2425
S'part2_correct_attempt'
p2426
(lp2427
S'2:59:50'
p2428
ag632
asg9
g633
sS'part2_incorrect_attempt'
p2429
(lp2430
(S'-1 day, 15:51:22'
p2431
V1/100
p2432
tp2433
a(S'0:04:10'
p2434
V(e^(-4)((4)/1!))100
p2435
tp2436
a(S'0:06:54'
p2437
V(e^(-4)((4(1/100))/(100)!))100
p2438
tp2439
assVccn001
p2440
(dp2441
S'part2_correct_attempt'
p2442
(lp2443
S'0:00:00'
p2444
ag651
asg9
g652
sS'part2_incorrect_attempt'
p2445
(lp2446
(S'-1 day, 23:45:37'
p2447
Ve^(-400)((400^2)/(2!))
p2448
tp2449
a(S'-1 day, 23:52:36'
p2450
V400(1/64)
p2451
tp2452
assVb1yao
p2453
(dp2454
S'part2_correct_attempt'
p2455
(lp2456
S'0:00:09'
p2457
aV((400/81)^4*e^(-(400/81)))/(4!)
p2458
asg9
V2015-11-03 06:12:57
p2459
sS'part2_incorrect_attempt'
p2460
(lp2461
(S'-1 day, 23:49:02'
p2462
V((1/81)^4*e^(-(1/81)))/(4!)
p2463
tp2464
a(S'-1 day, 23:55:16'
p2465
V((400)^4*e^(-(400)))/(4!)
p2466
tp2467
a(S'-1 day, 23:55:26'
p2468
V((4)^4*e^(-(4)))/(4!)
p2469
tp2470
a(S'-1 day, 23:55:39'
p2471
V((81)^4*e^(-(81)))/(4!)
p2472
tp2473
assVanislam
p2474
(dp2475
S'part2_correct_attempt'
p2476
(lp2477
S'0:00:00'
p2478
ag872
asg9
g873
sS'part2_incorrect_attempt'
p2479
(lp2480
(S'-1 day, 23:59:20'
p2481
Ve^(-40) * (40^4 / 4!)
p2482
tp2483
assVtpmach
p2484
(dp2485
S'part2_correct_attempt'
p2486
(lp2487
S'0:03:29'
p2488
ag1102
asg9
g1103
sS'part2_incorrect_attempt'
p2489
(lp2490
(S'0:03:12'
p2491
Ve^(400/81)*(((400/81)^2)/2!)
p2492
tp2493
assVjhw015
p2494
(dp2495
S'part2_correct_attempt'
p2496
(lp2497
S'0:08:16'
p2498
ag1152
asg9
g1153
sS'part2_incorrect_attempt'
p2499
(lp2500
(S'0:02:24'
p2501
V400 * (400/81)
p2502
tp2503
assVr1gu
p2504
(dp2505
S'part2_correct_attempt'
p2506
(lp2507
S'0:03:51'
p2508
aVe^(-400/81)*((400/81)^2/2!)
p2509
asg9
V2015-11-05 11:35:40
p2510
sS'part2_incorrect_attempt'
p2511
(lp2512
(S'0:02:34'
p2513
Ve^(400/81)*(400/81)^2/2!
p2514
tp2515
a(S'0:02:59'
p2516
Ve^(400/81)*((400/81)^2/2!)
p2517
tp2518
assVt1tran
p2519
(dp2520
S'part2_correct_attempt'
p2521
(lp2522
S'0:00:00'
p2523
aVe^(-400/81)(400/81)^(2)/2!
p2524
asg9
V2015-10-31 04:45:56
p2525
sS'part2_incorrect_attempt'
p2526
(lp2527
(S'-1 day, 23:46:01'
p2528
V2/81
p2529
tp2530
a(S'-1 day, 23:46:25'
p2531
V1/81^2
p2532
tp2533
assVthwan
p2534
(dp2535
S'part2_correct_attempt'
p2536
(lp2537
S'0:01:24'
p2538
ag1380
asg9
g1381
sS'part2_incorrect_attempt'
p2539
(lp2540
(S'-1 day, 23:56:56'
p2541
V1/81*e^(-400/81)
p2542
tp2543
assVhmnaing
p2544
(dp2545
S'part2_correct_attempt'
p2546
(lp2547
S'0:04:18'
p2548
aVe^(-1/81*400)* ( (1/81*400)^2/ (2)!)
p2549
asg9
V2015-11-04 18:11:02
p2550
sS'part2_incorrect_attempt'
p2551
(lp2552
(S'0:01:23'
p2553
V2/81
p2554
tp2555
assVedescobe
p2556
(dp2557
S'part2_correct_attempt'
p2558
(lp2559
S'0:09:02'
p2560
aV.1438
p2561
asg9
V2015-11-01 04:18:33
p2562
sS'part2_incorrect_attempt'
p2563
(lp2564
(S'0:03:36'
p2565
V1/(81*81*81)
p2566
tp2567
assVw4shin
p2568
(dp2569
S'part2_correct_attempt'
p2570
(lp2571
S'0:00:00'
p2572
aV(e^(-400*(1/81))*(400*(1/81))^2)/2
p2573
asg9
V2015-11-04 20:54:53
p2574
sS'part2_incorrect_attempt'
p2575
(lp2576
(S'-1 day, 23:55:10'
p2577
V(e^(-2*(1-(1-1/81)^400))*(2*(1-((1-1/81)^400)))^2)/2
p2578
tp2579
assVetemlock
p2580
(dp2581
S'part2_correct_attempt'
p2582
(lp2583
S'0:02:15'
p2584
aV(e^-4.93827)[ (4.93827^2)/2]
p2585
asg9
V2015-11-02 03:31:30
p2586
sS'part2_incorrect_attempt'
p2587
(lp2588
(S'0:02:05'
p2589
V(e^4.93827)[ (4.93827^2)/2]
p2590
tp2591
assVmuy002
p2592
(dp2593
S'part2_correct_attempt'
p2594
(lp2595
S'0:00:00'
p2596
ag1892
asg9
g1893
sS'part2_incorrect_attempt'
p2597
(lp2598
(S'-1 day, 23:58:36'
p2599
V(1/81)^2*e^(-1/81)/2!
p2600
tp2601
assVcstringh
p2602
(dp2603
S'part2_correct_attempt'
p2604
(lp2605
S'0:03:08'
p2606
aVe^(-400/81)*(((400/81)^5)/(5!))
p2607
asg9
V2015-11-04 06:02:10
p2608
sS'part2_incorrect_attempt'
p2609
(lp2610
(S'-2 days, 17:42:36'
p2611
V1/81
p2612
tp2613
a(S'-2 days, 18:36:42'
p2614
Ve
p2615
tp2616
assVeshung
p2617
(dp2618
S'part2_correct_attempt'
p2619
(lp2620
S'0:02:46'
p2621
aV8/e^4
p2622
asg9
V2015-10-30 21:41:44
p2623
sS'part2_incorrect_attempt'
p2624
(lp2625
(S'0:01:59'
p2626
V0.147
p2627
tp2628
assVv4sharma
p2629
(dp2630
S'part2_correct_attempt'
p2631
(lp2632
S'0:01:29'
p2633
aV(e^-4)(4^5)/(5!)
p2634
asg9
V2015-10-31 21:43:28
p2635
sS'part2_incorrect_attempt'
p2636
(lp2637
(S'0:01:20'
p2638
V(e^4)(4^5)/(5!)
p2639
tp2640
assVralhadda
p2641
(dp2642
S'part2_correct_attempt'
p2643
(lp2644
S'0:19:22'
p2645
ag1968
asg9
g1969
sS'part2_incorrect_attempt'
p2646
(lp2647
(S'0:17:46'
p2648
V1/100
p2649
tp2650
assVyjshin
p2651
(dp2652
S'part2_correct_attempt'
p2653
(lp2654
S'0:12:21'
p2655
ag727
asg9
g728
sS'part2_incorrect_attempt'
p2656
(lp2657
(S'0:08:06'
p2658
V(64^(-400/64))((400/64)^3/6)
p2659
tp2660
assVbpandayk
p2661
(dp2662
S'part2_correct_attempt'
p2663
(lp2664
S'0:01:03'
p2665
aVe^-((400*1)/64)(((400*1)/64)^2/(2!))
p2666
asg9
V2015-11-06 21:12:53
p2667
sS'part2_incorrect_attempt'
p2668
(lp2669
(S'0:00:38'
p2670
Ve^-((400*1)/64)(((400*1)/64)^5/(5!))
p2671
tp2672
assVhsc052
p2673
(dp2674
S'part2_correct_attempt'
p2675
(lp2676
S'0:01:39'
p2677
aVe^(-4) * (4^2)/2!
p2678
asg9
V2015-11-05 07:03:28
p2679
sS'part2_incorrect_attempt'
p2680
(lp2681
(S'-1 day, 23:46:04'
p2682
V1/(e*2)
p2683
tp2684
assVyil035
p2685
(dp2686
S'part2_correct_attempt'
p2687
(lp2688
S'0:00:54'
p2689
aVe^(-400/64)*((400/64)^5)/120
p2690
asg9
V2015-11-04 06:17:32
p2691
sS'part2_incorrect_attempt'
p2692
(lp2693
(S'-1 day, 17:26:07'
p2694
V5/64
p2695
tp2696
a(S'-1 day, 17:27:15'
p2697
V5/8
p2698
tp2699
a(S'-1 day, 17:31:44'
p2700
V0.09160366
p2701
tp2702
a(S'0:00:00'
p2703
Ve^(-400/64)*((400/64)^5)/240
p2704
tp2705
assVk3tan
p2706
(dp2707
S'part2_correct_attempt'
p2708
(lp2709
S'0:06:37'
p2710
aVe^-(400/81)*((400/81)^5/(5!))
p2711
asg9
V2015-11-04 01:33:05
p2712
sS'part2_incorrect_attempt'
p2713
(lp2714
(S'0:06:27'
p2715
Ve^(400/81)*((400/81)^5/(5!))
p2716
tp2717
assVctroncos
p2718
(dp2719
S'part2_correct_attempt'
p2720
(lp2721
S'0:06:11'
p2722
ag1781
asg9
g1782
sS'part2_incorrect_attempt'
p2723
(lp2724
(S'-1 day, 23:59:17'
p2725
VC(400,10)
p2726
tp2727
a(S'0:04:33'
p2728
Ve^(100)*(100)^2/(2!)
p2729
tp2730
a(S'0:05:04'
p2731
Ve^(400/100)*(400/100)^2/(2!)
p2732
tp2733
assVjix029
p2734
(dp2735
S'part2_correct_attempt'
p2736
(lp2737
S'0:00:39'
p2738
aV.19537
p2739
asg9
V2015-11-01 04:44:21
p2740
sS'part2_incorrect_attempt'
p2741
(lp2742
(S'0:00:00'
p2743
V.195
p2744
tp2745
assVkebao
p2746
(dp2747
S'part2_correct_attempt'
p2748
(lp2749
S'0:00:00'
p2750
aVe^(-400/64)*(400/64)^5/5!
p2751
asg9
V2015-11-05 18:37:39
p2752
sS'part2_incorrect_attempt'
p2753
(lp2754
(S'-1 day, 23:59:19'
p2755
Ve^(-400/8)*(400/8)^5/5!
p2756
tp2757
assVd6he
p2758
(dp2759
S'part2_correct_attempt'
p2760
(lp2761
S'0:01:48'
p2762
aVe^(-6.25)*(6.25^5)/(5!)
p2763
asg9
V2015-11-05 02:28:46
p2764
sS'part2_incorrect_attempt'
p2765
(lp2766
(S'-1 day, 23:50:25'
p2767
V400/(64^5)
p2768
tp2769
assVawollner
p2770
(dp2771
S'part2_correct_attempt'
p2772
(lp2773
S'3 days, 3:58:56'
p2774
aVe^-6.25(6.25^0/0!)
p2775
asg9
V2015-11-03 18:13:00
p2776
sS'part2_incorrect_attempt'
p2777
(lp2778
(S'0:01:17'
p2779
Ve^6.25(6.25^63/63!)
p2780
tp2781
a(S'0:01:38'
p2782
Ve^-6.25(6.25^63/63!)
p2783
tp2784
a(S'5:01:13'
p2785
Ve^-6.5(6.5^63/63!)
p2786
tp2787
a(S'3 days, 3:53:31'
p2788
Ve^-6.5(6.5^64/64!)
p2789
tp2790
a(S'3 days, 3:53:56'
p2791
Ve^-6.5(6.5^0/0!)
p2792
tp2793
a(S'3 days, 3:56:05'
p2794
Ve^-6.5(6.5^64/64!)
p2795
tp2796
a(S'3 days, 3:58:07'
p2797
Ve^-6.5(6.5^1/1!)
p2798
tp2799
a(S'3 days, 3:58:25'
p2800
Ve^-6.5(6.5^0/0!)
p2801
tp2802
assVdcrume
p2803
(dp2804
S'part2_correct_attempt'
p2805
(lp2806
S'0:00:00'
p2807
aVe^(-4)*(4^0)/1
p2808
asg9
V2015-11-06 16:59:20
p2809
sS'part2_incorrect_attempt'
p2810
(lp2811
(S'-1 day, 23:47:42'
p2812
Ve^(-1/100)*(1)/0!
p2813
tp2814
assVjcj006
p2815
(dp2816
S'part2_correct_attempt'
p2817
(lp2818
S'0:00:17'
p2819
aVe^(-400/64)*160000/(64^2*2)
p2820
asg9
V2015-11-03 01:28:33
p2821
sS'part2_incorrect_attempt'
p2822
(lp2823
(S'-1 day, 23:57:16'
p2824
Ve^(-1/64)/(64^2*2)
p2825
tp2826
a(S'0:00:00'
p2827
Ve^(-1/64)*160000/(64^2*2)
p2828
tp2829
assVdlt009
p2830
(dp2831
S'part2_correct_attempt'
p2832
(lp2833
S'0:03:16'
p2834
ag1004
asg9
g1005
sS'part2_incorrect_attempt'
p2835
(lp2836
(S'-1 day, 16:54:47'
p2837
V(e^-(1/81))((1/81)^5)/(5!)
p2838
tp2839
a(S'-1 day, 23:19:18'
p2840
V(e^-(1))((1)^5)/(5!)
p2841
tp2842
a(S'0:02:44'
p2843
Ve^((1/81)(400))([(1/81)(400)]^5)/(5!)
p2844
tp2845
assVjeqin
p2846
(dp2847
S'part2_correct_attempt'
p2848
(lp2849
S'0:01:29'
p2850
aV[e^-4][(4^0)/0!]
p2851
asg9
V2015-11-05 06:42:17
p2852
sS'part2_incorrect_attempt'
p2853
(lp2854
(S'0:00:31'
p2855
V[e^-4][(4^100)/100!]
p2856
tp2857
assVjnatale
p2858
(dp2859
S'part2_correct_attempt'
p2860
(lp2861
S'0:00:30'
p2862
aVe^(-(400/81)) * (400/81)
p2863
asg9
V2015-11-04 07:19:59
p2864
sS'part2_incorrect_attempt'
p2865
(lp2866
(S'0:00:00'
p2867
Ve^(-400) * 400
p2868
tp2869
a(S'0:00:14'
p2870
Ve^(-4.94) * 4.94
p2871
tp2872
assVnnh002
p2873
(dp2874
S'part2_correct_attempt'
p2875
(lp2876
S'0:09:59'
p2877
ag1268
asg9
g1269
sS'part2_incorrect_attempt'
p2878
(lp2879
(S'-2 days, 15:23:51'
p2880
V800/e
p2881
tp2882
a(S'0:06:58'
p2883
V147.151229127
p2884
tp2885
a(S'0:08:12'
p2886
Ve^(400/81)*((400/81)^2/2!)
p2887
tp2888
assVagian
p2889
(dp2890
S'part2_correct_attempt'
p2891
(lp2892
S'0:03:27'
p2893
aV(e^(-6.25)*6.25^2/(2!))
p2894
asg9
V2015-11-07 00:09:57
p2895
sS'part2_incorrect_attempt'
p2896
(lp2897
(S'0:00:41'
p2898
V(e^(-4)*4^1/(1!))
p2899
tp2900
a(S'0:01:08'
p2901
V(e^(-8)*8^1/(1!))
p2902
tp2903
a(S'0:01:26'
p2904
V(e^(-2)*2^1/(1!))
p2905
tp2906
a(S'0:01:56'
p2907
V(e^(-6.25)*6.25^1/(1!))
p2908
tp2909
a(S'0:02:22'
p2910
V(e^(-6.25)*6.25^2/(1!))
p2911
tp2912
assVaakumar
p2913
(dp2914
S'part2_correct_attempt'
p2915
(lp2916
S'0:08:34'
p2917
aV(400/64)e^-(400/64)
p2918
asg9
V2015-11-04 03:05:22
p2919
sS'part2_incorrect_attempt'
p2920
(lp2921
(S'-1 day, 23:58:40'
p2922
V.1227
p2923
tp2924
a(S'0:01:12'
p2925
V1-e^(-400/64)
p2926
tp2927
assVkew017
p2928
(dp2929
S'part2_correct_attempt'
p2930
(lp2931
S'0:00:20'
p2932
aV(e^-(400/81))(((400/81)^4)/4!)
p2933
asg9
V2015-11-05 18:14:04
p2934
sS'part2_incorrect_attempt'
p2935
(lp2936
(S'0:00:00'
p2937
V(e^-(400/81))(((4)^(400/81))/4!)
p2938
tp2939
assVq3wen
p2940
(dp2941
S'part2_correct_attempt'
p2942
(lp2943
S'0:02:28'
p2944
ag1515
asg9
g1516
sS'part2_incorrect_attempt'
p2945
(lp2946
(S'0:00:00'
p2947
V1.31*10^-41
p2948
tp2949
assVyeh013
p2950
(dp2951
S'part2_correct_attempt'
p2952
(lp2953
S'0:09:18'
p2954
aVe^(-400/81)
p2955
asg9
V2015-11-03 07:35:18
p2956
sS'part2_incorrect_attempt'
p2957
(lp2958
(S'0:01:14'
p2959
V(400/81)/e^(400/81)
p2960
tp2961
a(S'0:04:47'
p2962
V400/e^400
p2963
tp2964
a(S'0:05:10'
p2965
V(1/81)/e^(1/81)
p2966
tp2967
a(S'0:06:43'
p2968
V1-(1/81)
p2969
tp2970
assVeaherman
p2971
(dp2972
S'part2_correct_attempt'
p2973
(lp2974
S'0:05:24'
p2975
ag1314
asg9
g1315
sS'part2_incorrect_attempt'
p2976
(lp2977
(S'0:00:13'
p2978
V81/400
p2979
tp2980
a(S'0:00:50'
p2981
V[(81)(2)]/400
p2982
tp2983
a(S'0:01:28'
p2984
V400/[(81)(2)]
p2985
tp2986
assVarvenega
p2987
(dp2988
S'part2_correct_attempt'
p2989
(lp2990
S'0:30:43'
p2991
aV(e^-6.25)
p2992
asg9
V2015-11-06 23:31:58
p2993
sS'part2_incorrect_attempt'
p2994
(lp2995
(S'0:00:00'
p2996
V(e^6.25)*((6.25^5)/5!)
p2997
tp2998
a(S'0:06:17'
p2999
V(e^6.25)*((6.25^0)/0!)
p3000
tp3001
a(S'0:06:43'
p3002
V(e^6.25)*(6.25^0)
p3003
tp3004
assVyhhan
p3005
(dp3006
g9
V2015-11-06 23:27:51
p3007
sS'part2_incorrect_attempt'
p3008
(lp3009
(S'0:00:41'
p3010
V3/400
p3011
tp3012
assVcagatep
p3013
(dp3014
S'part2_correct_attempt'
p3015
(lp3016
S'0:07:21'
p3017
aV(4^4 * e ^(-4))/(4!)
p3018
asg9
V2015-11-05 05:55:53
p3019
sS'part2_incorrect_attempt'
p3020
(lp3021
(S'-1 day, 23:42:52'
p3022
V400/(100^4)
p3023
tp3024
a(S'-1 day, 23:46:17'
p3025
V1/(100^4)
p3026
tp3027
assVytc012
p3028
(dp3029
S'part2_correct_attempt'
p3030
(lp3031
S'12:35:15'
p3032
aV(e^-4)*(4^5)/5!
p3033
asg9
V2015-11-05 09:14:14
p3034
sS'part2_incorrect_attempt'
p3035
(lp3036
(S'0:01:19'
p3037
V(e^-4)(4^100)/100
p3038
tp3039
a(S'0:01:47'
p3040
V1/5
p3041
tp3042
a(S'0:01:55'
p3043
V1/20
p3044
tp3045
assVklala
p3046
(dp3047
S'part2_correct_attempt'
p3048
(lp3049
S'0:06:17'
p3050
aV(4^4)*(e^-4)/(4!)
p3051
asg9
V2015-11-05 05:46:14
p3052
sS'part2_incorrect_attempt'
p3053
(lp3054
(S'-1 day, 23:58:39'
p3055
V(e^(-.01) * (.01)^4)/(4!)
p3056
tp3057
a(S'0:06:04'
p3058
V(4^100)*(e^-4)/(100!)
p3059
tp3060
assVcprafull
p3061
(dp3062
S'part2_correct_attempt'
p3063
(lp3064
S'0:02:40'
p3065
aV((6.25)^3)*(e^(-6.25))/3!
p3066
asg9
V2015-11-04 02:23:00
p3067
sS'part2_incorrect_attempt'
p3068
(lp3069
(S'0:01:48'
p3070
V((400/64)^3)*(e^(400/64))/3!
p3071
tp3072
a(S'0:02:25'
p3073
V((6.25)^3)*(e^(6.25))/3!
p3074
tp3075
assVdmn009
p3076
(dp3077
S'part2_correct_attempt'
p3078
(lp3079
S'0:01:59'
p3080
aV(e^-4.938)*4.938
p3081
asg9
V2015-11-05 01:10:26
p3082
sS'part2_incorrect_attempt'
p3083
(lp3084
(S'0:01:32'
p3085
V(e^4.938)*4.938
p3086
tp3087
assVgalu
p3088
(dp3089
g9
V2015-11-07 00:31:18
p3090
sS'part2_incorrect_attempt'
p3091
(lp3092
(S'0:00:00'
p3093
V1/100
p3094
tp3095
a(S'0:00:00'
p3096
V5/100
p3097
tp3098
a(S'0:00:00'
p3099
V1/1000000
p3100
tp3101
assVt2shin
p3102
(dp3103
S'part2_correct_attempt'
p3104
(lp3105
S'0:01:16'
p3106
ag670
asg9
g671
sS'part2_incorrect_attempt'
p3107
(lp3108
(S'0:00:58'
p3109
V(e^-4)(e^2)/(2)
p3110
tp3111
assVvsamant
p3112
(dp3113
S'part2_correct_attempt'
p3114
(lp3115
S'0:00:00'
p3116
aVe^(-4)*4^5/5!
p3117
asg9
V2015-10-30 23:06:39
p3118
sS'part2_incorrect_attempt'
p3119
(lp3120
(S'-1 day, 23:53:02'
p3121
Ve^(-400)*400^5/5!
p3122
tp3123
assVrohan
p3124
(dp3125
S'part2_correct_attempt'
p3126
(lp3127
S'0:09:54'
p3128
ag2025
asg9
g2026
sS'part2_incorrect_attempt'
p3129
(lp3130
(S'0:00:00'
p3131
V400/81
p3132
tp3133
a(S'0:08:43'
p3134
V1-e^(-400/81)
p3135
tp3136
assVpcdo
p3137
(dp3138
S'part2_correct_attempt'
p3139
(lp3140
S'0:00:08'
p3141
aVe^(-400/81)*(400/81)^2/(2!)
p3142
asg9
V2015-11-02 18:22:28
p3143
sS'part2_incorrect_attempt'
p3144
(lp3145
(S'-1 day, 23:59:32'
p3146
Ve^(-400/9)*(400/9)^2/(2!)
p3147
tp3148
assVk5law
p3149
(dp3150
S'part2_correct_attempt'
p3151
(lp3152
S'0:02:52'
p3153
ag988
asg9
g989
sS'part2_incorrect_attempt'
p3154
(lp3155
(S'0:00:00'
p3156
Ve^(-4.9)*16/2
p3157
tp3158
a(S'0:02:05'
p3159
Ve^([400*(1/81)])*[16/2]
p3160
tp3161
a(S'0:02:36'
p3162
Ve^([400*(1/81)])*[[400*(1/81)]^2/2]
p3163
tp3164
assVgsrandha
p3165
(dp3166
S'part2_correct_attempt'
p3167
(lp3168
S'6:27:58'
p3169
aV(e^-4) * (4/1) 
p3170
asg9
V2015-11-05 00:10:02
p3171
sS'part2_incorrect_attempt'
p3172
(lp3173
(S'0:14:14'
p3174
V.25
p3175
tp3176
a(S'0:15:07'
p3177
V(e^-4) * (4^100 / 100!)
p3178
tp3179
a(S'0:15:18'
p3180
V(e^-4) * (4^10 / 10!)
p3181
tp3182
assVdcgriffi
p3183
(dp3184
S'part2_correct_attempt'
p3185
(lp3186
S'0:00:40'
p3187
aVe^(-400/81)*(400/81)
p3188
asg9
V2015-11-06 23:05:39
p3189
sS'part2_incorrect_attempt'
p3190
(lp3191
(S'0:00:00'
p3192
Ve^(-400/81)*(400/81)/(81!)
p3193
tp3194
assVcfgutier
p3195
(dp3196
S'part2_correct_attempt'
p3197
(lp3198
S'0:26:03'
p3199
aV.0785
p3200
asg9
V2015-11-05 22:01:57
p3201
sS'part2_incorrect_attempt'
p3202
(lp3203
(S'0:11:50'
p3204
V.130
p3205
tp3206
a(S'0:21:20'
p3207
V.078
p3208
tp3209
assVanl114
p3210
(dp3211
S'part2_correct_attempt'
p3212
(lp3213
S'0:03:38'
p3214
aV(e^(-400/81)) * (((400/81)^4)/4!)
p3215
asg9
V2015-11-05 22:21:51
p3216
sS'part2_incorrect_attempt'
p3217
(lp3218
(S'0:01:58'
p3219
V(e^(-400/81)) * (((400/81)^9)/9!)
p3220
tp3221
a(S'0:02:37'
p3222
V81*(e^(-400/81)) * (((400/81)^9)/9!)
p3223
tp3224
a(S'0:03:25'
p3225
V81*(e^(-400/81)) * (((400/81)^4)/4!)
p3226
tp3227
assVpnquach
p3228
(dp3229
S'part2_correct_attempt'
p3230
(lp3231
S'0:00:22'
p3232
aV(e^(-400/64))*(((400/64)^5)/(5!))
p3233
asg9
V2015-11-06 01:28:40
p3234
sS'part2_incorrect_attempt'
p3235
(lp3236
(S'-1 day, 23:38:19'
p3237
V(e^(-1/64))*(((1/64)^5)/(5!))
p3238
tp3239
assVagarango
p3240
(dp3241
S'part2_correct_attempt'
p3242
(lp3243
S'1:42:14'
p3244
aV0.03539246932
p3245
asg9
V2015-11-05 02:16:20
p3246
sS'part2_incorrect_attempt'
p3247
(lp3248
(S'0:02:42'
p3249
V3.64*10^-63
p3250
tp3251
a(S'0:41:22'
p3252
V1.8693728 * 10^-67
p3253
tp3254
a(S'0:42:12'
p3255
V0.00059396572
p3256
tp3257
assVtwsalim
p3258
(dp3259
S'part2_correct_attempt'
p3260
(lp3261
S'0:02:14'
p3262
aV0.1953668
p3263
asg9
V2015-11-04 00:07:20
p3264
sS'part2_incorrect_attempt'
p3265
(lp3266
(S'0:00:00'
p3267
V0.195
p3268
tp3269
assVjap009
p3270
(dp3271
S'part2_correct_attempt'
p3272
(lp3273
S'0:00:46'
p3274
ag1342
asg9
g1343
sS'part2_incorrect_attempt'
p3275
(lp3276
(S'0:00:19'
p3277
V4/400
p3278
tp3279
assVaadhakal
p3280
(dp3281
S'part2_correct_attempt'
p3282
(lp3283
S'0:11:03'
p3284
ag1711
asg9
g1712
sS'part2_incorrect_attempt'
p3285
(lp3286
(S'0:00:00'
p3287
V0.732625556
p3288
tp3289
a(S'0:03:12'
p3290
V218.39
p3291
tp3292
a(S'0:03:53'
p3293
V0.073
p3294
tp3295
assVacs008
p3296
(dp3297
S'part2_correct_attempt'
p3298
(lp3299
S'0:02:07'
p3300
ag1806
asg9
g1807
sS'part2_incorrect_attempt'
p3301
(lp3302
(S'0:01:36'
p3303
V10117.438
p3304
tp3305
assVhmshah
p3306
(dp3307
S'part2_correct_attempt'
p3308
(lp3309
S'0:06:19'
p3310
aVe^(-6.25)*6.25^5/(5!)
p3311
asg9
V2015-11-05 08:56:22
p3312
sS'part2_incorrect_attempt'
p3313
(lp3314
(S'0:01:42'
p3315
V(e^(6.25))*((4^6.25)/4!)
p3316
tp3317
a(S'0:04:26'
p3318
V1/64
p3319
tp3320
assVahh002
p3321
(dp3322
S'part2_correct_attempt'
p3323
(lp3324
S'0:01:25'
p3325
aV(e^-(400/81))((400/81)^5)/5!
p3326
asg9
V2015-11-04 11:07:38
p3327
sS'part2_incorrect_attempt'
p3328
(lp3329
(S'-1 day, 19:31:22'
p3330
V(e^-(1/81))((1/81)^5)/5!
p3331
tp3332
assVkquong
p3333
(dp3334
S'part2_correct_attempt'
p3335
(lp3336
S'0:02:08'
p3337
ag2006
asg9
g2007
sS'part2_incorrect_attempt'
p3338
(lp3339
(S'0:00:29'
p3340
V400/81/81
p3341
tp3342
assVxweng
p3343
(dp3344
S'part2_correct_attempt'
p3345
(lp3346
S'0:16:33'
p3347
aVe^-4/1
p3348
asg9
V2015-11-05 22:46:20
p3349
sS'part2_incorrect_attempt'
p3350
(lp3351
(S'0:05:24'
p3352
V1/100
p3353
tp3354
a(S'0:05:29'
p3355
V99/100
p3356
tp3357
a(S'0:07:45'
p3358
V400/100
p3359
tp3360
a(S'0:07:51'
p3361
V400*99/100
p3362
tp3363
a(S'0:10:37'
p3364
V4^100*e^-4/100!
p3365
tp3366
a(S'0:12:15'
p3367
V(99/100)^400
p3368
tp3369
assVc3chung
p3370
(dp3371
S'part2_correct_attempt'
p3372
(lp3373
S'0:01:56'
p3374
aVe^(-4) * 4^(3)/3!
p3375
asg9
V2015-11-05 08:42:53
p3376
sS'part2_incorrect_attempt'
p3377
(lp3378
(S'-1 day, 23:59:38'
p3379
Ve^(-400) * 400^(100)/100!
p3380
tp3381
a(S'0:00:23'
p3382
Ve^(-4) * 4^(100)/100!
p3383
tp3384
a(S'0:01:12'
p3385
Ve^(-4) * 4^(1/100)/1/100!
p3386
tp3387
assVajvanega
p3388
(dp3389
S'part2_correct_attempt'
p3390
(lp3391
S'0:04:05'
p3392
aV(e^(-400/81))*(400/81)
p3393
asg9
V2015-11-05 00:19:54
p3394
sS'part2_incorrect_attempt'
p3395
(lp3396
(S'0:03:27'
p3397
V(e^(400/81))*(400/81)
p3398
tp3399
assVzhw110
p3400
(dp3401
S'part2_correct_attempt'
p3402
(lp3403
S'0:03:47'
p3404
aVe^(-400/81)*(400/81)/(1)
p3405
asg9
V2015-11-03 21:41:45
p3406
sS'part2_incorrect_attempt'
p3407
(lp3408
(S'0:02:42'
p3409
Ve^(-400/81)*(400/81)^81/(81!)
p3410
tp3411
assVmtrafeca
p3412
(dp3413
S'part2_correct_attempt'
p3414
(lp3415
S'0:02:48'
p3416
ag2209
asg9
g2210
sS'part2_incorrect_attempt'
p3417
(lp3418
(S'0:00:47'
p3419
V400/64 * 4
p3420
tp3421
a(S'0:00:57'
p3422
V4/64
p3423
tp3424
a(S'0:01:07'
p3425
V(4/64)*400
p3426
tp3427
a(S'0:02:38'
p3428
Ve^(-6.2)*(6.25^(4)/(4!))
p3429
tp3430
assVkosung
p3431
(dp3432
S'part2_correct_attempt'
p3433
(lp3434
S'0:08:03'
p3435
aV0.1563
p3436
asg9
V2015-11-05 06:41:04
p3437
sS'part2_incorrect_attempt'
p3438
(lp3439
(S'0:00:26'
p3440
V0.78466
p3441
tp3442
a(S'0:00:36'
p3443
V0.78446
p3444
tp3445
assVwhcombs
p3446
(dp3447
S'part2_correct_attempt'
p3448
(lp3449
S'0:01:26'
p3450
aVe^(-(1/100)(400))(((1/100)(400))^5/5!)
p3451
asg9
V2015-11-04 18:15:12
p3452
sS'part2_incorrect_attempt'
p3453
(lp3454
(S'0:00:00'
p3455
Ve^((1/100)(400))((1/100)(400)^5/5!)
p3456
tp3457
a(S'0:00:53'
p3458
Ve^((1/100)(400))(((1/100)(400))^5/5!)
p3459
tp3460
assVj2phung
p3461
(dp3462
S'part2_correct_attempt'
p3463
(lp3464
S'0:17:39'
p3465
aV(e^(-4))((4^(0))/(0!))
p3466
asg9
V2015-11-03 17:48:49
p3467
sS'part2_incorrect_attempt'
p3468
(lp3469
(S'0:09:57'
p3470
V(e^(-4))((4^(100))/(100!))
p3471
tp3472
a(S'0:14:41'
p3473
V(e^(-4))((4^(1))/(1!))
p3474
tp3475
a(S'0:15:03'
p3476
V(e^(-4))((4^(4))/(4!))
p3477
tp3478
asss.