(dp0
V1
p1
(dp2
Vaggouw
p3
(dp4
S'part1_correct_attempt'
p5
(lp6
S'0:02:56'
p7
aV(e^-4.2)*1 * 0.5 +(e^-1.5 * 1) * 0.5
p8
asS'first_attempt'
p9
V2015-11-03 21:31:34
p10
sS'part1_incorrect_attempt'
p11
(lp12
(S'0:00:00'
p13
V0.5
p14
tp15
assVjguanzho
p16
(dp17
S'part1_correct_attempt'
p18
(lp19
S'1 day, 13:58:18'
p20
aV0.5(e**-(2.6) + e**-(2.1))
p21
asg9
V2015-11-03 18:29:19
p22
sS'part1_incorrect_attempt'
p23
(lp24
(S'0:00:00'
p25
V2.6*2.1*e**(-2.6-2.1)
p26
tp27
a(S'0:00:00'
p28
Ve**(-2.6-2.1)
p29
tp30
a(S'0:00:00'
p31
V2.6*.5*e**-2.6-2.1*.5*e**-2.1
p32
tp33
a(S'0:00:40'
p34
V2.35*e-2.35
p35
tp36
a(S'0:00:46'
p37
V2.35*e**-2.35
p38
tp39
a(S'0:00:00'
p40
Ve**-2.6/(e**-2.6 + e**-2.1)
p41
tp42
a(S'0:00:10'
p43
Ve**-2.6/(1-e**-2.6)
p44
tp45
a(S'0:48:13'
p46
V1/2.6 + 1/2.1
p47
tp48
a(S'0:49:53'
p49
Ve**-(1/2.6 + 1/2.1)
p50
tp51
a(S'0:49:59'
p52
Ve**-(1/2.6 * 1/2.1)
p53
tp54
a(S'0:51:50'
p55
Ve**-(1/2.6) + e**-(1/2.1)
p56
tp57
a(S'0:52:14'
p58
V0.5(e**-(1/2.6) + e**-(1/2.1))
p59
tp60
assVjjm019
p61
(dp62
S'part1_correct_attempt'
p63
(lp64
S'0:02:34'
p65
aV0.5(e^-3.2 + e^-1.5)
p66
asg9
V2015-11-04 23:14:57
p67
sS'part1_incorrect_attempt'
p68
(lp69
(S'0:00:00'
p70
V1.5/3.2 + 1.5/6.4
p71
tp72
assVmhale
p73
(dp74
S'part1_correct_attempt'
p75
(lp76
S'0:01:43'
p77
aVe^(-2.8) /2 + e^(-4.3)/2
p78
asg9
V2015-11-05 00:33:26
p79
sS'part1_incorrect_attempt'
p80
(lp81
(S'0:00:00'
p82
Ve^(2.8)/2 + e^(4.3)/2
p83
tp84
a(S'0:00:08'
p85
Ve^(2.8)
p86
tp87
a(S'0:00:30'
p88
Ve^(-2.8)
p89
tp90
assVrsmurlo
p91
(dp92
S'part1_correct_attempt'
p93
(lp94
S'3:42:00'
p95
aVe^(-3.1)*.5+e^(-4.5)*.5
p96
asg9
V2015-11-05 16:46:03
p97
sS'part1_incorrect_attempt'
p98
(lp99
(S'0:00:00'
p100
Ve^(-1)*3.8
p101
tp102
a(S'0:00:00'
p103
Ve^(3.1)*.5+e^(4.5)*.5
p104
tp105
assVhaw081
p106
(dp107
S'part1_correct_attempt'
p108
(lp109
S'1 day, 22:17:14'
p110
aV0.5(e^-3.7+e^-1.5)
p111
asg9
V2015-11-01 03:47:11
p112
sS'part1_incorrect_attempt'
p113
(lp114
(S'0:00:00'
p115
Ve^(-3.8)+e^(-1.5)
p116
tp117
a(S'0:01:24'
p118
Ve^(-3.8)+e^(-1.5)*2
p119
tp120
a(S'0:00:00'
p121
Ve^(-3.8)+e^(-1.5)
p122
tp123
a(S'0:00:00'
p124
V0.5(e^-3.7 + e^-2.2)
p125
tp126
a(S'0:00:44'
p127
V2(e^-3.7 + e^-2.2)
p128
tp129
a(S'0:00:49'
p130
V(e^-3.7 + e^-2.2)
p131
tp132
a(S'0:01:24'
p133
Ve^-3.7  e^-2.2
p134
tp135
a(S'0:01:39'
p136
V1-(e^-3.7+ e^-2.2)
p137
tp138
a(S'0:01:51'
p139
V0.5(e^-3.7+ e^-2.2)
p140
tp141
a(S'1:14:26'
p142
Ve^-3.7
p143
tp144
assVrlhagen
p145
(dp146
S'part1_correct_attempt'
p147
(lp148
S'0:07:01'
p149
aV(e^(-1.9) + e^(-1.3))/2
p150
asg9
V2015-10-31 16:48:28
p151
sS'part1_incorrect_attempt'
p152
(lp153
(S'0:00:00'
p154
V1.6
p155
tp156
assVdgunawan
p157
(dp158
S'part1_correct_attempt'
p159
(lp160
S'2:25:13'
p161
aV([1/e^(4.2)]+[1/e^(3.2)])/2
p162
asg9
V2015-11-05 07:06:18
p163
sS'part1_incorrect_attempt'
p164
(lp165
(S'0:00:00'
p166
V1- 1/(4.2 + 3.2)
p167
tp168
a(S'0:00:00'
p169
V1- (1/(4.2)(3.2))
p170
tp171
a(S'0:00:10'
p172
V1- (1/[(4.2)(3.2)])
p173
tp174
a(S'0:00:15'
p175
V1- (1/[(4.2)+(3.2)])
p176
tp177
a(S'0:00:21'
p178
V(1/[(4.2)+(3.2)])
p179
tp180
a(S'0:00:25'
p181
V(1/[(4.2)(3.2)])
p182
tp183
a(S'0:01:09'
p184
V([1/(4.2)]+[1/(3.2)])
p185
tp186
a(S'0:01:20'
p187
V1-([1/(4.2)]+[1/(3.2)])
p188
tp189
a(S'0:01:30'
p190
V2*([1/(4.2)]+[1/(3.2)])
p191
tp192
a(S'0:01:37'
p193
V1-([1/(4.2)]+[1/(3.2)])
p194
tp195
assVmpanelo
p196
(dp197
S'part1_correct_attempt'
p198
(lp199
S'0:04:34'
p200
aV(e^-1.4+e^-3.8)/2
p201
asg9
V2015-11-04 01:12:20
p202
sS'part1_incorrect_attempt'
p203
(lp204
(S'0:00:00'
p205
Ve^-(5.2/2)
p206
tp207
assVtcn013
p208
(dp209
S'part1_correct_attempt'
p210
(lp211
S'0:02:47'
p212
aV.5*0.33287108369+.5*0.04504920239
p213
asg9
V2015-11-04 01:40:39
p214
sS'part1_incorrect_attempt'
p215
(lp216
(S'0:00:00'
p217
V0.33287108369*0.04504920239
p218
tp219
a(S'0:00:16'
p220
V.25*0.33287108369*0.04504920239
p221
tp222
a(S'0:01:30'
p223
V.5*0.33287108369*0.04504920239
p224
tp225
assVpthsu
p226
(dp227
S'part1_correct_attempt'
p228
(lp229
S'0:01:17'
p230
aV0.5*e^-1 + 0.5*e^-2.7
p231
asg9
V2015-10-31 02:52:37
p232
sS'part1_incorrect_attempt'
p233
(lp234
(S'0:00:00'
p235
V0.5(e^-3.7 + e^-2.2)
p236
tp237
assVtcuddy
p238
(dp239
S'part1_correct_attempt'
p240
(lp241
S'0:06:52'
p242
aV(1/(e**4.8)+1/(e**3.1))(1/2)
p243
asg9
V2015-11-01 18:24:37
p244
sS'part1_incorrect_attempt'
p245
(lp246
(S'0:00:00'
p247
V(4.8**0)(e**(-4.8))
p248
tp249
assVdjk006
p250
(dp251
S'part1_correct_attempt'
p252
(lp253
S'0:02:31'
p254
aV((e^-3) + (e^-1.1))/2
p255
asg9
V2015-11-03 21:16:24
p256
sS'part1_incorrect_attempt'
p257
(lp258
(S'0:00:00'
p259
V(e^-2.05)(1)
p260
tp261
a(S'0:00:43'
p262
V(e^-2.05)(2.05^0/0!)
p263
tp264
assVchc286
p265
(dp266
S'part1_correct_attempt'
p267
(lp268
S'0:01:53'
p269
aV((e^(-3.2))+(e^(-4.7)))/2
p270
asg9
V2015-11-01 00:31:05
p271
sS'part1_incorrect_attempt'
p272
(lp273
(S'0:00:00'
p274
V(e^(-3.2))*(e^(-4.7))
p275
tp276
assVssamudra
p277
(dp278
S'part1_correct_attempt'
p279
(lp280
S'0:06:19'
p281
aV0.0407622
p282
asg9
V2015-11-05 05:47:37
p283
sS'part1_incorrect_attempt'
p284
(lp285
(S'0:00:00'
p286
V0.002384
p287
tp288
assVflhernan
p289
(dp290
S'part1_correct_attempt'
p291
(lp292
S'1 day, 20:47:05'
p293
aV.5e^(-3.9)+.5e^(-3.1)
p294
asg9
V2015-11-01 21:21:27
p295
sS'part1_incorrect_attempt'
p296
(lp297
(S'0:00:00'
p298
Ve^(-3.9)+e^(-3.1)
p299
tp300
assVm4salaza
p301
(dp302
S'part1_correct_attempt'
p303
(lp304
S'0:04:42'
p305
aV(e^-2.4+e^-1.4)/2
p306
asg9
V2015-11-04 04:33:25
p307
sS'part1_incorrect_attempt'
p308
(lp309
(S'0:00:00'
p310
V(2.4+1.4)/3.8
p311
tp312
assVany027
p313
(dp314
S'part1_correct_attempt'
p315
(lp316
S'0:01:10'
p317
aV(1/2)e^(-3.8) + (1/2)e^(-1.6)
p318
asg9
V2015-11-01 19:24:43
p319
sS'part1_incorrect_attempt'
p320
(lp321
(S'0:00:00'
p322
V(((e^(-3.8))*3.8 ) * 1/2) +(((e^(-1.6))*1.6 ) * 1/2)
p323
tp324
a(S'0:00:27'
p325
V(((e^(-3.8))*3.8 ) * (1/2)) +(((e^(-1.6))*1.6 ) * (1/2))
p326
tp327
assVm8woo
p328
(dp329
S'part1_correct_attempt'
p330
(lp331
S'0:02:32'
p332
aV0.5*[e^(-3.2) * (3.2)^0/0!] + 0.5*[e^(-2.7) * (2.7)^0/0!]
p333
asg9
V2015-11-05 20:23:09
p334
sS'part1_incorrect_attempt'
p335
(lp336
(S'0:00:00'
p337
Ve^(-(3.2-2.7)/2) * ((3.2-2.7)/2)^0/0!
p338
tp339
a(S'0:00:00'
p340
V1-[e^(-(3.2-2.7)/2) * ((3.2-2.7)/2)^0/0!]
p341
tp342
assVakg009
p343
(dp344
S'part1_correct_attempt'
p345
(lp346
S'0:59:51'
p347
aV[e^(-3.8)+e^(-1.3)]/2
p348
asg9
V2015-11-06 20:29:55
p349
sS'part1_incorrect_attempt'
p350
(lp351
(S'0:00:00'
p352
V(3.8+1.3)/(3.8*1.3)
p353
tp354
a(S'0:00:18'
p355
V(3.8*1.3)/(3.8+1.3)
p356
tp357
a(S'0:02:18'
p358
V1/(3.8*1.3)
p359
tp360
a(S'0:02:26'
p361
V1-[1/(3.8*1.3)]
p362
tp363
a(S'0:06:19'
p364
V0.1
p365
tp366
a(S'0:06:27'
p367
V0.2
p368
tp369
a(S'0:00:00'
p370
Ve^(-3.8)+e^(-1.3)
p371
tp372
assVjhp077
p373
(dp374
S'part1_correct_attempt'
p375
(lp376
S'0:20:35'
p377
aV(e^(-3.6) + e^(-1.2))1/2
p378
asg9
V2015-11-05 12:11:50
p379
sS'part1_incorrect_attempt'
p380
(lp381
(S'0:00:00'
p382
Ve^(-3.6) * e^(-1.2)
p383
tp384
a(S'0:02:09'
p385
Ve^(-1/3.6) * e^(-1/1.2)
p386
tp387
a(S'0:02:31'
p388
Ve^(1/3.6) * e^(1/1.2)
p389
tp390
a(S'0:03:49'
p391
Ve^(-3.6) * e^(-1.2)
p392
tp393
a(S'0:10:38'
p394
Ve^(-3.6)
p395
tp396
a(S'0:11:39'
p397
Ve^(-4.8)
p398
tp399
a(S'0:11:50'
p400
Ve^(1/4.8)
p401
tp402
a(S'0:12:10'
p403
Ve^(-4.8)
p404
tp405
a(S'0:20:07'
p406
Ve^(-3.6) +  e^(-1.2)
p407
tp408
assVjit002
p409
(dp410
S'part1_correct_attempt'
p411
(lp412
S'0:16:20'
p413
aV0.5*e^(-3.2)+0.5*e^(-3.7)
p414
asg9
V2015-11-05 02:46:51
p415
sS'part1_incorrect_attempt'
p416
(lp417
(S'0:00:00'
p418
V1/3.7*0.5+1/3.2*0.5
p419
tp420
a(S'0:01:05'
p421
V(1-1/3.7)*0.5+(1-1/3.2)*0.5
p422
tp423
assVdruble
p424
(dp425
S'part1_correct_attempt'
p426
(lp427
S'0:02:47'
p428
aV(e^-4.9 + e^-2) / 2
p429
asg9
V2015-11-04 04:05:34
p430
sS'part1_incorrect_attempt'
p431
(lp432
(S'0:00:00'
p433
Ve^-4.9 * e^-2
p434
tp435
assVjag028
p436
(dp437
S'part1_correct_attempt'
p438
(lp439
S'0:08:35'
p440
aV[(e^(-3.2)3.2^0/0!)+(e^(-1.7)1.7^0/0!)]/2
p441
asg9
V2015-11-02 20:49:04
p442
sS'part1_incorrect_attempt'
p443
(lp444
(S'0:00:00'
p445
V[(e^(-3.2*0)/0!)+(e^(-1.7*0)/0!)]/2
p446
tp447
assVc1sorian
p448
(dp449
S'part1_correct_attempt'
p450
(lp451
S'0:03:05'
p452
aV.5((e^-4.7)+(e^-2.2))
p453
asg9
V2015-11-04 22:23:18
p454
sS'part1_incorrect_attempt'
p455
(lp456
(S'0:00:00'
p457
V.5((1-(1/2.2))+(1-(1/4.7)))
p458
tp459
a(S'0:00:34'
p460
V.5(((1-(1/2.2)))+((1-(1/4.7))))
p461
tp462
assVb1yao
p463
(dp464
S'part1_correct_attempt'
p465
(lp466
S'0:04:08'
p467
aV(e^-1.2+e^-2.3)/2
p468
asg9
V2015-11-03 06:26:38
p469
sS'part1_incorrect_attempt'
p470
(lp471
(S'0:00:00'
p472
V1.75
p473
tp474
assVkthui
p475
(dp476
S'part1_correct_attempt'
p477
(lp478
S'0:20:00'
p479
aV(e^(-2)*(2^0/0!)+e^(-2.9)*(2.9^0/0!))/2
p480
asg9
V2015-11-05 03:23:47
p481
sS'part1_incorrect_attempt'
p482
(lp483
(S'0:00:00'
p484
V((2+2.9)/2)e^(-((2+2.9)/2)*1)
p485
tp486
a(S'0:02:25'
p487
V1-(((2+2.9)/2)e^(-((2+2.9)/2)*1))
p488
tp489
a(S'0:05:54'
p490
V1-(e^(-2.45)(2.45))
p491
tp492
a(S'0:06:07'
p493
V(e^(-2.45)(2.45))
p494
tp495
assVbeyounge
p496
(dp497
S'part1_correct_attempt'
p498
(lp499
S'18:22:27'
p500
aV1/10
p501
asg9
V2015-10-30 05:04:31
p502
sS'part1_incorrect_attempt'
p503
(lp504
(S'0:00:00'
p505
V10/27
p506
tp507
a(S'18:16:35'
p508
V1 - (e ^ (-2.7 * 0.1))
p509
tp510
a(S'18:18:02'
p511
Ve ^ (-2.7)
p512
tp513
a(S'18:20:30'
p514
V1 / (2.7)
p515
tp516
a(S'18:22:21'
p517
V1/9
p518
tp519
assVthwan
p520
(dp521
S'part1_correct_attempt'
p522
(lp523
S'0:05:51'
p524
aV(e^(-2.9)+e^(-1.6))/2
p525
asg9
V2015-11-06 18:44:19
p526
sS'part1_incorrect_attempt'
p527
(lp528
(S'0:00:00'
p529
Ve^(-2.9)+e^(-1.6)
p530
tp531
assVlcardoso
p532
(dp533
S'part1_correct_attempt'
p534
(lp535
S'0:01:38'
p536
aV(e^(-3.8)+e^(-3.1))/2
p537
asg9
V2015-11-06 18:24:15
p538
sS'part1_incorrect_attempt'
p539
(lp540
(S'0:00:00'
p541
V(1/2)*(3.8)+(1/2)*(3.1)
p542
tp543
assVjel075
p544
(dp545
S'part1_correct_attempt'
p546
(lp547
S'0:55:29'
p548
aV0.5(e^-3.7+e^-1.3)
p549
asg9
V2015-11-04 23:46:09
p550
sS'part1_incorrect_attempt'
p551
(lp552
(S'0:00:00'
p553
Ve^(-2.5)*((2.5)^0/0!)
p554
tp555
a(S'0:03:39'
p556
Ve^(-(1/3.7+1/1.3)/2)*(((1/3.7+1/1.3)/2)^0/0!)
p557
tp558
a(S'0:04:35'
p559
Ve^(-5/2)*((5/2)^0/0!)
p560
tp561
assVedescobe
p562
(dp563
S'part1_correct_attempt'
p564
(lp565
S'0:05:28'
p566
aV.5*(e^(-1.7)+e^(-3.9))
p567
asg9
V2015-11-01 05:38:50
p568
sS'part1_incorrect_attempt'
p569
(lp570
(S'0:00:00'
p571
Ve^-1.7+e^-3.9
p572
tp573
a(S'0:02:46'
p574
V1.7*.5+3.9*.5
p575
tp576
a(S'0:03:26'
p577
Ve^(-2.8)
p578
tp579
assVw4shin
p580
(dp581
S'part1_correct_attempt'
p582
(lp583
S'0:15:04'
p584
aV0.5*(e^(-5)+e^(-1.2))
p585
asg9
V2015-11-06 21:27:13
p586
sS'part1_incorrect_attempt'
p587
(lp588
(S'0:00:00'
p589
V(1/2)*(5+1.2)
p590
tp591
a(S'0:00:00'
p592
Ve^(-5)+e^(-1.2)
p593
tp594
a(S'0:00:32'
p595
Ve^(-5)*e^(-1.2)
p596
tp597
a(S'0:03:22'
p598
V0.5*e^(-5)*e^(-1.2)
p599
tp600
assVetemlock
p601
(dp602
S'part1_correct_attempt'
p603
(lp604
S'0:03:24'
p605
aV0.5(e^-3.7)+0.5(e^-1.1)
p606
asg9
V2015-11-03 21:10:19
p607
sS'part1_incorrect_attempt'
p608
(lp609
(S'0:00:00'
p610
V(e^-3.7)(e^-1.1)
p611
tp612
a(S'0:00:23'
p613
V(e^-(1/3.7))(e^-(1/1.1))
p614
tp615
a(S'0:02:51'
p616
V(e^-3.7)(e^-1.1)
p617
tp618
a(S'0:03:14'
p619
V(e^-3.7)+(e^-1.1)
p620
tp621
assVggaddi
p622
(dp623
S'part1_correct_attempt'
p624
(lp625
S'3 days, 22:07:18'
p626
aVe^(-3.7)/2+e^(-4.6)/2
p627
asg9
V2015-11-01 19:40:17
p628
sS'part1_incorrect_attempt'
p629
(lp630
(S'0:00:00'
p631
Ve^(-1/2)
p632
tp633
a(S'0:07:00'
p634
V0.5*3.7+0.5*4.6/100
p635
tp636
a(S'0:07:09'
p637
V(0.5*3.7+0.5*4.6)/100
p638
tp639
a(S'0:07:30'
p640
V1-(0.5*3.7+0.5*4.6)/100
p641
tp642
a(S'0:00:00'
p643
V(0.5*3.7+0.5*4.6)/100
p644
tp645
a(S'0:00:00'
p646
Ve^(-1/3.7)*0.5+e^(-1/4.6)*0.5
p647
tp648
a(S'0:01:03'
p649
Ve^(-1/3.7)+e^(-1/4.6)
p650
tp651
a(S'0:01:13'
p652
Ve^(-1/3.7)/2+e^(-1/4.6)/2
p653
tp654
assVv4sharma
p655
(dp656
S'part1_correct_attempt'
p657
(lp658
S'0:00:18'
p659
aV((e^-1.7) + (e^-3))/2
p660
asg9
V2015-10-31 22:27:50
p661
sS'part1_incorrect_attempt'
p662
(lp663
(S'0:00:00'
p664
V(e^-1.7) + (e^-3)
p665
tp666
assVyil035
p667
(dp668
S'part1_correct_attempt'
p669
(lp670
S'0:49:22'
p671
aV(e^(-4.2)+e^(-1.9))/2
p672
asg9
V2015-11-04 19:01:15
p673
sS'part1_incorrect_attempt'
p674
(lp675
(S'0:00:00'
p676
V493/798
p677
tp678
a(S'0:00:43'
p679
V41/61
p680
tp681
a(S'0:00:00'
p682
Ve^(-3.05)
p683
tp684
a(S'0:00:00'
p685
Ve^(-3.7)
p686
tp687
a(S'0:00:09'
p688
Ve^(-3.1)
p689
tp690
a(S'0:06:33'
p691
Ve^(-3)
p692
tp693
assVsghouse
p694
(dp695
S'part1_correct_attempt'
p696
(lp697
S'3 days, 6:59:28'
p698
aVe^(-1/3.9)*e^(-1/1.1)*.5
p699
asg9
V2015-11-02 19:37:52
p700
sS'part1_incorrect_attempt'
p701
(lp702
(S'0:00:00'
p703
V1.95
p704
tp705
a(S'0:00:00'
p706
V1-[1/3.9 * (1/1.1) * .5]
p707
tp708
a(S'0:00:21'
p709
V1-[1/3.9 * (1/1.1)]
p710
tp711
a(S'0:00:52'
p712
V1-[1/3.9 *.5+ (1/1.1) *.5]
p713
tp714
a(S'0:00:00'
p715
V2.2e^-2.2
p716
tp717
a(S'0:00:00'
p718
Ve^(-3.9)+e^(-1.1)
p719
tp720
a(S'0:00:09'
p721
V[e^(-3.9)+e^(-1.1)]*.5
p722
tp723
a(S'0:00:20'
p724
V[e^(-1/3.9)+e^(-1/1.1)]*.5
p725
tp726
a(S'0:00:42'
p727
Ve^(-1/3.9)+e^(-1/1.1)
p728
tp729
a(S'0:01:02'
p730
Ve^(-1/3.9)*e^(-1/1.1)
p731
tp732
assVjyc018
p733
(dp734
S'part1_correct_attempt'
p735
(lp736
S'0:04:26'
p737
aV0.5*e^-3.7 + 0.5*e^-2.3
p738
asg9
V2015-11-01 00:56:21
p739
sS'part1_incorrect_attempt'
p740
(lp741
(S'0:00:00'
p742
V3*e^-3
p743
tp744
assVjix029
p745
(dp746
S'part1_correct_attempt'
p747
(lp748
S'0:03:00'
p749
aV(e^-3.4+e^-1.4)/2
p750
asg9
V2015-11-01 07:24:09
p751
sS'part1_incorrect_attempt'
p752
(lp753
(S'0:00:00'
p754
V.09
p755
tp756
a(S'0:00:11'
p757
V.0907
p758
tp759
a(S'0:00:25'
p760
Ve^-2.4
p761
tp762
a(S'0:02:44'
p763
Ve^-3.4+e^-1.4
p764
tp765
assVglcohen
p766
(dp767
S'part1_correct_attempt'
p768
(lp769
S'0:04:56'
p770
aV(e^(-2.9))/2 + (e^(-3.4))/2
p771
asg9
V2015-11-03 16:17:55
p772
sS'part1_incorrect_attempt'
p773
(lp774
(S'0:00:00'
p775
Ve^(-2.9) * e^(-3.4)
p776
tp777
assVawollner
p778
(dp779
S'part1_correct_attempt'
p780
(lp781
S'0:07:28'
p782
aV(e^-1.3+e^-4.9)/2
p783
asg9
V2015-11-06 22:15:49
p784
sS'part1_incorrect_attempt'
p785
(lp786
(S'0:00:00'
p787
Ve^-1.3*e^-4.9
p788
tp789
a(S'0:02:22'
p790
Ve^-(1.3*4.9)
p791
tp792
a(S'0:03:11'
p793
Ve^-(1.3+4.9)
p794
tp795
a(S'0:05:15'
p796
Ve^-(1.3*4.9/2)
p797
tp798
a(S'0:05:32'
p799
Ve^-((1.3+4.9)/2)
p800
tp801
a(S'0:07:17'
p802
Ve^-1.3*e^-4.9/2
p803
tp804
assVdcrume
p805
(dp806
S'part1_correct_attempt'
p807
(lp808
S'0:04:54'
p809
aV.5(e^(-1.5) + e^(-4.6))
p810
asg9
V2015-11-06 17:27:44
p811
sS'part1_incorrect_attempt'
p812
(lp813
(S'0:00:00'
p814
V1.5*.5 + 4.6*.5
p815
tp816
a(S'0:02:47'
p817
Ve^(-1.5)*e^(-4.6)
p818
tp819
a(S'0:02:56'
p820
Ve^(-1.5) + e^(-4.6)
p821
tp822
assVjcj006
p823
(dp824
S'part1_correct_attempt'
p825
(lp826
S'1 day, 1:26:50'
p827
aV.5*(e^-3.4+e^-4.9)
p828
asg9
V2015-11-03 02:57:43
p829
sS'part1_incorrect_attempt'
p830
(lp831
(S'0:00:00'
p832
V.5/3.5+.5/4.9
p833
tp834
a(S'0:02:06'
p835
V.5*3.5+.5*4.9
p836
tp837
a(S'0:00:00'
p838
V.5*((1-1/3.4)+(1-1/4.9))
p839
tp840
a(S'0:00:39'
p841
V.5*((1-1/3.4)+(1-3.4/4.9))
p842
tp843
a(S'0:06:57'
p844
V.5
p845
tp846
assVmbl003
p847
(dp848
S'part1_correct_attempt'
p849
(lp850
S'0:03:16'
p851
aV((e^(-3.4) * (((3.4)^0)/0!))+(e^(-4.8) * (((4.8)^0)/0!)))/2
p852
asg9
V2015-11-05 20:23:40
p853
sS'part1_incorrect_attempt'
p854
(lp855
(S'0:00:00'
p856
V(e^(1/3.4) * (((-1/3.4)^0)/0!))*(e^(1/4.8) * (((-1/4.8)^0)/0!))
p857
tp858
a(S'0:00:00'
p859
V(e^(-1/3.4) * (((1/3.4)^0)/0!))*(e^(-1/4.8) * (((1/4.8)^0)/0!))
p860
tp861
a(S'0:00:24'
p862
V1-(e^(-1/3.4) * (((1/3.4)^0)/0!))*(e^(-1/4.8) * (((1/4.8)^0)/0!))
p863
tp864
a(S'0:01:47'
p865
V(e^(-1/3.4) * (((1/3.4)^0)/0!))+(e^(-1/4.8) * (((1/4.8)^0)/0!))
p866
tp867
assVksmurlo
p868
(dp869
S'part1_correct_attempt'
p870
(lp871
S'0:04:13'
p872
aV(.5*e^-1.3)+(.5*e^-4.5)
p873
asg9
V2015-11-05 05:35:24
p874
sS'part1_incorrect_attempt'
p875
(lp876
(S'0:00:00'
p877
V(e^-1.3)+(e^-4.5)
p878
tp879
assVttimmons
p880
(dp881
S'part1_correct_attempt'
p882
(lp883
S'1 day, 21:47:41'
p884
aV0.5*e^(-1/3.9)-0.5e^(-1/1.1)
p885
asg9
V2015-11-03 19:45:48
p886
sS'part1_incorrect_attempt'
p887
(lp888
(S'0:00:00'
p889
V(1-0.5)^(1.1*3.9 - 1)*0.5
p890
tp891
a(S'0:00:30'
p892
V0.5(1.1)*0.5(3.9)
p893
tp894
a(S'0:00:58'
p895
Ve^0.5(1.1)*0.5(3.9)
p896
tp897
a(S'0:01:04'
p898
Ve^[0.5(1.1)*0.5(3.9)]
p899
tp900
a(S'0:00:00'
p901
V1-(0.5*(1/3.9)*(1/1.1))
p902
tp903
a(S'0:04:02'
p904
V1-(C(3.9,1.1)*(0.5)^(1.1)*(1-0.5)^(3.9-1.1))
p905
tp906
a(S'0:04:08'
p907
V1-((0.5)^(1.1)*(1-0.5)^(3.9-1.1))
p908
tp909
a(S'0:04:13'
p910
V((0.5)^(1.1)*(1-0.5)^(3.9-1.1))
p911
tp912
a(S'0:00:00'
p913
Ve^(-3.9)*e^(-1.1)
p914
tp915
a(S'0:00:17'
p916
Ve^(-1/3.9)*e^(-1/1.1)
p917
tp918
a(S'0:00:40'
p919
V0.25*e^(-1/3.9)*e^(-1/1.1)
p920
tp921
assVjnatale
p922
(dp923
S'part1_correct_attempt'
p924
(lp925
S'0:02:20'
p926
aV(e^(-5) + e^(-2.1))/2
p927
asg9
V2015-11-04 07:30:09
p928
sS'part1_incorrect_attempt'
p929
(lp930
(S'0:00:00'
p931
V(1/5)(1/2.1)
p932
tp933
a(S'0:00:40'
p934
V1-((1/5)(1/2.1))
p935
tp936
a(S'0:02:12'
p937
Ve^(-5) + e^(-2.1)
p938
tp939
assVjblynch
p940
(dp941
S'part1_correct_attempt'
p942
(lp943
S'12:58:07'
p944
aV((e^(-1.8)*1.8^0)/(0!) + (e^(-4.4)*4.4^0)/(0!))/2
p945
asg9
V2015-11-04 07:33:24
p946
sS'part1_incorrect_attempt'
p947
(lp948
(S'0:00:00'
p949
V(e^(-3.1)*3.1^0)/(0!)
p950
tp951
assVganajera
p952
(dp953
S'part1_correct_attempt'
p954
(lp955
S'0:07:55'
p956
aV(e^(-2.7)+e^(-1.7))*1/2
p957
asg9
V2015-11-04 00:38:10
p958
sS'part1_incorrect_attempt'
p959
(lp960
(S'0:00:00'
p961
Ve^(-2.25)
p962
tp963
a(S'0:00:09'
p964
Ve^(-2.25)*100
p965
tp966
a(S'0:00:33'
p967
Ve^(-2.2)
p968
tp969
a(S'0:01:13'
p970
Ve^(-2.2)*100
p971
tp972
a(S'0:02:44'
p973
Ve^(-2.2)
p974
tp975
a(S'0:05:24'
p976
Ve^(2.7)+e^(1.7)
p977
tp978
a(S'0:05:33'
p979
Ve^(-2.7)+e^(-1.7)
p980
tp981
assVnnh002
p982
(dp983
S'part1_correct_attempt'
p984
(lp985
S'21:04:03'
p986
aV(e^-3.6*(1/2) + 0.5e^-4.4)
p987
asg9
V2015-11-05 05:18:22
p988
sS'part1_incorrect_attempt'
p989
(lp990
(S'0:00:00'
p991
Ve^-8*(8^0/8!)
p992
tp993
a(S'0:00:13'
p994
Ve^-8*(8^0/0!)
p995
tp996
a(S'0:00:00'
p997
V(e^-3.6*(1) + e^4.4)
p998
tp999
assVsyc078
p1000
(dp1001
S'part1_correct_attempt'
p1002
(lp1003
S'0:00:39'
p1004
aV(e^-3)/2+(e^-1.9)/2
p1005
asg9
V2015-11-05 03:43:46
p1006
sS'part1_incorrect_attempt'
p1007
(lp1008
(S'0:00:00'
p1009
V(e^-3)(e^-1.9)
p1010
tp1011
a(S'0:00:07'
p1012
V(e^-3)+(e^-1.9)
p1013
tp1014
assVkew017
p1015
(dp1016
S'part1_correct_attempt'
p1017
(lp1018
S'1:52:08'
p1019
aV((e^-4.3)+(e^-1.4))/2
p1020
asg9
V2015-11-05 18:58:55
p1021
sS'part1_incorrect_attempt'
p1022
(lp1023
(S'0:00:00'
p1024
V(e^-2.85)(2.85)
p1025
tp1026
assVq3wen
p1027
(dp1028
S'part1_correct_attempt'
p1029
(lp1030
S'0:19:46'
p1031
aV(e^(-4.7)+e^(-1.1))/2
p1032
asg9
V2015-11-04 19:31:29
p1033
sS'part1_incorrect_attempt'
p1034
(lp1035
(S'0:00:00'
p1036
V0.80657
p1037
tp1038
a(S'0:00:29'
p1039
V0.19342
p1040
tp1041
a(S'0:01:50'
p1042
V0.07157
p1043
tp1044
a(S'0:02:23'
p1045
V0.87814
p1046
tp1047
a(S'0:00:00'
p1048
V0.055
p1049
tp1050
a(S'0:01:18'
p1051
Ve^(-2.9)
p1052
tp1053
assVtdurrer
p1054
(dp1055
S'part1_correct_attempt'
p1056
(lp1057
S'7:02:14'
p1058
aV(1/2)(e^(-2.7)+e^(-1.3))
p1059
asg9
V2015-11-05 00:03:03
p1060
sS'part1_incorrect_attempt'
p1061
(lp1062
(S'0:00:00'
p1063
Ve^-2
p1064
tp1065
a(S'0:00:00'
p1066
Ve^(-1/2.7)+e^(-1/1.3)
p1067
tp1068
a(S'0:02:46'
p1069
Ve^(-1/5.4)+e^(-1/2.6)
p1070
tp1071
a(S'0:06:03'
p1072
V(e^(2.7/2)+e^(1.3/2))
p1073
tp1074
a(S'0:06:14'
p1075
V(e^(2.7/2))(e^(1.3/2))
p1076
tp1077
assVazkong
p1078
(dp1079
S'part1_correct_attempt'
p1080
(lp1081
S'9:01:45'
p1082
aV1/2[e^(-2.3)+e^(-2.8)]
p1083
asg9
V2015-11-06 09:24:09
p1084
sS'part1_incorrect_attempt'
p1085
(lp1086
(S'0:00:00'
p1087
Ve^(-2.3)(2.3)
p1088
tp1089
assVyhhan
p1090
(dp1091
S'part1_correct_attempt'
p1092
(lp1093
S'0:00:07'
p1094
aV.2117
p1095
asg9
V2015-11-06 23:31:29
p1096
sS'part1_incorrect_attempt'
p1097
(lp1098
(S'0:00:00'
p1099
V.2
p1100
tp1101
assVcprafull
p1102
(dp1103
S'part1_correct_attempt'
p1104
(lp1105
S'0:13:00'
p1106
aV(((e^-1.2)/0!)+((e^-1.8)/0!))/2
p1107
asg9
V2015-11-04 02:36:49
p1108
sS'part1_incorrect_attempt'
p1109
(lp1110
(S'0:00:00'
p1111
V(1.2*.5)*(1.8*.5)
p1112
tp1113
assVdlgoldbe
p1114
(dp1115
S'part1_correct_attempt'
p1116
(lp1117
S'1 day, 22:18:30'
p1118
aV(0.5*(e^(-1.6))*(((1.6)^0)/0!))+(0.5*(e^(-1.1))*(((1.1)^0)/0!))
p1119
asg9
V2015-11-05 02:30:28
p1120
sS'part1_incorrect_attempt'
p1121
(lp1122
(S'0:00:00'
p1123
V((0.5)*(1/1.6))+((0.5)*(1/1.1))
p1124
tp1125
a(S'0:00:00'
p1126
V(0.5*(e^(-1/1.6))*(1/1.6))+(0.5*(e^(-1/1.1))*(1/1.1))
p1127
tp1128
a(S'0:02:22'
p1129
V(0.5*(e^(-1/1.6))*(1/1.6))*(0.5*(e^(-1/1.1))*(1/1.1))
p1130
tp1131
a(S'0:02:40'
p1132
V(0.5*(e^(-1/1.6))*(1/1.6))+(0.5*(e^(-1/1.1))*(1/1.1))
p1133
tp1134
a(S'0:03:32'
p1135
V(0.5*(e^(-1/1.6))*((1/1.6)^0))+(0.5*(e^(-1/1.1))*((1/1.1)^0))
p1136
tp1137
a(S'0:04:03'
p1138
V(0.5*(e^(-1/1.6))*(((1/1.6)^0)/0!))+(0.5*(e^(-1/1.1))*(((1/1.1)^0)/0!))
p1139
tp1140
a(S'0:38:14'
p1141
V(0.5*(e^(-1/3.9))*(((1/3.9)^0)/0!))+(0.5*(e^(-1/1.1))*(((1/1.1)^0)/0!))
p1142
tp1143
a(S'0:38:27'
p1144
V(0.5*(e^(-1/1.6))*(((1/1.6)^0)/0!))+(0.5*(e^(-1/1.1))*(((1/1.1)^0)/0!))
p1145
tp1146
assVt2shin
p1147
(dp1148
S'part1_correct_attempt'
p1149
(lp1150
S'0:06:43'
p1151
aV(1/2)e^-1.8+(1/2)e^-4.2
p1152
asg9
V2015-11-04 04:10:38
p1153
sS'part1_incorrect_attempt'
p1154
(lp1155
(S'0:00:00'
p1156
V1.8/4.2
p1157
tp1158
a(S'0:00:29'
p1159
V1-(1.8/4.2)
p1160
tp1161
assVfichoi
p1162
(dp1163
S'part1_correct_attempt'
p1164
(lp1165
S'5:24:11'
p1166
aV0.5(e^-1.2) + 0.5(e^-4.7)
p1167
asg9
V2015-11-03 22:22:33
p1168
sS'part1_incorrect_attempt'
p1169
(lp1170
(S'0:00:00'
p1171
V0.523
p1172
tp1173
a(S'0:21:30'
p1174
V1 - (0.5 * 1/1.2 + 0.5 * 1/4.7)
p1175
tp1176
assVrohan
p1177
(dp1178
S'part1_correct_attempt'
p1179
(lp1180
S'0:02:42'
p1181
aVe^(-3.3)*.5+e^(-1.8)*.5
p1182
asg9
V2015-11-06 22:41:25
p1183
sS'part1_incorrect_attempt'
p1184
(lp1185
(S'0:00:00'
p1186
V3.3*.5+1.8*.5
p1187
tp1188
a(S'0:01:28'
p1189
Ve^(-3.3)*e^(-1.8)
p1190
tp1191
assVspw006
p1192
(dp1193
S'part1_correct_attempt'
p1194
(lp1195
S'0:00:07'
p1196
aV(1/2)e^(-4) + (1/2)e^(-3.2)
p1197
asg9
V2015-11-04 00:32:00
p1198
sS'part1_incorrect_attempt'
p1199
(lp1200
(S'0:00:00'
p1201
V(1/2)e^(-4) * (1/2)e^(-3.2)
p1202
tp1203
assVmasaro
p1204
(dp1205
S'part1_correct_attempt'
p1206
(lp1207
S'0:37:42'
p1208
aV(1/2)(e^(-4.5)+e^(-2.1))
p1209
asg9
V2015-11-02 00:04:42
p1210
sS'part1_incorrect_attempt'
p1211
(lp1212
(S'0:00:00'
p1213
Ve^(-0.7*(0.5*4.5+0.5*2.1))
p1214
tp1215
a(S'0:07:49'
p1216
V1-e^(-0.7*(0.5*4.5+0.5*2.1))
p1217
tp1218
a(S'0:19:25'
p1219
V1-e^(-0.7*(3.3))
p1220
tp1221
a(S'0:19:29'
p1222
Ve^(-0.7*(3.3))
p1223
tp1224
a(S'0:20:06'
p1225
Ve^(3.3)
p1226
tp1227
a(S'0:20:19'
p1228
V1-[1-e^(3.3)]
p1229
tp1230
assVrwthomps
p1231
(dp1232
S'part1_correct_attempt'
p1233
(lp1234
S'0:04:17'
p1235
aV0.5 * e^(-3.3) + 0.5 * e^(-4.7)
p1236
asg9
V2015-11-06 16:41:38
p1237
sS'part1_incorrect_attempt'
p1238
(lp1239
(S'0:00:00'
p1240
Ve^(-3.3) + e^(-4.7)
p1241
tp1242
a(S'0:00:58'
p1243
Ve^(-1/3.3) + e^(-1/4.7)
p1244
tp1245
a(S'0:02:02'
p1246
V0.5(e^(-1/3.3) + e^(-1/4.7))
p1247
tp1248
assVvsosnovs
p1249
(dp1250
S'part1_correct_attempt'
p1251
(lp1252
S'1:04:18'
p1253
aV(e^(-1.3)+e^(-2.7))/2
p1254
asg9
V2015-11-05 20:39:03
p1255
sS'part1_incorrect_attempt'
p1256
(lp1257
(S'0:00:00'
p1258
Ve^(-0/1.3)+e^(1/1.3)+e^(2/2.7)
p1259
tp1260
a(S'1:04:00'
p1261
V(e^(-0/1.3)+e^(0/2.7))/2
p1262
tp1263
a(S'1:04:08'
p1264
V(e^(-0/1.3)+e^(-0/2.7))/2
p1265
tp1266
assVjdeon
p1267
(dp1268
S'part1_correct_attempt'
p1269
(lp1270
S'0:06:48'
p1271
aV.0485
p1272
asg9
V2015-11-04 22:29:03
p1273
sS'part1_incorrect_attempt'
p1274
(lp1275
(S'0:00:00'
p1276
V.0129
p1277
tp1278
a(S'0:01:13'
p1279
V.319
p1280
tp1281
a(S'0:01:28'
p1282
V.68095
p1283
tp1284
assVs2chaudh
p1285
(dp1286
S'part1_correct_attempt'
p1287
(lp1288
S'0:00:44'
p1289
aV(e^(-2.1)+e^(-3.8))/2
p1290
asg9
V2015-11-05 03:43:33
p1291
sS'part1_incorrect_attempt'
p1292
(lp1293
(S'0:00:00'
p1294
Ve^(-2.1)
p1295
tp1296
assVj6quach
p1297
(dp1298
S'part1_correct_attempt'
p1299
(lp1300
S'2:01:55'
p1301
aVe^(-4.6)*1/2 + e^(-2.6)*1/2
p1302
asg9
V2015-11-05 10:36:54
p1303
sS'part1_incorrect_attempt'
p1304
(lp1305
(S'0:00:00'
p1306
Ve^(-3.95)
p1307
tp1308
a(S'0:04:25'
p1309
V1- (e^(-1/4.6) + e^(-1/2.7))/2
p1310
tp1311
assVgsrandha
p1312
(dp1313
S'part1_correct_attempt'
p1314
(lp1315
S'0:01:31'
p1316
aV(1/e^3.3 + .202) / 2
p1317
asg9
V2015-11-05 00:37:29
p1318
sS'part1_incorrect_attempt'
p1319
(lp1320
(S'0:00:00'
p1321
V1.6*3.3
p1322
tp1323
assVbmilton
p1324
(dp1325
S'part1_correct_attempt'
p1326
(lp1327
S'0:00:50'
p1328
aV.5 * e^(-4.1) + .5 * e^(-2.5)
p1329
asg9
V2015-11-06 22:26:08
p1330
sS'part1_incorrect_attempt'
p1331
(lp1332
(S'0:00:00'
p1333
Ve^(-4.1) + e^(-2.5)
p1334
tp1335
assVjhc010
p1336
(dp1337
S'part1_correct_attempt'
p1338
(lp1339
S'0:15:45'
p1340
aVe^(-4)
p1341
asg9
V2015-11-06 09:42:24
p1342
sS'part1_incorrect_attempt'
p1343
(lp1344
(S'0:00:00'
p1345
V0.2
p1346
tp1347
a(S'0:02:00'
p1348
V.25
p1349
tp1350
a(S'0:02:06'
p1351
V.125
p1352
tp1353
a(S'0:14:33'
p1354
V.25
p1355
tp1356
assVcfgutier
p1357
(dp1358
S'part1_correct_attempt'
p1359
(lp1360
S'0:04:53'
p1361
aV(.332871*.5) + (.5*.0183156)
p1362
asg9
V2015-11-06 00:29:30
p1363
sS'part1_incorrect_attempt'
p1364
(lp1365
(S'0:00:00'
p1366
V.31697
p1367
tp1368
a(S'0:02:45'
p1369
V.3170
p1370
tp1371
a(S'0:03:26'
p1372
V.3512
p1373
tp1374
a(S'0:03:34'
p1375
V.35119
p1376
tp1377
a(S'0:03:58'
p1378
V.332871 * .0183156
p1379
tp1380
assVtwsalim
p1381
(dp1382
S'part1_correct_attempt'
p1383
(lp1384
S'0:10:28'
p1385
aV0.5*(e^-4 + e^-2.1)
p1386
asg9
V2015-11-04 01:35:04
p1387
sS'part1_incorrect_attempt'
p1388
(lp1389
(S'0:00:00'
p1390
Ve^(-3.05)
p1391
tp1392
a(S'0:00:38'
p1393
V0.04736
p1394
tp1395
assVs6deng
p1396
(dp1397
S'part1_correct_attempt'
p1398
(lp1399
S'0:02:11'
p1400
aV(1/2)[(e^(-4.2))+(e^(-2.1))]
p1401
asg9
V2015-11-05 06:17:56
p1402
sS'part1_incorrect_attempt'
p1403
(lp1404
(S'0:00:00'
p1405
V(1/2)[(e^(4.2))+(e^(2.1))]
p1406
tp1407
assVajabasa
p1408
(dp1409
S'part1_correct_attempt'
p1410
(lp1411
S'0:01:39'
p1412
aV.0657758
p1413
asg9
V2015-11-05 08:32:50
p1414
sS'part1_incorrect_attempt'
p1415
(lp1416
(S'0:00:00'
p1417
V.0333
p1418
tp1419
a(S'0:00:31'
p1420
V.033373
p1421
tp1422
a(S'0:00:37'
p1423
V03.3373
p1424
tp1425
assVaadhakal
p1426
(dp1427
S'part1_correct_attempt'
p1428
(lp1429
S'2 days, 0:19:42'
p1430
aV((e^(-1.8) + e^(-5))/2)
p1431
asg9
V2015-11-03 20:48:30
p1432
sS'part1_incorrect_attempt'
p1433
(lp1434
(S'0:00:00'
p1435
V77.23
p1436
tp1437
a(S'0:00:05'
p1438
V1/77.23
p1439
tp1440
assVacs008
p1441
(dp1442
S'part1_correct_attempt'
p1443
(lp1444
S'0:05:38'
p1445
aV1/2e^(-4.9)+1/2e^(-1.2)
p1446
asg9
V2015-11-04 04:12:46
p1447
sS'part1_incorrect_attempt'
p1448
(lp1449
(S'0:00:00'
p1450
V1/2*(1-e^(-4.9*0))
p1451
tp1452
assVhmshah
p1453
(dp1454
S'part1_correct_attempt'
p1455
(lp1456
S'0:07:48'
p1457
aV.5*((1.7^0 / (0! * e^1.7) ) + (1^0 / (0! * e^1) ))
p1458
asg9
V2015-11-05 09:14:45
p1459
sS'part1_incorrect_attempt'
p1460
(lp1461
(S'0:00:00'
p1462
V(1- (1/1.7))*.5 + (1- (1/1))*.5
p1463
tp1464
a(S'0:01:51'
p1465
V( 1.7^0 / (0! * e^1.7 )) + ( 1^0 / (0! * e^1 ))
p1466
tp1467
a(S'0:02:52'
p1468
V( 1.7^0 / (0! * e^-1.7 )) + ( 1^0 / (0! * e^-1 ))
p1469
tp1470
a(S'0:03:58'
p1471
V( (1.7^0 * e^-1.7)/ 0!) + ( (1^0 * e^-1 ) / 0!)
p1472
tp1473
a(S'0:07:17'
p1474
V(1.7^0 / (0! * e^1.7) ) + (1^0 / (0! * e^1) )
p1475
tp1476
a(S'0:07:42'
p1477
V((1.7^0 / (0! * e^1.7) ) + (1^0 / (0! * e^1) ))
p1478
tp1479
assVdtea
p1480
(dp1481
S'part1_correct_attempt'
p1482
(lp1483
S'0:02:48'
p1484
aV(e^(-1.5)+e^(-2.4))/2
p1485
asg9
V2015-11-07 00:00:32
p1486
sS'part1_incorrect_attempt'
p1487
(lp1488
(S'0:00:00'
p1489
Ve^(-(1.5+2.4)/2)*(((1.5+2.4)/2)^0/0!)
p1490
tp1491
a(S'0:01:06'
p1492
Ve^(-(1.5))*(((1.5+2.4)/2)^0/0!)
p1493
tp1494
a(S'0:02:16'
p1495
Ve^(-(1.5))
p1496
tp1497
assVlahawkin
p1498
(dp1499
S'part1_correct_attempt'
p1500
(lp1501
S'10:37:03'
p1502
aV(e^(-2.1)+e^(-4.3))/2
p1503
asg9
V2015-11-04 17:09:07
p1504
sS'part1_incorrect_attempt'
p1505
(lp1506
(S'0:00:00'
p1507
Ve^(0)
p1508
tp1509
a(S'0:01:10'
p1510
Ve^(-2.1)(1/1)
p1511
tp1512
assVahh002
p1513
(dp1514
S'part1_correct_attempt'
p1515
(lp1516
S'0:02:03'
p1517
aV(((e^(-3.1))3.1^0 / 0!) + ((e^(-1.3))1.3^0 / 0!))/2
p1518
asg9
V2015-11-04 11:23:15
p1519
sS'part1_incorrect_attempt'
p1520
(lp1521
(S'0:00:00'
p1522
V(((e^(3.1))3.1^0 / 0!)/2) * (((e^(1.3))1.3^0 / 0!)/2)
p1523
tp1524
assVyig015
p1525
(dp1526
S'part1_correct_attempt'
p1527
(lp1528
S'0:00:59'
p1529
aV0.5*e^(-4.9)+0.5*e^(-1.5)
p1530
asg9
V2015-11-05 09:59:45
p1531
sS'part1_incorrect_attempt'
p1532
(lp1533
(S'0:00:00'
p1534
V0.1765564976
p1535
tp1536
assVvasharma
p1537
(dp1538
S'part1_correct_attempt'
p1539
(lp1540
S'0:03:11'
p1541
aV(e^(-1.4)+e^(-3.4))/2
p1542
asg9
V2015-11-04 18:32:48
p1543
sS'part1_incorrect_attempt'
p1544
(lp1545
(S'0:00:00'
p1546
V.5*1.4+.5*3.4
p1547
tp1548
assVkgrozav
p1549
(dp1550
S'part1_correct_attempt'
p1551
(lp1552
S'0:21:57'
p1553
aV0.2381671339
p1554
asg9
V2015-11-05 05:25:05
p1555
sS'part1_incorrect_attempt'
p1556
(lp1557
(S'0:00:00'
p1558
V1/2.3
p1559
tp1560
a(S'0:03:56'
p1561
V0.2814806
p1562
tp1563
a(S'0:05:01'
p1564
V0.1035509278
p1565
tp1566
a(S'0:00:00'
p1567
V0.0368831674
p1568
tp1569
a(S'0:02:08'
p1570
V0.018441
p1571
tp1572
a(S'0:02:16'
p1573
V0.0184415837
p1574
tp1575
assVxweng
p1576
(dp1577
S'part1_correct_attempt'
p1578
(lp1579
S'0:08:25'
p1580
aV1/2(e^(-1.3)*1.3^0/0!+e^(-3.5)*3.5^0/0!)
p1581
asg9
V2015-11-05 23:13:22
p1582
sS'part1_incorrect_attempt'
p1583
(lp1584
(S'0:00:00'
p1585
Ve^-2*2.4^2/2!
p1586
tp1587
a(S'0:04:07'
p1588
Ve^-1*2.4^1/1!*(1/2)
p1589
tp1590
a(S'0:04:38'
p1591
Ve^-1*1.3^1/1!*(1/2)+(e^-1*3.5^1/1!*(1/2))
p1592
tp1593
a(S'0:05:07'
p1594
Ve^-2*2.4^2/2!
p1595
tp1596
a(S'0:05:12'
p1597
V1-e^-2*2.4^2/2!
p1598
tp1599
a(S'0:06:22'
p1600
Ve^-0*2.4^0/0!
p1601
tp1602
a(S'0:06:32'
p1603
Ve^-2.4*2.4^0/0!
p1604
tp1605
a(S'0:06:37'
p1606
V1-e^-2.4*2.4^0/0!
p1607
tp1608
a(S'0:07:25'
p1609
Ve^-1/3*1.3^0/0!
p1610
tp1611
a(S'0:07:34'
p1612
Ve^(-1/3)*1.3^0/0!
p1613
tp1614
assVjmiclat
p1615
(dp1616
S'part1_correct_attempt'
p1617
(lp1618
S'0:03:50'
p1619
aV[e^-(2.5)]*0.5+[e^-(3.8)]*0.5
p1620
asg9
V2015-11-06 08:29:38
p1621
sS'part1_incorrect_attempt'
p1622
(lp1623
(S'0:00:00'
p1624
V[e^-(1/2.5)]0.5+[e^-(1/3.8)]*0.5
p1625
tp1626
a(S'0:00:19'
p1627
V[e^-(1/2.5)]+[e^-(1/3.8)]
p1628
tp1629
a(S'0:01:46'
p1630
V[e^-(1/2.5)]*0.5+[e^-(1/3.8)]*0.5
p1631
tp1632
a(S'0:03:13'
p1633
V[e^-(1/3.9)]*0.5+[e^-(1/1.1)]*0.5
p1634
tp1635
assVmtrafeca
p1636
(dp1637
S'part1_correct_attempt'
p1638
(lp1639
S'0:24:52'
p1640
aV((1/e^4.8)+(1/e^1))/2
p1641
asg9
V2015-11-01 23:11:50
p1642
sS'part1_incorrect_attempt'
p1643
(lp1644
(S'0:00:00'
p1645
V(e^(-4.8)*e)
p1646
tp1647
a(S'0:00:34'
p1648
V(e^(-4.8))
p1649
tp1650
a(S'0:00:47'
p1651
V(e^(-4.8))+(e)
p1652
tp1653
a(S'0:00:59'
p1654
V(e^(-4.8))*(e)
p1655
tp1656
a(S'0:24:19'
p1657
V((1/e^4.8)*(1/e^1))
p1658
tp1659
a(S'0:24:46'
p1660
V((1/e^4.8)+(1/e^1))
p1661
tp1662
assVmjethani
p1663
(dp1664
S'part1_correct_attempt'
p1665
(lp1666
S'0:02:09'
p1667
aV0.5(e^-1.1 + e^-5)
p1668
asg9
V2015-11-06 18:02:41
p1669
sS'part1_incorrect_attempt'
p1670
(lp1671
(S'0:00:00'
p1672
V1-(1-e^(-1.1*5))
p1673
tp1674
a(S'0:00:28'
p1675
Ve^(-1.1*5)
p1676
tp1677
a(S'0:00:51'
p1678
V1-(e^(-1.1*5))
p1679
tp1680
assVkosung
p1681
(dp1682
S'part1_correct_attempt'
p1683
(lp1684
S'0:01:33'
p1685
aV0.1864/2
p1686
asg9
V2015-11-05 07:17:56
p1687
sS'part1_incorrect_attempt'
p1688
(lp1689
(S'0:00:00'
p1690
V33.79
p1691
tp1692
a(S'0:00:27'
p1693
V0.1864
p1694
tp1695
asss.