(dp0
V1
p1
ccollections
defaultdict
p2
(c__builtin__
list
p3
tp4
Rp5
S'Digits'
p6
(lp7
(V(e^-1.8+e^-3.6)/2
p8
V0
p9
tp10
a(V(e^-1.7+e^-3.9)/2
p11
V0
p12
tp13
a(V(e^-2.6+e^-1.8)/2
p14
V0
p15
tp16
a(V(e^-3.7+e^-1.1)/2
p17
V0
p18
tp19
a(V(e^-4.5+e^-2.4)/2
p20
V0
p21
tp22
a(V(e^-2.9+e^-3.4)/2
p23
V0
p24
tp25
a(V(e^-4.2+e^-1.5)/2
p26
V0
p27
tp28
a(g26
V1
p29
tp30
a(V(e^-3.9+e^-4.6)/2
p31
V0
p32
tp33
a(V(e^-3+e^-4.3)/2
p34
V0
p35
tp36
a(V(e^-1.2+e^-4.7)/2
p37
V0
p38
tp39
a(V(e^-5+e^-2.1)/2
p40
V0
p41
tp42
a(V(e^-2.1+e^-4.3)/2
p43
V1
p44
tp45
a(V(e^-4.1+e^-2.5)/2
p46
V0
p47
tp48
a(V(e^-4.8+e^-1.2)/2
p49
V0
p50
tp51
a(V(e^-2.6+e^-2.1)/2
p52
V0
p53
tp54
a(V(e^-2.8+e^-4.3)/2
p55
V0
p56
tp57
a(g55
V1
p58
tp59
a(V(e^-4.2+e^-2.1)/2
p60
V0
p61
tp62
a(V(e^-1.7+e^-2.3)/2
p63
V0
p64
tp65
a(V(e^-3.6+e^-4.9)/2
p66
V0
p67
tp68
a(g66
V1
p69
tp70
a(V(e^-2.2+e^-4.4)/2
p71
V0
p72
tp73
a(V(e^-3.4+e^-4.6)/2
p74
V0
p75
tp76
a(g74
V0
p77
tp78
a(V(e^-3.8+e^-1.3)/2
p79
V0
p80
tp81
a(V(e^-4.2+e^-1.4)/2
p82
V0
p83
tp84
a(V(e^-1.1+e^-2.4)/2
p85
V7
p86
tp87
a(V(e^-1.6+e^-1.1)/2
p88
V0
p89
tp90
asS"['R.0.0']"
p91
(lp92
(V(e^-4.8+e^-3.1)/2
p93
V(1/(e**4.8)+1/(e**31))(1/2)
p94
(lp95
(S'R.0.0'
p96
F0.008229747026626471
Ve^-4.8
p97
V1/(e**4.8)
p98
tp99
aVtcuddy
p100
(lp101
(V$b
p102
V3.1
p103
tp104
a(V$ans
p105
V0
p106
tp107
a(V$a
p108
V4.8
p109
tp110
aV2015-11-01 18:31:15
p111
tp112
a(g23
V((e^(-2.9))/2) * ((e^(-3.4))/2)
p113
(lp114
(S'R.0.0'
p115
F0.05502321996595081
Ve^-2.9
p116
Ve^(-2.9)
p117
tp118
aVglcohen
p119
(lp120
(V$b
p121
V3.4
p122
tp123
a(V$ans
p124
V0
p125
tp126
a(V$a
p127
V2.9
p128
tp129
aV2015-11-03 16:19:03
p130
tp131
a(V(e^-4.9+e^-1.1)/2
p132
V(e^-4.9(4.9)) +(e^-1.1(1.1))
p133
(lp134
(S'R.0.0'
p135
F0.0074465830502396715
Ve^-4.9
p136
Ve^-4.9
p137
tp138
aVc3chung
p139
(lp140
(V$b
p141
V1.1
p142
tp143
a(V$ans
p144
V0
p145
tp146
a(V$a
p147
V4.9
p148
tp149
aV2015-11-05 12:19:49
p150
tp151
a(g132
V(e^-4.9(4.9)) /(e^-1.1(1.1))
p152
(lp153
(S'R.0.0'
p154
F0.0074465830502396715
Ve^-4.9
p155
Ve^-4.9
p156
tp157
aVc3chung
p158
g140
V2015-11-05 12:20:11
p159
tp160
a(V(e^-4.6+e^-2.7)/2
p161
Ve^(-4.6)*1/2 + e^(2.6)*1/2
p162
(lp163
(S'R.0.0'
p164
F0.010051835718421678
Ve^-4.6
p165
Ve^(-4.6)*1
p166
tp167
aVj6quach
p168
(lp169
(V$b
p170
V2.7
p171
tp172
a(V$ans
p173
V0
p174
tp175
a(V$a
p176
V4.6
p177
tp178
aV2015-11-05 12:37:40
p179
tp180
asS"['R.0.0.1.0']"
p181
(lp182
(V(e^-1.9+e^-1.4)/2
p183
V((e^-1.9)*1.9^0/0!)+((e^-1.4)*1.4^0/0!)/2
p184
(lp185
(S'R.0.0.1.0'
p186
F1.9
V1.9
p187
V1.9
p188
tp189
aVdcastlem
p190
(lp191
(V$b
p192
V1.4
p193
tp194
a(V$ans
p195
V0
p196
tp197
a(V$a
p198
V1.9
p199
tp200
aV2015-11-02 05:56:07
p201
tp202
a(V(e^-1.3+e^-3.5)/2
p203
Ve^(-1.3)*1.3^0/0!+e^(-3.5)*3.5^0/0!
p204
(lp205
(S'R.0.0.1.0'
p206
F1.3
V1.3
p207
V1.3
p208
tp209
aVxweng
p210
(lp211
(V$b
p212
V3.5
p213
tp214
a(V$ans
p215
V0
p216
tp217
a(V$a
p218
V1.3
p219
tp220
aV2015-11-05 23:21:33
p221
tp222
a(V(e^-3.8+e^-4.8)/2
p223
V[e^(-3.8)*3.8^0/0!]*[e^(-4.8)*4.8^0/0!]
p224
(lp225
(S'R.0.0.1.0'
p226
F3.8
V3.8
p227
V3.8
p228
tp229
aVk4ma
p230
(lp231
(V$b
p232
V4.8
p233
tp234
a(V$ans
p235
V0
p236
tp237
a(V$a
p238
V3.8
p239
tp240
aV2015-11-06 20:13:44
p241
tp242
asS"['R.0.0', 'R.0.1', 'R.1']"
p243
(lp244
(V(e^-4.8+e^-1)/2
p245
V(e^(-4.8))*(e^(-1))/2
p246
(lp247
(S'R.0.0'
p248
F0.008229747026626471
Ve^-4.8
p249
Ve^(-4.8)
p250
tp251
a(S'R.0.1'
p252
F0.36787944096289676
Ve^-1
p253
Ve^(-1)
p254
tp255
a(S'R.1'
p256
F2.0
V2
p257
g257
tp258
aVmtrafeca
p259
(lp260
(V$b
p261
V1
p262
tp263
a(V$ans
p264
V0
p265
tp266
a(V$a
p267
V4.8
p268
tp269
aV2015-11-01 23:30:18
p270
tp271
a(g245
V((e^(-4.8)*(4.8^0/0!)) * ((e^-1)(1^0/0!)))/2
p272
(lp273
(S'R.0.0'
p274
F0.008229747026626471
Ve^-4.8
p275
Ve^(-4.8)*(4.8^0/0!)
p276
tp277
a(S'R.0.1'
p278
F0.36787944096289676
Ve^-1
p279
V(e^-1)(1^0/0!)
p280
tp281
a(S'R.1'
p282
F2.0
g257
g257
tp283
aVmtrafeca
p284
g260
V2015-11-01 23:33:13
p285
tp286
a(g245
V((1/e^4.8)*(1/e^1))/2
p287
(lp288
(S'R.0.0'
p289
F0.008229747026626471
Ve^-4.8
p290
V1/e^4.8
p291
tp292
a(S'R.0.1'
p293
F0.36787944096289676
Ve^-1
p294
V1/e^1
p295
tp296
a(S'R.1'
p297
F2.0
g257
g257
tp298
aVmtrafeca
p299
g260
V2015-11-01 23:35:20
p300
tp301
asS"['R.1']"
p302
(lp303
(V(e^-4.4+e^-2.5)/2
p304
V(e^4.4 + e^2.5)/2
p305
(lp306
(S'R.1'
p307
F2.0
g257
g257
tp308
aVeyhu
p309
(lp310
(V$b
p311
V2.5
p312
tp313
a(V$ans
p314
V0
p315
tp316
a(V$a
p317
V4.4
p318
tp319
aV2015-10-30 08:08:15
p320
tp321
a(V(e^-3+e^-1.9)/2
p322
V(3+1.9)/2
p323
(lp324
(S'R.1'
p325
F2.0
g257
g257
tp326
aVsyc078
p327
(lp328
(V$b
p329
V1.9
p330
tp331
a(V$ans
p332
V0
p333
tp334
a(V$a
p335
V3
p336
tp337
aV2015-10-30 20:24:56
p338
tp339
a(V(e^-3.7+e^-2.3)/2
p340
V(3.7*e^-3.7 + 2.3*e^-2.3 )/2
p341
(lp342
(S'R.1'
p343
F2.0
g257
g257
tp344
aVjyc018
p345
(lp346
(V$b
p347
V2.3
p348
tp349
a(V$ans
p350
V0
p351
tp352
a(V$a
p353
V3.7
p354
tp355
aV2015-11-01 00:51:21
p356
tp357
a(V(e^-3.7+e^-4.6)/2
p358
V(0.5*3.7+0.5*4.6)/2
p359
(lp360
(S'R.1'
p361
F2.0
g257
g257
tp362
aVggaddi
p363
(lp364
(V$b
p365
V4.6
p366
tp367
a(V$ans
p368
V0
p369
tp370
a(V$a
p371
V3.7
p372
tp373
aV2015-11-01 19:48:06
p374
tp375
a(g17
V(1-e)^2
p376
(lp377
(S'R.1'
p378
F2.0
g257
g257
tp379
aVetemlock
p380
(lp381
(V$b
p382
V1.1
p383
tp384
a(V$ans
p385
V0
p386
tp387
a(V$a
p388
V3.7
p389
tp390
aV2015-11-02 04:45:11
p391
tp392
a(g183
V((1.9)+(1.4))/2
p393
(lp394
(S'R.1'
p395
F2.0
g257
g257
tp396
aVdcastlem
p397
g191
V2015-11-02 05:53:12
p398
tp399
a(V(e^-4.1+e^-3.2)/2
p400
V(e^4.1 + e^3.2)/2
p401
(lp402
(S'R.1'
p403
F2.0
g257
g257
tp404
aVjcl084
p405
(lp406
(V$b
p407
V3.2
p408
tp409
a(V$ans
p410
V0
p411
tp412
a(V$a
p413
V4.1
p414
tp415
aV2015-11-02 19:34:45
p416
tp417
a(V(e^-2.4+e^-2.9)/2
p418
V[(e^2.4)+(e^2.9)]/2
p419
(lp420
(S'R.1'
p421
F2.0
g257
g257
tp422
aVhkhodada
p423
(lp424
(V$b
p425
V2.9
p426
tp427
a(V$ans
p428
V0
p429
tp430
a(V$a
p431
V2.4
p432
tp433
aV2015-11-03 00:20:17
p434
tp435
a(V(e^-4+e^-3.1)/2
p436
V(e^4 + e^3.1)/2
p437
(lp438
(S'R.1'
p439
F2.0
g257
g257
tp440
aVbeerye28
p441
(lp442
(V$b
p443
V3.1
p444
tp445
a(V$ans
p446
V0
p447
tp448
a(V$a
p449
V4
p450
tp451
aV2015-11-03 06:11:47
p452
tp453
a(V(e^-1.4+e^-4.1)/2
p454
V(1.4+4.1)/2
p455
(lp456
(S'R.1'
p457
F2.0
g257
g257
tp458
aVkbielawi
p459
(lp460
(V$b
p461
V4.1
p462
tp463
a(V$ans
p464
V0
p465
tp466
a(V$a
p467
V1.4
p468
tp469
aV2015-11-03 20:32:12
p470
tp471
a(V(e^-1.7+e^-2.7)/2
p472
V(5.47+14.88)/2
p473
(lp474
(S'R.1'
p475
F2.0
g257
g257
tp476
aVjhw015
p477
(lp478
(V$b
p479
V2.7
p480
tp481
a(V$ans
p482
V0
p483
tp484
a(V$a
p485
V1.7
p486
tp487
aV2015-11-04 02:07:49
p488
tp489
a(g472
V(e^1.7 + e^1.7)/2
p490
(lp491
(S'R.1'
p492
F2.0
g257
g257
tp493
aVjhw015
p494
g478
V2015-11-04 02:08:15
p495
tp496
a(g472
V(e^1.7 + e^2.7)/2
p497
(lp498
(S'R.1'
p499
F2.0
g257
g257
tp500
aVjhw015
p501
g478
V2015-11-04 02:08:19
p502
tp503
a(V(e^-2.4+e^-1.4)/2
p504
V(2.4+1.4)/2
p505
(lp506
(S'R.1'
p507
F2.0
g257
g257
tp508
aVm4salaza
p509
(lp510
(V$b
p511
V1.4
p512
tp513
a(V$ans
p514
V0
p515
tp516
a(V$a
p517
V2.4
p518
tp519
aV2015-11-04 04:33:07
p520
tp521
a(g504
V(2.4+1.4)*2
p522
(lp523
(S'R.1'
p524
F2.0
g257
g257
tp525
aVm4salaza
p526
g510
V2015-11-04 04:33:14
p527
tp528
a(V(e^-1.4+e^-3.4)/2
p529
V(1.4+3.4)/2
p530
(lp531
(S'R.1'
p532
F2.0
g257
g257
tp533
aVvasharma
p534
(lp535
(V$b
p536
V3.4
p537
tp538
a(V$ans
p539
V0
p540
tp541
a(V$a
p542
V1.4
p543
tp544
aV2015-11-04 18:29:32
p545
tp546
a(g529
V(1.4+3.4)/2
p547
(lp548
(S'R.1'
p549
F2.0
g257
g257
tp550
aVvasharma
p551
g535
V2015-11-04 18:33:16
p552
tp553
a(V(e^-1.6+e^-3.3)/2
p554
V(.202 + .007) / 2
p555
(lp556
(S'R.1'
p557
F2.0
g257
g257
tp558
aVgsrandha
p559
(lp560
(V$b
p561
V3.3
p562
tp563
a(V$ans
p564
V0
p565
tp566
a(V$a
p567
V1.6
p568
tp569
aV2015-11-05 00:37:50
p570
tp571
a(g554
V(1/e^3.3 + .007) / 2
p572
(lp573
(S'R.1'
p574
F2.0
g257
g257
tp575
aVgsrandha
p576
g560
V2015-11-05 00:38:44
p577
tp578
a(V(e^-2.5+e^-3.3)/2
p579
V(e^3.3+e^2.5)/2
p580
(lp581
(S'R.1'
p582
F2.0
g257
g257
tp583
aVh4tu
p584
(lp585
(V$b
p586
V3.3
p587
tp588
a(V$ans
p589
V0
p590
tp591
a(V$a
p592
V2.5
p593
tp594
aV2015-11-05 05:04:29
p595
tp596
a(V(e^-2.7+e^-1.3)/2
p597
V(e^(-1/2.7)+e^(-1/1.3))/2
p598
(lp599
(S'R.1'
p600
F2.0
g257
g257
tp601
aVtdurrer
p602
(lp603
(V$b
p604
V1.3
p605
tp606
a(V$ans
p607
V0
p608
tp609
a(V$a
p610
V2.7
p611
tp612
aV2015-11-05 05:59:40
p613
tp614
a(g597
V(e^(2.74)+e^(1.3))/2
p615
(lp616
(S'R.1'
p617
F2.0
g257
g257
tp618
aVtdurrer
p619
g603
V2015-11-05 06:03:43
p620
tp621
a(g597
V(e^(2.7)+e^(1.3))/2
p622
(lp623
(S'R.1'
p624
F2.0
g257
g257
tp625
aVtdurrer
p626
g603
V2015-11-05 06:03:52
p627
tp628
a(V(e^-4.9+e^-2.9)/2
p629
V(e^-2.9+e^2.9)/2
p630
(lp631
(S'R.1'
p632
F2.0
g257
g257
tp633
aVnhn018
p634
(lp635
(V$b
p636
V2.9
p637
tp638
a(V$ans
p639
V0
p640
tp641
a(V$a
p642
V4.9
p643
tp644
aV2015-11-05 06:17:48
p645
tp646
a(V(e^-4.2+e^-3.2)/2
p647
V(1/[(4.2)(3.2)])*2
p648
(lp649
(S'R.1'
p650
F2.0
g257
g257
tp651
aVdgunawan
p652
(lp653
(V$b
p654
V3.2
p655
tp656
a(V$ans
p657
V0
p658
tp659
a(V$a
p660
V4.2
p661
tp662
aV2015-11-05 09:28:20
p663
tp664
a(g161
V(e^(-1/4.6) + e^(-1/2.7))/2
p665
(lp666
(S'R.1'
p667
F2.0
g257
g257
tp668
aVj6quach
p669
g169
V2015-11-05 10:41:16
p670
tp671
a(V(e^-3.4+e^-4.8)/2
p672
V(3.4+4.8)2
p673
(lp674
(S'R.1'
p675
F2.0
g257
g257
tp676
aVmbl003
p677
(lp678
(V$b
p679
V4.8
p680
tp681
a(V$ans
p682
V0
p683
tp684
a(V$a
p685
V3.4
p686
tp687
aV2015-11-05 20:16:52
p688
tp689
a(g672
V(3.4+4.8)/2
p690
(lp691
(S'R.1'
p692
F2.0
g257
g257
tp693
aVmbl003
p694
g678
V2015-11-05 20:16:57
p695
tp696
a(g672
V((e^(-1/3.4) * (((1/3.4)^0)/0!))+(e^(-1/4.8) * (((1/4.8)^0)/0!)))/2
p697
(lp698
(S'R.1'
p699
F2.0
g257
g257
tp700
aVmbl003
p701
g678
V2015-11-05 20:26:11
p702
tp703
a(V(e^-4.3+e^-5)/2
p704
V[e^(-1/4.3)*((1/4.3)^0)/0! + e^(-1/5)*(1/5)^0/0!]/2
p705
(lp706
(S'R.1'
p707
F2.0
g257
g257
tp708
aVl5han
p709
(lp710
(V$b
p711
V5
p712
tp713
a(V$ans
p714
V0
p715
tp716
a(V$a
p717
V4.3
p718
tp719
aV2015-11-06 06:43:14
p720
tp721
a(V(e^-2.5+e^-3.8)/2
p722
V(2.5+3.8)/2
p723
(lp724
(S'R.1'
p725
F2.0
g257
g257
tp726
aVjmiclat
p727
(lp728
(V$b
p729
V3.8
p730
tp731
a(V$ans
p732
V0
p733
tp734
a(V$a
p735
V2.5
p736
tp737
aV2015-11-06 08:26:02
p738
tp739
a(V(e^-3.3+e^-1.8)/2
p740
V3.3*1.8/2
p741
(lp742
(S'R.1'
p743
F2.0
g257
g257
tp744
aVrohan
p745
(lp746
(V$b
p747
V1.8
p748
tp749
a(V$ans
p750
V0
p751
tp752
a(V$a
p753
V3.3
p754
tp755
aV2015-11-06 22:40:59
p756
tp757
a(V(e^-3.8+e^-1.2)/2
p758
V((e^(3.8)+e^(1.2))/2)
p759
(lp760
(S'R.1'
p761
F2.0
g257
g257
tp762
aVagian
p763
(lp764
(V$b
p765
V1.2
p766
tp767
a(V$ans
p768
V0
p769
tp770
a(V$a
p771
V3.8
p772
tp773
aV2015-11-07 00:17:44
p774
tp775
asS"['R.0.0.1.0', 'R.0.1.1.0', 'R.1']"
p776
(lp777
(g597
V(e^(2.7/2)+e^(1.3/2))/2
p778
(lp779
(S'R.0.0.1.0'
p780
F2.7
V2.7
p781
V2.7
p782
tp783
a(S'R.0.1.1.0'
p784
F1.3
V1.3
p785
V1.3
p786
tp787
a(S'R.1'
p788
F2.0
g257
g257
tp789
aVtdurrer
p790
g603
V2015-11-05 06:04:19
p791
tp792
asS"['R.0.0', 'R.1']"
p793
(lp794
(V(e^-1.9+e^-1.3)/2
p795
V(e^(-1.9) + e^(-1.6))/2
p796
(lp797
(S'R.0.0'
p798
F0.14956861906153732
Ve^-1.9
p799
Ve^(-1.9)
p800
tp801
a(S'R.1'
p802
F2.0
g257
g257
tp803
aVrlhagen
p804
(lp805
(V$b
p806
V1.3
p807
tp808
a(V$ans
p809
V0
p810
tp811
a(V$a
p812
V1.9
p813
tp814
aV2015-10-31 16:53:52
p815
tp816
a(g245
V(e^(-4.8)*e)/2
p817
(lp818
(S'R.0.0'
p819
F0.008229747026626471
Ve^-4.8
p820
Ve^(-4.8)
p821
tp822
a(S'R.1'
p823
F2.0
g257
g257
tp824
aVmtrafeca
p825
g260
V2015-11-01 23:11:39
p826
tp827
a(g245
V(e^(-4.8)*e)*2
p828
(lp829
(S'R.0.0'
p830
F0.008229747026626471
Ve^-4.8
p831
Ve^(-4.8)
p832
tp833
a(S'R.1'
p834
F2.0
g257
g257
tp835
aVmtrafeca
p836
g260
V2015-11-01 23:11:46
p837
tp838
a(g245
V(e^(-4.8))*(e)*2
p839
(lp840
(S'R.0.0'
p841
F0.008229747026626471
Ve^-4.8
p842
Ve^(-4.8)
p843
tp844
a(S'R.1'
p845
F2.0
g257
g257
tp846
aVmtrafeca
p847
g260
V2015-11-01 23:12:58
p848
tp849
a(g245
V(e^(-4.8))*(e)/2
p850
(lp851
(S'R.0.0'
p852
F0.008229747026626471
Ve^-4.8
p853
Ve^(-4.8)
p854
tp855
a(S'R.1'
p856
F2.0
g257
g257
tp857
aVmtrafeca
p858
g260
V2015-11-01 23:13:04
p859
tp860
a(V(e^-3+e^-1.1)/2
p861
V((e^-3) + (e^1.1))/2
p862
(lp863
(S'R.0.0'
p864
F0.04978706828319323
Ve^-3
p865
Ve^-3
p866
tp867
a(S'R.1'
p868
F2.0
g257
g257
tp869
aVdjk006
p870
(lp871
(V$b
p872
V1.1
p873
tp874
a(V$ans
p875
V0
p876
tp877
a(V$a
p878
V3
p879
tp880
aV2015-11-03 21:18:46
p881
tp882
a(V(e^-3.6+e^-4.4)/2
p883
V(e^-3.6*(1) + e^4.4)/2
p884
(lp885
(S'R.0.0'
p886
F0.027323722391530633
Ve^-3.6
p887
Ve^-3.6*(1)
p888
tp889
a(S'R.1'
p890
F2.0
g257
g257
tp891
aVnnh002
p892
(lp893
(V$b
p894
V4.4
p895
tp896
a(V$ans
p897
V0
p898
tp899
a(V$a
p900
V3.6
p901
tp902
aV2015-11-05 06:08:28
p903
tp904
asS"['R.0.1.0']"
p905
(lp906
(g93
V(4.8**0)(e**(-4.8)) +3.1/(e**3.1)
p907
(lp908
(S'R.0.1.0'
p909
F2.71828183
Ve
p910
g910
tp911
aVtcuddy
p912
g101
V2015-11-01 18:25:07
p913
tp914
a(g93
V4.8/(e**4.8) +3.1/(e**3.1)
p915
(lp916
(S'R.0.1.0'
p917
F2.71828183
g910
g910
tp918
aVtcuddy
p919
g101
V2015-11-01 18:25:30
p920
tp921
a(g93
V1/(e**4.8) +1/(e**3.1)
p922
(lp923
(S'R.0.1.0'
p924
F2.71828183
g910
g910
tp925
aVtcuddy
p926
g101
V2015-11-01 18:26:02
p927
tp928
a(V(e^-3.5+e^-5)/2
p929
V1/e^3.5 + 1/e^5
p930
(lp931
(S'R.0.1.0'
p932
F2.71828183
g910
g910
tp933
aVkquong
p934
(lp935
(V$b
p936
V5
p937
tp938
a(V$ans
p939
V0
p940
tp941
a(V$a
p942
V3.5
p943
tp944
aV2015-11-01 23:54:09
p945
tp946
a(V(e^-3.8+e^-1.5)/2
p947
V3.8*e^(-3.8)+1.5*e^(-1.5)
p948
(lp949
(S'R.0.1.0'
p950
F2.71828183
g910
g910
tp951
aVhaw081
p952
(lp953
(V$b
p954
V1.5
p955
tp956
a(V$ans
p957
V0
p958
tp959
a(V$a
p960
V3.8
p961
tp962
aV2015-11-02 01:20:06
p963
tp964
a(V(e^-2.7+e^-4.9)/2
p965
V[1/2*e^2.7]+[1/2*e^4.9]
p966
(lp967
(S'R.0.1.0'
p968
F2.71828183
g910
g910
tp969
aVtol003
p970
(lp971
(V$b
p972
V4.9
p973
tp974
a(V$ans
p975
V0
p976
tp977
a(V$a
p978
V2.7
p979
tp980
aV2015-11-03 18:43:48
p981
tp982
a(V(e^-2.2+e^-2.8)/2
p983
V0.5*e^[2.2] + 0.5*e^[-2.8]
p984
(lp985
(S'R.0.1.0'
p986
F2.71828183
g910
g910
tp987
aVl8ngo
p988
(lp989
(V$b
p990
V2.8
p991
tp992
a(V$ans
p993
V0
p994
tp995
a(V$a
p996
V2.2
p997
tp998
aV2015-11-03 19:46:11
p999
tp1000
a(V(e^-3.1+e^-1.5)/2
p1001
V(.5^0 * e^(-.5))/0!
p1002
(lp1003
(S'R.0.1.0'
p1004
F2.71828183
g910
g910
tp1005
aVstarinia
p1006
(lp1007
(V$b
p1008
V1.5
p1009
tp1010
a(V$ans
p1011
V0
p1012
tp1013
a(V$a
p1014
V3.1
p1015
tp1016
aV2015-11-04 02:47:36
p1017
tp1018
a(V(e^-3.7+e^-3.2)/2
p1019
V0.5*e^(-1.7)+0.5*e^(-3.7)
p1020
(lp1021
(S'R.0.1.0'
p1022
F2.71828183
g910
g910
tp1023
aVjit002
p1024
(lp1025
(V$b
p1026
V3.2
p1027
tp1028
a(V$ans
p1029
V0
p1030
tp1031
a(V$a
p1032
V3.7
p1033
tp1034
aV2015-11-05 03:02:55
p1035
tp1036
a(V(e^-2.6+e^-2.1)/2
p1037
V2.6*.5*e**-2.6 + 2.1*.5*e**-2.1
p1038
(lp1039
(S'R.0.1.0'
p1040
F2.71828183
g910
g910
tp1041
aVjguanzho
p1042
(lp1043
(V$b
p1044
V2.1
p1045
tp1046
a(V$ans
p1047
V0
p1048
tp1049
a(V$a
p1050
V2.6
p1051
tp1052
aV2015-11-05 06:41:49
p1053
tp1054
a(V(e^-2+e^-4.7)/2
p1055
V(1 / e^2) + (1/e^4.7)
p1056
(lp1057
(S'R.0.1.0'
p1058
F2.71828183
g910
g910
tp1059
aVb3hwang
p1060
(lp1061
(V$b
p1062
V4.7
p1063
tp1064
a(V$ans
p1065
V0
p1066
tp1067
a(V$a
p1068
V2
p1069
tp1070
aV2015-11-05 09:30:41
p1071
tp1072
a(V(e^-2.2+e^-1.7)/2
p1073
V.5*e^(-3.9)+.5*e^(-1.1)
p1074
(lp1075
(S'R.0.1.0'
p1076
F2.71828183
g910
g910
tp1077
aVsghouse
p1078
(lp1079
(V$b
p1080
V1.7
p1081
tp1082
a(V$ans
p1083
V0
p1084
tp1085
a(V$a
p1086
V2.2
p1087
tp1088
aV2015-11-06 02:35:57
p1089
tp1090
a(g1073
V.5*e^(-1/3.9)+.5*e^(-1/1.1)
p1091
(lp1092
(S'R.0.1.0'
p1093
F2.71828183
g910
g910
tp1094
aVsghouse
p1095
g1079
V2015-11-06 02:36:45
p1096
tp1097
a(V(e^-3.3+e^-4.7)/2
p1098
V0.5 * e^(-1/3.3) + 0.5 * e^(-1/4.7)
p1099
(lp1100
(S'R.0.1.0'
p1101
F2.71828183
g910
g910
tp1102
aVrwthomps
p1103
(lp1104
(V$b
p1105
V4.7
p1106
tp1107
a(V$ans
p1108
V0
p1109
tp1110
a(V$a
p1111
V3.3
p1112
tp1113
aV2015-11-06 16:44:53
p1114
tp1115
a(g88
V(0.5*(e^(-1/1.6)))+(0.5*(e^(-1/1.1)))
p1116
(lp1117
(S'R.0.1.0'
p1118
F2.71828183
g910
g910
tp1119
aVdlgoldbe
p1120
(lp1121
(V$b
p1122
V1.1
p1123
tp1124
a(V$ans
p1125
V0
p1126
tp1127
a(V$a
p1128
V1.6
p1129
tp1130
aV2015-11-07 00:02:46
p1131
tp1132
asS"['R.0']"
p1133
(lp1134
(V(e^-4.7+e^-1.8)/2
p1135
V[e**(-4.7) + e**(-1.8)]/(4.7 + 1.8)
p1136
(lp1137
(S'R.0'
p1138
F0.17439416513037925
Ve^-4.7+e^-1.8
p1139
Ve**(-4.7) + e**(-1.8)
p1140
tp1141
aVkvass
p1142
(lp1143
(V$b
p1144
V1.8
p1145
tp1146
a(V$ans
p1147
V0
p1148
tp1149
a(V$a
p1150
V4.7
p1151
tp1152
aV2015-11-05 19:36:03
p1153
tp1154
asS'Wrong_Sign'
p1155
(lp1156
(V(e^-4.5+e^-2.1)/2
p1157
V1-e^(3.3)
p1158
tp1159
a(g17
V[(1-e^(-3.7))(1-e^(1.1))]
p1160
tp1161
a(g529
V(1-e^(1.4) + 1-e^(3.4))/2
p1162
tp1163
a(V(e^-4+e^-2.6)/2
p1164
V(e^(-4)*((-4^0)/(0!))+e^(-2.6)*((-2.6^0)/(0!)))/2
p1165
tp1166
a(g647
V1- (4.2 + 3.2)
p1167
tp1168
a(g1037
Ve**(-2.6-2.1)/(1-e**(-2.6-2.1))
p1169
tp1170
a(V(e^-5+e^-1.1)/2
p1171
V-e^(-1.1*5)
p1172
tp1173
a(g79
V1-[1/3.8+1/1.3]
p1174
tp1175
asS"['R.0.0.1']"
p1176
(lp1177
(V(e^-2.5+e^-1)/2
p1178
V(e^(-2.5)*(2.5^0/0!))*(e^(-1)*(1^0/0!))
p1179
(lp1180
(S'R.0.0.1'
p1181
F-2.5
V-2.5
p1182
V-2.5
p1183
tp1184
aVkrkelkar
p1185
(lp1186
(V$b
p1187
V1
p1188
tp1189
a(V$ans
p1190
V0
p1191
tp1192
a(V$a
p1193
V2.5
p1194
tp1195
aV2015-10-31 19:33:14
p1196
tp1197
a(g23
V((e^(-2.9))((2.9^0)/(0!))) * ((e^(-3.4))*((3.4^0)/(0!)))
p1198
(lp1199
(S'R.0.0.1'
p1200
F-2.9
V-2.9
p1201
V-2.9
p1202
tp1203
aVglcohen
p1204
g120
V2015-11-03 16:20:03
p1205
tp1206
a(g23
V((e^(-2.9))((2.9^0)/(0!))) +((e^(-3.4))*((3.4^0)/(0!)))
p1207
(lp1208
(S'R.0.0.1'
p1209
F-2.9
V-2.9
p1210
V-2.9
p1211
tp1212
aVglcohen
p1213
g120
V2015-11-03 16:20:31
p1214
tp1215
a(V(e^-2+e^-2.9)/2
p1216
Ve^(-2)*(2^0/0!)+e^(-2.9)*(2.9^0/0!)
p1217
(lp1218
(S'R.0.0.1'
p1219
F-2.0
V-2
p1220
V-2
p1221
tp1222
aVkthui
p1223
(lp1224
(V$b
p1225
V2.9
p1226
tp1227
a(V$ans
p1228
V0
p1229
tp1230
a(V$a
p1231
V2
p1232
tp1233
aV2015-11-05 03:42:43
p1234
tp1235
a(g203
Ve^(-1.3)*1.3^0/0!
p1236
(lp1237
(S'R.0.0.1'
p1238
F-1.3
V-1.3
p1239
V-1.3
p1240
tp1241
aVxweng
p1242
g211
V2015-11-05 23:21:12
p1243
tp1244
a(g223
V[e^(-3.8)*(3.8^0/0!)]*[e^(-4.8)*(4.8^0/0!)]
p1245
(lp1246
(S'R.0.0.1'
p1247
F-3.8
V-3.8
p1248
V-3.8
p1249
tp1250
aVk4ma
p1251
g231
V2015-11-06 20:14:07
p1252
tp1253
a(g223
V[e^(-3.8)*(3.8^0/0!)]/[e^(-4.8)*(4.8^0/0!)]
p1254
(lp1255
(S'R.0.0.1'
p1256
F-3.8
V-3.8
p1257
V-3.8
p1258
tp1259
aVk4ma
p1260
g231
V2015-11-06 20:14:31
p1261
tp1262
a(g223
V[e^(-3.8)*(3.8^0/0!)]+[e^(-4.8)*(4.8^0/0!)]
p1263
(lp1264
(S'R.0.0.1'
p1265
F-3.8
V-3.8
p1266
V-3.8
p1267
tp1268
aVk4ma
p1269
g231
V2015-11-06 20:15:37
p1270
tp1271
asS"['R.0.1', 'R.1']"
p1272
(lp1273
(g245
V(e^(-4.8)*4.8)*(e^(-1))/2
p1274
(lp1275
(S'R.0.1'
p1276
F0.36787944096289676
Ve^-1
p1277
Ve^(-1)
p1278
tp1279
a(S'R.1'
p1280
F2.0
g257
g257
tp1281
aVmtrafeca
p1282
g260
V2015-11-01 23:30:55
p1283
tp1284
a(g23
V(e^(-2.9))/2 * (e^(-3.4))/2
p1285
(lp1286
(S'R.0.1'
p1287
F0.033373269896002075
Ve^-3.4
p1288
Ve^(-3.4)
p1289
tp1290
a(S'R.1'
p1291
F2.0
g257
g257
tp1292
aVglcohen
p1293
g120
V2015-11-03 16:18:32
p1294
tp1295
a(V(e^-3.2+e^-2.2)/2
p1296
V[e^(3.2) + e^(-2.2)]/2
p1297
(lp1298
(S'R.0.1'
p1299
F0.1108031582241459
Ve^-2.2
p1300
Ve^(-2.2)
p1301
tp1302
a(S'R.1'
p1303
F2.0
g257
g257
tp1304
aVapokhare
p1305
(lp1306
(V$b
p1307
V2.2
p1308
tp1309
a(V$ans
p1310
V0
p1311
tp1312
a(V$a
p1313
V3.2
p1314
tp1315
aV2015-11-05 20:59:55
p1316
tp1317
ass.