(dp0
V1
p1
ccollections
defaultdict
p2
(c__builtin__
list
p3
tp4
Rp5
S'Digits'
p6
(lp7
(V0.1
p8
V10
p9
tp10
a(V0.1
p11
V0
p12
tp13
a(g11
V01
p14
tp15
a(g11
V10
p16
tp17
a(V0.1
p18
V1
p19
tp20
a(V0.1
p21
V10
p22
tp23
a(g21
V1
p24
tp25
a(V0.1
p26
V1
p27
tp28
a(g26
V10
p29
tp30
a(V0.1
p31
V2
p32
tp33
a(g31
V1200
p34
tp35
a(V0.1
p36
V1
p37
tp38
a(V0.1
p39
V0
p40
tp41
a(V0.1
p42
V1
p43
tp44
a(V0.1
p45
V1
p46
tp47
a(V0.1
p48
V10
p49
tp50
a(V0.1
p51
V0
p52
tp53
a(g51
V1
p54
tp55
a(V0.1
p56
V0
p57
tp58
a(V0.1
p59
V1
p60
tp61
a(V0.1
p62
V10
p63
tp64
a(V0.1
p65
V90
p66
tp67
a(g65
V900
p68
tp69
a(V0.1
p70
V1
p71
tp72
a(g70
V100
p73
tp74
a(V0.1
p75
V10
p76
tp77
assV3
p78
g2
(g3
tp79
Rp80
g6
(lp81
(Ve^-0.1*0.1^3/3!
p82
V330
p83
tp84
asS"['R.0', 'R.1.0.0.1.1']"
p85
(lp86
(Ve^-0.1*0.1^2/2!
p87
Ve^-(4005(1/900)^2(1-1/900)^88)
p88
(lp89
(S'R.0'
p90
F2.71828183
Ve
p91
g91
tp92
a(S'R.1.0.0.1.1'
p93
F2.0
V2
p94
g94
tp95
aVrohan
p96
(lp97
(V$j
p98
V2
p99
tp100
a(V$k
p101
V2
p102
tp103
a(V$a2
p104
V0
p105
tp106
a(V$a
p107
V900
p108
tp109
a(V$a1
p110
V0
p111
tp112
a(V$x
p113
V15
p114
tp115
a(V$y
p116
V6
p117
tp118
a(V$select
p119
V9
p120
tp121
a(V$r
p122
V2
p123
tp124
a(V$s
p125
V90
p126
tp127
aV2015-11-07 00:46:00
p128
tp129
asS"['R.0']"
p130
(lp131
(Ve^-0.1*0.1^3/3!
p132
Ve^(-0.1)
p133
(lp134
(S'R.0'
p135
F2.71828183
g91
g91
tp136
aVjyc018
p137
(lp138
(V$j
p139
V3
p140
tp141
a(V$k
p142
V2
p143
tp144
a(V$a2
p145
V0
p146
tp147
a(V$a
p148
V900
p149
tp150
a(V$a1
p151
V0
p152
tp153
a(V$x
p154
V15
p155
tp156
a(V$y
p157
V6
p158
tp159
a(V$select
p160
V9
p161
tp162
a(V$r
p163
V1
p164
tp165
a(V$s
p166
V90
p167
tp168
aV2015-11-01 01:22:49
p169
tp170
a(Ve^-0.1*0.1^3/3!
p171
Ve^(-0.1*3)
p172
(lp173
(S'R.0'
p174
F2.71828183
g91
g91
tp175
aVglcohen
p176
(lp177
(V$j
p178
V3
p179
tp180
a(V$k
p181
V2
p182
tp183
a(V$a2
p184
V0
p185
tp186
a(V$a
p187
V800
p188
tp189
a(V$a1
p190
V0
p191
tp192
a(V$x
p193
V12
p194
tp195
a(V$y
p196
V6
p197
tp198
a(V$select
p199
V13
p200
tp201
a(V$r
p202
V1
p203
tp204
a(V$s
p205
V80
p206
tp207
aV2015-11-03 16:31:03
p208
tp209
a(Ve^-0.1*0.1^2/2!
p210
Ve^(-80/800)
p211
(lp212
(S'R.0'
p213
F2.71828183
g91
g91
tp214
aVdkostins
p215
(lp216
(V$j
p217
V2
p218
tp219
a(V$k
p220
V1
p221
tp222
a(V$a2
p223
V0
p224
tp225
a(V$a
p226
V800
p227
tp228
a(V$a1
p229
V0
p230
tp231
a(V$x
p232
V14
p233
tp234
a(V$y
p235
V5
p236
tp237
a(V$select
p238
V12
p239
tp240
a(V$r
p241
V1
p242
tp243
a(V$s
p244
V80
p245
tp246
aV2015-11-03 21:52:59
p247
tp248
a(Ve^-0.1*0.1^3/3!
p249
Ve^-(1/1100)*((1/1100^3)/(3!))
p250
(lp251
(S'R.0'
p252
F2.71828183
g91
g91
tp253
aVmitopete
p254
(lp255
(V$j
p256
V3
p257
tp258
a(V$k
p259
V2
p260
tp261
a(V$a2
p262
V0
p263
tp264
a(V$a
p265
V1100
p266
tp267
a(V$a1
p268
V0
p269
tp270
a(V$x
p271
V15
p272
tp273
a(V$y
p274
V5
p275
tp276
a(V$select
p277
V15
p278
tp279
a(V$r
p280
V2
p281
tp282
a(V$s
p283
V110
p284
tp285
aV2015-11-04 04:37:14
p286
tp287
a(g249
Ve^-(1/1100)*(((1/1100)^3)/(3!))
p288
(lp289
(S'R.0'
p290
F2.71828183
g91
g91
tp291
aVmitopete
p292
g255
V2015-11-04 04:37:33
p293
tp294
a(g249
Ve^-(1/1100)*(((1/1100)^3)/(3!))
p295
(lp296
(S'R.0'
p297
F2.71828183
g91
g91
tp298
aVmitopete
p299
g255
V2015-11-04 04:39:09
p300
tp301
a(Ve^-0.1*0.1^2/2!
p302
Ve^(-2)
p303
(lp304
(S'R.0'
p305
F2.71828183
g91
g91
tp306
aVt2shin
p307
(lp308
(V$j
p309
V2
p310
tp311
a(V$k
p312
V1
p313
tp314
a(V$a2
p315
V0
p316
tp317
a(V$a
p318
V1200
p319
tp320
a(V$a1
p321
V0
p322
tp323
a(V$x
p324
V14
p325
tp326
a(V$y
p327
V6
p328
tp329
a(V$select
p330
V11
p331
tp332
a(V$r
p333
V1
p334
tp335
a(V$s
p336
V120
p337
tp338
aV2015-11-04 04:45:16
p339
tp340
a(Ve^-0.1*0.1^1/1!
p341
Ve^(120/1200)
p342
(lp343
(S'R.0'
p344
F2.71828183
g91
g91
tp345
aVagoldsht
p346
(lp347
(V$j
p348
V1
p349
tp350
a(V$k
p351
V1
p352
tp353
a(V$a2
p354
V0
p355
tp356
a(V$a
p357
V1200
p358
tp359
a(V$a1
p360
V0
p361
tp362
a(V$x
p363
V13
p364
tp365
a(V$y
p366
V5
p367
tp368
a(V$select
p369
V15
p370
tp371
a(V$r
p372
V2
p373
tp374
a(V$s
p375
V120
p376
tp377
aV2015-11-04 05:00:01
p378
tp379
a(g341
Ve^(-120/1200)
p380
(lp381
(S'R.0'
p382
F2.71828183
g91
g91
tp383
aVagoldsht
p384
g347
V2015-11-04 05:00:10
p385
tp386
a(Ve^-0.1*0.1^3/3!
p387
Ve^(-100/1000)
p388
(lp389
(S'R.0'
p390
F2.71828183
g91
g91
tp391
aVjnatale
p392
(lp393
(V$j
p394
V3
p395
tp396
a(V$k
p397
V1
p398
tp399
a(V$a2
p400
V0
p401
tp402
a(V$a
p403
V1000
p404
tp405
a(V$a1
p406
V0
p407
tp408
a(V$x
p409
V15
p410
tp411
a(V$y
p412
V5
p413
tp414
a(V$select
p415
V13
p416
tp417
a(V$r
p418
V2
p419
tp420
a(V$s
p421
V100
p422
tp423
aV2015-11-04 08:23:16
p424
tp425
a(Ve^-0.1*0.1^3/3!
p426
Ve^(-0.3)
p427
(lp428
(S'R.0'
p429
F2.71828183
g91
g91
tp430
aVabasu
p431
(lp432
(V$j
p433
V3
p434
tp435
a(V$k
p436
V1
p437
tp438
a(V$a2
p439
V0
p440
tp441
a(V$a
p442
V900
p443
tp444
a(V$a1
p445
V0
p446
tp447
a(V$x
p448
V14
p449
tp450
a(V$y
p451
V6
p452
tp453
a(V$select
p454
V12
p455
tp456
a(V$r
p457
V1
p458
tp459
a(V$s
p460
V90
p461
tp462
aV2015-11-04 20:43:59
p463
tp464
a(Ve^-0.1*0.1^1/1!
p465
Ve^-(1/1000)*(1/1000)^0/0!
p466
(lp467
(S'R.0'
p468
F2.71828183
g91
g91
tp469
aVtjke
p470
(lp471
(V$j
p472
V1
p473
tp474
a(V$k
p475
V1
p476
tp477
a(V$a2
p478
V0
p479
tp480
a(V$a
p481
V1000
p482
tp483
a(V$a1
p484
V0
p485
tp486
a(V$x
p487
V12
p488
tp489
a(V$y
p490
V5
p491
tp492
a(V$select
p493
V10
p494
tp495
a(V$r
p496
V2
p497
tp498
a(V$s
p499
V100
p500
tp501
aV2015-11-04 20:51:48
p502
tp503
a(g465
Ve^-(1/1000)*(1/1000)^1/1!
p504
(lp505
(S'R.0'
p506
F2.71828183
g91
g91
tp507
aVtjke
p508
g471
V2015-11-04 20:51:59
p509
tp510
a(Ve^-0.1*0.1^1/1!
p511
Ve^-1 / (120!)
p512
(lp513
(S'R.0'
p514
F2.71828183
g91
g91
tp515
aVcagatep
p516
(lp517
(V$j
p518
V1
p519
tp520
a(V$k
p521
V1
p522
tp523
a(V$a2
p524
V0
p525
tp526
a(V$a
p527
V1200
p528
tp529
a(V$a1
p530
V0
p531
tp532
a(V$x
p533
V14
p534
tp535
a(V$y
p536
V5
p537
tp538
a(V$select
p539
V10
p540
tp541
a(V$r
p542
V1
p543
tp544
a(V$s
p545
V120
p546
tp547
aV2015-11-05 06:37:52
p548
tp549
a(g511
Ve^-1
p550
(lp551
(S'R.0'
p552
F2.71828183
g91
g91
tp553
aVcagatep
p554
g517
V2015-11-05 06:51:14
p555
tp556
a(Ve^-0.1*0.1^1/1!
p557
Ve^-.1 * (.1^120) / 120!
p558
(lp559
(S'R.0'
p560
F2.71828183
g91
g91
tp561
aVanvan
p562
(lp563
(V$j
p564
V1
p565
tp566
a(V$k
p567
V1
p568
tp569
a(V$a2
p570
V0
p571
tp572
a(V$a
p573
V1200
p574
tp575
a(V$a1
p576
V0
p577
tp578
a(V$x
p579
V15
p580
tp581
a(V$y
p582
V5
p583
tp584
a(V$select
p585
V15
p586
tp587
a(V$r
p588
V1
p589
tp590
a(V$s
p591
V120
p592
tp593
aV2015-11-05 08:25:22
p594
tp595
a(Ve^-0.1*0.1^3/3!
p596
Ve^-.1*.1
p597
(lp598
(S'R.0'
p599
F2.71828183
g91
g91
tp600
aVlalacson
p601
(lp602
(V$j
p603
V3
p604
tp605
a(V$k
p606
V1
p607
tp608
a(V$a2
p609
V0
p610
tp611
a(V$a
p612
V800
p613
tp614
a(V$a1
p615
V0
p616
tp617
a(V$x
p618
V13
p619
tp620
a(V$y
p621
V6
p622
tp623
a(V$select
p624
V9
p625
tp626
a(V$r
p627
V1
p628
tp629
a(V$s
p630
V80
p631
tp632
aV2015-11-05 08:37:06
p633
tp634
a(g596
Ve^-.1*.1^(3/3!)
p635
(lp636
(S'R.0'
p637
F2.71828183
g91
g91
tp638
aVlalacson
p639
g602
V2015-11-05 08:37:17
p640
tp641
a(Ve^-0.1*0.1^1/1!
p642
Ve^((-1/1200)*120)
p643
(lp644
(S'R.0'
p645
F2.71828183
g91
g91
tp646
aVrsmurlo
p647
(lp648
(V$j
p649
V1
p650
tp651
a(V$k
p652
V1
p653
tp654
a(V$a2
p655
V0
p656
tp657
a(V$a
p658
V1200
p659
tp660
a(V$a1
p661
V0
p662
tp663
a(V$x
p664
V15
p665
tp666
a(V$y
p667
V6
p668
tp669
a(V$select
p670
V9
p671
tp672
a(V$r
p673
V1
p674
tp675
a(V$s
p676
V120
p677
tp678
aV2015-11-05 16:08:29
p679
tp680
a(Ve^-0.1*0.1^2/2!
p681
Ve^((-0.1)*0.1^(2/2!))
p682
(lp683
(S'R.0'
p684
F2.71828183
g91
g91
tp685
aVt2li
p686
(lp687
(V$j
p688
V2
p689
tp690
a(V$k
p691
V1
p692
tp693
a(V$a2
p694
V0
p695
tp696
a(V$a
p697
V1200
p698
tp699
a(V$a1
p700
V0
p701
tp702
a(V$x
p703
V15
p704
tp705
a(V$y
p706
V6
p707
tp708
a(V$select
p709
V14
p710
tp711
a(V$r
p712
V1
p713
tp714
a(V$s
p715
V120
p716
tp717
aV2015-11-06 01:18:58
p718
tp719
a(Ve^-0.1*0.1^2/2!
p720
Ve^-90*(1/900) * 90*(1/900)^2/2!
p721
(lp722
(S'R.0'
p723
F2.71828183
g91
g91
tp724
aVaurodrig
p725
(lp726
(V$j
p727
V2
p728
tp729
a(V$k
p730
V1
p731
tp732
a(V$a2
p733
V0
p734
tp735
a(V$a
p736
V900
p737
tp738
a(V$a1
p739
V0
p740
tp741
a(V$x
p742
V14
p743
tp744
a(V$y
p745
V6
p746
tp747
a(V$select
p748
V13
p749
tp750
a(V$r
p751
V2
p752
tp753
a(V$s
p754
V90
p755
tp756
aV2015-11-06 21:38:30
p757
tp758
a(Ve^-0.1*0.1^3/3!
p759
Ve^(1) * (1)^3 / 3!
p760
(lp761
(S'R.0'
p762
F2.71828183
g91
Ve^(1) * (1)^3
p763
tp764
aVv3doan
p765
(lp766
(V$j
p767
V3
p768
tp769
a(V$k
p770
V2
p771
tp772
a(V$a2
p773
V0
p774
tp775
a(V$a
p776
V1200
p777
tp778
a(V$a1
p779
V0
p780
tp781
a(V$x
p782
V13
p783
tp784
a(V$y
p785
V6
p786
tp787
a(V$select
p788
V12
p789
tp790
a(V$r
p791
V1
p792
tp793
a(V$s
p794
V120
p795
tp796
aV2015-11-07 00:14:22
p797
tp798
a(g87
Ve^-(90/900)
p799
(lp800
(S'R.0'
p801
F2.71828183
g91
g91
tp802
aVrohan
p803
g97
V2015-11-07 00:46:11
p804
tp805
a(g87
Ve^(4005(1/900)^2(1-1/900)^88)
p806
(lp807
(S'R.0'
p808
F2.71828183
g91
g91
tp809
aVrohan
p810
g97
V2015-11-07 00:49:17
p811
tp812
a(g87
Ve^(-4005(1/900)^2(1-1/900)^88)
p813
(lp814
(S'R.0'
p815
F2.71828183
g91
g91
tp816
aVrohan
p817
g97
V2015-11-07 00:49:25
p818
tp819
asS'Wrong_Sign'
p820
(lp821
(Ve^-0.1*0.1^3/3!
p822
Ve(-.1)(.1^3/3!)
p823
tp824
a(Ve^-0.1*0.1^3/3!
p825
V1.5080623e-4
p826
tp827
a(Ve^-0.1*0.1^1/1!
p828
Ve** (-.1) * (-.1) **(1)/1!
p829
tp830
a(Ve^-0.1*0.1^2/2!
p831
Ve**(-.1)*(-.1**2/2)
p832
tp833
a(Ve^-0.1*0.1^1/1!
p834
Ve^(-0.1)*(-0.1)
p835
tp836
a(g834
Ve^(-0.1)*(-0.1)^1/1!
p837
tp838
a(g87
V4005(1/900)^2(1-1/900)^88-1
p839
tp840
asS"['R.1.0.0']"
p841
(lp842
(Ve^-0.1*0.1^2/2!
p843
Ve^(-1/1000)*[((1/1000)^2)/2]
p844
(lp845
(S'R.1.0.0'
p846
F0.0010000000000000002
V0.1*0.1^2
p847
V1/1000
p848
tp849
aVtol003
p850
(lp851
(V$j
p852
V2
p853
tp854
a(V$k
p855
V1
p856
tp857
a(V$a2
p858
V0
p859
tp860
a(V$a
p861
V1000
p862
tp863
a(V$a1
p864
V0
p865
tp866
a(V$x
p867
V12
p868
tp869
a(V$y
p870
V6
p871
tp872
a(V$select
p873
V14
p874
tp875
a(V$r
p876
V2
p877
tp878
a(V$s
p879
V100
p880
tp881
aV2015-11-03 19:07:32
p882
tp883
a(Ve^-0.1*0.1^2/2!
p884
V(e^-.001)(.001^2)/2
p885
(lp886
(S'R.1.0.0'
p887
F0.0010000000000000002
V0.1*0.1^2
p888
V.001^
p889
tp890
aVc1sorian
p891
(lp892
(V$j
p893
V2
p894
tp895
a(V$k
p896
V1
p897
tp898
a(V$a2
p899
V0
p900
tp901
a(V$a
p902
V1000
p903
tp904
a(V$a1
p905
V0
p906
tp907
a(V$x
p908
V15
p909
tp910
a(V$y
p911
V6
p912
tp913
a(V$select
p914
V14
p915
tp916
a(V$r
p917
V2
p918
tp919
a(V$s
p920
V100
p921
tp922
aV2015-11-04 22:51:36
p923
tp924
asS"['R']"
p925
(lp926
(Ve^-0.1*0.1^3/3!
p927
Ve^-110/1100 *((110/1100)^3)/3!
p928
(lp929
(S'R'
p930
F0.999983333472212
g927
g928
tp931
aVrbdoming
p932
(lp933
(V$j
p934
V3
p935
tp936
a(V$k
p937
V1
p938
tp939
a(V$a2
p940
V0
p941
tp942
a(V$a
p943
V1100
p944
tp945
a(V$a1
p946
V0
p947
tp948
a(V$x
p949
V13
p950
tp951
a(V$y
p952
V5
p953
tp954
a(V$select
p955
V14
p956
tp957
a(V$r
p958
V1
p959
tp960
a(V$s
p961
V110
p962
tp963
aV2015-11-05 18:48:21
p964
tp965
assV2
p966
g2
(g3
tp967
Rp968
S"['R.0.0', 'R.1.0.1.1']"
p969
(lp970
(VC(110,3)*(1/1100)^3*(1-1/1100)^(110-3)
p971
VC(110,3)*(.1)^3*(1- 110/1100)^117
p972
(lp973
(S'R.0.0'
p974
I215820
VC(110,3)
p975
VC(110,3)
p976
tp977
a(S'R.1.0.1.1'
p978
F1100.0
V1100
p979
V1100
p980
tp981
aVawollner
p982
(lp983
(V$j
p984
V3
p985
tp986
a(V$k
p987
V1
p988
tp989
a(V$a2
p990
V0
p991
tp992
a(V$a
p993
V1100
p994
tp995
a(V$a1
p996
V0
p997
tp998
a(V$x
p999
V14
p1000
tp1001
a(V$y
p1002
V6
p1003
tp1004
a(V$select
p1005
V8
p1006
tp1007
a(V$r
p1008
V2
p1009
tp1010
a(V$s
p1011
V110
p1012
tp1013
aV2015-11-06 22:53:23
p1014
tp1015
asS"['R.1']"
p1016
(lp1017
(VC(100,1)*(1/1000)^1*(1-1/1000)^(100-1)
p1018
VC(100,1)*(1/1000)^100*(999/1000)^(100-1)
p1019
(lp1020
(S'R.1'
p1021
F0.9056978449586677
V(1-1/1000)^(100-1)
p1022
V(999/1000)^(100-1)
p1023
tp1024
aVggaddi
p1025
(lp1026
(V$j
p1027
V1
p1028
tp1029
a(V$k
p1030
V1
p1031
tp1032
a(V$a2
p1033
V0
p1034
tp1035
a(V$a
p1036
V1000
p1037
tp1038
a(V$a1
p1039
V0
p1040
tp1041
a(V$x
p1042
V15
p1043
tp1044
a(V$y
p1045
V5
p1046
tp1047
a(V$select
p1048
V11
p1049
tp1050
a(V$r
p1051
V1
p1052
tp1053
a(V$s
p1054
V100
p1055
tp1056
aV2015-11-01 20:02:09
p1057
tp1058
a(VC(110,3)*(1/1100)^3*(1-1/1100)^(110-3)
p1059
V(1/1100)^3*(1099/1100)^107
p1060
(lp1061
(S'R.1'
p1062
F0.9072683846322497
V(1-1/1100)^(110-3)
p1063
V(1099/1100)^107
p1064
tp1065
aVsmohiman
p1066
(lp1067
(V$j
p1068
V3
p1069
tp1070
a(V$k
p1071
V1
p1072
tp1073
a(V$a2
p1074
V0
p1075
tp1076
a(V$a
p1077
V1100
p1078
tp1079
a(V$a1
p1080
V0
p1081
tp1082
a(V$x
p1083
V15
p1084
tp1085
a(V$y
p1086
V6
p1087
tp1088
a(V$select
p1089
V10
p1090
tp1091
a(V$r
p1092
V1
p1093
tp1094
a(V$s
p1095
V110
p1096
tp1097
aV2015-11-02 01:24:31
p1098
tp1099
a(VC(120,3)*(1/1200)^3*(1-1/1200)^(120-3)
p1100
V(1/1200)^[3]*(1-1/1200)^[120-3]
p1101
(lp1102
(S'R.1'
p1103
F0.907065470786933
V(1-1/1200)^(120-3)
p1104
V(1-1/1200)^[120-3]
p1105
tp1106
aVttimmons
p1107
(lp1108
(V$j
p1109
V3
p1110
tp1111
a(V$k
p1112
V1
p1113
tp1114
a(V$a2
p1115
V0
p1116
tp1117
a(V$a
p1118
V1200
p1119
tp1120
a(V$a1
p1121
V0
p1122
tp1123
a(V$x
p1124
V15
p1125
tp1126
a(V$y
p1127
V6
p1128
tp1129
a(V$select
p1130
V8
p1131
tp1132
a(V$r
p1133
V1
p1134
tp1135
a(V$s
p1136
V120
p1137
tp1138
aV2015-11-03 22:48:14
p1139
tp1140
a(VC(100,3)*(1/1000)^3*(1-1/1000)^(100-3)
p1141
V(1/1000)^3 * (1-(1/1000))^(100-3)
p1142
(lp1143
(S'R.1'
p1144
F0.9075119613694451
V(1-1/1000)^(100-3)
p1145
V(1-(1/1000))^(100-3)
p1146
tp1147
aVjnatale
p1148
g393
V2015-11-04 08:22:10
p1149
tp1150
a(VC(90,3)*(1/900)^3*(1-1/900)^(90-3)
p1151
VC((900/10),3)*(1/900)3(1-1/900)^(900/10-3)
p1152
(lp1153
(S'R.1'
p1154
F0.9078097850253197
V(1-1/900)^(90-3)
p1155
V(1-1/900)^(900/10-3)
p1156
tp1157
aVaggouw
p1158
(lp1159
(V$j
p1160
V3
p1161
tp1162
a(V$k
p1163
V2
p1164
tp1165
a(V$a2
p1166
V0
p1167
tp1168
a(V$a
p1169
V900
p1170
tp1171
a(V$a1
p1172
V0
p1173
tp1174
a(V$x
p1175
V13
p1176
tp1177
a(V$y
p1178
V5
p1179
tp1180
a(V$select
p1181
V12
p1182
tp1183
a(V$r
p1184
V1
p1185
tp1186
a(V$s
p1187
V90
p1188
tp1189
aV2015-11-04 09:03:15
p1190
tp1191
a(VC(120,1)*(1/1200)^1*(1-1/1200)^(120-1)
p1192
V(120!/(1!119!))*((1-1/1200)^(120-1))
p1193
(lp1194
(S'R.1'
p1195
F0.905554324908865
V(1-1/1200)^(120-1)
p1196
V(1-1/1200)^(120-1)
p1197
tp1198
aVk5law
p1199
(lp1200
(V$j
p1201
V1
p1202
tp1203
a(V$k
p1204
V1
p1205
tp1206
a(V$a2
p1207
V0
p1208
tp1209
a(V$a
p1210
V1200
p1211
tp1212
a(V$a1
p1213
V0
p1214
tp1215
a(V$x
p1216
V13
p1217
tp1218
a(V$y
p1219
V5
p1220
tp1221
a(V$select
p1222
V13
p1223
tp1224
a(V$r
p1225
V1
p1226
tp1227
a(V$s
p1228
V120
p1229
tp1230
aV2015-11-04 09:06:22
p1231
tp1232
a(VC(100,1)*(1/1000)^1*(1-1/1000)^(100-1)
p1233
VC(100,1)((1/1000)^2)(1-(1/1000))^(99)
p1234
(lp1235
(S'R.1'
p1236
F0.9056978449586677
V(1-1/1000)^(100-1)
p1237
V(1-(1/1000))^(99)
p1238
tp1239
aVlywong
p1240
(lp1241
(V$j
p1242
V1
p1243
tp1244
a(V$k
p1245
V2
p1246
tp1247
a(V$a2
p1248
V0
p1249
tp1250
a(V$a
p1251
V1000
p1252
tp1253
a(V$a1
p1254
V0
p1255
tp1256
a(V$x
p1257
V14
p1258
tp1259
a(V$y
p1260
V6
p1261
tp1262
a(V$select
p1263
V12
p1264
tp1265
a(V$r
p1266
V1
p1267
tp1268
a(V$s
p1269
V100
p1270
tp1271
aV2015-11-04 19:00:50
p1272
tp1273
a(VC(90,2)*(1/900)^2*(1-1/900)^(90-2)
p1274
V(1/900)^2*(899/900)^88
p1275
(lp1276
(S'R.1'
p1277
F0.9068011074864027
V(1-1/900)^(90-2)
p1278
V(899/900)^88
p1279
tp1280
aVbmilton
p1281
(lp1282
(V$j
p1283
V2
p1284
tp1285
a(V$k
p1286
V2
p1287
tp1288
a(V$a2
p1289
V0
p1290
tp1291
a(V$a
p1292
V900
p1293
tp1294
a(V$a1
p1295
V0
p1296
tp1297
a(V$x
p1298
V15
p1299
tp1300
a(V$y
p1301
V6
p1302
tp1303
a(V$select
p1304
V13
p1305
tp1306
a(V$r
p1307
V1
p1308
tp1309
a(V$s
p1310
V90
p1311
tp1312
aV2015-11-04 19:44:29
p1313
tp1314
a(g1274
VC(90,2)*(1/900)^2*88*(899/900)^88
p1315
(lp1316
(S'R.1'
p1317
F0.9068011074864027
V(1-1/900)^(90-2)
p1318
V(899/900)^88
p1319
tp1320
aVbmilton
p1321
g1282
V2015-11-04 19:44:53
p1322
tp1323
a(g1274
V2*(1/900)^2*88*(899/900)^88
p1324
(lp1325
(S'R.1'
p1326
F0.9068011074864027
V(1-1/900)^(90-2)
p1327
V(899/900)^88
p1328
tp1329
aVbmilton
p1330
g1282
V2015-11-04 19:45:17
p1331
tp1332
a(VC(80,3)*(1/800)^3*(1-1/800)^(80-3)
p1333
V(1/800)^3*(799/800)^77
p1334
(lp1335
(S'R.1'
p1336
F0.9081822483973268
V(1-1/800)^(80-3)
p1337
V(799/800)^77
p1338
tp1339
aVnnh002
p1340
(lp1341
(V$j
p1342
V3
p1343
tp1344
a(V$k
p1345
V2
p1346
tp1347
a(V$a2
p1348
V0
p1349
tp1350
a(V$a
p1351
V800
p1352
tp1353
a(V$a1
p1354
V0
p1355
tp1356
a(V$x
p1357
V12
p1358
tp1359
a(V$y
p1360
V6
p1361
tp1362
a(V$select
p1363
V11
p1364
tp1365
a(V$r
p1366
V2
p1367
tp1368
a(V$s
p1369
V80
p1370
tp1371
aV2015-11-05 03:23:08
p1372
tp1373
a(VC(100,2)*(1/1000)^2*(1-1/1000)^(100-2)
p1374
VC(100,2)(1-(1/1000))^(100-2)
p1375
(lp1376
(S'R.1'
p1377
F0.9066044494080757
V(1-1/1000)^(100-2)
p1378
V(1-(1/1000))^(100-2)
p1379
tp1380
aVjjm019
p1381
(lp1382
(V$j
p1383
V2
p1384
tp1385
a(V$k
p1386
V1
p1387
tp1388
a(V$a2
p1389
V0
p1390
tp1391
a(V$a
p1392
V1000
p1393
tp1394
a(V$a1
p1395
V0
p1396
tp1397
a(V$x
p1398
V13
p1399
tp1400
a(V$y
p1401
V6
p1402
tp1403
a(V$select
p1404
V15
p1405
tp1406
a(V$r
p1407
V2
p1408
tp1409
a(V$s
p1410
V100
p1411
tp1412
aV2015-11-05 03:48:53
p1413
tp1414
a(VC(120,1)*(1/1200)^1*(1-1/1200)^(120-1)
p1415
V(1/1200)^119*(1-1/1200)^119
p1416
(lp1417
(S'R.1'
p1418
F0.905554324908865
V(1-1/1200)^(120-1)
p1419
V(1-1/1200)^119
p1420
tp1421
aVh4tu
p1422
(lp1423
(V$j
p1424
V1
p1425
tp1426
a(V$k
p1427
V2
p1428
tp1429
a(V$a2
p1430
V0
p1431
tp1432
a(V$a
p1433
V1200
p1434
tp1435
a(V$a1
p1436
V0
p1437
tp1438
a(V$x
p1439
V14
p1440
tp1441
a(V$y
p1442
V6
p1443
tp1444
a(V$select
p1445
V8
p1446
tp1447
a(V$r
p1448
V1
p1449
tp1450
a(V$s
p1451
V120
p1452
tp1453
aV2015-11-05 05:23:25
p1454
tp1455
a(g1415
V(1/1200)^1*(1-1/1200)^119
p1456
(lp1457
(S'R.1'
p1458
F0.905554324908865
V(1-1/1200)^(120-1)
p1459
V(1-1/1200)^119
p1460
tp1461
aVh4tu
p1462
g1423
V2015-11-05 05:23:55
p1463
tp1464
a(VC(110,3)*(1/1100)^3*(1-1/1100)^(110-3)
p1465
V[(1/1100)^110][(1099/1100)^(110-3)]
p1466
(lp1467
(S'R.1'
p1468
F0.9072683846322497
V(1-1/1100)^(110-3)
p1469
V(1099/1100)^(110-3)
p1470
tp1471
aVdlt009
p1472
(lp1473
(V$j
p1474
V3
p1475
tp1476
a(V$k
p1477
V1
p1478
tp1479
a(V$a2
p1480
V0
p1481
tp1482
a(V$a
p1483
V1100
p1484
tp1485
a(V$a1
p1486
V0
p1487
tp1488
a(V$x
p1489
V14
p1490
tp1491
a(V$y
p1492
V6
p1493
tp1494
a(V$select
p1495
V8
p1496
tp1497
a(V$r
p1498
V1
p1499
tp1500
a(V$s
p1501
V110
p1502
tp1503
aV2015-11-05 07:19:48
p1504
tp1505
a(VC(120,2)*(1/1200)^2*(1-1/1200)^(120-2)
p1506
V(1/1200)^2(1199/1200)^(120 - 2)
p1507
(lp1508
(S'R.1'
p1509
F0.9063095828946105
V(1-1/1200)^(120-2)
p1510
V(1199/1200)^(120 - 2)
p1511
tp1512
aVmhale
p1513
(lp1514
(V$j
p1515
V2
p1516
tp1517
a(V$k
p1518
V2
p1519
tp1520
a(V$a2
p1521
V0
p1522
tp1523
a(V$a
p1524
V1200
p1525
tp1526
a(V$a1
p1527
V0
p1528
tp1529
a(V$x
p1530
V14
p1531
tp1532
a(V$y
p1533
V5
p1534
tp1535
a(V$select
p1536
V13
p1537
tp1538
a(V$r
p1539
V1
p1540
tp1541
a(V$s
p1542
V120
p1543
tp1544
aV2015-11-05 19:54:25
p1545
tp1546
a(g1506
V(1/1200)^2(1199/1200)^(118)
p1547
(lp1548
(S'R.1'
p1549
F0.9063095828946105
V(1-1/1200)^(120-2)
p1550
V(1199/1200)^(118)
p1551
tp1552
aVmhale
p1553
g1514
V2015-11-05 19:54:36
p1554
tp1555
a(g1506
V(1/1200)^2(1199/1200)^(118)
p1556
(lp1557
(S'R.1'
p1558
F0.9063095828946105
V(1-1/1200)^(120-2)
p1559
V(1199/1200)^(118)
p1560
tp1561
aVmhale
p1562
g1514
V2015-11-05 19:59:33
p1563
tp1564
a(g1506
V(1/1200)^2 * (1 - 1/1200)^(118)
p1565
(lp1566
(S'R.1'
p1567
F0.9063095828946105
V(1-1/1200)^(120-2)
p1568
V(1 - 1/1200)^(118)
p1569
tp1570
aVmhale
p1571
g1514
V2015-11-05 20:01:10
p1572
tp1573
a(VC(100,1)*(1/1000)^1*(1-1/1000)^(100-1)
p1574
VC(10,1) * (1/1000)**1 * ( (1-1/1000)**(100-1) )
p1575
(lp1576
(S'R.1'
p1577
F0.9056978449586677
V(1-1/1000)^(100-1)
p1578
V(1-1/1000)**(100-1)
p1579
tp1580
aVdis003
p1581
(lp1582
(V$j
p1583
V1
p1584
tp1585
a(V$k
p1586
V2
p1587
tp1588
a(V$a2
p1589
V0
p1590
tp1591
a(V$a
p1592
V1000
p1593
tp1594
a(V$a1
p1595
V0
p1596
tp1597
a(V$x
p1598
V14
p1599
tp1600
a(V$y
p1601
V5
p1602
tp1603
a(V$select
p1604
V15
p1605
tp1606
a(V$r
p1607
V2
p1608
tp1609
a(V$s
p1610
V100
p1611
tp1612
aV2015-11-05 21:42:15
p1613
tp1614
a(VC(120,2)*(1/1200)^2*(1-1/1200)^(120-2)
p1615
V120!/118! * (1/1200) * (1-(1/1200))^(118)
p1616
(lp1617
(S'R.1'
p1618
F0.9063095828946105
V(1-1/1200)^(120-2)
p1619
V(1-(1/1200))^(118)
p1620
tp1621
aVytc012
p1622
(lp1623
(V$j
p1624
V2
p1625
tp1626
a(V$k
p1627
V1
p1628
tp1629
a(V$a2
p1630
V0
p1631
tp1632
a(V$a
p1633
V1200
p1634
tp1635
a(V$a1
p1636
V0
p1637
tp1638
a(V$x
p1639
V14
p1640
tp1641
a(V$y
p1642
V6
p1643
tp1644
a(V$select
p1645
V9
p1646
tp1647
a(V$r
p1648
V1
p1649
tp1650
a(V$s
p1651
V120
p1652
tp1653
aV2015-11-05 23:14:45
p1654
tp1655
a(g1615
V120/118 * (1/1200) * (1-(1/1200))^(118)
p1656
(lp1657
(S'R.1'
p1658
F0.9063095828946105
V(1-1/1200)^(120-2)
p1659
V(1-(1/1200))^(118)
p1660
tp1661
aVytc012
p1662
g1623
V2015-11-05 23:15:08
p1663
tp1664
a(g1615
V120!/118! * (1/1200) * (1-(1/1200))^(118)
p1665
(lp1666
(S'R.1'
p1667
F0.9063095828946105
V(1-1/1200)^(120-2)
p1668
V(1-(1/1200))^(118)
p1669
tp1670
aVytc012
p1671
g1623
V2015-11-05 23:15:35
p1672
tp1673
a(g1615
V118!/120! * (1/1200) * (1-(1/1200))^(118)
p1674
(lp1675
(S'R.1'
p1676
F0.9063095828946105
V(1-1/1200)^(120-2)
p1677
V(1-(1/1200))^(118)
p1678
tp1679
aVytc012
p1680
g1623
V2015-11-05 23:17:39
p1681
tp1682
a(g1615
V119!/118! * (1/1200) * (1-(1/1200))^(118)
p1683
(lp1684
(S'R.1'
p1685
F0.9063095828946105
V(1-1/1200)^(120-2)
p1686
V(1-(1/1200))^(118)
p1687
tp1688
aVytc012
p1689
g1623
V2015-11-05 23:17:50
p1690
tp1691
a(g1615
V120!/118! * (1/1200) * (1-(1/1200))^(118)
p1692
(lp1693
(S'R.1'
p1694
F0.9063095828946105
V(1-1/1200)^(120-2)
p1695
V(1-(1/1200))^(118)
p1696
tp1697
aVytc012
p1698
g1623
V2015-11-05 23:17:57
p1699
tp1700
a(g1615
V120!/119! * (1/1200) * (1-(1/1200))^(118)
p1701
(lp1702
(S'R.1'
p1703
F0.9063095828946105
V(1-1/1200)^(120-2)
p1704
V(1-(1/1200))^(118)
p1705
tp1706
aVytc012
p1707
g1623
V2015-11-05 23:18:49
p1708
tp1709
a(g1615
V118!/117! * (1/1200) * (1-(1/1200))^(118)
p1710
(lp1711
(S'R.1'
p1712
F0.9063095828946105
V(1-1/1200)^(120-2)
p1713
V(1-(1/1200))^(118)
p1714
tp1715
aVytc012
p1716
g1623
V2015-11-05 23:19:35
p1717
tp1718
a(g1615
V119!/118! * (1/1200) * (1-(1/1200))^(118)
p1719
(lp1720
(S'R.1'
p1721
F0.9063095828946105
V(1-1/1200)^(120-2)
p1722
V(1-(1/1200))^(118)
p1723
tp1724
aVytc012
p1725
g1623
V2015-11-05 23:19:53
p1726
tp1727
a(VC(80,2)*(1/800)^2*(1-1/800)^(80-2)
p1728
VC(800,2)(2/800)^2(1-1/800)^78
p1729
(lp1730
(S'R.1'
p1731
F0.9070470205868301
V(1-1/800)^(80-2)
p1732
V(1-1/800)^78
p1733
tp1734
aVdtea
p1735
(lp1736
(V$j
p1737
V2
p1738
tp1739
a(V$k
p1740
V2
p1741
tp1742
a(V$a2
p1743
V0
p1744
tp1745
a(V$a
p1746
V800
p1747
tp1748
a(V$a1
p1749
V0
p1750
tp1751
a(V$x
p1752
V14
p1753
tp1754
a(V$y
p1755
V5
p1756
tp1757
a(V$select
p1758
V15
p1759
tp1760
a(V$r
p1761
V1
p1762
tp1763
a(V$s
p1764
V80
p1765
tp1766
aV2015-11-07 00:43:05
p1767
tp1768
asS"['R.0.0', 'R.1']"
p1769
(lp1770
(VC(110,3)*(1/1100)^3*(1-1/1100)^(110-3)
p1771
VC(110,3)1/1100(1-1/1100)^(110-3)
p1772
(lp1773
(S'R.0.0'
p1774
I215820
VC(110,3)
p1775
VC(110,3)
p1776
tp1777
a(S'R.1'
p1778
F0.9072683846322497
V(1-1/1100)^(110-3)
p1779
V(1-1/1100)^(110-3)
p1780
tp1781
aVt1tran
p1782
(lp1783
(V$j
p1784
V3
p1785
tp1786
a(V$k
p1787
V1
p1788
tp1789
a(V$a2
p1790
V0
p1791
tp1792
a(V$a
p1793
V1100
p1794
tp1795
a(V$a1
p1796
V0
p1797
tp1798
a(V$x
p1799
V12
p1800
tp1801
a(V$y
p1802
V5
p1803
tp1804
a(V$select
p1805
V8
p1806
tp1807
a(V$r
p1808
V1
p1809
tp1810
a(V$s
p1811
V110
p1812
tp1813
aV2015-10-31 05:53:41
p1814
tp1815
a(VC(120,2)*(1/1200)^2*(1-1/1200)^(120-2)
p1816
VC(120,2)* 1/1200 * (1-1/1200)^(120-2)
p1817
(lp1818
(S'R.0.0'
p1819
I7140
VC(120,2)
p1820
VC(120,2)* 1
p1821
tp1822
a(S'R.1'
p1823
F0.9063095828946105
V(1-1/1200)^(120-2)
p1824
V(1-1/1200)^(120-2)
p1825
tp1826
aVcsl030
p1827
(lp1828
(V$j
p1829
V2
p1830
tp1831
a(V$k
p1832
V2
p1833
tp1834
a(V$a2
p1835
V0
p1836
tp1837
a(V$a
p1838
V1200
p1839
tp1840
a(V$a1
p1841
V0
p1842
tp1843
a(V$x
p1844
V13
p1845
tp1846
a(V$y
p1847
V5
p1848
tp1849
a(V$select
p1850
V14
p1851
tp1852
a(V$r
p1853
V1
p1854
tp1855
a(V$s
p1856
V120
p1857
tp1858
aV2015-11-05 04:46:06
p1859
tp1860
a(g1465
VC(110, 3)*[(1/1100)^110][(1099/1100)^(110-3)]
p1861
(lp1862
(S'R.0.0'
p1863
I215820
VC(110,3)
p1864
VC(110, 3)
p1865
tp1866
a(S'R.1'
p1867
F0.9072683846322497
V(1-1/1100)^(110-3)
p1868
V(1099/1100)^(110-3)
p1869
tp1870
aVdlt009
p1871
g1473
V2015-11-05 07:19:05
p1872
tp1873
a(g1615
VC(120,2)(1/1200)(1-1/1200)^118
p1874
(lp1875
(S'R.0.0'
p1876
I7140
VC(120,2)
p1877
VC(120,2)
p1878
tp1879
a(S'R.1'
p1880
F0.9063095828946105
V(1-1/1200)^(120-2)
p1881
V(1-1/1200)^118
p1882
tp1883
aVytc012
p1884
g1623
V2015-11-06 08:35:38
p1885
tp1886
a(g1615
VC(120,118)(1/1200)(1-1/1200)^118
p1887
(lp1888
(S'R.0.0'
p1889
I7140
VC(120,2)
p1890
VC(120,118)
p1891
tp1892
a(S'R.1'
p1893
F0.9063095828946105
V(1-1/1200)^(120-2)
p1894
V(1-1/1200)^118
p1895
tp1896
aVytc012
p1897
g1623
V2015-11-06 08:36:22
p1898
tp1899
a(g1615
VC(120,2)(1/1200)(1-1/1200)^118
p1900
(lp1901
(S'R.0.0'
p1902
I7140
VC(120,2)
p1903
VC(120,2)
p1904
tp1905
a(S'R.1'
p1906
F0.9063095828946105
V(1-1/1200)^(120-2)
p1907
V(1-1/1200)^118
p1908
tp1909
aVytc012
p1910
g1623
V2015-11-06 08:36:33
p1911
tp1912
a(VC(90,2)*(1/900)^2*(1-1/900)^(90-2)
p1913
VC(90,2)(0.001)^2 (1-1/900)^(90-2)
p1914
(lp1915
(S'R.0.0'
p1916
I4005
VC(90,2)
p1917
VC(90,2)
p1918
tp1919
a(S'R.1'
p1920
F0.9068011074864027
V(1-1/900)^(90-2)
p1921
V(1-1/900)^(90-2)
p1922
tp1923
aVbpandayk
p1924
(lp1925
(V$j
p1926
V2
p1927
tp1928
a(V$k
p1929
V1
p1930
tp1931
a(V$a2
p1932
V0
p1933
tp1934
a(V$a
p1935
V900
p1936
tp1937
a(V$a1
p1938
V0
p1939
tp1940
a(V$x
p1941
V14
p1942
tp1943
a(V$y
p1944
V6
p1945
tp1946
a(V$select
p1947
V8
p1948
tp1949
a(V$r
p1950
V1
p1951
tp1952
a(V$s
p1953
V90
p1954
tp1955
aV2015-11-06 21:22:34
p1956
tp1957
a(g1913
VC(90,2)(0.00111)^2 (1-1/900)^(90-2)
p1958
(lp1959
(S'R.0.0'
p1960
I4005
VC(90,2)
p1961
VC(90,2)
p1962
tp1963
a(S'R.1'
p1964
F0.9068011074864027
V(1-1/900)^(90-2)
p1965
V(1-1/900)^(90-2)
p1966
tp1967
aVbpandayk
p1968
g1925
V2015-11-06 21:23:17
p1969
tp1970
a(g1913
VC(90,2)(0.0011)^2 (1-1/900)^(90-2)
p1971
(lp1972
(S'R.0.0'
p1973
I4005
VC(90,2)
p1974
VC(90,2)
p1975
tp1976
a(S'R.1'
p1977
F0.9068011074864027
V(1-1/900)^(90-2)
p1978
V(1-1/900)^(90-2)
p1979
tp1980
aVbpandayk
p1981
g1925
V2015-11-06 21:26:04
p1982
tp1983
a(g1913
VC(90,2)(0.001)^2 (1-1/900)^(90-2)
p1984
(lp1985
(S'R.0.0'
p1986
I4005
VC(90,2)
p1987
VC(90,2)
p1988
tp1989
a(S'R.1'
p1990
F0.9068011074864027
V(1-1/900)^(90-2)
p1991
V(1-1/900)^(90-2)
p1992
tp1993
aVbpandayk
p1994
g1925
V2015-11-06 21:50:32
p1995
tp1996
a(g1913
VC(90,2)(0.00111)^2 (1-1/900)^(90-2)
p1997
(lp1998
(S'R.0.0'
p1999
I4005
VC(90,2)
p2000
VC(90,2)
p2001
tp2002
a(S'R.1'
p2003
F0.9068011074864027
V(1-1/900)^(90-2)
p2004
V(1-1/900)^(90-2)
p2005
tp2006
aVbpandayk
p2007
g1925
V2015-11-06 21:52:37
p2008
tp2009
a(VC(110,2)*(1/1100)^2*(1-1/1100)^(110-2)
p2010
VC(110,2)* ( (1/1100)^1) * ( (1-1/1100)^(110-2) )
p2011
(lp2012
(S'R.0.0'
p2013
I5995
VC(110,2)
p2014
VC(110,2)
p2015
tp2016
a(S'R.1'
p2017
F0.906443595191675
V(1-1/1100)^(110-2)
p2018
V(1-1/1100)^(110-2)
p2019
tp2020
aVsthapa
p2021
(lp2022
(V$j
p2023
V2
p2024
tp2025
a(V$k
p2026
V1
p2027
tp2028
a(V$a2
p2029
V0
p2030
tp2031
a(V$a
p2032
V1100
p2033
tp2034
a(V$a1
p2035
V0
p2036
tp2037
a(V$x
p2038
V12
p2039
tp2040
a(V$y
p2041
V6
p2042
tp2043
a(V$select
p2044
V9
p2045
tp2046
a(V$r
p2047
V1
p2048
tp2049
a(V$s
p2050
V110
p2051
tp2052
aV2015-11-06 23:52:51
p2053
tp2054
a(VC(90,2)*(1/900)^2*(1-1/900)^(90-2)
p2055
V4005(1/90)^2(1-1/900)^88
p2056
(lp2057
(S'R.0.0'
p2058
I4005
VC(90,2)
p2059
V4005
p2060
tp2061
a(S'R.1'
p2062
F0.9068011074864027
V(1-1/900)^(90-2)
p2063
V(1-1/900)^88
p2064
tp2065
aVrohan
p2066
g97
V2015-11-07 00:44:12
p2067
tp2068
asS"['R.0.1']"
p2069
(lp2070
(g1274
Ve^(-1/900) * ((1/900)^2)/2!
p2071
(lp2072
(S'R.0.1'
p2073
F1.234567901234568e-06
V(1/900)^2
p2074
V(1/900)^2
p2075
tp2076
aVbmilton
p2077
g1282
V2015-11-04 19:39:31
p2078
tp2079
a(VC(80,2)*(1/800)^2*(1-1/800)^(80-2)
p2080
VC(80,2)*(1-1/800)^78*(1/800)^2/2^80
p2081
(lp2082
(S'R.0.1'
p2083
F1.5625e-06
V(1/800)^2
p2084
V(1/800)^2
p2085
tp2086
aVc4du
p2087
(lp2088
(V$j
p2089
V2
p2090
tp2091
a(V$k
p2092
V1
p2093
tp2094
a(V$a2
p2095
V0
p2096
tp2097
a(V$a
p2098
V800
p2099
tp2100
a(V$a1
p2101
V0
p2102
tp2103
a(V$x
p2104
V13
p2105
tp2106
a(V$y
p2107
V5
p2108
tp2109
a(V$select
p2110
V14
p2111
tp2112
a(V$r
p2113
V2
p2114
tp2115
a(V$s
p2116
V80
p2117
tp2118
aV2015-11-05 03:49:00
p2119
tp2120
a(VC(90,2)*(1/900)^2*(1-1/900)^(90-2)
p2121
V(899/900)^88*(1/900)^2*404550
p2122
(lp2123
(S'R.0.1'
p2124
F1.234567901234568e-06
V(1/900)^2
p2125
V(1/900)^2
p2126
tp2127
aVdsriniva
p2128
(lp2129
(V$j
p2130
V2
p2131
tp2132
a(V$k
p2133
V1
p2134
tp2135
a(V$a2
p2136
V0
p2137
tp2138
a(V$a
p2139
V900
p2140
tp2141
a(V$a1
p2142
V0
p2143
tp2144
a(V$x
p2145
V15
p2146
tp2147
a(V$y
p2148
V5
p2149
tp2150
a(V$select
p2151
V9
p2152
tp2153
a(V$r
p2154
V1
p2155
tp2156
a(V$s
p2157
V90
p2158
tp2159
aV2015-11-05 09:17:04
p2160
tp2161
a(VC(100,3)*(1/1000)^3*(1-1/1000)^(100-3)
p2162
V(100*99*98/3*2)*(1/1000)^3*(1-(1/1000)^97)
p2163
(lp2164
(S'R.0.1'
p2165
F1e-09
V(1/1000)^3
p2166
V(1/1000)^3
p2167
tp2168
aVjmiclat
p2169
(lp2170
(V$j
p2171
V3
p2172
tp2173
a(V$k
p2174
V1
p2175
tp2176
a(V$a2
p2177
V0
p2178
tp2179
a(V$a
p2180
V1000
p2181
tp2182
a(V$a1
p2183
V0
p2184
tp2185
a(V$x
p2186
V13
p2187
tp2188
a(V$y
p2189
V5
p2190
tp2191
a(V$select
p2192
V14
p2193
tp2194
a(V$r
p2195
V2
p2196
tp2197
a(V$s
p2198
V100
p2199
tp2200
aV2015-11-06 09:22:10
p2201
tp2202
asS"['R.0', 'R.1.1']"
p2203
(lp2204
(VC(90,1)*(1/900)^1*(1-1/900)^(90-1)
p2205
V(.1^1)*.9^89
p2206
(lp2207
(S'R.0'
p2208
F0.1
VC(90,1)*(1/900)^1
p2209
V.1^1
p2210
tp2211
a(S'R.1.1'
p2212
F89.0
V90-1
p2213
V89
p2214
tp2215
aVmtrafeca
p2216
(lp2217
(V$j
p2218
V1
p2219
tp2220
a(V$k
p2221
V2
p2222
tp2223
a(V$a2
p2224
V0
p2225
tp2226
a(V$a
p2227
V900
p2228
tp2229
a(V$a1
p2230
V0
p2231
tp2232
a(V$x
p2233
V14
p2234
tp2235
a(V$y
p2236
V6
p2237
tp2238
a(V$select
p2239
V11
p2240
tp2241
a(V$r
p2242
V1
p2243
tp2244
a(V$s
p2245
V90
p2246
tp2247
aV2015-11-02 01:27:09
p2248
tp2249
a(VC(90,1)*(1/900)^1*(1-1/900)^(90-1)
p2250
V0.1*(1-0.1)^89
p2251
(lp2252
(S'R.0'
p2253
F0.1
VC(90,1)*(1/900)^1
p2254
V0.1
p2255
tp2256
a(S'R.1.1'
p2257
F89.0
V90-1
p2258
V89
p2259
tp2260
aVyeh013
p2261
(lp2262
(V$j
p2263
V1
p2264
tp2265
a(V$k
p2266
V2
p2267
tp2268
a(V$a2
p2269
V0
p2270
tp2271
a(V$a
p2272
V900
p2273
tp2274
a(V$a1
p2275
V0
p2276
tp2277
a(V$x
p2278
V15
p2279
tp2280
a(V$y
p2281
V6
p2282
tp2283
a(V$select
p2284
V12
p2285
tp2286
a(V$r
p2287
V2
p2288
tp2289
a(V$s
p2290
V90
p2291
tp2292
aV2015-11-04 07:11:44
p2293
tp2294
a(VC(80,3)*(1/800)^3*(1-1/800)^(80-3)
p2295
VC(80,3) * (1/800)^3 * .9975^77
p2296
(lp2297
(S'R.0'
p2298
F0.00016046875000000002
VC(80,3)*(1/800)^3
p2299
VC(80,3) * (1/800)^3
p2300
tp2301
a(S'R.1.1'
p2302
F77.0
V80-3
p2303
V77
p2304
tp2305
aVstarinia
p2306
(lp2307
(V$j
p2308
V3
p2309
tp2310
a(V$k
p2311
V1
p2312
tp2313
a(V$a2
p2314
V0
p2315
tp2316
a(V$a
p2317
V800
p2318
tp2319
a(V$a1
p2320
V0
p2321
tp2322
a(V$x
p2323
V14
p2324
tp2325
a(V$y
p2326
V5
p2327
tp2328
a(V$select
p2329
V15
p2330
tp2331
a(V$r
p2332
V1
p2333
tp2334
a(V$s
p2335
V80
p2336
tp2337
aV2015-11-04 22:07:21
p2338
tp2339
a(VC(90,2)*(1/900)^2*(1-1/900)^(90-2)
p2340
VC(90,2)*(1/900)^2*(898/900)^88
p2341
(lp2342
(S'R.0'
p2343
F0.004944444444444445
VC(90,2)*(1/900)^2
p2344
VC(90,2)*(1/900)^2
p2345
tp2346
a(S'R.1.1'
p2347
F88.0
V90-2
p2348
V88
p2349
tp2350
aVkrau
p2351
(lp2352
(V$j
p2353
V2
p2354
tp2355
a(V$k
p2356
V1
p2357
tp2358
a(V$a2
p2359
V0
p2360
tp2361
a(V$a
p2362
V900
p2363
tp2364
a(V$a1
p2365
V0
p2366
tp2367
a(V$x
p2368
V14
p2369
tp2370
a(V$y
p2371
V6
p2372
tp2373
a(V$select
p2374
V10
p2375
tp2376
a(V$r
p2377
V2
p2378
tp2379
a(V$s
p2380
V90
p2381
tp2382
aV2015-11-05 03:07:13
p2383
tp2384
a(VC(80,1)*(1/800)^1*(1-1/800)^(80-1)
p2385
V(1/10)^1 * (9/10)^79
p2386
(lp2387
(S'R.0'
p2388
F0.1
VC(80,1)*(1/800)^1
p2389
V(1/10)^1
p2390
tp2391
a(S'R.1.1'
p2392
F79.0
V80-1
p2393
V79
p2394
tp2395
aVklala
p2396
(lp2397
(V$j
p2398
V1
p2399
tp2400
a(V$k
p2401
V2
p2402
tp2403
a(V$a2
p2404
V0
p2405
tp2406
a(V$a
p2407
V800
p2408
tp2409
a(V$a1
p2410
V0
p2411
tp2412
a(V$x
p2413
V14
p2414
tp2415
a(V$y
p2416
V5
p2417
tp2418
a(V$select
p2419
V15
p2420
tp2421
a(V$r
p2422
V2
p2423
tp2424
a(V$s
p2425
V80
p2426
tp2427
aV2015-11-05 03:34:56
p2428
tp2429
a(VC(90,1)*(1/900)^1*(1-1/900)^(90-1)
p2430
V (0.1^1) * (1-0.1)^(90-1)
p2431
(lp2432
(S'R.0'
p2433
F0.1
VC(90,1)*(1/900)^1
p2434
V0.1^1
p2435
tp2436
a(S'R.1.1'
p2437
F89.0
V90-1
p2438
V90-1
p2439
tp2440
aVv4zhang
p2441
(lp2442
(V$j
p2443
V1
p2444
tp2445
a(V$k
p2446
V2
p2447
tp2448
a(V$a2
p2449
V0
p2450
tp2451
a(V$a
p2452
V900
p2453
tp2454
a(V$a1
p2455
V0
p2456
tp2457
a(V$x
p2458
V14
p2459
tp2460
a(V$y
p2461
V5
p2462
tp2463
a(V$select
p2464
V10
p2465
tp2466
a(V$r
p2467
V1
p2468
tp2469
a(V$s
p2470
V90
p2471
tp2472
aV2015-11-05 09:48:37
p2473
tp2474
a(VC(120,1)*(1/1200)^1*(1-1/1200)^(120-1)
p2475
V120 * 1/1200 * (1/1200)^119
p2476
(lp2477
(S'R.0'
p2478
F0.1
VC(120,1)*(1/1200)^1
p2479
V120 * 1/1200
p2480
tp2481
a(S'R.1.1'
p2482
F119.0
V120-1
p2483
V119
p2484
tp2485
aVanvan
p2486
g563
V2015-11-05 16:52:25
p2487
tp2488
a(g2475
V120 * (1/1200 )* (1/1200)^119
p2489
(lp2490
(S'R.0'
p2491
F0.1
VC(120,1)*(1/1200)^1
p2492
V120 * (1/1200 )
p2493
tp2494
a(S'R.1.1'
p2495
F119.0
V120-1
p2496
V119
p2497
tp2498
aVanvan
p2499
g563
V2015-11-05 16:52:38
p2500
tp2501
a(VC(110,1)*(1/1100)^1*(1-1/1100)^(110-1)
p2502
VC(110,1)*((1/1100)^1)*((1/1100)^109)
p2503
(lp2504
(S'R.0'
p2505
F0.1
VC(110,1)*(1/1100)^1
p2506
VC(110,1)*((1/1100)^1)
p2507
tp2508
a(S'R.1.1'
p2509
F109.0
V110-1
p2510
V109
p2511
tp2512
aVjap009
p2513
(lp2514
(V$j
p2515
V1
p2516
tp2517
a(V$k
p2518
V1
p2519
tp2520
a(V$a2
p2521
V0
p2522
tp2523
a(V$a
p2524
V1100
p2525
tp2526
a(V$a1
p2527
V0
p2528
tp2529
a(V$x
p2530
V12
p2531
tp2532
a(V$y
p2533
V5
p2534
tp2535
a(V$select
p2536
V12
p2537
tp2538
a(V$r
p2539
V2
p2540
tp2541
a(V$s
p2542
V110
p2543
tp2544
aV2015-11-05 18:38:38
p2545
tp2546
a(g2502
VP(110,1)*((1/1100)^1)*((1/1100)^109)
p2547
(lp2548
(S'R.0'
p2549
F0.1
VC(110,1)*(1/1100)^1
p2550
VP(110,1)*((1/1100)^1)
p2551
tp2552
a(S'R.1.1'
p2553
F109.0
V110-1
p2554
V109
p2555
tp2556
aVjap009
p2557
g2514
V2015-11-05 18:39:00
p2558
tp2559
a(g2502
VC(110,1)*((1/1100)^1)*((1/1100)^109)
p2560
(lp2561
(S'R.0'
p2562
F0.1
VC(110,1)*(1/1100)^1
p2563
VC(110,1)*((1/1100)^1)
p2564
tp2565
a(S'R.1.1'
p2566
F109.0
V110-1
p2567
V109
p2568
tp2569
aVjap009
p2570
g2514
V2015-11-05 18:40:47
p2571
tp2572
a(VC(100,1)*(1/1000)^1*(1-1/1000)^(100-1)
p2573
VC(100, 1)(1/1000)(9/1000)^99
p2574
(lp2575
(S'R.0'
p2576
F0.1
VC(100,1)*(1/1000)^1
p2577
VC(100, 1)(1/1000)
p2578
tp2579
a(S'R.1.1'
p2580
F99.0
V100-1
p2581
V99
p2582
tp2583
aVazkong
p2584
(lp2585
(V$j
p2586
V1
p2587
tp2588
a(V$k
p2589
V1
p2590
tp2591
a(V$a2
p2592
V0
p2593
tp2594
a(V$a
p2595
V1000
p2596
tp2597
a(V$a1
p2598
V0
p2599
tp2600
a(V$x
p2601
V14
p2602
tp2603
a(V$y
p2604
V5
p2605
tp2606
a(V$select
p2607
V11
p2608
tp2609
a(V$r
p2610
V2
p2611
tp2612
a(V$s
p2613
V100
p2614
tp2615
aV2015-11-06 19:35:52
p2616
tp2617
a(VC(120,2)*(1/1200)^2*(1-1/1200)^(120-2)
p2618
VC(120, 2) ((1/1200)^2)(0.995)^(118)
p2619
(lp2620
(S'R.0'
p2621
F0.0049583333333333346
VC(120,2)*(1/1200)^2
p2622
VC(120, 2) ((1/1200)^2)
p2623
tp2624
a(S'R.1.1'
p2625
F118.0
V120-2
p2626
V118
p2627
tp2628
aVv4sharma
p2629
(lp2630
(V$j
p2631
V2
p2632
tp2633
a(V$k
p2634
V2
p2635
tp2636
a(V$a2
p2637
V0
p2638
tp2639
a(V$a
p2640
V1200
p2641
tp2642
a(V$a1
p2643
V0
p2644
tp2645
a(V$x
p2646
V15
p2647
tp2648
a(V$y
p2649
V6
p2650
tp2651
a(V$select
p2652
V14
p2653
tp2654
a(V$r
p2655
V2
p2656
tp2657
a(V$s
p2658
V120
p2659
tp2660
aV2015-11-06 20:22:44
p2661
tp2662
asS"['R.1.0.1.1', 'R.1.1']"
p2663
(lp2664
(VC(110,2)*(1/1100)^2*(1-1/1100)^(110-2)
p2665
VC(110,2)*(1-110/1100)^108
p2666
(lp2667
(S'R.1.0.1.1'
p2668
F1100.0
V1100
p2669
V1100
p2670
tp2671
a(S'R.1.1'
p2672
F108.0
V110-2
p2673
V108
p2674
tp2675
aVvsamant
p2676
(lp2677
(V$j
p2678
V2
p2679
tp2680
a(V$k
p2681
V2
p2682
tp2683
a(V$a2
p2684
V0
p2685
tp2686
a(V$a
p2687
V1100
p2688
tp2689
a(V$a1
p2690
V0
p2691
tp2692
a(V$x
p2693
V14
p2694
tp2695
a(V$y
p2696
V6
p2697
tp2698
a(V$select
p2699
V12
p2700
tp2701
a(V$r
p2702
V1
p2703
tp2704
a(V$s
p2705
V110
p2706
tp2707
aV2015-11-05 03:38:48
p2708
tp2709
asS"['R.0', 'R.1.0']"
p2710
(lp2711
(VC(90,2)*(1/900)^2*(1-1/900)^(90-2)
p2712
VC(90, 2) *(.1/90)^2(1-(.1/90))^2
p2713
(lp2714
(S'R.0'
p2715
F0.004944444444444445
VC(90,2)*(1/900)^2
p2716
VC(90, 2) *(.1/90)^2
p2717
tp2718
a(S'R.1.0'
p2719
F0.9988888888888889
V1-1/900
p2720
V1-(.1/90)
p2721
tp2722
aVsghouse
p2723
(lp2724
(V$j
p2725
V2
p2726
tp2727
a(V$k
p2728
V1
p2729
tp2730
a(V$a2
p2731
V0
p2732
tp2733
a(V$a
p2734
V900
p2735
tp2736
a(V$a1
p2737
V0
p2738
tp2739
a(V$x
p2740
V13
p2741
tp2742
a(V$y
p2743
V6
p2744
tp2745
a(V$select
p2746
V12
p2747
tp2748
a(V$r
p2749
V2
p2750
tp2751
a(V$s
p2752
V90
p2753
tp2754
aV2015-11-04 20:33:57
p2755
tp2756
a(VC(110,1)*(1/1100)^1*(1-1/1100)^(110-1)
p2757
V110*(1/1100)*(1-1/1100)^1099
p2758
(lp2759
(S'R.0'
p2760
F0.1
VC(110,1)*(1/1100)^1
p2761
V110*(1/1100)
p2762
tp2763
a(S'R.1.0'
p2764
F0.9990909090909091
V1-1/1100
p2765
V1-1/1100
p2766
tp2767
aVwmiao
p2768
(lp2769
(V$j
p2770
V1
p2771
tp2772
a(V$k
p2773
V2
p2774
tp2775
a(V$a2
p2776
V0
p2777
tp2778
a(V$a
p2779
V1100
p2780
tp2781
a(V$a1
p2782
V0
p2783
tp2784
a(V$x
p2785
V15
p2786
tp2787
a(V$y
p2788
V5
p2789
tp2790
a(V$select
p2791
V10
p2792
tp2793
a(V$r
p2794
V1
p2795
tp2796
a(V$s
p2797
V110
p2798
tp2799
aV2015-11-04 20:44:08
p2800
tp2801
a(g2340
VC(90,2)*(1/900)^2*(899/900)^89
p2802
(lp2803
(S'R.0'
p2804
F0.004944444444444445
VC(90,2)*(1/900)^2
p2805
VC(90,2)*(1/900)^2
p2806
tp2807
a(S'R.1.0'
p2808
F0.9988888888888889
V1-1/900
p2809
V899/900
p2810
tp2811
aVkrau
p2812
g2352
V2015-11-05 03:06:57
p2813
tp2814
a(g1465
VC(110, 3)*[(1/1100)^(3)][(1099/1100)^(1100-3)]
p2815
(lp2816
(S'R.0'
p2817
F0.00016214876033057853
VC(110,3)*(1/1100)^3
p2818
VC(110, 3)*[(1/1100)^(3)]
p2819
tp2820
a(S'R.1.0'
p2821
F0.9990909090909091
V1-1/1100
p2822
V1099/1100
p2823
tp2824
aVdlt009
p2825
g1473
V2015-11-05 07:16:39
p2826
tp2827
a(VC(80,2)*(1/800)^2*(1-1/800)^(80-2)
p2828
VC(80,2)* ( (1/800)^2) * ( (1-1/800)^(80-800))
p2829
(lp2830
(S'R.0'
p2831
F0.0049375
VC(80,2)*(1/800)^2
p2832
VC(80,2)* ( (1/800)^2)
p2833
tp2834
a(S'R.1.0'
p2835
F0.99875
V1-1/800
p2836
V1-1/800
p2837
tp2838
aVtak068
p2839
(lp2840
(V$j
p2841
V2
p2842
tp2843
a(V$k
p2844
V1
p2845
tp2846
a(V$a2
p2847
V0
p2848
tp2849
a(V$a
p2850
V800
p2851
tp2852
a(V$a1
p2853
V0
p2854
tp2855
a(V$x
p2856
V14
p2857
tp2858
a(V$y
p2859
V5
p2860
tp2861
a(V$select
p2862
V15
p2863
tp2864
a(V$r
p2865
V2
p2866
tp2867
a(V$s
p2868
V80
p2869
tp2870
aV2015-11-05 21:03:07
p2871
tp2872
a(VC(100,2)*(1/1000)^2*(1-1/1000)^(100-2)
p2873
VC(100,2)(1/1000)**2(1-1/1000)**998
p2874
(lp2875
(S'R.0'
p2876
F0.0049499999999999995
VC(100,2)*(1/1000)^2
p2877
VC(100,2)(1/1000)**2
p2878
tp2879
a(S'R.1.0'
p2880
F0.999
V1-1/1000
p2881
V1-1/1000
p2882
tp2883
aVjtfrankl
p2884
(lp2885
(V$j
p2886
V2
p2887
tp2888
a(V$k
p2889
V2
p2890
tp2891
a(V$a2
p2892
V0
p2893
tp2894
a(V$a
p2895
V1000
p2896
tp2897
a(V$a1
p2898
V0
p2899
tp2900
a(V$x
p2901
V13
p2902
tp2903
a(V$y
p2904
V6
p2905
tp2906
a(V$select
p2907
V8
p2908
tp2909
a(V$r
p2910
V2
p2911
tp2912
a(V$s
p2913
V100
p2914
tp2915
aV2015-11-06 18:20:27
p2916
tp2917
a(VC(110,3)*(1/1100)^3*(1-1/1100)^(110-3)
p2918
VC(110,3)*(1/1100)^3*(1-(1/1100))^1097
p2919
(lp2920
(S'R.0'
p2921
F0.00016214876033057853
VC(110,3)*(1/1100)^3
p2922
VC(110,3)*(1/1100)^3
p2923
tp2924
a(S'R.1.0'
p2925
F0.9990909090909091
V1-1/1100
p2926
V1-(1/1100)
p2927
tp2928
aVk4ma
p2929
(lp2930
(V$j
p2931
V3
p2932
tp2933
a(V$k
p2934
V1
p2935
tp2936
a(V$a2
p2937
V0
p2938
tp2939
a(V$a
p2940
V1100
p2941
tp2942
a(V$a1
p2943
V0
p2944
tp2945
a(V$x
p2946
V15
p2947
tp2948
a(V$y
p2949
V6
p2950
tp2951
a(V$select
p2952
V15
p2953
tp2954
a(V$r
p2955
V2
p2956
tp2957
a(V$s
p2958
V110
p2959
tp2960
aV2015-11-06 20:48:36
p2961
tp2962
a(g971
VC(110,3)*(1/1100)^3*(1- 1/1100)^117
p2963
(lp2964
(S'R.0'
p2965
F0.00016214876033057853
VC(110,3)*(1/1100)^3
p2966
VC(110,3)*(1/1100)^3
p2967
tp2968
a(S'R.1.0'
p2969
F0.9990909090909091
V1-1/1100
p2970
V1- 1/1100
p2971
tp2972
aVawollner
p2973
g983
V2015-11-06 22:54:04
p2974
tp2975
a(VC(100,2)*(1/1000)^2*(1-1/1000)^(100-2)
p2976
VC(100,2)(1/1000)^2(1-1/1000)^99
p2977
(lp2978
(S'R.0'
p2979
F0.0049499999999999995
VC(100,2)*(1/1000)^2
p2980
VC(100,2)(1/1000)^2
p2981
tp2982
a(S'R.1.0'
p2983
F0.999
V1-1/1000
p2984
V1-1/1000
p2985
tp2986
aVyjshin
p2987
(lp2988
(V$j
p2989
V2
p2990
tp2991
a(V$k
p2992
V1
p2993
tp2994
a(V$a2
p2995
V0
p2996
tp2997
a(V$a
p2998
V1000
p2999
tp3000
a(V$a1
p3001
V0
p3002
tp3003
a(V$x
p3004
V13
p3005
tp3006
a(V$y
p3007
V6
p3008
tp3009
a(V$select
p3010
V8
p3011
tp3012
a(V$r
p3013
V1
p3014
tp3015
a(V$s
p3016
V100
p3017
tp3018
aV2015-11-06 23:44:27
p3019
tp3020
a(VC(120,1)*(1/1200)^1*(1-1/1200)^(120-1)
p3021
VC(120,1)(1/1200)(1 - 1/1200)^79
p3022
(lp3023
(S'R.0'
p3024
F0.1
VC(120,1)*(1/1200)^1
p3025
VC(120,1)(1/1200)
p3026
tp3027
a(S'R.1.0'
p3028
F0.9991666666666666
V1-1/1200
p3029
V1 - 1/1200
p3030
tp3031
aVdando
p3032
(lp3033
(V$j
p3034
V1
p3035
tp3036
a(V$k
p3037
V2
p3038
tp3039
a(V$a2
p3040
V0
p3041
tp3042
a(V$a
p3043
V1200
p3044
tp3045
a(V$a1
p3046
V0
p3047
tp3048
a(V$x
p3049
V12
p3050
tp3051
a(V$y
p3052
V6
p3053
tp3054
a(V$select
p3055
V10
p3056
tp3057
a(V$r
p3058
V1
p3059
tp3060
a(V$s
p3061
V120
p3062
tp3063
aV2015-11-07 00:29:21
p3064
tp3065
a(g2055
V4005(1/900)^2(1-1/900)^898
p3066
(lp3067
(S'R.0'
p3068
F0.004944444444444445
VC(90,2)*(1/900)^2
p3069
V4005(1/900)^2
p3070
tp3071
a(S'R.1.0'
p3072
F0.9988888888888889
V1-1/900
p3073
V1-1/900
p3074
tp3075
aVrohan
p3076
g97
V2015-11-07 00:44:40
p3077
tp3078
asS"['R.0', 'R.1.0.1.1', 'R.1.1']"
p3079
(lp3080
(VC(100,2)*(1/1000)^2*(1-1/1000)^(100-2)
p3081
VC(100,2)((100/1000)/100)^2(1-100/1000)^(100-2)
p3082
(lp3083
(S'R.0'
p3084
F0.0049499999999999995
VC(100,2)*(1/1000)^2
p3085
VC(100,2)((100/1000)/100)^2
p3086
tp3087
a(S'R.1.0.1.1'
p3088
F1000.0
V1000
p3089
V1000
p3090
tp3091
a(S'R.1.1'
p3092
F98.0
V100-2
p3093
V100-2
p3094
tp3095
aVb3hwang
p3096
(lp3097
(V$j
p3098
V2
p3099
tp3100
a(V$k
p3101
V1
p3102
tp3103
a(V$a2
p3104
V0
p3105
tp3106
a(V$a
p3107
V1000
p3108
tp3109
a(V$a1
p3110
V0
p3111
tp3112
a(V$x
p3113
V12
p3114
tp3115
a(V$y
p3116
V6
p3117
tp3118
a(V$select
p3119
V11
p3120
tp3121
a(V$r
p3122
V2
p3123
tp3124
a(V$s
p3125
V100
p3126
tp3127
aV2015-11-05 09:37:34
p3128
tp3129
a(VC(100,3)*(1/1000)^3*(1-1/1000)^(100-3)
p3130
VC(100,3)(0.001)^3 (1-9/1000)^(100-3)
p3131
(lp3132
(S'R.0'
p3133
F0.0001617
VC(100,3)*(1/1000)^3
p3134
VC(100,3)(0.001)^3
p3135
tp3136
a(S'R.1.0.1.1'
p3137
F1000.0
V1000
p3138
V1000
p3139
tp3140
a(S'R.1.1'
p3141
F97.0
V100-3
p3142
V100-3
p3143
tp3144
aVbkoli
p3145
(lp3146
(V$j
p3147
V3
p3148
tp3149
a(V$k
p3150
V1
p3151
tp3152
a(V$a2
p3153
V0
p3154
tp3155
a(V$a
p3156
V1000
p3157
tp3158
a(V$a1
p3159
V0
p3160
tp3161
a(V$x
p3162
V12
p3163
tp3164
a(V$y
p3165
V6
p3166
tp3167
a(V$select
p3168
V15
p3169
tp3170
a(V$r
p3171
V1
p3172
tp3173
a(V$s
p3174
V100
p3175
tp3176
aV2015-11-05 21:22:22
p3177
tp3178
asS"['R.0']"
p3179
(lp3180
(VC(90,1)*(1/900)^1*(1-1/900)^(90-1)
p3181
VC(1,1) * (0.1 ^ 1) * (0.9 ^ 1)
p3182
(lp3183
(S'R.0'
p3184
F0.1
VC(90,1)*(1/900)^1
p3185
VC(1,1) * (0.1 ^ 1)
p3186
tp3187
aVbeyounge
p3188
(lp3189
(V$j
p3190
V1
p3191
tp3192
a(V$k
p3193
V1
p3194
tp3195
a(V$a2
p3196
V0
p3197
tp3198
a(V$a
p3199
V900
p3200
tp3201
a(V$a1
p3202
V0
p3203
tp3204
a(V$x
p3205
V15
p3206
tp3207
a(V$y
p3208
V6
p3209
tp3210
a(V$select
p3211
V8
p3212
tp3213
a(V$r
p3214
V2
p3215
tp3216
a(V$s
p3217
V90
p3218
tp3219
aV2015-10-30 05:15:07
p3220
tp3221
a(g3021
V.1 * e^(-.1)
p3222
(lp3223
(S'R.0'
p3224
F0.1
VC(120,1)*(1/1200)^1
p3225
V.1 
p3226
tp3227
aVdando
p3228
g3033
V2015-11-03 20:10:08
p3229
tp3230
a(VC(100,1)*(1/1000)^1*(1-1/1000)^(100-1)
p3231
V.1*100
p3232
(lp3233
(S'R.0'
p3234
F0.1
VC(100,1)*(1/1000)^1
p3235
V.1*
p3236
tp3237
aVsayao
p3238
(lp3239
(V$j
p3240
V1
p3241
tp3242
a(V$k
p3243
V2
p3244
tp3245
a(V$a2
p3246
V0
p3247
tp3248
a(V$a
p3249
V1000
p3250
tp3251
a(V$a1
p3252
V0
p3253
tp3254
a(V$x
p3255
V14
p3256
tp3257
a(V$y
p3258
V5
p3259
tp3260
a(V$select
p3261
V12
p3262
tp3263
a(V$r
p3264
V2
p3265
tp3266
a(V$s
p3267
V100
p3268
tp3269
aV2015-11-04 01:13:55
p3270
tp3271
a(g3231
V.1/100
p3272
(lp3273
(S'R.0'
p3274
F0.1
VC(100,1)*(1/1000)^1
p3275
V.1/
p3276
tp3277
aVsayao
p3278
g3239
V2015-11-04 01:14:04
p3279
tp3280
a(VC(100,1)*(1/1000)^1*(1-1/1000)^(100-1)
p3281
V(1/10)^100
p3282
(lp3283
(S'R.0'
p3284
F0.1
VC(100,1)*(1/1000)^1
p3285
V1/10
p3286
tp3287
aVtcn013
p3288
(lp3289
(V$j
p3290
V1
p3291
tp3292
a(V$k
p3293
V2
p3294
tp3295
a(V$a2
p3296
V0
p3297
tp3298
a(V$a
p3299
V1000
p3300
tp3301
a(V$a1
p3302
V0
p3303
tp3304
a(V$x
p3305
V13
p3306
tp3307
a(V$y
p3308
V6
p3309
tp3310
a(V$select
p3311
V11
p3312
tp3313
a(V$r
p3314
V1
p3315
tp3316
a(V$s
p3317
V100
p3318
tp3319
aV2015-11-04 01:58:44
p3320
tp3321
a(VC(80,1)*(1/800)^1*(1-1/800)^(80-1)
p3322
V(1/10) * (1 - (1/10))
p3323
(lp3324
(S'R.0'
p3325
F0.1
VC(80,1)*(1/800)^1
p3326
V1/10
p3327
tp3328
aVdruble
p3329
(lp3330
(V$j
p3331
V1
p3332
tp3333
a(V$k
p3334
V2
p3335
tp3336
a(V$a2
p3337
V0
p3338
tp3339
a(V$a
p3340
V800
p3341
tp3342
a(V$a1
p3343
V0
p3344
tp3345
a(V$x
p3346
V13
p3347
tp3348
a(V$y
p3349
V6
p3350
tp3351
a(V$select
p3352
V10
p3353
tp3354
a(V$r
p3355
V1
p3356
tp3357
a(V$s
p3358
V80
p3359
tp3360
aV2015-11-04 04:40:37
p3361
tp3362
a(g3322
VC(80,1) * (1/800) * (1-(1/800))
p3363
(lp3364
(S'R.0'
p3365
F0.1
VC(80,1)*(1/800)^1
p3366
VC(80,1) * (1/800)
p3367
tp3368
aVdruble
p3369
g3330
V2015-11-04 04:57:52
p3370
tp3371
a(g1233
V(100/1000)*(1-(100/1000))
p3372
(lp3373
(S'R.0'
p3374
F0.1
VC(100,1)*(1/1000)^1
p3375
V100/1000
p3376
tp3377
aVlywong
p3378
g1241
V2015-11-04 18:53:56
p3379
tp3380
a(VC(80,1)*(1/800)^1*(1-1/800)^(80-1)
p3381
V.1*80
p3382
(lp3383
(S'R.0'
p3384
F0.1
VC(80,1)*(1/800)^1
p3385
V.1*
p3386
tp3387
aVkbielawi
p3388
(lp3389
(V$j
p3390
V1
p3391
tp3392
a(V$k
p3393
V1
p3394
tp3395
a(V$a2
p3396
V0
p3397
tp3398
a(V$a
p3399
V800
p3400
tp3401
a(V$a1
p3402
V0
p3403
tp3404
a(V$x
p3405
V14
p3406
tp3407
a(V$y
p3408
V5
p3409
tp3410
a(V$select
p3411
V15
p3412
tp3413
a(V$r
p3414
V1
p3415
tp3416
a(V$s
p3417
V80
p3418
tp3419
aV2015-11-04 19:48:46
p3420
tp3421
a(VC(90,1)*(1/900)^1*(1-1/900)^(90-1)
p3422
V0.1^1(1-0.1)^(10-1)
p3423
(lp3424
(S'R.0'
p3425
F0.1
VC(90,1)*(1/900)^1
p3426
V0.1^1
p3427
tp3428
aVjel075
p3429
(lp3430
(V$j
p3431
V1
p3432
tp3433
a(V$k
p3434
V2
p3435
tp3436
a(V$a2
p3437
V0
p3438
tp3439
a(V$a
p3440
V900
p3441
tp3442
a(V$a1
p3443
V0
p3444
tp3445
a(V$x
p3446
V14
p3447
tp3448
a(V$y
p3449
V5
p3450
tp3451
a(V$select
p3452
V12
p3453
tp3454
a(V$r
p3455
V1
p3456
tp3457
a(V$s
p3458
V90
p3459
tp3460
aV2015-11-04 23:59:04
p3461
tp3462
a(g3422
V(1/10)^10
p3463
(lp3464
(S'R.0'
p3465
F0.1
VC(90,1)*(1/900)^1
p3466
V1/10
p3467
tp3468
aVjel075
p3469
g3430
V2015-11-05 01:22:28
p3470
tp3471
a(g2340
VC(90,2)*(1/900)^2*(898/900)^89
p3472
(lp3473
(S'R.0'
p3474
F0.004944444444444445
VC(90,2)*(1/900)^2
p3475
VC(90,2)*(1/900)^2
p3476
tp3477
aVkrau
p3478
g2352
V2015-11-05 03:07:08
p3479
tp3480
a(g2250
V0.1/90
p3481
(lp3482
(S'R.0'
p3483
F0.1
VC(90,1)*(1/900)^1
p3484
V0.1
p3485
tp3486
aVyeh013
p3487
g2262
V2015-11-05 03:20:35
p3488
tp3489
a(g2250
V0.1*90
p3490
(lp3491
(S'R.0'
p3492
F0.1
VC(90,1)*(1/900)^1
p3493
V0.1
p3494
tp3495
aVyeh013
p3496
g2262
V2015-11-05 03:20:48
p3497
tp3498
a(VC(110,1)*(1/1100)^1*(1-1/1100)^(110-1)
p3499
V0.1*0.9^9
p3500
(lp3501
(S'R.0'
p3502
F0.1
VC(110,1)*(1/1100)^1
p3503
V0.1
p3504
tp3505
aVjit002
p3506
(lp3507
(V$j
p3508
V1
p3509
tp3510
a(V$k
p3511
V1
p3512
tp3513
a(V$a2
p3514
V0
p3515
tp3516
a(V$a
p3517
V1100
p3518
tp3519
a(V$a1
p3520
V0
p3521
tp3522
a(V$x
p3523
V15
p3524
tp3525
a(V$y
p3526
V5
p3527
tp3528
a(V$select
p3529
V14
p3530
tp3531
a(V$r
p3532
V1
p3533
tp3534
a(V$s
p3535
V110
p3536
tp3537
aV2015-11-05 03:29:07
p3538
tp3539
a(VC(110,1)*(1/1100)^1*(1-1/1100)^(110-1)
p3540
V.1e^(-.1)
p3541
(lp3542
(S'R.0'
p3543
F0.1
VC(110,1)*(1/1100)^1
p3544
V.1e
p3545
tp3546
aVs6deng
p3547
(lp3548
(V$j
p3549
V1
p3550
tp3551
a(V$k
p3552
V1
p3553
tp3554
a(V$a2
p3555
V0
p3556
tp3557
a(V$a
p3558
V1100
p3559
tp3560
a(V$a1
p3561
V0
p3562
tp3563
a(V$x
p3564
V12
p3565
tp3566
a(V$y
p3567
V5
p3568
tp3569
a(V$select
p3570
V13
p3571
tp3572
a(V$r
p3573
V1
p3574
tp3575
a(V$s
p3576
V110
p3577
tp3578
aV2015-11-05 06:56:15
p3579
tp3580
a(VC(120,1)*(1/1200)^1*(1-1/1200)^(120-1)
p3581
VC(120,1)(1/1200)^1(1-1/1200)
p3582
(lp3583
(S'R.0'
p3584
F0.1
VC(120,1)*(1/1200)^1
p3585
VC(120,1)(1/1200)^1
p3586
tp3587
aVskodigal
p3588
(lp3589
(V$j
p3590
V1
p3591
tp3592
a(V$k
p3593
V1
p3594
tp3595
a(V$a2
p3596
V0
p3597
tp3598
a(V$a
p3599
V1200
p3600
tp3601
a(V$a1
p3602
V0
p3603
tp3604
a(V$x
p3605
V13
p3606
tp3607
a(V$y
p3608
V6
p3609
tp3610
a(V$select
p3611
V13
p3612
tp3613
a(V$r
p3614
V1
p3615
tp3616
a(V$s
p3617
V120
p3618
tp3619
aV2015-11-05 09:03:05
p3620
tp3621
a(g2502
V(.1^110)
p3622
(lp3623
(S'R.0'
p3624
F0.1
VC(110,1)*(1/1100)^1
p3625
V.1^
p3626
tp3627
aVjap009
p3628
g2514
V2015-11-05 18:32:01
p3629
tp3630
a(VC(80,1)*(1/800)^1*(1-1/800)^(80-1)
p3631
V.1*800
p3632
(lp3633
(S'R.0'
p3634
F0.1
VC(80,1)*(1/800)^1
p3635
V.1*
p3636
tp3637
aVvsosnovs
p3638
(lp3639
(V$j
p3640
V1
p3641
tp3642
a(V$k
p3643
V1
p3644
tp3645
a(V$a2
p3646
V0
p3647
tp3648
a(V$a
p3649
V800
p3650
tp3651
a(V$a1
p3652
V0
p3653
tp3654
a(V$x
p3655
V13
p3656
tp3657
a(V$y
p3658
V5
p3659
tp3660
a(V$select
p3661
V14
p3662
tp3663
a(V$r
p3664
V2
p3665
tp3666
a(V$s
p3667
V80
p3668
tp3669
aV2015-11-05 20:41:02
p3670
tp3671
a(g3631
V.1*80
p3672
(lp3673
(S'R.0'
p3674
F0.1
VC(80,1)*(1/800)^1
p3675
V.1*
p3676
tp3677
aVvsosnovs
p3678
g3639
V2015-11-05 20:42:38
p3679
tp3680
a(g3631
V(.1^1)(e^-.1)/1!
p3681
(lp3682
(S'R.0'
p3683
F0.1
VC(80,1)*(1/800)^1
p3684
V.1^1
p3685
tp3686
aVvsosnovs
p3687
g3639
V2015-11-05 20:43:22
p3688
tp3689
a(VC(90,1)*(1/900)^1*(1-1/900)^(90-1)
p3690
V(1/10)(9/10)^9
p3691
(lp3692
(S'R.0'
p3693
F0.1
VC(90,1)*(1/900)^1
p3694
V1/10
p3695
tp3696
aVkthui
p3697
(lp3698
(V$j
p3699
V1
p3700
tp3701
a(V$k
p3702
V1
p3703
tp3704
a(V$a2
p3705
V0
p3706
tp3707
a(V$a
p3708
V900
p3709
tp3710
a(V$a1
p3711
V0
p3712
tp3713
a(V$x
p3714
V15
p3715
tp3716
a(V$y
p3717
V6
p3718
tp3719
a(V$select
p3720
V12
p3721
tp3722
a(V$r
p3723
V2
p3724
tp3725
a(V$s
p3726
V90
p3727
tp3728
aV2015-11-06 01:57:31
p3729
tp3730
a(VC(90,1)*(1/900)^1*(1-1/900)^(90-1)
p3731
V(90/900)/900
p3732
(lp3733
(S'R.0'
p3734
F0.1
VC(90,1)*(1/900)^1
p3735
V90/900
p3736
tp3737
aVw4shin
p3738
(lp3739
(V$j
p3740
V1
p3741
tp3742
a(V$k
p3743
V2
p3744
tp3745
a(V$a2
p3746
V0
p3747
tp3748
a(V$a
p3749
V900
p3750
tp3751
a(V$a1
p3752
V0
p3753
tp3754
a(V$x
p3755
V14
p3756
tp3757
a(V$y
p3758
V5
p3759
tp3760
a(V$select
p3761
V10
p3762
tp3763
a(V$r
p3764
V1
p3765
tp3766
a(V$s
p3767
V90
p3768
tp3769
aV2015-11-06 22:30:48
p3770
tp3771
a(g971
VC(110,3)*(1/1100)^3*(1/1100)^117
p3772
(lp3773
(S'R.0'
p3774
F0.00016214876033057853
VC(110,3)*(1/1100)^3
p3775
VC(110,3)*(1/1100)^3
p3776
tp3777
aVawollner
p3778
g983
V2015-11-06 22:52:18
p3779
tp3780
asS"['R.1.1.1']"
p3781
(lp3782
(VC(100,2)*(1/1000)^2*(1-1/1000)^(100-2)
p3783
V1 -(100!/(98!(2!))((9/10)^98)((1/10)^2))
p3784
(lp3785
(S'R.1.1.1'
p3786
F2.0
g94
g94
tp3787
aVlpettit
p3788
(lp3789
(V$j
p3790
V2
p3791
tp3792
a(V$k
p3793
V1
p3794
tp3795
a(V$a2
p3796
V0
p3797
tp3798
a(V$a
p3799
V1000
p3800
tp3801
a(V$a1
p3802
V0
p3803
tp3804
a(V$x
p3805
V12
p3806
tp3807
a(V$y
p3808
V6
p3809
tp3810
a(V$select
p3811
V9
p3812
tp3813
a(V$r
p3814
V2
p3815
tp3816
a(V$s
p3817
V100
p3818
tp3819
aV2015-11-06 22:37:23
p3820
tp3821
asg6
(lp3822
(g2205
V10
p3823
tp3824
a(VC(110,3)*(1/1100)^3*(1-1/1100)^(110-3)
p3825
V30
p3826
tp3827
a(g3825
V330
p3828
tp3829
a(g3825
V330
p3830
tp3831
a(VC(100,2)*(1/1000)^2*(1-1/1000)^(100-2)
p3832
V0
p3833
tp3834
a(VC(100,1)*(1/1000)^1*(1-1/1000)^(100-1)
p3835
V0
p3836
tp3837
a(VC(90,3)*(1/900)^3*(1-1/900)^(90-3)
p3838
V0
p3839
tp3840
a(g3231
V1
p3841
tp3842
a(VC(90,2)*(1/900)^2*(1-1/900)^(90-2)
p3843
V180
p3844
tp3845
a(g3843
V2
p3846
tp3847
a(g3843
V200
p3848
tp3849
a(g3843
V81
p3850
tp3851
a(VC(110,3)*(1/1100)^3*(1-1/1100)^(110-3)
p3852
V330
p3853
tp3854
a(VC(120,1)*(1/1200)^1*(1-1/1200)^(120-1)
p3855
V10
p3856
tp3857
a(g2250
V0
p3858
tp3859
a(VC(90,1)*(1/900)^1*(1-1/900)^(90-1)
p3860
V10
p3861
tp3862
a(g3860
V0
p3863
tp3864
a(g3631
V1
p3865
tp3866
a(g3631
V0
p3867
tp3868
a(VC(120,1)*(1/1200)^1*(1-1/1200)^(120-1)
p3869
V1
p3870
tp3871
a(g3860
V0
p3872
tp3873
a(g3381
V1
p3874
tp3875
a(g2055
V20
p3876
tp3877
asS"['R.0.0']"
p3878
(lp3879
(VC(100,2)*(1/1000)^2*(1-1/1000)^(100-2)
p3880
V(9900/2)(1/1000)(1-(1/1000))
p3881
(lp3882
(S'R.0.0'
p3883
I4950
VC(100,2)
p3884
V9900/2
p3885
tp3886
aVj2phung
p3887
(lp3888
(V$j
p3889
V2
p3890
tp3891
a(V$k
p3892
V2
p3893
tp3894
a(V$a2
p3895
V0
p3896
tp3897
a(V$a
p3898
V1000
p3899
tp3900
a(V$a1
p3901
V0
p3902
tp3903
a(V$x
p3904
V14
p3905
tp3906
a(V$y
p3907
V6
p3908
tp3909
a(V$select
p3910
V11
p3911
tp3912
a(V$r
p3913
V2
p3914
tp3915
a(V$s
p3916
V100
p3917
tp3918
aV2015-11-03 22:38:48
p3919
tp3920
a(g2712
VC(90, 2) *.1^2(1-.1)^2
p3921
(lp3922
(S'R.0.0'
p3923
I4005
VC(90,2)
p3924
VC(90, 2)
p3925
tp3926
aVsghouse
p3927
g2724
V2015-11-04 20:32:19
p3928
tp3929
a(g2295
V(80!)/(77!*3!) * .9^77 * .1^3
p3930
(lp3931
(S'R.0.0'
p3932
I82160
VC(80,3)
p3933
V(80!)/(77!*3!)
p3934
tp3935
aVstarinia
p3936
g2307
V2015-11-04 22:03:06
p3937
tp3938
a(VC(80,3)*(1/800)^3*(1-1/800)^(80-3)
p3939
VC(80, 3)*(1-0.1)^(80-2)(0.1^2)
p3940
(lp3941
(S'R.0.0'
p3942
I82160
VC(80,3)
p3943
VC(80, 3)
p3944
tp3945
aVsyc078
p3946
(lp3947
(V$j
p3948
V3
p3949
tp3950
a(V$k
p3951
V2
p3952
tp3953
a(V$a2
p3954
V0
p3955
tp3956
a(V$a
p3957
V800
p3958
tp3959
a(V$a1
p3960
V0
p3961
tp3962
a(V$x
p3963
V12
p3964
tp3965
a(V$y
p3966
V5
p3967
tp3968
a(V$select
p3969
V13
p3970
tp3971
a(V$r
p3972
V1
p3973
tp3974
a(V$s
p3975
V80
p3976
tp3977
aV2015-11-05 03:39:23
p3978
tp3979
a(g3852
VC(110,3)(1-0.1)^108(0.1)^3
p3980
(lp3981
(S'R.0.0'
p3982
I215820
VC(110,3)
p3983
VC(110,3)
p3984
tp3985
aVtpmach
p3986
(lp3987
(V$j
p3988
V3
p3989
tp3990
a(V$k
p3991
V1
p3992
tp3993
a(V$a2
p3994
V0
p3995
tp3996
a(V$a
p3997
V1100
p3998
tp3999
a(V$a1
p4000
V0
p4001
tp4002
a(V$x
p4003
V14
p4004
tp4005
a(V$y
p4006
V5
p4007
tp4008
a(V$select
p4009
V10
p4010
tp4011
a(V$r
p4012
V1
p4013
tp4014
a(V$s
p4015
V110
p4016
tp4017
aV2015-11-05 03:39:29
p4018
tp4019
a(g3939
VC(80, 3)*(1-0.1)^(80-3)(0.1^3)
p4020
(lp4021
(S'R.0.0'
p4022
I82160
VC(80,3)
p4023
VC(80, 3)
p4024
tp4025
aVsyc078
p4026
g3947
V2015-11-05 03:40:21
p4027
tp4028
a(g3939
VC(80, 3)*(1-0.1)^(80-3)(0.1^2)
p4029
(lp4030
(S'R.0.0'
p4031
I82160
VC(80,3)
p4032
VC(80, 3)
p4033
tp4034
aVsyc078
p4035
g3947
V2015-11-05 03:41:10
p4036
tp4037
a(g3939
VC(80, 3)*(1-0.1)^(80-3)(0.1^3)
p4038
(lp4039
(S'R.0.0'
p4040
I82160
VC(80,3)
p4041
VC(80, 3)
p4042
tp4043
aVsyc078
p4044
g3947
V2015-11-05 03:41:15
p4045
tp4046
a(g2080
VC(80,2)*(1-0.1)^78*0.1^2
p4047
(lp4048
(S'R.0.0'
p4049
I3160
VC(80,2)
p4050
VC(80,2)
p4051
tp4052
aVc4du
p4053
g2088
V2015-11-05 03:41:40
p4054
tp4055
a(VC(120,3)*(1/1200)^3*(1-1/1200)^(120-3)
p4056
VC ( 120, 117) .1 ^ 117 (1 - .1) ^ (120 - 117)
p4057
(lp4058
(S'R.0.0'
p4059
I280840
VC(120,3)
p4060
VC ( 120, 117)
p4061
tp4062
aVv3doan
p4063
g766
V2015-11-05 05:06:01
p4064
tp4065
a(g3081
VC(100,2)(100/1000)^2(1-100/1000)^2
p4066
(lp4067
(S'R.0.0'
p4068
I4950
VC(100,2)
p4069
VC(100,2)
p4070
tp4071
aVb3hwang
p4072
g3097
V2015-11-05 08:35:01
p4073
tp4074
a(VC(80,3)*(1/800)^3*(1-1/800)^(80-3)
p4075
VC(80,3)(3/800)(1-(3/800))^79
p4076
(lp4077
(S'R.0.0'
p4078
I82160
VC(80,3)
p4079
VC(80,3)
p4080
tp4081
aVc3chung
p4082
(lp4083
(V$j
p4084
V3
p4085
tp4086
a(V$k
p4087
V1
p4088
tp4089
a(V$a2
p4090
V0
p4091
tp4092
a(V$a
p4093
V800
p4094
tp4095
a(V$a1
p4096
V0
p4097
tp4098
a(V$x
p4099
V12
p4100
tp4101
a(V$y
p4102
V5
p4103
tp4104
a(V$select
p4105
V11
p4106
tp4107
a(V$r
p4108
V1
p4109
tp4110
a(V$s
p4111
V80
p4112
tp4113
aV2015-11-06 10:37:02
p4114
tp4115
a(VC(100,2)*(1/1000)^2*(1-1/1000)^(100-2)
p4116
VC(100,2)*((1-(1/10))^(100-2))*(1/10)^2
p4117
(lp4118
(S'R.0.0'
p4119
I4950
VC(100,2)
p4120
VC(100,2)
p4121
tp4122
aVarvenega
p4123
(lp4124
(V$j
p4125
V2
p4126
tp4127
a(V$k
p4128
V1
p4129
tp4130
a(V$a2
p4131
V0
p4132
tp4133
a(V$a
p4134
V1000
p4135
tp4136
a(V$a1
p4137
V0
p4138
tp4139
a(V$x
p4140
V12
p4141
tp4142
a(V$y
p4143
V5
p4144
tp4145
a(V$select
p4146
V15
p4147
tp4148
a(V$r
p4149
V1
p4150
tp4151
a(V$s
p4152
V100
p4153
tp4154
aV2015-11-06 16:06:47
p4155
tp4156
a(g3843
VC(90,2)((1-1/90)^88)((1/90)^2)
p4157
(lp4158
(S'R.0.0'
p4159
I4005
VC(90,2)
p4160
VC(90,2)
p4161
tp4162
aVjhw015
p4163
(lp4164
(V$j
p4165
V2
p4166
tp4167
a(V$k
p4168
V2
p4169
tp4170
a(V$a2
p4171
V0
p4172
tp4173
a(V$a
p4174
V900
p4175
tp4176
a(V$a1
p4177
V0
p4178
tp4179
a(V$x
p4180
V14
p4181
tp4182
a(V$y
p4183
V6
p4184
tp4185
a(V$select
p4186
V14
p4187
tp4188
a(V$r
p4189
V2
p4190
tp4191
a(V$s
p4192
V90
p4193
tp4194
aV2015-11-06 18:03:18
p4195
tp4196
a(g2873
VC(100,2)(1/10)(1-1/10)**998
p4197
(lp4198
(S'R.0.0'
p4199
I4950
VC(100,2)
p4200
VC(100,2)
p4201
tp4202
aVjtfrankl
p4203
g2885
V2015-11-06 18:16:59
p4204
tp4205
a(VC(100,2)*(1/1000)^2*(1-1/1000)^(100-2)
p4206
VC(100,2) * (1/100) * (99/100)
p4207
(lp4208
(S'R.0.0'
p4209
I4950
VC(100,2)
p4210
VC(100,2)
p4211
tp4212
aVrraiyyan
p4213
(lp4214
(V$j
p4215
V2
p4216
tp4217
a(V$k
p4218
V2
p4219
tp4220
a(V$a2
p4221
V0
p4222
tp4223
a(V$a
p4224
V1000
p4225
tp4226
a(V$a1
p4227
V0
p4228
tp4229
a(V$x
p4230
V12
p4231
tp4232
a(V$y
p4233
V5
p4234
tp4235
a(V$select
p4236
V13
p4237
tp4238
a(V$r
p4239
V1
p4240
tp4241
a(V$s
p4242
V100
p4243
tp4244
aV2015-11-06 21:06:07
p4245
tp4246
a(g3783
V(4950)(0.01)((9/10)^2)
p4247
(lp4248
(S'R.0.0'
p4249
I4950
VC(100,2)
p4250
V4950
p4251
tp4252
aVlpettit
p4253
g3789
V2015-11-06 22:30:56
p4254
tp4255
a(g1274
VC(90,2) * (1/900) * (899/900)
p4256
(lp4257
(S'R.0.0'
p4258
I4005
VC(90,2)
p4259
VC(90,2)
p4260
tp4261
aVbmilton
p4262
g1282
V2015-11-06 22:33:02
p4263
tp4264
a(g3783
V(100!/(98!(2!))((9/10)^98)((1/10)^2))
p4265
(lp4266
(S'R.0.0'
p4267
I4950
VC(100,2)
p4268
V100!/(98!(2!))
p4269
tp4270
aVlpettit
p4271
g3789
V2015-11-06 22:37:45
p4272
tp4273
a(g971
VC(110,3)*(110/1100)^3*(.9)^117
p4274
(lp4275
(S'R.0.0'
p4276
I215820
VC(110,3)
p4277
VC(110,3)
p4278
tp4279
aVawollner
p4280
g983
V2015-11-06 22:50:42
p4281
tp4282
a(g971
VC(110,3)*(.1)^3*(.9)^117
p4283
(lp4284
(S'R.0.0'
p4285
I215820
VC(110,3)
p4286
VC(110,3)
p4287
tp4288
aVawollner
p4289
g983
V2015-11-06 22:50:57
p4290
tp4291
a(g971
VC(110,3)*(1110/1100)^3*(1110/1100)^117
p4292
(lp4293
(S'R.0.0'
p4294
I215820
VC(110,3)
p4295
VC(110,3)
p4296
tp4297
aVawollner
p4298
g983
V2015-11-06 22:52:30
p4299
tp4300
a(g971
VC(110,3)*(110/1100)^3*(110/1100)^117
p4301
(lp4302
(S'R.0.0'
p4303
I215820
VC(110,3)
p4304
VC(110,3)
p4305
tp4306
aVawollner
p4307
g983
V2015-11-06 22:52:42
p4308
tp4309
a(g2055
VC(90,2)(2/900)(1-2/900)^89
p4310
(lp4311
(S'R.0.0'
p4312
I4005
VC(90,2)
p4313
VC(90,2)
p4314
tp4315
aVrohan
p4316
g97
V2015-11-06 22:59:02
p4317
tp4318
asS"['R.1.0']"
p4319
(lp4320
(g2205
VC(90,1)((899/900)^1)*(1/899)^89
p4321
(lp4322
(S'R.1.0'
p4323
F0.9988888888888889
V1-1/900
p4324
V(899/900)^1
p4325
tp4326
aVmtrafeca
p4327
g2217
V2015-11-02 01:45:11
p4328
tp4329
a(VC(120,3)*(1/1200)^3*(1-1/1200)^(120-3)
p4330
VC(1200, 120)*(1/1200)^120*(1-1/1200)^(1200-120)
p4331
(lp4332
(S'R.1.0'
p4333
F0.9991666666666666
V1-1/1200
p4334
V1-1/1200
p4335
tp4336
aVctgraves
p4337
(lp4338
(V$j
p4339
V3
p4340
tp4341
a(V$k
p4342
V2
p4343
tp4344
a(V$a2
p4345
V0
p4346
tp4347
a(V$a
p4348
V1200
p4349
tp4350
a(V$a1
p4351
V0
p4352
tp4353
a(V$x
p4354
V15
p4355
tp4356
a(V$y
p4357
V6
p4358
tp4359
a(V$select
p4360
V14
p4361
tp4362
a(V$r
p4363
V2
p4364
tp4365
a(V$s
p4366
V120
p4367
tp4368
aV2015-11-03 05:14:41
p4369
tp4370
a(g1100
VC(3*120,120)*(1/1200)^(120)*(1-(1/1200))^(3*120-120)
p4371
(lp4372
(S'R.1.0'
p4373
F0.9991666666666666
V1-1/1200
p4374
V1-(1/1200)
p4375
tp4376
aVttimmons
p4377
g1108
V2015-11-03 18:23:56
p4378
tp4379
a(g2757
V1100*(1/1100)*(1-1/1100)^1099
p4380
(lp4381
(S'R.1.0'
p4382
F0.9990909090909091
V1-1/1100
p4383
V1-1/1100
p4384
tp4385
aVwmiao
p4386
g2769
V2015-11-04 20:41:18
p4387
tp4388
a(g3499
VC(1100,110)*(1/1100)^110*0(1-1/1100)^(1100-110)
p4389
(lp4390
(S'R.1.0'
p4391
F0.9990909090909091
V1-1/1100
p4392
V1-1/1100
p4393
tp4394
aVjit002
p4395
g3507
V2015-11-05 03:33:36
p4396
tp4397
a(g3499
VC(1100,110)*(1/1100)^110*(1-1/1100)^(1100-110)
p4398
(lp4399
(S'R.1.0'
p4400
F0.9990909090909091
V1-1/1100
p4401
V1-1/1100
p4402
tp4403
aVjit002
p4404
g3507
V2015-11-05 03:35:05
p4405
tp4406
a(g1506
V(1/1200)^118(1199/1200)^(2)
p4407
(lp4408
(S'R.1.0'
p4409
F0.9991666666666666
V1-1/1200
p4410
V1199/1200
p4411
tp4412
aVmhale
p4413
g1514
V2015-11-05 20:00:17
p4414
tp4415
a(g1615
V120!/119!*(1/1200) *(1-(1/1200))^119
p4416
(lp4417
(S'R.1.0'
p4418
F0.9991666666666666
V1-1/1200
p4419
V1-(1/1200)
p4420
tp4421
aVytc012
p4422
g1623
V2015-11-05 21:58:00
p4423
tp4424
a(g1615
V120!/119!*(1/1200) *(1-(1/1200))^119
p4425
(lp4426
(S'R.1.0'
p4427
F0.9991666666666666
V1-1/1200
p4428
V1-(1/1200)
p4429
tp4430
aVytc012
p4431
g1623
V2015-11-05 21:59:16
p4432
tp4433
a(g1615
V120!/118! * (1/1200) * (1-(1/1200))^(119)
p4434
(lp4435
(S'R.1.0'
p4436
F0.9991666666666666
V1-1/1200
p4437
V1-(1/1200)
p4438
tp4439
aVytc012
p4440
g1623
V2015-11-05 23:17:25
p4441
tp4442
a(g1615
V118!/117! * (1/1200) * (1-(1/1200))^(117)
p4443
(lp4444
(S'R.1.0'
p4445
F0.9991666666666666
V1-1/1200
p4446
V1-(1/1200)
p4447
tp4448
aVytc012
p4449
g1623
V2015-11-05 23:19:40
p4450
tp4451
a(g1913
VC(90,1)* ( (1/900)^1) * ( (1-1/900)^(90-1) )
p4452
(lp4453
(S'R.1.0'
p4454
F0.9988888888888889
V1-1/900
p4455
V1-1/900
p4456
tp4457
aVbpandayk
p4458
g1925
V2015-11-06 00:42:52
p4459
tp4460
a(g4075
VC(80,1)(1/800)(1-(1/800))^79
p4461
(lp4462
(S'R.1.0'
p4463
F0.99875
V1-1/800
p4464
V1-(1/800)
p4465
tp4466
aVc3chung
p4467
g4083
V2015-11-06 10:35:29
p4468
tp4469
a(VC(90,1)*(1/900)^1*(1-1/900)^(90-1)
p4470
VC(900,1) * (1/900) * (899/900)^899
p4471
(lp4472
(S'R.1.0'
p4473
F0.9988888888888889
V1-1/900
p4474
V899/900
p4475
tp4476
aVavasavad
p4477
(lp4478
(V$j
p4479
V1
p4480
tp4481
a(V$k
p4482
V1
p4483
tp4484
a(V$a2
p4485
V0
p4486
tp4487
a(V$a
p4488
V900
p4489
tp4490
a(V$a1
p4491
V0
p4492
tp4493
a(V$x
p4494
V13
p4495
tp4496
a(V$y
p4497
V6
p4498
tp4499
a(V$select
p4500
V8
p4501
tp4502
a(V$r
p4503
V1
p4504
tp4505
a(V$s
p4506
V90
p4507
tp4508
aV2015-11-06 12:15:50
p4509
tp4510
a(VC(100,1)*(1/1000)^1*(1-1/1000)^(100-1)
p4511
VC(1000,1)(1/1000)(1-1/1000)^0
p4512
(lp4513
(S'R.1.0'
p4514
F0.999
V1-1/1000
p4515
V1-1/1000
p4516
tp4517
aVtstevens
p4518
(lp4519
(V$j
p4520
V1
p4521
tp4522
a(V$k
p4523
V2
p4524
tp4525
a(V$a2
p4526
V0
p4527
tp4528
a(V$a
p4529
V1000
p4530
tp4531
a(V$a1
p4532
V0
p4533
tp4534
a(V$x
p4535
V15
p4536
tp4537
a(V$y
p4538
V5
p4539
tp4540
a(V$select
p4541
V11
p4542
tp4543
a(V$r
p4544
V2
p4545
tp4546
a(V$s
p4547
V100
p4548
tp4549
aV2015-11-06 12:37:54
p4550
tp4551
a(g2918
VC(1100,1)*(1/1100)^1*(1-(1/1100))^1099
p4552
(lp4553
(S'R.1.0'
p4554
F0.9990909090909091
V1-1/1100
p4555
V1-(1/1100)
p4556
tp4557
aVk4ma
p4558
g2930
V2015-11-06 20:43:48
p4559
tp4560
a(g2918
VC(1100,3)*(1/1100)^1*(1-(1/1100))^1097
p4561
(lp4562
(S'R.1.0'
p4563
F0.9990909090909091
V1-1/1100
p4564
V1-(1/1100)
p4565
tp4566
aVk4ma
p4567
g2930
V2015-11-06 20:44:23
p4568
tp4569
a(VC(120,2)*(1/1200)^2*(1-1/1200)^(120-2)
p4570
VC(120,1)*(1/1200)*(1-1/1200)^119
p4571
(lp4572
(S'R.1.0'
p4573
F0.9991666666666666
V1-1/1200
p4574
V1-1/1200
p4575
tp4576
aVakg009
p4577
(lp4578
(V$j
p4579
V2
p4580
tp4581
a(V$k
p4582
V1
p4583
tp4584
a(V$a2
p4585
V0
p4586
tp4587
a(V$a
p4588
V1200
p4589
tp4590
a(V$a1
p4591
V0
p4592
tp4593
a(V$x
p4594
V13
p4595
tp4596
a(V$y
p4597
V5
p4598
tp4599
a(V$select
p4600
V12
p4601
tp4602
a(V$r
p4603
V1
p4604
tp4605
a(V$s
p4606
V120
p4607
tp4608
aV2015-11-06 21:45:53
p4609
tp4610
a(g4570
VC(1200,1)*(1/1200)*(1-1/1200)^1199
p4611
(lp4612
(S'R.1.0'
p4613
F0.9991666666666666
V1-1/1200
p4614
V1-1/1200
p4615
tp4616
aVakg009
p4617
g4578
V2015-11-06 21:50:06
p4618
tp4619
a(g4570
VC(10,1)*(1/1200)*(1-1/1200)^9
p4620
(lp4621
(S'R.1.0'
p4622
F0.9991666666666666
V1-1/1200
p4623
V1-1/1200
p4624
tp4625
aVakg009
p4626
g4578
V2015-11-06 21:50:47
p4627
tp4628
a(g4570
VC(120,1)*(1/1200)*(1-1/1200)^119
p4629
(lp4630
(S'R.1.0'
p4631
F0.9991666666666666
V1-1/1200
p4632
V1-1/1200
p4633
tp4634
aVakg009
p4635
g4578
V2015-11-06 22:16:51
p4636
tp4637
a(g4570
VC(1200,20)*(1/1200)*(1-1/1200)^1119
p4638
(lp4639
(S'R.1.0'
p4640
F0.9991666666666666
V1-1/1200
p4641
V1-1/1200
p4642
tp4643
aVakg009
p4644
g4578
V2015-11-06 22:21:20
p4645
tp4646
a(g4570
VC(1200,20)*(1/1200)^20*(1-1/1200)^1180
p4647
(lp4648
(S'R.1.0'
p4649
F0.9991666666666666
V1-1/1200
p4650
V1-1/1200
p4651
tp4652
aVakg009
p4653
g4578
V2015-11-06 22:21:49
p4654
tp4655
a(g3731
VC(900,90)*(1/900)^90*(899/900)^(900-90)
p4656
(lp4657
(S'R.1.0'
p4658
F0.9988888888888889
V1-1/900
p4659
V899/900
p4660
tp4661
aVw4shin
p4662
g3739
V2015-11-06 22:29:02
p4663
tp4664
a(g3631
VC(800,1)*(1/800)*(799/800)^799
p4665
(lp4666
(S'R.1.0'
p4667
F0.99875
V1-1/800
p4668
V799/800
p4669
tp4670
aVvsosnovs
p4671
g3639
V2015-11-06 23:42:46
p4672
tp4673
asS"['R.1.1']"
p4674
(lp4675
(g3181
VC(90,1) * (0.1 ^ 1) * (0.9 ^ 89)
p4676
(lp4677
(S'R.1.1'
p4678
F89.0
V90-1
p4679
V89
p4680
tp4681
aVbeyounge
p4682
g3189
V2015-10-30 05:14:21
p4683
tp4684
a(g3181
VC(90,1) * (0.1^1) * (0.9 ^ 89)
p4685
(lp4686
(S'R.1.1'
p4687
F89.0
V90-1
p4688
V89
p4689
tp4690
aVbeyounge
p4691
g3189
V2015-10-30 23:38:30
p4692
tp4693
a(g3181
VC(90,1) * (0.1^1) * (0.9^89)
p4694
(lp4695
(S'R.1.1'
p4696
F89.0
V90-1
p4697
V89
p4698
tp4699
aVbeyounge
p4700
g3189
V2015-10-31 00:01:34
p4701
tp4702
a(VC(110,1)*(1/1100)^1*(1-1/1100)^(110-1)
p4703
VC(110, 1) * (0.1)^1 * (0.9)^(110-1)
p4704
(lp4705
(S'R.1.1'
p4706
F109.0
V110-1
p4707
V110-1
p4708
tp4709
aVany027
p4710
(lp4711
(V$j
p4712
V1
p4713
tp4714
a(V$k
p4715
V1
p4716
tp4717
a(V$a2
p4718
V0
p4719
tp4720
a(V$a
p4721
V1100
p4722
tp4723
a(V$a1
p4724
V0
p4725
tp4726
a(V$x
p4727
V14
p4728
tp4729
a(V$y
p4730
V5
p4731
tp4732
a(V$select
p4733
V13
p4734
tp4735
a(V$r
p4736
V1
p4737
tp4738
a(V$s
p4739
V110
p4740
tp4741
aV2015-11-01 19:56:11
p4742
tp4743
a(VC(110,1)*(1/1100)^1*(1-1/1100)^(110-1)
p4744
V110!/[1!*(110-1)!] * 0.1^1 * (1-0.1)^(110-1)
p4745
(lp4746
(S'R.1.1'
p4747
F109.0
V110-1
p4748
V110-1
p4749
tp4750
aVmasaro
p4751
(lp4752
(V$j
p4753
V1
p4754
tp4755
a(V$k
p4756
V2
p4757
tp4758
a(V$a2
p4759
V0
p4760
tp4761
a(V$a
p4762
V1100
p4763
tp4764
a(V$a1
p4765
V0
p4766
tp4767
a(V$x
p4768
V12
p4769
tp4770
a(V$y
p4771
V6
p4772
tp4773
a(V$select
p4774
V8
p4775
tp4776
a(V$r
p4777
V1
p4778
tp4779
a(V$s
p4780
V110
p4781
tp4782
aV2015-11-02 01:07:09
p4783
tp4784
a(g4744
V110!/109! * 0.1 * (0.9)^(109)
p4785
(lp4786
(S'R.1.1'
p4787
F109.0
V110-1
p4788
V109
p4789
tp4790
aVmasaro
p4791
g4752
V2015-11-02 01:08:15
p4792
tp4793
a(g2205
VC(90,1)*(.1^1)*.9^89
p4794
(lp4795
(S'R.1.1'
p4796
F89.0
V90-1
p4797
V89
p4798
tp4799
aVmtrafeca
p4800
g2217
V2015-11-02 01:22:12
p4801
tp4802
a(g2205
VC(90,1)*(.1^1)*.9^89
p4803
(lp4804
(S'R.1.1'
p4805
F89.0
V90-1
p4806
V89
p4807
tp4808
aVmtrafeca
p4809
g2217
V2015-11-02 01:26:53
p4810
tp4811
a(g1059
VP(110,3)*(1/10)^3*(9/10)^107
p4812
(lp4813
(S'R.1.1'
p4814
F107.0
V110-3
p4815
V107
p4816
tp4817
aVsmohiman
p4818
g1067
V2015-11-02 01:31:44
p4819
tp4820
a(VC(110,1)*(1/1100)^1*(1-1/1100)^(110-1)
p4821
VC(110,1)(.1**1)(1-.1)**(110-1)
p4822
(lp4823
(S'R.1.1'
p4824
F109.0
V110-1
p4825
V110-1
p4826
tp4827
aVtcuddy
p4828
(lp4829
(V$j
p4830
V1
p4831
tp4832
a(V$k
p4833
V2
p4834
tp4835
a(V$a2
p4836
V0
p4837
tp4838
a(V$a
p4839
V1100
p4840
tp4841
a(V$a1
p4842
V0
p4843
tp4844
a(V$x
p4845
V12
p4846
tp4847
a(V$y
p4848
V5
p4849
tp4850
a(V$select
p4851
V14
p4852
tp4853
a(V$r
p4854
V2
p4855
tp4856
a(V$s
p4857
V110
p4858
tp4859
aV2015-11-02 04:56:58
p4860
tp4861
a(VC(80,3)*(1/800)^3*(1-1/800)^(80-3)
p4862
V0.001*0.9^77
p4863
(lp4864
(S'R.1.1'
p4865
F77.0
V80-3
p4866
V77
p4867
tp4868
aVz2tan
p4869
(lp4870
(V$j
p4871
V3
p4872
tp4873
a(V$k
p4874
V2
p4875
tp4876
a(V$a2
p4877
V0
p4878
tp4879
a(V$a
p4880
V800
p4881
tp4882
a(V$a1
p4883
V0
p4884
tp4885
a(V$x
p4886
V15
p4887
tp4888
a(V$y
p4889
V5
p4890
tp4891
a(V$select
p4892
V10
p4893
tp4894
a(V$r
p4895
V1
p4896
tp4897
a(V$s
p4898
V80
p4899
tp4900
aV2015-11-02 05:13:05
p4901
tp4902
a(VC(90,1)*(1/900)^1*(1-1/900)^(90-1)
p4903
VC(90, 1) * .1*(.9)^(89)
p4904
(lp4905
(S'R.1.1'
p4906
F89.0
V90-1
p4907
V89
p4908
tp4909
aVcrmirand
p4910
(lp4911
(V$j
p4912
V1
p4913
tp4914
a(V$k
p4915
V2
p4916
tp4917
a(V$a2
p4918
V0
p4919
tp4920
a(V$a
p4921
V900
p4922
tp4923
a(V$a1
p4924
V0
p4925
tp4926
a(V$x
p4927
V13
p4928
tp4929
a(V$y
p4930
V5
p4931
tp4932
a(V$select
p4933
V15
p4934
tp4935
a(V$r
p4936
V1
p4937
tp4938
a(V$s
p4939
V90
p4940
tp4941
aV2015-11-03 05:09:09
p4942
tp4943
a(VC(80,2)*(1/800)^2*(1-1/800)^(80-2)
p4944
V(1/100)*((9/10)^(78))
p4945
(lp4946
(S'R.1.1'
p4947
F78.0
V80-2
p4948
V78
p4949
tp4950
aVachinn
p4951
(lp4952
(V$j
p4953
V2
p4954
tp4955
a(V$k
p4956
V2
p4957
tp4958
a(V$a2
p4959
V0
p4960
tp4961
a(V$a
p4962
V800
p4963
tp4964
a(V$a1
p4965
V0
p4966
tp4967
a(V$x
p4968
V14
p4969
tp4970
a(V$y
p4971
V6
p4972
tp4973
a(V$select
p4974
V14
p4975
tp4976
a(V$r
p4977
V1
p4978
tp4979
a(V$s
p4980
V80
p4981
tp4982
aV2015-11-03 23:20:26
p4983
tp4984
a(VC(80,3)*(1/800)^3*(1-1/800)^(80-3)
p4985
V(1/10)^3*(9/10)^77
p4986
(lp4987
(S'R.1.1'
p4988
F77.0
V80-3
p4989
V77
p4990
tp4991
aVqfu
p4992
(lp4993
(V$j
p4994
V3
p4995
tp4996
a(V$k
p4997
V2
p4998
tp4999
a(V$a2
p5000
V0
p5001
tp5002
a(V$a
p5003
V800
p5004
tp5005
a(V$a1
p5006
V0
p5007
tp5008
a(V$x
p5009
V15
p5010
tp5011
a(V$y
p5012
V5
p5013
tp5014
a(V$select
p5015
V8
p5016
tp5017
a(V$r
p5018
V1
p5019
tp5020
a(V$s
p5021
V80
p5022
tp5023
aV2015-11-04 01:28:47
p5024
tp5025
a(VC(120,3)*(1/1200)^3*(1-1/1200)^(120-3)
p5026
V120/(3!*(120-3)!)*0.1^3*(1-.01)^(120-3)
p5027
(lp5028
(S'R.1.1'
p5029
F117.0
V120-3
p5030
V120-3
p5031
tp5032
aVm4salaza
p5033
(lp5034
(V$j
p5035
V3
p5036
tp5037
a(V$k
p5038
V2
p5039
tp5040
a(V$a2
p5041
V0
p5042
tp5043
a(V$a
p5044
V1200
p5045
tp5046
a(V$a1
p5047
V0
p5048
tp5049
a(V$x
p5050
V14
p5051
tp5052
a(V$y
p5053
V5
p5054
tp5055
a(V$select
p5056
V11
p5057
tp5058
a(V$r
p5059
V2
p5060
tp5061
a(V$s
p5062
V120
p5063
tp5064
aV2015-11-04 04:58:07
p5065
tp5066
a(g5026
V120/(3!*(120-3)!)*0.1^3*(1-.1)^(120-3)
p5067
(lp5068
(S'R.1.1'
p5069
F117.0
V120-3
p5070
V120-3
p5071
tp5072
aVm4salaza
p5073
g5034
V2015-11-04 04:58:22
p5074
tp5075
a(VC(90,2)*(1/900)^2*(1-1/900)^(90-2)
p5076
V[90!/[(2!)(90-2!)]][0.1^2][0.9^88]
p5077
(lp5078
(S'R.1.1'
p5079
F88.0
V90-2
p5080
V88
p5081
tp5082
aVqtluong
p5083
(lp5084
(V$j
p5085
V2
p5086
tp5087
a(V$k
p5088
V2
p5089
tp5090
a(V$a2
p5091
V0
p5092
tp5093
a(V$a
p5094
V900
p5095
tp5096
a(V$a1
p5097
V0
p5098
tp5099
a(V$x
p5100
V15
p5101
tp5102
a(V$y
p5103
V6
p5104
tp5105
a(V$select
p5106
V15
p5107
tp5108
a(V$r
p5109
V2
p5110
tp5111
a(V$s
p5112
V90
p5113
tp5114
aV2015-11-04 06:05:45
p5115
tp5116
a(g5076
VP(90,2)(.1)^2(1-.1)^(90-2)
p5117
(lp5118
(S'R.1.1'
p5119
F88.0
V90-2
p5120
V90-2
p5121
tp5122
aVqtluong
p5123
g5084
V2015-11-04 06:09:58
p5124
tp5125
a(g2250
V90*0.1*(1-0.1)^89
p5126
(lp5127
(S'R.1.1'
p5128
F89.0
V90-1
p5129
V89
p5130
tp5131
aVyeh013
p5132
g2262
V2015-11-04 07:15:57
p5133
tp5134
a(g1151
VC((900/10),3)*(1/900)3(1-1/800)^(900/10-3)
p5135
(lp5136
(S'R.1.1'
p5137
F87.0
V90-3
p5138
V900/10-3
p5139
tp5140
aVaggouw
p5141
g1159
V2015-11-04 09:03:05
p5142
tp5143
a(g1192
V(120!/(1!119!))*(.1)*(1-.1)^119
p5144
(lp5145
(S'R.1.1'
p5146
F119.0
V120-1
p5147
V119
p5148
tp5149
aVk5law
p5150
g1200
V2015-11-04 09:08:32
p5151
tp5152
a(g2757
V110*0.1*(1-0.1)^109
p5153
(lp5154
(S'R.1.1'
p5155
F109.0
V110-1
p5156
V109
p5157
tp5158
aVwmiao
p5159
g2769
V2015-11-04 20:39:47
p5160
tp5161
a(g3381
VC(80,1)*0.1*(0.9)^79
p5162
(lp5163
(S'R.1.1'
p5164
F79.0
V80-1
p5165
V79
p5166
tp5167
aVkbielawi
p5168
g3389
V2015-11-04 21:02:31
p5169
tp5170
a(VC(100,2)*(1/1000)^2*(1-1/1000)^(100-2)
p5171
V(.1^2)(.9^98)
p5172
(lp5173
(S'R.1.1'
p5174
F98.0
V100-2
p5175
V98
p5176
tp5177
aVc1sorian
p5178
g892
V2015-11-04 22:43:51
p5179
tp5180
a(g4470
VC(90,1) * (1/90) * (89/90)^89
p5181
(lp5182
(S'R.1.1'
p5183
F89.0
V90-1
p5184
V89
p5185
tp5186
aVavasavad
p5187
g4478
V2015-11-04 23:59:56
p5188
tp5189
a(VC(100,2)*(1/1000)^2*(1-1/1000)^(100-2)
p5190
V(100!/2!98!)(.1)^2(.9)^98   
p5191
(lp5192
(S'R.1.1'
p5193
F98.0
V100-2
p5194
V98
p5195
tp5196
aVkew060
p5197
(lp5198
(V$j
p5199
V2
p5200
tp5201
a(V$k
p5202
V1
p5203
tp5204
a(V$a2
p5205
V0
p5206
tp5207
a(V$a
p5208
V1000
p5209
tp5210
a(V$a1
p5211
V0
p5212
tp5213
a(V$x
p5214
V13
p5215
tp5216
a(V$y
p5217
V5
p5218
tp5219
a(V$select
p5220
V12
p5221
tp5222
a(V$r
p5223
V2
p5224
tp5225
a(V$s
p5226
V100
p5227
tp5228
aV2015-11-05 01:35:10
p5229
tp5230
a(g3422
VC(90,1)*0.1^1*(1-0.1)^(90-1)
p5231
(lp5232
(S'R.1.1'
p5233
F89.0
V90-1
p5234
V90-1
p5235
tp5236
aVjel075
p5237
g3430
V2015-11-05 01:37:42
p5238
tp5239
a(g3855
VC(120, 1)*.1*.9^119
p5240
(lp5241
(S'R.1.1'
p5242
F119.0
V120-1
p5243
V119
p5244
tp5245
aVdkurli
p5246
(lp5247
(V$j
p5248
V1
p5249
tp5250
a(V$k
p5251
V2
p5252
tp5253
a(V$a2
p5254
V0
p5255
tp5256
a(V$a
p5257
V1200
p5258
tp5259
a(V$a1
p5260
V0
p5261
tp5262
a(V$x
p5263
V13
p5264
tp5265
a(V$y
p5266
V6
p5267
tp5268
a(V$select
p5269
V10
p5270
tp5271
a(V$r
p5272
V1
p5273
tp5274
a(V$s
p5275
V120
p5276
tp5277
aV2015-11-05 03:04:41
p5278
tp5279
a(g4985
V0.1^3*0.9^77
p5280
(lp5281
(S'R.1.1'
p5282
F77.0
V80-3
p5283
V77
p5284
tp5285
aVqfu
p5286
g4993
V2015-11-05 03:19:01
p5287
tp5288
a(g1333
V0.1^3*0.7^77
p5289
(lp5290
(S'R.1.1'
p5291
F77.0
V80-3
p5292
V77
p5293
tp5294
aVnnh002
p5295
g1341
V2015-11-05 03:20:34
p5296
tp5297
a(g1333
V0.1^3*0.9^77
p5298
(lp5299
(S'R.1.1'
p5300
F77.0
V80-3
p5301
V77
p5302
tp5303
aVnnh002
p5304
g1341
V2015-11-05 03:21:27
p5305
tp5306
a(VC(80,2)*(1/800)^2*(1-1/800)^(80-2)
p5307
VC(80,2)*(1-.1)^78
p5308
(lp5309
(S'R.1.1'
p5310
F78.0
V80-2
p5311
V78
p5312
tp5313
aVs2chaudh
p5314
(lp5315
(V$j
p5316
V2
p5317
tp5318
a(V$k
p5319
V2
p5320
tp5321
a(V$a2
p5322
V0
p5323
tp5324
a(V$a
p5325
V800
p5326
tp5327
a(V$a1
p5328
V0
p5329
tp5330
a(V$x
p5331
V15
p5332
tp5333
a(V$y
p5334
V6
p5335
tp5336
a(V$select
p5337
V13
p5338
tp5339
a(V$r
p5340
V2
p5341
tp5342
a(V$s
p5343
V80
p5344
tp5345
aV2015-11-05 03:39:54
p5346
tp5347
a(g2250
V90*((0.1)^90)*((0.9)^89)
p5348
(lp5349
(S'R.1.1'
p5350
F89.0
V90-1
p5351
V89
p5352
tp5353
aVyeh013
p5354
g2262
V2015-11-05 03:40:03
p5355
tp5356
a(g2250
V9*((0.9)^89)
p5357
(lp5358
(S'R.1.1'
p5359
F89.0
V90-1
p5360
V89
p5361
tp5362
aVyeh013
p5363
g2262
V2015-11-05 03:40:53
p5364
tp5365
a(VC(120,1)*(1/1200)^1*(1-1/1200)^(120-1)
p5366
VC(120,1)*(1/10)*(1-1/10)^(120-1)
p5367
(lp5368
(S'R.1.1'
p5369
F119.0
V120-1
p5370
V120-1
p5371
tp5372
aVmuy002
p5373
(lp5374
(V$j
p5375
V1
p5376
tp5377
a(V$k
p5378
V1
p5379
tp5380
a(V$a2
p5381
V0
p5382
tp5383
a(V$a
p5384
V1200
p5385
tp5386
a(V$a1
p5387
V0
p5388
tp5389
a(V$x
p5390
V12
p5391
tp5392
a(V$y
p5393
V6
p5394
tp5395
a(V$select
p5396
V9
p5397
tp5398
a(V$r
p5399
V2
p5400
tp5401
a(V$s
p5402
V120
p5403
tp5404
aV2015-11-05 03:41:10
p5405
tp5406
a(g2385
VC(80,1)*(.1)*(.9)^(80-1)
p5407
(lp5408
(S'R.1.1'
p5409
F79.0
V80-1
p5410
V80-1
p5411
tp5412
aVklala
p5413
g2397
V2015-11-05 03:41:25
p5414
tp5415
a(g1374
VC(100,2)(1-.1)^(100-2)
p5416
(lp5417
(S'R.1.1'
p5418
F98.0
V100-2
p5419
V100-2
p5420
tp5421
aVjjm019
p5422
g1382
V2015-11-05 03:42:32
p5423
tp5424
a(g5366
VC(120,1)*(1/10)*(1-1/10)^(120-1)
p5425
(lp5426
(S'R.1.1'
p5427
F119.0
V120-1
p5428
V120-1
p5429
tp5430
aVmuy002
p5431
g5374
V2015-11-05 03:42:32
p5432
tp5433
a(g2385
VC(80,1)*(.01)*(1-0.01)^(80-1)
p5434
(lp5435
(S'R.1.1'
p5436
F79.0
V80-1
p5437
V80-1
p5438
tp5439
aVklala
p5440
g2397
V2015-11-05 03:49:57
p5441
tp5442
a(g2385
VC(800,1)*(.01)*(1-0.01)^(80-1)
p5443
(lp5444
(S'R.1.1'
p5445
F79.0
V80-1
p5446
V80-1
p5447
tp5448
aVklala
p5449
g2397
V2015-11-05 03:50:07
p5450
tp5451
a(g2385
VC(80,1)*(.01)*(1-0.01)^(80-1)
p5452
(lp5453
(S'R.1.1'
p5454
F79.0
V80-1
p5455
V80-1
p5456
tp5457
aVklala
p5458
g2397
V2015-11-05 03:50:19
p5459
tp5460
a(g3181
VC(90,1) * (0.9^89)
p5461
(lp5462
(S'R.1.1'
p5463
F89.0
V90-1
p5464
V89
p5465
tp5466
aVbeyounge
p5467
g3189
V2015-11-05 05:21:25
p5468
tp5469
a(VC(110,3)*(1/1100)^3*(1-1/1100)^(110-3)
p5470
VC(11,1)*((1/110)^3)*((1-(1/110))^(110-3))
p5471
(lp5472
(S'R.1.1'
p5473
F107.0
V110-3
p5474
V110-3
p5475
tp5476
aVdlgoldbe
p5477
(lp5478
(V$j
p5479
V3
p5480
tp5481
a(V$k
p5482
V1
p5483
tp5484
a(V$a2
p5485
V0
p5486
tp5487
a(V$a
p5488
V1100
p5489
tp5490
a(V$a1
p5491
V0
p5492
tp5493
a(V$x
p5494
V14
p5495
tp5496
a(V$y
p5497
V5
p5498
tp5499
a(V$select
p5500
V12
p5501
tp5502
a(V$r
p5503
V2
p5504
tp5505
a(V$s
p5506
V110
p5507
tp5508
aV2015-11-05 05:26:27
p5509
tp5510
a(VC(80,3)*(1/800)^3*(1-1/800)^(80-3)
p5511
VP(80,3)(.1^3)(.9^77)
p5512
(lp5513
(S'R.1.1'
p5514
F77.0
V80-3
p5515
V77
p5516
tp5517
aVksmurlo
p5518
(lp5519
(V$j
p5520
V3
p5521
tp5522
a(V$k
p5523
V1
p5524
tp5525
a(V$a2
p5526
V0
p5527
tp5528
a(V$a
p5529
V800
p5530
tp5531
a(V$a1
p5532
V0
p5533
tp5534
a(V$x
p5535
V12
p5536
tp5537
a(V$y
p5538
V6
p5539
tp5540
a(V$select
p5541
V8
p5542
tp5543
a(V$r
p5544
V1
p5545
tp5546
a(V$s
p5547
V80
p5548
tp5549
aV2015-11-05 05:52:08
p5550
tp5551
a(VC(90,2)*(1/900)^2*(1-1/900)^(90-2)
p5552
VC(10,2)*(.1)^2*(1-.9)^88
p5553
(lp5554
(S'R.1.1'
p5555
F88.0
V90-2
p5556
V88
p5557
tp5558
aVgsrandha
p5559
(lp5560
(V$j
p5561
V2
p5562
tp5563
a(V$k
p5564
V2
p5565
tp5566
a(V$a2
p5567
V0
p5568
tp5569
a(V$a
p5570
V900
p5571
tp5572
a(V$a1
p5573
V0
p5574
tp5575
a(V$x
p5576
V14
p5577
tp5578
a(V$y
p5579
V6
p5580
tp5581
a(V$select
p5582
V15
p5583
tp5584
a(V$r
p5585
V1
p5586
tp5587
a(V$s
p5588
V90
p5589
tp5590
aV2015-11-05 06:52:30
p5591
tp5592
a(g2475
V120! / (119!1!) * (.1) * (.9)^119
p5593
(lp5594
(S'R.1.1'
p5595
F119.0
V120-1
p5596
V119
p5597
tp5598
aVanvan
p5599
g563
V2015-11-05 08:26:57
p5600
tp5601
a(VC(100,1)*(1/1000)^1*(1-1/1000)^(100-1)
p5602
VC(100,1)*(1/10)*(1-(1/10))^(100-1)
p5603
(lp5604
(S'R.1.1'
p5605
F99.0
V100-1
p5606
V100-1
p5607
tp5608
aVhsc052
p5609
(lp5610
(V$j
p5611
V1
p5612
tp5613
a(V$k
p5614
V1
p5615
tp5616
a(V$a2
p5617
V0
p5618
tp5619
a(V$a
p5620
V1000
p5621
tp5622
a(V$a1
p5623
V0
p5624
tp5625
a(V$x
p5626
V14
p5627
tp5628
a(V$y
p5629
V5
p5630
tp5631
a(V$select
p5632
V12
p5633
tp5634
a(V$r
p5635
V2
p5636
tp5637
a(V$s
p5638
V100
p5639
tp5640
aV2015-11-05 08:42:02
p5641
tp5642
a(g5602
VC(100,1)*(1/10)^1*(1-(1/10))^(100-1)
p5643
(lp5644
(S'R.1.1'
p5645
F99.0
V100-1
p5646
V100-1
p5647
tp5648
aVhsc052
p5649
g5610
V2015-11-05 08:51:19
p5650
tp5651
a(g5602
VC(100,1)*(1/10)^1*(1-(1/10))^(100-1)
p5652
(lp5653
(S'R.1.1'
p5654
F99.0
V100-1
p5655
V100-1
p5656
tp5657
aVhsc052
p5658
g5610
V2015-11-05 08:55:15
p5659
tp5660
a(g2430
VC(90, 1) * (0.1^1) * (1-0.1)^(90-1)
p5661
(lp5662
(S'R.1.1'
p5663
F89.0
V90-1
p5664
V90-1
p5665
tp5666
aVv4zhang
p5667
g2442
V2015-11-05 09:44:08
p5668
tp5669
a(g2430
VC(90, 1)*(0.5^1) * (1-0.5)^(90-1)
p5670
(lp5671
(S'R.1.1'
p5672
F89.0
V90-1
p5673
V90-1
p5674
tp5675
aVv4zhang
p5676
g2442
V2015-11-05 09:50:12
p5677
tp5678
a(g2502
VC(110,1)*(.1^1)*(.9^109)
p5679
(lp5680
(S'R.1.1'
p5681
F109.0
V110-1
p5682
V109
p5683
tp5684
aVjap009
p5685
g2514
V2015-11-05 18:35:48
p5686
tp5687
a(g2502
VP(110,1)*(.1^1)*(.9^109)
p5688
(lp5689
(S'R.1.1'
p5690
F109.0
V110-1
p5691
V109
p5692
tp5693
aVjap009
p5694
g2514
V2015-11-05 18:35:58
p5695
tp5696
a(g2502
VC(110,1)*(.1^1)*(.9^109)
p5697
(lp5698
(S'R.1.1'
p5699
F109.0
V110-1
p5700
V109
p5701
tp5702
aVjap009
p5703
g2514
V2015-11-05 18:36:03
p5704
tp5705
a(g1506
V(1/120)^2(119/1200)^(118)
p5706
(lp5707
(S'R.1.1'
p5708
F118.0
V120-2
p5709
V118
p5710
tp5711
aVmhale
p5712
g1514
V2015-11-05 19:58:01
p5713
tp5714
a(g1506
V(1/120)^2(119/120)^(118)
p5715
(lp5716
(S'R.1.1'
p5717
F118.0
V120-2
p5718
V118
p5719
tp5720
aVmhale
p5721
g1514
V2015-11-05 19:58:07
p5722
tp5723
a(g1615
V120!/118! * (2/1200) * (1-(2/1200))^(118)
p5724
(lp5725
(S'R.1.1'
p5726
F118.0
V120-2
p5727
V118
p5728
tp5729
aVytc012
p5730
g1623
V2015-11-05 23:17:09
p5731
tp5732
a(g1615
V120!/118! * (1/2400) * (1-(1/2400))^(118)
p5733
(lp5734
(S'R.1.1'
p5735
F118.0
V120-2
p5736
V118
p5737
tp5738
aVytc012
p5739
g1623
V2015-11-05 23:18:24
p5740
tp5741
a(g3860
VC(90,1) * (0.9^1) * (1-0.9)^(90-1)
p5742
(lp5743
(S'R.1.1'
p5744
F89.0
V90-1
p5745
V90-1
p5746
tp5747
aVatorr
p5748
(lp5749
(V$j
p5750
V1
p5751
tp5752
a(V$k
p5753
V1
p5754
tp5755
a(V$a2
p5756
V0
p5757
tp5758
a(V$a
p5759
V900
p5760
tp5761
a(V$a1
p5762
V0
p5763
tp5764
a(V$x
p5765
V15
p5766
tp5767
a(V$y
p5768
V5
p5769
tp5770
a(V$select
p5771
V13
p5772
tp5773
a(V$r
p5774
V1
p5775
tp5776
a(V$s
p5777
V90
p5778
tp5779
aV2015-11-06 00:16:21
p5780
tp5781
a(g3860
VC(90,1) * (0.9) * (1-0.9)^(90-1)
p5782
(lp5783
(S'R.1.1'
p5784
F89.0
V90-1
p5785
V90-1
p5786
tp5787
aVatorr
p5788
g5749
V2015-11-06 00:17:02
p5789
tp5790
a(g3860
VC(90,1) * (1/90) * (1-(1/90))^(90-1)
p5791
(lp5792
(S'R.1.1'
p5793
F89.0
V90-1
p5794
V90-1
p5795
tp5796
aVatorr
p5797
g5749
V2015-11-06 00:18:27
p5798
tp5799
a(VC(90,1)*(1/900)^1*(1-1/900)^(90-1)
p5800
V(C(90,1))(.1)(.9^89)
p5801
(lp5802
(S'R.1.1'
p5803
F89.0
V90-1
p5804
V89
p5805
tp5806
aVtdurrer
p5807
(lp5808
(V$j
p5809
V1
p5810
tp5811
a(V$k
p5812
V2
p5813
tp5814
a(V$a2
p5815
V0
p5816
tp5817
a(V$a
p5818
V900
p5819
tp5820
a(V$a1
p5821
V0
p5822
tp5823
a(V$x
p5824
V12
p5825
tp5826
a(V$y
p5827
V6
p5828
tp5829
a(V$select
p5830
V9
p5831
tp5832
a(V$r
p5833
V2
p5834
tp5835
a(V$s
p5836
V90
p5837
tp5838
aV2015-11-06 01:22:55
p5839
tp5840
a(g3690
V90(0.1)(0.9)^89
p5841
(lp5842
(S'R.1.1'
p5843
F89.0
V90-1
p5844
V89
p5845
tp5846
aVkthui
p5847
g3698
V2015-11-06 02:10:36
p5848
tp5849
a(g2430
VC(90, 1) * (0.1^1) * (1-0.1)^(90-1)
p5850
(lp5851
(S'R.1.1'
p5852
F89.0
V90-1
p5853
V90-1
p5854
tp5855
aVv4zhang
p5856
g2442
V2015-11-06 06:32:24
p5857
tp5858
a(VC(80,1)*(1/800)^1*(1-1/800)^(80-1)
p5859
VC(80,1)*(1/10)^1*(9/10)^79
p5860
(lp5861
(S'R.1.1'
p5862
F79.0
V80-1
p5863
V79
p5864
tp5865
aVl5han
p5866
(lp5867
(V$j
p5868
V1
p5869
tp5870
a(V$k
p5871
V2
p5872
tp5873
a(V$a2
p5874
V0
p5875
tp5876
a(V$a
p5877
V800
p5878
tp5879
a(V$a1
p5880
V0
p5881
tp5882
a(V$x
p5883
V15
p5884
tp5885
a(V$y
p5886
V5
p5887
tp5888
a(V$select
p5889
V12
p5890
tp5891
a(V$r
p5892
V2
p5893
tp5894
a(V$s
p5895
V80
p5896
tp5897
aV2015-11-06 07:03:45
p5898
tp5899
a(g5859
V80*(1/10)*(9/10)^79
p5900
(lp5901
(S'R.1.1'
p5902
F79.0
V80-1
p5903
V79
p5904
tp5905
aVl5han
p5906
g5867
V2015-11-06 07:05:11
p5907
tp5908
a(g5859
V80*(1/10)*(9/10)^(80-1)
p5909
(lp5910
(S'R.1.1'
p5911
F79.0
V80-1
p5912
V80-1
p5913
tp5914
aVl5han
p5915
g5867
V2015-11-06 07:05:22
p5916
tp5917
a(g5859
VC(80,1)*(80/800)^1*(1-80/800)^79
p5918
(lp5919
(S'R.1.1'
p5920
F79.0
V80-1
p5921
V79
p5922
tp5923
aVl5han
p5924
g5867
V2015-11-06 07:07:03
p5925
tp5926
a(g2573
VC(100, 1)(1/10)(9/10)^99
p5927
(lp5928
(S'R.1.1'
p5929
F99.0
V100-1
p5930
V99
p5931
tp5932
aVazkong
p5933
g2585
V2015-11-06 19:24:38
p5934
tp5935
a(VC(120,2)*(1/1200)^2*(1-1/1200)^(120-2)
p5936
VC(1200,2)(120/1200)^2(1-(120/1200))^(120-2)
p5937
(lp5938
(S'R.1.1'
p5939
F118.0
V120-2
p5940
V120-2
p5941
tp5942
aVasp025
p5943
(lp5944
(V$j
p5945
V2
p5946
tp5947
a(V$k
p5948
V1
p5949
tp5950
a(V$a2
p5951
V0
p5952
tp5953
a(V$a
p5954
V1200
p5955
tp5956
a(V$a1
p5957
V0
p5958
tp5959
a(V$x
p5960
V13
p5961
tp5962
a(V$y
p5963
V6
p5964
tp5965
a(V$select
p5966
V14
p5967
tp5968
a(V$r
p5969
V1
p5970
tp5971
a(V$s
p5972
V120
p5973
tp5974
aV2015-11-06 19:32:27
p5975
tp5976
a(g5936
VC(1200,120)(120/1200)^2(1-(120/1200))^(120-2)
p5977
(lp5978
(S'R.1.1'
p5979
F118.0
V120-2
p5980
V120-2
p5981
tp5982
aVasp025
p5983
g5944
V2015-11-06 19:32:42
p5984
tp5985
a(g5936
VC(1200,2)(120/1200)^2(1-(120/1200))^(120-2)
p5986
(lp5987
(S'R.1.1'
p5988
F118.0
V120-2
p5989
V120-2
p5990
tp5991
aVasp025
p5992
g5944
V2015-11-06 19:37:58
p5993
tp5994
a(VC(100,2)*(1/1000)^2*(1-1/1000)^(100-2)
p5995
VC(100,1)(.1)^2(1-.1)^98
p5996
(lp5997
(S'R.1.1'
p5998
F98.0
V100-2
p5999
V98
p6000
tp6001
aVhmshah
p6002
(lp6003
(V$j
p6004
V2
p6005
tp6006
a(V$k
p6007
V2
p6008
tp6009
a(V$a2
p6010
V0
p6011
tp6012
a(V$a
p6013
V1000
p6014
tp6015
a(V$a1
p6016
V0
p6017
tp6018
a(V$x
p6019
V14
p6020
tp6021
a(V$y
p6022
V6
p6023
tp6024
a(V$select
p6025
V9
p6026
tp6027
a(V$r
p6028
V2
p6029
tp6030
a(V$s
p6031
V100
p6032
tp6033
aV2015-11-06 22:12:38
p6034
tp6035
a(g3783
V(100!/(98!))((1/10)^2)((9/10)^98)
p6036
(lp6037
(S'R.1.1'
p6038
F98.0
V100-2
p6039
V98
p6040
tp6041
aVlpettit
p6042
g3789
V2015-11-06 22:34:03
p6043
tp6044
a(VC(120,1)*(1/1200)^1*(1-1/1200)^(120-1)
p6045
VC(120, 1)(120/1200)(1-120/1200)^(120 - 1)
p6046
(lp6047
(S'R.1.1'
p6048
F119.0
V120-1
p6049
V120 - 1
p6050
tp6051
aVp4kumar
p6052
(lp6053
(V$j
p6054
V1
p6055
tp6056
a(V$k
p6057
V1
p6058
tp6059
a(V$a2
p6060
V0
p6061
tp6062
a(V$a
p6063
V1200
p6064
tp6065
a(V$a1
p6066
V0
p6067
tp6068
a(V$x
p6069
V12
p6070
tp6071
a(V$y
p6072
V5
p6073
tp6074
a(V$select
p6075
V14
p6076
tp6077
a(V$r
p6078
V1
p6079
tp6080
a(V$s
p6081
V120
p6082
tp6083
aV2015-11-07 00:25:21
p6084
tp6085
a(g2055
V45(2/90)^2(1-2/90)^88
p6086
(lp6087
(S'R.1.1'
p6088
F88.0
V90-2
p6089
V88
p6090
tp6091
aVrohan
p6092
g97
V2015-11-07 00:43:10
p6093
tp6094
asg820
(lp6095
(VC(80,3)*(1/800)^3*(1-1/800)^(80-3)
p6096
VC(80,3)(0.1^3)((1-0.1)^80-3)
p6097
tp6098
a(VC(100,1)*(1/1000)^1*(1-1/1000)^(100-1)
p6099
VP(100,1)*(1/1000)*(1-100)^99
p6100
tp6101
a(g1374
VC(100,2)(1/1000)^2*(1-1/1000)^100-2
p6102
tp6103
a(VC(90,2)*(1/900)^2*(1-1/900)^(90-2)
p6104
VC(90,2)*(1/900)^2*(1-(1/900))^90-2
p6105
tp6106
a(VC(100,3)*(1/1000)^3*(1-1/1000)^(100-3)
p6107
V1.178793e-92
p6108
tp6109
a(g3581
VC(120,1)(1200/120)^1(1-1200/120)
p6110
tp6111
a(g2430
VC(90, 1) * (0.1^1) * (1-0.1)^90-1
p6112
tp6113
asS"['R.0.1', 'R.1']"
p6114
(lp6115
(VC(80,3)*(1/800)^3*(1-1/800)^(80-3)
p6116
VC(800,3)* ( (1/800)^3) * ( (1-1/800)^(80-3) )
p6117
(lp6118
(S'R.0.1'
p6119
F1.9531250000000003e-09
V(1/800)^3
p6120
V(1/800)^3
p6121
tp6122
a(S'R.1'
p6123
F0.9081822483973268
V(1-1/800)^(80-3)
p6124
V(1-1/800)^(80-3)
p6125
tp6126
aVhpc001
p6127
(lp6128
(V$j
p6129
V3
p6130
tp6131
a(V$k
p6132
V2
p6133
tp6134
a(V$a2
p6135
V0
p6136
tp6137
a(V$a
p6138
V800
p6139
tp6140
a(V$a1
p6141
V0
p6142
tp6143
a(V$x
p6144
V15
p6145
tp6146
a(V$y
p6147
V5
p6148
tp6149
a(V$select
p6150
V12
p6151
tp6152
a(V$r
p6153
V1
p6154
tp6155
a(V$s
p6156
V80
p6157
tp6158
aV2015-11-01 01:00:54
p6159
tp6160
a(VC(100,2)*(1/1000)^2*(1-1/1000)^(100-2)
p6161
V(100*99)*((1/1000)^2)*((999/1000)^98)
p6162
(lp6163
(S'R.0.1'
p6164
F1e-06
V(1/1000)^2
p6165
V(1/1000)^2
p6166
tp6167
a(S'R.1'
p6168
F0.9066044494080757
V(1-1/1000)^(100-2)
p6169
V(999/1000)^98
p6170
tp6171
aVchc286
p6172
(lp6173
(V$j
p6174
V2
p6175
tp6176
a(V$k
p6177
V1
p6178
tp6179
a(V$a2
p6180
V0
p6181
tp6182
a(V$a
p6183
V1000
p6184
tp6185
a(V$a1
p6186
V0
p6187
tp6188
a(V$x
p6189
V13
p6190
tp6191
a(V$y
p6192
V5
p6193
tp6194
a(V$select
p6195
V14
p6196
tp6197
a(V$r
p6198
V1
p6199
tp6200
a(V$s
p6201
V100
p6202
tp6203
aV2015-11-01 01:20:50
p6204
tp6205
a(g1059
VP(110,3)*(1/1100)^3*(1099/1100)^107
p6206
(lp6207
(S'R.0.1'
p6208
F7.513148009015778e-10
V(1/1100)^3
p6209
V(1/1100)^3
p6210
tp6211
a(S'R.1'
p6212
F0.9072683846322497
V(1-1/1100)^(110-3)
p6213
V(1099/1100)^107
p6214
tp6215
aVsmohiman
p6216
g1067
V2015-11-02 01:19:17
p6217
tp6218
a(g1059
V(1/10)*(1/1100)^3*(1099/1100)^107
p6219
(lp6220
(S'R.0.1'
p6221
F7.513148009015778e-10
V(1/1100)^3
p6222
V(1/1100)^3
p6223
tp6224
a(S'R.1'
p6225
F0.9072683846322497
V(1-1/1100)^(110-3)
p6226
V(1099/1100)^107
p6227
tp6228
aVsmohiman
p6229
g1067
V2015-11-02 01:30:36
p6230
tp6231
a(g1059
VP(110,3)*(1/1100)^3*(1099/1100)^107
p6232
(lp6233
(S'R.0.1'
p6234
F7.513148009015778e-10
V(1/1100)^3
p6235
V(1/1100)^3
p6236
tp6237
a(S'R.1'
p6238
F0.9072683846322497
V(1-1/1100)^(110-3)
p6239
V(1099/1100)^107
p6240
tp6241
aVsmohiman
p6242
g1067
V2015-11-02 01:45:16
p6243
tp6244
a(VC(120,2)*(1/1200)^2*(1-1/1200)^(120-2)
p6245
V719400*(1/1200)^2*(1199/1200)^(120-2)
p6246
(lp6247
(S'R.0.1'
p6248
F6.944444444444446e-07
V(1/1200)^2
p6249
V(1/1200)^2
p6250
tp6251
a(S'R.1'
p6252
F0.9063095828946105
V(1-1/1200)^(120-2)
p6253
V(1199/1200)^(120-2)
p6254
tp6255
aVt2shin
p6256
g308
V2015-11-04 04:40:41
p6257
tp6258
a(g6245
V71940*(1/1200)^2*(1199/1200)^(120-2)
p6259
(lp6260
(S'R.0.1'
p6261
F6.944444444444446e-07
V(1/1200)^2
p6262
V(1/1200)^2
p6263
tp6264
a(S'R.1'
p6265
F0.9063095828946105
V(1-1/1200)^(120-2)
p6266
V(1199/1200)^(120-2)
p6267
tp6268
aVt2shin
p6269
g308
V2015-11-04 04:42:00
p6270
tp6271
a(g5026
V120/(3!*(120-3)!)*(1/1200)^3*(1-1/1200)^(120-3)
p6272
(lp6273
(S'R.0.1'
p6274
F5.787037037037038e-10
V(1/1200)^3
p6275
V(1/1200)^3
p6276
tp6277
a(S'R.1'
p6278
F0.907065470786933
V(1-1/1200)^(120-3)
p6279
V(1-1/1200)^(120-3)
p6280
tp6281
aVm4salaza
p6282
g5034
V2015-11-04 05:01:31
p6283
tp6284
a(g5076
VP(90,2)(.1/90)^2(1-.1/90)^(90-2)
p6285
(lp6286
(S'R.0.1'
p6287
F1.234567901234568e-06
V(1/900)^2
p6288
V(.1/90)^2
p6289
tp6290
a(S'R.1'
p6291
F0.9068011074864027
V(1-1/900)^(90-2)
p6292
V(1-.1/90)^(90-2)
p6293
tp6294
aVqtluong
p6295
g5084
V2015-11-04 06:12:14
p6296
tp6297
a(g2055
V45(1/900)^2(1-1/900)^88
p6298
(lp6299
(S'R.0.1'
p6300
F1.234567901234568e-06
V(1/900)^2
p6301
V(1/900)^2
p6302
tp6303
a(S'R.1'
p6304
F0.9068011074864027
V(1-1/900)^(90-2)
p6305
V(1-1/900)^88
p6306
tp6307
aVrohan
p6308
g97
V2015-11-07 00:41:31
p6309
tp6310
asS"['R.0.0', 'R.1.1']"
p6311
(lp6312
(VC(90,2)*(1/900)^2*(1-1/900)^(90-2)
p6313
VC(90,2)((1/10)^2)(9/10)^88
p6314
(lp6315
(S'R.0.0'
p6316
I4005
VC(90,2)
p6317
VC(90,2)
p6318
tp6319
a(S'R.1.1'
p6320
F88.0
V90-2
p6321
V88
p6322
tp6323
aVskarimik
p6324
(lp6325
(V$j
p6326
V2
p6327
tp6328
a(V$k
p6329
V2
p6330
tp6331
a(V$a2
p6332
V0
p6333
tp6334
a(V$a
p6335
V900
p6336
tp6337
a(V$a1
p6338
V0
p6339
tp6340
a(V$x
p6341
V14
p6342
tp6343
a(V$y
p6344
V6
p6345
tp6346
a(V$select
p6347
V12
p6348
tp6349
a(V$r
p6350
V2
p6351
tp6352
a(V$s
p6353
V90
p6354
tp6355
aV2015-10-31 21:51:47
p6356
tp6357
a(g6313
VC(90,2)((1/10)^2)(9/10)^88
p6358
(lp6359
(S'R.0.0'
p6360
I4005
VC(90,2)
p6361
VC(90,2)
p6362
tp6363
a(S'R.1.1'
p6364
F88.0
V90-2
p6365
V88
p6366
tp6367
aVskarimik
p6368
g6325
V2015-10-31 22:23:50
p6369
tp6370
a(VC(90,3)*(1/900)^3*(1-1/900)^(90-3)
p6371
VC(90,3)*0.1^3*(0.9)^(87)
p6372
(lp6373
(S'R.0.0'
p6374
I117480
VC(90,3)
p6375
VC(90,3)
p6376
tp6377
a(S'R.1.1'
p6378
F87.0
V90-3
p6379
V87
p6380
tp6381
aVjyc018
p6382
g138
V2015-11-01 01:15:59
p6383
tp6384
a(g2665
VC(110,2)*(110/1100)^2*(1-110/1100)^108
p6385
(lp6386
(S'R.0.0'
p6387
I5995
VC(110,2)
p6388
VC(110,2)
p6389
tp6390
a(S'R.1.1'
p6391
F108.0
V110-2
p6392
V108
p6393
tp6394
aVvsamant
p6395
g2677
V2015-11-01 23:24:05
p6396
tp6397
a(g2665
VC(110,2)*(2*110/1100)^2*(1-2*110/1100)^108
p6398
(lp6399
(S'R.0.0'
p6400
I5995
VC(110,2)
p6401
VC(110,2)
p6402
tp6403
a(S'R.1.1'
p6404
F108.0
V110-2
p6405
V108
p6406
tp6407
aVvsamant
p6408
g2677
V2015-11-01 23:25:30
p6409
tp6410
a(g2665
VC(110,2)*(110/1100)^2*(1-110/1100)^108
p6411
(lp6412
(S'R.0.0'
p6413
I5995
VC(110,2)
p6414
VC(110,2)
p6415
tp6416
a(S'R.1.1'
p6417
F108.0
V110-2
p6418
V108
p6419
tp6420
aVvsamant
p6421
g2677
V2015-11-01 23:57:51
p6422
tp6423
a(g4862
VC(80,3)*0.001*0.9^77
p6424
(lp6425
(S'R.0.0'
p6426
I82160
VC(80,3)
p6427
VC(80,3)
p6428
tp6429
a(S'R.1.1'
p6430
F77.0
V80-3
p6431
V77
p6432
tp6433
aVz2tan
p6434
g4870
V2015-11-02 05:12:58
p6435
tp6436
a(g4862
VC(80,3)*0.1^3*0.9^77
p6437
(lp6438
(S'R.0.0'
p6439
I82160
VC(80,3)
p6440
VC(80,3)
p6441
tp6442
a(S'R.1.1'
p6443
F77.0
V80-3
p6444
V77
p6445
tp6446
aVz2tan
p6447
g4870
V2015-11-02 05:14:20
p6448
tp6449
a(g3832
VC(100,2)*.1^100(1-.1)^98
p6450
(lp6451
(S'R.0.0'
p6452
I4950
VC(100,2)
p6453
VC(100,2)
p6454
tp6455
a(S'R.1.1'
p6456
F98.0
V100-2
p6457
V98
p6458
tp6459
aVdcastlem
p6460
(lp6461
(V$j
p6462
V2
p6463
tp6464
a(V$k
p6465
V1
p6466
tp6467
a(V$a2
p6468
V0
p6469
tp6470
a(V$a
p6471
V1000
p6472
tp6473
a(V$a1
p6474
V0
p6475
tp6476
a(V$x
p6477
V15
p6478
tp6479
a(V$y
p6480
V5
p6481
tp6482
a(V$select
p6483
V11
p6484
tp6485
a(V$r
p6486
V2
p6487
tp6488
a(V$s
p6489
V100
p6490
tp6491
aV2015-11-02 21:45:44
p6492
tp6493
a(g3832
VC(100,2)*.1^100(1-.1)^98
p6494
(lp6495
(S'R.0.0'
p6496
I4950
VC(100,2)
p6497
VC(100,2)
p6498
tp6499
a(S'R.1.1'
p6500
F98.0
V100-2
p6501
V98
p6502
tp6503
aVdcastlem
p6504
g6461
V2015-11-02 21:47:12
p6505
tp6506
a(g6096
VC(80,3)(0.1^3)((1-0.1)^77)
p6507
(lp6508
(S'R.0.0'
p6509
I82160
VC(80,3)
p6510
VC(80,3)
p6511
tp6512
a(S'R.1.1'
p6513
F77.0
V80-3
p6514
V77
p6515
tp6516
aVglcohen
p6517
g177
V2015-11-03 16:38:34
p6518
tp6519
a(VC(80,2)*(1/800)^2*(1-1/800)^(80-2)
p6520
VC(80,2)*(.1)^(2)*(1-.1)^(80-2)
p6521
(lp6522
(S'R.0.0'
p6523
I3160
VC(80,2)
p6524
VC(80,2)
p6525
tp6526
a(S'R.1.1'
p6527
F78.0
V80-2
p6528
V80-2
p6529
tp6530
aVflhernan
p6531
(lp6532
(V$j
p6533
V2
p6534
tp6535
a(V$k
p6536
V2
p6537
tp6538
a(V$a2
p6539
V0
p6540
tp6541
a(V$a
p6542
V800
p6543
tp6544
a(V$a1
p6545
V0
p6546
tp6547
a(V$x
p6548
V14
p6549
tp6550
a(V$y
p6551
V6
p6552
tp6553
a(V$select
p6554
V8
p6555
tp6556
a(V$r
p6557
V1
p6558
tp6559
a(V$s
p6560
V80
p6561
tp6562
aV2015-11-03 19:08:54
p6563
tp6564
a(VC(100,2)*(1/1000)^2*(1-1/1000)^(100-2)
p6565
V4950 * (0.1)^2 * (1 - 0.1)^98
p6566
(lp6567
(S'R.0.0'
p6568
I4950
VC(100,2)
p6569
V4950
p6570
tp6571
a(S'R.1.1'
p6572
F98.0
V100-2
p6573
V98
p6574
tp6575
aVgthorn
p6576
(lp6577
(V$j
p6578
V2
p6579
tp6580
a(V$k
p6581
V1
p6582
tp6583
a(V$a2
p6584
V0
p6585
tp6586
a(V$a
p6587
V1000
p6588
tp6589
a(V$a1
p6590
V0
p6591
tp6592
a(V$x
p6593
V12
p6594
tp6595
a(V$y
p6596
V5
p6597
tp6598
a(V$select
p6599
V14
p6600
tp6601
a(V$r
p6602
V2
p6603
tp6604
a(V$s
p6605
V100
p6606
tp6607
aV2015-11-03 19:53:48
p6608
tp6609
a(g4944
VC(80,2)*((1/80)^2)*((79/80)^78)
p6610
(lp6611
(S'R.0.0'
p6612
I3160
VC(80,2)
p6613
VC(80,2)
p6614
tp6615
a(S'R.1.1'
p6616
F78.0
V80-2
p6617
V78
p6618
tp6619
aVachinn
p6620
g4952
V2015-11-03 21:06:36
p6621
tp6622
a(g2712
VC(90, 2) *.1^2(1-.1)^88
p6623
(lp6624
(S'R.0.0'
p6625
I4005
VC(90,2)
p6626
VC(90, 2)
p6627
tp6628
a(S'R.1.1'
p6629
F88.0
V90-2
p6630
V88
p6631
tp6632
aVsghouse
p6633
g2724
V2015-11-03 21:15:45
p6634
tp6635
a(VC(110,2)*(1/1100)^2*(1-1/1100)^(110-2)
p6636
VC(110,2)*(1/10)^2 * (1- (1/10))^108
p6637
(lp6638
(S'R.0.0'
p6639
I5995
VC(110,2)
p6640
VC(110,2)
p6641
tp6642
a(S'R.1.1'
p6643
F108.0
V110-2
p6644
V108
p6645
tp6646
aVetemlock
p6647
(lp6648
(V$j
p6649
V2
p6650
tp6651
a(V$k
p6652
V1
p6653
tp6654
a(V$a2
p6655
V0
p6656
tp6657
a(V$a
p6658
V1100
p6659
tp6660
a(V$a1
p6661
V0
p6662
tp6663
a(V$x
p6664
V14
p6665
tp6666
a(V$y
p6667
V6
p6668
tp6669
a(V$select
p6670
V9
p6671
tp6672
a(V$r
p6673
V1
p6674
tp6675
a(V$s
p6676
V110
p6677
tp6678
aV2015-11-03 21:25:29
p6679
tp6680
a(g6636
VC(110,2)*[(1/10)^2]*(0.9)^108
p6681
(lp6682
(S'R.0.0'
p6683
I5995
VC(110,2)
p6684
VC(110,2)
p6685
tp6686
a(S'R.1.1'
p6687
F108.0
V110-2
p6688
V108
p6689
tp6690
aVetemlock
p6691
g6648
V2015-11-03 21:29:07
p6692
tp6693
a(g6636
VC(110,2)*[(1/10)^20]*(0.9)^108
p6694
(lp6695
(S'R.0.0'
p6696
I5995
VC(110,2)
p6697
VC(110,2)
p6698
tp6699
a(S'R.1.1'
p6700
F108.0
V110-2
p6701
V108
p6702
tp6703
aVetemlock
p6704
g6648
V2015-11-03 21:33:30
p6705
tp6706
a(g6636
VC(110,2)*[(1/10)^2]*(0.9)^108
p6707
(lp6708
(S'R.0.0'
p6709
I5995
VC(110,2)
p6710
VC(110,2)
p6711
tp6712
a(S'R.1.1'
p6713
F108.0
V110-2
p6714
V108
p6715
tp6716
aVetemlock
p6717
g6648
V2015-11-03 21:33:41
p6718
tp6719
a(VC(110,3)*(1/1100)^3*(1-1/1100)^(110-3)
p6720
VC(110,3) * 0.1^3 * (1-0.1)^(110-3)
p6721
(lp6722
(S'R.0.0'
p6723
I215820
VC(110,3)
p6724
VC(110,3)
p6725
tp6726
a(S'R.1.1'
p6727
F107.0
V110-3
p6728
V110-3
p6729
tp6730
aVfichoi
p6731
(lp6732
(V$j
p6733
V3
p6734
tp6735
a(V$k
p6736
V2
p6737
tp6738
a(V$a2
p6739
V0
p6740
tp6741
a(V$a
p6742
V1100
p6743
tp6744
a(V$a1
p6745
V0
p6746
tp6747
a(V$x
p6748
V13
p6749
tp6750
a(V$y
p6751
V5
p6752
tp6753
a(V$select
p6754
V8
p6755
tp6756
a(V$r
p6757
V2
p6758
tp6759
a(V$s
p6760
V110
p6761
tp6762
aV2015-11-03 23:09:18
p6763
tp6764
a(g6720
VC(110,3) * 0.1^3 * (1-0.1)^(110-3)
p6765
(lp6766
(S'R.0.0'
p6767
I215820
VC(110,3)
p6768
VC(110,3)
p6769
tp6770
a(S'R.1.1'
p6771
F107.0
V110-3
p6772
V110-3
p6773
tp6774
aVfichoi
p6775
g6732
V2015-11-03 23:11:12
p6776
tp6777
a(g4985
VC(80,3)*0.1^3*0.9^77
p6778
(lp6779
(S'R.0.0'
p6780
I82160
VC(80,3)
p6781
VC(80,3)
p6782
tp6783
a(S'R.1.1'
p6784
F77.0
V80-3
p6785
V77
p6786
tp6787
aVqfu
p6788
g4993
V2015-11-04 01:40:30
p6789
tp6790
a(VC(90,3)*(1/900)^3*(1-1/900)^(90-3)
p6791
VC(90,3)*.10^3*.90^87
p6792
(lp6793
(S'R.0.0'
p6794
I117480
VC(90,3)
p6795
VC(90,3)
p6796
tp6797
a(S'R.1.1'
p6798
F87.0
V90-3
p6799
V87
p6800
tp6801
aVganajera
p6802
(lp6803
(V$j
p6804
V3
p6805
tp6806
a(V$k
p6807
V2
p6808
tp6809
a(V$a2
p6810
V0
p6811
tp6812
a(V$a
p6813
V900
p6814
tp6815
a(V$a1
p6816
V0
p6817
tp6818
a(V$x
p6819
V14
p6820
tp6821
a(V$y
p6822
V5
p6823
tp6824
a(V$select
p6825
V10
p6826
tp6827
a(V$r
p6828
V1
p6829
tp6830
a(V$s
p6831
V90
p6832
tp6833
aV2015-11-04 02:40:08
p6834
tp6835
a(VC(110,2)*(1/1100)^2*(1-1/1100)^(110-2)
p6836
VC(110, 2)*(0.1^2)*(0.9)^(110-2)
p6837
(lp6838
(S'R.0.0'
p6839
I5995
VC(110,2)
p6840
VC(110, 2)
p6841
tp6842
a(S'R.1.1'
p6843
F108.0
V110-2
p6844
V110-2
p6845
tp6846
aVcprafull
p6847
(lp6848
(V$j
p6849
V2
p6850
tp6851
a(V$k
p6852
V2
p6853
tp6854
a(V$a2
p6855
V0
p6856
tp6857
a(V$a
p6858
V1100
p6859
tp6860
a(V$a1
p6861
V0
p6862
tp6863
a(V$x
p6864
V15
p6865
tp6866
a(V$y
p6867
V6
p6868
tp6869
a(V$select
p6870
V15
p6871
tp6872
a(V$r
p6873
V1
p6874
tp6875
a(V$s
p6876
V110
p6877
tp6878
aV2015-11-04 03:13:00
p6879
tp6880
a(g6720
VC(110,3) * 0.1^3 * (1-0.1)^(110-3)
p6881
(lp6882
(S'R.0.0'
p6883
I215820
VC(110,3)
p6884
VC(110,3)
p6885
tp6886
a(S'R.1.1'
p6887
F107.0
V110-3
p6888
V110-3
p6889
tp6890
aVfichoi
p6891
g6732
V2015-11-04 03:18:33
p6892
tp6893
a(VC(120,3)*(1/1200)^3*(1-1/1200)^(120-3)
p6894
VC(120,3) * .1^3 *.9^117
p6895
(lp6896
(S'R.0.0'
p6897
I280840
VC(120,3)
p6898
VC(120,3)
p6899
tp6900
a(S'R.1.1'
p6901
F117.0
V120-3
p6902
V117
p6903
tp6904
aVjfalcone
p6905
(lp6906
(V$j
p6907
V3
p6908
tp6909
a(V$k
p6910
V2
p6911
tp6912
a(V$a2
p6913
V0
p6914
tp6915
a(V$a
p6916
V1200
p6917
tp6918
a(V$a1
p6919
V0
p6920
tp6921
a(V$x
p6922
V13
p6923
tp6924
a(V$y
p6925
V6
p6926
tp6927
a(V$select
p6928
V12
p6929
tp6930
a(V$r
p6931
V1
p6932
tp6933
a(V$s
p6934
V120
p6935
tp6936
aV2015-11-04 05:23:35
p6937
tp6938
a(g5076
V[C(90,2)][0.1^2][.9^88]
p6939
(lp6940
(S'R.0.0'
p6941
I4005
VC(90,2)
p6942
VC(90,2)
p6943
tp6944
a(S'R.1.1'
p6945
F88.0
V90-2
p6946
V88
p6947
tp6948
aVqtluong
p6949
g5084
V2015-11-04 06:04:44
p6950
tp6951
a(g5076
V[90!/[(2!)(90-2)!]][0.1^2][0.9^88]
p6952
(lp6953
(S'R.0.0'
p6954
I4005
VC(90,2)
p6955
V90!/[(2!)(90-2)!]
p6956
tp6957
a(S'R.1.1'
p6958
F88.0
V90-2
p6959
V88
p6960
tp6961
aVqtluong
p6962
g5084
V2015-11-04 06:05:56
p6963
tp6964
a(g5076
VC(90,2)(.1)^2(1-.1)^(90-2)
p6965
(lp6966
(S'R.0.0'
p6967
I4005
VC(90,2)
p6968
VC(90,2)
p6969
tp6970
a(S'R.1.1'
p6971
F88.0
V90-2
p6972
V90-2
p6973
tp6974
aVqtluong
p6975
g5084
V2015-11-04 06:09:52
p6976
tp6977
a(g2295
V(80!)/(77!*3!) * .9^3 * .1^77
p6978
(lp6979
(S'R.0.0'
p6980
I82160
VC(80,3)
p6981
V(80!)/(77!*3!)
p6982
tp6983
a(S'R.1.1'
p6984
F77.0
V80-3
p6985
V77
p6986
tp6987
aVstarinia
p6988
g2307
V2015-11-04 22:02:53
p6989
tp6990
a(g2295
VC(80,3) * (.1)^3 * .9^77
p6991
(lp6992
(S'R.0.0'
p6993
I82160
VC(80,3)
p6994
VC(80,3)
p6995
tp6996
a(S'R.1.1'
p6997
F77.0
V80-3
p6998
V77
p6999
tp7000
aVstarinia
p7001
g2307
V2015-11-04 22:11:54
p7002
tp7003
a(g2295
VC(80,3) * .9^3 * .1^77
p7004
(lp7005
(S'R.0.0'
p7006
I82160
VC(80,3)
p7007
VC(80,3)
p7008
tp7009
a(S'R.1.1'
p7010
F77.0
V80-3
p7011
V77
p7012
tp7013
aVstarinia
p7014
g2307
V2015-11-04 22:12:07
p7015
tp7016
a(g5171
V(C(100,2))(.1^2)(.9^98)
p7017
(lp7018
(S'R.0.0'
p7019
I4950
VC(100,2)
p7020
VC(100,2)
p7021
tp7022
a(S'R.1.1'
p7023
F98.0
V100-2
p7024
V98
p7025
tp7026
aVc1sorian
p7027
g892
V2015-11-04 22:42:16
p7028
tp7029
a(VC(80,2)*(1/800)^2*(1-1/800)^(80-2)
p7030
VC(80,2)(1/10)^2(9/10)^78
p7031
(lp7032
(S'R.0.0'
p7033
I3160
VC(80,2)
p7034
VC(80,2)
p7035
tp7036
a(S'R.1.1'
p7037
F78.0
V80-2
p7038
V78
p7039
tp7040
aVksrijong
p7041
(lp7042
(V$j
p7043
V2
p7044
tp7045
a(V$k
p7046
V2
p7047
tp7048
a(V$a2
p7049
V0
p7050
tp7051
a(V$a
p7052
V800
p7053
tp7054
a(V$a1
p7055
V0
p7056
tp7057
a(V$x
p7058
V15
p7059
tp7060
a(V$y
p7061
V5
p7062
tp7063
a(V$select
p7064
V12
p7065
tp7066
a(V$r
p7067
V2
p7068
tp7069
a(V$s
p7070
V80
p7071
tp7072
aV2015-11-04 22:43:04
p7073
tp7074
a(g5171
VC(100,2)(.1^2)(.9^98)
p7075
(lp7076
(S'R.0.0'
p7077
I4950
VC(100,2)
p7078
VC(100,2)
p7079
tp7080
a(S'R.1.1'
p7081
F98.0
V100-2
p7082
V98
p7083
tp7084
aVc1sorian
p7085
g892
V2015-11-04 22:48:44
p7086
tp7087
a(g5171
V(100!/(98!2!))(.1^2)(.9^98)
p7088
(lp7089
(S'R.0.0'
p7090
I4950
VC(100,2)
p7091
V100!/(98!2!)
p7092
tp7093
a(S'R.1.1'
p7094
F98.0
V100-2
p7095
V98
p7096
tp7097
aVc1sorian
p7098
g892
V2015-11-04 22:49:24
p7099
tp7100
a(VC(120,3)*(1/1200)^3*(1-1/1200)^(120-3)
p7101
VC(120,3)*.1(.9)^117
p7102
(lp7103
(S'R.0.0'
p7104
I280840
VC(120,3)
p7105
VC(120,3)
p7106
tp7107
a(S'R.1.1'
p7108
F117.0
V120-3
p7109
V117
p7110
tp7111
aVjdeon
p7112
(lp7113
(V$j
p7114
V3
p7115
tp7116
a(V$k
p7117
V2
p7118
tp7119
a(V$a2
p7120
V0
p7121
tp7122
a(V$a
p7123
V1200
p7124
tp7125
a(V$a1
p7126
V0
p7127
tp7128
a(V$x
p7129
V15
p7130
tp7131
a(V$y
p7132
V6
p7133
tp7134
a(V$select
p7135
V15
p7136
tp7137
a(V$r
p7138
V1
p7139
tp7140
a(V$s
p7141
V120
p7142
tp7143
aV2015-11-04 22:56:50
p7144
tp7145
a(VC(100,3)*(1/1000)^3*(1-1/1000)^(100-3)
p7146
V(C(100, 3))*(.1^3)*((1-.1)^(100-3))
p7147
(lp7148
(S'R.0.0'
p7149
I161700
VC(100,3)
p7150
VC(100, 3)
p7151
tp7152
a(S'R.1.1'
p7153
F97.0
V100-3
p7154
V100-3
p7155
tp7156
aVvolim
p7157
(lp7158
(V$j
p7159
V3
p7160
tp7161
a(V$k
p7162
V2
p7163
tp7164
a(V$a2
p7165
V0
p7166
tp7167
a(V$a
p7168
V1000
p7169
tp7170
a(V$a1
p7171
V0
p7172
tp7173
a(V$x
p7174
V15
p7175
tp7176
a(V$y
p7177
V5
p7178
tp7179
a(V$select
p7180
V15
p7181
tp7182
a(V$r
p7183
V1
p7184
tp7185
a(V$s
p7186
V100
p7187
tp7188
aV2015-11-04 23:08:00
p7189
tp7190
a(g7146
V(C(100, 3))**(.1^3)*((1-.1)^(100-3))
p7191
(lp7192
(S'R.0.0'
p7193
I161700
VC(100,3)
p7194
VC(100, 3)
p7195
tp7196
a(S'R.1.1'
p7197
F97.0
V100-3
p7198
V100-3
p7199
tp7200
aVvolim
p7201
g7158
V2015-11-04 23:08:40
p7202
tp7203
a(g7146
V(C(100, 3))*(.01^3)*((1-.01)^(100-3))
p7204
(lp7205
(S'R.0.0'
p7206
I161700
VC(100,3)
p7207
VC(100, 3)
p7208
tp7209
a(S'R.1.1'
p7210
F97.0
V100-3
p7211
V100-3
p7212
tp7213
aVvolim
p7214
g7158
V2015-11-04 23:11:30
p7215
tp7216
a(g5190
V(100!/(2!98!))(.1)^2(.9)^98 
p7217
(lp7218
(S'R.0.0'
p7219
I4950
VC(100,2)
p7220
V100!/(2!98!)
p7221
tp7222
a(S'R.1.1'
p7223
F98.0
V100-2
p7224
V98
p7225
tp7226
aVkew060
p7227
g5198
V2015-11-05 01:35:24
p7228
tp7229
a(g2340
VC(90,2)*(2/900)^2*(898/900)^88
p7230
(lp7231
(S'R.0.0'
p7232
I4005
VC(90,2)
p7233
VC(90,2)
p7234
tp7235
a(S'R.1.1'
p7236
F88.0
V90-2
p7237
V88
p7238
tp7239
aVkrau
p7240
g2352
V2015-11-05 03:07:36
p7241
tp7242
a(VC(100,2)*(1/1000)^2*(1-1/1000)^(100-2)
p7243
V99*50*(1/100)*(9/10)^98
p7244
(lp7245
(S'R.0.0'
p7246
I4950
VC(100,2)
p7247
V99*50
p7248
tp7249
a(S'R.1.1'
p7250
F98.0
V100-2
p7251
V98
p7252
tp7253
aVd6he
p7254
(lp7255
(V$j
p7256
V2
p7257
tp7258
a(V$k
p7259
V2
p7260
tp7261
a(V$a2
p7262
V0
p7263
tp7264
a(V$a
p7265
V1000
p7266
tp7267
a(V$a1
p7268
V0
p7269
tp7270
a(V$x
p7271
V13
p7272
tp7273
a(V$y
p7274
V6
p7275
tp7276
a(V$select
p7277
V14
p7278
tp7279
a(V$r
p7280
V1
p7281
tp7282
a(V$s
p7283
V100
p7284
tp7285
aV2015-11-05 03:15:17
p7286
tp7287
a(g4985
VC(80,77)*(0.1)^3*(0.9)^77
p7288
(lp7289
(S'R.0.0'
p7290
I82160
VC(80,3)
p7291
VC(80,77)
p7292
tp7293
a(S'R.1.1'
p7294
F77.0
V80-3
p7295
V77
p7296
tp7297
aVqfu
p7298
g4993
V2015-11-05 03:21:43
p7299
tp7300
a(g6636
VC(110,2)*[(1/10)^2]*(0.9)^108
p7301
(lp7302
(S'R.0.0'
p7303
I5995
VC(110,2)
p7304
VC(110,2)
p7305
tp7306
a(S'R.1.1'
p7307
F108.0
V110-2
p7308
V108
p7309
tp7310
aVetemlock
p7311
g6648
V2015-11-05 03:35:29
p7312
tp7313
a(g2665
VC(110,2)*(110/1100)^2*(1-110/1100)^108
p7314
(lp7315
(S'R.0.0'
p7316
I5995
VC(110,2)
p7317
VC(110,2)
p7318
tp7319
a(S'R.1.1'
p7320
F108.0
V110-2
p7321
V108
p7322
tp7323
aVvsamant
p7324
g2677
V2015-11-05 03:39:22
p7325
tp7326
a(g2665
VC(110,2)*(110/1100)^2*(1-110/1100)^108
p7327
(lp7328
(S'R.0.0'
p7329
I5995
VC(110,2)
p7330
VC(110,2)
p7331
tp7332
a(S'R.1.1'
p7333
F108.0
V110-2
p7334
V108
p7335
tp7336
aVvsamant
p7337
g2677
V2015-11-05 03:42:05
p7338
tp7339
a(g2665
VC(110,2)*(110/1100)^2*(1-110/1100)^(110-2)
p7340
(lp7341
(S'R.0.0'
p7342
I5995
VC(110,2)
p7343
VC(110,2)
p7344
tp7345
a(S'R.1.1'
p7346
F108.0
V110-2
p7347
V110-2
p7348
tp7349
aVvsamant
p7350
g2677
V2015-11-05 03:43:23
p7351
tp7352
a(VC(100,2)*(1/1000)^2*(1-1/1000)^(100-2)
p7353
V(100!/(98!*2!))(1/10)^2(1-.1)^(98)
p7354
(lp7355
(S'R.0.0'
p7356
I4950
VC(100,2)
p7357
V100!/(98!*2!)
p7358
tp7359
a(S'R.1.1'
p7360
F98.0
V100-2
p7361
V98
p7362
tp7363
aVlahawkin
p7364
(lp7365
(V$j
p7366
V2
p7367
tp7368
a(V$k
p7369
V2
p7370
tp7371
a(V$a2
p7372
V0
p7373
tp7374
a(V$a
p7375
V1000
p7376
tp7377
a(V$a1
p7378
V0
p7379
tp7380
a(V$x
p7381
V14
p7382
tp7383
a(V$y
p7384
V6
p7385
tp7386
a(V$select
p7387
V12
p7388
tp7389
a(V$r
p7390
V2
p7391
tp7392
a(V$s
p7393
V100
p7394
tp7395
aV2015-11-05 03:48:55
p7396
tp7397
a(g7353
V(100!/(98!*2!))(1/10)^100(1-.1)^(98)
p7398
(lp7399
(S'R.0.0'
p7400
I4950
VC(100,2)
p7401
V100!/(98!*2!)
p7402
tp7403
a(S'R.1.1'
p7404
F98.0
V100-2
p7405
V98
p7406
tp7407
aVlahawkin
p7408
g7365
V2015-11-05 03:51:10
p7409
tp7410
a(g7353
V(100!/(98!*2!))(10)^100(1-.1)^(98)
p7411
(lp7412
(S'R.0.0'
p7413
I4950
VC(100,2)
p7414
V100!/(98!*2!)
p7415
tp7416
a(S'R.1.1'
p7417
F98.0
V100-2
p7418
V98
p7419
tp7420
aVlahawkin
p7421
g7365
V2015-11-05 03:51:59
p7422
tp7423
a(g1816
VC(120,2)* .1 * (1-.1)^(120-2)
p7424
(lp7425
(S'R.0.0'
p7426
I7140
VC(120,2)
p7427
VC(120,2)
p7428
tp7429
a(S'R.1.1'
p7430
F118.0
V120-2
p7431
V120-2
p7432
tp7433
aVcsl030
p7434
g1828
V2015-11-05 04:51:08
p7435
tp7436
a(g1816
VC(120,2) * .1^2 * .9^118
p7437
(lp7438
(S'R.0.0'
p7439
I7140
VC(120,2)
p7440
VC(120,2)
p7441
tp7442
a(S'R.1.1'
p7443
F118.0
V120-2
p7444
V118
p7445
tp7446
aVcsl030
p7447
g1828
V2015-11-05 04:52:20
p7448
tp7449
a(g4056
VC ( 120, 3) .1 ^ 3 (1 - .1) ^ (120 - 3)
p7450
(lp7451
(S'R.0.0'
p7452
I280840
VC(120,3)
p7453
VC ( 120, 3)
p7454
tp7455
a(S'R.1.1'
p7456
F117.0
V120-3
p7457
V120 - 3
p7458
tp7459
aVv3doan
p7460
g766
V2015-11-05 05:02:06
p7461
tp7462
a(g4056
VC ( 120, 3) .1 ^ 3 (1 - .1) ^ (120 - 3)
p7463
(lp7464
(S'R.0.0'
p7465
I280840
VC(120,3)
p7466
VC ( 120, 3)
p7467
tp7468
a(S'R.1.1'
p7469
F117.0
V120-3
p7470
V120 - 3
p7471
tp7472
aVv3doan
p7473
g766
V2015-11-05 05:06:20
p7474
tp7475
a(g4056
VC ( 120, 3) .9 ^ 3 (1 - .9) ^ (120 - 3)
p7476
(lp7477
(S'R.0.0'
p7478
I280840
VC(120,3)
p7479
VC ( 120, 3)
p7480
tp7481
a(S'R.1.1'
p7482
F117.0
V120-3
p7483
V120 - 3
p7484
tp7485
aVv3doan
p7486
g766
V2015-11-05 05:06:49
p7487
tp7488
a(VC(100,2)*(1/1000)^2*(1-1/1000)^(100-2)
p7489
VC(100,2)*(1/10)**2*(9/10)**(100-2)
p7490
(lp7491
(S'R.0.0'
p7492
I4950
VC(100,2)
p7493
VC(100,2)
p7494
tp7495
a(S'R.1.1'
p7496
F98.0
V100-2
p7497
V100-2
p7498
tp7499
aVjguanzho
p7500
(lp7501
(V$j
p7502
V2
p7503
tp7504
a(V$k
p7505
V1
p7506
tp7507
a(V$a2
p7508
V0
p7509
tp7510
a(V$a
p7511
V1000
p7512
tp7513
a(V$a1
p7514
V0
p7515
tp7516
a(V$x
p7517
V13
p7518
tp7519
a(V$y
p7520
V5
p7521
tp7522
a(V$select
p7523
V10
p7524
tp7525
a(V$r
p7526
V2
p7527
tp7528
a(V$s
p7529
V100
p7530
tp7531
aV2015-11-05 05:18:45
p7532
tp7533
a(g5470
VC(110,3)*((1/110)^3)*((1-(1/110))^(110-3))
p7534
(lp7535
(S'R.0.0'
p7536
I215820
VC(110,3)
p7537
VC(110,3)
p7538
tp7539
a(S'R.1.1'
p7540
F107.0
V110-3
p7541
V110-3
p7542
tp7543
aVdlgoldbe
p7544
g5478
V2015-11-05 05:27:17
p7545
tp7546
a(g5470
VC(110,3)*((3/110)^3)*((1-(3/110))^(110-3))
p7547
(lp7548
(S'R.0.0'
p7549
I215820
VC(110,3)
p7550
VC(110,3)
p7551
tp7552
a(S'R.1.1'
p7553
F107.0
V110-3
p7554
V110-3
p7555
tp7556
aVdlgoldbe
p7557
g5478
V2015-11-05 05:28:45
p7558
tp7559
a(g5470
VC(110,3)*((1/110)^3)*((1-(1/110))^(110-3))
p7560
(lp7561
(S'R.0.0'
p7562
I215820
VC(110,3)
p7563
VC(110,3)
p7564
tp7565
a(S'R.1.1'
p7566
F107.0
V110-3
p7567
V110-3
p7568
tp7569
aVdlgoldbe
p7570
g5478
V2015-11-05 05:29:20
p7571
tp7572
a(g5511
VC(80,3)(.1^3)(.9^77)
p7573
(lp7574
(S'R.0.0'
p7575
I82160
VC(80,3)
p7576
VC(80,3)
p7577
tp7578
a(S'R.1.1'
p7579
F77.0
V80-3
p7580
V77
p7581
tp7582
aVksmurlo
p7583
g5519
V2015-11-05 05:51:55
p7584
tp7585
a(g5511
VC(80,3)(.1^3)(.9^77)
p7586
(lp7587
(S'R.0.0'
p7588
I82160
VC(80,3)
p7589
VC(80,3)
p7590
tp7591
a(S'R.1.1'
p7592
F77.0
V80-3
p7593
V77
p7594
tp7595
aVksmurlo
p7596
g5519
V2015-11-05 05:52:24
p7597
tp7598
a(g5552
VC(90,2)*(.1)^2*(1-.9)^88
p7599
(lp7600
(S'R.0.0'
p7601
I4005
VC(90,2)
p7602
VC(90,2)
p7603
tp7604
a(S'R.1.1'
p7605
F88.0
V90-2
p7606
V88
p7607
tp7608
aVgsrandha
p7609
g5560
V2015-11-05 06:51:23
p7610
tp7611
a(g5552
VC(90,2)*(.1)^2*(1-.1)^88
p7612
(lp7613
(S'R.0.0'
p7614
I4005
VC(90,2)
p7615
VC(90,2)
p7616
tp7617
a(S'R.1.1'
p7618
F88.0
V90-2
p7619
V88
p7620
tp7621
aVgsrandha
p7622
g5560
V2015-11-05 06:54:58
p7623
tp7624
a(g7489
VC(100,2)*(1/10)**2 * (9/10)**98
p7625
(lp7626
(S'R.0.0'
p7627
I4950
VC(100,2)
p7628
VC(100,2)
p7629
tp7630
a(S'R.1.1'
p7631
F98.0
V100-2
p7632
V98
p7633
tp7634
aVjguanzho
p7635
g7501
V2015-11-05 07:56:20
p7636
tp7637
a(g7489
VC(100, 2)*(2/10)**2*(8/10)**98
p7638
(lp7639
(S'R.0.0'
p7640
I4950
VC(100,2)
p7641
VC(100, 2)
p7642
tp7643
a(S'R.1.1'
p7644
F98.0
V100-2
p7645
V98
p7646
tp7647
aVjguanzho
p7648
g7501
V2015-11-05 08:01:30
p7649
tp7650
a(g7489
VC(100, 2)*(0.1)**2*(0.9)**98
p7651
(lp7652
(S'R.0.0'
p7653
I4950
VC(100,2)
p7654
VC(100, 2)
p7655
tp7656
a(S'R.1.1'
p7657
F98.0
V100-2
p7658
V98
p7659
tp7660
aVjguanzho
p7661
g7501
V2015-11-05 08:13:52
p7662
tp7663
a(g7489
VC(100, 2)*(0.01)**2*(0.99)**98
p7664
(lp7665
(S'R.0.0'
p7666
I4950
VC(100,2)
p7667
VC(100, 2)
p7668
tp7669
a(S'R.1.1'
p7670
F98.0
V100-2
p7671
V98
p7672
tp7673
aVjguanzho
p7674
g7501
V2015-11-05 08:14:06
p7675
tp7676
a(g3081
VC(100,2)(100/1000)^2(1-100/1000)^(100-2)
p7677
(lp7678
(S'R.0.0'
p7679
I4950
VC(100,2)
p7680
VC(100,2)
p7681
tp7682
a(S'R.1.1'
p7683
F98.0
V100-2
p7684
V100-2
p7685
tp7686
aVb3hwang
p7687
g3097
V2015-11-05 08:35:32
p7688
tp7689
a(VC(110,3)*(1/1100)^3*(1-1/1100)^(110-3)
p7690
V110*109*108/3/2*0.1^3*0.9^107
p7691
(lp7692
(S'R.0.0'
p7693
I215820
VC(110,3)
p7694
V110*109*108/3/2
p7695
tp7696
a(S'R.1.1'
p7697
F107.0
V110-3
p7698
V107
p7699
tp7700
aVyig015
p7701
(lp7702
(V$j
p7703
V3
p7704
tp7705
a(V$k
p7706
V1
p7707
tp7708
a(V$a2
p7709
V0
p7710
tp7711
a(V$a
p7712
V1100
p7713
tp7714
a(V$a1
p7715
V0
p7716
tp7717
a(V$x
p7718
V15
p7719
tp7720
a(V$y
p7721
V6
p7722
tp7723
a(V$select
p7724
V8
p7725
tp7726
a(V$r
p7727
V2
p7728
tp7729
a(V$s
p7730
V110
p7731
tp7732
aV2015-11-05 10:24:25
p7733
tp7734
a(g7690
V110*109*108/3/2*(1/110)^3*(1-1/110)^107
p7735
(lp7736
(S'R.0.0'
p7737
I215820
VC(110,3)
p7738
V110*109*108/3/2
p7739
tp7740
a(S'R.1.1'
p7741
F107.0
V110-3
p7742
V107
p7743
tp7744
aVyig015
p7745
g7702
V2015-11-05 10:26:58
p7746
tp7747
a(g7690
V110*109*108/6*(1/110)^3*(1-1/110)^107
p7748
(lp7749
(S'R.0.0'
p7750
I215820
VC(110,3)
p7751
V110*109*108/6
p7752
tp7753
a(S'R.1.1'
p7754
F107.0
V110-3
p7755
V107
p7756
tp7757
aVyig015
p7758
g7702
V2015-11-05 10:28:09
p7759
tp7760
a(VC(110,3)*(1/1100)^3*(1-1/1100)^(110-3)
p7761
VC(110,3) *0.5^3 *(0.5)^107
p7762
(lp7763
(S'R.0.0'
p7764
I215820
VC(110,3)
p7765
VC(110,3)
p7766
tp7767
a(S'R.1.1'
p7768
F107.0
V110-3
p7769
V107
p7770
tp7771
aVrbdoming
p7772
g933
V2015-11-05 18:43:11
p7773
tp7774
a(g3130
VC(100,3)(0.1)^3 (0.7)^(100-3)
p7775
(lp7776
(S'R.0.0'
p7777
I161700
VC(100,3)
p7778
VC(100,3)
p7779
tp7780
a(S'R.1.1'
p7781
F97.0
V100-3
p7782
V100-3
p7783
tp7784
aVbkoli
p7785
g3146
V2015-11-05 21:06:47
p7786
tp7787
a(g3130
VC(100,3)(0.1)^3 (0.9)^(100-3)
p7788
(lp7789
(S'R.0.0'
p7790
I161700
VC(100,3)
p7791
VC(100,3)
p7792
tp7793
a(S'R.1.1'
p7794
F97.0
V100-3
p7795
V100-3
p7796
tp7797
aVbkoli
p7798
g3146
V2015-11-05 21:10:36
p7799
tp7800
a(g2618
VC(120, 2) ((1/10)^2)(1-(1/10))^(120-2)
p7801
(lp7802
(S'R.0.0'
p7803
I7140
VC(120,2)
p7804
VC(120, 2)
p7805
tp7806
a(S'R.1.1'
p7807
F118.0
V120-2
p7808
V120-2
p7809
tp7810
aVv4sharma
p7811
g2630
V2015-11-05 21:37:51
p7812
tp7813
a(g2618
VC(120, 2) ((1/10)^2)(9/10)^(120-2)
p7814
(lp7815
(S'R.0.0'
p7816
I7140
VC(120,2)
p7817
VC(120, 2)
p7818
tp7819
a(S'R.1.1'
p7820
F118.0
V120-2
p7821
V120-2
p7822
tp7823
aVv4sharma
p7824
g2630
V2015-11-05 21:45:59
p7825
tp7826
a(g5190
V(100!/(2!98!))(.1)^2(.9)^98 
p7827
(lp7828
(S'R.0.0'
p7829
I4950
VC(100,2)
p7830
V100!/(2!98!)
p7831
tp7832
a(S'R.1.1'
p7833
F98.0
V100-2
p7834
V98
p7835
tp7836
aVkew060
p7837
g5198
V2015-11-05 23:35:51
p7838
tp7839
a(g1913
VC(90,2)* ( (2/900)^2) * ( (2-2/900)^(90-2) )
p7840
(lp7841
(S'R.0.0'
p7842
I4005
VC(90,2)
p7843
VC(90,2)
p7844
tp7845
a(S'R.1.1'
p7846
F88.0
V90-2
p7847
V90-2
p7848
tp7849
aVbpandayk
p7850
g1925
V2015-11-06 00:43:42
p7851
tp7852
a(VC(90,2)*(1/900)^2*(1-1/900)^(90-2)
p7853
VC(90,2)*.5^2*.5^88
p7854
(lp7855
(S'R.0.0'
p7856
I4005
VC(90,2)
p7857
VC(90,2)
p7858
tp7859
a(S'R.1.1'
p7860
F88.0
V90-2
p7861
V88
p7862
tp7863
aVpnquach
p7864
(lp7865
(V$j
p7866
V2
p7867
tp7868
a(V$k
p7869
V1
p7870
tp7871
a(V$a2
p7872
V0
p7873
tp7874
a(V$a
p7875
V900
p7876
tp7877
a(V$a1
p7878
V0
p7879
tp7880
a(V$x
p7881
V14
p7882
tp7883
a(V$y
p7884
V6
p7885
tp7886
a(V$select
p7887
V14
p7888
tp7889
a(V$r
p7890
V2
p7891
tp7892
a(V$s
p7893
V90
p7894
tp7895
aV2015-11-06 03:50:26
p7896
tp7897
a(g7853
VC(90,2)*.1^2*.9^88
p7898
(lp7899
(S'R.0.0'
p7900
I4005
VC(90,2)
p7901
VC(90,2)
p7902
tp7903
a(S'R.1.1'
p7904
F88.0
V90-2
p7905
V88
p7906
tp7907
aVpnquach
p7908
g7865
V2015-11-06 04:29:32
p7909
tp7910
a(g7853
V(90!/(2!*88!))*.1^2*.9^88
p7911
(lp7912
(S'R.0.0'
p7913
I4005
VC(90,2)
p7914
V90!/(2!*88!)
p7915
tp7916
a(S'R.1.1'
p7917
F88.0
V90-2
p7918
V88
p7919
tp7920
aVpnquach
p7921
g7865
V2015-11-06 04:31:13
p7922
tp7923
a(g7853
V(90!/(2!*88!))*.5^2*.5^88
p7924
(lp7925
(S'R.0.0'
p7926
I4005
VC(90,2)
p7927
V90!/(2!*88!)
p7928
tp7929
a(S'R.1.1'
p7930
F88.0
V90-2
p7931
V88
p7932
tp7933
aVpnquach
p7934
g7865
V2015-11-06 04:38:29
p7935
tp7936
a(g7853
V(90!/(2!*88!))*.1^2*.9^88
p7937
(lp7938
(S'R.0.0'
p7939
I4005
VC(90,2)
p7940
V90!/(2!*88!)
p7941
tp7942
a(S'R.1.1'
p7943
F88.0
V90-2
p7944
V88
p7945
tp7946
aVpnquach
p7947
g7865
V2015-11-06 04:39:56
p7948
tp7949
a(g7853
VC(90,2)*.1^2*.9^88
p7950
(lp7951
(S'R.0.0'
p7952
I4005
VC(90,2)
p7953
VC(90,2)
p7954
tp7955
a(S'R.1.1'
p7956
F88.0
V90-2
p7957
V88
p7958
tp7959
aVpnquach
p7960
g7865
V2015-11-06 05:24:46
p7961
tp7962
a(g1615
VC(120,2)(2/1200)(1-2/1200)^118
p7963
(lp7964
(S'R.0.0'
p7965
I7140
VC(120,2)
p7966
VC(120,2)
p7967
tp7968
a(S'R.1.1'
p7969
F118.0
V120-2
p7970
V118
p7971
tp7972
aVytc012
p7973
g1623
V2015-11-06 08:36:07
p7974
tp7975
a(VC(90,3)*(1/900)^3*(1-1/900)^(90-3)
p7976
VC(90, 3) * (1/900 * 90)^3 * (1 - (1/900 * 90))^(90 - 3)
p7977
(lp7978
(S'R.0.0'
p7979
I117480
VC(90,3)
p7980
VC(90, 3)
p7981
tp7982
a(S'R.1.1'
p7983
F87.0
V90-3
p7984
V90 - 3
p7985
tp7986
aVrwthomps
p7987
(lp7988
(V$j
p7989
V3
p7990
tp7991
a(V$k
p7992
V2
p7993
tp7994
a(V$a2
p7995
V0
p7996
tp7997
a(V$a
p7998
V900
p7999
tp8000
a(V$a1
p8001
V0
p8002
tp8003
a(V$x
p8004
V14
p8005
tp8006
a(V$y
p8007
V6
p8008
tp8009
a(V$select
p8010
V10
p8011
tp8012
a(V$r
p8013
V1
p8014
tp8015
a(V$s
p8016
V90
p8017
tp8018
aV2015-11-06 16:56:09
p8019
tp8020
a(g2618
VC(120, 2) ((1/10)^2)(9/10)^(118)
p8021
(lp8022
(S'R.0.0'
p8023
I7140
VC(120,2)
p8024
VC(120, 2)
p8025
tp8026
a(S'R.1.1'
p8027
F118.0
V120-2
p8028
V118
p8029
tp8030
aVv4sharma
p8031
g2630
V2015-11-06 16:59:48
p8032
tp8033
a(VC(100,3)*(1/1000)^3*(1-1/1000)^(100-3)
p8034
VC(100,3)*(1/10)^(3)*(9/10)^(97)
p8035
(lp8036
(S'R.0.0'
p8037
I161700
VC(100,3)
p8038
VC(100,3)
p8039
tp8040
a(S'R.1.1'
p8041
F97.0
V100-3
p8042
V97
p8043
tp8044
aVthwan
p8045
(lp8046
(V$j
p8047
V3
p8048
tp8049
a(V$k
p8050
V1
p8051
tp8052
a(V$a2
p8053
V0
p8054
tp8055
a(V$a
p8056
V1000
p8057
tp8058
a(V$a1
p8059
V0
p8060
tp8061
a(V$x
p8062
V12
p8063
tp8064
a(V$y
p8065
V5
p8066
tp8067
a(V$select
p8068
V15
p8069
tp8070
a(V$r
p8071
V2
p8072
tp8073
a(V$s
p8074
V100
p8075
tp8076
aV2015-11-06 19:24:01
p8077
tp8078
a(g5936
VC(120,2)(0.1)^2(1-0.1)^(120-2)
p8079
(lp8080
(S'R.0.0'
p8081
I7140
VC(120,2)
p8082
VC(120,2)
p8083
tp8084
a(S'R.1.1'
p8085
F118.0
V120-2
p8086
V120-2
p8087
tp8088
aVasp025
p8089
g5944
V2015-11-06 19:28:35
p8090
tp8091
a(g5936
VC(120,2)(120/1200)^2(1-(120/1200))^(120-2)
p8092
(lp8093
(S'R.0.0'
p8094
I7140
VC(120,2)
p8095
VC(120,2)
p8096
tp8097
a(S'R.1.1'
p8098
F118.0
V120-2
p8099
V120-2
p8100
tp8101
aVasp025
p8102
g5944
V2015-11-06 19:29:21
p8103
tp8104
a(g5936
VC(120,2)(120/1200)^2(1-(120/1200))^(120-2)
p8105
(lp8106
(S'R.0.0'
p8107
I7140
VC(120,2)
p8108
VC(120,2)
p8109
tp8110
a(S'R.1.1'
p8111
F118.0
V120-2
p8112
V120-2
p8113
tp8114
aVasp025
p8115
g5944
V2015-11-06 19:33:04
p8116
tp8117
a(g5936
VC(120,2)(120/1200)^2(1-(120/1200))^(120-2)
p8118
(lp8119
(S'R.0.0'
p8120
I7140
VC(120,2)
p8121
VC(120,2)
p8122
tp8123
a(S'R.1.1'
p8124
F118.0
V120-2
p8125
V120-2
p8126
tp8127
aVasp025
p8128
g5944
V2015-11-06 19:38:05
p8129
tp8130
a(g4206
VC(100,2) * (1/100)^2 * (99/100)^98
p8131
(lp8132
(S'R.0.0'
p8133
I4950
VC(100,2)
p8134
VC(100,2)
p8135
tp8136
a(S'R.1.1'
p8137
F98.0
V100-2
p8138
V98
p8139
tp8140
aVrraiyyan
p8141
g4214
V2015-11-06 21:07:51
p8142
tp8143
a(g5995
VC(100,2)(.1)^2(1-.1)^98
p8144
(lp8145
(S'R.0.0'
p8146
I4950
VC(100,2)
p8147
VC(100,2)
p8148
tp8149
a(S'R.1.1'
p8150
F98.0
V100-2
p8151
V98
p8152
tp8153
aVhmshah
p8154
g6003
V2015-11-06 22:12:58
p8155
tp8156
a(g4570
VC(120,2)*(1/10)^2*(1-1/10)^118
p8157
(lp8158
(S'R.0.0'
p8159
I7140
VC(120,2)
p8160
VC(120,2)
p8161
tp8162
a(S'R.1.1'
p8163
F118.0
V120-2
p8164
V118
p8165
tp8166
aVakg009
p8167
g4578
V2015-11-06 22:23:02
p8168
tp8169
a(g3783
V(4950)(0.01)((9/10)^98)
p8170
(lp8171
(S'R.0.0'
p8172
I4950
VC(100,2)
p8173
V4950
p8174
tp8175
a(S'R.1.1'
p8176
F98.0
V100-2
p8177
V98
p8178
tp8179
aVlpettit
p8180
g3789
V2015-11-06 22:31:20
p8181
tp8182
a(g3783
V(4950)((1/10)^2)((9/10)^98)
p8183
(lp8184
(S'R.0.0'
p8185
I4950
VC(100,2)
p8186
V4950
p8187
tp8188
a(S'R.1.1'
p8189
F98.0
V100-2
p8190
V98
p8191
tp8192
aVlpettit
p8193
g3789
V2015-11-06 22:32:14
p8194
tp8195
a(g3783
V(100*99/2)((1/10)^2)((9/10)^98)
p8196
(lp8197
(S'R.0.0'
p8198
I4950
VC(100,2)
p8199
V100*99/2
p8200
tp8201
a(S'R.1.1'
p8202
F98.0
V100-2
p8203
V98
p8204
tp8205
aVlpettit
p8206
g3789
V2015-11-06 22:34:37
p8207
tp8208
a(VC(80,3)*(1/800)^3*(1-1/800)^(80-3)
p8209
V((80!)/(3!*77!))*(.1^3)*(1-.1)^77
p8210
(lp8211
(S'R.0.0'
p8212
I82160
VC(80,3)
p8213
V(80!)/(3!*77!)
p8214
tp8215
a(S'R.1.1'
p8216
F77.0
V80-3
p8217
V77
p8218
tp8219
aVdcgriffi
p8220
(lp8221
(V$j
p8222
V3
p8223
tp8224
a(V$k
p8225
V1
p8226
tp8227
a(V$a2
p8228
V0
p8229
tp8230
a(V$a
p8231
V800
p8232
tp8233
a(V$a1
p8234
V0
p8235
tp8236
a(V$x
p8237
V13
p8238
tp8239
a(V$y
p8240
V6
p8241
tp8242
a(V$select
p8243
V10
p8244
tp8245
a(V$r
p8246
V1
p8247
tp8248
a(V$s
p8249
V80
p8250
tp8251
aV2015-11-06 23:24:38
p8252
tp8253
a(VC(90,2)*(1/900)^2*(1-1/900)^(90-2)
p8254
VC(90,2)*(90/900)^(2)*(1-(90/90))^(90-2)
p8255
(lp8256
(S'R.0.0'
p8257
I4005
VC(90,2)
p8258
VC(90,2)
p8259
tp8260
a(S'R.1.1'
p8261
F88.0
V90-2
p8262
V90-2
p8263
tp8264
aVdcrume
p8265
(lp8266
(V$j
p8267
V2
p8268
tp8269
a(V$k
p8270
V2
p8271
tp8272
a(V$a2
p8273
V0
p8274
tp8275
a(V$a
p8276
V900
p8277
tp8278
a(V$a1
p8279
V0
p8280
tp8281
a(V$x
p8282
V15
p8283
tp8284
a(V$y
p8285
V5
p8286
tp8287
a(V$select
p8288
V12
p8289
tp8290
a(V$r
p8291
V2
p8292
tp8293
a(V$s
p8294
V90
p8295
tp8296
aV2015-11-06 23:25:14
p8297
tp8298
a(g8254
V4005*(90/900)^(2)*(1-(90/900))^(90-2)
p8299
(lp8300
(S'R.0.0'
p8301
I4005
VC(90,2)
p8302
V4005
p8303
tp8304
a(S'R.1.1'
p8305
F88.0
V90-2
p8306
V90-2
p8307
tp8308
aVdcrume
p8309
g8266
V2015-11-06 23:26:09
p8310
tp8311
a(g8209
V((80!)/(3!*77!))*(.1^3)*(.9)^77
p8312
(lp8313
(S'R.0.0'
p8314
I82160
VC(80,3)
p8315
V(80!)/(3!*77!)
p8316
tp8317
a(S'R.1.1'
p8318
F77.0
V80-3
p8319
V77
p8320
tp8321
aVdcgriffi
p8322
g8221
V2015-11-06 23:26:13
p8323
tp8324
a(g4056
VC ( 120, 3) .1 ^ 3 (1 - .1) ^ (120 - 3)
p8325
(lp8326
(S'R.0.0'
p8327
I280840
VC(120,3)
p8328
VC ( 120, 3)
p8329
tp8330
a(S'R.1.1'
p8331
F117.0
V120-3
p8332
V120 - 3
p8333
tp8334
aVv3doan
p8335
g766
V2015-11-07 00:11:06
p8336
tp8337
a(g2055
V4005(2/90)^2(1-2/90)^88
p8338
(lp8339
(S'R.0.0'
p8340
I4005
VC(90,2)
p8341
V4005
p8342
tp8343
a(S'R.1.1'
p8344
F88.0
V90-2
p8345
V88
p8346
tp8347
aVrohan
p8348
g97
V2015-11-07 00:43:47
p8349
tp8350
asS"['R.1.0.1.1']"
p8351
(lp8352
(g3860
V(1 - 0.1)/((90 * (1/900) * (899/900))^0.5)
p8353
(lp8354
(S'R.1.0.1.1'
p8355
F900.0
V900
p8356
V900
p8357
tp8358
aVatorr
p8359
g5749
V2015-11-05 23:45:44
p8360
tp8361
asS"['R.1.0.1']"
p8362
(lp8363
(VC(110,1)*(1/1100)^1*(1-1/1100)^(110-1)
p8364
Ve^(-110*(1/1100))*(110*(1/1100))^1
p8365
(lp8366
(S'R.1.0.1'
p8367
F0.0009090909090909091
V1/1100
p8368
V1/1100
p8369
tp8370
aVyypan
p8371
(lp8372
(V$j
p8373
V1
p8374
tp8375
a(V$k
p8376
V2
p8377
tp8378
a(V$a2
p8379
V0
p8380
tp8381
a(V$a
p8382
V1100
p8383
tp8384
a(V$a1
p8385
V0
p8386
tp8387
a(V$x
p8388
V13
p8389
tp8390
a(V$y
p8391
V6
p8392
tp8393
a(V$select
p8394
V9
p8395
tp8396
a(V$r
p8397
V1
p8398
tp8399
a(V$s
p8400
V110
p8401
tp8402
aV2015-11-02 23:57:50
p8403
tp8404
a(g3860
V0.9/(90 * [1/900] * [899/900])
p8405
(lp8406
(S'R.1.0.1'
p8407
F0.0011111111111111111
V1/900
p8408
V1/900
p8409
tp8410
aVatorr
p8411
g5749
V2015-11-05 21:01:49
p8412
tp8413
asS"['R.0.0', 'R.1.0']"
p8414
(lp8415
(g2295
VC(80,3) * (1/800)^77 * ((1 -1/800)^(3))
p8416
(lp8417
(S'R.0.0'
p8418
I82160
VC(80,3)
p8419
VC(80,3)
p8420
tp8421
a(S'R.1.0'
p8422
F0.99875
V1-1/800
p8423
V1 -1/800
p8424
tp8425
aVstarinia
p8426
g2307
V2015-11-04 22:12:28
p8427
tp8428
a(g2340
VC(90,2)*1/900*(899/900)^89
p8429
(lp8430
(S'R.0.0'
p8431
I4005
VC(90,2)
p8432
VC(90,2)*1
p8433
tp8434
a(S'R.1.0'
p8435
F0.9988888888888889
V1-1/900
p8436
V899/900
p8437
tp8438
aVkrau
p8439
g2352
V2015-11-05 03:06:18
p8440
tp8441
a(g1615
VC(120,2)(1/1200)(1-1/1200)^120
p8442
(lp8443
(S'R.0.0'
p8444
I7140
VC(120,2)
p8445
VC(120,2)
p8446
tp8447
a(S'R.1.0'
p8448
F0.9991666666666666
V1-1/1200
p8449
V1-1/1200
p8450
tp8451
aVytc012
p8452
g1623
V2015-11-06 08:35:53
p8453
tp8454
a(g1615
VC(120,2)(1/1200)(1-1/1200)^119
p8455
(lp8456
(S'R.0.0'
p8457
I7140
VC(120,2)
p8458
VC(120,2)
p8459
tp8460
a(S'R.1.0'
p8461
F0.9991666666666666
V1-1/1200
p8462
V1-1/1200
p8463
tp8464
aVytc012
p8465
g1623
V2015-11-06 08:36:47
p8466
tp8467
a(g4075
VC(80,3)(1/800)(1-(1/800))^79
p8468
(lp8469
(S'R.0.0'
p8470
I82160
VC(80,3)
p8471
VC(80,3)
p8472
tp8473
a(S'R.1.0'
p8474
F0.99875
V1-1/800
p8475
V1-(1/800)
p8476
tp8477
aVc3chung
p8478
g4083
V2015-11-06 10:37:08
p8479
tp8480
a(g2873
VC(100,2)(1/1000)(1-1/1000)**999
p8481
(lp8482
(S'R.0.0'
p8483
I4950
VC(100,2)
p8484
VC(100,2)
p8485
tp8486
a(S'R.1.0'
p8487
F0.999
V1-1/1000
p8488
V1-1/1000
p8489
tp8490
aVjtfrankl
p8491
g2885
V2015-11-06 18:14:59
p8492
tp8493
a(g2873
VC(100,2)(1/1000)(1-1/1000)**998
p8494
(lp8495
(S'R.0.0'
p8496
I4950
VC(100,2)
p8497
VC(100,2)
p8498
tp8499
a(S'R.1.0'
p8500
F0.999
V1-1/1000
p8501
V1-1/1000
p8502
tp8503
aVjtfrankl
p8504
g2885
V2015-11-06 18:16:24
p8505
tp8506
a(g2010
VC(110,2)* ( (1/1100)^1) * ( (1-1/1100)^(110-1) )
p8507
(lp8508
(S'R.0.0'
p8509
I5995
VC(110,2)
p8510
VC(110,2)
p8511
tp8512
a(S'R.1.0'
p8513
F0.9990909090909091
V1-1/1100
p8514
V1-1/1100
p8515
tp8516
aVsthapa
p8517
g2022
V2015-11-06 23:53:02
p8518
tp8519
a(g2055
V4005(1/90)^2(1-1/900)^898
p8520
(lp8521
(S'R.0.0'
p8522
I4005
VC(90,2)
p8523
V4005
p8524
tp8525
a(S'R.1.0'
p8526
F0.9988888888888889
V1-1/900
p8527
V1-1/900
p8528
tp8529
aVrohan
p8530
g97
V2015-11-07 00:44:23
p8531
tp8532
asS"['R.0.0', 'R.0.1']"
p8533
(lp8534
(VC(90,2)*(1/900)^2*(1-1/900)^(90-2)
p8535
VC(90,2)(1/900)^2(1-(1/900)^(90-2))
p8536
(lp8537
(S'R.0.0'
p8538
I4005
VC(90,2)
p8539
VC(90,2)
p8540
tp8541
a(S'R.0.1'
p8542
F1.234567901234568e-06
V(1/900)^2
p8543
V(1/900)^2
p8544
tp8545
aVjag028
p8546
(lp8547
(V$j
p8548
V2
p8549
tp8550
a(V$k
p8551
V1
p8552
tp8553
a(V$a2
p8554
V0
p8555
tp8556
a(V$a
p8557
V900
p8558
tp8559
a(V$a1
p8560
V0
p8561
tp8562
a(V$x
p8563
V12
p8564
tp8565
a(V$y
p8566
V5
p8567
tp8568
a(V$select
p8569
V11
p8570
tp8571
a(V$r
p8572
V1
p8573
tp8574
a(V$s
p8575
V90
p8576
tp8577
aV2015-11-02 22:08:29
p8578
tp8579
a(VC(110,3)*(1/1100)^3*(1-1/1100)^(110-3)
p8580
VC(110, 3)(1/1100)^3(1-(1/1100)^(110-3))
p8581
(lp8582
(S'R.0.0'
p8583
I215820
VC(110,3)
p8584
VC(110, 3)
p8585
tp8586
a(S'R.0.1'
p8587
F7.513148009015778e-10
V(1/1100)^3
p8588
V(1/1100)^3
p8589
tp8590
aVaordookh
p8591
(lp8592
(V$j
p8593
V3
p8594
tp8595
a(V$k
p8596
V1
p8597
tp8598
a(V$a2
p8599
V0
p8600
tp8601
a(V$a
p8602
V1100
p8603
tp8604
a(V$a1
p8605
V0
p8606
tp8607
a(V$x
p8608
V15
p8609
tp8610
a(V$y
p8611
V5
p8612
tp8613
a(V$select
p8614
V14
p8615
tp8616
a(V$r
p8617
V2
p8618
tp8619
a(V$s
p8620
V110
p8621
tp8622
aV2015-11-04 21:51:43
p8623
tp8624
a(g2162
V(100*99*98/(3*2))*(1/1000)^3*(1-(1/1000)^97)
p8625
(lp8626
(S'R.0.0'
p8627
I161700
VC(100,3)
p8628
V100*99*98/(3*2)
p8629
tp8630
a(S'R.0.1'
p8631
F1e-09
V(1/1000)^3
p8632
V(1/1000)^3
p8633
tp8634
aVjmiclat
p8635
g2170
V2015-11-06 09:23:23
p8636
tp8637
asS"['R.0.1', 'R.1.0']"
p8638
(lp8639
(g1059
VP(110,3)*(1/1100)^3*(1099/1100)^10
p8640
(lp8641
(S'R.0.1'
p8642
F7.513148009015778e-10
V(1/1100)^3
p8643
V(1/1100)^3
p8644
tp8645
a(S'R.1.0'
p8646
F0.9990909090909091
V1-1/1100
p8647
V1099/1100
p8648
tp8649
aVsmohiman
p8650
g1067
V2015-11-02 01:18:40
p8651
tp8652
a(VC(110,3)*(1/1100)^3*(1-1/1100)^(110-3)
p8653
V221228700*(1/1100)^3*(1099/1100)^(1100-3)
p8654
(lp8655
(S'R.0.1'
p8656
F7.513148009015778e-10
V(1/1100)^3
p8657
V(1/1100)^3
p8658
tp8659
a(S'R.1.0'
p8660
F0.9990909090909091
V1-1/1100
p8661
V1099/1100
p8662
tp8663
aVacs008
p8664
(lp8665
(V$j
p8666
V3
p8667
tp8668
a(V$k
p8669
V2
p8670
tp8671
a(V$a2
p8672
V0
p8673
tp8674
a(V$a
p8675
V1100
p8676
tp8677
a(V$a1
p8678
V0
p8679
tp8680
a(V$x
p8681
V13
p8682
tp8683
a(V$y
p8684
V5
p8685
tp8686
a(V$select
p8687
V15
p8688
tp8689
a(V$r
p8690
V2
p8691
tp8692
a(V$s
p8693
V110
p8694
tp8695
aV2015-11-04 04:32:45
p8696
tp8697
a(g2918
VC(1100,3)*(1/1100)^3*(1-(1/1100))^1097
p8698
(lp8699
(S'R.0.1'
p8700
F7.513148009015778e-10
V(1/1100)^3
p8701
V(1/1100)^3
p8702
tp8703
a(S'R.1.0'
p8704
F0.9990909090909091
V1-1/1100
p8705
V1-(1/1100)
p8706
tp8707
aVk4ma
p8708
g2930
V2015-11-06 20:45:30
p8709
tp8710
a(g2055
V404550(1/900)^2(1-1/900)^898
p8711
(lp8712
(S'R.0.1'
p8713
F1.234567901234568e-06
V(1/900)^2
p8714
V(1/900)^2
p8715
tp8716
a(S'R.1.0'
p8717
F0.9988888888888889
V1-1/900
p8718
V1-1/900
p8719
tp8720
aVrohan
p8721
g97
V2015-11-06 23:10:11
p8722
tp8723
a(g2055
V404550(1/900)^2(1-1/900)^898
p8724
(lp8725
(S'R.0.1'
p8726
F1.234567901234568e-06
V(1/900)^2
p8727
V(1/900)^2
p8728
tp8729
a(S'R.1.0'
p8730
F0.9988888888888889
V1-1/900
p8731
V1-1/900
p8732
tp8733
aVrohan
p8734
g97
V2015-11-07 00:40:03
p8735
tp8736
a(g2055
V45(1/900)^2(1-1/900)^898
p8737
(lp8738
(S'R.0.1'
p8739
F1.234567901234568e-06
V(1/900)^2
p8740
V(1/900)^2
p8741
tp8742
a(S'R.1.0'
p8743
F0.9988888888888889
V1-1/900
p8744
V1-1/900
p8745
tp8746
aVrohan
p8747
g97
V2015-11-07 00:41:20
p8748
tp8749
ass.