(dp0
V1
p1
ccollections
defaultdict
p2
(c__builtin__
list
p3
tp4
Rp5
S'Digits'
p6
(lp7
(V1*(1+1/2+1/3+1/4+1/5)
p8
V5
p9
tp10
a(V1*(1+1/2+1/3+1/4+1/5)
p11
V6
p12
tp13
a(g11
V0
p14
tp15
a(g11
V4
p16
tp17
a(g11
V6
p18
tp19
a(V5*(1+1/2+1/3+1/4+1/5)
p20
V1
p21
tp22
a(V1*(1+1/2+1/3+1/4+1/5)
p23
V1
p24
tp25
a(V3*(1+1/2+1/3+1/4+1/5)
p26
V3
p27
tp28
a(V4*(1+1/2+1/3+1/4+1/5)
p29
V4
p30
tp31
a(V2*(1+1/2+1/3+1/4+1/5)
p32
V5
p33
tp34
a(V3*(1+1/2+1/3+1/4+1/5)
p35
V1
p36
tp37
a(V5*(1+1/2+1/3+1/4+1/5)
p38
V1
p39
tp40
a(V5*(1+1/2+1/3+1/4+1/5)
p41
V1
p42
tp43
a(V2*(1+1/2+1/3+1/4+1/5)
p44
V2
p45
tp46
a(V4*(1+1/2+1/3+1/4+1/5)
p47
V4
p48
tp49
a(V3*(1+1/2+1/3+1/4+1/5)
p50
V0
p51
tp52
a(V4*(1+1/2+1/3+1/4+1/5)
p53
V8
p54
tp55
a(g53
V4
p56
tp57
a(V5*(1+1/2+1/3+1/4+1/5)
p58
V5
p59
tp60
a(g58
V0
p61
tp62
a(g58
V1
p63
tp64
a(g58
V5
p65
tp66
a(V3*(1+1/2+1/3+1/4+1/5)
p67
V3
p68
tp69
a(V3*(1+1/2+1/3+1/4+1/5)
p70
V1
p71
tp72
a(g70
V3
p73
tp74
a(V3*(1+1/2+1/3+1/4+1/5)
p75
V15
p76
tp77
a(g67
V3
p78
tp79
a(g67
V5
p80
tp81
a(V3*(1+1/2+1/3+1/4+1/5)
p82
V3
p83
tp84
a(V1*(1+1/2+1/3+1/4+1/5)
p85
V0
p86
tp87
a(V2*(1+1/2+1/3+1/4+1/5)
p88
V2
p89
tp90
a(V3*(1+1/2+1/3+1/4+1/5)
p91
V0
p92
tp93
a(V4*(1+1/2+1/3+1/4+1/5)
p94
V4
p95
tp96
a(V5*(1+1/2+1/3+1/4+1/5)
p97
V1
p98
tp99
a(g97
V5
p100
tp101
a(V5*(1+1/2+1/3+1/4+1/5)
p102
V1
p103
tp104
a(V2*(1+1/2+1/3+1/4+1/5)
p105
V2
p106
tp107
a(V2*(1+1/2+1/3+1/4+1/5)
p108
V15
p109
tp110
a(V4*(1+1/2+1/3+1/4+1/5)
p111
V4
p112
tp113
a(V5*(1+1/2+1/3+1/4+1/5)
p114
V5
p115
tp116
a(g114
V5
p117
tp118
a(g114
V1
p119
tp120
a(V5*(1+1/2+1/3+1/4+1/5)
p121
V1
p122
tp123
asS"['R.1.0.0.0.1.1', 'R.1.0.0.1.1', 'R.1.0.1.1']"
p124
(lp125
(g38
V1/5(5/1+5/2+5/3+5/4+5/5)
p126
(lp127
(S'R.1.0.0.0.1.1'
p128
F2.0
V2
p129
g129
tp130
a(S'R.1.0.0.1.1'
p131
F3.0
V3
p132
g132
tp133
a(S'R.1.0.1.1'
p134
F4.0
V4
p135
g135
tp136
aVfichoi
p137
(lp138
(V$b
p139
V6
p140
tp141
a(V$a
p142
V5
p143
tp144
aV2015-11-04 05:08:51
p145
tp146
asS"['R.1.0.0.1', 'R.1.0.1', 'R.1.1']"
p147
(lp148
(V2*(1+1/2+1/3+1/4+1/5)
p149
V2*(1/1 + 1/2 + 1/3 + 1/3 + 1/4 + 1/5)
p150
(lp151
(S'R.1.0.0.1'
p152
F0.3333333333333333
V1/3
p153
V1/3
p154
tp155
a(S'R.1.0.1'
p156
F0.25
V1/4
p157
V1/4
p158
tp159
a(S'R.1.1'
p160
F0.2
V1/5
p161
V1/5
p162
tp163
aVjnatale
p164
(lp165
(V$b
p166
V10
p167
tp168
a(V$a
p169
V2
p170
tp171
aV2015-11-04 08:37:50
p172
tp173
asS"['R.1']"
p174
(lp175
(V3*(1+1/2+1/3+1/4+1/5)
p176
V5*(1+1/2+1/3+1/4+1/5)
p177
(lp178
(S'R.1'
p179
F2.283333333333333
V1+1/2+1/3+1/4+1/5
p180
V1+1/2+1/3+1/4+1/5
p181
tp182
aVpcdo
p183
(lp184
(V$b
p185
V9
p186
tp187
a(V$a
p188
V3
p189
tp190
aV2015-11-02 18:49:04
p191
tp192
a(V4*(1+1/2+1/3+1/4+1/5)
p193
V5*(1+1/2+1/3+1/4+1/5)
p194
(lp195
(S'R.1'
p196
F2.283333333333333
V1+1/2+1/3+1/4+1/5
p197
V1+1/2+1/3+1/4+1/5
p198
tp199
aVjcl084
p200
(lp201
(V$b
p202
V6
p203
tp204
a(V$a
p205
V4
p206
tp207
aV2015-11-02 20:40:16
p208
tp209
a(g26
V3/5(1+1/2+1/3+1/4+1/5)
p210
(lp211
(S'R.1'
p212
F2.283333333333333
V1+1/2+1/3+1/4+1/5
p213
V1+1/2+1/3+1/4+1/5
p214
tp215
aVb1yao
p216
(lp217
(V$b
p218
V10
p219
tp220
a(V$a
p221
V3
p222
tp223
aV2015-11-03 08:08:12
p224
tp225
a(V1*(1+1/2+1/3+1/4+1/5)
p226
V5*(1/1+1/2+1/3+1/4+1/5)
p227
(lp228
(S'R.1'
p229
F2.283333333333333
V1+1/2+1/3+1/4+1/5
p230
V1/1+1/2+1/3+1/4+1/5
p231
tp232
aVagoldsht
p233
(lp234
(V$b
p235
V6
p236
tp237
a(V$a
p238
V1
p239
tp240
aV2015-11-04 19:52:36
p241
tp242
a(V1*(1+1/2+1/3+1/4+1/5)
p243
V5*(1+1/2+1/3+1/4+1/5)
p244
(lp245
(S'R.1'
p246
F2.283333333333333
V1+1/2+1/3+1/4+1/5
p247
V1+1/2+1/3+1/4+1/5
p248
tp249
aVffhaddad
p250
(lp251
(V$b
p252
V8
p253
tp254
a(V$a
p255
V1
p256
tp257
aV2015-11-05 20:30:11
p258
tp259
a(g243
V8*(1+1/2+1/3+1/4+1/5)
p260
(lp261
(S'R.1'
p262
F2.283333333333333
V1+1/2+1/3+1/4+1/5
p263
V1+1/2+1/3+1/4+1/5
p264
tp265
aVffhaddad
p266
g251
V2015-11-05 20:30:41
p267
tp268
a(V1*(1+1/2+1/3+1/4+1/5)
p269
V5*((1/1)+(1/2)+(1/3)+(1/4)+(1/5))
p270
(lp271
(S'R.1'
p272
F2.283333333333333
V1+1/2+1/3+1/4+1/5
p273
V(1/1)+(1/2)+(1/3)+(1/4)+(1/5)
p274
tp275
aVlcardoso
p276
(lp277
(V$b
p278
V8
p279
tp280
a(V$a
p281
V1
p282
tp283
aV2015-11-06 20:37:48
p284
tp285
asS"['R.1.1']"
p286
(lp287
(V3*(1+1/2+1/3+1/4+1/5)
p288
V3(1/3 - 1/2 +1/5)
p289
(lp290
(S'R.1.1'
p291
F0.2
V1/5
p292
V1/5
p293
tp294
aVsmall
p295
(lp296
(V$b
p297
V9
p298
tp299
a(V$a
p300
V3
p301
tp302
aV2015-11-06 02:51:39
p303
tp304
asS'Wrong_Sign'
p305
(lp306
(g88
V2/5-.5
p307
tp308
assV3
p309
g2
(g3
tp310
Rp311
g6
(lp312
(V1*(1-1/2+1/3-1/4+1/5)
p313
V0
p314
tp315
a(g313
V1
p316
tp317
a(V5*(1-1/2+1/3-1/4+1/5)
p318
V1
p319
tp320
a(V5*(1-1/2+1/3-1/4+1/5)
p321
V0
p322
tp323
a(V1*(1-1/2+1/3-1/4+1/5)
p324
V0
p325
tp326
a(V3*(1-1/2+1/3-1/4+1/5)
p327
V0
p328
tp329
asS"['R.1']"
p330
(lp331
(V1*(1-1/2+1/3-1/4+1/5)
p332
V5*((1/1)-(1/2)+(1/3)-(1/4)+(1/5))
p333
(lp334
(S'R.1'
p335
F0.7833333333333332
V1-1/2+1/3-1/4+1/5
p336
V(1/1)-(1/2)+(1/3)-(1/4)+(1/5)
p337
tp338
aVlcardoso
p339
g277
V2015-11-06 20:37:48
p340
tp341
asg305
(lp342
(V1*(1-1/2+1/3-1/4+1/5)
p343
V1-1/2-1/3-1/4-1/5
p344
tp345
a(V4*(1-1/2+1/3-1/4+1/5)
p346
V4-2-(4/3)-1-(4/5)
p347
tp348
a(V4*(1-1/2+1/3-1/4+1/5)
p349
V-1.113
p350
tp351
a(V3*(1-1/2+1/3-1/4+1/5)
p352
V3/1 - 3/2 - 3/3 - 3/4 - 3/5
p353
tp354
a(V2*(1-1/2+1/3-1/4+1/5)
p355
V(1-1/2-1/3-1/4-1/5)*2
p356
tp357
asS"['R.1.0.0.1', 'R.1.0.1', 'R.1.1']"
p358
(lp359
(V2*(1-1/2+1/3-1/4+1/5)
p360
V2*(1/1 - 1/2 + 1/3 - 1/3 + 1/4 - 1/5)
p361
(lp362
(S'R.1.0.0.1'
p363
F0.3333333333333333
V1/3
p364
V1/3
p365
tp366
a(S'R.1.0.1'
p367
F0.25
V1/4
p368
V1/4
p369
tp370
a(S'R.1.1'
p371
F0.2
V1/5
p372
V1/5
p373
tp374
aVjnatale
p375
g165
V2015-11-04 08:41:47
p376
tp377
a(g360
V2*(1/1 - 1/2 - 1/3 + 1/4 - 1/5)
p378
(lp379
(S'R.1.0.0.1'
p380
F0.3333333333333333
V1/3
p381
V1/3
p382
tp383
a(S'R.1.0.1'
p384
F0.25
V1/4
p385
V1/4
p386
tp387
a(S'R.1.1'
p388
F0.2
V1/5
p389
V1/5
p390
tp391
aVjnatale
p392
g165
V2015-11-04 08:43:34
p393
tp394
assV2
p395
g2
(g3
tp396
Rp397
g6
(lp398
(V6*(1+1/4+1/9+1/16+1/25)
p399
V6
p400
tp401
a(V6*(1+1/4+1/9+1/16+1/25)
p402
V6
p403
tp404
a(V9*(1+1/4+1/9+1/16+1/25)
p405
V9
p406
tp407
a(V10*(1+1/4+1/9+1/16+1/25)
p408
V0
p409
tp410
a(V8*(1+1/4+1/9+1/16+1/25)
p411
V8
p412
tp413
asS'redirect'
p414
(lp415
(V9*(1+1/4+1/9+1/16+1/25)
p416
V9/25
p417
tp418
a(g399
V6+6/4+6/8+6/16+6/32
p419
tp420
a(V6*(1+1/4+1/9+1/16+1/25)
p421
V1.7563
p422
tp423
a(g421
V8.8352
p424
tp425
a(g405
V9/(5^2)
p426
tp427
a(g405
V9/15
p428
tp429
a(V7*(1+1/4+1/9+1/16+1/25)
p430
V[[(5/1)+(5/2)+(5/3)+(5/4)+(5/5)]/5]^2
p431
tp432
a(V8*(1+1/4+1/9+1/16+1/25)
p433
V(8/25)(8/36)/(2)
p434
tp435
a(V8*(1+1/4+1/9+1/16+1/25)
p436
V40/25
p437
tp438
a(V7*(1+1/4+1/9+1/16+1/25)
p439
V( 1 + 1/4 + 1/3 + 1/4 + 1/5) / 5
p440
tp441
a(V8*(1+1/4+1/9+1/16+1/25)
p442
V8 + 2 + 1 + 1/2 + 1/4
p443
tp444
a(V10*(1+1/4+1/9+1/16+1/25)
p445
V2.9272222222222222
p446
tp447
a(V10*(1+1/4+1/9+1/16+1/25)
p448
V[3/1 + 3/4 + 3/9 + 3/16 + 3/25]/5
p449
tp450
a(V8*(1+1/4+1/9+1/16+1/25)
p451
V(4/5)^2
p452
tp453
a(V8*(1+1/4+1/9+1/16+1/25)
p454
V5/25
p455
tp456
asS"['R.1']"
p457
(lp458
(g411
V5*(1 + 1/4 + 1/9 + 1/16 + 1/25)
p459
(lp460
(S'R.1'
p461
F1.4636111111111112
V1+1/4+1/9+1/16+1/25
p462
V1 + 1/4 + 1/9 + 1/16 + 1/25
p463
tp464
aVrraiyyan
p465
(lp466
(V$b
p467
V8
p468
tp469
a(V$a
p470
V5
p471
tp472
aV2015-11-06 23:21:53
p473
tp474
asS"['R.1.1']"
p475
(lp476
(V10*(1+1/4+1/9+1/16+1/25)
p477
V10/(1^2) + 10/((1/2)^2) + 10/((1/3)^2) + 10/((1/4)^2) + 10/((1/5)^2)
p478
(lp479
(S'R.1.1'
p480
F0.04
V1/25
p481
V(1/5)^2
p482
tp483
aVaurodrig
p484
(lp485
(V$b
p486
V10
p487
tp488
a(V$a
p489
V1
p490
tp491
aV2015-11-06 23:18:43
p492
tp493
a(g477
V10/(1^2) - 10/((1/2)^2) + 10/((1/3)^2) - 10/((1/4)^2) + 10/((1/5)^2)
p494
(lp495
(S'R.1.1'
p496
F0.04
V1/25
p497
V(1/5)^2
p498
tp499
aVaurodrig
p500
g485
V2015-11-06 23:20:53
p501
tp502
asS"['R.0', 'R.1.0.0.0.1']"
p503
(lp504
(g477
V10/((1 + 1/2+1/3+1/4+1/5)^2)^2
p505
(lp506
(S'R.0'
p507
F10.0
V10
p508
V10
p509
tp510
a(S'R.1.0.0.0.1'
p511
F0.25
V1/4
p512
V1/4
p513
tp514
aVaurodrig
p515
g485
V2015-11-06 23:13:49
p516
tp517
asS"['R.0', 'R.1']"
p518
(lp519
(g477
V10/((1^2 + (1/2)^2+(1/3)^2+(1/4)^2+(1/5)^2))
p520
(lp521
(S'R.0'
p522
F10.0
V10
p523
V10
p524
tp525
a(S'R.1'
p526
F1.4636111111111112
V1+1/4+1/9+1/16+1/25
p527
V1^2 + (1/2)^2+(1/3)^2+(1/4)^2+(1/5)^2
p528
tp529
aVaurodrig
p530
g485
V2015-11-06 23:16:27
p531
tp532
asS"['R.0']"
p533
(lp534
(V7*(1+1/4+1/9+1/16+1/25)
p535
V7/25
p536
(lp537
(S'R.0'
p538
F7.0
V7
p539
g539
tp540
aVl8ngo
p541
(lp542
(V$b
p543
V7
p544
tp545
a(V$a
p546
V2
p547
tp548
aV2015-10-30 16:27:14
p549
tp550
a(V10*(1+1/4+1/9+1/16+1/25)
p551
V10/25
p552
(lp553
(S'R.0'
p554
F10.0
V10
p555
V10
p556
tp557
aVhkhodada
p558
(lp559
(V$b
p560
V10
p561
tp562
a(V$a
p563
V4
p564
tp565
aV2015-10-31 16:41:16
p566
tp567
a(g399
V6/32
p568
(lp569
(S'R.0'
p570
F6.0
V6
p571
g571
tp572
aVmtrafeca
p573
(lp574
(V$b
p575
V6
p576
tp577
a(V$a
p578
V1
p579
tp580
aV2015-11-02 02:11:47
p581
tp582
a(V10*(1+1/4+1/9+1/16+1/25)
p583
V10/5^2
p584
(lp585
(S'R.0'
p586
F10.0
V10
p587
V10
p588
tp589
aVyypan
p590
(lp591
(V$b
p592
V10
p593
tp594
a(V$a
p595
V5
p596
tp597
aV2015-11-03 00:26:21
p598
tp599
a(V6*(1+1/4+1/9+1/16+1/25)
p600
V6/25
p601
(lp602
(S'R.0'
p603
F6.0
g571
g571
tp604
aVc1wei
p605
(lp606
(V$b
p607
V6
p608
tp609
a(V$a
p610
V3
p611
tp612
aV2015-11-04 06:48:33
p613
tp614
a(V10*(1+1/4+1/9+1/16+1/25)
p615
V10/(5^2)
p616
(lp617
(S'R.0'
p618
F10.0
V10
p619
V10
p620
tp621
aVlywong
p622
(lp623
(V$b
p624
V10
p625
tp626
a(V$a
p627
V2
p628
tp629
aV2015-11-04 07:23:36
p630
tp631
a(V6*(1+1/4+1/9+1/16+1/25)
p632
V6/30
p633
(lp634
(S'R.0'
p635
F6.0
g571
g571
tp636
aVagoldsht
p637
g234
V2015-11-04 19:46:32
p638
tp639
a(V7*(1+1/4+1/9+1/16+1/25)
p640
V7/5^2
p641
(lp642
(S'R.0'
p643
F7.0
g539
g539
tp644
aVtjke
p645
(lp646
(V$b
p647
V7
p648
tp649
a(V$a
p650
V1
p651
tp652
aV2015-11-04 21:11:14
p653
tp654
a(V8*(1+1/4+1/9+1/16+1/25)
p655
V8/4^2
p656
(lp657
(S'R.0'
p658
F8.0
V8
p659
g659
tp660
aVaordookh
p661
(lp662
(V$b
p663
V8
p664
tp665
a(V$a
p666
V4
p667
tp668
aV2015-11-04 22:07:09
p669
tp670
a(V8*(1+1/4+1/9+1/16+1/25)
p671
V8/25
p672
(lp673
(S'R.0'
p674
F8.0
g659
g659
tp675
aVabasu
p676
(lp677
(V$b
p678
V8
p679
tp680
a(V$a
p681
V3
p682
tp683
aV2015-11-05 03:00:23
p684
tp685
a(V7*(1+1/4+1/9+1/16+1/25)
p686
V7/25
p687
(lp688
(S'R.0'
p689
F7.0
g539
g539
tp690
aVsyc078
p691
(lp692
(V$b
p693
V7
p694
tp695
a(V$a
p696
V1
p697
tp698
aV2015-11-05 03:29:15
p699
tp700
a(V8*(1+1/4+1/9+1/16+1/25)
p701
V8/(5^2)
p702
(lp703
(S'R.0'
p704
F8.0
g659
g659
tp705
aVjfalcone
p706
(lp707
(V$b
p708
V8
p709
tp710
a(V$a
p711
V1
p712
tp713
aV2015-11-05 05:28:29
p714
tp715
a(V8*(1+1/4+1/9+1/16+1/25)
p716
V8/5^2
p717
(lp718
(S'R.0'
p719
F8.0
g659
g659
tp720
aVnhn018
p721
(lp722
(V$b
p723
V8
p724
tp725
a(V$a
p726
V2
p727
tp728
aV2015-11-05 05:49:28
p729
tp730
a(V6*(1+1/4+1/9+1/16+1/25)
p731
V6/(1+4+9+16+25)
p732
(lp733
(S'R.0'
p734
F6.0
g571
g571
tp735
aVs6deng
p736
(lp737
(V$b
p738
V6
p739
tp740
a(V$a
p741
V3
p742
tp743
aV2015-11-05 07:24:12
p744
tp745
a(V6*(1+1/4+1/9+1/16+1/25)
p746
V6*(1+1/2+1/3+1/4+1/5)
p747
(lp748
(S'R.0'
p749
F6.0
g571
g571
tp750
aVlalacson
p751
(lp752
(V$b
p753
V6
p754
tp755
a(V$a
p756
V4
p757
tp758
aV2015-11-05 08:43:22
p759
tp760
a(V7*(1+1/4+1/9+1/16+1/25)
p761
V7/5^2
p762
(lp763
(S'R.0'
p764
F7.0
g539
g539
tp765
aVj2phung
p766
(lp767
(V$b
p768
V7
p769
tp770
a(V$a
p771
V2
p772
tp773
aV2015-11-05 08:54:49
p774
tp775
a(V7*(1+1/4+1/9+1/16+1/25)
p776
V7/(1+2^2 + 3^2 + 4^2 + 5^2)
p777
(lp778
(S'R.0'
p779
F7.0
g539
g539
tp780
aVjhp077
p781
(lp782
(V$b
p783
V7
p784
tp785
a(V$a
p786
V1
p787
tp788
aV2015-11-05 13:13:18
p789
tp790
a(V7*(1+1/4+1/9+1/16+1/25)
p791
V7/25
p792
(lp793
(S'R.0'
p794
F7.0
g539
g539
tp795
aVmbl003
p796
(lp797
(V$b
p798
V7
p799
tp800
a(V$a
p801
V1
p802
tp803
aV2015-11-05 20:55:54
p804
tp805
a(V8*(1+1/4+1/9+1/16+1/25)
p806
V8/5**2
p807
(lp808
(S'R.0'
p809
F8.0
g659
g659
tp810
aVdis003
p811
(lp812
(V$b
p813
V8
p814
tp815
a(V$a
p816
V2
p817
tp818
aV2015-11-05 21:52:00
p819
tp820
a(V7*(1+1/4+1/9+1/16+1/25)
p821
V7/16
p822
(lp823
(S'R.0'
p824
F7.0
g539
g539
tp825
aVkew017
p826
(lp827
(V$b
p828
V7
p829
tp830
a(V$a
p831
V4
p832
tp833
aV2015-11-05 22:44:19
p834
tp835
a(V7*(1+1/4+1/9+1/16+1/25)
p836
V7/25
p837
(lp838
(S'R.0'
p839
F7.0
g539
g539
tp840
aVagarango
p841
(lp842
(V$b
p843
V7
p844
tp845
a(V$a
p846
V1
p847
tp848
aV2015-11-05 23:55:42
p849
tp850
a(V10*(1+1/4+1/9+1/16+1/25)
p851
V10*(1/1 + 1/2 + 1/3 + 1/4 + 1/5)
p852
(lp853
(S'R.0'
p854
F10.0
V10
p855
V10
p856
tp857
aVkvass
p858
(lp859
(V$b
p860
V10
p861
tp862
a(V$a
p863
V2
p864
tp865
aV2015-11-06 00:10:10
p866
tp867
a(V8*(1+1/4+1/9+1/16+1/25)
p868
V8/25
p869
(lp870
(S'R.0'
p871
F8.0
g659
g659
tp872
aVachava
p873
(lp874
(V$b
p875
V8
p876
tp877
a(V$a
p878
V3
p879
tp880
aV2015-11-06 07:27:44
p881
tp882
a(V7*(1+1/4+1/9+1/16+1/25)
p883
V7/25
p884
(lp885
(S'R.0'
p886
F7.0
g539
g539
tp887
aVdcrume
p888
(lp889
(V$b
p890
V7
p891
tp892
a(V$a
p893
V3
p894
tp895
aV2015-11-06 20:29:43
p896
tp897
a(V10*(1+1/4+1/9+1/16+1/25)
p898
V10/25
p899
(lp900
(S'R.0'
p901
F10.0
V10
p902
V10
p903
tp904
aVasp025
p905
(lp906
(V$b
p907
V10
p908
tp909
a(V$a
p910
V2
p911
tp912
aV2015-11-06 20:44:26
p913
tp914
a(g477
V10/(1 + 1/2+1/3+1/4+1/5)^2
p915
(lp916
(S'R.0'
p917
F10.0
V10
p918
V10
p919
tp920
aVaurodrig
p921
g485
V2015-11-06 23:11:01
p922
tp923
a(g477
V10/2.83^2
p924
(lp925
(S'R.0'
p926
F10.0
V10
p927
V10
p928
tp929
aVaurodrig
p930
g485
V2015-11-06 23:13:20
p931
tp932
asg305
(lp933
(V7*(1+1/4+1/9+1/16+1/25)
p934
V3-9+3/4-(3/2)^2+3/9-1+3/16-(3/4)^2+3/25-(3/5)^2
p935
tp936
a(g934
V3-9+3/2-(3/2)^2+3/3-1+3/4-(3/4)^2+3/5-(3/5)^2
p937
tp938
assV5
p939
g2
(g3
tp940
Rp941
g6
(lp942
(V1*(1-2/2+1/3-2/4+1/5)
p943
V0
p944
tp945
a(V3*(1-2/2+1/3-2/4+1/5)
p946
V0
p947
tp948
asS"['R.1']"
p949
(lp950
(V1*(1-2/2+1/3-2/4+1/5)
p951
V8*(1-2/2+1/3-2/4+1/5)
p952
(lp953
(S'R.1'
p954
F0.033333333333333326
V1-2/2+1/3-2/4+1/5
p955
V1-2/2+1/3-2/4+1/5
p956
tp957
aVffhaddad
p958
g251
V2015-11-05 20:33:39
p959
tp960
a(V1*(1-2/2+1/3-2/4+1/5)
p961
V5*((1/1)-(2/2)+(1/3)-(2/4)+(1/5))
p962
(lp963
(S'R.1'
p964
F0.033333333333333326
V1-2/2+1/3-2/4+1/5
p965
V(1/1)-(2/2)+(1/3)-(2/4)+(1/5)
p966
tp967
aVlcardoso
p968
g277
V2015-11-06 20:37:48
p969
tp970
asg305
(lp971
(V5*(1-2/2+1/3-2/4+1/5)
p972
V5/1-10/2+5/3-12/4+5/5
p973
tp974
a(V1*(1-2/2+1/3-2/4+1/5)
p975
V1/1+2^2*1/-2+1/3+2^2*1/-4+1/5
p976
tp977
a(V4*(1-2/2+1/3-2/4+1/5)
p978
V-4/1
p979
tp980
a(V2*(1-2/2+1/3-2/4+1/5)
p981
V-1.43
p982
tp983
a(g981
V-4.43
p984
tp985
a(V1*(1-2/2+1/3-2/4+1/5)
p986
V-1.4666666
p987
tp988
a(V3*(1-2/2+1/3-2/4+1/5)
p989
V3-12/2+1-12/4+3/5
p990
tp991
a(V1*(1-2/2+1/3-2/4+1/5)
p992
V1 - 4/2 + 1/3 - 4/4 + 1/5
p993
tp994
asS"['R.1.0.0.1.1', 'R.1.0.1', 'R.1.1']"
p995
(lp996
(V2*(1-2/2+1/3-2/4+1/5)
p997
V2*(1/1 - 2/2 + 1/3 + 1/3 - 2/4 + 1/5)
p998
(lp999
(S'R.1.0.0.1.1'
p1000
F3.0
g132
g132
tp1001
a(S'R.1.0.1'
p1002
F0.5
V2/4
p1003
V2/4
p1004
tp1005
a(S'R.1.1'
p1006
F0.2
V1/5
p1007
V1/5
p1008
tp1009
aVjnatale
p1010
g165
V2015-11-04 08:43:00
p1011
tp1012
assV4
p1013
g2
(g3
tp1014
Rp1015
g414
(lp1016
(V10*(1+1/4+1/9+1/16+1/25)
p1017
V8.386111
p1018
tp1019
a(g1017
V8.38
p1020
tp1021
a(g1017
V(10/1)-(10/2^2)+(10/3^2)-(10/4^2)+(10/5^2)
p1022
tp1023
a(g1017
V(10/1^2)-(10/2^2)+(10/3^2)-(10/4^2)+(10/5^2)
p1024
tp1025
a(g1017
V8.386111111
p1026
tp1027
a(V6*(1+1/4+1/9+1/16+1/25)
p1028
V1.7563
p1029
tp1030
a(g1028
V8.8352
p1031
tp1032
a(V8*(1+1/4+1/9+1/16+1/25)
p1033
V8/1-8/4+8/9-8/16+8/25
p1034
tp1035
a(V9*(1+1/4+1/9+1/16+1/25)
p1036
V13.725
p1037
tp1038
a(V8*(1+1/4+1/9+1/16+1/25)
p1039
V40/25
p1040
tp1041
a(V7*(1+1/4+1/9+1/16+1/25)
p1042
V7/(25) - 7/16 + 7/9 - 7/4 + 7
p1043
tp1044
a(V10*(1+1/4+1/9+1/16+1/25)
p1045
V10/1 - 10/4 + 10/9 - 10/16 + 10/25
p1046
tp1047
a(V8*(1+1/4+1/9+1/16+1/25)
p1048
V4*(1-1/2+1/3-1/4+1/5)
p1049
tp1050
a(V10*(1+1/4+1/9+1/16+1/25)
p1051
V[3/1 + 3/4 + 3/9 + 3/16 + 3/25]/5
p1052
tp1053
a(V6*(1+1/4+1/9+1/16+1/25)
p1054
V(1-1/2+1/3-1/4+1/5)*6
p1055
tp1056
a(V7*(1+1/4+1/9+1/16+1/25)
p1057
V7/1 - 7/2^2 - 7/3^2 - 7/4^2 - 7/5^2
p1058
tp1059
a(V7*(1+1/4+1/9+1/16+1/25)
p1060
V7/1-7/4+7/9-7/16+7/25
p1061
tp1062
a(V7*(1+1/4+1/9+1/16+1/25)
p1063
V10/1 + 10/4 + 10/9 + 10/16 + 10/25
p1064
tp1065
a(V10*(1+1/4+1/9+1/16+1/25)
p1066
V10-10/4+10/9-10/16+10/25
p1067
tp1068
a(V10*(1+1/4+1/9+1/16+1/25)
p1069
V10 - 10/4 + 10/9 - 10/16 + 10/25
p1070
tp1071
a(V8*(1+1/4+1/9+1/16+1/25)
p1072
V(8/1^2)-(8/2^2)+(8/3^2)-(8/4^2)+(8/5^2)
p1073
tp1074
a(V7*(1+1/4+1/9+1/16+1/25)
p1075
V(7/1^2)-(7/2^2)+(7/3^2)-(7/4^2)+(7/5^2)
p1076
tp1077
asg6
(lp1078
(V10*(1+1/4+1/9+1/16+1/25)
p1079
V0
p1080
tp1081
a(g1045
V0
p1082
tp1083
asS"['R.0', 'R.1.0.0.1', 'R.1.0.1', 'R.1.1']"
p1084
(lp1085
(V6*(1+1/4+1/9+1/16+1/25)
p1086
V6*(1+14+1/9+1/16+1/25)
p1087
(lp1088
(S'R.0'
p1089
F6.0
g571
g571
tp1090
a(S'R.1.0.0.1'
p1091
F0.1111111111111111
V1/9
p1092
V1/9
p1093
tp1094
a(S'R.1.0.1'
p1095
F0.0625
V1/16
p1096
V1/16
p1097
tp1098
a(S'R.1.1'
p1099
F0.04
V1/25
p1100
V1/25
p1101
tp1102
aVlalacson
p1103
g752
V2015-11-05 08:43:22
p1104
tp1105
asS"['R.0']"
p1106
(lp1107
(V6*(1+1/4+1/9+1/16+1/25)
p1108
V6*(1-1/2+1/3-1/4+1/5)
p1109
(lp1110
(S'R.0'
p1111
F6.0
g571
g571
tp1112
aVjcl084
p1113
g201
V2015-11-02 20:41:02
p1114
tp1115
a(V8*(1+1/4+1/9+1/16+1/25)
p1116
V8/5^2
p1117
(lp1118
(S'R.0'
p1119
F8.0
g659
g659
tp1120
aVaordookh
p1121
g662
V2015-11-04 22:07:09
p1122
tp1123
a(V6*(1+1/4+1/9+1/16+1/25)
p1124
V6*(1-1/2+1/3-1/4+1/5)
p1125
(lp1126
(S'R.0'
p1127
F6.0
g571
g571
tp1128
aVm4bui
p1129
(lp1130
(V$b
p1131
V6
p1132
tp1133
a(V$a
p1134
V4
p1135
tp1136
aV2015-11-06 03:42:53
p1137
tp1138
asS"['R.0', 'R.1.0.0.0.1', 'R.1.0.0.1', 'R.1.0.1', 'R.1.1']"
p1139
(lp1140
(V6*(1+1/4+1/9+1/16+1/25)
p1141
V6 * (1 - (1/4) + (1/9) - (1/16) + (1/25))
p1142
(lp1143
(S'R.0'
p1144
F6.0
g571
g571
tp1145
a(S'R.1.0.0.0.1'
p1146
F0.25
V1/4
p1147
V1/4
p1148
tp1149
a(S'R.1.0.0.1'
p1150
F0.1111111111111111
V1/9
p1151
V1/9
p1152
tp1153
a(S'R.1.0.1'
p1154
F0.0625
V1/16
p1155
V1/16
p1156
tp1157
a(S'R.1.1'
p1158
F0.04
V1/25
p1159
V1/25
p1160
tp1161
aVbeyounge
p1162
(lp1163
(V$b
p1164
V6
p1165
tp1166
a(V$a
p1167
V2
p1168
tp1169
aV2015-10-30 05:57:39
p1170
tp1171
a(V7*(1+1/4+1/9+1/16+1/25)
p1172
V7(1-1/4+1/9-1/16+1/25)
p1173
(lp1174
(S'R.0'
p1175
F7.0
g539
g539
tp1176
a(S'R.1.0.0.0.1'
p1177
F0.25
V1/4
p1178
V1/4
p1179
tp1180
a(S'R.1.0.0.1'
p1181
F0.1111111111111111
V1/9
p1182
V1/9
p1183
tp1184
a(S'R.1.0.1'
p1185
F0.0625
V1/16
p1186
V1/16
p1187
tp1188
a(S'R.1.1'
p1189
F0.04
V1/25
p1190
V1/25
p1191
tp1192
aVjguanzho
p1193
(lp1194
(V$b
p1195
V7
p1196
tp1197
a(V$a
p1198
V3
p1199
tp1200
aV2015-11-03 17:56:24
p1201
tp1202
a(V8*(1+1/4+1/9+1/16+1/25)
p1203
V8*(1 - 1/4+1/9 - 1/16+1/25)
p1204
(lp1205
(S'R.0'
p1206
F8.0
g659
g659
tp1207
a(S'R.1.0.0.0.1'
p1208
F0.25
V1/4
p1209
V1/4
p1210
tp1211
a(S'R.1.0.0.1'
p1212
F0.1111111111111111
V1/9
p1213
V1/9
p1214
tp1215
a(S'R.1.0.1'
p1216
F0.0625
V1/16
p1217
V1/16
p1218
tp1219
a(S'R.1.1'
p1220
F0.04
V1/25
p1221
V1/25
p1222
tp1223
aVjeqin
p1224
(lp1225
(V$b
p1226
V8
p1227
tp1228
a(V$a
p1229
V1
p1230
tp1231
aV2015-11-05 10:03:01
p1232
tp1233
a(V8*(1+1/4+1/9+1/16+1/25)
p1234
V8*(1-1/4+1/9-1/16+1/25)
p1235
(lp1236
(S'R.0'
p1237
F8.0
g659
g659
tp1238
a(S'R.1.0.0.0.1'
p1239
F0.25
V1/4
p1240
V1/4
p1241
tp1242
a(S'R.1.0.0.1'
p1243
F0.1111111111111111
V1/9
p1244
V1/9
p1245
tp1246
a(S'R.1.0.1'
p1247
F0.0625
V1/16
p1248
V1/16
p1249
tp1250
a(S'R.1.1'
p1251
F0.04
V1/25
p1252
V1/25
p1253
tp1254
aVmrchin
p1255
(lp1256
(V$b
p1257
V8
p1258
tp1259
a(V$a
p1260
V3
p1261
tp1262
aV2015-11-06 19:51:17
p1263
tp1264
a(V8*(1+1/4+1/9+1/16+1/25)
p1265
V8*(1 - 1/4 + 1/9 - 1/16 + 1/25)
p1266
(lp1267
(S'R.0'
p1268
F8.0
g659
g659
tp1269
a(S'R.1.0.0.0.1'
p1270
F0.25
V1/4
p1271
V1/4
p1272
tp1273
a(S'R.1.0.0.1'
p1274
F0.1111111111111111
V1/9
p1275
V1/9
p1276
tp1277
a(S'R.1.0.1'
p1278
F0.0625
V1/16
p1279
V1/16
p1280
tp1281
a(S'R.1.1'
p1282
F0.04
V1/25
p1283
V1/25
p1284
tp1285
aVrraiyyan
p1286
g466
V2015-11-06 23:25:44
p1287
tp1288
asS"['R.1.0.0.0.1', 'R.1.0.0.1', 'R.1.0.1', 'R.1.1']"
p1289
(lp1290
(V9*(1+1/4+1/9+1/16+1/25)
p1291
V9(1 - 1/4 + 1/9 - 1/16 +1/25)
p1292
(lp1293
(S'R.1.0.0.0.1'
p1294
F0.25
V1/4
p1295
V1/4
p1296
tp1297
a(S'R.1.0.0.1'
p1298
F0.1111111111111111
V1/9
p1299
V1/9
p1300
tp1301
a(S'R.1.0.1'
p1302
F0.0625
V1/16
p1303
V1/16
p1304
tp1305
a(S'R.1.1'
p1306
F0.04
V1/25
p1307
V1/25
p1308
tp1309
aVv4sharma
p1310
(lp1311
(V$b
p1312
V9
p1313
tp1314
a(V$a
p1315
V4
p1316
tp1317
aV2015-11-04 20:41:28
p1318
tp1319
assV6
p1320
g2
(g3
tp1321
Rp1322
g6
(lp1323
(V10*(1+1/9+1/25)+10*4*(1/4+1/16)
p1324
V0
p1325
tp1326
a(V8*(1+1/9+1/25)+8*4*(1/4+1/16)
p1327
V25
p1328
tp1329
asg414
(lp1330
(V6*(1+1/9+1/25)+6*4*(1/4+1/16)
p1331
V2.8813
p1332
tp1333
a(V6*(1+1/9+1/25)+6*4*(1/4+1/16)
p1334
V6 - 3 + 6/9 - 12/16 + 6/25
p1335
tp1336
a(g1334
V6 + 6/4 + 6/9 + 6/16 + 6/25
p1337
tp1338
a(g1334
V6 + 12/4 + 6/9 + 12/16 + 6/25
p1339
tp1340
a(V6*(1+1/9+1/25)+6*4*(1/4+1/16)
p1341
V6/1+12/4+6/9+12/16+6/25
p1342
tp1343
a(V6*(1+1/9+1/25)+6*4*(1/4+1/16)
p1344
V6/1+12/4+6/9+12/16+6/25
p1345
tp1346
a(V7*(1+1/9+1/25)+7*4*(1/4+1/16)
p1347
V7 +(2* 7/4) + 7/9 + (2* 7/16) + 7/25
p1348
tp1349
a(V8*(1+1/9+1/25)+8*4*(1/4+1/16)
p1350
V8/1+4*8/4+8/9+8/16+8/25
p1351
tp1352
a(V8*(1+1/9+1/25)+8*4*(1/4+1/16)
p1353
V8/49
p1354
tp1355
a(g1353
V8+(16/4)+(8/9)+(16/16)+(8/25)
p1356
tp1357
a(V8*(1+1/9+1/25)+8*4*(1/4+1/16)
p1358
V8+2+(8/9)+(8/16)+(8/25)
p1359
tp1360
a(g1358
V8+2*2+(8/9)+(8/16)+(8/25)
p1361
tp1362
a(g1358
V8+4*2+(8/9)+(8/16)+(8/25)
p1363
tp1364
a(V8*(1+1/9+1/25)+8*4*(1/4+1/16)
p1365
V8 + (8/2^2) + (8/3^2) + (8/4^2) + (8/5^2)
p1366
tp1367
a(V7*(1+1/9+1/25)+7*4*(1/4+1/16)
p1368
V7/(25) - 14/16 + 7/9 - 14/4 + 7
p1369
tp1370
a(g1324
V10/1 - 10/4 + 10/9 - 10/16 + 10/25
p1371
tp1372
a(g1324
V10/1 + 10/4 + 10/9 + 10/16 + 10/25
p1373
tp1374
a(V7*(1+1/9+1/25)+7*4*(1/4+1/16)
p1375
V10.245
p1376
tp1377
a(V9*(1+1/9+1/25)+9*4*(1/4+1/16)
p1378
V9/25+9/16+9/9+9/4+9
p1379
tp1380
a(V8*(1+1/9+1/25)+8*4*(1/4+1/16)
p1381
V4*(1-1/2+1/3-1/4+1/5)
p1382
tp1383
a(V7*(1+1/9+1/25)+7*4*(1/4+1/16)
p1384
V0.8333333
p1385
tp1386
a(V10*(1+1/9+1/25)+10*4*(1/4+1/16)
p1387
V[3/1 + 4*3/4 + 3/9 + 4*3/16 + 3/25]/5
p1388
tp1389
a(V8*(1+1/9+1/25)+8*4*(1/4+1/16)
p1390
V8/1+2*8/4+8/(3^2)+2*8/(4^2)+8/(5^2)
p1391
tp1392
a(V7*(1+1/9+1/25)+7*4*(1/4+1/16)
p1393
V10829/960
p1394
tp1395
a(g1393
V8.60465
p1396
tp1397
a(V7*(1+1/9+1/25)+7*4*(1/4+1/16)
p1398
V7+2*7/4+7/9+14/16+7/25
p1399
tp1400
a(V9*(1+1/9+1/25)+9*4*(1/4+1/16)
p1401
V(1+1/4+1/9+1/16+1/25) * 9
p1402
tp1403
a(V9*(1+1/9+1/25)+9*4*(1/4+1/16)
p1404
V9+9/4+1+9/16+9/25
p1405
tp1406
a(V6*(1+1/9+1/25)+6*4*(1/4+1/16)
p1407
V(6/1+6/4+6/9+6/16+6/25)
p1408
tp1409
a(g1407
V(6/1+6/4*2+6/9+6/16*2+6/25)
p1410
tp1411
a(g1407
V(6/1+6/16+6/9+6/64+6/25)
p1412
tp1413
a(g1407
V(6/1+6/4+6/9+6/16+6/25)
p1414
tp1415
a(g1407
V(6/1-6/4+6/9-6/16+6/25)
p1416
tp1417
a(g1407
V(6/1-6/4*2+6/9-6/16*2+6/25)
p1418
tp1419
asS"['R.0', 'R.1.1']"
p1420
(lp1421
(V10*(1+1/9+1/25)+10*4*(1/4+1/16)
p1422
V10*(1/1 + 1/9 + 1/25) + 10*(1/4 + 1/16)
p1423
(lp1424
(S'R.0'
p1425
F11.511111111111113
V10*(1+1/9+1/25)
p1426
V10*(1/1 + 1/9 + 1/25)
p1427
tp1428
a(S'R.1.1'
p1429
F0.3125
V1/4+1/16
p1430
V1/4 + 1/16
p1431
tp1432
aVjnatale
p1433
g165
V2015-11-04 08:46:24
p1434
tp1435
a(V8*(1+1/9+1/25)+8*4*(1/4+1/16)
p1436
V8*(1+1/9+1/25)+8*2*(1/4+1/16)
p1437
(lp1438
(S'R.0'
p1439
F9.20888888888889
V8*(1+1/9+1/25)
p1440
V8*(1+1/9+1/25)
p1441
tp1442
a(S'R.1.1'
p1443
F0.3125
V1/4+1/16
p1444
V1/4+1/16
p1445
tp1446
aVdis003
p1447
g812
V2015-11-06 22:58:57
p1448
tp1449
a(V6*(1+1/9+1/25)+6*4*(1/4+1/16)
p1450
V6*(1+1/9+1/25)+28*(1/4+1/16)
p1451
(lp1452
(S'R.0'
p1453
F6.906666666666667
V6*(1+1/9+1/25)
p1454
V6*(1+1/9+1/25)
p1455
tp1456
a(S'R.1.1'
p1457
F0.3125
V1/4+1/16
p1458
V1/4+1/16
p1459
tp1460
aVsthapa
p1461
(lp1462
(V$b
p1463
V6
p1464
tp1465
a(V$a
p1466
V3
p1467
tp1468
aV2015-11-07 00:01:38
p1469
tp1470
a(V10*(1+1/9+1/25)+10*4*(1/4+1/16)
p1471
V10*(1+1/9+1/25)+28*(1/4+1/16)
p1472
(lp1473
(S'R.0'
p1474
F11.511111111111113
V10*(1+1/9+1/25)
p1475
V10*(1+1/9+1/25)
p1476
tp1477
a(S'R.1.1'
p1478
F0.3125
V1/4+1/16
p1479
V1/4+1/16
p1480
tp1481
aVagian
p1482
(lp1483
(V$b
p1484
V10
p1485
tp1486
a(V$a
p1487
V2
p1488
tp1489
aV2015-11-07 00:26:29
p1490
tp1491
a(g1471
V10*(1+1/9+1/25)+14.6361*(1/4+1/16)
p1492
(lp1493
(S'R.0'
p1494
F11.511111111111113
V10*(1+1/9+1/25)
p1495
V10*(1+1/9+1/25)
p1496
tp1497
a(S'R.1.1'
p1498
F0.3125
V1/4+1/16
p1499
V1/4+1/16
p1500
tp1501
aVagian
p1502
g1483
V2015-11-07 00:27:58
p1503
tp1504
a(g1471
V10*(1+1/9+1/25)+14*(1/4+1/16)
p1505
(lp1506
(S'R.0'
p1507
F11.511111111111113
V10*(1+1/9+1/25)
p1508
V10*(1+1/9+1/25)
p1509
tp1510
a(S'R.1.1'
p1511
F0.3125
V1/4+1/16
p1512
V1/4+1/16
p1513
tp1514
aVagian
p1515
g1483
V2015-11-07 00:28:05
p1516
tp1517
a(g1471
V10*(1+1/9+1/25)+15*(1/4+1/16)
p1518
(lp1519
(S'R.0'
p1520
F11.511111111111113
V10*(1+1/9+1/25)
p1521
V10*(1+1/9+1/25)
p1522
tp1523
a(S'R.1.1'
p1524
F0.3125
V1/4+1/16
p1525
V1/4+1/16
p1526
tp1527
aVagian
p1528
g1483
V2015-11-07 00:28:10
p1529
tp1530
a(g1471
V10*(1+1/9+1/25)+20*(1/4+1/16)
p1531
(lp1532
(S'R.0'
p1533
F11.511111111111113
V10*(1+1/9+1/25)
p1534
V10*(1+1/9+1/25)
p1535
tp1536
a(S'R.1.1'
p1537
F0.3125
V1/4+1/16
p1538
V1/4+1/16
p1539
tp1540
aVagian
p1541
g1483
V2015-11-07 00:28:28
p1542
tp1543
asg305
(lp1544
(V6*(1+1/9+1/25)+6*4*(1/4+1/16)
p1545
V6-24/4+6/9-24/16+6/25
p1546
tp1547
a(V6*(1+1/9+1/25)+6*4*(1/4+1/16)
p1548
V-0.5933
p1549
tp1550
a(g1548
V-89/150
p1551
tp1552
a(V9*(1+1/9+1/25)+9*4*(1/4+1/16)
p1553
V9 - 4*(9/4) + 1 - 4*(9/16) + (9/25)
p1554
tp1555
a(V6*(1+1/9+1/25)+6*4*(1/4+1/16)
p1556
V(6/1^2-2^2*6/2^2+6/3^2-2^2*6/4^2+6/5^2)
p1557
tp1558
a(V9*(1+1/9+1/25)+9*4*(1/4+1/16)
p1559
V9 - 36/4 + 1 - 36/16 + 9/25
p1560
tp1561
a(V9*(1+1/9+1/25)+9*4*(1/4+1/16)
p1562
V9/1-4*9/4+9/9 - 4*9/16+9/25
p1563
tp1564
a(V7*(1+1/9+1/25)+7*4*(1/4+1/16)
p1565
V7/1-7+7/9-7/4+7/25
p1566
tp1567
a(V8*(1+1/9+1/25)+8*4*(1/4+1/16)
p1568
V8 - 8 + 8/9 - 4 * .5 + 8/25
p1569
tp1570
a(V8*(1+1/9+1/25)+8*4*(1/4+1/16)
p1571
V(8 - 8 + 8/9 - 2 + 8/25)
p1572
tp1573
a(V9*(1+1/9+1/25)+9*4*(1/4+1/16)
p1574
V9/1 - 4*9/4 + 9/9 - 4*9/16 + 9/25
p1575
tp1576
a(g1574
V9/1 - 4*(9/4) + 9/9 - 4*(9/16) + 9/25
p1577
tp1578
a(V10*(1+1/9+1/25)+10*4*(1/4+1/16)
p1579
V-89/90
p1580
tp1581
a(V10*(1+1/9+1/25)+10*4*(1/4+1/16)
p1582
V10 - (10/4*4) + 10/9 - (10/16*4) + 10/25
p1583
tp1584
a(V8*(1+1/9+1/25)+8*4*(1/4+1/16)
p1585
V(8/1^2)-(2^2)*(8/2^2)+(8/3^2)-(2^2)*(8/4^2)+(8/5^2)
p1586
tp1587
a(V7*(1+1/9+1/25)+7*4*(1/4+1/16)
p1588
V(7/1^2)-((4)*7/2^2)+(7/3^2)-((4)*7/4^2)+(7/5^2)
p1589
tp1590
a(V10*(1+1/9+1/25)+10*4*(1/4+1/16)
p1591
V10-40/4+10/9-40/16+10/25
p1592
tp1593
asS"['R.1.0.0']"
p1594
(lp1595
(V6*(1+1/9+1/25)+6*4*(1/4+1/16)
p1596
V(6/1)+(6/9)+(6/25) + (6/4)/4+(6/16)/4
p1597
(lp1598
(S'R.1.0.0'
p1599
F6.0
g571
g571
tp1600
aVlahawkin
p1601
(lp1602
(V$b
p1603
V6
p1604
tp1605
a(V$a
p1606
V4
p1607
tp1608
aV2015-11-04 04:55:38
p1609
tp1610
asS"['R.0.1.0.1', 'R.0.1.1', 'R.1']"
p1611
(lp1612
(V8*(1+1/9+1/25)+8*4*(1/4+1/16)
p1613
V8*(1+1/4+1/9+1/25) + 8*4*((1/4)+(1/16))
p1614
(lp1615
(S'R.0.1.0.1'
p1616
F0.1111111111111111
V1/9
p1617
V1/9
p1618
tp1619
a(S'R.0.1.1'
p1620
F0.04
V1/25
p1621
V1/25
p1622
tp1623
a(S'R.1'
p1624
F10.0
V8*4*(1/4+1/16)
p1625
V8*4*((1/4)+(1/16))
p1626
tp1627
aVmrchin
p1628
g1256
V2015-11-06 19:52:31
p1629
tp1630
ass.