(dp0
V1
p1
(dp2
Vh4tu
p3
(dp4
S'part1_correct_attempt'
p5
(lp6
S'0:00:07'
p7
aV1/18
p8
asS'first_attempt'
p9
V2015-10-28 01:07:54
p10
sS'part1_incorrect_attempt'
p11
(lp12
(S'0:00:00'
p13
V18/1
p14
tp15
assVlywong
p16
(dp17
S'part1_correct_attempt'
p18
(lp19
S'1 day, 19:43:14'
p20
aV1/18
p21
asg9
V2015-10-28 08:09:34
p22
sS'part1_incorrect_attempt'
p23
(lp24
(S'0:00:00'
p25
V18/1000000000
p26
tp27
a(S'0:00:14'
p28
V18/1000000
p29
tp30
assVaggouw
p31
(dp32
S'part1_correct_attempt'
p33
(lp34
S'3 days, 19:07:44'
p35
aV1/10
p36
asg9
V2015-10-27 03:24:11
p37
sS'part1_incorrect_attempt'
p38
(lp39
(S'0:00:00'
p40
V459*0.4/276
p41
tp42
a(S'0:00:00'
p43
V(0.1*1000000)/0.9
p44
tp45
assVasetters
p46
(dp47
S'part1_correct_attempt'
p48
(lp49
S'21:00:18'
p50
aV1/18
p51
asg9
V2015-10-26 08:04:31
p52
sS'part1_incorrect_attempt'
p53
(lp54
(S'0:00:00'
p55
V1- 1/1000000
p56
tp57
assVseleon
p58
(dp59
S'part1_correct_attempt'
p60
(lp61
S'0:15:29'
p62
aV(1/(1*10^6))/(12/(1*10^6))
p63
asg9
V2015-10-30 21:12:28
p64
sS'part1_incorrect_attempt'
p65
(lp66
(S'0:00:00'
p67
V(1/10^6)/(10/10^6)
p68
tp69
a(S'0:01:05'
p70
V(1/1*10^6)/(10/1*10^6)
p71
tp72
a(S'0:01:23'
p73
V(1/(1*10^6))/(10/1*(10^6))
p74
tp75
a(S'0:01:34'
p76
V(1/(1*10^6))/(10/(1*10^6))
p77
tp78
a(S'0:03:08'
p79
V(1/(1*10^6))/(10/(1*10^6))
p80
tp81
a(S'0:05:18'
p82
V(1/(1*10^6)/10/(1*10^6))
p83
tp84
a(S'0:06:13'
p85
V(1/(1*10^6))/(10/(1*10^6))
p86
tp87
a(S'0:07:03'
p88
V(1/0.000001)/(10/0.000001)
p89
tp90
a(S'0:08:15'
p91
V0.000001/0.00001
p92
tp93
a(S'0:08:37'
p94
V0.1
p95
tp96
a(S'0:09:51'
p97
V(1/(1*10^6))
p98
tp99
a(S'0:10:07'
p100
V(1/(1*10^6))/(10/(1*10^6))
p101
tp102
a(S'0:10:39'
p103
V1/(1*10^6)
p104
tp105
a(S'0:11:17'
p106
V(1/(1*10^6)/(10/(1*10^6)))
p107
tp108
a(S'0:11:46'
p109
V(1/(1*10^6))/(10/(1*10^6))
p110
tp111
a(S'0:13:44'
p112
V(10/(1*10^6))/(1/(1*10^6))
p113
tp114
a(S'0:15:12'
p115
V(12/(1*10^6))/(1/(1*10^6))
p116
tp117
assVatorr
p118
(dp119
S'part1_correct_attempt'
p120
(lp121
S'11:49:17'
p122
aV1/14
p123
asg9
V2015-10-29 06:33:09
p124
sS'part1_incorrect_attempt'
p125
(lp126
(S'0:00:00'
p127
V14/1000000
p128
tp129
a(S'0:00:12'
p130
V1/1000000
p131
tp132
a(S'0:00:00'
p133
V14/(10^6)
p134
tp135
assVany027
p136
(dp137
S'part1_correct_attempt'
p138
(lp139
S'0:02:58'
p140
aV( 1000000/ 14000000)
p141
asg9
V2015-10-26 03:31:21
p142
sS'part1_incorrect_attempt'
p143
(lp144
(S'0:00:00'
p145
V14 / 1000000
p146
tp147
assVs1powers
p148
(dp149
S'part1_correct_attempt'
p150
(lp151
S'0:00:55'
p152
aV1/14
p153
asg9
V2015-10-25 21:04:16
p154
sS'part1_incorrect_attempt'
p155
(lp156
(S'0:00:00'
p157
V14/1
p158
tp159
assVjcj006
p160
(dp161
S'part1_correct_attempt'
p162
(lp163
S'0:01:22'
p164
aV1/((1/1000000)/(1/13000000))
p165
asg9
V2015-10-28 21:30:36
p166
sS'part1_incorrect_attempt'
p167
(lp168
(S'0:00:00'
p169
V(1/1000000)/(1/13000000)
p170
tp171
assVbeyounge
p172
(dp173
S'part1_correct_attempt'
p174
(lp175
S'4 days, 12:09:08'
p176
aV1/13
p177
asg9
V2015-10-23 05:01:27
p178
sS'part1_incorrect_attempt'
p179
(lp180
(S'0:00:00'
p181
V1940/4
p182
tp183
assVj5phung
p184
(dp185
S'part1_correct_attempt'
p186
(lp187
S'2 days, 9:10:11'
p188
aV1/13
p189
asg9
V2015-10-23 08:52:18
p190
sS'part1_incorrect_attempt'
p191
(lp192
(S'0:00:00'
p193
V197*0.6
p194
tp195
a(S'0:01:35'
p196
V197/0.6
p197
tp198
a(S'0:03:46'
p199
V196/0.6
p200
tp201
a(S'0:03:56'
p202
V197/0.6
p203
tp204
assVtpmach
p205
(dp206
S'part1_correct_attempt'
p207
(lp208
S'0:00:32'
p209
aV1/17
p210
asg9
V2015-10-28 06:32:47
p211
sS'part1_incorrect_attempt'
p212
(lp213
(S'0:00:00'
p214
V17*10^-6
p215
tp216
assVbmilton
p217
(dp218
S'part1_correct_attempt'
p219
(lp220
S'0:01:13'
p221
aV(1/1000000)/(19/1000000)
p222
asg9
V2015-10-25 00:40:50
p223
sS'part1_incorrect_attempt'
p224
(lp225
(S'0:00:00'
p226
V1/1000000
p227
tp228
assVjew037
p229
(dp230
S'part1_correct_attempt'
p231
(lp232
S'1 day, 8:54:00'
p233
aV1/17
p234
asg9
V2015-10-28 18:19:15
p235
sS'part1_incorrect_attempt'
p236
(lp237
(S'0:00:00'
p238
V.05
p239
tp240
assVlalacson
p241
(dp242
S'part1_correct_attempt'
p243
(lp244
S'0:01:59'
p245
aV1/17
p246
asg9
V2015-10-29 04:31:01
p247
sS'part1_incorrect_attempt'
p248
(lp249
(S'0:00:00'
p250
V1*17
p251
tp252
a(S'0:00:14'
p253
V1*17*21
p254
tp255
assVyfreund
p256
(dp257
g9
V2015-10-23 17:36:24
p258
sS'part1_incorrect_attempt'
p259
(lp260
(S'0:00:00'
p261
V1/16
p262
tp263
assVagian
p264
(dp265
S'part1_correct_attempt'
p266
(lp267
S'0:39:48'
p268
aV.01/.15
p269
asg9
V2015-10-30 22:18:41
p270
sS'part1_incorrect_attempt'
p271
(lp272
(S'0:00:00'
p273
V0.6*175/0.5
p274
tp275
a(S'0:38:29'
p276
V(15+10^6)
p277
tp278
assVdgunawan
p279
(dp280
S'part1_correct_attempt'
p281
(lp282
S'0:28:41'
p283
aV[1/1000000]/[10/1000000]
p284
asg9
V2015-10-29 23:00:25
p285
sS'part1_incorrect_attempt'
p286
(lp287
(S'0:00:00'
p288
V10/1000000
p289
tp290
a(S'0:00:06'
p291
V1/1000000
p292
tp293
a(S'0:23:57'
p294
V10/1000000
p295
tp296
assVhachrist
p297
(dp298
S'part1_correct_attempt'
p299
(lp300
S'0:07:39'
p301
aV1/13
p302
asg9
V2015-10-26 00:36:41
p303
sS'part1_incorrect_attempt'
p304
(lp305
(S'0:00:00'
p306
V53/13
p307
tp308
a(S'0:00:09'
p309
V13/53
p310
tp311
assVt1tran
p312
(dp313
S'part1_correct_attempt'
p314
(lp315
S'0:23:24'
p316
aV.7*195/.5
p317
asg9
V2015-10-23 06:31:50
p318
sS'part1_incorrect_attempt'
p319
(lp320
(S'0:00:00'
p321
V195*2
p322
tp323
assVkrkelkar
p324
(dp325
S'part1_correct_attempt'
p326
(lp327
S'0:02:48'
p328
aV(.9*183)/.4
p329
asg9
V2015-10-23 05:58:24
p330
sS'part1_incorrect_attempt'
p331
(lp332
(S'0:00:00'
p333
V1830/4
p334
tp335
assVtcuddy
p336
(dp337
S'part1_correct_attempt'
p338
(lp339
S'1:37:00'
p340
aV1/17
p341
asg9
V2015-10-23 16:35:09
p342
sS'part1_incorrect_attempt'
p343
(lp344
(S'0:00:00'
p345
V.5(174)
p346
tp347
a(S'0:00:00'
p348
V.5(174)/.9
p349
tp350
assVaadhakal
p351
(dp352
S'part1_correct_attempt'
p353
(lp354
S'0:00:34'
p355
aV[1/1000000]/[12/1000000]
p356
asg9
V2015-10-30 06:20:36
p357
sS'part1_incorrect_attempt'
p358
(lp359
(S'0:00:00'
p360
V12/1000000
p361
tp362
assVanvan
p363
(dp364
S'part1_correct_attempt'
p365
(lp366
S'0:03:06'
p367
aV1/18
p368
asg9
V2015-10-30 10:15:32
p369
sS'part1_incorrect_attempt'
p370
(lp371
(S'0:00:00'
p372
V34/52
p373
tp374
assVmuy002
p375
(dp376
S'part1_correct_attempt'
p377
(lp378
S'0:05:45'
p379
aV1/15
p380
asg9
V2015-10-29 11:04:52
p381
sS'part1_incorrect_attempt'
p382
(lp383
(S'0:00:00'
p384
V15/1000000
p385
tp386
assVdtea
p387
(dp388
S'part1_correct_attempt'
p389
(lp390
S'0:02:12'
p391
aV(1/1000000)/(11/1000000)
p392
asg9
V2015-10-30 23:41:42
p393
sS'part1_incorrect_attempt'
p394
(lp395
(S'0:00:00'
p396
V(11/1000000)/(1/1000000)
p397
tp398
a(S'0:00:34'
p399
V100-(11/1000000)/(1/1000000)
p400
tp401
assVralhadda
p402
(dp403
S'part1_correct_attempt'
p404
(lp405
S'0:00:10'
p406
aV1/17
p407
asg9
V2015-10-24 01:45:09
p408
sS'part1_incorrect_attempt'
p409
(lp410
(S'0:00:00'
p411
V17/1
p412
tp413
assVkquong
p414
(dp415
S'part1_correct_attempt'
p416
(lp417
S'0:00:10'
p418
aV1/14
p419
asg9
V2015-10-28 17:52:19
p420
sS'part1_incorrect_attempt'
p421
(lp422
(S'0:00:00'
p423
V14000000/1000000
p424
tp425
assVajvanega
p426
(dp427
S'part1_correct_attempt'
p428
(lp429
S'6 days, 23:52:11'
p430
aV1/16
p431
asg9
V2015-10-23 16:30:05
p432
sS'part1_incorrect_attempt'
p433
(lp434
(S'0:00:00'
p435
V(401/2)/299
p436
tp437
assVakg009
p438
(dp439
S'part1_correct_attempt'
p440
(lp441
S'0:01:03'
p442
aV1/11
p443
asg9
V2015-10-30 20:06:16
p444
sS'part1_incorrect_attempt'
p445
(lp446
(S'0:00:00'
p447
V11/1
p448
tp449
assVj2phung
p450
(dp451
S'part1_correct_attempt'
p452
(lp453
S'1 day, 5:50:43'
p454
aV1/18
p455
asg9
V2015-10-29 00:26:41
p456
sS'part1_incorrect_attempt'
p457
(lp458
(S'0:00:00'
p459
V18/1000000000
p460
tp461
asssV2
p462
(dp463
Vapokhare
p464
(dp465
S'part2_correct_attempt'
p466
(lp467
S'0:04:06'
p468
aV[1/1000000]/[23/1000000]
p469
asS'part1_correct_attempt'
p470
(lp471
S'0:00:00'
p472
aV[1/1000000]/[14/1000000]
p473
asg9
V2015-10-29 20:57:29
p474
sS'part2_incorrect_attempt'
p475
(lp476
(S'0:00:47'
p477
V1/1000000
p478
tp479
a(S'0:02:28'
p480
V[1/1000000]/[14/1000000]
p481
tp482
a(S'0:02:36'
p483
V[1/1000000]*[14/1000000]
p484
tp485
a(S'0:02:46'
p486
V[14/1000000]
p487
tp488
a(S'0:03:44'
p489
V1 - [1/1000000]/[14/1000000]
p490
tp491
assVjix029
p492
(dp493
S'part2_correct_attempt'
p494
(lp495
S'0:06:13'
p496
aV1/34
p497
asS'part1_correct_attempt'
p498
(lp499
S'0:00:00'
p500
aV1/16
p501
asg9
V2015-10-25 19:54:09
p502
sS'part2_incorrect_attempt'
p503
(lp504
(S'0:00:44'
p505
V1/32
p506
tp507
assVlrlai
p508
(dp509
S'part2_correct_attempt'
p510
(lp511
S'0:00:40'
p512
aV1/24
p513
asS'part1_correct_attempt'
p514
(lp515
S'0:00:00'
p516
aV1/15
p517
asg9
V2015-10-29 02:38:00
p518
sS'part2_incorrect_attempt'
p519
(lp520
(S'0:00:00'
p521
V1/36
p522
tp523
assVsrl006
p524
(dp525
S'part2_correct_attempt'
p526
(lp527
S'0:18:47'
p528
aV.033333333
p529
asS'part1_correct_attempt'
p530
(lp531
S'0:00:00'
p532
aV.0909
p533
asg9
V2015-10-29 23:24:07
p534
sS'part2_incorrect_attempt'
p535
(lp536
(S'0:17:11'
p537
V.0303
p538
tp539
a(S'0:17:34'
p540
V.36666
p541
tp542
assVppanourg
p543
(dp544
S'part2_correct_attempt'
p545
(lp546
S'0:15:39'
p547
aV1/28
p548
asS'part1_correct_attempt'
p549
(lp550
S'0:00:00'
p551
aV1/20
p552
asg9
V2015-10-30 20:33:16
p553
sS'part2_incorrect_attempt'
p554
(lp555
(S'0:00:29'
p556
V1/30
p557
tp558
assVatorr
p559
(dp560
S'part2_correct_attempt'
p561
(lp562
S'0:00:51'
p563
aV1/(25)
p564
asS'part1_correct_attempt'
p565
(lp566
S'0:00:00'
p567
ag123
asg9
V2015-10-29 18:22:26
p568
sS'part2_incorrect_attempt'
p569
(lp570
(S'0:00:31'
p571
V1/(14+25)
p572
tp573
a(S'0:00:38'
p574
V1/(14*25)
p575
tp576
assVcprafull
p577
(dp578
S'part2_correct_attempt'
p579
(lp580
S'0:00:31'
p581
aV1/25
p582
asS'part1_correct_attempt'
p583
(lp584
S'0:00:00'
p585
aV1/11
p586
asg9
V2015-10-30 03:12:11
p587
sS'part2_incorrect_attempt'
p588
(lp589
(S'0:00:15'
p590
V25/11
p591
tp592
a(S'0:00:24'
p593
V11/25
p594
tp595
assVpcdo
p596
(dp597
S'part2_correct_attempt'
p598
(lp599
S'0:00:54'
p600
aV1/38
p601
asS'part1_correct_attempt'
p602
(lp603
S'0:00:00'
p604
aV1/17
p605
asg9
V2015-10-28 23:11:45
p606
sS'part2_incorrect_attempt'
p607
(lp608
(S'0:00:17'
p609
V1/(17^2)
p610
tp611
assVt2li
p612
(dp613
S'part2_correct_attempt'
p614
(lp615
S'0:00:20'
p616
aV1/23
p617
asS'part1_correct_attempt'
p618
(lp619
S'0:00:00'
p620
aV1/17
p621
asg9
V2015-10-30 22:34:47
p622
sS'part2_incorrect_attempt'
p623
(lp624
(S'0:00:00'
p625
V1/17
p626
tp627
assVp4kumar
p628
(dp629
S'part2_correct_attempt'
p630
(lp631
S'0:00:33'
p632
aV1/31
p633
asS'part1_correct_attempt'
p634
(lp635
S'0:00:00'
p636
aV1/16
p637
asg9
V2015-10-30 23:14:14
p638
sS'part2_incorrect_attempt'
p639
(lp640
(S'0:00:24'
p641
V1/32
p642
tp643
assVdcrume
p644
(dp645
S'part2_correct_attempt'
p646
(lp647
S'0:02:09'
p648
aV1/34
p649
asS'part1_correct_attempt'
p650
(lp651
S'0:00:00'
p652
aV1/14
p653
asg9
V2015-10-28 19:47:38
p654
sS'part2_incorrect_attempt'
p655
(lp656
(S'0:00:17'
p657
V1/14
p658
tp659
assVlalacson
p660
(dp661
S'part2_correct_attempt'
p662
(lp663
S'0:00:53'
p664
aV1/21
p665
asS'part1_correct_attempt'
p666
(lp667
S'0:00:00'
p668
ag246
asg9
V2015-10-29 04:33:00
p669
sS'part2_incorrect_attempt'
p670
(lp671
(S'0:00:32'
p672
V1/(17*21)
p673
tp674
a(S'0:00:43'
p675
V21/17
p676
tp677
assVjcl084
p678
(dp679
S'part2_correct_attempt'
p680
(lp681
S'0:00:16'
p682
aV1/30
p683
asS'part1_correct_attempt'
p684
(lp685
S'0:00:00'
p686
aV1/16
p687
asg9
V2015-10-28 23:11:46
p688
sS'part2_incorrect_attempt'
p689
(lp690
(S'0:00:09'
p691
V1/(16^2)
p692
tp693
assVrraiyyan
p694
(dp695
S'part2_correct_attempt'
p696
(lp697
S'0:00:46'
p698
aV1/23
p699
asS'part1_correct_attempt'
p700
(lp701
S'0:00:00'
p702
aV1/12
p703
asg9
V2015-10-27 23:12:17
p704
sS'part2_incorrect_attempt'
p705
(lp706
(S'0:00:40'
p707
V12/23
p708
tp709
assVkew017
p710
(dp711
S'part2_correct_attempt'
p712
(lp713
S'0:00:45'
p714
aV1/34
p715
asS'part1_correct_attempt'
p716
(lp717
S'0:00:00'
p718
aV1/14
p719
asg9
V2015-10-24 22:31:12
p720
sS'part2_incorrect_attempt'
p721
(lp722
(S'0:00:17'
p723
V34/14
p724
tp725
assVdsmonaha
p726
(dp727
S'part2_correct_attempt'
p728
(lp729
S'0:01:16'
p730
aV1/33
p731
asS'part1_correct_attempt'
p732
(lp733
S'0:00:00'
p734
aV1/10
p735
asg9
V2015-10-29 22:22:31
p736
sS'part2_incorrect_attempt'
p737
(lp738
(S'0:00:21'
p739
V33/10
p740
tp741
a(S'0:00:59'
p742
V33/1
p743
tp744
assVjtfrankl
p745
(dp746
S'part2_correct_attempt'
p747
(lp748
S'0:00:53'
p749
aV1/23
p750
asS'part1_correct_attempt'
p751
(lp752
S'0:00:00'
p753
aV1/19
p754
asg9
V2015-10-28 18:49:30
p755
sS'part2_incorrect_attempt'
p756
(lp757
(S'0:00:46'
p758
V19/23
p759
tp760
assVaysee
p761
(dp762
S'part2_correct_attempt'
p763
(lp764
S'0:00:46'
p765
aV1/36
p766
asS'part1_correct_attempt'
p767
(lp768
S'0:00:00'
p769
aV1/15
p770
asg9
V2015-10-29 23:57:12
p771
sS'part2_incorrect_attempt'
p772
(lp773
(S'0:00:08'
p774
V36/15
p775
tp776
a(S'0:00:40'
p777
V15/36
p778
tp779
assVmcatozzi
p780
(dp781
S'part2_correct_attempt'
p782
(lp783
S'1:36:42'
p784
aV1/24
p785
asS'part1_correct_attempt'
p786
(lp787
S'0:00:00'
p788
aV1/11
p789
asg9
V2015-10-27 20:46:16
p790
sS'part2_incorrect_attempt'
p791
(lp792
(S'1:35:49'
p793
V(24*11)/1000000
p794
tp795
a(S'1:36:25'
p796
V1/11
p797
tp798
assVaadhakal
p799
(dp800
S'part2_correct_attempt'
p801
(lp802
S'0:02:37'
p803
aV[1/1000000]/[22/1000000]
p804
asS'part1_correct_attempt'
p805
(lp806
S'0:00:00'
p807
ag356
asg9
V2015-10-30 06:21:10
p808
sS'part2_incorrect_attempt'
p809
(lp810
(S'0:00:00'
p811
V12/1000000
p812
tp813
a(S'0:00:07'
p814
V12/10000000
p815
tp816
a(S'0:00:49'
p817
V22/1000000
p818
tp819
assVw4shin
p820
(dp821
S'part2_correct_attempt'
p822
(lp823
S'0:00:17'
p824
aV1/23
p825
asS'part1_correct_attempt'
p826
(lp827
S'0:00:00'
p828
aV1/19
p829
asg9
V2015-10-30 19:08:47
p830
sS'part2_incorrect_attempt'
p831
(lp832
(S'0:00:00'
p833
V23/19
p834
tp835
assVflhernan
p836
(dp837
S'part2_correct_attempt'
p838
(lp839
S'0:00:49'
p840
aV1/(20)
p841
asS'part1_correct_attempt'
p842
(lp843
S'0:00:00'
p844
aV1/19
p845
asg9
V2015-10-26 03:37:10
p846
sS'part2_incorrect_attempt'
p847
(lp848
(S'0:00:23'
p849
V1/(19*20)
p850
tp851
assVdaw023
p852
(dp853
S'part2_correct_attempt'
p854
(lp855
S'0:00:18'
p856
aV1/26
p857
asS'part1_correct_attempt'
p858
(lp859
S'0:00:00'
p860
aV1/11
p861
asg9
V2015-10-30 00:42:48
p862
sS'part2_incorrect_attempt'
p863
(lp864
(S'0:00:00'
p865
V11/26
p866
tp867
assVaurodrig
p868
(dp869
S'part2_correct_attempt'
p870
(lp871
S'0:00:29'
p872
aV1/39
p873
asS'part1_correct_attempt'
p874
(lp875
S'0:00:00'
p876
aV1/16
p877
asg9
V2015-10-30 18:09:15
p878
sS'part2_incorrect_attempt'
p879
(lp880
(S'0:00:13'
p881
V39/16
p882
tp883
assVdcastlem
p884
(dp885
S'part2_correct_attempt'
p886
(lp887
S'0:06:46'
p888
aV1/32
p889
asS'part1_correct_attempt'
p890
(lp891
S'0:00:00'
p892
aV1/13
p893
asg9
V2015-10-29 18:39:32
p894
sS'part2_incorrect_attempt'
p895
(lp896
(S'0:01:19'
p897
V1-1/13
p898
tp899
a(S'0:01:48'
p900
V1/13
p901
tp902
assVtak068
p903
(dp904
S'part2_correct_attempt'
p905
(lp906
S'0:00:38'
p907
aV1/30
p908
asS'part1_correct_attempt'
p909
(lp910
S'0:00:00'
p911
aV1/12
p912
asg9
V2015-10-29 20:55:08
p913
sS'part2_incorrect_attempt'
p914
(lp915
(S'0:00:05'
p916
V1/12
p917
tp918
a(S'0:00:22'
p919
V11/12
p920
tp921
assVk4ma
p922
(dp923
S'part2_correct_attempt'
p924
(lp925
S'0:00:25'
p926
aV1/37
p927
asS'part1_correct_attempt'
p928
(lp929
S'0:00:00'
p930
aV1/16
p931
asg9
V2015-10-29 01:26:49
p932
sS'part2_incorrect_attempt'
p933
(lp934
(S'0:00:17'
p935
V1/32
p936
tp937
assVv3doan
p938
(dp939
S'part2_correct_attempt'
p940
(lp941
S'0:00:32'
p942
aV1/20
p943
asS'part1_correct_attempt'
p944
(lp945
S'0:00:00'
p946
aV1/17
p947
asg9
V2015-10-27 00:58:29
p948
sS'part2_incorrect_attempt'
p949
(lp950
(S'0:00:20'
p951
V20/17
p952
tp953
assVakg009
p954
(dp955
S'part2_correct_attempt'
p956
(lp957
S'0:00:19'
p958
aV1/37
p959
asS'part1_correct_attempt'
p960
(lp961
S'0:00:00'
p962
ag443
asg9
V2015-10-30 20:07:19
p963
sS'part2_incorrect_attempt'
p964
(lp965
(S'0:00:12'
p966
V11/37
p967
tp968
assVmjethani
p969
(dp970
S'part2_correct_attempt'
p971
(lp972
S'0:01:17'
p973
aV1/39
p974
asS'part1_correct_attempt'
p975
(lp976
S'0:00:00'
p977
aV1/20
p978
asg9
V2015-10-30 16:22:15
p979
sS'part2_incorrect_attempt'
p980
(lp981
(S'0:00:25'
p982
V39/20
p983
tp984
asss.