(dp0
V1
p1
ccollections
defaultdict
p2
(c__builtin__
list
p3
tp4
Rp5
S'Digits'
p6
(lp7
(V0.7*195/0.5
p8
V390
p9
tp10
a(g8
V136
p11
tp12
a(V0.6*197/0.4
p13
V197
p14
tp15
a(V0.8*176/0.5
p16
V0
p17
tp18
a(g16
V1
p19
tp20
a(V0.9*148/0.5
p21
V17
p22
tp23
a(g21
V1
p24
tp25
a(V0.6*187/0.5
p26
V18
p27
tp28
a(V0.5*183/0.4
p29
V0
p30
tp31
a(V0.9*100/0.5
p32
V19
p33
tp34
a(V0.8*113/0.5
p35
V0
p36
tp37
a(V0.5*167/0.4
p38
V0
p39
tp40
a(g38
V1
p41
tp42
a(V0.8*190/0.5
p43
V16
p44
tp45
a(V0.9*134/0.5
p46
V18
p47
tp48
a(V0.7*125/0.5
p49
V16
p50
tp51
a(V0.8*190/0.5
p52
V16
p53
tp54
a(V0.7*187/0.4
p55
V1
p56
tp57
a(V0.6*163/0.4
p58
V10
p59
tp60
a(g58
V1
p61
tp62
a(V0.6*165/0.4
p63
V10
p64
tp65
a(V0.9*106/0.4
p66
V12
p67
tp68
a(V0.7*180/0.5
p69
V1
p70
tp71
a(g69
V0
p72
tp73
a(V0.5*162/0.4
p74
V14
p75
tp76
a(V0.9*198/0.5
p77
V1
p78
tp79
a(g77
V15
p80
tp81
a(V0.9*120/0.5
p82
V20
p83
tp84
a(V0.9*134/0.5
p85
V16
p86
tp87
a(V0.8*180/0.4
p88
V0
p89
tp90
a(V0.8*179/0.5
p91
V15
p92
tp93
a(g91
V1
p94
tp95
a(V0.7*187/0.5
p96
V15
p97
tp98
a(V0.9*191/0.4
p99
V12
p100
tp101
a(V0.5*126/0.4
p102
V14
p103
tp104
a(V0.8*132/0.4
p105
V10
p106
tp107
a(g105
V11
p108
tp109
a(V0.5*188/0.4
p110
V12
p111
tp112
a(V0.7*149/0.4
p113
V1
p114
tp115
a(g113
V0
p116
tp117
a(g113
V1
p118
tp119
a(V0.9*126/0.5
p120
V1
p121
tp122
a(g120
V0
p123
tp124
a(V0.7*110/0.4
p125
V12
p126
tp127
a(V0.7*192/0.5
p128
V16
p129
tp130
a(g128
V1
p131
tp132
a(g128
V16
p133
tp134
a(V0.6*195/0.5
p135
V19
p136
tp137
a(g135
V1
p138
tp139
a(V0.8*168/0.5
p140
V18
p141
tp142
a(V0.9*123/0.5
p143
V1
p144
tp145
a(g143
V19
p146
tp147
a(V0.6*177/0.4
p148
V1
p149
tp150
a(V0.6*107/0.5
p151
V15
p152
tp153
a(V0.9*115/0.5
p154
V17
p155
tp156
a(g154
V1
p157
tp158
a(V0.9*168/0.4
p159
V15
p160
tp161
a(g159
V0
p162
tp163
a(g151
V1
p164
tp165
a(g151
V0
p166
tp167
a(V0.5*127/0.4
p168
V11
p169
tp170
asS"['R.1']"
p171
(lp172
(V0.9*183/0.4
p173
V183/.4
p174
(lp175
(S'R.1'
p176
F0.4
V0.4
p177
V.4
p178
tp179
aVkrkelkar
p180
(lp181
(V$k2
p182
V256
p183
tp184
a(V$k
p185
V183
p186
tp187
a(V$ans1
p188
V412
p189
tp190
a(V$n2
p191
V474
p192
tp193
a(V$r
p194
V0.4
p195
tp196
a(V$p
p197
V0.9
p198
tp199
aV2015-10-23 05:59:21
p200
tp201
a(g13
V197*0.4
p202
(lp203
(S'R.1'
p204
F0.4
V0.4
p205
V0.4
p206
tp207
aVj5phung
p208
(lp209
(V$k2
p210
V252
p211
tp212
a(V$k
p213
V197
p214
tp215
a(V$ans1
p216
V296
p217
tp218
a(V$n2
p219
V437
p220
tp221
a(V$r
p222
V0.4
p223
tp224
a(V$p
p225
V0.6
p226
tp227
aV2015-10-23 08:51:42
p228
tp229
a(g13
V197/0.4
p230
(lp231
(S'R.1'
p232
F0.4
V0.4
p233
V0.4
p234
tp235
aVj5phung
p236
g209
V2015-10-23 08:53:36
p237
tp238
a(V0.7*115/0.4
p239
V0.6*179/0.4
p240
(lp241
(S'R.1'
p242
F0.4
V0.4
p243
V0.4
p244
tp245
aVaggouw
p246
(lp247
(V$k2
p248
V284
p249
tp250
a(V$k
p251
V115
p252
tp253
a(V$ans1
p254
V202
p255
tp256
a(V$n2
p257
V353
p258
tp259
a(V$r
p260
V0.4
p261
tp262
a(V$p
p263
V0.7
p264
tp265
aV2015-10-27 03:23:41
p266
tp267
asS"['R.0', 'R.1']"
p268
(lp269
(g173
V(.9*183).4
p270
(lp271
(S'R.0'
p272
F164.70000000000002
V0.9*183
p273
V.9*183
p274
tp275
a(S'R.1'
p276
F0.4
V0.4
p277
V.4
p278
tp279
aVkrkelkar
p280
g181
V2015-10-23 06:01:05
p281
tp282
asS'Wrong_Sign'
p283
(lp284
(V0.8*136/0.4
p285
V1-(11/1000000)/(1/1000000)
p286
tp287
asS'Fraction'
p288
(lp289
(V0.8*194/0.4
p290
V242.5
p291
tp292
a(g8
V0.7
p293
tp294
a(g8
V0.7*195
p295
tp296
a(g8
V.5
p297
tp298
a(g43
V16/1000000
p299
tp300
a(V0.9*130/0.5
p301
V20/1000000
p302
tp303
a(g301
V1/1000000
p304
tp305
a(g301
V(1000000-20)/1000000
p306
tp307
a(g301
V1/11
p308
tp309
a(V0.8*102/0.4
p310
V1/2
p311
tp312
a(V0.8*100/0.5
p313
V1/1000000
p314
tp315
a(V0.8*198/0.4
p316
V14/1000000
p317
tp318
a(g316
V.0001
p319
tp320
a(V0.8*113/0.4
p321
V((0.7*138)/0.5)
p322
tp323
a(V0.8*107/0.4
p324
V.1
p325
tp326
a(g105
V0.1
p327
tp328
a(g105
V0.1
p329
tp330
a(V0.9*132/0.4
p331
V11/1000000
p332
tp333
a(V0.5*156/0.4
p334
V0.00001
p335
tp336
a(g285
V11/1000000
p337
tp338
a(g285
V1/1000000
p339
tp340
a(g321
V(1/1*10^6)/(12/1*10^6)
p341
tp342
a(g321
V(1/(1*10^6))/(12/(1*10^6))
p343
tp344
a(g154
V1/1000000
p345
tp346
a(g154
V17/1000000
p347
tp348
a(g159
V.15
p349
tp350
a(g159
V(1+10^6)/(15+10^6)
p351
tp352
a(g159
V(15+10^6)/(1+10^6)
p353
tp354
a(g159
V15/(1+10^6)
p355
tp356
a(g159
V1/(15+10^6)
p357
tp358
a(g159
V(15+10^6)/(1+10^6)
p359
tp360
a(g159
V.15/.1
p361
tp362
a(g159
V.1/.15
p363
tp364
a(g159
V.1/.150
p365
tp366
a(g285
V1-(11/1000000)/(1/1000000)*0.01
p367
tp368
asS"['R.0.0', 'R.1']"
p369
(lp370
(V0.6*196/0.5
p371
V(0.6)*194/0.5
p372
(lp373
(S'R.0.0'
p374
F0.6
V0.6
p375
V0.6
p376
tp377
a(S'R.1'
p378
F0.5
V0.5
p379
V0.5
p380
tp381
aVjguanzho
p382
(lp383
(V$k2
p384
V265
p385
tp386
a(V$k
p387
V196
p388
tp389
a(V$ans1
p390
V236
p391
tp392
a(V$n2
p393
V424
p394
tp395
a(V$r
p396
V0.5
p397
tp398
a(V$p
p399
V0.6
p400
tp401
aV2015-10-23 01:31:09
p402
tp403
assV2
p404
g2
(g3
tp405
Rp406
g6
(lp407
(V415*0.5/275
p408
V20
p409
tp410
a(g408
V18,38
p411
tp412
a(V459*0.4/296
p413
V1
p414
tp415
a(V386*0.5/274
p416
V25
p417
tp418
a(V480*0.5/253
p419
V38
p420
tp421
a(V400*0.4/299
p422
V1
p423
tp424
a(V377*0.4/283
p425
V1000000
p426
tp427
a(g425
V1
p428
tp429
a(g425
V0
p430
tp431
a(V329*0.4/297
p432
V38
p433
tp434
a(V369*0.4/293
p435
V2
p436
tp437
a(g435
V0
p438
tp439
a(g435
V1
p440
tp441
a(V500*0.4/263
p442
V22
p443
tp444
a(V484*0.4/275
p445
V1
p446
tp447
a(V321*0.5/299
p448
V21
p449
tp450
a(V341*0.5/252
p451
V17
p452
tp453
a(g451
V1
p454
tp455
a(V399*0.4/294
p456
V15
p457
tp458
a(g448
V1
p459
tp460
a(g448
V0
p461
tp462
asS'redirect'
p463
(lp464
(V471*0.4/287
p465
V2870/4
p466
tp467
a(V310*0.5/263
p468
V0.7
p469
tp470
a(g468
V263/310
p471
tp472
a(V353*0.4/284
p473
V0.6*179/0.4
p474
tp475
a(V429*0.5/267
p476
V26/1000000
p477
tp478
a(g476
V1/1000000
p479
tp480
a(g476
V1/24
p481
tp482
a(V384*0.4/298
p483
V.33
p484
tp485
a(V344*0.4/277
p486
V(1/1000000)/(1/39000000)
p487
tp488
a(V494*0.4/258
p489
V26/1000000
p490
tp491
a(V426*0.4/273
p492
V0.000031
p493
tp494
a(V314*0.4/268
p495
V37/11
p496
tp497
a(V331*0.4/265
p498
V(1/(1*10^6))/(10/(1*10^6))
p499
tp500
a(g498
V(10/(1*10^6))/(1/(1*10^6))
p501
tp502
a(g456
V.15
p503
tp504
asS"['R.1']"
p505
(lp506
(V424*0.5/265
p507
V424/265
p508
(lp509
(S'R.1'
p510
F265.0
V265
p511
V265
p512
tp513
aVjguanzho
p514
g383
V2015-10-23 01:31:09
p515
tp516
asS"['R.0.1']"
p517
(lp518
(g473
V459*0.4/276
p519
(lp520
(S'R.0.1'
p521
F0.4
V0.4
p522
V0.4
p523
tp524
aVaggouw
p525
g247
V2015-10-27 03:24:08
p526
tp527
asg283
(lp528
(V428*0.4/299
p529
V[1/1000000]/[14/1000000] - 1
p530
tp531
asS"['R.0.1', 'R.1']"
p532
(lp533
(V403*0.5/279
p534
V403*2*.5/279
p535
(lp536
(S'R.0.1'
p537
F0.5
V0.5
p538
V.5/
p539
tp540
a(S'R.1'
p541
F279.0
V279
p542
V279
p543
tp544
aVvsamant
p545
(lp546
(V$k2
p547
V279
p548
tp549
a(V$k
p550
V172
p551
tp552
a(V$ans1
p553
V276
p554
tp555
a(V$n2
p556
V403
p557
tp558
a(V$r
p559
V0.5
p560
tp561
a(V$p
p562
V0.8
p563
tp564
aV2015-10-23 17:54:17
p565
tp566
ass.