(dp0
V1
p1
(dp2
Vdlgoldbe
p3
(dp4
S'part1_correct_attempt'
p5
(lp6
S'4:35:02'
p7
aV5
p8
asS'first_attempt'
p9
V2015-10-30 01:29:52
p10
sS'part1_incorrect_attempt'
p11
(lp12
(S'0:00:00'
p13
VC(9,1)
p14
tp15
assVkew017
p16
(dp17
S'part1_correct_attempt'
p18
(lp19
S'0:00:21'
p20
aV(1/6)+2(1/6)+3(1/6)+4(1/6)+5(1/6)+6(1/6)
p21
asg9
V2015-10-30 01:14:38
p22
sS'part1_incorrect_attempt'
p23
(lp24
(S'0:00:00'
p25
V1/6
p26
tp27
assVapokhare
p28
(dp29
S'part1_correct_attempt'
p30
(lp31
S'0:03:30'
p32
aV8*9/16
p33
asg9
V2015-10-26 00:59:09
p34
sS'part1_incorrect_attempt'
p35
(lp36
(S'0:00:00'
p37
V1/8
p38
tp39
assVdgunawan
p40
(dp41
S'part1_correct_attempt'
p42
(lp43
S'0:01:04'
p44
aV(1/10)[1+2+3+4+5+6+7+8+9+10]
p45
asg9
V2015-10-29 23:17:14
p46
sS'part1_incorrect_attempt'
p47
(lp48
(S'0:00:00'
p49
V1/6
p50
tp51
a(S'0:00:10'
p52
V1(1/10)
p53
tp54
assVgalu
p55
(dp56
S'part1_correct_attempt'
p57
(lp58
S'0:30:31'
p59
aV36/8
p60
asg9
V2015-10-30 23:28:45
p61
sS'part1_incorrect_attempt'
p62
(lp63
(S'0:00:00'
p64
V1/8
p65
tp66
assVlywong
p67
(dp68
S'part1_correct_attempt'
p69
(lp70
S'0:01:27'
p71
aV5.5
p72
asg9
V2015-10-28 08:25:03
p73
sS'part1_incorrect_attempt'
p74
(lp75
(S'0:00:00'
p76
V1/10
p77
tp78
assVhkhodada
p79
(dp80
S'part1_correct_attempt'
p81
(lp82
S'4 days, 5:27:04'
p83
aV36/8
p84
asg9
V2015-10-23 19:19:40
p85
sS'part1_incorrect_attempt'
p86
(lp87
(S'0:00:00'
p88
V1/8
p89
tp90
a(S'0:00:00'
p91
V1/6
p92
tp93
assVasetters
p94
(dp95
S'part1_correct_attempt'
p96
(lp97
S'0:07:48'
p98
aV(1/8) *((8*9)/2)
p99
asg9
V2015-10-27 05:20:54
p100
sS'part1_incorrect_attempt'
p101
(lp102
(S'0:00:00'
p103
V(1/8)*((8+9)/2)
p104
tp105
a(S'0:00:47'
p106
V(1/8)*((7+8)/2)
p107
tp108
a(S'0:01:40'
p109
V(8+9)/2/8
p110
tp111
a(S'0:02:05'
p112
V((8+9)/2)/8
p113
tp114
assVachava
p115
(dp116
S'part1_correct_attempt'
p117
(lp118
S'3 days, 0:16:11'
p119
aV(1/8) + (2/8) + (3/8) + (4/8) + (5/8) + (6/8) + (7/8) + (1)
p120
asg9
V2015-10-25 07:44:02
p121
sS'part1_incorrect_attempt'
p122
(lp123
(S'0:00:00'
p124
V1/8
p125
tp126
a(S'0:00:00'
p127
V1/8
p128
tp129
a(S'0:00:17'
p130
V(1/8)^8
p131
tp132
assVd6he
p133
(dp134
S'part1_correct_attempt'
p135
(lp136
S'0:03:00'
p137
aV36/8
p138
asg9
V2015-10-28 19:19:34
p139
sS'part1_incorrect_attempt'
p140
(lp141
(S'0:00:00'
p142
V1/8
p143
tp144
assVcprafull
p145
(dp146
S'part1_correct_attempt'
p147
(lp148
S'0:09:16'
p149
aV3.5
p150
asg9
V2015-10-30 02:34:51
p151
sS'part1_incorrect_attempt'
p152
(lp153
(S'0:00:00'
p154
V2.5
p155
tp156
assVjjm019
p157
(dp158
S'part1_correct_attempt'
p159
(lp160
S'1 day, 11:02:51'
p161
aV(8*9)/(2*8)
p162
asg9
V2015-10-28 20:54:54
p163
sS'part1_incorrect_attempt'
p164
(lp165
(S'0:00:00'
p166
V1/8
p167
tp168
a(S'0:12:11'
p169
V1/2
p170
tp171
a(S'0:12:20'
p172
V1/8
p173
tp174
assVkrau
p175
(dp176
S'part1_correct_attempt'
p177
(lp178
S'0:00:11'
p179
aV3.5
p180
asg9
V2015-10-29 21:58:53
p181
sS'part1_incorrect_attempt'
p182
(lp183
(S'0:00:00'
p184
V5.5
p185
tp186
assVawollner
p187
(dp188
S'part1_correct_attempt'
p189
(lp190
S'0:00:23'
p191
aV1/10(1+2+3+4+5+6+7+8+9+10)
p192
asg9
V2015-10-27 03:26:48
p193
sS'part1_incorrect_attempt'
p194
(lp195
(S'0:00:00'
p196
V1/10
p197
tp198
assVpcdo
p199
(dp200
S'part1_correct_attempt'
p201
(lp202
S'0:00:31'
p203
aV8*(8+1)/(2*8)
p204
asg9
V2015-10-28 23:37:20
p205
sS'part1_incorrect_attempt'
p206
(lp207
(S'0:00:00'
p208
V(8*(8+1)/2*8)
p209
tp210
assVk5law
p211
(dp212
S'part1_correct_attempt'
p213
(lp214
S'0:02:54'
p215
aV(1+2+3+4+5+6+7+8+9+10)/10
p216
asg9
V2015-10-26 06:14:11
p217
sS'part1_incorrect_attempt'
p218
(lp219
(S'0:00:00'
p220
V1/10
p221
tp222
assVdlt009
p223
(dp224
S'part1_correct_attempt'
p225
(lp226
S'0:04:49'
p227
aV(1/10)(1+2+3+4+5+6+7+8+9+10)
p228
asg9
V2015-10-28 04:42:49
p229
sS'part1_incorrect_attempt'
p230
(lp231
(S'0:00:00'
p232
V1/10
p233
tp234
assVmbl003
p235
(dp236
S'part1_correct_attempt'
p237
(lp238
S'0:01:19'
p239
aV(1+2+3+4+5+6+7+8)/8
p240
asg9
V2015-10-27 08:33:05
p241
sS'part1_incorrect_attempt'
p242
(lp243
(S'0:00:00'
p244
V1/8
p245
tp246
assVpsable
p247
(dp248
S'part1_correct_attempt'
p249
(lp250
S'0:01:53'
p251
aV5.5
p252
asg9
V2015-10-30 05:56:19
p253
sS'part1_incorrect_attempt'
p254
(lp255
(S'0:00:00'
p256
V1/10
p257
tp258
assVj5phung
p259
(dp260
S'part1_correct_attempt'
p261
(lp262
S'1 day, 13:40:15'
p263
aV1/8 + 2/8 + 3/8 + 4/8 + 5/8 + 6/8 + 7/8 + 8/8
p264
asg9
V2015-10-26 01:38:44
p265
sS'part1_incorrect_attempt'
p266
(lp267
(S'0:00:00'
p268
V1/8
p269
tp270
assVn2patil
p271
(dp272
S'part1_correct_attempt'
p273
(lp274
S'16:49:13'
p275
aV3.5
p276
asg9
V2015-10-28 06:15:26
p277
sS'part1_incorrect_attempt'
p278
(lp279
(S'0:00:00'
p280
V1/2
p281
tp282
a(S'0:00:00'
p283
V10.5
p284
tp285
assVs2chaudh
p286
(dp287
S'part1_correct_attempt'
p288
(lp289
S'22:06:47'
p290
aV1/10*(55)
p291
asg9
V2015-10-28 02:32:53
p292
sS'part1_incorrect_attempt'
p293
(lp294
(S'0:00:00'
p295
V1/10*10
p296
tp297
a(S'0:00:08'
p298
V1/10
p299
tp300
a(S'0:00:00'
p301
V1/10
p302
tp303
assVtpmach
p304
(dp305
S'part1_correct_attempt'
p306
(lp307
S'0:00:54'
p308
aV1/6(1+2+3+4+5+6)
p309
asg9
V2015-10-28 06:17:09
p310
sS'part1_incorrect_attempt'
p311
(lp312
(S'0:00:00'
p313
V1/6
p314
tp315
assVhaw081
p316
(dp317
S'part1_correct_attempt'
p318
(lp319
S'0:01:59'
p320
aV(1/8)(1+2+3+4+5+6+7+8)
p321
asg9
V2015-10-25 07:38:48
p322
sS'part1_incorrect_attempt'
p323
(lp324
(S'0:00:00'
p325
V1/8
p326
tp327
assVcfgutier
p328
(dp329
S'part1_correct_attempt'
p330
(lp331
S'0:01:16'
p332
aV(1+2+3+4+5+6)/6
p333
asg9
V2015-10-29 17:53:02
p334
sS'part1_incorrect_attempt'
p335
(lp336
(S'0:00:00'
p337
V1/6
p338
tp339
a(S'0:00:16'
p340
V1/(6^6)
p341
tp342
assVhak014
p343
(dp344
S'part1_correct_attempt'
p345
(lp346
S'19:07:51'
p347
aV(1+2+3+4+5+6+7+8+9+10)/10
p348
asg9
V2015-10-26 23:04:03
p349
sS'part1_incorrect_attempt'
p350
(lp351
(S'0:00:00'
p352
V1/100
p353
tp354
a(S'0:00:00'
p355
V(2/100)+(6/100)+(12/100)+(20/100)+(30/100)+(42/100)+(40/100)+(36/100)+(30/100)+(22/100)+(12/100)
p356
tp357
assVtwsalim
p358
(dp359
S'part1_correct_attempt'
p360
(lp361
S'0:00:35'
p362
aV4.5
p363
asg9
V2015-10-30 05:41:04
p364
sS'part1_incorrect_attempt'
p365
(lp366
(S'0:00:00'
p367
V4.8
p368
tp369
a(S'0:00:20'
p370
V4.888
p371
tp372
assVdwzhang
p373
(dp374
S'part1_correct_attempt'
p375
(lp376
S'0:01:06'
p377
aV1/6 + 2/6 + 3/6 + 4/6 + 5/6 + 6/6
p378
asg9
V2015-10-29 21:24:51
p379
sS'part1_incorrect_attempt'
p380
(lp381
(S'0:00:00'
p382
V1/6
p383
tp384
assVkalang
p385
(dp386
S'part1_correct_attempt'
p387
(lp388
S'0:00:28'
p389
aV9*(1+9)/(2*9)
p390
asg9
V2015-10-29 01:15:39
p391
sS'part1_incorrect_attempt'
p392
(lp393
(S'0:00:00'
p394
V1*(1+1)/(2*1)
p395
tp396
assVmsaguiar
p397
(dp398
S'part1_correct_attempt'
p399
(lp400
S'0:00:22'
p401
aV(1+2+3+4+5+6+7+8+9+10)/10
p402
asg9
V2015-10-29 06:43:09
p403
sS'part1_incorrect_attempt'
p404
(lp405
(S'0:00:00'
p406
V1+2+3+4+5+6+7+8+9+10
p407
tp408
assVssamudra
p409
(dp410
S'part1_correct_attempt'
p411
(lp412
S'0:03:26'
p413
aV8(1/8) + 7(1/8) + 6(1/8)+ 5(1/8) + 4(1/8) + 3(1/8)+ 2(1/8) + 1/8
p414
asg9
V2015-10-30 21:35:49
p415
sS'part1_incorrect_attempt'
p416
(lp417
(S'0:00:00'
p418
V1/8
p419
tp420
a(S'0:00:21'
p421
V1/8*8
p422
tp423
assVmpanelo
p424
(dp425
S'part1_correct_attempt'
p426
(lp427
S'0:00:24'
p428
aV4.5
p429
asg9
V2015-10-28 19:03:29
p430
sS'part1_incorrect_attempt'
p431
(lp432
(S'0:00:00'
p433
V2.5
p434
tp435
assVz3meng
p436
(dp437
S'part1_correct_attempt'
p438
(lp439
S'0:03:13'
p440
aV4.5
p441
asg9
V2015-10-30 22:38:20
p442
sS'part1_incorrect_attempt'
p443
(lp444
(S'0:00:00'
p445
V2.25
p446
tp447
assVyeh013
p448
(dp449
S'part1_correct_attempt'
p450
(lp451
S'0:01:05'
p452
aV21/6
p453
asg9
V2015-10-28 06:16:11
p454
sS'part1_incorrect_attempt'
p455
(lp456
(S'0:00:00'
p457
V1/6
p458
tp459
assVhmnaing
p460
(dp461
S'part1_correct_attempt'
p462
(lp463
S'0:01:41'
p464
aV36/8
p465
asg9
V2015-10-30 07:46:41
p466
sS'part1_incorrect_attempt'
p467
(lp468
(S'0:00:00'
p469
V1/8
p470
tp471
assVglcohen
p472
(dp473
S'part1_correct_attempt'
p474
(lp475
S'0:01:34'
p476
aV1(1/8)+2(1/8)+3(1/8)+4(1/8)+5(1/8)+6(1/8)+7(1/8)+8(1/8)
p477
asg9
V2015-10-27 17:35:25
p478
sS'part1_incorrect_attempt'
p479
(lp480
(S'0:00:00'
p481
V(2 (1/36)) + (3 (1/36)) + (4(2/36))+(5(2/36))+(6(3/36))+(7(3/36))+(8(4/36))+(9(4/36))+(10(4/36))+(11(3/36))+(12(3/36))+(13(2/36))+(14(2/36))+(15(1/36))+(16(1/36))
p482
tp483
assVjnn015
p484
(dp485
S'part1_correct_attempt'
p486
(lp487
S'0:00:22'
p488
aV(6+5+4+3+2+1)/6
p489
asg9
V2015-10-27 04:39:27
p490
sS'part1_incorrect_attempt'
p491
(lp492
(S'0:00:00'
p493
V6!/6
p494
tp495
assVjguanzho
p496
(dp497
S'part1_correct_attempt'
p498
(lp499
S'0:07:30'
p500
aV(1/9)*(1+2+3+4+5+6+7+8+9)
p501
asg9
V2015-10-23 03:23:36
p502
sS'part1_incorrect_attempt'
p503
(lp504
(S'0:00:00'
p505
V1*(1*9)
p506
tp507
assVhaliew
p508
(dp509
S'part1_correct_attempt'
p510
(lp511
S'0:00:50'
p512
aV4.5
p513
asg9
V2015-10-29 01:04:24
p514
sS'part1_incorrect_attempt'
p515
(lp516
(S'0:00:00'
p517
V1/8
p518
tp519
assVa2ahmed
p520
(dp521
S'part1_correct_attempt'
p522
(lp523
S'0:02:54'
p524
aV5.5
p525
asg9
V2015-10-30 19:51:51
p526
sS'part1_incorrect_attempt'
p527
(lp528
(S'0:00:00'
p529
V1/10
p530
tp531
a(S'0:01:07'
p532
V1/9
p533
tp534
assVcstringh
p535
(dp536
S'part1_correct_attempt'
p537
(lp538
S'0:02:53'
p539
aV3.5
p540
asg9
V2015-10-26 16:37:38
p541
sS'part1_incorrect_attempt'
p542
(lp543
(S'0:00:00'
p544
V1/6
p545
tp546
a(S'0:01:29'
p547
V.1
p548
tp549
assVvasharma
p550
(dp551
S'part1_correct_attempt'
p552
(lp553
S'0:00:06'
p554
aV3.5
p555
asg9
V2015-10-30 23:21:31
p556
sS'part1_incorrect_attempt'
p557
(lp558
(S'0:00:00'
p559
V3.5+4
p560
tp561
assVarc013
p562
(dp563
S'part1_correct_attempt'
p564
(lp565
S'0:01:16'
p566
aV5.5
p567
asg9
V2015-10-30 22:08:00
p568
sS'part1_incorrect_attempt'
p569
(lp570
(S'0:00:00'
p571
V4.5
p572
tp573
assVr2fisher
p574
(dp575
S'part1_correct_attempt'
p576
(lp577
S'0:00:59'
p578
aV36/8
p579
asg9
V2015-10-26 22:50:07
p580
sS'part1_incorrect_attempt'
p581
(lp582
(S'0:00:00'
p583
V1/8
p584
tp585
assVdcastlem
p586
(dp587
S'part1_correct_attempt'
p588
(lp589
S'1 day, 0:40:13'
p590
aV36/8
p591
asg9
V2015-10-29 18:56:37
p592
sS'part1_incorrect_attempt'
p593
(lp594
(S'0:00:00'
p595
V1/4
p596
tp597
assVatorr
p598
(dp599
S'part1_correct_attempt'
p600
(lp601
S'0:00:28'
p602
aV(1+2+3+4+5+6+7+8)*(1/8)
p603
asg9
V2015-10-29 06:37:51
p604
sS'part1_incorrect_attempt'
p605
(lp606
(S'0:00:00'
p607
V1/8
p608
tp609
assVajvanega
p610
(dp611
S'part1_correct_attempt'
p612
(lp613
S'0:03:23'
p614
aV(1+2+3+4+5+6+7+8)/8
p615
asg9
V2015-10-23 16:57:29
p616
sS'part1_incorrect_attempt'
p617
(lp618
(S'0:00:00'
p619
V1/8
p620
tp621
assVytc012
p622
(dp623
S'part1_correct_attempt'
p624
(lp625
S'0:00:57'
p626
aV(8+7+6+5+4+3+2+1)/8
p627
asg9
V2015-10-29 11:34:00
p628
sS'part1_incorrect_attempt'
p629
(lp630
(S'0:00:00'
p631
V1/8
p632
tp633
a(S'0:00:27'
p634
V8!/8^8
p635
tp636
a(S'0:00:39'
p637
V8!/8
p638
tp639
assVakg009
p640
(dp641
S'part1_correct_attempt'
p642
(lp643
S'1:00:40'
p644
aV4.5
p645
asg9
V2015-10-30 20:43:13
p646
sS'part1_incorrect_attempt'
p647
(lp648
(S'0:00:00'
p649
V1/8
p650
tp651
a(S'0:05:53'
p652
V1/8
p653
tp654
a(S'0:00:00'
p655
V3.5
p656
tp657
assVmuy002
p658
(dp659
S'part1_correct_attempt'
p660
(lp661
S'0:24:46'
p662
aV55/10
p663
asg9
V2015-10-29 10:52:02
p664
sS'part1_incorrect_attempt'
p665
(lp666
(S'0:00:00'
p667
V1/10
p668
tp669
assVj2phung
p670
(dp671
S'part1_correct_attempt'
p672
(lp673
S'0:04:06'
p674
aV1(1/6)+2(1/6)+3(1/6)+4(1/6)+5(1/6)+6(1/6)
p675
asg9
V2015-10-29 00:28:16
p676
sS'part1_incorrect_attempt'
p677
(lp678
(S'0:00:00'
p679
V1/6
p680
tp681
a(S'0:00:58'
p682
V(1/6)+(1/6)+(1/6)+(1/6)+(1/6)+(1/6)
p683
tp684
asssV3
p685
(dp686
Vgalu
p687
(dp688
S'part3_incorrect_attempt'
p689
(lp690
(S'0:00:00'
p691
V36/8
p692
tp693
asS'part1_correct_attempt'
p694
(lp695
S'0:00:00'
p696
ag60
asg9
V2015-10-30 23:59:16
p697
ssVjag028
p698
(dp699
S'part3_correct_attempt'
p700
(lp701
S'23:07:31'
p702
aV15+10.8
p703
asS'part2_correct_attempt'
p704
(lp705
S'23:06:04'
p706
aV(1/10)+2(1/10)+3(1/10)+4(1/10)+5(1/10)+6(1/10)+7(1/10)+8(1/10)+9(1/5)
p707
asS'part1_correct_attempt'
p708
(lp709
S'0:00:00'
p710
aV(1/9)+2(1/9)+3(1/9)+4(1/9)+5(1/9)+6(1/9)+7(1/9)+8(1/9)+9(1/9)
p711
asg9
V2015-10-29 19:19:25
p712
sS'part3_incorrect_attempt'
p713
(lp714
(S'23:06:41'
p715
V10.4
p716
tp717
assVctroncos
p718
(dp719
S'part3_correct_attempt'
p720
(lp721
S'0:03:07'
p722
aV((5*9*(9+1)/(2*9)) + 4*(2*9/(9+1) + (9*(9-1))/(2*(9+1))))
p723
asS'part2_correct_attempt'
p724
(lp725
S'0:01:40'
p726
aV(2*9/(9+1) + (9*(9-1))/(2*(9+1)))
p727
asS'part1_correct_attempt'
p728
(lp729
S'0:00:00'
p730
aV9*(9+1)/(2*9)
p731
asg9
V2015-10-29 16:00:12
p732
sS'part3_incorrect_attempt'
p733
(lp734
(S'0:01:58'
p735
V4*(2*9/(9+1) + (9*(9-1))/(2*(9+1)))
p736
tp737
a(S'0:02:04'
p738
V4*(2*9/(9) + (9*(9-1))/(2*(9+1)))
p739
tp740
a(S'0:02:12'
p741
V4*(2*9/(9+1) + (9*(9-1))/(2*(9+1)))
p742
tp743
assVlywong
p744
(dp745
S'part3_correct_attempt'
p746
(lp747
S'23:00:24'
p748
aV5.5*4+(65/11*5)
p749
asS'part2_correct_attempt'
p750
(lp751
S'0:01:54'
p752
aV65/11
p753
asS'part1_correct_attempt'
p754
(lp755
S'0:00:00'
p756
ag72
asg9
V2015-10-28 08:26:30
p757
sS'part3_incorrect_attempt'
p758
(lp759
(S'0:03:59'
p760
V((5.5*4)+(65/11*5))/9
p761
tp762
assVkvass
p763
(dp764
S'part3_correct_attempt'
p765
(lp766
S'1:52:07'
p767
aV5(7/2) + 5(2*6/(6+1) + (6*(6-1))/(2*(6+1)))
p768
asS'part2_correct_attempt'
p769
(lp770
S'1:49:18'
p771
aV2*6/(6+1) + (6*(6-1))/(2*(6+1))
p772
asS'part1_correct_attempt'
p773
(lp774
S'0:00:00'
p775
aV7/2
p776
asg9
V2015-10-26 17:01:33
p777
sS'part3_incorrect_attempt'
p778
(lp779
(S'1:51:25'
p780
V7/2 + 2*6/(6+1) + (6*(6-1))/(2*(6+1))
p781
tp782
assVaggouw
p783
(dp784
S'part3_correct_attempt'
p785
(lp786
S'0:01:18'
p787
aV2*[7*(7+1)/(2*7)] + 5*[2*7/(7+1) + (7*(7-1))/(2*(7+1))]
p788
asS'part2_correct_attempt'
p789
(lp790
S'0:00:10'
p791
aV2*7/(7+1) + (7*(7-1))/(2*(7+1))
p792
asS'part1_correct_attempt'
p793
(lp794
S'0:00:00'
p795
aV7*(7+1)/(2*7)
p796
asg9
V2015-10-27 03:25:48
p797
sS'part3_incorrect_attempt'
p798
(lp799
(S'0:00:49'
p800
V33.875/0.1
p801
tp802
assVglcohen
p803
(dp804
S'part3_correct_attempt'
p805
(lp806
S'0:03:05'
p807
aV(4.5*4)+(4.88889*2)
p808
asS'part2_correct_attempt'
p809
(lp810
S'0:01:44'
p811
aV1(1/9)+2(1/9)+3(1/9)+4(1/9)+5(1/9)+6(1/9)+7(1/9)+8(2/9)
p812
asS'part1_correct_attempt'
p813
(lp814
S'0:00:00'
p815
ag477
asg9
V2015-10-27 17:36:59
p816
sS'part3_incorrect_attempt'
p817
(lp818
(S'0:02:33'
p819
V9+(4.8888*2)
p820
tp821
assVatorr
p822
(dp823
S'part3_correct_attempt'
p824
(lp825
S'13:24:08'
p826
aV3*((4.5) + (4.88889))
p827
asS'part2_correct_attempt'
p828
(lp829
S'0:05:16'
p830
aV(1+2+3+4+5+6+7)*(1/9) + (16/9)
p831
asS'part1_correct_attempt'
p832
(lp833
S'0:00:00'
p834
ag603
asg9
V2015-10-29 06:38:19
p835
sS'part3_incorrect_attempt'
p836
(lp837
(S'0:06:44'
p838
V((1+2+3+4+5+6+7+8)*(1/8))^3+ ((1+2+3+4+5+6+7)*(1/9) + (16/9))^3
p839
tp840
a(S'0:07:12'
p841
V((1+2+3+4+5+6+7+8)*(1/8^3))+ ((1+2+3+4+5+6+7)*(1/9^3) + (16^3/9^3))
p842
tp843
a(S'1:24:49'
p844
V(1/36) * (3 + 12 + 30 + 60 + 105 + 168 + 225 + 270 + 297 + 300 + 273 + 210 + 150 + 96 + 51 + 18)
p845
tp846
assVspw006
p847
(dp848
S'part3_correct_attempt'
p849
(lp850
S'0:01:13'
p851
aV10 + 5.4(3)
p852
asS'part2_correct_attempt'
p853
(lp854
S'0:00:47'
p855
aV9*(1/5) + .8 + .7 + .6 +.5 + .4 + .3 + .2 + .1
p856
asS'part1_correct_attempt'
p857
(lp858
S'0:00:00'
p859
aV5
p860
asg9
V2015-10-27 23:49:52
p861
sS'part3_incorrect_attempt'
p862
(lp863
(S'0:01:02'
p864
V25.8
p865
tp866
assVany027
p867
(dp868
S'part3_correct_attempt'
p869
(lp870
S'0:16:23'
p871
aV((4*5.5) + (5.90909 * 5))
p872
asS'part2_correct_attempt'
p873
(lp874
S'0:14:10'
p875
aV((2/11)*10)+((1/11)*(9+8+7+6+5+4+3+2+1))
p876
asS'part1_correct_attempt'
p877
(lp878
S'0:00:00'
p879
aV(1/10) * (10+9+8+7+6+5+4+3+2+1)
p880
asg9
V2015-10-26 04:09:44
p881
sS'part3_incorrect_attempt'
p882
(lp883
(S'0:15:55'
p884
V((4*5.5) + (5.90909 * 5)) / 9
p885
tp886
assVkrau
p887
(dp888
S'part3_correct_attempt'
p889
(lp890
S'0:09:27'
p891
aV3.5*4 + (6*2/7+15*1/7)*2
p892
asS'part2_correct_attempt'
p893
(lp894
S'0:08:39'
p895
aV6*2/7+15*1/7
p896
asS'part1_correct_attempt'
p897
(lp898
S'0:00:00'
p899
ag180
asg9
V2015-10-29 21:59:04
p900
sS'part3_incorrect_attempt'
p901
(lp902
(S'0:08:58'
p903
V3.5+6*2/7+15*1/7
p904
tp905
assVkthui
p906
(dp907
S'part3_correct_attempt'
p908
(lp909
S'2:37:51'
p910
aV((1+2+3+4+5+6+7+8+9+10)*(1/10))*2+((1+2+3+4+5+6+7+8+9)*(1/11)+10*(2/11))*5
p911
asS'part2_correct_attempt'
p912
(lp913
S'0:01:26'
p914
aV(1+2+3+4+5+6+7+8+9)*(1/11)+10*(2/11)
p915
asS'part1_correct_attempt'
p916
(lp917
S'0:00:00'
p918
aV(1+2+3+4+5+6+7+8+9+10)*(1/10)
p919
asg9
V2015-10-29 02:55:09
p920
sS'part3_incorrect_attempt'
p921
(lp922
(S'2:36:40'
p923
V(((1+2+3+4+5+6+7+8+9+10)*(1/10))*2+((1+2+3+4+5+6+7+8+9)*(1/11)+10*(2/11))*5)/(2+5)
p924
tp925
assVmbl003
p926
(dp927
S'part3_correct_attempt'
p928
(lp929
S'0:03:06'
p930
aV((((1+2+3+4+5+6+7+8)/8)*3)+((1+2+3+4+5+6+7+8+8)/9*5))
p931
asS'part2_correct_attempt'
p932
(lp933
S'0:00:16'
p934
aV(1+2+3+4+5+6+7+8+8)/9
p935
asS'part1_correct_attempt'
p936
(lp937
S'0:00:00'
p938
ag240
asg9
V2015-10-27 08:34:24
p939
sS'part3_incorrect_attempt'
p940
(lp941
(S'0:01:42'
p942
V((((1+2+3+4+5+6+7+8)/8)*3)+((1+2+3+4+5+6+7+8+8)/9*5))/8
p943
tp944
a(S'0:02:15'
p945
V((((1+2+3+4+5+6+7+8)/8)*3)*((1+2+3+4+5+6+7+8+8)/9*5))/8
p946
tp947
a(S'0:02:38'
p948
V((((1+2+3+4+5+6+7+8)/8)*3)+((1+2+3+4+5+6+7+8+8)/9*5))/8
p949
tp950
assVnhn018
p951
(dp952
S'part3_correct_attempt'
p953
(lp954
S'1:12:04'
p955
aV20+4.375*3
p956
asS'part2_correct_attempt'
p957
(lp958
S'1:09:47'
p959
aV(1+2+3+4+5+6+14)/8
p960
asS'part1_correct_attempt'
p961
(lp962
S'0:00:00'
p963
aV4
p964
asg9
V2015-10-29 04:06:43
p965
sS'part3_incorrect_attempt'
p966
(lp967
(S'1:10:20'
p968
V8.375
p969
tp970
a(S'1:11:36'
p971
V20*4.375*3
p972
tp973
assVvasharma
p974
(dp975
S'part3_correct_attempt'
p976
(lp977
S'0:13:53'
p978
aV3(3.86)+4(3.5)
p979
asS'part2_correct_attempt'
p980
(lp981
S'0:12:21'
p982
aV3.86
p983
asS'part1_correct_attempt'
p984
(lp985
S'0:00:00'
p986
ag555
asg9
V2015-10-30 23:21:37
p987
sS'part3_incorrect_attempt'
p988
(lp989
(S'0:12:51'
p990
V3.86+3.5
p991
tp992
assVc4du
p993
(dp994
S'part3_correct_attempt'
p995
(lp996
S'0:08:48'
p997
aV2*(9/2+44/9)
p998
asS'part2_correct_attempt'
p999
(lp1000
S'0:01:15'
p1001
aV44/9
p1002
asS'part1_correct_attempt'
p1003
(lp1004
S'0:00:00'
p1005
aV9/2
p1006
asg9
V2015-10-29 04:53:08
p1007
sS'part3_incorrect_attempt'
p1008
(lp1009
(S'0:04:48'
p1010
V9/2+44/9
p1011
tp1012
assVj6quach
p1013
(dp1014
S'part3_correct_attempt'
p1015
(lp1016
S'4 days, 23:38:01'
p1017
aV5*5 + 5.4*4
p1018
asS'part2_correct_attempt'
p1019
(lp1020
S'0:00:00'
p1021
aV(1+2+3+4+5+6+7+8)/10 + 18/10
p1022
asS'part1_correct_attempt'
p1023
(lp1024
S'0:00:00'
p1025
aV(1+2+3+4+5+6+7+8+9)/9
p1026
asg9
V2015-10-25 21:26:03
p1027
sS'part3_incorrect_attempt'
p1028
(lp1029
(S'0:00:00'
p1030
V1 + 5.4/4
p1031
tp1032
a(S'4 days, 23:35:39'
p1033
V5 + 5.4
p1034
tp1035
a(S'4 days, 23:36:09'
p1036
V(5*5 + 5.4*4)/9
p1037
tp1038
assVksmurlo
p1039
(dp1040
S'part3_correct_attempt'
p1041
(lp1042
S'0:03:28'
p1043
aV4*3+4.375*5
p1044
asS'part2_correct_attempt'
p1045
(lp1046
S'0:00:00'
p1047
aV(1+2+3+4+5+6+7+7)/8
p1048
asS'part1_correct_attempt'
p1049
(lp1050
S'0:00:00'
p1051
aV(1+2+3+4+5+6+7)/7
p1052
asg9
V2015-10-27 06:26:33
p1053
sS'part3_incorrect_attempt'
p1054
(lp1055
(S'0:02:55'
p1056
V4+4.375
p1057
tp1058
assVr1gu
p1059
(dp1060
S'part3_correct_attempt'
p1061
(lp1062
S'0:01:29'
p1063
aV4*5.5+2*5.90909
p1064
asS'part2_correct_attempt'
p1065
(lp1066
S'0:00:44'
p1067
aV2*10/(10+1)+(10*(10-1))/(2*(10+1))
p1068
asS'part1_correct_attempt'
p1069
(lp1070
S'0:00:00'
p1071
aV10(10+1)/(20)
p1072
asg9
V2015-10-30 08:52:35
p1073
sS'part3_incorrect_attempt'
p1074
(lp1075
(S'0:00:54'
p1076
V5.5+5.909
p1077
tp1078
a(S'0:01:00'
p1079
V5.5+5.90909
p1080
tp1081
assVdcastlem
p1082
(dp1083
S'part3_correct_attempt'
p1084
(lp1085
S'2:37:19'
p1086
aV595/18
p1087
asS'part2_correct_attempt'
p1088
(lp1089
S'0:00:00'
p1090
aV44/9
p1091
asS'part1_correct_attempt'
p1092
(lp1093
S'0:00:00'
p1094
ag591
asg9
V2015-10-30 19:36:50
p1095
sS'part3_incorrect_attempt'
p1096
(lp1097
(S'0:00:00'
p1098
V382/9
p1099
tp1100
assVairanmeh
p1101
(dp1102
S'part3_correct_attempt'
p1103
(lp1104
S'11:38:07'
p1105
aV4*(16/9+28/9)+ 2*36/8
p1106
asS'part2_correct_attempt'
p1107
(lp1108
S'11:34:49'
p1109
aV16/9+28/9
p1110
asS'part1_correct_attempt'
p1111
(lp1112
S'0:00:00'
p1113
aV36/8
p1114
asg9
V2015-10-28 19:49:46
p1115
sS'part3_incorrect_attempt'
p1116
(lp1117
(S'11:35:14'
p1118
V16/9+28/9+ 16/8
p1119
tp1120
a(S'11:37:32'
p1121
V4*16/9+4*28/9+ 2*16/8
p1122
tp1123
assVjew037
p1124
(dp1125
S'part3_correct_attempt'
p1126
(lp1127
S'0:01:39'
p1128
aV2(8*(8+1)/(2*8)) + 2(2*8/(8+1) + (8*(8-1))/(2*(8+1)))
p1129
asS'part2_correct_attempt'
p1130
(lp1131
S'0:00:00'
p1132
aV2*8/(8+1) + (8*(8-1))/(2*(8+1))
p1133
asS'part1_correct_attempt'
p1134
(lp1135
S'0:00:00'
p1136
aV8*(8+1)/(2*8)
p1137
asg9
V2015-10-28 18:26:26
p1138
sS'part3_incorrect_attempt'
p1139
(lp1140
(S'0:01:14'
p1141
V2*8/(8+1) + (8*(8-1))/(2*(8+1))
p1142
tp1143
assVagarango
p1144
(dp1145
S'part3_correct_attempt'
p1146
(lp1147
S'0:05:28'
p1148
aV(588+810)/42
p1149
asS'part2_correct_attempt'
p1150
(lp1151
S'0:03:15'
p1152
aV27/7
p1153
asS'part1_correct_attempt'
p1154
(lp1155
S'0:00:00'
p1156
aV21/6
p1157
asg9
V2015-10-30 19:52:31
p1158
sS'part3_incorrect_attempt'
p1159
(lp1160
(S'0:04:09'
p1161
V(147+162)/42
p1162
tp1163
assVs6deng
p1164
(dp1165
S'part3_correct_attempt'
p1166
(lp1167
S'0:19:59'
p1168
aV12+(35/2)
p1169
asS'part2_correct_attempt'
p1170
(lp1171
S'0:16:26'
p1172
aV35/8
p1173
asS'part1_correct_attempt'
p1174
(lp1175
S'0:00:00'
p1176
aV4
p1177
asg9
V2015-10-28 23:27:32
p1178
sS'part3_incorrect_attempt'
p1179
(lp1180
(S'0:18:30'
p1181
V7+(35/4)
p1182
tp1183
assVdwzhang
p1184
(dp1185
S'part3_correct_attempt'
p1186
(lp1187
S'0:09:16'
p1188
aV4(1/6 + 2/6 + 3/6 + 4/6 + 5/6 + 6/6) + 2(1/7 + 2/7 + 3/7 + 4/7 + 5/7 + 12/7)
p1189
asS'part2_correct_attempt'
p1190
(lp1191
S'0:01:41'
p1192
aV1/7 + 2/7 + 3/7 + 4/7 + 5/7 + 12/7
p1193
asS'part1_correct_attempt'
p1194
(lp1195
S'0:00:00'
p1196
ag378
asg9
V2015-10-29 21:25:57
p1197
sS'part3_incorrect_attempt'
p1198
(lp1199
(S'0:02:28'
p1200
V(1/7 + 2/7 + 3/7 + 4/7 + 5/7 + 12/7)^4 + (1/6 + 2/6 + 3/6 + 4/6 + 5/6 + 6/6)^2
p1201
tp1202
a(S'0:08:54'
p1203
V(1/7 + 2/7 + 3/7 + 4/7 + 5/7 + 12/7)^2 + (1/6 + 2/6 + 3/6 + 4/6 + 5/6 + 6/6)^4
p1204
tp1205
assVagian
p1206
(dp1207
S'part3_correct_attempt'
p1208
(lp1209
S'0:06:53'
p1210
aV5*3.5+2*3.85714
p1211
asS'part2_correct_attempt'
p1212
(lp1213
S'0:00:49'
p1214
aV2*6/(6+1)+(6*(6-1))/(2*(6+1))
p1215
asS'part1_correct_attempt'
p1216
(lp1217
S'0:00:00'
p1218
aV6*(6+1)/(2*6)
p1219
asg9
V2015-10-30 22:21:56
p1220
sS'part3_incorrect_attempt'
p1221
(lp1222
(S'0:02:06'
p1223
V2*5+5*3.5
p1224
tp1225
a(S'0:04:09'
p1226
V2*7+3*3.857146
p1227
tp1228
assVtol003
p1229
(dp1230
S'part3_correct_attempt'
p1231
(lp1232
S'0:15:38'
p1233
aV(2*4)+(3*(21/8+7/4))
p1234
asS'part2_correct_attempt'
p1235
(lp1236
S'0:05:39'
p1237
aV21/8+7/4
p1238
asS'part1_correct_attempt'
p1239
(lp1240
S'0:00:00'
p1241
aV4
p1242
asg9
V2015-10-28 01:02:12
p1243
sS'part3_incorrect_attempt'
p1244
(lp1245
(S'0:12:08'
p1246
V4+21/8+7/4
p1247
tp1248
assVaalhaida
p1249
(dp1250
S'part3_correct_attempt'
p1251
(lp1252
S'0:28:37'
p1253
aV(4+4+5(4.375))
p1254
asS'part2_correct_attempt'
p1255
(lp1256
S'0:19:22'
p1257
aV4.375
p1258
asS'part1_correct_attempt'
p1259
(lp1260
S'0:00:00'
p1261
aV4
p1262
asg9
V2015-10-30 22:51:28
p1263
sS'part3_incorrect_attempt'
p1264
(lp1265
(S'0:27:41'
p1266
V4.26785714286
p1267
tp1268
assVjhw015
p1269
(dp1270
S'part3_correct_attempt'
p1271
(lp1272
S'0:07:43'
p1273
aV(135/9)+(108/10)
p1274
asS'part2_correct_attempt'
p1275
(lp1276
S'0:05:09'
p1277
aV54/10
p1278
asS'part1_correct_attempt'
p1279
(lp1280
S'0:00:00'
p1281
aV45/9
p1282
asg9
V2015-10-27 23:45:45
p1283
sS'part3_incorrect_attempt'
p1284
(lp1285
(S'0:06:30'
p1286
V(45/9)^3  + (54/10)^2
p1287
tp1288
assVkbielawi
p1289
(dp1290
S'part3_correct_attempt'
p1291
(lp1292
S'1 day, 3:21:35'
p1293
aV25.8
p1294
asS'part2_correct_attempt'
p1295
(lp1296
S'1 day, 3:17:00'
p1297
aV(1+2+3+4+5+6+7+8+18)/10
p1298
asS'part1_correct_attempt'
p1299
(lp1300
S'0:00:00'
p1301
aV(1+2+3+4+5+6+7+8+9)/9
p1302
asg9
V2015-10-26 21:39:28
p1303
sS'part3_incorrect_attempt'
p1304
(lp1305
(S'1 day, 3:19:10'
p1306
V26.2/5
p1307
tp1308
a(S'1 day, 3:19:52'
p1309
V25.8/5
p1310
tp1311
assVthwan
p1312
(dp1313
S'part3_correct_attempt'
p1314
(lp1315
S'0:07:37'
p1316
aV4*2+4.375*4
p1317
asS'part2_correct_attempt'
p1318
(lp1319
S'0:00:00'
p1320
aV2*7/8+1/8+2/8+3/8+4/8+5/8+6/8
p1321
asS'part1_correct_attempt'
p1322
(lp1323
S'0:00:00'
p1324
aV1/7+2/7+3/7+4/7+5/7+6/7+7/7
p1325
asg9
V2015-10-27 18:06:41
p1326
sS'part3_incorrect_attempt'
p1327
(lp1328
(S'0:06:53'
p1329
V4^2*(4.375)^4
p1330
tp1331
assVyeh013
p1332
(dp1333
S'part3_correct_attempt'
p1334
(lp1335
S'0:01:30'
p1336
aV(21/6+27/7)*2
p1337
asS'part2_correct_attempt'
p1338
(lp1339
S'0:00:22'
p1340
aV27/7
p1341
asS'part1_correct_attempt'
p1342
(lp1343
S'0:00:00'
p1344
ag453
asg9
V2015-10-28 06:17:16
p1345
sS'part3_incorrect_attempt'
p1346
(lp1347
(S'0:01:14'
p1348
V21/6+27/7
p1349
tp1350
assVaysee
p1351
(dp1352
S'part3_correct_attempt'
p1353
(lp1354
S'0:01:26'
p1355
aV4*[10*(10+1)]/(2*10) + 2*[(2*10)/(10+1)+(10*(10-1))/(2*(10+1))]
p1356
asS'part2_correct_attempt'
p1357
(lp1358
S'0:00:00'
p1359
aV(2*10)/(10+1)+(10*(10-1))/(2*(10+1))
p1360
asS'part1_correct_attempt'
p1361
(lp1362
S'0:00:00'
p1363
aV[10*(10+1)]/(2*10)
p1364
asg9
V2015-10-29 23:38:52
p1365
sS'part3_incorrect_attempt'
p1366
(lp1367
(S'0:00:00'
p1368
V4*[10*(10+1)]/(2*10) + 2*(2*10)/(10+1)+(10*(10-1))/(2*(10+1))
p1369
tp1370
assVhmnaing
p1371
(dp1372
S'part3_correct_attempt'
p1373
(lp1374
S'0:11:44'
p1375
aV5*36/8 +2*(28+16)/9
p1376
asS'part2_correct_attempt'
p1377
(lp1378
S'0:10:30'
p1379
aV(28+16)/9
p1380
asS'part1_correct_attempt'
p1381
(lp1382
S'0:00:00'
p1383
ag465
asg9
V2015-10-30 07:48:22
p1384
sS'part3_incorrect_attempt'
p1385
(lp1386
(S'0:10:55'
p1387
V36/8 +(28+16)/9
p1388
tp1389
assVaadhakal
p1390
(dp1391
S'part3_correct_attempt'
p1392
(lp1393
S'0:08:31'
p1394
aV2*((10*(10+1))/(2*10))+2*((10*2)/(10+1)+(10*(10-1))/(2*(10+1)))
p1395
asS'part2_correct_attempt'
p1396
(lp1397
S'0:00:00'
p1398
aV(10*2)/(10+1)+(10*(10-1))/(2*(10+1))
p1399
asS'part1_correct_attempt'
p1400
(lp1401
S'0:00:00'
p1402
aV(10*(10+1))/(2*10)
p1403
asg9
V2015-10-29 23:53:13
p1404
sS'part3_incorrect_attempt'
p1405
(lp1406
(S'0:05:45'
p1407
V2*2+2*6
p1408
tp1409
assVw4shin
p1410
(dp1411
S'part3_correct_attempt'
p1412
(lp1413
S'0:00:34'
p1414
aV5*((1/10)*(1+2+3+4+5+6+7+8+9+10))+5*((1/11)*(1+2+3+4+5+6+7+8+9)+(2/11)*10)
p1415
asS'part2_correct_attempt'
p1416
(lp1417
S'0:00:00'
p1418
aV(1/11)*(1+2+3+4+5+6+7+8+9)+(2/11)*10
p1419
asS'part1_correct_attempt'
p1420
(lp1421
S'0:00:00'
p1422
aV(1/10)*(1+2+3+4+5+6+7+8+9+10)
p1423
asg9
V2015-10-30 17:45:04
p1424
sS'part3_incorrect_attempt'
p1425
(lp1426
(S'0:00:00'
p1427
V(1/10)*(1+2+3+4+5+6+7+8+9+10)+(1/11)*(1+2+3+4+5+6+7+8+9)+(2/11)*10
p1428
tp1429
assVtdurrer
p1430
(dp1431
S'part3_correct_attempt'
p1432
(lp1433
S'0:00:36'
p1434
aV2(5.5)+3(65/11)
p1435
asS'part2_correct_attempt'
p1436
(lp1437
S'0:00:00'
p1438
aV65/11
p1439
asS'part1_correct_attempt'
p1440
(lp1441
S'0:00:00'
p1442
aV5.5
p1443
asg9
V2015-10-27 04:40:33
p1444
sS'part3_incorrect_attempt'
p1445
(lp1446
(S'0:00:00'
p1447
V(5.5)+(65/11)
p1448
tp1449
assVqfu
p1450
(dp1451
S'part3_correct_attempt'
p1452
(lp1453
S'0:11:28'
p1454
aV4*5+ 4.375*2
p1455
asS'part2_correct_attempt'
p1456
(lp1457
S'0:00:00'
p1458
aV7/4+(1+2+3+4+5+6)/8
p1459
asS'part1_correct_attempt'
p1460
(lp1461
S'0:00:00'
p1462
aV4
p1463
asg9
V2015-10-23 02:59:25
p1464
sS'part3_incorrect_attempt'
p1465
(lp1466
(S'0:00:17'
p1467
V(1+2+3+4+5+6+7)/5+7+(1+2+3+4+5+6)/2
p1468
tp1469
a(S'0:01:49'
p1470
V4+7/4+(1+2+3+4+5+6)/8
p1471
tp1472
assVstarinia
p1473
(dp1474
S'part3_correct_attempt'
p1475
(lp1476
S'0:05:41'
p1477
aV5 * (12/7 + 30/14) + 21/6 *5
p1478
asS'part2_correct_attempt'
p1479
(lp1480
S'0:04:54'
p1481
aV12/7 + 30/14
p1482
asS'part1_correct_attempt'
p1483
(lp1484
S'0:00:00'
p1485
aV21/6
p1486
asg9
V2015-10-30 22:10:09
p1487
sS'part3_incorrect_attempt'
p1488
(lp1489
(S'0:04:54'
p1490
V12/7 + 30/14 + 21/6
p1491
tp1492
a(S'0:05:12'
p1493
V12/7 + 30/14 * 21/6 *2
p1494
tp1495
a(S'0:05:17'
p1496
V12/7 + 30/14 + 21/6 *2
p1497
tp1498
assVm4salaza
p1499
(dp1500
S'part3_correct_attempt'
p1501
(lp1502
S'0:09:28'
p1503
aV3*5.5 + 3*5.9090
p1504
asS'part2_correct_attempt'
p1505
(lp1506
S'0:04:43'
p1507
aV(1+2+3+4+5+6+7+8+9+20)/11
p1508
asS'part1_correct_attempt'
p1509
(lp1510
S'0:00:00'
p1511
aV(1+2+3+4+5+6+7+8+9+10)/10
p1512
asg9
V2015-10-29 04:59:49
p1513
sS'part3_incorrect_attempt'
p1514
(lp1515
(S'0:05:19'
p1516
V5.5*5.90909
p1517
tp1518
assVvolim
p1519
(dp1520
S'part3_correct_attempt'
p1521
(lp1522
S'0:02:21'
p1523
aV15+(4*5.4)
p1524
asS'part2_correct_attempt'
p1525
(lp1526
S'0:00:49'
p1527
aV(1+2+3+4+5+6+7+8+9+9)/10
p1528
asS'part1_correct_attempt'
p1529
(lp1530
S'0:00:00'
p1531
aV(1+2+3+4+5+6+7+8+9)/9
p1532
asg9
V2015-10-28 05:35:30
p1533
sS'part3_incorrect_attempt'
p1534
(lp1535
(S'0:01:22'
p1536
V(5+5+5+5.4+5.4+5.4)/7
p1537
tp1538
a(S'0:01:28'
p1539
V(5+5+5+5.4+5.4+5.4)/9
p1540
tp1541
a(S'0:01:44'
p1542
V(5+5+5)/9+(5.4+5.4+5.4)/10
p1543
tp1544
assVhsc052
p1545
(dp1546
S'part3_correct_attempt'
p1547
(lp1548
S'0:15:08'
p1549
aV3*(45/9)+(54/10)*2
p1550
asS'part2_correct_attempt'
p1551
(lp1552
S'0:06:50'
p1553
aV(54/10)
p1554
asS'part1_correct_attempt'
p1555
(lp1556
S'0:00:00'
p1557
aV45/9
p1558
asg9
V2015-10-30 21:33:50
p1559
sS'part3_incorrect_attempt'
p1560
(lp1561
(S'0:06:50'
p1562
V(45/9)+54/10
p1563
tp1564
assVyos017
p1565
(dp1566
S'part3_correct_attempt'
p1567
(lp1568
S'0:03:11'
p1569
aV4*[(1+2+3+4+5+6+7+8+9+10)/10]+5*[(1+2+3+4+5+6+7+8+9+20)/11]
p1570
asS'part2_correct_attempt'
p1571
(lp1572
S'0:01:18'
p1573
aV(1+2+3+4+5+6+7+8+9+20)/11
p1574
asS'part1_correct_attempt'
p1575
(lp1576
S'0:00:00'
p1577
aV(1+2+3+4+5+6+7+8+9+10)/10
p1578
asg9
V2015-10-29 06:07:42
p1579
sS'part3_incorrect_attempt'
p1580
(lp1581
(S'0:02:24'
p1582
V[(1+2+3+4+5+6+7+8+9+10)/10]+[(1+2+3+4+5+6+7+8+9+20)/11]
p1583
tp1584
assVaordookh
p1585
(dp1586
S'part3_correct_attempt'
p1587
(lp1588
S'4:33:45'
p1589
aV2(5.4+5)
p1590
asS'part2_correct_attempt'
p1591
(lp1592
S'0:00:00'
p1593
aV(.9/9)*(1+2+3+4+5+6+7+8) + (1.8/9)*9
p1594
asS'part1_correct_attempt'
p1595
(lp1596
S'0:00:00'
p1597
aV(1+2+3+4+5+6+7+8+9)*(1/9)
p1598
asg9
V2015-10-28 22:14:15
p1599
sS'part3_incorrect_attempt'
p1600
(lp1601
(S'0:01:18'
p1602
V5+5.4
p1603
tp1604
a(S'0:32:52'
p1605
V((1+1)*((1/9)(.9/9)))+ (2*(1+2)((1/9)(.9/9)))+(2*(1+3)((1/9)(.9/9)))+(2*(1+4)((1/9)(.9/9))) + (2*(1+5)((1/9)(.9/9))) + (2*(1+6)((1/9)(.9/9)))+(2*(1+7)((1/9)(.9/9)))+(2*(1+8)((1/9)(.9/9)))+((1+9)((1/9)(.9/9)))+((1+9)((1/9)(1.8/9)))+((2+2)((1/9)(.9/9))) + (2*(2+3)((1/9)(.9/9)))+(2*(2+4)((1/9)(.9/9))) + (2*(2+5)((1/9)(.9/9)))+(2*(2+6)((1/9)(.9/9))) + (2*(2+7)((1/9)(.9/9))) + (2*(2+8)((1/9)(.9/9)))+((2+9)((1/9)(.9/9)))+((2+9)((1/9)(1.8/9))) + ((3+3)((1/9)(.9/9)))+(2*(3+4)((1/9)(.9/9)))+(2*(3+5)((1/9)(.9/9)))+(2*(3+6)((1/9)(.9/9)))+(2*(3+6)((1/9)(.9/9)))+(2*(3+7)((1/9)(.9/9)))+(2*(3+8)((1/9)(.9/9)))+(2*(3+9)((1/9)(.9/9)))+((3+9)((1/9)(.9/9)))+((4+4)((1/9)(.9/9)))+(2*(4+5)((1/9)(.9/9)))+(2*(4+6)((1/9)(.9/9)))+(2*(4+7)((1/9)(.9/9)))+ (2*(4+8)((1/9)(.9/9)))+(2*(4+9)((1/9)(.9/9)))+((4+9)((1/9)(.9/9)))+((5+5)((1/9)(.9/9)))+(2*(5+6)((1/9)(.9/9)))+((2*(5+7)((1/9)(.9/9))))+(2*(5+8)((1/9)(.9/9)))+(2*(5+9)((1/9)(.9/9)))+((5+9)((1/9)(.9/9)))+((6+6)((1/9)(.9/9)))
p1606
tp1607
a(S'4:16:06'
p1608
V(1*(2)*((1/9)(.9/9)))+ (2*(3)((1/9)(.9/9)))+(3*(4)((1/9)(.9/9)))+(4*(5)((1/9)(.9/9))) + (5*(6)((1/9)(.9/9))) + (6*(7)((1/9)(.9/9)))+(7*(8)((1/9)(.9/9)))+(8*(9)((1/9)(.9/9)))+(8*(10)((1/9)(.9/9)))+((1+9)((1/9)(1.8/9)))+(9*(11)((1/9)(.9/9))) + (10*(12)((1/9)(.9/9)))+(11*(13)((1/9)(.9/9))) + (12*(14)((1/9)(.9/9)))+(13*(15)((1/9)(.9/9))) + (14*(16)((1/9)(.9/9))) + (15*(17)((1/9)(.9/9)))+((18)((1/9)(1.8/9)))+((11)((1/9)(1.8/9)))+((12)((1/9)(1.8/9)))+((13)((1/9)(1.8/9)))+((14)((1/9)(1.8/9)))+((15)((1/9)(1.8/9)))+((16)((1/9)(1.8/9)))+((17)((1/9)(1.8/9)))
p1609
tp1610
a(S'4:20:33'
p1611
V(1*(2)*((1/9)(.9/9)))+ (2*(3)((1/9)(.9/9)))+(3*(4)((1/9)(.9/9)))+(4*(5)((1/9)(.9/9))) + (5*(6)((1/9)(.9/9))) + (6*(7)((1/9)(.9/9)))+(7*(8)((1/9)(.9/9)))+(8*(9)((1/9)(.9/9)))+(8*(10)((1/9)(.9/9)))+((1+9)((1/9)(1.8/9)))+(7*(11)((1/9)(.9/9))) + (6*(12)((1/9)(.9/9)))+(5*(13)((1/9)(.9/9))) + (4*(14)((1/9)(.9/9)))+(3*(15)((1/9)(.9/9))) + (2*(16)((1/9)(.9/9))) + (1*(17)((1/9)(.9/9)))+((18)((1/9)(1.8/9)))+((11)((1/9)(1.8/9)))+((12)((1/9)(1.8/9)))+((13)((1/9)(1.8/9)))+((14)((1/9)(1.8/9)))+((15)((1/9)(1.8/9)))+((16)((1/9)(1.8/9)))+((17)((1/9)(1.8/9)))
p1612
tp1613
assVytc012
p1614
(dp1615
S'part3_correct_attempt'
p1616
(lp1617
S'0:08:06'
p1618
aV5(8+7+6+5+4+3+2+1)/8+3(16+7+6+5+4+3+2+1)/9
p1619
asS'part2_correct_attempt'
p1620
(lp1621
S'0:04:38'
p1622
aV(16+7+6+5+4+3+2+1)/9
p1623
asS'part1_correct_attempt'
p1624
(lp1625
S'0:00:00'
p1626
ag627
asg9
V2015-10-29 11:34:57
p1627
sS'part3_incorrect_attempt'
p1628
(lp1629
(S'0:05:42'
p1630
V(8+7+6+5+4+3+2+1)(16+7+6+5+4+3+2+1)/9/8
p1631
tp1632
a(S'0:06:05'
p1633
V5(8+7+6+5+4+3+2+1)3(16+7+6+5+4+3+2+1)/9/8
p1634
tp1635
a(S'0:06:34'
p1636
V((8+7+6+5+4+3+2+1)/8)^5
p1637
tp1638
a(S'0:07:17'
p1639
V(((8+7+6+5+4+3+2+1)/8)^5)(((16+7+6+5+4+3+2+1)/9)^3)
p1640
tp1641
a(S'0:07:51'
p1642
V5(8+7+6+5+4+3+2+1)/8
p1643
tp1644
assVtjke
p1645
(dp1646
S'part3_correct_attempt'
p1647
(lp1648
S'0:01:09'
p1649
aV[1*1/7+2*1/7+3*1/7+4*1/7+5*1/7+6*1/7+7*1/7]*4+[7*2/8+6*1/8+5*1/8+4*1/8+3*1/8+2*1/8+1*1/8]*2
p1650
asS'part2_correct_attempt'
p1651
(lp1652
S'0:00:00'
p1653
aV7*2/8+6*1/8+5*1/8+4*1/8+3*1/8+2*1/8+1*1/8
p1654
asS'part1_correct_attempt'
p1655
(lp1656
S'0:00:00'
p1657
aV1*1/7+2*1/7+3*1/7+4*1/7+5*1/7+6*1/7+7*1/7
p1658
asg9
V2015-10-30 22:57:35
p1659
sS'part3_incorrect_attempt'
p1660
(lp1661
(S'0:00:00'
p1662
V[1*1/7+2*1/7+3*1/7+4*1/7+5*1/7+6*1/7+7*1/7]^4+[7*2/8+6*1/8+5*1/8+4*1/8+3*1/8+2*1/8+1*1/8]^2
p1663
tp1664
asssV2
p1665
(dp1666
Vgthorn
p1667
(dp1668
S'part2_correct_attempt'
p1669
(lp1670
S'0:21:52'
p1671
aV1/11 + 2/11 + 3/11 + 4/11 + 5/11 + 6/11 + 7/11 + 8/11 + 9/11 + 20/11
p1672
asg9
V2015-10-26 22:32:47
p1673
sS'part2_incorrect_attempt'
p1674
(lp1675
(S'0:00:33'
p1676
V1/10 + 2/10 + 3/10 + 4/10  + 5/10 + 6/10 + 7/10 + 8/10 + 9/10 + 20/10
p1677
tp1678
a(S'0:19:05'
p1679
V1/9 + 2/9 + 3/9 + 4/9 + 5/9 + 6/9 + 7/9 + 8/9 + 9/9 + 20/9
p1680
tp1681
assVv4zhang
p1682
(dp1683
S'part2_correct_attempt'
p1684
(lp1685
S'0:02:01'
p1686
aV[(1+2+3+4+5+6+7+8)*(1/10)]+(9*(1/5))
p1687
asg9
V2015-10-30 08:40:53
p1688
sS'part2_incorrect_attempt'
p1689
(lp1690
(S'-1 day, 23:54:40'
p1691
V1/9+2/9
p1692
tp1693
a(S'0:00:54'
p1694
V4+(9/5)
p1695
tp1696
assVkvass
p1697
(dp1698
S'part2_correct_attempt'
p1699
(lp1700
S'1:49:18'
p1701
ag772
asg9
g777
sS'part2_incorrect_attempt'
p1702
(lp1703
(S'0:00:00'
p1704
V7/2+3
p1705
tp1706
a(S'0:07:14'
p1707
V30/12+2
p1708
tp1709
a(S'0:09:12'
p1710
V5/2+6/3
p1711
tp1712
a(S'1:48:25'
p1713
V6+(3/7)
p1714
tp1715
assVkbielawi
p1716
(dp1717
S'part2_correct_attempt'
p1718
(lp1719
S'1 day, 3:17:00'
p1720
ag1298
asg9
g1303
sS'part2_incorrect_attempt'
p1721
(lp1722
(S'0:00:41'
p1723
V(1+2+3+4+5+6+7+8+18)/9
p1724
tp1725
assVsrl006
p1726
(dp1727
S'part2_correct_attempt'
p1728
(lp1729
S'0:10:06'
p1730
aV5.909090909
p1731
asg9
V2015-10-30 00:11:56
p1732
sS'part2_incorrect_attempt'
p1733
(lp1734
(S'0:00:17'
p1735
V6.5
p1736
tp1737
a(S'0:00:26'
p1738
V15.5
p1739
tp1740
a(S'0:02:50'
p1741
V7.5
p1742
tp1743
a(S'0:02:54'
p1744
V8.5
p1745
tp1746
a(S'0:02:59'
p1747
V9.5
p1748
tp1749
a(S'0:06:32'
p1750
V5.99
p1751
tp1752
a(S'0:08:39'
p1753
V5.996
p1754
tp1755
a(S'0:09:54'
p1756
V5.9
p1757
tp1758
assVjguanzho
p1759
(dp1760
S'part2_correct_attempt'
p1761
(lp1762
S'0:00:29'
p1763
aV(1/10)*(1+2+3+4+5+6+7+8+9+9)
p1764
asg9
V2015-10-23 03:31:06
p1765
sS'part2_incorrect_attempt'
p1766
(lp1767
(S'-1 day, 23:52:30'
p1768
V1*(1/10)
p1769
tp1770
a(S'-1 day, 23:53:37'
p1771
V10/9
p1772
tp1773
a(S'0:00:00'
p1774
V(1/9)*(1+2+3+4+5+6+7+8)+9*(2/9)
p1775
tp1776
assVjjm019
p1777
(dp1778
S'part2_correct_attempt'
p1779
(lp1780
S'11:00:35'
p1781
aV[(2*2*8) + (7*8)]/[2*9]
p1782
asg9
V2015-10-30 07:57:45
p1783
sS'part2_incorrect_attempt'
p1784
(lp1785
(S'-1 day, 23:42:41'
p1786
V[(2*2*7) + (6*7)]/[2*8]
p1787
tp1788
a(S'-1 day, 23:47:31'
p1789
V[(2*2*8) + (7*8)]/[2*8]
p1790
tp1791
a(S'0:00:00'
p1792
V[(2*2*8) + (8*8)]/[2*8]
p1793
tp1794
a(S'0:00:15'
p1795
V[(2*2*8) + (8*9)]/[2*8]
p1796
tp1797
a(S'0:01:53'
p1798
V[(2*2*8) + (7*8)]/[2*8]
p1799
tp1800
a(S'0:15:56'
p1801
V[(2*2*8) + (6*7)]/[2*8]
p1802
tp1803
a(S'0:16:05'
p1804
V[(2*2*8) + (8*9)]/[2*8]
p1805
tp1806
a(S'0:17:08'
p1807
V[(2*8) + (7*8)]/[2*8]
p1808
tp1809
a(S'0:17:18'
p1810
V[(2*2*8) + (7*8)]/[2*8]
p1811
tp1812
assVmhale
p1813
(dp1814
S'part2_correct_attempt'
p1815
(lp1816
S'0:02:03'
p1817
aV1/7 + 2/7 + 3/7 + 4/7 + 5/7 + 6/3.5
p1818
asg9
V2015-10-28 22:56:38
p1819
sS'part2_incorrect_attempt'
p1820
(lp1821
(S'0:00:26'
p1822
V2.5 + 2
p1823
tp1824
a(S'0:01:14'
p1825
V1/6 + 2/6 + 3/6 + 4/6 + 5/6 + 2
p1826
tp1827
assVctgraves
p1828
(dp1829
S'part2_correct_attempt'
p1830
(lp1831
S'0:01:29'
p1832
aV(1+2+3+4+5)*1/7+6*2/7
p1833
asg9
V2015-10-27 03:37:52
p1834
sS'part2_incorrect_attempt'
p1835
(lp1836
(S'0:00:27'
p1837
V27/2
p1838
tp1839
a(S'0:00:34'
p1840
V27/6
p1841
tp1842
assVdkurli
p1843
(dp1844
S'part2_correct_attempt'
p1845
(lp1846
S'0:08:33'
p1847
aV2/11*10+45/11
p1848
asg9
V2015-10-29 21:58:49
p1849
sS'part2_incorrect_attempt'
p1850
(lp1851
(S'0:01:28'
p1852
V1/5*10+4/5*(45)
p1853
tp1854
a(S'0:01:50'
p1855
V1/5*10+4/5*(45/9)
p1856
tp1857
a(S'0:02:08'
p1858
V1/5*10+4/5*(45/10)
p1859
tp1860
a(S'0:04:39'
p1861
V1/5+(4/35*45)
p1862
tp1863
a(S'0:04:49'
p1864
V10*1/5+(4/35*45)
p1865
tp1866
assVnhn018
p1867
(dp1868
S'part2_correct_attempt'
p1869
(lp1870
S'1:09:47'
p1871
ag960
asg9
g965
sS'part2_incorrect_attempt'
p1872
(lp1873
(S'0:00:00'
p1874
V6.125
p1875
tp1876
a(S'0:00:58'
p1877
V49/8
p1878
tp1879
a(S'0:51:38'
p1880
V49/7
p1881
tp1882
a(S'0:52:50'
p1883
V49/8
p1884
tp1885
assVj5phung
p1886
(dp1887
S'part2_correct_attempt'
p1888
(lp1889
S'0:15:35'
p1890
aV1/9 + 2/9 + 3/9 + 4/9 + 5/9 + 6/9 + 7/9 + 16/9
p1891
asg9
V2015-10-27 15:18:59
p1892
sS'part2_incorrect_attempt'
p1893
(lp1894
(S'-2 days, 10:19:45'
p1895
V1/9
p1896
tp1897
a(S'0:00:00'
p1898
V1/8 + 2/8 + 3/8 + 4/8 + 5/8 + 6/8 + 7/8 + 16/8
p1899
tp1900
a(S'0:10:24'
p1901
V1/8 + 2/8
p1902
tp1903
assVjyc018
p1904
(dp1905
S'part2_correct_attempt'
p1906
(lp1907
S'0:09:33'
p1908
aV2/10*9+36/10
p1909
asg9
V2015-10-28 00:44:32
p1910
sS'part2_incorrect_attempt'
p1911
(lp1912
(S'0:01:29'
p1913
V4.5+0.5*(4)
p1914
tp1915
a(S'0:02:29'
p1916
V4.5+0.5*(4/9)
p1917
tp1918
a(S'0:03:40'
p1919
V4.5+0.5*(40/9)
p1920
tp1921
a(S'0:04:12'
p1922
V4.5+0.5*(36/9)
p1923
tp1924
assVrlhagen
p1925
(dp1926
S'part2_correct_attempt'
p1927
(lp1928
S'0:06:33'
p1929
aV(1/8)*1+(1/8)*2+(1/8)*3+(1/8)*4+(1/8)*5+(1/8)*6+(1/4)*7
p1930
asg9
V2015-10-25 17:48:54
p1931
sS'part2_incorrect_attempt'
p1932
(lp1933
(S'-1 day, 23:58:42'
p1934
V9.5
p1935
tp1936
assVppanourg
p1937
(dp1938
S'part2_correct_attempt'
p1939
(lp1940
S'0:04:42'
p1941
aV(1/7)(1+2+3+4+5) + 6*(2/7)
p1942
asg9
V2015-10-30 20:40:32
p1943
sS'part2_incorrect_attempt'
p1944
(lp1945
(S'0:00:16'
p1946
V3.5
p1947
tp1948
assVssamudra
p1949
(dp1950
S'part2_correct_attempt'
p1951
(lp1952
S'0:01:18'
p1953
aV8(2/9) + 7(1/9) + 6(1/9)+ 5(1/9) + 4(1/9) + 3(1/9)+ 2(1/9) + 1/9
p1954
asg9
V2015-10-30 21:39:15
p1955
sS'part2_incorrect_attempt'
p1956
(lp1957
(S'-1 day, 23:56:34'
p1958
V2/9
p1959
tp1960
assVmpanelo
p1961
(dp1962
S'part2_correct_attempt'
p1963
(lp1964
S'4:36:07'
p1965
aV44/9
p1966
asg9
V2015-10-28 19:03:53
p1967
sS'part2_incorrect_attempt'
p1968
(lp1969
(S'-1 day, 23:59:36'
p1970
V5.5
p1971
tp1972
assVtcn013
p1973
(dp1974
S'part2_correct_attempt'
p1975
(lp1976
S'0:03:19'
p1977
aV(1+2+3+4+5+6+7+16)/9
p1978
asg9
V2015-10-27 00:23:48
p1979
sS'part2_incorrect_attempt'
p1980
(lp1981
(S'0:00:22'
p1982
V(1+2+3+4+5+6+7+16)/8
p1983
tp1984
a(S'0:01:32'
p1985
V(1+2+3+4+5+6+7+16)/7
p1986
tp1987
assVtcuddy
p1988
(dp1989
S'part2_correct_attempt'
p1990
(lp1991
S'0:31:10'
p1992
aV(1/10)(36)+(2/10)9
p1993
asg9
V2015-10-23 23:57:16
p1994
sS'part2_incorrect_attempt'
p1995
(lp1996
(S'0:00:00'
p1997
V(4/5)(8*9/2)(1/5)(9)
p1998
tp1999
a(S'0:30:03'
p2000
V(8/10)(8*9/2)(2/10)(9)
p2001
tp2002
a(S'0:30:38'
p2003
V(8/10)(36)
p2004
tp2005
assVdjk006
p2006
(dp2007
S'part2_correct_attempt'
p2008
(lp2009
S'0:03:11'
p2010
aV(18+8+7+6+5+4+3+2+1)/10
p2011
asg9
V2015-10-27 02:42:45
p2012
sS'part2_incorrect_attempt'
p2013
(lp2014
(S'0:00:51'
p2015
V(18+8+7+6+5+4+3+2+1)/2
p2016
tp2017
a(S'0:01:01'
p2018
V(18+8+7+6+5+4+3+2+1)/9
p2019
tp2020
assVdando
p2021
(dp2022
S'part2_correct_attempt'
p2023
(lp2024
S'0:18:21'
p2025
aV1/11 + 2/11 + 3/11 + 4 /11 + 5/11 + 6/11 + 7/11 + 8/11 + 9/11 + 20/11
p2026
asg9
V2015-10-29 00:45:03
p2027
sS'part2_incorrect_attempt'
p2028
(lp2029
(S'0:00:00'
p2030
V120/11
p2031
tp2032
assVsayao
p2033
(dp2034
S'part2_correct_attempt'
p2035
(lp2036
S'0:09:03'
p2037
aV(1+2+3+4+5+6+7+8)/10 + 9/5
p2038
asg9
V2015-10-28 22:36:02
p2039
sS'part2_incorrect_attempt'
p2040
(lp2041
(S'0:00:11'
p2042
V7.5
p2043
tp2044
assVanvan
p2045
(dp2046
S'part2_correct_attempt'
p2047
(lp2048
S'7:55:46'
p2049
aV1/10(1+2+3+4+5+6+7+8) + (1/5)(9)
p2050
asg9
V2015-10-30 10:44:21
p2051
sS'part2_incorrect_attempt'
p2052
(lp2053
(S'5:15:41'
p2054
V6.75
p2055
tp2056
assVacvuong
p2057
(dp2058
S'part2_correct_attempt'
p2059
(lp2060
S'0:01:12'
p2061
aV35/8
p2062
asg9
V2015-10-26 23:30:12
p2063
sS'part2_incorrect_attempt'
p2064
(lp2065
(S'0:00:00'
p2066
V28/8
p2067
tp2068
assVflhernan
p2069
(dp2070
S'part2_correct_attempt'
p2071
(lp2072
S'0:04:55'
p2073
aV3.85714286
p2074
asg9
V2015-10-26 04:31:48
p2075
sS'part2_incorrect_attempt'
p2076
(lp2077
(S'0:00:20'
p2078
V4.5
p2079
tp2080
assVstarinia
p2081
(dp2082
S'part2_correct_attempt'
p2083
(lp2084
S'0:04:54'
p2085
ag1482
asg9
g1487
sS'part2_incorrect_attempt'
p2086
(lp2087
(S'0:00:00'
p2088
V27/6
p2089
tp2090
assVtak068
p2091
(dp2092
S'part2_correct_attempt'
p2093
(lp2094
S'0:00:36'
p2095
aV2*9/(9+1)+(9*(9-1))/(2*(9+1))
p2096
asg9
V2015-10-29 20:06:04
p2097
sS'part2_incorrect_attempt'
p2098
(lp2099
(S'0:00:16'
p2100
V9*(9+1)/(2*9)
p2101
tp2102
assVsmall
p2103
(dp2104
S'part2_correct_attempt'
p2105
(lp2106
S'0:04:57'
p2107
aV(1/11)(90/2) + 2/11(10)
p2108
asg9
V2015-10-30 23:02:37
p2109
sS'part2_incorrect_attempt'
p2110
(lp2111
(S'0:00:49'
p2112
V(1/20)(9)(10) + 2
p2113
tp2114
a(S'0:02:50'
p2115
V9/2 + 2
p2116
tp2117
assVggaddi
p2118
(dp2119
S'part2_correct_attempt'
p2120
(lp2121
S'0:35:11'
p2122
aV(1+2+3+4+5+6+7+8+9)/11+10*2/11
p2123
asg9
V2015-10-27 17:00:21
p2124
sS'part2_incorrect_attempt'
p2125
(lp2126
(S'0:00:00'
p2127
V(1+2+3+4+5+6+7+8+9)/[(1-1/5)/9] + 10*2/10
p2128
tp2129
assVctroncos
p2130
(dp2131
S'part2_correct_attempt'
p2132
(lp2133
S'0:01:40'
p2134
ag727
asg9
g732
sS'part2_incorrect_attempt'
p2135
(lp2136
(S'0:00:50'
p2137
V(9*(9-1))/(2*(9+1))
p2138
tp2139
a(S'0:00:59'
p2140
V(9*(9-0.6))/(2*(9+1))
p2141
tp2142
assVb3hwang
p2143
(dp2144
S'part2_correct_attempt'
p2145
(lp2146
S'0:02:06'
p2147
aV(1*1/11) +(10*2/11) +(9*1/11) +(8*1/11) +(7*1/11) +(6*1/11) +(5*1/11) +(4*1/11) +(3*1/11) +(2*1/11)
p2148
asg9
V2015-10-26 04:31:18
p2149
sS'part2_incorrect_attempt'
p2150
(lp2151
(S'0:01:43'
p2152
V(1*1/11) +(10*2/11) +(9*1/1) +(8*1/11) +(7*1/11) +(6*1/11) +(5*1/11) +(4*1/11) +(3*1/11) +(2*1/11)
p2153
tp2154
assVjag028
p2155
(dp2156
S'part2_correct_attempt'
p2157
(lp2158
S'23:06:04'
p2159
ag707
asg9
g712
sS'part2_incorrect_attempt'
p2160
(lp2161
(S'20:01:23'
p2162
V8(1/10)+(2/10)
p2163
tp2164
a(S'20:01:48'
p2165
V8(1/9)+(2/9)
p2166
tp2167
a(S'20:01:58'
p2168
V8(1/10)+(2/9)
p2169
tp2170
a(S'20:02:05'
p2171
V8(1/10)+(2/10)
p2172
tp2173
a(S'22:59:45'
p2174
V8*(1/10)+(1/5)
p2175
tp2176
a(S'22:59:57'
p2177
V8*(1/5)+(1/9)
p2178
tp2179
assVasetters
p2180
(dp2181
S'part2_correct_attempt'
p2182
(lp2183
S'0:04:10'
p2184
aV(1/9) *((7*8)/2) + (2/9)*8
p2185
asg9
V2015-10-27 05:28:42
p2186
sS'part2_incorrect_attempt'
p2187
(lp2188
(S'-1 day, 23:55:59'
p2189
V5.5
p2190
tp2191
a(S'0:02:45'
p2192
V(1/8) *((7*8)/2) + 2
p2193
tp2194
assVc1sorian
p2195
(dp2196
S'part2_correct_attempt'
p2197
(lp2198
S'0:02:43'
p2199
aV((1/8)(1+2+3+4+5+6)+(.25*7))
p2200
asg9
V2015-10-28 21:41:37
p2201
sS'part2_incorrect_attempt'
p2202
(lp2203
(S'0:00:45'
p2204
V(1+2+3+4+5+6+14)/7
p2205
tp2206
assVatorr
p2207
(dp2208
S'part2_correct_attempt'
p2209
(lp2210
S'0:05:16'
p2211
ag831
asg9
g835
sS'part2_incorrect_attempt'
p2212
(lp2213
(S'0:00:30'
p2214
V(1+2+3+4+5+6+7)*(1/8) + 1
p2215
tp2216
a(S'0:00:44'
p2217
V(1+2+3+4+5+6+7)*(1/8) + 2
p2218
tp2219
a(S'0:01:08'
p2220
V(1+2+3+4+5+6+7)*(1/8) + 8*(1/4)
p2221
tp2222
a(S'0:01:53'
p2223
V((1+2+3+4+5+6+7) * (1/8)) + (8 * ((1/4)*2))
p2224
tp2225
a(S'0:02:04'
p2226
V((1+2+3+4+5+6+7) * (1/8)) + (8 * ((1/8)*2))
p2227
tp2228
a(S'0:02:32'
p2229
V(1+2+3+4+5+6+7)*(1/8)
p2230
tp2231
a(S'0:02:41'
p2232
V(1+2+3+4+5+6+7+8)*(1/8)
p2233
tp2234
a(S'0:03:46'
p2235
V(1/8)+(2/8)+(3/8)+(4/8)+(5/8)+(6/8)+(7/8)+(16/8)
p2236
tp2237
assVasp025
p2238
(dp2239
S'part2_correct_attempt'
p2240
(lp2241
S'0:03:46'
p2242
aV35/8
p2243
asg9
V2015-10-30 03:34:38
p2244
sS'part2_incorrect_attempt'
p2245
(lp2246
(S'0:02:16'
p2247
V6.125
p2248
tp2249
assVkrau
p2250
(dp2251
S'part2_correct_attempt'
p2252
(lp2253
S'0:08:39'
p2254
ag896
asg9
g900
sS'part2_incorrect_attempt'
p2255
(lp2256
(S'0:01:28'
p2257
V6*2/6+5/6+4/6+3/6+2/6+1/6
p2258
tp2259
a(S'0:03:27'
p2260
V6*2/6+5*2/15+4*2/15+3*2/15+2*2/15+1*2/15
p2261
tp2262
assVmroknich
p2263
(dp2264
S'part2_correct_attempt'
p2265
(lp2266
S'1:50:19'
p2267
aV65/11
p2268
asg9
V2015-10-26 03:19:46
p2269
sS'part2_incorrect_attempt'
p2270
(lp2271
(S'0:02:10'
p2272
V1/10+2/10+3/10+4/10+5/10+6/10+7/10+8/10+9/10+2
p2273
tp2274
a(S'0:13:57'
p2275
V1/3+2/3+4/3+5/3+6/3+7/3+8/3+9/3+20/3
p2276
tp2277
a(S'0:23:49'
p2278
V1/10+2/10+3/10+4/10+5/10+6/10+7/10+8/10+9/10+2
p2279
tp2280
a(S'0:59:01'
p2281
V7.2
p2282
tp2283
assVpsable
p2284
(dp2285
S'part2_correct_attempt'
p2286
(lp2287
S'0:15:51'
p2288
aV65/11
p2289
asg9
V2015-10-30 05:58:12
p2290
sS'part2_incorrect_attempt'
p2291
(lp2292
(S'0:05:45'
p2293
V5.2
p2294
tp2295
a(S'0:05:49'
p2296
V5.3
p2297
tp2298
a(S'0:05:54'
p2299
V5.25
p2300
tp2301
a(S'0:07:58'
p2302
V5.85
p2303
tp2304
a(S'0:08:04'
p2305
V5.86
p2306
tp2307
a(S'0:08:57'
p2308
V5.92
p2309
tp2310
a(S'0:09:31'
p2311
V5.9
p2312
tp2313
assVtpmach
p2314
(dp2315
S'part2_correct_attempt'
p2316
(lp2317
S'0:07:56'
p2318
aV1/7(1+2+3+4+5)+6*2/7
p2319
asg9
V2015-10-28 06:18:03
p2320
sS'part2_incorrect_attempt'
p2321
(lp2322
(S'0:01:01'
p2323
V1*1/6+2*1/6+3*1/6+4*1/6+5*1/6+6*2/6
p2324
tp2325
a(S'0:03:22'
p2326
V1*1/15+2*1/15+3*1/15+4*1/15+5*1/15+6*2/6
p2327
tp2328
a(S'0:07:23'
p2329
V1/3(1+2+3+4+5)+6*2/3
p2330
tp2331
assVhak014
p2332
(dp2333
S'part2_correct_attempt'
p2334
(lp2335
S'0:00:47'
p2336
aV(1+2+3+4+5+6+7+8+9+20)/11
p2337
asg9
V2015-10-27 18:11:54
p2338
sS'part2_incorrect_attempt'
p2339
(lp2340
(S'0:00:24'
p2341
V(1+2+3+4+5+6+7+8+9+20)/10
p2342
tp2343
assVgalu
p2344
(dp2345
g9
g697
sS'part2_incorrect_attempt'
p2346
(lp2347
(S'-1 day, 23:29:29'
p2348
V2/15
p2349
tp2350
a(S'-1 day, 23:59:02'
p2351
V1/8
p2352
tp2353
a(S'0:00:00'
p2354
V44/8
p2355
tp2356
assVdwzhang
p2357
(dp2358
S'part2_correct_attempt'
p2359
(lp2360
S'0:01:41'
p2361
ag1193
asg9
g1197
sS'part2_incorrect_attempt'
p2362
(lp2363
(S'0:00:05'
p2364
V1/6 + 2/6 + 3/6 + 4/6 + 5/6 + 12/6
p2365
tp2366
assVjhw015
p2367
(dp2368
S'part2_correct_attempt'
p2369
(lp2370
S'0:05:09'
p2371
ag1278
asg9
g1283
sS'part2_incorrect_attempt'
p2372
(lp2373
(S'0:00:31'
p2374
V54/9
p2375
tp2376
a(S'0:05:01'
p2377
V54/8
p2378
tp2379
assVakalathi
p2380
(dp2381
S'part2_correct_attempt'
p2382
(lp2383
S'0:13:28'
p2384
aV4.375
p2385
asg9
V2015-10-29 06:45:09
p2386
sS'part2_incorrect_attempt'
p2387
(lp2388
(S'0:01:47'
p2389
V4.5
p2390
tp2391
a(S'0:09:50'
p2392
V6.125
p2393
tp2394
assVjel075
p2395
(dp2396
S'part2_correct_attempt'
p2397
(lp2398
S'0:30:17'
p2399
aV10/11+10/11+1/11+2/11+3/11+4/11+5/11+6/11+7/11+8/11+9/11
p2400
asg9
V2015-10-30 06:31:57
p2401
sS'part2_incorrect_attempt'
p2402
(lp2403
(S'-1 day, 23:55:46'
p2404
V2/10*10+36/10
p2405
tp2406
a(S'0:02:40'
p2407
V2/10*10+36/10
p2408
tp2409
a(S'0:02:52'
p2410
V5.9
p2411
tp2412
a(S'0:03:01'
p2413
V6.1
p2414
tp2415
a(S'0:03:08'
p2416
V5.8
p2417
tp2418
a(S'0:03:11'
p2419
V5.7
p2420
tp2421
a(S'0:16:33'
p2422
V6.5
p2423
tp2424
a(S'0:25:38'
p2425
V90/22+20/4
p2426
tp2427
assVhmnaing
p2428
(dp2429
S'part2_correct_attempt'
p2430
(lp2431
S'0:10:30'
p2432
ag1380
asg9
g1384
sS'part2_incorrect_attempt'
p2433
(lp2434
(S'0:10:22'
p2435
V28+16/9
p2436
tp2437
assVedescobe
p2438
(dp2439
S'part2_correct_attempt'
p2440
(lp2441
S'0:02:37'
p2442
aV5.909
p2443
asg9
V2015-10-28 19:47:31
p2444
sS'part2_incorrect_attempt'
p2445
(lp2446
(S'0:00:00'
p2447
V5.9
p2448
tp2449
assVakg009
p2450
(dp2451
S'part2_correct_attempt'
p2452
(lp2453
S'0:49:19'
p2454
aV44/9
p2455
asg9
V2015-10-30 21:43:53
p2456
sS'part2_incorrect_attempt'
p2457
(lp2458
(S'-1 day, 23:05:13'
p2459
V1/2
p2460
tp2461
a(S'0:00:00'
p2462
V4.625
p2463
tp2464
a(S'0:00:47'
p2465
V5.5
p2466
tp2467
a(S'0:48:56'
p2468
V98/9
p2469
tp2470
assVmuy002
p2471
(dp2472
S'part2_correct_attempt'
p2473
(lp2474
S'0:33:18'
p2475
aV45/11+20/11
p2476
asg9
V2015-10-29 11:16:48
p2477
sS'part2_incorrect_attempt'
p2478
(lp2479
(S'0:00:52'
p2480
V65/10
p2481
tp2482
a(S'0:04:14'
p2483
V55/10
p2484
tp2485
a(S'0:10:10'
p2486
V60/10
p2487
tp2488
a(S'0:10:16'
p2489
V65/10
p2490
tp2491
a(S'0:32:28'
p2492
V45/11+10/5
p2493
tp2494
assVeshung
p2495
(dp2496
S'part2_correct_attempt'
p2497
(lp2498
S'0:03:10'
p2499
aV27/7
p2500
asg9
V2015-10-30 22:39:45
p2501
sS'part2_incorrect_attempt'
p2502
(lp2503
(S'0:00:00'
p2504
V29/7
p2505
tp2506
assVv4sharma
p2507
(dp2508
S'part2_correct_attempt'
p2509
(lp2510
S'4 days, 0:33:45'
p2511
aV((1/8)(1+2+3+4+5+6)) + ((1/4)(7))
p2512
asg9
V2015-10-25 00:52:03
p2513
sS'part2_incorrect_attempt'
p2514
(lp2515
(S'0:00:49'
p2516
V((1/7)(1+2+3+4+5+6)) + ((2/7)(7))
p2517
tp2518
a(S'4 days, 0:33:11'
p2519
V((1/8)(1+2+3+4+5+6)) + ((7/4)(7))
p2520
tp2521
assVralhadda
p2522
(dp2523
g9
V2015-10-24 02:23:35
p2524
sS'part2_incorrect_attempt'
p2525
(lp2526
(S'0:43:33'
p2527
V5.11
p2528
tp2529
a(S'0:43:43'
p2530
V5.111
p2531
tp2532
a(S'1:09:53'
p2533
V5.5
p2534
tp2535
a(S'1:10:58'
p2536
V5.25
p2537
tp2538
a(S'1:20:38'
p2539
V8.1
p2540
tp2541
a(S'1:22:42'
p2542
V10.35
p2543
tp2544
a(S'1:27:52'
p2545
V8.1
p2546
tp2547
assVdcastlem
p2548
(dp2549
S'part2_correct_attempt'
p2550
(lp2551
S'0:00:00'
p2552
ag1091
asg9
g1095
sS'part2_incorrect_attempt'
p2553
(lp2554
(S'-2 days, 23:19:47'
p2555
V1/4
p2556
tp2557
assVhsc052
p2558
(dp2559
S'part2_correct_attempt'
p2560
(lp2561
S'0:06:50'
p2562
ag1554
asg9
g1559
sS'part2_incorrect_attempt'
p2563
(lp2564
(S'0:00:00'
p2565
V(36/9)+(9/10)
p2566
tp2567
assVxil109
p2568
(dp2569
S'part2_correct_attempt'
p2570
(lp2571
S'0:02:46'
p2572
aV3.86
p2573
asg9
V2015-10-26 20:29:35
p2574
sS'part2_incorrect_attempt'
p2575
(lp2576
(S'0:00:52'
p2577
V4.5
p2578
tp2579
a(S'0:02:18'
p2580
V5.14
p2581
tp2582
assVv3doan
p2583
(dp2584
S'part2_correct_attempt'
p2585
(lp2586
S'0:01:16'
p2587
aV7 / 4 + 42 / 2 / 8
p2588
asg9
V2015-10-27 02:02:00
p2589
sS'part2_incorrect_attempt'
p2590
(lp2591
(S'0:00:31'
p2592
V56 / 7
p2593
tp2594
assVyil035
p2595
(dp2596
S'part2_correct_attempt'
p2597
(lp2598
S'0:06:54'
p2599
aV5.4
p2600
asg9
V2015-10-27 22:23:27
p2601
sS'part2_incorrect_attempt'
p2602
(lp2603
(S'0:02:50'
p2604
V5.5
p2605
tp2606
assVk3tan
p2607
(dp2608
S'part2_correct_attempt'
p2609
(lp2610
S'4:24:15'
p2611
aV65/11
p2612
asg9
V2015-10-30 01:42:09
p2613
sS'part2_incorrect_attempt'
p2614
(lp2615
(S'4:23:40'
p2616
V56/11
p2617
tp2618
assVh4tu
p2619
(dp2620
S'part2_correct_attempt'
p2621
(lp2622
S'0:00:47'
p2623
aV44/9
p2624
asg9
V2015-10-28 01:55:23
p2625
sS'part2_incorrect_attempt'
p2626
(lp2627
(S'0:00:17'
p2628
V36/9
p2629
tp2630
a(S'0:00:35'
p2631
V44/8
p2632
tp2633
assVlywong
p2634
(dp2635
S'part2_correct_attempt'
p2636
(lp2637
S'0:01:54'
p2638
ag753
asg9
g757
sS'part2_incorrect_attempt'
p2639
(lp2640
(S'0:00:15'
p2641
V6.5
p2642
tp2643
a(S'0:01:14'
p2644
V5.9
p2645
tp2646
assVhkhodada
p2647
(dp2648
S'part2_correct_attempt'
p2649
(lp2650
S'0:00:00'
p2651
aV44/9
p2652
asg9
V2015-10-28 00:46:44
p2653
sS'part2_incorrect_attempt'
p2654
(lp2655
(S'-5 days, 18:32:56'
p2656
V1/9
p2657
tp2658
a(S'-1 day, 21:18:48'
p2659
V1/8
p2660
tp2661
assVnisharma
p2662
(dp2663
S'part2_correct_attempt'
p2664
(lp2665
S'1:09:36'
p2666
aV((1/11)(1+2+3+4+5+6+7+8+9)) + ((2/11)(10))
p2667
asg9
V2015-10-30 16:25:46
p2668
sS'part2_incorrect_attempt'
p2669
(lp2670
(S'0:02:11'
p2671
V((1/8)(1+2+3+4+5+6+7+8+9+10)) + ((1/4)(10))
p2672
tp2673
a(S'0:02:22'
p2674
V((1/8)(1+2+3+4+5+6+7+8+9)) + ((1/4)(10))
p2675
tp2676
a(S'0:03:08'
p2677
V((1/10)(1+2+3+4+5+6+7+8+9)) + ((1/4)(10))
p2678
tp2679
a(S'0:05:04'
p2680
V((1/11)(1+2+3+4+5+6+7+8+9)) + ((1/4)(10))
p2681
tp2682
a(S'1:06:49'
p2683
V((1/11)(1+2+3+4+5+6+7+8+9+10)) + ((2/11)(10))
p2684
tp2685
assVachava
p2686
(dp2687
S'part2_correct_attempt'
p2688
(lp2689
S'1:07:19'
p2690
aV (1+2+3+4+5+6+7+[2]8) / 9
p2691
asg9
V2015-10-28 08:00:13
p2692
sS'part2_incorrect_attempt'
p2693
(lp2694
(S'0:01:00'
p2695
V6.125
p2696
tp2697
a(S'0:26:48'
p2698
V(7*8)/(2*9) + (16/4)
p2699
tp2700
a(S'0:27:28'
p2701
V(7*8)/(2*7) + (16/4)
p2702
tp2703
a(S'1:06:43'
p2704
V35/8
p2705
tp2706
a(S'1:06:49'
p2707
V35/9
p2708
tp2709
assVthk002
p2710
(dp2711
S'part2_correct_attempt'
p2712
(lp2713
S'0:05:45'
p2714
aV35/8
p2715
asg9
V2015-10-28 04:13:07
p2716
sS'part2_incorrect_attempt'
p2717
(lp2718
(S'0:03:22'
p2719
V6.125
p2720
tp2721
assVawollner
p2722
(dp2723
S'part2_correct_attempt'
p2724
(lp2725
S'0:02:19'
p2726
aV1/11(1+2+3+4+5+6+7+8+9) +2/11(10)
p2727
asg9
V2015-10-27 03:27:11
p2728
sS'part2_incorrect_attempt'
p2729
(lp2730
(S'0:01:08'
p2731
V.1(1+2+3+4+5+6+7+8+9) +2
p2732
tp2733
assVdcrume
p2734
(dp2735
S'part2_correct_attempt'
p2736
(lp2737
S'1 day, 21:09:27'
p2738
aV(5*6/2)*(1/7) + 6*(2/7)
p2739
asg9
V2015-10-28 19:54:57
p2740
sS'part2_incorrect_attempt'
p2741
(lp2742
(S'0:01:36'
p2743
V1/6 + 2/6 + 3/6 +4/6 + 5/6 + 12/6
p2744
tp2745
a(S'0:02:30'
p2746
V1/6 + 2/6 + 3/6 +4/6 + 5/6 + 6/12
p2747
tp2748
a(S'0:02:55'
p2749
V1/6 + 2/6 + 3/6 +4/6 + 5/6 + 6/3
p2750
tp2751
assVt2li
p2752
(dp2753
S'part2_correct_attempt'
p2754
(lp2755
S'0:02:59'
p2756
aV12/7 + 30/14
p2757
asg9
V2015-10-30 22:54:58
p2758
sS'part2_incorrect_attempt'
p2759
(lp2760
(S'0:02:02'
p2761
V((1+2+3+4+5)/6) + 2
p2762
tp2763
a(S'0:02:20'
p2764
V((1+2+3+4+5)/5) + 2
p2765
tp2766
assVagoldsht
p2767
(dp2768
S'part2_correct_attempt'
p2769
(lp2770
S'0:01:31'
p2771
aV(1+2+3+4+5+6+14)/(7+1)
p2772
asg9
V2015-10-29 04:58:19
p2773
sS'part2_incorrect_attempt'
p2774
(lp2775
(S'0:00:29'
p2776
V(1+2+3+4+5+6+7+14)/7
p2777
tp2778
a(S'0:00:49'
p2779
V(1+2+3+4+5+6+14)/7
p2780
tp2781
assVn2patil
p2782
(dp2783
S'part2_correct_attempt'
p2784
(lp2785
S'16:30:46'
p2786
aV27/7
p2787
asg9
V2015-10-28 23:04:39
p2788
sS'part2_incorrect_attempt'
p2789
(lp2790
(S'16:28:45'
p2791
V93/7
p2792
tp2793
a(S'16:30:00'
p2794
V75/7
p2795
tp2796
assVttimmons
p2797
(dp2798
S'part2_correct_attempt'
p2799
(lp2800
S'11:39:34'
p2801
aV(1/11)*(1+2+3+4+5+6+7+8+9)+(2/11)*(10)
p2802
asg9
V2015-10-27 04:55:02
p2803
sS'part2_incorrect_attempt'
p2804
(lp2805
(S'0:00:00'
p2806
V(1/10)*(1+2+3+4+5+6+7+8+9) + 10*(2/10)
p2807
tp2808
assVjblynch
p2809
(dp2810
S'part2_correct_attempt'
p2811
(lp2812
S'0:13:15'
p2813
aV(1+2+3+4+5+6+7+8)*(1/10) + 9*(2/10)
p2814
asg9
V2015-10-28 18:34:32
p2815
sS'part2_incorrect_attempt'
p2816
(lp2817
(S'0:00:00'
p2818
V(1+2+3+4+5+6+7+8)/9+(18/9)
p2819
tp2820
a(S'0:00:49'
p2821
V(1+2+3+4+5+6+7+8)/9+(9*(2/9))
p2822
tp2823
a(S'0:04:46'
p2824
V(1+2+3+4+5+6+7+8)/9+(9*(6/9))
p2825
tp2826
a(S'0:08:26'
p2827
V(1+2+3+4+5+6+7+8)*((3/9)/8) + 9*(6/9)
p2828
tp2829
a(S'0:09:00'
p2830
V(1+2+3+4+5+6+7+8)*((7/9)/8) + 9*(2/9)
p2831
tp2832
a(S'0:09:59'
p2833
V(1+2+3+4+5+6+7+8)*(1/9) + 9*(2/9)
p2834
tp2835
assVnnh002
p2836
(dp2837
S'part2_correct_attempt'
p2838
(lp2839
S'0:29:35'
p2840
aV44/9
p2841
asg9
V2015-10-30 00:23:03
p2842
sS'part2_incorrect_attempt'
p2843
(lp2844
(S'0:03:00'
p2845
V44/8
p2846
tp2847
a(S'0:13:26'
p2848
V72/9
p2849
tp2850
a(S'0:21:17'
p2851
V22/8
p2852
tp2853
assVakhmelni
p2854
(dp2855
S'part2_correct_attempt'
p2856
(lp2857
S'0:03:40'
p2858
aV4.375
p2859
asg9
V2015-10-29 00:08:10
p2860
sS'part2_incorrect_attempt'
p2861
(lp2862
(S'0:00:06'
p2863
V5.5
p2864
tp2865
assVtol003
p2866
(dp2867
S'part2_correct_attempt'
p2868
(lp2869
S'0:05:39'
p2870
ag1238
asg9
g1243
sS'part2_incorrect_attempt'
p2871
(lp2872
(S'-1 day, 23:52:22'
p2873
V1/4
p2874
tp2875
a(S'0:00:00'
p2876
V1.75
p2877
tp2878
assVskodigal
p2879
(dp2880
S'part2_correct_attempt'
p2881
(lp2882
S'21:54:34'
p2883
aV(1/10)(1+2+3+4+5+6+7+8) + (1/5)(9)
p2884
asg9
V2015-10-28 03:37:23
p2885
sS'part2_incorrect_attempt'
p2886
(lp2887
(S'0:13:17'
p2888
V6/5
p2889
tp2890
assVq3wen
p2891
(dp2892
S'part2_correct_attempt'
p2893
(lp2894
S'0:03:52'
p2895
aV65/11
p2896
asg9
V2015-10-27 22:47:05
p2897
sS'part2_incorrect_attempt'
p2898
(lp2899
(S'0:00:00'
p2900
V6.5
p2901
tp2902
assVarvenega
p2903
(dp2904
S'part2_correct_attempt'
p2905
(lp2906
S'0:08:52'
p2907
aV1*(1/8) + 2*(1/8) + 3*(1/8) + 4*(1/8) + 5*(1/8) + 6*(1/8) + 7*(1/4)
p2908
asg9
V2015-10-29 17:13:10
p2909
sS'part2_incorrect_attempt'
p2910
(lp2911
(S'-1 day, 23:52:02'
p2912
V2*(1/7)
p2913
tp2914
a(S'0:00:24'
p2915
V1*(1/7) + 2*(1/7) + 3*(1/7) + 4*(1/7) + 5*(1/7) + 6*(1/7) + 7*(2/7)
p2916
tp2917
assVksrijong
p2918
(dp2919
S'part2_correct_attempt'
p2920
(lp2921
S'0:05:11'
p2922
aV10(2/11)+[90/2](1/11)
p2923
asg9
V2015-10-28 01:15:44
p2924
sS'part2_incorrect_attempt'
p2925
(lp2926
(S'0:02:19'
p2927
V10(2/10)+[(9)(10)/2]*(8/10)*(1/9)
p2928
tp2929
assVvolim
p2930
(dp2931
S'part2_correct_attempt'
p2932
(lp2933
S'0:00:49'
p2934
ag1528
asg9
g1533
sS'part2_incorrect_attempt'
p2935
(lp2936
(S'-3 days, 19:01:25'
p2937
V1/18
p2938
tp2939
a(S'0:00:18'
p2940
V(1+2+3+4+5+6+7+8+18)/9
p2941
tp2942
assVabjara
p2943
(dp2944
S'part2_correct_attempt'
p2945
(lp2946
S'0:20:32'
p2947
aV(1/10)+2*(1/10)+3*(1/10)+4*(1/10)+5*(1/10)+6*(1/10)+7*(1/10)+8*(1/10)+9*(1/5)
p2948
asg9
V2015-10-27 07:45:13
p2949
sS'part2_incorrect_attempt'
p2950
(lp2951
(S'-1 day, 23:57:37'
p2952
V((1/9)*8) + 2/9
p2953
tp2954
a(S'0:00:00'
p2955
V((1/9)+2*(1/9)+3*(1/9)+4*(1/9)+5*(1/9)+6*(1/9)+7*(1/9)+8*(1/9)) + 2/9
p2956
tp2957
a(S'0:00:15'
p2958
V((1/9)+2*(1/9)+3*(1/9)+4*(1/9)+5*(1/9)+6*(1/9)+7*(1/9)+8*(1/9)) + 9*(2/9)
p2959
tp2960
a(S'0:00:36'
p2961
V(1/9)+2*(1/9)+3*(1/9)+4*(1/9)+5*(1/9)+6*(1/9)+7*(1/9)+8*(1/9) + 9*(2/9)
p2962
tp2963
a(S'0:04:56'
p2964
V(1/9)+2*(1/9)+3*(1/9)+4*(1/9)+5*(1/9)+6*(1/9)+7*(1/9)+8*(1/9) + 9*((1/9)+2*(1/9)+3*(1/9)+4*(1/9)+5*(1/9)+6*(1/9)+7*(1/9)+8*(1/9))
p2965
tp2966
a(S'0:05:20'
p2967
V(1/9)+2*(1/9)+3*(1/9)+4*(1/9)+5*(1/9)+6*(1/9)+7*(1/9)+8*(1/9) + 2*((1/9)+2*(1/9)+3*(1/9)+4*(1/9)+5*(1/9)+6*(1/9)+7*(1/9)+8*(1/9))
p2968
tp2969
a(S'0:05:38'
p2970
V(1/9)+2*(1/9)+3*(1/9)+4*(1/9)+5*(1/9)+6*(1/9)+7*(1/9)+8*(1/9) + 2*((1/9)+2*(1/9)+3*(1/9)+4*(1/9)+5*(1/9)+6*(1/9)+7*(1/9)+8*(1/9)+9*(1/9))
p2971
tp2972
a(S'0:13:22'
p2973
V(1/9)+2*(1/9)+3*(1/9)+4*(1/9)+5*(1/9)+6*(1/9)+7*(1/9)+8*(1/9)+9*(2/9)
p2974
tp2975
a(S'0:13:37'
p2976
V(2/9)+2*(1/9)+3*(1/9)+4*(1/9)+5*(1/9)+6*(1/9)+7*(1/9)+8*(1/9)+9*(1/9)
p2977
tp2978
a(S'0:17:55'
p2979
V(1/9)+2*(1/9)+3*(1/9)+4*(1/9)+5*(1/9)+6*(1/9)+7*(1/9)+8*(1/9)+9*(2/9)
p2980
tp2981
assVytc012
p2982
(dp2983
S'part2_correct_attempt'
p2984
(lp2985
S'0:04:38'
p2986
ag1623
asg9
g1627
sS'part2_incorrect_attempt'
p2987
(lp2988
(S'0:01:01'
p2989
V(7+6+5+4+3+2+1)/8*8/2
p2990
tp2991
a(S'0:01:44'
p2992
V(7+6+5+4+3+2+1)/8*2
p2993
tp2994
a(S'0:01:56'
p2995
V(7+6+5+4+3+2+1)/7*2
p2996
tp2997
a(S'0:02:34'
p2998
V(7+6+5+4+3+2+1)/9*16/9
p2999
tp3000
a(S'0:02:42'
p3001
V(7+6+5+4+3+2+1)/9*(16/9)
p3002
tp3003
a(S'0:03:24'
p3004
V(7+6+5+4+3+2+1)/9*(8/9)
p3005
tp3006
a(S'0:04:26'
p3007
V(16+7+6+5+4+3+2+1)/8
p3008
tp3009
assVklala
p3010
(dp3011
S'part2_correct_attempt'
p3012
(lp3013
S'0:03:00'
p3014
aV.1 + .2 + .3 + .4 + .5 + .6 + .7 + .8 + 1.8
p3015
asg9
V2015-10-27 01:05:02
p3016
sS'part2_incorrect_attempt'
p3017
(lp3018
(S'0:01:40'
p3019
V.9 + 2*.9 + 3*.9 + 4* .9 + 5*.9 + 6*.9 + 7*.9 + 8*.9 + 1.8 * 9
p3020
tp3021
assVskarimik
p3022
(dp3023
S'part2_correct_attempt'
p3024
(lp3025
S'0:04:50'
p3026
aV35/8
p3027
asg9
V2015-10-26 00:21:31
p3028
sS'part2_incorrect_attempt'
p3029
(lp3030
(S'0:00:00'
p3031
V2+(5/2)
p3032
tp3033
assVdlgoldbe
p3034
(dp3035
S'part2_correct_attempt'
p3036
(lp3037
S'11:06:51'
p3038
aV(1/10)+(2/10)+(3/10)+(4/10)+(5/10)+(6/10)+(7/10)+(8/10)+(18/10)
p3039
asg9
V2015-10-30 06:04:54
p3040
sS'part2_incorrect_attempt'
p3041
(lp3042
(S'0:04:54'
p3043
V2/10
p3044
tp3045
assVyig015
p3046
(dp3047
S'part2_correct_attempt'
p3048
(lp3049
S'1 day, 23:45:13'
p3050
aV65/11
p3051
asg9
V2015-10-28 09:52:57
p3052
sS'part2_incorrect_attempt'
p3053
(lp3054
(S'0:03:36'
p3055
V5.9
p3056
tp3057
a(S'0:16:36'
p3058
V8.33
p3059
tp3060
a(S'0:16:51'
p3061
V25/3
p3062
tp3063
assVjfalcone
p3064
(dp3065
S'part2_correct_attempt'
p3066
(lp3067
S'0:48:11'
p3068
aV(1+2+3+4+5+6+7+8+18)/10
p3069
asg9
V2015-10-29 04:09:17
p3070
sS'part2_incorrect_attempt'
p3071
(lp3072
(S'0:00:22'
p3073
V(1+2+3+4+5+6+7+8+18)/9
p3074
tp3075
a(S'0:05:07'
p3076
V(8*9)/(2*10)
p3077
tp3078
assVvsamant
p3079
(dp3080
S'part2_correct_attempt'
p3081
(lp3082
S'0:03:16'
p3083
aV65/11
p3084
asg9
V2015-10-23 18:17:24
p3085
sS'part2_incorrect_attempt'
p3086
(lp3087
(S'0:02:22'
p3088
V13/2
p3089
tp3090
assVfichoi
p3091
(dp3092
S'part2_correct_attempt'
p3093
(lp3094
S'0:01:55'
p3095
aV35/8
p3096
asg9
V2015-10-27 22:13:01
p3097
sS'part2_incorrect_attempt'
p3098
(lp3099
(S'0:00:00'
p3100
V265/56
p3101
tp3102
assVrohan
p3103
(dp3104
S'part2_correct_attempt'
p3105
(lp3106
S'0:20:59'
p3107
aV4.375
p3108
asg9
V2015-10-30 20:36:19
p3109
sS'part2_incorrect_attempt'
p3110
(lp3111
(S'-1 day, 23:54:31'
p3112
V2/7
p3113
tp3114
a(S'0:07:18'
p3115
V4.5
p3116
tp3117
a(S'0:12:42'
p3118
V4.5
p3119
tp3120
a(S'0:15:06'
p3121
V3.5
p3122
tp3123
a(S'0:15:12'
p3124
V4.5
p3125
tp3126
a(S'0:15:18'
p3127
V5.5
p3128
tp3129
a(S'0:15:23'
p3130
V7.5
p3131
tp3132
assVany027
p3133
(dp3134
S'part2_correct_attempt'
p3135
(lp3136
S'0:14:10'
p3137
ag876
asg9
g881
sS'part2_incorrect_attempt'
p3138
(lp3139
(S'0:00:53'
p3140
V(1/10) * ( 10 + 10 + 9 + 8 + 7 + 6 + 5 +4 +3 +2 + 1 )
p3141
tp3142
a(S'0:04:09'
p3143
V( (1/5)*10) + (1/8) * (9+8+7+6+5+4+3+2+1)
p3144
tp3145
a(S'0:05:08'
p3146
V( (1/5)*10) + (1/10) * (9+8+7+6+5+4+3+2+1)
p3147
tp3148
a(S'0:05:30'
p3149
V( (1/5)*10) + (1/6) * (9+8+7+6+5+4+3+2+1)
p3150
tp3151
a(S'0:05:37'
p3152
V( (1/5)*10) + (1/7) * (9+8+7+6+5+4+3+2+1)
p3153
tp3154
a(S'0:05:59'
p3155
V( (1/5)*10) + (1/10) * (9+8+7+6+5+4+3+2+1)
p3156
tp3157
a(S'0:06:24'
p3158
V( (1/5)*10) + (2/5) * (9+8+7+6+5+4+3+2+1)
p3159
tp3160
a(S'0:06:43'
p3161
V( (1/5)*10) + (1/10) * (9+8+7+6+5+4+3+2+1)
p3162
tp3163
a(S'0:07:35'
p3164
V( (2/9)*10) + (1/9) * (9+8+7+6+5+4+3+2+1)
p3165
tp3166
a(S'0:08:56'
p3167
V((1/2)*10) + (1/2) * (9+8+7+6+5+4+3+2+1)
p3168
tp3169
a(S'0:09:05'
p3170
V((1/2)*10) + (1/5) * (9+8+7+6+5+4+3+2+1)
p3171
tp3172
a(S'0:09:13'
p3173
V((1/2)*10) + (1/4) * (9+8+7+6+5+4+3+2+1)
p3174
tp3175
a(S'0:09:30'
p3176
V((1/2)*10) + (1/18) * (9+8+7+6+5+4+3+2+1)
p3177
tp3178
assVrwthomps
p3179
(dp3180
S'part2_correct_attempt'
p3181
(lp3182
S'0:21:45'
p3183
aV(1/4 * 7) + 1/8 * (1 + 2 + 3 + 4 + 5 + 6)
p3184
asg9
V2015-10-30 19:59:07
p3185
sS'part2_incorrect_attempt'
p3186
(lp3187
(S'0:04:35'
p3188
V(2/7 * 7) + 1/7 * (1 + 2 + 3 + 4 + 5 + 6)
p3189
tp3190
assVs1powers
p3191
(dp3192
S'part2_correct_attempt'
p3193
(lp3194
S'2 days, 2:01:57'
p3195
aV7*2/8+(6+5+4+3+2+1)*1/8
p3196
asg9
V2015-10-25 21:20:27
p3197
sS'part2_incorrect_attempt'
p3198
(lp3199
(S'0:01:08'
p3200
V[7*1/4 + (6+5+4+3+2+1) * 1/8 ]/7
p3201
tp3202
a(S'0:03:11'
p3203
V[7/4 + 6/8+5/8+4/8+3/8+2/8+1/8 ]/ 7
p3204
tp3205
a(S'0:04:19'
p3206
V[7* 2/3 + (6+5+4+3+2+1)/(3*6) ]/ 7
p3207
tp3208
assVe9brown
p3209
(dp3210
S'part2_correct_attempt'
p3211
(lp3212
S'0:02:46'
p3213
aV27/7
p3214
asg9
V2015-10-27 22:41:51
p3215
sS'part2_incorrect_attempt'
p3216
(lp3217
(S'0:00:00'
p3218
V27/6
p3219
tp3220
assVvsosnovs
p3221
(dp3222
S'part2_correct_attempt'
p3223
(lp3224
S'0:04:51'
p3225
aV(1+2+3+4+5+6+7+7)/ 8
p3226
asg9
V2015-10-30 05:51:28
p3227
sS'part2_incorrect_attempt'
p3228
(lp3229
(S'0:04:20'
p3230
V(1+2+3+4+5+6+7+7) 8
p3231
tp3232
assVk5law
p3233
(dp3234
S'part2_correct_attempt'
p3235
(lp3236
S'0:00:24'
p3237
aV(1+2+3+4+5+6+7+8+9+10+10)/11
p3238
asg9
V2015-10-26 06:17:05
p3239
sS'part2_incorrect_attempt'
p3240
(lp3241
(S'0:00:00'
p3242
V(1+2+3+4+5+6+7+8+9+10+10)/10
p3243
tp3244
assVs2chaudh
p3245
(dp3246
S'part2_correct_attempt'
p3247
(lp3248
S'4:41:04'
p3249
aV1/11*(45)+2/11*(10)
p3250
asg9
V2015-10-29 00:39:40
p3251
sS'part2_incorrect_attempt'
p3252
(lp3253
(S'0:07:09'
p3254
V1/10(45)*1/5(10)
p3255
tp3256
a(S'0:07:19'
p3257
V1/10(45)
p3258
tp3259
a(S'0:07:36'
p3260
V1/5(55)
p3261
tp3262
a(S'0:08:02'
p3263
V1/10(45)*(1/5(10))
p3264
tp3265
a(S'0:08:10'
p3266
V1/10(45)+(1/5(10))
p3267
tp3268
a(S'0:25:42'
p3269
V1/10*(45)+1/5*(10)
p3270
tp3271
assVbmilton
p3272
(dp3273
S'part2_correct_attempt'
p3274
(lp3275
S'0:03:24'
p3276
aV1/7+2/7+3/7+4/7+5/7+12/7
p3277
asg9
V2015-10-25 00:55:33
p3278
sS'part2_incorrect_attempt'
p3279
(lp3280
(S'0:00:33'
p3281
V1/5+2/5+3/5+4/5+5/5+12/5
p3282
tp3283
a(S'0:01:12'
p3284
V1/6+2/6+3/6+4/6+5/6+2
p3285
tp3286
a(S'0:01:46'
p3287
V1/5+2/5+3/5+4/5+5/5+12/5
p3288
tp3289
a(S'0:03:19'
p3290
V1/7+2/7+3/7+4/7+5/7+6/7
p3291
tp3292
assVcfgutier
p3293
(dp3294
S'part2_correct_attempt'
p3295
(lp3296
S'0:00:34'
p3297
aV(1+2+3+4+5+6+6)/7
p3298
asg9
V2015-10-29 17:54:18
p3299
sS'part2_incorrect_attempt'
p3300
(lp3301
(S'0:00:25'
p3302
V(1+2+3+4+5+6+6)/6
p3303
tp3304
assVagarango
p3305
(dp3306
S'part2_correct_attempt'
p3307
(lp3308
S'0:03:15'
p3309
ag1153
asg9
g1158
sS'part2_incorrect_attempt'
p3310
(lp3311
(S'0:00:17'
p3312
V21/6
p3313
tp3314
a(S'0:02:22'
p3315
V27/6
p3316
tp3317
assVs6deng
p3318
(dp3319
S'part2_correct_attempt'
p3320
(lp3321
S'0:16:26'
p3322
ag1173
asg9
g1178
sS'part2_incorrect_attempt'
p3323
(lp3324
(S'0:06:40'
p3325
V49/8
p3326
tp3327
a(S'0:11:13'
p3328
V(42/16)+(14/4)
p3329
tp3330
assVr2fisher
p3331
(dp3332
S'part2_correct_attempt'
p3333
(lp3334
S'0:03:05'
p3335
aV(8*2 +7+6+5+4+3+2+1)/9
p3336
asg9
V2015-10-26 22:51:06
p3337
sS'part2_incorrect_attempt'
p3338
(lp3339
(S'0:01:04'
p3340
V8/2 + (7+6+5+4+3+2+1)/8
p3341
tp3342
a(S'0:01:19'
p3343
V8/2 + (7+6+5+4+3+2+1)/14
p3344
tp3345
assVmsaguiar
p3346
(dp3347
S'part2_correct_attempt'
p3348
(lp3349
S'0:09:59'
p3350
aV(1+2+3+4+5+6+7+8+9+10+10)/11
p3351
asg9
V2015-10-29 06:43:31
p3352
sS'part2_incorrect_attempt'
p3353
(lp3354
(S'0:09:44'
p3355
V(1+2+3+4+5+6+7+8+9+10+10)/10
p3356
tp3357
assVaalhaida
p3358
(dp3359
S'part2_correct_attempt'
p3360
(lp3361
S'0:19:22'
p3362
ag1258
asg9
g1263
sS'part2_incorrect_attempt'
p3363
(lp3364
(S'0:08:31'
p3365
V9/2
p3366
tp3367
a(S'0:10:44'
p3368
V17/7
p3369
tp3370
a(S'0:17:18'
p3371
V5.25
p3372
tp3373
a(S'0:18:41'
p3374
V4.5
p3375
tp3376
assVedcole
p3377
(dp3378
S'part2_correct_attempt'
p3379
(lp3380
S'4 days, 0:07:17'
p3381
aV27/7
p3382
asg9
V2015-10-26 21:21:02
p3383
sS'part2_incorrect_attempt'
p3384
(lp3385
(S'0:00:46'
p3386
V(1+1+2+3+4+5+(2*6))/6
p3387
tp3388
a(S'3 days, 1:20:38'
p3389
V(1+2+3+4+5+(2*6))/6
p3390
tp3391
a(S'3 days, 1:28:29'
p3392
V27/6
p3393
tp3394
a(S'3 days, 1:32:05'
p3395
V39/6
p3396
tp3397
a(S'3 days, 23:57:56'
p3398
V26/6
p3399
tp3400
a(S'3 days, 23:58:18'
p3401
V27/6
p3402
tp3403
assVkquong
p3404
(dp3405
S'part2_correct_attempt'
p3406
(lp3407
S'0:00:12'
p3408
aV(1 + 2 + 3 + 4 + 5 + 6 + 7 +8+9+10 + 10)/11
p3409
asg9
V2015-10-28 17:25:48
p3410
sS'part2_incorrect_attempt'
p3411
(lp3412
(S'0:00:00'
p3413
V(1 + 2 + 3 + 4 + 5 + 6 + 7 +8+9+10 + 10)/10
p3414
tp3415
assVvasharma
p3416
(dp3417
S'part2_correct_attempt'
p3418
(lp3419
S'0:12:21'
p3420
ag983
asg9
g987
sS'part2_incorrect_attempt'
p3421
(lp3422
(S'0:03:37'
p3423
V4.5
p3424
tp3425
a(S'0:06:00'
p3426
V(1+2+3+4+5+2*6)/6
p3427
tp3428
assVajvanega
p3429
(dp3430
S'part2_correct_attempt'
p3431
(lp3432
S'0:08:51'
p3433
aV(1+2+3+4+5+6+7+8+8)/9
p3434
asg9
V2015-10-23 17:00:52
p3435
sS'part2_incorrect_attempt'
p3436
(lp3437
(S'0:02:51'
p3438
V(1+2+3+4+5+6+7+8)/9
p3439
tp3440
a(S'0:08:41'
p3441
V(1+2+3+4+5+6+7+8+8)/8
p3442
tp3443
assVzhw110
p3444
(dp3445
S'part2_correct_attempt'
p3446
(lp3447
S'0:01:54'
p3448
aV(55+10)/11
p3449
asg9
V2015-10-28 03:29:16
p3450
sS'part2_incorrect_attempt'
p3451
(lp3452
(S'0:00:00'
p3453
V6.5
p3454
tp3455
assVmjethani
p3456
(dp3457
S'part2_correct_attempt'
p3458
(lp3459
S'0:07:04'
p3460
aV1/8(1+2+3+4+5+6) + 2/8(7)
p3461
asg9
V2015-10-30 16:45:52
p3462
sS'part2_incorrect_attempt'
p3463
(lp3464
(S'0:01:22'
p3465
V1/7(1+2+3+4+5+6) + 2
p3466
tp3467
a(S'0:02:24'
p3468
V1/7+2/7+3/7+4/7+5/7+6/7+2
p3469
tp3470
asssV4
p3471
(dp3472
Vphodgson
p3473
(dp3474
S'part4_incorrect_attempt'
p3475
(lp3476
(S'23:18:02'
p3477
V4.5 * 4 + 3*((1/9)(1 + 2 + 3 + 4 + 5 + 6 + 7) + (2/9)*(8))*.6
p3478
tp3479
a(S'23:18:42'
p3480
V4.5 * 4 + 3*((1/9)(1 + 2 + 3 + 4 + 5 + 6 + 7) + (2/9)*(8))/.6
p3481
tp3482
asS'part2_correct_attempt'
p3483
(lp3484
S'0:00:13'
p3485
aV(1/9)(1 + 2 + 3 + 4 + 5 + 6 + 7) + (2/9)*(8)
p3486
asS'part4_correct_attempt'
p3487
(lp3488
S'23:19:03'
p3489
aV[4.5 * 4 + 3*((1/9)(1 + 2 + 3 + 4 + 5 + 6 + 7) + (2/9)*(8))]/.6
p3490
asS'part3_correct_attempt'
p3491
(lp3492
S'0:04:24'
p3493
aV4.5 * 4 + 3*((1/9)(1 + 2 + 3 + 4 + 5 + 6 + 7) + (2/9)*(8))
p3494
asS'part1_correct_attempt'
p3495
(lp3496
S'0:00:00'
p3497
aV(1/8)(1 + 2 + 3 + 4 + 5 + 6 + 7 + 8)
p3498
asg9
V2015-10-25 22:23:11
p3499
ssVh4tu
p3500
(dp3501
S'part4_incorrect_attempt'
p3502
(lp3503
(S'0:02:25'
p3504
V4.5*5+44/9*3
p3505
tp3506
a(S'0:03:14'
p3507
V(36*5+44*3)/(40+27)
p3508
tp3509
asS'part2_correct_attempt'
p3510
(lp3511
S'0:00:47'
p3512
ag2624
asS'part4_correct_attempt'
p3513
(lp3514
S'0:04:32'
p3515
aV(4.5*5+44/9*3)/0.6
p3516
asS'part3_correct_attempt'
p3517
(lp3518
S'0:01:22'
p3519
aV4.5*5+44/9*3
p3520
asS'part1_correct_attempt'
p3521
(lp3522
S'0:00:00'
p3523
aV36/8
p3524
asg9
g2625
ssVjyc018
p3525
(dp3526
S'part4_incorrect_attempt'
p3527
(lp3528
(S'0:10:28'
p3529
V20.8
p3530
tp3531
asS'part2_correct_attempt'
p3532
(lp3533
S'0:09:33'
p3534
ag1909
asS'part4_correct_attempt'
p3535
(lp3536
S'0:13:34'
p3537
aV20.8/0.6
p3538
asS'part3_correct_attempt'
p3539
(lp3540
S'0:09:55'
p3541
aV10+10.8
p3542
asS'part1_correct_attempt'
p3543
(lp3544
S'0:00:00'
p3545
aV5
p3546
asg9
g1910
ssVlpettit
p3547
(dp3548
S'part4_incorrect_attempt'
p3549
(lp3550
(S'0:14:42'
p3551
V65*2/11
p3552
tp3553
asS'part2_correct_attempt'
p3554
(lp3555
S'0:10:15'
p3556
aV65/11
p3557
asS'part4_correct_attempt'
p3558
(lp3559
S'0:23:17'
p3560
aV((5.5*3) + ((65/11)*2))*2
p3561
asS'part3_correct_attempt'
p3562
(lp3563
S'0:11:06'
p3564
aV(5.5*3) + ((65/11)*2)
p3565
asS'part1_correct_attempt'
p3566
(lp3567
S'0:00:00'
p3568
aV11/2
p3569
asg9
V2015-10-30 22:13:07
p3570
ssVdlgoldbe
p3571
(dp3572
S'part4_incorrect_attempt'
p3573
(lp3574
(S'11:25:10'
p3575
V3.58
p3576
tp3577
a(S'11:27:13'
p3578
V5.1/10
p3579
tp3580
a(S'11:27:54'
p3581
V0.4/5.1
p3582
tp3583
asS'part2_correct_attempt'
p3584
(lp3585
S'11:06:51'
p3586
ag3039
asS'part4_correct_attempt'
p3587
(lp3588
S'12:30:05'
p3589
aV35.8/0.4
p3590
asS'part3_correct_attempt'
p3591
(lp3592
S'11:07:25'
p3593
aV25+10.8
p3594
asS'part1_correct_attempt'
p3595
(lp3596
S'0:00:00'
p3597
ag8
asg9
g3040
ssVhmnaing
p3598
(dp3599
S'part4_incorrect_attempt'
p3600
(lp3601
(S'0:12:40'
p3602
V0.6
p3603
tp3604
asS'part2_correct_attempt'
p3605
(lp3606
S'0:10:30'
p3607
ag1380
asS'part4_correct_attempt'
p3608
(lp3609
S'0:13:08'
p3610
aV(5*36/8 +2*(28+16)/9 )/0.6
p3611
asS'part3_correct_attempt'
p3612
(lp3613
S'0:11:44'
p3614
ag1376
asS'part1_correct_attempt'
p3615
(lp3616
S'0:00:00'
p3617
ag465
asg9
g1384
ssVdando
p3618
(dp3619
S'part4_incorrect_attempt'
p3620
(lp3621
(S'0:26:41'
p3622
V5.5
p3623
tp3624
a(S'0:27:16'
p3625
V65/11
p3626
tp3627
a(S'0:27:24'
p3628
V5.5
p3629
tp3630
a(S'15:03:30'
p3631
V27.5
p3632
tp3633
a(S'15:10:02'
p3634
V40.5455
p3635
tp3636
a(S'15:10:13'
p3637
V5.90909
p3638
tp3639
asS'part2_correct_attempt'
p3640
(lp3641
S'0:18:21'
p3642
ag2026
asS'part4_correct_attempt'
p3643
(lp3644
S'15:14:15'
p3645
aV5 * (11 + 5 * 65/11)
p3646
asS'part3_correct_attempt'
p3647
(lp3648
S'0:19:49'
p3649
aV11 + 5 * 65/11
p3650
asS'part1_correct_attempt'
p3651
(lp3652
S'0:00:00'
p3653
aV5.5
p3654
asg9
g2027
ssVkbielawi
p3655
(dp3656
S'part4_incorrect_attempt'
p3657
(lp3658
(S'1 day, 3:26:08'
p3659
V12.9
p3660
tp3661
asS'part2_correct_attempt'
p3662
(lp3663
S'1 day, 3:17:00'
p3664
ag1298
asS'part4_correct_attempt'
p3665
(lp3666
S'1 day, 3:26:46'
p3667
aV25.8/0.4
p3668
asS'part3_correct_attempt'
p3669
(lp3670
S'1 day, 3:21:35'
p3671
ag1294
asS'part1_correct_attempt'
p3672
(lp3673
S'0:00:00'
p3674
ag1302
asg9
g1303
ssVabasu
p3675
(dp3676
S'part4_incorrect_attempt'
p3677
(lp3678
(S'0:06:42'
p3679
V0.2
p3680
tp3681
a(S'0:11:04'
p3682
V0.6(33.125)
p3683
tp3684
a(S'0:11:51'
p3685
V0.6/33.125
p3686
tp3687
asS'part2_correct_attempt'
p3688
(lp3689
S'0:04:01'
p3690
aV4.375
p3691
asS'part4_correct_attempt'
p3692
(lp3693
S'0:11:59'
p3694
aV33.125/0.6
p3695
asS'part3_correct_attempt'
p3696
(lp3697
S'0:06:07'
p3698
aV33.125
p3699
asS'part1_correct_attempt'
p3700
(lp3701
S'0:00:00'
p3702
aV4
p3703
asg9
V2015-10-25 00:35:54
p3704
ssVewbrenna
p3705
(dp3706
S'part4_incorrect_attempt'
p3707
(lp3708
(S'0:02:42'
p3709
V(27+(7/9))
p3710
tp3711
asS'part2_correct_attempt'
p3712
(lp3713
S'0:00:00'
p3714
aV4+(8/9)
p3715
asS'part4_correct_attempt'
p3716
(lp3717
S'0:03:30'
p3718
aV(27+(7/9))*2
p3719
asS'part3_correct_attempt'
p3720
(lp3721
S'0:00:37'
p3722
aV4.5*4+4*2+(8/9)*2
p3723
asS'part1_correct_attempt'
p3724
(lp3725
S'0:00:00'
p3726
aV4.5
p3727
asg9
V2015-10-30 03:54:42
p3728
ssVd6he
p3729
(dp3730
S'part4_incorrect_attempt'
p3731
(lp3732
(S'0:10:17'
p3733
V16.66668
p3734
tp3735
asS'part2_correct_attempt'
p3736
(lp3737
S'0:01:51'
p3738
aV44/9
p3739
asS'part4_correct_attempt'
p3740
(lp3741
S'0:13:12'
p3742
aV(18+88/9)/0.6
p3743
asS'part3_correct_attempt'
p3744
(lp3745
S'0:04:27'
p3746
aV18+88/9
p3747
asS'part1_correct_attempt'
p3748
(lp3749
S'0:00:00'
p3750
ag138
asg9
V2015-10-28 19:22:34
p3751
ssVs1powers
p3752
(dp3753
S'part4_incorrect_attempt'
p3754
(lp3755
(S'2 days, 2:04:02'
p3756
V16+(3*4.375)
p3757
tp3758
a(S'2 days, 2:05:34'
p3759
V16+(3*4.375)/0.6
p3760
tp3761
asS'part2_correct_attempt'
p3762
(lp3763
S'2 days, 2:01:57'
p3764
ag3196
asS'part4_correct_attempt'
p3765
(lp3766
S'2 days, 2:05:43'
p3767
aV[16+(3*4.375)]/0.6
p3768
asS'part3_correct_attempt'
p3769
(lp3770
S'2 days, 2:02:23'
p3771
aV16+(3*4.375)
p3772
asS'part1_correct_attempt'
p3773
(lp3774
S'0:00:00'
p3775
aV4
p3776
asg9
g3197
ssVe9brown
p3777
(dp3778
S'part4_incorrect_attempt'
p3779
(lp3780
(S'0:03:43'
p3781
V.3 / (3.5*4 + 27*5/7)
p3782
tp3783
asS'part2_correct_attempt'
p3784
(lp3785
S'0:02:46'
p3786
ag3214
asS'part4_correct_attempt'
p3787
(lp3788
S'0:04:04'
p3789
aV(3.5*4 + 27*5/7)/.3
p3790
asS'part3_correct_attempt'
p3791
(lp3792
S'0:02:55'
p3793
aV3.5*4 + 27*5/7
p3794
asS'part1_correct_attempt'
p3795
(lp3796
S'0:00:00'
p3797
aV3.5
p3798
asg9
g3215
ssVagian
p3799
(dp3800
S'part4_incorrect_attempt'
p3801
(lp3802
(S'0:07:14'
p3803
V25.2/0.4
p3804
tp3805
asS'part2_correct_attempt'
p3806
(lp3807
S'0:00:49'
p3808
ag1215
asS'part4_correct_attempt'
p3809
(lp3810
S'0:07:24'
p3811
aV25.2/0.3
p3812
asS'part3_correct_attempt'
p3813
(lp3814
S'0:06:53'
p3815
ag1211
asS'part1_correct_attempt'
p3816
(lp3817
S'0:00:00'
p3818
ag1219
asg9
g1220
ssVvsosnovs
p3819
(dp3820
S'part4_incorrect_attempt'
p3821
(lp3822
(S'0:07:23'
p3823
V.3
p3824
tp3825
a(S'0:07:32'
p3826
V.2
p3827
tp3828
a(S'0:07:35'
p3829
V.1
p3830
tp3831
asS'part2_correct_attempt'
p3832
(lp3833
S'0:04:51'
p3834
ag3226
asS'part4_correct_attempt'
p3835
(lp3836
S'0:08:17'
p3837
aV16.75/.3
p3838
asS'part3_correct_attempt'
p3839
(lp3840
S'0:06:03'
p3841
aV2(4)+ 2(4.375)
p3842
asS'part1_correct_attempt'
p3843
(lp3844
S'0:00:00'
p3845
aV(1+2+3+4+5+6+7)1/7
p3846
asg9
g3227
ssVdkurli
p3847
(dp3848
S'part4_incorrect_attempt'
p3849
(lp3850
(S'0:10:33'
p3851
V(5.5+5.91)*3/5
p3852
tp3853
asS'part2_correct_attempt'
p3854
(lp3855
S'0:08:33'
p3856
ag1848
asS'part4_correct_attempt'
p3857
(lp3858
S'0:12:52'
p3859
aV34.23/.2
p3860
asS'part3_correct_attempt'
p3861
(lp3862
S'0:09:05'
p3863
aV(5.5+5.91)*3
p3864
asS'part1_correct_attempt'
p3865
(lp3866
S'0:00:00'
p3867
aV5.5
p3868
asg9
g1849
ssVmbl003
p3869
(dp3870
S'part4_incorrect_attempt'
p3871
(lp3872
(S'0:15:17'
p3873
V2.5
p3874
tp3875
a(S'0:15:29'
p3876
V1/2.5
p3877
tp3878
asS'part2_correct_attempt'
p3879
(lp3880
S'0:00:16'
p3881
ag935
asS'part4_correct_attempt'
p3882
(lp3883
S'0:16:23'
p3884
aV((((1+2+3+4+5+6+7+8)/8)*3)+((1+2+3+4+5+6+7+8+8)/9*5))/.4
p3885
asS'part3_correct_attempt'
p3886
(lp3887
S'0:03:06'
p3888
ag931
asS'part1_correct_attempt'
p3889
(lp3890
S'0:00:00'
p3891
ag240
asg9
g939
ssVvasharma
p3892
(dp3893
S'part4_incorrect_attempt'
p3894
(lp3895
(S'0:30:28'
p3896
V(4*5.5)+4*5.90909
p3897
tp3898
asS'part2_correct_attempt'
p3899
(lp3900
S'0:12:21'
p3901
ag983
asS'part4_correct_attempt'
p3902
(lp3903
S'0:34:36'
p3904
aV(4(3.5)+ 3(3.86))/0.6
p3905
asS'part3_correct_attempt'
p3906
(lp3907
S'0:13:53'
p3908
ag979
asS'part1_correct_attempt'
p3909
(lp3910
S'0:00:00'
p3911
ag555
asg9
g987
ssVedescobe
p3912
(dp3913
S'part4_incorrect_attempt'
p3914
(lp3915
(S'0:03:50'
p3916
V.4
p3917
tp3918
asS'part2_correct_attempt'
p3919
(lp3920
S'0:02:37'
p3921
ag2443
asS'part4_correct_attempt'
p3922
(lp3923
S'0:06:54'
p3924
aV39.727/.6
p3925
asS'part3_correct_attempt'
p3926
(lp3927
S'0:03:06'
p3928
aV5.5*4+5.909*3
p3929
asS'part1_correct_attempt'
p3930
(lp3931
S'0:00:00'
p3932
aV5.5
p3933
asg9
g2444
ssVhaw081
p3934
(dp3935
S'part4_incorrect_attempt'
p3936
(lp3937
(S'0:17:49'
p3938
V4.5*3+3*4.88889/0.4
p3939
tp3940
asS'part2_correct_attempt'
p3941
(lp3942
S'0:08:41'
p3943
aV(1/9)(1+2+3+4+5+6+7)+(2/9)(8)
p3944
asS'part4_correct_attempt'
p3945
(lp3946
S'0:18:00'
p3947
aV(4.5*3+3*4.88889)/0.4
p3948
asS'part3_correct_attempt'
p3949
(lp3950
S'0:14:29'
p3951
aV4.5*3+3*4.88889
p3952
asS'part1_correct_attempt'
p3953
(lp3954
S'0:00:00'
p3955
ag321
asg9
V2015-10-25 07:40:47
p3956
ssVqtluong
p3957
(dp3958
S'part4_incorrect_attempt'
p3959
(lp3960
(S'0:13:38'
p3961
V4*5 + (1/8*21 + 1/4*7)*5 / .4
p3962
tp3963
asS'part2_correct_attempt'
p3964
(lp3965
S'0:10:05'
p3966
aV1/8*21 + 1/4*7
p3967
asS'part4_correct_attempt'
p3968
(lp3969
S'0:13:51'
p3970
aV(4*5 + (1/8*21 + 1/4*7)*5 )/ .4
p3971
asS'part3_correct_attempt'
p3972
(lp3973
S'0:12:44'
p3974
aV4*5 + (1/8*21 + 1/4*7)*5
p3975
asS'part1_correct_attempt'
p3976
(lp3977
S'0:00:00'
p3978
aV4
p3979
asg9
V2015-10-29 06:44:55
p3980
ssVdcgriffi
p3981
(dp3982
S'part4_incorrect_attempt'
p3983
(lp3984
(S'0:02:39'
p3985
V2.5/(9+(3*44/9))
p3986
tp3987
a(S'0:03:24'
p3988
V(9+(3*44/9))/2.5
p3989
tp3990
asS'part2_correct_attempt'
p3991
(lp3992
S'0:00:00'
p3993
aV44/9
p3994
asS'part4_correct_attempt'
p3995
(lp3996
S'0:04:41'
p3997
aV(9+(3*44/9))/0.4
p3998
asS'part3_correct_attempt'
p3999
(lp4000
S'0:00:00'
p4001
aV9+(3*44/9)
p4002
asS'part1_correct_attempt'
p4003
(lp4004
S'0:00:00'
p4005
aV4.5
p4006
asg9
V2015-10-29 13:29:18
p4007
ssVpvl001
p4008
(dp4009
S'part4_incorrect_attempt'
p4010
(lp4011
(S'1:23:51'
p4012
V0.1 / ((3.5 * 5) + (27/7 * 2))
p4013
tp4014
a(S'1:28:22'
p4015
V(3.5 * 5) + (27/7 * 2) / (10 * (3.5 * 5) + (27/7 * 2))
p4016
tp4017
a(S'1:32:14'
p4018
V(3.5 * 5) + (27/7 * 2) * 10
p4019
tp4020
asS'part2_correct_attempt'
p4021
(lp4022
S'0:00:00'
p4023
aV27/7
p4024
asS'part4_correct_attempt'
p4025
(lp4026
S'1:32:25'
p4027
aV((3.5 * 5) + (27/7 * 2)) * 10
p4028
asS'part3_correct_attempt'
p4029
(lp4030
S'0:50:36'
p4031
aV(3.5 * 5) + (27/7 * 2)
p4032
asS'part1_correct_attempt'
p4033
(lp4034
S'0:00:00'
p4035
aV3.5
p4036
asg9
V2015-10-27 04:14:36
p4037
ssVanl114
p4038
(dp4039
S'part4_incorrect_attempt'
p4040
(lp4041
(S'0:01:48'
p4042
V7.16
p4043
tp4044
asS'part2_correct_attempt'
p4045
(lp4046
S'0:00:30'
p4047
aV5.4
p4048
asS'part4_correct_attempt'
p4049
(lp4050
S'0:03:02'
p4051
aV179
p4052
asS'part3_correct_attempt'
p4053
(lp4054
S'0:00:30'
p4055
aV25+10.8
p4056
asS'part1_correct_attempt'
p4057
(lp4058
S'0:00:00'
p4059
aV5
p4060
asg9
V2015-10-29 20:16:02
p4061
ssVr9jiang
p4062
(dp4063
S'part4_incorrect_attempt'
p4064
(lp4065
(S'0:00:00'
p4066
V1250/7
p4067
tp4068
asS'part2_correct_attempt'
p4069
(lp4070
S'0:00:00'
p4071
aV27/7
p4072
asS'part4_correct_attempt'
p4073
(lp4074
S'0:02:15'
p4075
aV(14+(54/7))/0.1
p4076
asS'part3_correct_attempt'
p4077
(lp4078
S'0:00:00'
p4079
aV14+(54/7)
p4080
asS'part1_correct_attempt'
p4081
(lp4082
S'0:00:00'
p4083
aV3.5
p4084
asg9
V2015-10-24 06:54:45
p4085
ssVc2qiu
p4086
(dp4087
S'part4_incorrect_attempt'
p4088
(lp4089
(S'0:00:00'
p4090
V395/3
p4091
tp4092
a(S'0:01:47'
p4093
V298/3
p4094
tp4095
asS'part2_correct_attempt'
p4096
(lp4097
S'0:00:00'
p4098
aV7/4+21/8
p4099
asS'part4_correct_attempt'
p4100
(lp4101
S'0:02:09'
p4102
aV295/3
p4103
asS'part3_correct_attempt'
p4104
(lp4105
S'0:00:00'
p4106
aV12+17.5
p4107
asS'part1_correct_attempt'
p4108
(lp4109
S'0:00:00'
p4110
aV4
p4111
asg9
V2015-10-29 08:48:14
p4112
ssVbtn023
p4113
(dp4114
S'part4_incorrect_attempt'
p4115
(lp4116
(S'1:08:47'
p4117
V(1+2+3+4+5+6+7+8)/8*5 + ((1+2+3+4+5+6+7)/9 +2*8/9)*2/.5
p4118
tp4119
asS'part2_correct_attempt'
p4120
(lp4121
S'0:00:00'
p4122
aV(1+2+3+4+5+6+7)/9 +2*8/9
p4123
asS'part4_correct_attempt'
p4124
(lp4125
S'1:09:06'
p4126
aV((1+2+3+4+5+6+7+8)/8*5 + ((1+2+3+4+5+6+7)/9 +2*8/9)*2)/.5
p4127
asS'part3_correct_attempt'
p4128
(lp4129
S'0:00:48'
p4130
aV(1+2+3+4+5+6+7+8)/8*5 + ((1+2+3+4+5+6+7)/9 +2*8/9)*2
p4131
asS'part1_correct_attempt'
p4132
(lp4133
S'0:00:00'
p4134
aV(1+2+3+4+5+6+7+8)/8
p4135
asg9
V2015-10-30 05:59:26
p4136
ssVachinn
p4137
(dp4138
S'part4_incorrect_attempt'
p4139
(lp4140
(S'4:25:01'
p4141
V(4.5*4)+(((1/9*1)+(1/9*2)+(1/9*3)+(1/9*4)+(1/9*5)+(1/9*6)+(1/9*7)+(2/9*8))*4)*0.4
p4142
tp4143
asS'part2_correct_attempt'
p4144
(lp4145
S'0:00:00'
p4146
aV(1/9*1)+(1/9*2)+(1/9*3)+(1/9*4)+(1/9*5)+(1/9*6)+(1/9*7)+(2/9*8)
p4147
asS'part4_correct_attempt'
p4148
(lp4149
S'4:26:48'
p4150
aV((4.5*4)+(((1/9*1)+(1/9*2)+(1/9*3)+(1/9*4)+(1/9*5)+(1/9*6)+(1/9*7)+(2/9*8))*4))/0.4
p4151
asS'part3_correct_attempt'
p4152
(lp4153
S'0:00:00'
p4154
aV(4.5*4)+(((1/9*1)+(1/9*2)+(1/9*3)+(1/9*4)+(1/9*5)+(1/9*6)+(1/9*7)+(2/9*8))*4)
p4155
asS'part1_correct_attempt'
p4156
(lp4157
S'0:00:00'
p4158
aV4.5
p4159
asg9
V2015-10-28 03:52:48
p4160
ssVgalu
p4161
(dp4162
S'part4_incorrect_attempt'
p4163
(lp4164
(S'0:00:00'
p4165
V36/8
p4166
tp4167
asS'part1_correct_attempt'
p4168
(lp4169
S'0:00:00'
p4170
ag60
asg9
g697
ssVdis003
p4171
(dp4172
S'part4_incorrect_attempt'
p4173
(lp4174
(S'0:01:09'
p4175
V(2*(9*(9+1)/(2*9)) + 2*(2*9/(9+1) + (9*(9-1))/(2*(9+1))))/(9*(9+1)/(2*9))
p4176
tp4177
a(S'0:09:40'
p4178
V4*(9*(9+1)/(2*9)) + 3*(2*9/(9+1) + (9*(9-1))/(2*(9+1)))/0.3
p4179
tp4180
a(S'0:09:59'
p4181
V4*(9*(9+1)/(2*9)) + 3*(2*9/(9+1) + (9*(9-1))/(2*(9+1)))/9*(9+1)/(2*9)
p4182
tp4183
a(S'0:10:11'
p4184
V4*(9*(9+1)/(2*9)) + 3*(2*9/(9+1) + (9*(9-1))/(2*(9+1)))/(9*(9+1)/(2*9))
p4185
tp4186
a(S'0:12:58'
p4187
V4*(9*(9+1)/(2*9)) + 3*(2*9/(9+1) + (9*(9-1))/(2*(9+1)))/(4*(9*(9+1)/(2*9)) + 3*(2*9/(9+1) + (9*(9-1))/(2*(9+1))))
p4188
tp4189
asS'part2_correct_attempt'
p4190
(lp4191
S'0:00:00'
p4192
aV2*9/(9+1) + (9*(9-1))/(2*(9+1))
p4193
asS'part4_correct_attempt'
p4194
(lp4195
S'0:16:19'
p4196
aV(4*(9*(9+1)/(2*9)) + 3*(2*9/(9+1) + (9*(9-1))/(2*(9+1))))/0.3
p4197
asS'part3_correct_attempt'
p4198
(lp4199
S'0:00:31'
p4200
aV4*(9*(9+1)/(2*9)) + 3*(2*9/(9+1) + (9*(9-1))/(2*(9+1)))
p4201
asS'part1_correct_attempt'
p4202
(lp4203
S'0:00:00'
p4204
aV9*(9+1)/(2*9)
p4205
asg9
V2015-10-29 19:53:53
p4206
ssVdgunawan
p4207
(dp4208
S'part4_incorrect_attempt'
p4209
(lp4210
(S'0:05:22'
p4211
V0.2
p4212
tp4213
a(S'0:16:03'
p4214
V1/(1-0.2)
p4215
tp4216
a(S'0:16:56'
p4217
V39.7273
p4218
tp4219
a(S'0:17:18'
p4220
V5.5 + 5.90909
p4221
tp4222
asS'part3_correct_attempt'
p4223
(lp4224
S'0:04:07'
p4225
aV4*5.5 + 3* 5.90909
p4226
asS'part2_correct_attempt'
p4227
(lp4228
S'0:02:33'
p4229
aV(1/11)[1+2+3+4+5+6+7+8+9] + (2/11)[10]
p4230
asS'part1_correct_attempt'
p4231
(lp4232
S'0:00:00'
p4233
ag45
asg9
V2015-10-29 23:18:18
p4234
ssVjcl084
p4235
(dp4236
S'part4_incorrect_attempt'
p4237
(lp4238
(S'0:02:18'
p4239
V70.24
p4240
tp4241
a(S'0:05:50'
p4242
V41.4
p4243
tp4244
asS'part2_correct_attempt'
p4245
(lp4246
S'0:00:00'
p4247
aV5.4
p4248
asS'part4_correct_attempt'
p4249
(lp4250
S'0:06:25'
p4251
aV(4(5)+16.2)/0.5
p4252
asS'part3_correct_attempt'
p4253
(lp4254
S'0:00:00'
p4255
aV4(5) + 3(5.4)
p4256
asS'part1_correct_attempt'
p4257
(lp4258
S'0:00:00'
p4259
aV5
p4260
asg9
V2015-10-28 23:35:47
p4261
ssVaalhaida
p4262
(dp4263
S'part4_incorrect_attempt'
p4264
(lp4265
(S'0:31:51'
p4266
V.4/29.875
p4267
tp4268
asS'part2_correct_attempt'
p4269
(lp4270
S'0:19:22'
p4271
ag1258
asS'part4_correct_attempt'
p4272
(lp4273
S'0:52:39'
p4274
aV(4+4+5(4.375))/.4
p4275
asS'part3_correct_attempt'
p4276
(lp4277
S'0:28:37'
p4278
ag1254
asS'part1_correct_attempt'
p4279
(lp4280
S'0:00:00'
p4281
ag1262
asg9
g1263
ssVhachrist
p4282
(dp4283
S'part4_incorrect_attempt'
p4284
(lp4285
(S'9:42:26'
p4286
V0.3*(4*28/7 + 3*35/8)
p4287
tp4288
asS'part2_correct_attempt'
p4289
(lp4290
S'9:42:26'
p4291
aV35/8
p4292
asS'part4_correct_attempt'
p4293
(lp4294
S'9:43:15'
p4295
aV(4*28/7 + 3*35/8)/0.3
p4296
asS'part3_correct_attempt'
p4297
(lp4298
S'9:42:26'
p4299
aV4*28/7 + 3*35/8
p4300
asS'part1_correct_attempt'
p4301
(lp4302
S'0:00:00'
p4303
aV28/7
p4304
asg9
V2015-10-29 07:10:55
p4305
ssVjhw015
p4306
(dp4307
S'part4_incorrect_attempt'
p4308
(lp4309
(S'0:15:05'
p4310
V(27/2)^1/2
p4311
tp4312
asS'part2_correct_attempt'
p4313
(lp4314
S'0:05:09'
p4315
ag1278
asS'part4_correct_attempt'
p4316
(lp4317
S'2 days, 17:37:05'
p4318
aV51.6
p4319
asS'part3_correct_attempt'
p4320
(lp4321
S'0:07:43'
p4322
ag1274
asS'part1_correct_attempt'
p4323
(lp4324
S'0:00:00'
p4325
ag1282
asg9
g1283
ssVaggouw
p4326
(dp4327
S'part4_incorrect_attempt'
p4328
(lp4329
(S'0:01:51'
p4330
V2*[7*(7+1)/(2*7)] + 5*[2*7/(7+1) + (7*(7-1))/(2*(7+1))]
p4331
tp4332
a(S'0:02:09'
p4333
V2*[7*(7+1)/(2*7)] + 5*[2*7/(7+1) + (7*(7-1))/(2*(7+1))]/0.2
p4334
tp4335
a(S'3 days, 18:58:34'
p4336
V(3*[7*(7+1)/(2*7)] + 5*[2*7/(7+1) + (7*(7-1))/(2*(7+1))])/3*[7*(7+1)/(2*7)] + 5*[2*7/(7+1) + (7*(7-1))/(2*(7+1))]
p4337
tp4338
a(S'3 days, 18:59:39'
p4339
V(3*[7*(7+1)/(2*7)] + 5*[2*7/(7+1) + (7*(7-1))/(2*(7+1))])/0.1
p4340
tp4341
a(S'3 days, 19:08:40'
p4342
V2*[7*(7+1)/(2*7)] + 5*[2*7/(7+1) + (7*(7-1))/(2*(7+1))] / 0.2
p4343
tp4344
asS'part2_correct_attempt'
p4345
(lp4346
S'0:00:10'
p4347
ag792
asS'part4_correct_attempt'
p4348
(lp4349
S'3 days, 19:08:55'
p4350
aV[2*[7*(7+1)/(2*7)] + 5*[2*7/(7+1) + (7*(7-1))/(2*(7+1))]] / 0.2
p4351
asS'part3_correct_attempt'
p4352
(lp4353
S'0:01:18'
p4354
ag788
asS'part1_correct_attempt'
p4355
(lp4356
S'0:00:00'
p4357
ag796
asg9
g797
ssVtcuddy
p4358
(dp4359
S'part4_incorrect_attempt'
p4360
(lp4361
(S'16:40:22'
p4362
V.6(52)
p4363
tp4364
asS'part2_correct_attempt'
p4365
(lp4366
S'0:31:10'
p4367
ag1993
asS'part4_correct_attempt'
p4368
(lp4369
S'16:40:33'
p4370
aV(52)/.6
p4371
asS'part3_correct_attempt'
p4372
(lp4373
S'16:40:22'
p4374
aV5(5) + 5(5.4)
p4375
asS'part1_correct_attempt'
p4376
(lp4377
S'0:00:00'
p4378
aV(1/9)(9(10)/2)
p4379
asg9
g1994
ssVmcatozzi
p4380
(dp4381
S'part4_incorrect_attempt'
p4382
(lp4383
(S'0:14:42'
p4384
V1.66666
p4385
tp4386
a(S'0:14:49'
p4387
V1.666667
p4388
tp4389
a(S'0:25:55'
p4390
V1.290994449
p4391
tp4392
a(S'2:24:48'
p4393
V52.6
p4394
tp4395
asS'part2_correct_attempt'
p4396
(lp4397
S'0:08:38'
p4398
aV5.4
p4399
asS'part4_correct_attempt'
p4400
(lp4401
S'2:24:52'
p4402
aV52.666666
p4403
asS'part3_correct_attempt'
p4404
(lp4405
S'0:09:58'
p4406
aV31.6
p4407
asS'part1_correct_attempt'
p4408
(lp4409
S'0:00:00'
p4410
aV5
p4411
asg9
V2015-10-27 23:03:59
p4412
ssVchc286
p4413
(dp4414
S'part4_incorrect_attempt'
p4415
(lp4416
(S'0:02:29'
p4417
V(5.5*2+(65/11)*5)/.04
p4418
tp4419
asS'part2_correct_attempt'
p4420
(lp4421
S'0:00:00'
p4422
aV65/11
p4423
asS'part4_correct_attempt'
p4424
(lp4425
S'0:02:38'
p4426
aV(5.5*2+(65/11)*5)/0.4
p4427
asS'part3_correct_attempt'
p4428
(lp4429
S'0:01:12'
p4430
aV5.5*2+(65/11)*5
p4431
asS'part1_correct_attempt'
p4432
(lp4433
S'0:00:00'
p4434
aV5.5
p4435
asg9
V2015-10-28 06:29:42
p4436
ssVsrl006
p4437
(dp4438
S'part4_incorrect_attempt'
p4439
(lp4440
(S'0:11:41'
p4441
V6.76
p4442
tp4443
a(S'0:11:56'
p4444
V6.7636
p4445
tp4446
asS'part2_correct_attempt'
p4447
(lp4448
S'0:10:06'
p4449
ag1731
asS'part4_correct_attempt'
p4450
(lp4451
S'0:15:23'
p4452
aV169.09
p4453
asS'part3_correct_attempt'
p4454
(lp4455
S'0:11:03'
p4456
aV33.818
p4457
asS'part1_correct_attempt'
p4458
(lp4459
S'0:00:00'
p4460
aV5.5
p4461
asg9
g1732
ssVbakang
p4462
(dp4463
S'part4_incorrect_attempt'
p4464
(lp4465
(S'0:03:04'
p4466
V(2*(36/8)+5*((28+8*2)/9))/4
p4467
tp4468
asS'part2_correct_attempt'
p4469
(lp4470
S'0:00:50'
p4471
aV(28+8*2)/9
p4472
asS'part4_correct_attempt'
p4473
(lp4474
S'0:03:11'
p4475
aV(2*(36/8)+5*((28+8*2)/9))/0.4
p4476
asS'part3_correct_attempt'
p4477
(lp4478
S'0:01:59'
p4479
aV2*(36/8)+5*((28+8*2)/9)
p4480
asS'part1_correct_attempt'
p4481
(lp4482
S'0:00:00'
p4483
aV36/8
p4484
asg9
V2015-10-26 21:44:29
p4485
ssVsmohiman
p4486
(dp4487
S'part4_incorrect_attempt'
p4488
(lp4489
(S'0:04:30'
p4490
V0.4/((2*4)+(3*35/8))
p4491
tp4492
asS'part2_correct_attempt'
p4493
(lp4494
S'0:00:00'
p4495
aV35/8
p4496
asS'part4_correct_attempt'
p4497
(lp4498
S'0:05:34'
p4499
aV((2*4)+(3*35/8))/0.4
p4500
asS'part3_correct_attempt'
p4501
(lp4502
S'0:00:00'
p4503
aV(2*4)+(3*35/8)
p4504
asS'part1_correct_attempt'
p4505
(lp4506
S'0:00:00'
p4507
aV4
p4508
asg9
V2015-10-27 05:44:52
p4509
ssVyig015
p4510
(dp4511
S'part4_incorrect_attempt'
p4512
(lp4513
(S'1 day, 23:48:21'
p4514
V1.5811
p4515
tp4516
a(S'1 day, 23:49:58'
p4517
V1.003
p4518
tp4519
a(S'1 day, 23:50:05'
p4520
V1.00301
p4521
tp4522
asS'part2_correct_attempt'
p4523
(lp4524
S'1 day, 23:45:13'
p4525
ag3051
asS'part4_correct_attempt'
p4526
(lp4527
S'2 days, 0:02:47'
p4528
aV57.0455/0.6
p4529
asS'part3_correct_attempt'
p4530
(lp4531
S'1 day, 23:45:33'
p4532
aV5*5.5+5*65/11
p4533
asS'part1_correct_attempt'
p4534
(lp4535
S'0:00:00'
p4536
aV5.5
p4537
asg9
g3052
ssVdpereira
p4538
(dp4539
S'part4_incorrect_attempt'
p4540
(lp4541
(S'0:04:38'
p4542
V5*4 + (5.4 * 4) / .2
p4543
tp4544
asS'part2_correct_attempt'
p4545
(lp4546
S'0:01:05'
p4547
aV1/10 + 2/10 + 3/10 + 4/10 + 5/10 + 6/10 + 7/10 + 8/10 + 18/10
p4548
asS'part4_correct_attempt'
p4549
(lp4550
S'0:04:47'
p4551
aV(5*4 + (5.4 * 4)) / .2
p4552
asS'part3_correct_attempt'
p4553
(lp4554
S'0:01:35'
p4555
aV5*4 + (5.4 * 4)
p4556
asS'part1_correct_attempt'
p4557
(lp4558
S'0:00:00'
p4559
aV1/9 + 2/9 + 3/9 + 4/9 + 5/9 + 6/9 + 7/9 + 8/9 + 9/9
p4560
asg9
V2015-10-23 18:09:24
p4561
ssVflhernan
p4562
(dp4563
S'part4_incorrect_attempt'
p4564
(lp4565
(S'0:09:26'
p4566
V.1/(3*3.5 + 2*3.85714286)
p4567
tp4568
a(S'0:09:40'
p4569
V.1*(3*3.5 + 2*3.85714286)
p4570
tp4571
asS'part2_correct_attempt'
p4572
(lp4573
S'0:04:55'
p4574
ag2074
asS'part4_correct_attempt'
p4575
(lp4576
S'0:11:10'
p4577
aV(3*3.5 + 2*3.85714286)/(.1)
p4578
asS'part3_correct_attempt'
p4579
(lp4580
S'0:08:27'
p4581
aV3*3.5 + 2*3.85714286
p4582
asS'part1_correct_attempt'
p4583
(lp4584
S'0:00:00'
p4585
aV3.5
p4586
asg9
g2075
ssVyos017
p4587
(dp4588
S'part4_incorrect_attempt'
p4589
(lp4590
(S'0:16:53'
p4591
V4*[(1+2+3+4+5+6+7+8+9+10)/10]+5*[(1+2+3+4+5+6+7+8+9+20)/11]/0.4
p4592
tp4593
asS'part2_correct_attempt'
p4594
(lp4595
S'0:01:18'
p4596
ag1574
asS'part4_correct_attempt'
p4597
(lp4598
S'0:17:13'
p4599
aV[4*[(1+2+3+4+5+6+7+8+9+10)/10]+5*[(1+2+3+4+5+6+7+8+9+20)/11]]/0.4
p4600
asS'part3_correct_attempt'
p4601
(lp4602
S'0:03:11'
p4603
ag1570
asS'part1_correct_attempt'
p4604
(lp4605
S'0:00:00'
p4606
ag1578
asg9
g1579
ssVawollner
p4607
(dp4608
S'part4_incorrect_attempt'
p4609
(lp4610
(S'0:05:53'
p4611
V1/10^6
p4612
tp4613
asS'part2_correct_attempt'
p4614
(lp4615
S'0:02:19'
p4616
ag2727
asS'part4_correct_attempt'
p4617
(lp4618
S'3 days, 7:59:56'
p4619
aV34.6364/.5
p4620
asS'part3_correct_attempt'
p4621
(lp4622
S'0:03:10'
p4623
aV11 + 4*(5.90909)
p4624
asS'part1_correct_attempt'
p4625
(lp4626
S'0:00:00'
p4627
ag192
asg9
g2728
ssVr2fisher
p4628
(dp4629
S'part4_incorrect_attempt'
p4630
(lp4631
(S'0:05:09'
p4632
V36/8+ (8*2 +7+6+5+4+3+2+1)/9
p4633
tp4634
asS'part2_correct_attempt'
p4635
(lp4636
S'0:03:05'
p4637
ag3336
asS'part4_correct_attempt'
p4638
(lp4639
S'0:13:31'
p4640
aV(4.5*4 + ((8*2 +7+6+5+4+3+2+1)/9)*4)/0.2
p4641
asS'part3_correct_attempt'
p4642
(lp4643
S'0:03:55'
p4644
aV4.5*4 + ((8*2 +7+6+5+4+3+2+1)/9)*4
p4645
asS'part1_correct_attempt'
p4646
(lp4647
S'0:00:00'
p4648
ag579
asg9
g3337
ssVdcastlem
p4649
(dp4650
S'part4_incorrect_attempt'
p4651
(lp4652
(S'2:40:38'
p4653
V2975/36
p4654
tp4655
asS'part2_correct_attempt'
p4656
(lp4657
S'0:00:00'
p4658
ag1091
asS'part4_correct_attempt'
p4659
(lp4660
S'2:43:22'
p4661
aV33.0556/.3
p4662
asS'part3_correct_attempt'
p4663
(lp4664
S'2:37:19'
p4665
ag1087
asS'part1_correct_attempt'
p4666
(lp4667
S'0:00:00'
p4668
ag591
asg9
g1095
ssVvolim
p4669
(dp4670
S'part4_incorrect_attempt'
p4671
(lp4672
(S'0:07:22'
p4673
V.4/36.6
p4674
tp4675
asS'part2_correct_attempt'
p4676
(lp4677
S'0:00:49'
p4678
ag1528
asS'part4_correct_attempt'
p4679
(lp4680
S'0:07:41'
p4681
aV36.6/.4
p4682
asS'part3_correct_attempt'
p4683
(lp4684
S'0:02:21'
p4685
ag1524
asS'part1_correct_attempt'
p4686
(lp4687
S'0:00:00'
p4688
ag1532
asg9
g1533
ssVamquinte
p4689
(dp4690
S'part4_incorrect_attempt'
p4691
(lp4692
(S'0:19:54'
p4693
V0.4
p4694
tp4695
a(S'0:28:36'
p4696
V13.5
p4697
tp4698
a(S'0:28:47'
p4699
V12.5
p4700
tp4701
asS'part2_correct_attempt'
p4702
(lp4703
S'0:13:37'
p4704
aV5.4
p4705
asS'part4_correct_attempt'
p4706
(lp4707
S'0:29:17'
p4708
aV117.5
p4709
asS'part3_correct_attempt'
p4710
(lp4711
S'0:14:19'
p4712
aV47
p4713
asS'part1_correct_attempt'
p4714
(lp4715
S'0:00:00'
p4716
aV5
p4717
asg9
V2015-10-30 17:35:45
p4718
ssVc3chung
p4719
(dp4720
S'part4_incorrect_attempt'
p4721
(lp4722
(S'0:03:33'
p4723
V4.5
p4724
tp4725
asS'part2_correct_attempt'
p4726
(lp4727
S'0:02:27'
p4728
aV1(1/9)+2(1/9)+3(1/9)+4(1/9)+5(1/9)+6(1/9)+7(1/9)+8(2/9)
p4729
asS'part4_correct_attempt'
p4730
(lp4731
S'1 day, 11:33:53'
p4732
aV2(4.5(3)+4.88889(5))
p4733
asS'part3_correct_attempt'
p4734
(lp4735
S'0:03:07'
p4736
aV4.5(3)+4.88889(5)
p4737
asS'part1_correct_attempt'
p4738
(lp4739
S'0:00:00'
p4740
aV1(1/8)+2(1/8)+3(1/8)+4(1/8)+5(1/8)+6(1/8)+7(1/8)+8(1/8)
p4741
asg9
V2015-10-29 01:33:48
p4742
ssVxil109
p4743
(dp4744
S'part4_incorrect_attempt'
p4745
(lp4746
(S'0:05:15'
p4747
V45.6
p4748
tp4749
asS'part2_correct_attempt'
p4750
(lp4751
S'0:02:46'
p4752
ag2573
asS'part4_correct_attempt'
p4753
(lp4754
S'0:05:31'
p4755
aV22.08*2
p4756
asS'part3_correct_attempt'
p4757
(lp4758
S'0:03:24'
p4759
aV22.08
p4760
asS'part1_correct_attempt'
p4761
(lp4762
S'0:00:00'
p4763
aV3.5
p4764
asg9
g2574
ssVcagatep
p4765
(dp4766
S'part4_incorrect_attempt'
p4767
(lp4768
(S'0:02:37'
p4769
V4+4.375
p4770
tp4771
asS'part2_correct_attempt'
p4772
(lp4773
S'0:00:00'
p4774
aV4.375
p4775
asS'part4_correct_attempt'
p4776
(lp4777
S'0:03:44'
p4778
aV(12 + 3*4.375)/.2
p4779
asS'part3_correct_attempt'
p4780
(lp4781
S'0:00:00'
p4782
aV12 + 3*4.375
p4783
asS'part1_correct_attempt'
p4784
(lp4785
S'0:00:00'
p4786
aV4
p4787
asg9
V2015-10-30 20:53:13
p4788
ssVytc012
p4789
(dp4790
S'part4_incorrect_attempt'
p4791
(lp4792
(S'0:13:26'
p4793
V16+7+6+5+4+3+2+19
p4794
tp4795
a(S'0:13:37'
p4796
V(8+7+6+5+4+3+2+1)/8
p4797
tp4798
a(S'0:13:45'
p4799
V(16+7+6+5+4+3+2+1)/9
p4800
tp4801
asS'part2_correct_attempt'
p4802
(lp4803
S'0:04:38'
p4804
ag1623
asS'part4_correct_attempt'
p4805
(lp4806
S'0:17:47'
p4807
aV2(5(8+7+6+5+4+3+2+1)/8+3(16+7+6+5+4+3+2+1)/9)
p4808
asS'part3_correct_attempt'
p4809
(lp4810
S'0:08:06'
p4811
ag1619
asS'part1_correct_attempt'
p4812
(lp4813
S'0:00:00'
p4814
ag627
asg9
g1627
ssVtjke
p4815
(dp4816
S'part4_incorrect_attempt'
p4817
(lp4818
(S'0:05:32'
p4819
V[1*1/7+2*1/7+3*1/7+4*1/7+5*1/7+6*1/7+7*1/7]*4+[7*2/8+6*1/8+5*1/8+4*1/8+3*1/8+2*1/8+1*1/8]*2/0.1
p4820
tp4821
asS'part2_correct_attempt'
p4822
(lp4823
S'0:00:00'
p4824
ag1654
asS'part4_correct_attempt'
p4825
(lp4826
S'0:05:52'
p4827
aV([1*1/7+2*1/7+3*1/7+4*1/7+5*1/7+6*1/7+7*1/7]*4+[7*2/8+6*1/8+5*1/8+4*1/8+3*1/8+2*1/8+1*1/8]*2)/0.1
p4828
asS'part3_correct_attempt'
p4829
(lp4830
S'0:01:09'
p4831
ag1650
asS'part1_correct_attempt'
p4832
(lp4833
S'0:00:00'
p4834
ag1658
asg9
g1659
sss.