(dp0
S'1'
p1
ccollections
defaultdict
p2
(c__builtin__
list
p3
tp4
Rp5
S'Digits'
p6
(lp7
(S'0.3*(1-0.3)'
p8
V0
p9
tp10
a(g8
V0
p11
tp12
a(g8
V0
p13
tp14
a(g8
V0
p15
tp16
a(g8
V0
p17
tp18
a(g8
V0
p19
tp20
a(g8
V0
p21
tp22
a(g8
V0
p23
tp24
a(g8
V0
p25
tp26
a(g8
V0
p27
tp28
a(g8
V0
p29
tp30
a(g8
V0
p31
tp32
a(g8
V0
p33
tp34
a(g8
V0
p35
tp36
a(g8
V0
p37
tp38
a(g8
V0
p39
tp40
a(g8
V0
p41
tp42
a(g8
V0
p43
tp44
a(g8
V0
p45
tp46
a(g8
V0
p47
tp48
a(g8
V0
p49
tp50
a(g8
V0
p51
tp52
a(g8
V0
p53
tp54
a(g8
V0
p55
tp56
a(g8
V0
p57
tp58
asS'Wrong_Sign'
p59
(lp60
(g8
V.3 - (.548)^2
p61
tp62
a(g8
V-0.6
p63
tp64
a(g8
V-0.6
p65
tp66
asS"['R.1.0']"
p67
(lp68
(g8
V(0.3)*(1-.03)
p69
(lp70
(S'R.1.0'
p71
F1.0
S'1'
p72
V1
p73
tp74
aS'Guillermo'
p75
(lp76
V2016-10-23 04:15:59
p77
tp78
asS"['R']"
p79
(lp80
(g8
V0.21
p81
(lp82
(S'R'
p83
F0.21
g8
g81
tp84
aS'yazin-yousif'
p85
(lp86
V2016-10-28 01:11:28
p87
tp88
a(g8
V.3 - .3^2
p89
(lp90
(g83
F0.21
g8
g89
tp91
aS'mvkrishn'
p92
(lp93
V2016-10-27 06:45:45
p94
tp95
a(g8
V0.3 - (0.3)^2
p96
(lp97
(g83
F0.21
g8
g96
tp98
aS'adejesus'
p99
(lp100
V2016-10-27 15:06:25
p101
tp102
a(g8
V0.3 - (0.3)^2
p103
(lp104
(g83
F0.21
g8
g103
tp105
aS'adejesus'
p106
(lp107
V2016-10-27 15:14:01
p108
tp109
a(g8
V0.3 - (0.3)^2
p110
(lp111
(g83
F0.21
g8
g110
tp112
aS'adejesus'
p113
(lp114
V2016-10-27 15:16:29
p115
tp116
a(g8
V0.3 - (0.3)^2
p117
(lp118
(g83
F0.21
g8
g117
tp119
aS'adejesus'
p120
(lp121
V2016-10-27 15:18:00
p122
tp123
a(g8
V.3-(.3)^2
p124
(lp125
(g83
F0.21
g8
g124
tp126
aS'aliceh'
p127
(lp128
V2016-10-28 03:41:43
p129
tp130
a(g8
V0.21
p131
(lp132
(g83
F0.21
g8
g131
tp133
aS'JunnelReboquio'
p134
(lp135
V2016-10-26 18:35:57
p136
tp137
a(g8
V0.21
p138
(lp139
(g83
F0.21
g8
g138
tp140
aS'JunnelReboquio'
p141
(lp142
V2016-10-26 18:47:33
p143
tp144
a(g8
V0.21
p145
(lp146
(g83
F0.21
g8
g145
tp147
aS'JunnelReboquio'
p148
(lp149
V2016-10-26 18:48:23
p150
tp151
a(g8
V0.21
p152
(lp153
(g83
F0.21
g8
g152
tp154
aS'JunnelReboquio'
p155
(lp156
V2016-10-27 19:02:34
p157
tp158
a(g8
V0.3*0.7
p159
(lp160
(g83
F0.21
g8
g159
tp161
aS'wangpin'
p162
(lp163
V2016-10-28 01:25:33
p164
tp165
a(g8
V0.21
p166
(lp167
(g83
F0.21
g8
g166
tp168
aS'wangpin'
p169
(lp170
V2016-10-28 01:26:37
p171
tp172
a(g8
V.3-(.3^(2))
p173
(lp174
(g83
F0.21
g8
g173
tp175
aS'wtchiu'
p176
(lp177
V2016-10-28 05:41:43
p178
tp179
a(g8
V0.3-(0.3^2)
p180
(lp181
(g83
F0.21
g8
g180
tp182
aS'ray003'
p183
(lp184
V2016-10-25 23:26:06
p185
tp186
a(g8
V0.3-(0.3^2)
p187
(lp188
(g83
F0.21
g8
g187
tp189
aS'ray003'
p190
(lp191
V2016-10-25 23:29:16
p192
tp193
a(g8
V0.3-(0.3^2)
p194
(lp195
(g83
F0.21
g8
g194
tp196
aS'ray003'
p197
(lp198
V2016-10-25 23:29:41
p199
tp200
a(g8
V0.3-(0.3^2)
p201
(lp202
(g83
F0.21
g8
g201
tp203
aS'ray003'
p204
(lp205
V2016-10-25 23:30:18
p206
tp207
a(g8
V0.3 - 0.3^2
p208
(lp209
(g83
F0.21
g8
g208
tp210
aS'ray003'
p211
(lp212
V2016-10-26 00:21:08
p213
tp214
a(g8
V0.3 - 0.3^2
p215
(lp216
(g83
F0.21
g8
g215
tp217
aS'ray003'
p218
(lp219
V2016-10-26 00:31:20
p220
tp221
a(g8
V0.21
p222
(lp223
(g83
F0.21
g8
g222
tp224
aS'kevin'
p225
(lp226
V2016-10-26 23:45:17
p227
tp228
a(g8
V0.21
p229
(lp230
(g83
F0.21
g8
g229
tp231
aS'linhaoyu'
p232
(lp233
V2016-10-28 04:22:25
p234
tp235
a(g8
V0.3-0.3*0.3
p236
(lp237
(g83
F0.21
g8
g236
tp238
aS'JiaqiHuang'
p239
(lp240
V2016-10-28 07:02:51
p241
tp242
a(g8
V0.3 - (0.3)^2
p243
(lp244
(g83
F0.21
g8
g243
tp245
aS'ReneSanchez'
p246
(lp247
V2016-10-26 20:32:11
p248
tp249
a(g8
V 0.3 - (0.3)^2
p250
(lp251
(g83
F0.21
g8
V0.3 - (0.3)^2
p252
tp253
aS'ReneSanchez'
p254
(lp255
V2016-10-26 20:37:20
p256
tp257
a(g8
V0.21
p258
(lp259
(g83
F0.21
g8
g258
tp260
aS'safarsi'
p261
(lp262
V2016-10-27 19:42:44
p263
tp264
a(g8
V0.21
p265
(lp266
(g83
F0.21
g8
g265
tp267
aS'safarsi'
p268
(lp269
V2016-10-27 19:43:22
p270
tp271
a(g8
V0.3 * 0.7
p272
(lp273
(g83
F0.21
g8
g272
tp274
aS'jar045'
p275
(lp276
V2016-10-25 04:38:31
p277
tp278
a(g8
V0.3 * 0.7
p279
(lp280
(g83
F0.21
g8
g279
tp281
aS'jar045'
p282
(lp283
V2016-10-25 04:49:29
p284
tp285
a(g8
V0.3-0.3^2
p286
(lp287
(g83
F0.21
g8
g286
tp288
aS'kyle'
p289
(lp290
V2016-10-28 03:55:36
p291
tp292
a(g8
V.3-.3^2
p293
(lp294
(g83
F0.21
g8
g293
tp295
aS'tbenari'
p296
(lp297
V2016-10-27 23:51:27
p298
tp299
a(g8
V.21
p300
(lp301
(g83
F0.21
g8
g300
tp302
aS'tommyt1109'
p303
(lp304
V2016-10-27 08:55:30
p305
tp306
a(g8
V0.3-0.3^2
p307
(lp308
(g83
F0.21
g8
g307
tp309
aS'christhoperbernard'
p310
(lp311
V2016-10-27 20:48:17
p312
tp313
a(g8
V0.3-0.3^2
p314
(lp315
(g83
F0.21
g8
g314
tp316
aS'christhoperbernard'
p317
(lp318
V2016-10-27 20:50:14
p319
tp320
a(g8
V0.21
p321
(lp322
(g83
F0.21
g8
g321
tp323
aS'Von'
p324
(lp325
V2016-10-27 21:28:42
p326
tp327
a(g8
V0.21
p328
(lp329
(g83
F0.21
g8
g328
tp330
aS'MattBowen96'
p331
(lp332
V2016-10-27 09:38:53
p333
tp334
a(g8
V.21
p335
(lp336
(g83
F0.21
g8
g335
tp337
aS'MattBowen96'
p338
(lp339
V2016-10-27 09:41:34
p340
tp341
a(g8
V.21
p342
(lp343
(g83
F0.21
g8
g342
tp344
aS'MattBowen96'
p345
(lp346
V2016-10-27 09:42:46
p347
tp348
a(g8
V0.21
p349
(lp350
(g83
F0.21
g8
g349
tp351
aS'chenboy3'
p352
(lp353
V2016-10-26 16:38:34
p354
tp355
a(g8
V0.3-0.09
p356
(lp357
(g83
F0.21
g8
g356
tp358
aS'sunilraiyani'
p359
(lp360
V2016-10-23 22:49:20
p361
tp362
a(g8
V0.3-0.09
p363
(lp364
(g83
F0.21
g8
g363
tp365
aS'yjx99335'
p366
(lp367
V2016-10-28 01:30:25
p368
tp369
a(g8
V0.3-(0.3^2)
p370
(lp371
(g83
F0.21
g8
g370
tp372
aS'PriyankaK'
p373
(lp374
V2016-10-27 06:25:29
p375
tp376
a(g8
V0.3-(0.3^2)
p377
(lp378
(g83
F0.21
g8
g377
tp379
aS'PriyankaK'
p380
(lp381
V2016-10-27 06:26:55
p382
tp383
a(g8
V0.3-0.3*0.3
p384
(lp385
(g83
F0.21
g8
g384
tp386
aS'Riyang'
p387
(lp388
V2016-10-27 22:41:19
p389
tp390
a(g8
V0.3-0.3^2
p391
(lp392
(g83
F0.21
g8
g391
tp393
aS'Riyang'
p394
(lp395
V2016-10-27 22:44:47
p396
tp397
a(g8
V0.3(1-0.3)
p398
(lp399
(g83
F0.21
g8
g398
tp400
aS'woguan'
p401
(lp402
V2016-10-26 16:35:56
p403
tp404
a(g8
V0.3-(0.3^2)
p405
(lp406
(g83
F0.21
g8
g405
tp407
aS'TianhaoQiu'
p408
(lp409
V2016-10-28 03:02:10
p410
tp411
a(g8
V0.3-(0.3^2)
p412
(lp413
(g83
F0.21
g8
g412
tp414
aS'TianhaoQiu'
p415
(lp416
V2016-10-28 03:04:19
p417
tp418
a(g8
V0.3-(0.3^2)
p419
(lp420
(g83
F0.21
g8
g419
tp421
aS'TianhaoQiu'
p422
(lp423
V2016-10-28 03:05:34
p424
tp425
a(g8
V0.21
p426
(lp427
(g83
F0.21
g8
g426
tp428
aS'Byung'
p429
(lp430
V2016-10-28 00:04:19
p431
tp432
a(g8
V0.3(0.7)
p433
(lp434
(g83
F0.21
g8
g433
tp435
aS'dzech'
p436
(lp437
V2016-10-27 22:26:40
p438
tp439
a(g8
V0.3*0.7
p440
(lp441
(g83
F0.21
g8
g440
tp442
aS'dzech'
p443
(lp444
V2016-10-27 22:28:56
p445
tp446
a(g8
V0.3-0.09
p447
(lp448
(g83
F0.21
g8
g447
tp449
aS'YuqinWu'
p450
(lp451
V2016-10-25 23:34:20
p452
tp453
a(g8
V.3 - .3^2
p454
(lp455
(g83
F0.21
g8
g454
tp456
aS'JonahCruz'
p457
(lp458
V2016-10-27 20:13:47
p459
tp460
a(g8
V.3 - .3^2
p461
(lp462
(g83
F0.21
g8
g461
tp463
aS'JonahCruz'
p464
(lp465
V2016-10-27 20:35:30
p466
tp467
a(g8
V.21
p468
(lp469
(g83
F0.21
g8
g468
tp470
aS'rsamuail'
p471
(lp472
V2016-10-28 02:33:44
p473
tp474
a(g8
V.21
p475
(lp476
(g83
F0.21
g8
g475
tp477
aS'rsamuail'
p478
(lp479
V2016-10-28 02:45:38
p480
tp481
a(g8
V.21
p482
(lp483
(g83
F0.21
g8
g482
tp484
aS'rsamuail'
p485
(lp486
V2016-10-28 02:47:38
p487
tp488
a(g8
V.21
p489
(lp490
(g83
F0.21
g8
g489
tp491
aS'rsamuail'
p492
(lp493
V2016-10-28 02:52:09
p494
tp495
a(g8
V.21
p496
(lp497
(g83
F0.21
g8
g496
tp498
aS'rsamuail'
p499
(lp500
V2016-10-28 02:53:51
p501
tp502
a(g8
V.21
p503
(lp504
(g83
F0.21
g8
g503
tp505
aS'hunguyen'
p506
(lp507
V2016-10-28 05:19:27
p508
tp509
a(g8
V.3-.09
p510
(lp511
(g83
F0.21
g8
g510
tp512
aS'abelmont'
p513
(lp514
V2016-10-28 06:54:54
p515
tp516
a(g8
V.3-.09
p517
(lp518
(g83
F0.21
g8
g517
tp519
aS'abelmont'
p520
(lp521
V2016-10-28 06:55:43
p522
tp523
a(g8
V.3-.09
p524
(lp525
(g83
F0.21
g8
g524
tp526
aS'abelmont'
p527
(lp528
V2016-10-28 06:56:42
p529
tp530
a(g8
V.3-.09
p531
(lp532
(g83
F0.21
g8
g531
tp533
aS'abelmont'
p534
(lp535
V2016-10-28 07:00:46
p536
tp537
a(g8
V.3-.09
p538
(lp539
(g83
F0.21
g8
g538
tp540
aS'abelmont'
p541
(lp542
V2016-10-28 07:03:12
p543
tp544
a(g8
V.3 - (.3^2)
p545
(lp546
(g83
F0.21
g8
g545
tp547
aS'codyndoan'
p548
(lp549
V2016-10-26 19:56:06
p550
tp551
a(g8
V0.21
p552
(lp553
(g83
F0.21
g8
g552
tp554
aS'AndrewYang24'
p555
(lp556
V2016-10-28 04:10:56
p557
tp558
a(g8
V0.3-0.3^2
p559
(lp560
(g83
F0.21
g8
g559
tp561
aS'AlexM'
p562
(lp563
V2016-10-26 02:35:42
p564
tp565
a(g8
V0.3-0.3^2
p566
(lp567
(g83
F0.21
g8
g566
tp568
aS'AlexM'
p569
(lp570
V2016-10-26 02:37:51
p571
tp572
a(g8
V0.3-0.3^2
p573
(lp574
(g83
F0.21
g8
g573
tp575
aS'AlexM'
p576
(lp577
V2016-10-26 02:39:36
p578
tp579
a(g8
V0.3-0.3^2
p580
(lp581
(g83
F0.21
g8
g580
tp582
aS'AlexM'
p583
(lp584
V2016-10-26 02:47:28
p585
tp586
a(g8
V0.3-0.3^2
p587
(lp588
(g83
F0.21
g8
g587
tp589
aS'AlexM'
p590
(lp591
V2016-10-26 02:49:06
p592
tp593
a(g8
V.21
p594
(lp595
(g83
F0.21
g8
g594
tp596
aS'ankannan'
p597
(lp598
V2016-10-28 03:42:51
p599
tp600
a(g8
V.21
p601
(lp602
(g83
F0.21
g8
g601
tp603
aS'QIQIWU'
p604
(lp605
V2016-10-28 06:58:53
p606
tp607
a(g8
V0.3 - 0.3^2
p608
(lp609
(g83
F0.21
g8
g608
tp610
aS'Max'
p611
(lp612
V2016-10-28 02:08:07
p613
tp614
a(g8
V0.3 - 0.3^2
p615
(lp616
(g83
F0.21
g8
g615
tp617
aS'Max'
p618
(lp619
V2016-10-28 02:10:09
p620
tp621
a(g8
V0.3-(0.3)^2
p622
(lp623
(g83
F0.21
g8
g622
tp624
aS'alebedev'
p625
(lp626
V2016-10-26 05:04:12
p627
tp628
a(g8
V0.3-(0.3^2)
p629
(lp630
(g83
F0.21
g8
g629
tp631
aS'ctetreau'
p632
(lp633
V2016-10-27 22:04:00
p634
tp635
a(g8
V0.3-(0.3^2)
p636
(lp637
(g83
F0.21
g8
g636
tp638
aS'ctetreau'
p639
(lp640
V2016-10-27 22:08:20
p641
tp642
a(g8
V0.3-(0.3^2)
p643
(lp644
(g83
F0.21
g8
g643
tp645
aS'ctetreau'
p646
(lp647
V2016-10-27 22:10:06
p648
tp649
a(g8
V0.3(1-0.3)
p650
(lp651
(g83
F0.21
g8
g650
tp652
aS't2xu'
p653
(lp654
V2016-10-28 02:56:07
p655
tp656
a(g8
V0.3-0.09
p657
(lp658
(g83
F0.21
g8
g657
tp659
aS'cameronEllis'
p660
(lp661
V2016-10-27 23:13:19
p662
tp663
a(g8
V0.3-0.09
p664
(lp665
(g83
F0.21
g8
g664
tp666
aS'cameronEllis'
p667
(lp668
V2016-10-27 23:20:26
p669
tp670
a(g8
V0.3-0.09
p671
(lp672
(g83
F0.21
g8
g671
tp673
aS'cameronEllis'
p674
(lp675
V2016-10-27 23:39:17
p676
tp677
a(g8
V0.21
p678
(lp679
(g83
F0.21
g8
g678
tp680
aS'vnoxdev'
p681
(lp682
V2016-10-25 20:30:33
p683
tp684
a(g8
V0.21
p685
(lp686
(g83
F0.21
g8
g685
tp687
aS'vnoxdev'
p688
(lp689
V2016-10-25 20:31:48
p690
tp691
a(g8
V0.3*(1-0.3)
p692
(lp693
(g83
F0.21
g8
g692
tp694
aS'tsy'
p695
(lp696
V2016-10-27 21:16:58
p697
tp698
a(g8
V0.3-0.3^2
p699
(lp700
(g83
F0.21
g8
g699
tp701
aS'brandon_vo'
p702
(lp703
V2016-10-26 21:22:40
p704
tp705
a(g8
V0.3-0.3^2
p706
(lp707
(g83
F0.21
g8
g706
tp708
aS'd1vo'
p709
(lp710
V2016-10-27 05:46:26
p711
tp712
a(g8
V0.21
p713
(lp714
(g83
F0.21
g8
g713
tp715
aS'JasonHuang'
p716
(lp717
V2016-10-27 07:24:35
p718
tp719
a(g8
V.21
p720
(lp721
(g83
F0.21
g8
g720
tp722
aS'VanessaC'
p723
(lp724
V2016-10-27 18:12:20
p725
tp726
a(g8
V0.3-(0.3)^2
p727
(lp728
(g83
F0.21
g8
g727
tp729
aS'evahuynh'
p730
(lp731
V2016-10-24 18:57:58
p732
tp733
a(g8
V0.3 - 0.3^2
p734
(lp735
(g83
F0.21
g8
g734
tp736
aS'aives'
p737
(lp738
V2016-10-24 08:58:06
p739
tp740
a(g8
V0.3-(0.3)^2
p741
(lp742
(g83
F0.21
g8
g741
tp743
aS'Joonhan'
p744
(lp745
V2016-10-27 05:57:36
p746
tp747
a(g8
V0.3*0.7
p748
(lp749
(g83
F0.21
g8
g748
tp750
aS'yuhan'
p751
(lp752
V2016-10-28 05:20:05
p753
tp754
a(g8
V.21
p755
(lp756
(g83
F0.21
g8
g755
tp757
aS'aspindle'
p758
(lp759
V2016-10-27 02:32:41
p760
tp761
a(g8
V.21
p762
(lp763
(g83
F0.21
g8
g762
tp764
aS'aspindle'
p765
(lp766
V2016-10-27 02:36:53
p767
tp768
a(g8
V.21
p769
(lp770
(g83
F0.21
g8
g769
tp771
aS'aspindle'
p772
(lp773
V2016-10-27 02:37:56
p774
tp775
a(g8
V.21
p776
(lp777
(g83
F0.21
g8
g776
tp778
aS'aspindle'
p779
(lp780
V2016-10-27 02:38:48
p781
tp782
a(g8
V.21
p783
(lp784
(g83
F0.21
g8
g783
tp785
aS'aspindle'
p786
(lp787
V2016-10-27 02:41:48
p788
tp789
a(g8
V0.21
p790
(lp791
(g83
F0.21
g8
g790
tp792
aS'Ankush_Sarow'
p793
(lp794
V2016-10-28 02:32:52
p795
tp796
a(g8
V0.3-0.09
p797
(lp798
(g83
F0.21
g8
g797
tp799
aS'dkeirouz'
p800
(lp801
V2016-10-28 05:50:52
p802
tp803
a(g8
V0.21
p804
(lp805
(g83
F0.21
g8
g804
tp806
aS'Zeyi'
p807
(lp808
V2016-10-25 20:21:19
p809
tp810
a(g8
V.3-.09
p811
(lp812
(g83
F0.21
g8
g811
tp813
aS'KevinKlein'
p814
(lp815
V2016-10-25 02:19:58
p816
tp817
a(g8
V0.21
p818
(lp819
(g83
F0.21
g8
g818
tp820
aS'TianYang'
p821
(lp822
V2016-10-28 00:52:26
p823
tp824
a(g8
V0.21
p825
(lp826
(g83
F0.21
g8
g825
tp827
aS'TianYang'
p828
(lp829
V2016-10-28 00:53:23
p830
tp831
a(g8
V0.3-(0.3^2)
p832
(lp833
(g83
F0.21
g8
g832
tp834
aS'Kevin_Pansawira'
p835
(lp836
V2016-10-27 22:32:50
p837
tp838
a(g8
V0.3-(0.3^2)
p839
(lp840
(g83
F0.21
g8
g839
tp841
aS'Kevin_Pansawira'
p842
(lp843
V2016-10-27 22:34:09
p844
tp845
a(g8
V0.21
p846
(lp847
(g83
F0.21
g8
g846
tp848
aS'vincebai'
p849
(lp850
V2016-10-26 09:08:49
p851
tp852
a(g8
V0.21
p853
(lp854
(g83
F0.21
g8
g853
tp855
aS'vincebai'
p856
(lp857
V2016-10-26 09:10:38
p858
tp859
a(g8
V.21
p860
(lp861
(g83
F0.21
g8
g860
tp862
aS'njcrow'
p863
(lp864
V2016-10-28 04:08:43
p865
tp866
a(g8
V0.21
p867
(lp868
(g83
F0.21
g8
g867
tp869
aS'dillonliu'
p870
(lp871
V2016-10-25 01:27:54
p872
tp873
a(g8
V0.21
p874
(lp875
(g83
F0.21
g8
g874
tp876
aS'EricO'
p877
(lp878
V2016-10-28 03:55:19
p879
tp880
a(g8
V0.21
p881
(lp882
(g83
F0.21
g8
g881
tp883
aS'szh'
p884
(lp885
V2016-10-26 23:28:45
p886
tp887
a(g8
V0.21
p888
(lp889
(g83
F0.21
g8
g888
tp890
aS'Bsgreenb'
p891
(lp892
V2016-10-27 23:54:25
p893
tp894
a(g8
V0.21
p895
(lp896
(g83
F0.21
g8
g895
tp897
aS'ShannonWang'
p898
(lp899
V2016-10-24 23:51:51
p900
tp901
a(g8
V.3-.3^2
p902
(lp903
(g83
F0.21
g8
g902
tp904
aS'alidding'
p905
(lp906
V2016-10-27 23:32:44
p907
tp908
a(g8
V0.21
p909
(lp910
(g83
F0.21
g8
g909
tp911
aS'maddymanu'
p912
(lp913
V2016-10-23 17:22:47
p914
tp915
a(g8
V0.21
p916
(lp917
(g83
F0.21
g8
g916
tp918
aS'maddymanu'
p919
(lp920
V2016-10-23 17:24:41
p921
tp922
a(g8
V0.21
p923
(lp924
(g83
F0.21
g8
g923
tp925
aS'maddymanu'
p926
(lp927
V2016-10-23 17:27:05
p928
tp929
a(g8
V0.21
p930
(lp931
(g83
F0.21
g8
g930
tp932
aS'ThuanNguyen'
p933
(lp934
V2016-10-27 19:08:06
p935
tp936
a(g8
V0.21
p937
(lp938
(g83
F0.21
g8
g937
tp939
aS'ThuanNguyen'
p940
(lp941
V2016-10-27 19:14:13
p942
tp943
a(g8
V0.21
p944
(lp945
(g83
F0.21
g8
g944
tp946
aS'a9zhao'
p947
(lp948
V2016-10-28 06:02:57
p949
tp950
a(g8
V0.3 - 0.3^2
p951
(lp952
(g83
F0.21
g8
g951
tp953
aS'piamsiri'
p954
(lp955
V2016-10-24 04:15:40
p956
tp957
a(g8
V0.3 - 0.3^2
p958
(lp959
(g83
F0.21
g8
g958
tp960
aS'piamsiri'
p961
(lp962
V2016-10-24 04:16:53
p963
tp964
a(g8
V0.3 - 0.3^2
p965
(lp966
(g83
F0.21
g8
g965
tp967
aS'piamsiri'
p968
(lp969
V2016-10-24 04:20:06
p970
tp971
a(g8
V0.3 - 0.3^2
p972
(lp973
(g83
F0.21
g8
g972
tp974
aS'piamsiri'
p975
(lp976
V2016-10-24 04:26:04
p977
tp978
a(g8
V0.3-(0.3*0.3)
p979
(lp980
(g83
F0.21
g8
g979
tp981
aS'StefanWooding'
p982
(lp983
V2016-10-28 02:02:47
p984
tp985
a(g8
V0.3-(0.3^2)
p986
(lp987
(g83
F0.21
g8
g986
tp988
aS'christywong'
p989
(lp990
V2016-10-28 05:17:54
p991
tp992
a(g8
V0.3-(0.3^2)
p993
(lp994
(g83
F0.21
g8
g993
tp995
aS'christywong'
p996
(lp997
V2016-10-28 05:35:25
p998
tp999
a(g8
V0.3-(0.3^2)
p1000
(lp1001
(g83
F0.21
g8
g1000
tp1002
aS'christywong'
p1003
(lp1004
V2016-10-28 05:37:44
p1005
tp1006
a(g8
V.3-.09
p1007
(lp1008
(g83
F0.21
g8
g1007
tp1009
aS'DannyDelCerro'
p1010
(lp1011
V2016-10-25 02:21:20
p1012
tp1013
a(g8
V0.3(1-0.3)
p1014
(lp1015
(g83
F0.21
g8
g1014
tp1016
aS'k1siu'
p1017
(lp1018
V2016-10-23 19:08:06
p1019
tp1020
a(g8
V0.3(1-0.3)
p1021
(lp1022
(g83
F0.21
g8
g1021
tp1023
aS'k1siu'
p1024
(lp1025
V2016-10-23 19:09:30
p1026
tp1027
a(g8
V0.3-0.3*0.3
p1028
(lp1029
(g83
F0.21
g8
g1028
tp1030
aS'wheilson'
p1031
(lp1032
V2016-10-24 00:11:53
p1033
tp1034
a(g8
V.21
p1035
(lp1036
(g83
F0.21
g8
g1035
tp1037
aS'Ian'
p1038
(lp1039
V2016-10-25 00:25:56
p1040
tp1041
a(g8
V.21
p1042
(lp1043
(g83
F0.21
g8
g1042
tp1044
aS'Ian'
p1045
(lp1046
V2016-10-26 01:38:53
p1047
tp1048
a(g8
V.21
p1049
(lp1050
(g83
F0.21
g8
g1049
tp1051
aS'Ian'
p1052
(lp1053
V2016-10-26 01:42:49
p1054
tp1055
a(g8
V.21
p1056
(lp1057
(g83
F0.21
g8
g1056
tp1058
aS'Ian'
p1059
(lp1060
V2016-10-26 01:43:42
p1061
tp1062
a(g8
V0.21
p1063
(lp1064
(g83
F0.21
g8
g1063
tp1065
aS'til005'
p1066
(lp1067
V2016-10-28 04:10:02
p1068
tp1069
a(g8
V0.21
p1070
(lp1071
(g83
F0.21
g8
g1070
tp1072
aS'Zhongting'
p1073
(lp1074
V2016-10-24 21:33:54
p1075
tp1076
a(g8
V0.3 - ( 0.3) ^2
p1077
(lp1078
(g83
F0.21
g8
g1077
tp1079
aS'mbland'
p1080
(lp1081
V2016-10-28 03:05:18
p1082
tp1083
a(g8
V0.3(1-0.3)
p1084
(lp1085
(g83
F0.21
g8
g1084
tp1086
aS'AmirAssad'
p1087
(lp1088
V2016-10-28 01:34:41
p1089
tp1090
a(g8
V0.3(1-0.3)
p1091
(lp1092
(g83
F0.21
g8
g1091
tp1093
aS'AmirAssad'
p1094
(lp1095
V2016-10-28 01:35:39
p1096
tp1097
a(g8
V.21
p1098
(lp1099
(g83
F0.21
g8
g1098
tp1100
aS'katielau'
p1101
(lp1102
V2016-10-27 20:27:00
p1103
tp1104
a(g8
V.21
p1105
(lp1106
(g83
F0.21
g8
g1105
tp1107
aS'katielau'
p1108
(lp1109
V2016-10-27 20:32:55
p1110
tp1111
a(g8
V0.3(1-0.3)
p1112
(lp1113
(g83
F0.21
g8
g1112
tp1114
aS'Ryan'
p1115
(lp1116
V2016-10-25 16:34:44
p1117
tp1118
a(g8
V0.3(1-0.3)
p1119
(lp1120
(g83
F0.21
g8
g1119
tp1121
aS'Ryan'
p1122
(lp1123
V2016-10-25 16:39:21
p1124
tp1125
a(g8
V0.3(1-0.3)
p1126
(lp1127
(g83
F0.21
g8
g1126
tp1128
aS'Ryan'
p1129
(lp1130
V2016-10-25 16:40:23
p1131
tp1132
a(g8
V.21
p1133
(lp1134
(g83
F0.21
g8
g1133
tp1135
aS'zkvick'
p1136
(lp1137
V2016-10-28 05:59:38
p1138
tp1139
a(g8
V.21
p1140
(lp1141
(g83
F0.21
g8
g1140
tp1142
aS'zkvick'
p1143
(lp1144
V2016-10-28 06:02:22
p1145
tp1146
a(g8
V.21
p1147
(lp1148
(g83
F0.21
g8
g1147
tp1149
aS'zkvick'
p1150
(lp1151
V2016-10-28 06:03:14
p1152
tp1153
a(g8
V0.21
p1154
(lp1155
(g83
F0.21
g8
g1154
tp1156
aS'jih089'
p1157
(lp1158
V2016-10-23 02:52:04
p1159
tp1160
a(g8
V0.3-(0.3)^2
p1161
(lp1162
(g83
F0.21
g8
g1161
tp1163
aS'Guillermo'
p1164
(lp1165
V2016-10-23 04:17:00
p1166
tp1167
a(g8
V.3-.09
p1168
(lp1169
(g83
F0.21
g8
g1168
tp1170
aS'RobinO'
p1171
(lp1172
V2016-10-24 01:44:16
p1173
tp1174
a(g8
V.3- (.3)^2
p1175
(lp1176
(g83
F0.21
g8
g1175
tp1177
aS'RobinO'
p1178
(lp1179
V2016-10-24 01:45:28
p1180
tp1181
a(g8
V.3-(.3)^2
p1182
(lp1183
(g83
F0.21
g8
g1182
tp1184
aS'RobinO'
p1185
(lp1186
V2016-10-24 01:48:03
p1187
tp1188
a(g8
V0.3-(0.3^2)
p1189
(lp1190
(g83
F0.21
g8
g1189
tp1191
aS'srrozen'
p1192
(lp1193
V2016-10-27 03:11:09
p1194
tp1195
a(g8
V0.21
p1196
(lp1197
(g83
F0.21
g8
g1196
tp1198
aS'ssolanki'
p1199
(lp1200
V2016-10-28 06:27:56
p1201
tp1202
a(g8
V0.21
p1203
(lp1204
(g83
F0.21
g8
g1203
tp1205
aS'ssolanki'
p1206
(lp1207
V2016-10-28 06:35:52
p1208
tp1209
a(g8
V0.21
p1210
(lp1211
(g83
F0.21
g8
g1210
tp1212
aS'ssolanki'
p1213
(lp1214
V2016-10-28 06:37:17
p1215
tp1216
a(g8
V0.21
p1217
(lp1218
(g83
F0.21
g8
g1217
tp1219
aS'ssolanki'
p1220
(lp1221
V2016-10-28 06:38:20
p1222
tp1223
a(g8
V0.3(1-0.3)
p1224
(lp1225
(g83
F0.21
g8
g1224
tp1226
aS'DannyChan'
p1227
(lp1228
V2016-10-27 05:48:27
p1229
tp1230
a(g8
V0.3(1-0.3)
p1231
(lp1232
(g83
F0.21
g8
g1231
tp1233
aS'DannyChan'
p1234
(lp1235
V2016-10-27 05:50:16
p1236
tp1237
a(g8
V0.21
p1238
(lp1239
(g83
F0.21
g8
g1238
tp1240
aS'A4chau'
p1241
(lp1242
V2016-10-27 07:34:23
p1243
tp1244
a(g8
V0.3-0.09
p1245
(lp1246
(g83
F0.21
g8
g1245
tp1247
aS'Ken'
p1248
(lp1249
V2016-10-28 00:48:40
p1250
tp1251
a(g8
V0.3-0.09
p1252
(lp1253
(g83
F0.21
g8
g1252
tp1254
aS'Ken'
p1255
(lp1256
V2016-10-28 00:51:56
p1257
tp1258
a(g8
V0.3-0.09
p1259
(lp1260
(g83
F0.21
g8
g1259
tp1261
aS'Ken'
p1262
(lp1263
V2016-10-28 00:54:00
p1264
tp1265
a(g8
V0.3-0.3^2
p1266
(lp1267
(g83
F0.21
g8
g1266
tp1268
aS'zow006'
p1269
(lp1270
V2016-10-24 21:47:22
p1271
tp1272
a(g8
V.21
p1273
(lp1274
(g83
F0.21
g8
g1273
tp1275
aS'tdea'
p1276
(lp1277
V2016-10-28 01:27:21
p1278
tp1279
a(g8
V.3 - .3^2
p1280
(lp1281
(g83
F0.21
g8
g1280
tp1282
aS'tdea'
p1283
(lp1284
V2016-10-28 01:28:12
p1285
tp1286
a(g8
V0.3 - ((0.3)^2)
p1287
(lp1288
(g83
F0.21
g8
g1287
tp1289
aS'kmesic'
p1290
(lp1291
V2016-10-27 08:50:13
p1292
tp1293
a(g8
V0.3 - ((0.3)^2)
p1294
(lp1295
(g83
F0.21
g8
g1294
tp1296
aS'kmesic'
p1297
(lp1298
V2016-10-27 08:54:09
p1299
tp1300
a(g8
V 0.3 - ((0.3)^2)
p1301
(lp1302
(g83
F0.21
g8
V0.3 - ((0.3)^2)
p1303
tp1304
aS'kmesic'
p1305
(lp1306
V2016-10-27 08:55:25
p1307
tp1308
a(g8
V0.3 - 0.3^2
p1309
(lp1310
(g83
F0.21
g8
g1309
tp1311
aS'rdabir'
p1312
(lp1313
V2016-10-28 02:48:29
p1314
tp1315
a(g8
V0.3 - 0.3^2
p1316
(lp1317
(g83
F0.21
g8
g1316
tp1318
aS'rdabir'
p1319
(lp1320
V2016-10-28 02:50:32
p1321
tp1322
a(g8
V0.3 - 0.3^2
p1323
(lp1324
(g83
F0.21
g8
g1323
tp1325
aS'rdabir'
p1326
(lp1327
V2016-10-28 02:51:28
p1328
tp1329
a(g8
V0.3 - 0.3^2
p1330
(lp1331
(g83
F0.21
g8
g1330
tp1332
aS'zhc047'
p1333
(lp1334
V2016-10-26 23:52:37
p1335
tp1336
a(g8
V0.21
p1337
(lp1338
(g83
F0.21
g8
g1337
tp1339
aS'a2evans'
p1340
(lp1341
V2016-10-28 05:26:22
p1342
tp1343
a(g8
V0.21
p1344
(lp1345
(g83
F0.21
g8
g1344
tp1346
aS'WilliamZhu'
p1347
(lp1348
V2016-10-28 06:26:46
p1349
tp1350
a(g8
V.21
p1351
(lp1352
(g83
F0.21
g8
g1351
tp1353
aS'oganguli'
p1354
(lp1355
V2016-10-27 21:36:55
p1356
tp1357
a(g8
V.21
p1358
(lp1359
(g83
F0.21
g8
g1358
tp1360
aS'oganguli'
p1361
(lp1362
V2016-10-27 21:41:28
p1363
tp1364
a(g8
V.21
p1365
(lp1366
(g83
F0.21
g8
g1365
tp1367
aS'oganguli'
p1368
(lp1369
V2016-10-27 21:44:35
p1370
tp1371
a(g8
V.21
p1372
(lp1373
(g83
F0.21
g8
g1372
tp1374
aS'oganguli'
p1375
(lp1376
V2016-10-27 21:52:30
p1377
tp1378
a(g8
V0.21
p1379
(lp1380
(g83
F0.21
g8
g1379
tp1381
aS'PhillipJo'
p1382
(lp1383
V2016-10-27 08:38:55
p1384
tp1385
a(g8
V0.3-0.3*0.3
p1386
(lp1387
(g83
F0.21
g8
g1386
tp1388
aS'maxcjx'
p1389
(lp1390
V2016-10-26 01:02:06
p1391
tp1392
a(g8
V.3 - .09
p1393
(lp1394
(g83
F0.21
g8
g1393
tp1395
aS'PizzaPolice'
p1396
(lp1397
V2016-10-26 08:29:23
p1398
tp1399
a(g8
V.3 - .09
p1400
(lp1401
(g83
F0.21
g8
g1400
tp1402
aS'PizzaPolice'
p1403
(lp1404
V2016-10-26 08:31:47
p1405
tp1406
a(g8
V.3 - .09
p1407
(lp1408
(g83
F0.21
g8
g1407
tp1409
aS'PizzaPolice'
p1410
(lp1411
V2016-10-26 08:33:01
p1412
tp1413
a(g8
V.3 - .09
p1414
(lp1415
(g83
F0.21
g8
g1414
tp1416
aS'PizzaPolice'
p1417
(lp1418
V2016-10-26 08:34:50
p1419
tp1420
a(g8
V.3 - .09
p1421
(lp1422
(g83
F0.21
g8
g1421
tp1423
aS'PizzaPolice'
p1424
(lp1425
V2016-10-26 08:35:40
p1426
tp1427
a(g8
V.21
p1428
(lp1429
(g83
F0.21
g8
g1428
tp1430
aS'rleaton'
p1431
(lp1432
V2016-10-28 00:18:20
p1433
tp1434
a(g8
V.3 - .3^2
p1435
(lp1436
(g83
F0.21
g8
g1435
tp1437
aS'MarianCrofts'
p1438
(lp1439
V2016-10-26 21:21:15
p1440
tp1441
a(g8
V0.3-0.3^2
p1442
(lp1443
(g83
F0.21
g8
g1442
tp1444
aS'HaoDong'
p1445
(lp1446
V2016-10-26 23:52:47
p1447
tp1448
a(g8
V0.21
p1449
(lp1450
(g83
F0.21
g8
g1449
tp1451
aS'g5park'
p1452
(lp1453
V2016-10-25 18:59:53
p1454
tp1455
a(g8
V0.21
p1456
(lp1457
(g83
F0.21
g8
g1456
tp1458
aS'g5park'
p1459
(lp1460
V2016-10-25 19:01:05
p1461
tp1462
a(g8
V.21
p1463
(lp1464
(g83
F0.21
g8
g1463
tp1465
aS'jjgallaw'
p1466
(lp1467
V2016-10-25 20:02:46
p1468
tp1469
a(g8
V.21
p1470
(lp1471
(g83
F0.21
g8
g1470
tp1472
aS'jjgallaw'
p1473
(lp1474
V2016-10-25 20:09:49
p1475
tp1476
a(g8
V.21
p1477
(lp1478
(g83
F0.21
g8
g1477
tp1479
aS'mtashman'
p1480
(lp1481
V2016-10-25 00:35:50
p1482
tp1483
a(g8
V.21
p1484
(lp1485
(g83
F0.21
g8
g1484
tp1486
aS'mhatch'
p1487
(lp1488
V2016-10-28 02:50:10
p1489
tp1490
a(g8
V.21
p1491
(lp1492
(g83
F0.21
g8
g1491
tp1493
aS'KabirGogia'
p1494
(lp1495
V2016-10-28 03:22:32
p1496
tp1497
a(g8
V0.3-0.3*0.3
p1498
(lp1499
(g83
F0.21
g8
g1498
tp1500
aS'zpreeces'
p1501
(lp1502
V2016-10-28 03:45:37
p1503
tp1504
a(g8
V0.3 - (0.3)^2
p1505
(lp1506
(g83
F0.21
g8
g1505
tp1507
aS'tzc007'
p1508
(lp1509
V2016-10-26 02:54:09
p1510
tp1511
a(g8
V0.3-0.3^2
p1512
(lp1513
(g83
F0.21
g8
g1512
tp1514
aS'gpagliar'
p1515
(lp1516
V2016-10-27 21:07:42
p1517
tp1518
a(g8
V0.3(.7)
p1519
(lp1520
(g83
F0.21
g8
g1519
tp1521
aS'JessKwok'
p1522
(lp1523
V2016-10-27 05:31:58
p1524
tp1525
a(g8
V.3(.7)
p1526
(lp1527
(g83
F0.21
g8
g1526
tp1528
aS'JessKwok'
p1529
(lp1530
V2016-10-27 05:34:00
p1531
tp1532
a(g8
V0.3 - 0.3^2
p1533
(lp1534
(g83
F0.21
g8
g1533
tp1535
aS'yash'
p1536
(lp1537
V2016-10-27 18:58:19
p1538
tp1539
a(g8
V0.3 - 0.3^2
p1540
(lp1541
(g83
F0.21
g8
g1540
tp1542
aS'yash'
p1543
(lp1544
V2016-10-27 19:00:12
p1545
tp1546
a(g8
V.3 - .3^2
p1547
(lp1548
(g83
F0.21
g8
g1547
tp1549
aS'Aidan'
p1550
(lp1551
V2016-10-28 05:14:36
p1552
tp1553
a(g8
V.3 - .3^2
p1554
(lp1555
(g83
F0.21
g8
g1554
tp1556
aS'Aidan'
p1557
(lp1558
V2016-10-28 05:15:48
p1559
tp1560
a(g8
V.3 - .3^2
p1561
(lp1562
(g83
F0.21
g8
g1561
tp1563
aS'Aidan'
p1564
(lp1565
V2016-10-28 05:17:14
p1566
tp1567
a(g8
V0.3 - 0.09
p1568
(lp1569
(g83
F0.21
g8
g1568
tp1570
aS'ddantas'
p1571
(lp1572
V2016-10-27 07:49:52
p1573
tp1574
a(g8
V0.3-(0.3^2)
p1575
(lp1576
(g83
F0.21
g8
g1575
tp1577
aS'JonDo'
p1578
(lp1579
V2016-10-27 22:39:00
p1580
tp1581
a(g8
V0.3-(0.3^2)
p1582
(lp1583
(g83
F0.21
g8
g1582
tp1584
aS'JonDo'
p1585
(lp1586
V2016-10-27 22:43:45
p1587
tp1588
a(g8
V0.3-(0.3^2)
p1589
(lp1590
(g83
F0.21
g8
g1589
tp1591
aS'JonDo'
p1592
(lp1593
V2016-10-27 22:50:14
p1594
tp1595
assS'3'
p1596
g2
(g3
tp1597
Rp1598
g6
(lp1599
(S'(1+4+9+16)/4'
p1600
V30
p1601
tp1602
a(g1600
V30
p1603
tp1604
a(g1600
V30
p1605
tp1606
a(g1600
V30
p1607
tp1608
a(g1600
V4
p1609
tp1610
a(g1600
V30
p1611
tp1612
a(g1600
V5
p1613
tp1614
a(g1600
V1
p1615
tp1616
a(g1600
V15
p1617
tp1618
asS"['R.0']"
p1619
(lp1620
(g1600
V30 / 2
p1621
(lp1622
(S'R.0'
p1623
F30.0
S'1+4+9+16'
p1624
V30
p1625
tp1626
ag1410
(lp1627
V2016-10-26 08:33:01
p1628
tp1629
asS"['R']"
p1630
(lp1631
(g1600
V7.5
p1632
(lp1633
(g83
F7.5
g1600
g1632
tp1634
ag85
(lp1635
V2016-10-28 01:11:28
p1636
tp1637
a(g1600
V7.5
p1638
(lp1639
(g83
F7.5
g1600
g1638
tp1640
ag92
(lp1641
V2016-10-27 06:45:45
p1642
tp1643
a(g1600
V7.5
p1644
(lp1645
(g83
F7.5
g1600
g1644
tp1646
ag120
(lp1647
V2016-10-27 15:18:00
p1648
tp1649
a(g1600
V7.5
p1650
(lp1651
(g83
F7.5
g1600
g1650
tp1652
ag127
(lp1653
V2016-10-28 03:41:43
p1654
tp1655
a(g1600
V7.5
p1656
(lp1657
(g83
F7.5
g1600
g1656
tp1658
aS'JunnelReboquio'
p1659
(lp1660
V2016-10-26 18:51:37
p1661
tp1662
a(g1600
V7.5
p1663
(lp1664
(g83
F7.5
g1600
g1663
tp1665
ag155
(lp1666
V2016-10-27 19:02:34
p1667
tp1668
a(g1600
V30/4
p1669
(lp1670
(g83
F7.5
g1600
g1669
tp1671
aS'wangpin'
p1672
(lp1673
V2016-10-28 01:23:40
p1674
tp1675
a(g1600
V30/4
p1676
(lp1677
(g83
F7.5
g1600
g1676
tp1678
ag162
(lp1679
V2016-10-28 01:25:33
p1680
tp1681
a(g1600
V30/4
p1682
(lp1683
(g83
F7.5
g1600
g1682
tp1684
ag169
(lp1685
V2016-10-28 01:26:37
p1686
tp1687
a(g1600
V(1^2)*.25+2^(2)*.25+3^(2)*.25+4^(2)*.25
p1688
(lp1689
(g83
F7.5
g1600
g1688
tp1690
ag176
(lp1691
V2016-10-28 05:41:43
p1692
tp1693
a(g1600
V(1/4)+1+(9/4)+4
p1694
(lp1695
(g83
F7.5
g1600
g1694
tp1696
ag211
(lp1697
V2016-10-26 00:21:08
p1698
tp1699
a(g1600
V(1/4)+1+(9/4)+4
p1700
(lp1701
(g83
F7.5
g1600
g1700
tp1702
ag218
(lp1703
V2016-10-26 00:31:20
p1704
tp1705
a(g1600
V15/2
p1706
(lp1707
(g83
F7.5
g1600
g1706
tp1708
ag225
(lp1709
V2016-10-26 23:45:17
p1710
tp1711
a(g1600
V7.5
p1712
(lp1713
(g83
F7.5
g1600
g1712
tp1714
ag232
(lp1715
V2016-10-28 04:22:25
p1716
tp1717
a(g1600
V7.5
p1718
(lp1719
(g83
F7.5
g1600
g1718
tp1720
ag254
(lp1721
V2016-10-26 20:37:20
p1722
tp1723
a(g1600
V7.5
p1724
(lp1725
(g83
F7.5
g1600
g1724
tp1726
aS'safarsi'
p1727
(lp1728
V2016-10-27 19:38:34
p1729
tp1730
a(g1600
V7.5
p1731
(lp1732
(g83
F7.5
g1600
g1731
tp1733
ag268
(lp1734
V2016-10-27 19:43:22
p1735
tp1736
a(g1600
V30/4
p1737
(lp1738
(g83
F7.5
g1600
g1737
tp1739
ag282
(lp1740
V2016-10-25 04:49:29
p1741
tp1742
a(g1600
V15/2
p1743
(lp1744
(g83
F7.5
g1600
g1743
tp1745
ag289
(lp1746
V2016-10-28 03:55:36
p1747
tp1748
a(g1600
V(1+4+9+16)/4
p1749
(lp1750
(g83
F7.5
g1600
g1749
tp1751
ag296
(lp1752
V2016-10-27 23:51:27
p1753
tp1754
a(g1600
V(1*.25)+(4*.25)+(9*.25)+(16*.25)
p1755
(lp1756
(g83
F7.5
g1600
g1755
tp1757
aS'tommyt1109'
p1758
(lp1759
V2016-10-27 08:54:39
p1760
tp1761
a(g1600
V(1*.25)+(4*.25)+(9*.25)+(16*.25)
p1762
(lp1763
(g83
F7.5
g1600
g1762
tp1764
ag303
(lp1765
V2016-10-27 08:55:30
p1766
tp1767
a(g1600
V0.25+4*0.25+9*0.25+16*0.25
p1768
(lp1769
(g83
F7.5
g1600
g1768
tp1770
aS'christhoperbernard'
p1771
(lp1772
V2016-10-27 20:46:55
p1773
tp1774
a(g1600
V0.25+4*0.25+9*0.25+16*0.25
p1775
(lp1776
(g83
F7.5
g1600
g1775
tp1777
aS'christhoperbernard'
p1778
(lp1779
V2016-10-27 20:49:31
p1780
tp1781
a(g1600
V0.25+4*0.25+9*0.25+16*0.25
p1782
(lp1783
(g83
F7.5
g1600
g1782
tp1784
ag317
(lp1785
V2016-10-27 20:50:14
p1786
tp1787
a(g1600
V(1+4+9+16)/4
p1788
(lp1789
(g83
F7.5
g1600
g1788
tp1790
aS'alvinyho'
p1791
(lp1792
V2016-10-27 09:10:17
p1793
tp1794
a(g1600
V7.5
p1795
(lp1796
(g83
F7.5
g1600
g1795
tp1797
ag324
(lp1798
V2016-10-27 21:28:42
p1799
tp1800
a(g1600
V7.5
p1801
(lp1802
(g83
F7.5
g1600
g1801
tp1803
ag331
(lp1804
V2016-10-27 09:38:53
p1805
tp1806
a(g1600
V7.5
p1807
(lp1808
(g83
F7.5
g1600
g1807
tp1809
ag338
(lp1810
V2016-10-27 09:41:34
p1811
tp1812
a(g1600
V7.5
p1813
(lp1814
(g83
F7.5
g1600
g1813
tp1815
ag345
(lp1816
V2016-10-27 09:42:46
p1817
tp1818
a(g1600
V30/4
p1819
(lp1820
(g83
F7.5
g1600
g1819
tp1821
ag352
(lp1822
V2016-10-26 16:38:34
p1823
tp1824
a(g1600
V30/4
p1825
(lp1826
(g83
F7.5
g1600
g1825
tp1827
ag359
(lp1828
V2016-10-23 22:49:20
p1829
tp1830
a(g1600
V7.5
p1831
(lp1832
(g83
F7.5
g1600
g1831
tp1833
aS'yjx99335'
p1834
(lp1835
V2016-10-28 01:25:56
p1836
tp1837
a(g1600
V7.5
p1838
(lp1839
(g83
F7.5
g1600
g1838
tp1840
aS'yjx99335'
p1841
(lp1842
V2016-10-28 01:29:26
p1843
tp1844
a(g1600
V7.5
p1845
(lp1846
(g83
F7.5
g1600
g1845
tp1847
ag366
(lp1848
V2016-10-28 01:30:25
p1849
tp1850
a(g1600
V15/2
p1851
(lp1852
(g83
F7.5
g1600
g1851
tp1853
ag373
(lp1854
V2016-10-27 06:25:29
p1855
tp1856
a(g1600
V15/2
p1857
(lp1858
(g83
F7.5
g1600
g1857
tp1859
ag380
(lp1860
V2016-10-27 06:26:55
p1861
tp1862
a(g1600
V(1+4+9+16)(1/4)
p1863
(lp1864
(g83
F7.5
g1600
g1863
tp1865
ag387
(lp1866
V2016-10-27 22:41:19
p1867
tp1868
a(g1600
V(1+4+9+16)/4
p1869
(lp1870
(g83
F7.5
g1600
g1869
tp1871
aS'Riyang'
p1872
(lp1873
V2016-10-27 22:43:27
p1874
tp1875
a(g1600
V7.5
p1876
(lp1877
(g83
F7.5
g1600
g1876
tp1878
ag394
(lp1879
V2016-10-27 22:44:47
p1880
tp1881
a(g1600
V(1+4+9+16)/4
p1882
(lp1883
(g83
F7.5
g1600
g1882
tp1884
ag401
(lp1885
V2016-10-26 16:35:56
p1886
tp1887
a(g1600
V1*1/4+4*1/4+9*1/4+16*1/4
p1888
(lp1889
(g83
F7.5
g1600
g1888
tp1890
ag408
(lp1891
V2016-10-28 03:02:10
p1892
tp1893
a(g1600
V 1*1/4+4*1/4+9*1/4+16*1/4
p1894
(lp1895
(g83
F7.5
g1600
V1*1/4+4*1/4+9*1/4+16*1/4
p1896
tp1897
ag415
(lp1898
V2016-10-28 03:04:19
p1899
tp1900
a(g1600
V1*1/4+4*1/4+9*1/4+16*1/4
p1901
(lp1902
(g83
F7.5
g1600
g1901
tp1903
ag422
(lp1904
V2016-10-28 03:05:34
p1905
tp1906
a(g1600
V30/4
p1907
(lp1908
(g83
F7.5
g1600
g1907
tp1909
aS'Byung'
p1910
(lp1911
V2016-10-28 00:00:33
p1912
tp1913
a(g1600
V30/4
p1914
(lp1915
(g83
F7.5
g1600
g1914
tp1916
ag429
(lp1917
V2016-10-28 00:04:19
p1918
tp1919
a(g1600
V0.25(1 + 4 + 9 + 16)
p1920
(lp1921
(g83
F7.5
g1600
g1920
tp1922
aS'dzech'
p1923
(lp1924
V2016-10-27 22:24:51
p1925
tp1926
a(g1600
V0.25(1+4+9+16)
p1927
(lp1928
(g83
F7.5
g1600
g1927
tp1929
ag436
(lp1930
V2016-10-27 22:26:40
p1931
tp1932
a(g1600
V0.25*(1+4+9+16)
p1933
(lp1934
(g83
F7.5
g1600
g1933
tp1935
ag443
(lp1936
V2016-10-27 22:28:56
p1937
tp1938
a(g1600
V7.5
p1939
(lp1940
(g83
F7.5
g1600
g1939
tp1941
ag450
(lp1942
V2016-10-25 23:34:20
p1943
tp1944
a(g1600
V(1/4)*1+(1/4)*4+(1/4)*9+(1/4)*16
p1945
(lp1946
(g83
F7.5
g1600
g1945
tp1947
aS'JonahCruz'
p1948
(lp1949
V2016-10-27 20:32:09
p1950
tp1951
a(g1600
V(1/4)*1+(1/4)*4+(1/4)*9+(1/4)*16
p1952
(lp1953
(g83
F7.5
g1600
g1952
tp1954
ag464
(lp1955
V2016-10-27 20:35:30
p1956
tp1957
a(g1600
V7.5
p1958
(lp1959
(g83
F7.5
g1600
g1958
tp1960
ag506
(lp1961
V2016-10-28 05:19:27
p1962
tp1963
a(g1600
V7.5
p1964
(lp1965
(g83
F7.5
g1600
g1964
tp1966
aS'abelmont'
p1967
(lp1968
V2016-10-28 07:01:49
p1969
tp1970
a(g1600
V7.5
p1971
(lp1972
(g83
F7.5
g1600
g1971
tp1973
ag541
(lp1974
V2016-10-28 07:03:12
p1975
tp1976
a(g1600
V(1+4+9+16)/4
p1977
(lp1978
(g83
F7.5
g1600
g1977
tp1979
ag548
(lp1980
V2016-10-26 19:56:06
p1981
tp1982
a(g1600
V7.5
p1983
(lp1984
(g83
F7.5
g1600
g1983
tp1985
ag555
(lp1986
V2016-10-28 04:10:56
p1987
tp1988
a(g1600
V30/4
p1989
(lp1990
(g83
F7.5
g1600
g1989
tp1991
ag576
(lp1992
V2016-10-26 02:39:36
p1993
tp1994
a(g1600
V30/4
p1995
(lp1996
(g83
F7.5
g1600
g1995
tp1997
ag583
(lp1998
V2016-10-26 02:47:28
p1999
tp2000
a(g1600
V30/4
p2001
(lp2002
(g83
F7.5
g1600
g2001
tp2003
ag590
(lp2004
V2016-10-26 02:49:06
p2005
tp2006
a(g1600
V30/4
p2007
(lp2008
(g83
F7.5
g1600
g2007
tp2009
ag597
(lp2010
V2016-10-28 03:42:51
p2011
tp2012
a(g1600
V7.5
p2013
(lp2014
(g83
F7.5
g1600
g2013
tp2015
ag604
(lp2016
V2016-10-28 06:58:53
p2017
tp2018
a(g1600
V7.5
p2019
(lp2020
(g83
F7.5
g1600
g2019
tp2021
ag618
(lp2022
V2016-10-28 02:10:09
p2023
tp2024
a(g1600
V7.5
p2025
(lp2026
(g83
F7.5
g1600
g2025
tp2027
aS'alebedev'
p2028
(lp2029
V2016-10-26 05:03:03
p2030
tp2031
a(g1600
V7.5
p2032
(lp2033
(g83
F7.5
g1600
g2032
tp2034
ag625
(lp2035
V2016-10-26 05:04:12
p2036
tp2037
a(g1600
V7.5
p2038
(lp2039
(g83
F7.5
g1600
g2038
tp2040
ag639
(lp2041
V2016-10-27 22:08:20
p2042
tp2043
a(g1600
V7.5
p2044
(lp2045
(g83
F7.5
g1600
g2044
tp2046
ag646
(lp2047
V2016-10-27 22:10:06
p2048
tp2049
a(g1600
V(1+4+9+16)/4
p2050
(lp2051
(g83
F7.5
g1600
g2050
tp2052
aS't2xu'
p2053
(lp2054
V2016-10-28 02:50:15
p2055
tp2056
a(g1600
V(1+4+9+16)/4
p2057
(lp2058
(g83
F7.5
g1600
g2057
tp2059
aS't2xu'
p2060
(lp2061
V2016-10-28 02:51:55
p2062
tp2063
a(g1600
V(1+4+9+16)/4
p2064
(lp2065
(g83
F7.5
g1600
g2064
tp2066
aS't2xu'
p2067
(lp2068
V2016-10-28 02:53:12
p2069
tp2070
a(g1600
V(1+4+9+16)/4
p2071
(lp2072
(g83
F7.5
g1600
g2071
tp2073
ag653
(lp2074
V2016-10-28 02:56:07
p2075
tp2076
a(g1600
V7.5
p2077
(lp2078
(g83
F7.5
g1600
g2077
tp2079
ag674
(lp2080
V2016-10-27 23:39:17
p2081
tp2082
a(g1600
V7.5
p2083
(lp2084
(g83
F7.5
g1600
g2083
tp2085
ag681
(lp2086
V2016-10-25 20:30:33
p2087
tp2088
a(g1600
V7.5
p2089
(lp2090
(g83
F7.5
g1600
g2089
tp2091
ag688
(lp2092
V2016-10-25 20:31:48
p2093
tp2094
a(g1600
V30/4
p2095
(lp2096
(g83
F7.5
g1600
g2095
tp2097
ag695
(lp2098
V2016-10-27 21:16:58
p2099
tp2100
a(g1600
V1*0.25+4*0.25+9*0.25+16*0.25
p2101
(lp2102
(g83
F7.5
g1600
g2101
tp2103
aS'brandon_vo'
p2104
(lp2105
V2016-10-26 21:20:20
p2106
tp2107
a(g1600
V(1+4+9+16)/4
p2108
(lp2109
(g83
F7.5
g1600
g2108
tp2110
ag702
(lp2111
V2016-10-26 21:22:40
p2112
tp2113
a(g1600
V(1/4)+1+(9/4)+4
p2114
(lp2115
(g83
F7.5
g1600
g2114
tp2116
ag709
(lp2117
V2016-10-27 05:46:26
p2118
tp2119
a(g1600
V15/2
p2120
(lp2121
(g83
F7.5
g1600
g2120
tp2122
ag716
(lp2123
V2016-10-27 07:24:35
p2124
tp2125
a(g1600
V30/4
p2126
(lp2127
(g83
F7.5
g1600
g2126
tp2128
ag723
(lp2129
V2016-10-27 18:12:20
p2130
tp2131
a(g1600
V(1/4)(1)+(1/4)*4+(1/4)*9+(1/4)*16
p2132
(lp2133
(g83
F7.5
g1600
g2132
tp2134
ag730
(lp2135
V2016-10-24 18:57:58
p2136
tp2137
a(g1600
V15/2
p2138
(lp2139
(g83
F7.5
g1600
g2138
tp2140
ag737
(lp2141
V2016-10-24 08:58:06
p2142
tp2143
a(g1600
V30/4
p2144
(lp2145
(g83
F7.5
g1600
g2144
tp2146
ag744
(lp2147
V2016-10-27 05:57:36
p2148
tp2149
a(g1600
V30/4
p2150
(lp2151
(g83
F7.5
g1600
g2150
tp2152
ag751
(lp2153
V2016-10-28 05:20:05
p2154
tp2155
a(g1600
V7.5
p2156
(lp2157
(g83
F7.5
g1600
g2156
tp2158
ag779
(lp2159
V2016-10-27 02:38:48
p2160
tp2161
a(g1600
V7.5
p2162
(lp2163
(g83
F7.5
g1600
g2162
tp2164
ag786
(lp2165
V2016-10-27 02:41:48
p2166
tp2167
a(g1600
V7.5
p2168
(lp2169
(g83
F7.5
g1600
g2168
tp2170
ag793
(lp2171
V2016-10-28 02:32:52
p2172
tp2173
a(g1600
V30/4
p2174
(lp2175
(g83
F7.5
g1600
g2174
tp2176
ag800
(lp2177
V2016-10-28 05:50:52
p2178
tp2179
a(g1600
V7.5
p2180
(lp2181
(g83
F7.5
g1600
g2180
tp2182
ag807
(lp2183
V2016-10-25 20:21:19
p2184
tp2185
a(g1600
V7.5
p2186
(lp2187
(g83
F7.5
g1600
g2186
tp2188
aS'KevinKlein'
p2189
(lp2190
V2016-10-25 02:18:06
p2191
tp2192
a(g1600
V7.5
p2193
(lp2194
(g83
F7.5
g1600
g2193
tp2195
ag814
(lp2196
V2016-10-25 02:19:58
p2197
tp2198
a(g1600
V7.5
p2199
(lp2200
(g83
F7.5
g1600
g2199
tp2201
ag821
(lp2202
V2016-10-28 00:52:26
p2203
tp2204
a(g1600
V7.5
p2205
(lp2206
(g83
F7.5
g1600
g2205
tp2207
ag828
(lp2208
V2016-10-28 00:53:23
p2209
tp2210
a(g1600
V7.5
p2211
(lp2212
(g83
F7.5
g1600
g2211
tp2213
ag842
(lp2214
V2016-10-27 22:34:09
p2215
tp2216
a(g1600
V30/4
p2217
(lp2218
(g83
F7.5
g1600
g2217
tp2219
ag856
(lp2220
V2016-10-26 09:10:38
p2221
tp2222
a(g1600
V7.5
p2223
(lp2224
(g83
F7.5
g1600
g2223
tp2225
aS'njcrow'
p2226
(lp2227
V2016-10-28 04:06:36
p2228
tp2229
a(g1600
V7.5
p2230
(lp2231
(g83
F7.5
g1600
g2230
tp2232
ag863
(lp2233
V2016-10-28 04:08:43
p2234
tp2235
a(g1600
V30/4
p2236
(lp2237
(g83
F7.5
g1600
g2236
tp2238
ag870
(lp2239
V2016-10-25 01:27:54
p2240
tp2241
a(g1600
V7.5
p2242
(lp2243
(g83
F7.5
g1600
g2242
tp2244
ag877
(lp2245
V2016-10-28 03:55:19
p2246
tp2247
a(g1600
V30/4
p2248
(lp2249
(g83
F7.5
g1600
g2248
tp2250
aS'szh'
p2251
(lp2252
V2016-10-26 23:26:11
p2253
tp2254
a(g1600
V30/4
p2255
(lp2256
(g83
F7.5
g1600
g2255
tp2257
ag884
(lp2258
V2016-10-26 23:28:45
p2259
tp2260
a(g1600
V7.5
p2261
(lp2262
(g83
F7.5
g1600
g2261
tp2263
ag891
(lp2264
V2016-10-27 23:54:25
p2265
tp2266
a(g1600
V7.5
p2267
(lp2268
(g83
F7.5
g1600
g2267
tp2269
ag898
(lp2270
V2016-10-24 23:51:51
p2271
tp2272
a(g1600
V7.5
p2273
(lp2274
(g83
F7.5
g1600
g2273
tp2275
ag905
(lp2276
V2016-10-27 23:32:44
p2277
tp2278
a(g1600
V7.5
p2279
(lp2280
(g83
F7.5
g1600
g2279
tp2281
ag919
(lp2282
V2016-10-23 17:24:41
p2283
tp2284
a(g1600
V7.5
p2285
(lp2286
(g83
F7.5
g1600
g2285
tp2287
ag926
(lp2288
V2016-10-23 17:27:05
p2289
tp2290
a(g1600
V7.5
p2291
(lp2292
(g83
F7.5
g1600
g2291
tp2293
ag940
(lp2294
V2016-10-27 19:14:13
p2295
tp2296
a(g1600
V7.5
p2297
(lp2298
(g83
F7.5
g1600
g2297
tp2299
aS'a9zhao'
p2300
(lp2301
V2016-10-28 06:01:02
p2302
tp2303
a(g1600
V7.5
p2304
(lp2305
(g83
F7.5
g1600
g2304
tp2306
ag947
(lp2307
V2016-10-28 06:02:57
p2308
tp2309
a(g1600
V(1/4) + (4/4) + (9/4) + (16/4)
p2310
(lp2311
(g83
F7.5
g1600
g2310
tp2312
aS'piamsiri'
p2313
(lp2314
V2016-10-24 04:22:31
p2315
tp2316
a(g1600
V(1/4) + (4/4) + (9/4) + (16/4)
p2317
(lp2318
(g83
F7.5
g1600
g2317
tp2319
ag975
(lp2320
V2016-10-24 04:26:04
p2321
tp2322
a(g1600
V7.5
p2323
(lp2324
(g83
F7.5
g1600
g2323
tp2325
aS'StefanWooding'
p2326
(lp2327
V2016-10-28 02:01:21
p2328
tp2329
a(g1600
V7.5
p2330
(lp2331
(g83
F7.5
g1600
g2330
tp2332
ag982
(lp2333
V2016-10-28 02:02:47
p2334
tp2335
a(g1600
V0.25*(1^2)+(0.25*(2^2))+(0.25*(3^2))+(0.25*(4^2))
p2336
(lp2337
(g83
F7.5
g1600
g2336
tp2338
ag996
(lp2339
V2016-10-28 05:35:25
p2340
tp2341
a(g1600
V0.25*(1^2)+(0.25*(2^2))+(0.25*(3^2))+(0.25*(4^2))
p2342
(lp2343
(g83
F7.5
g1600
g2342
tp2344
ag1003
(lp2345
V2016-10-28 05:37:44
p2346
tp2347
a(g1600
V(1+4+9+16)/4
p2348
(lp2349
(g83
F7.5
g1600
g2348
tp2350
aS'DannyDelCerro'
p2351
(lp2352
V2016-10-25 02:16:55
p2353
tp2354
a(g1600
V((1+4+9+16)/4)
p2355
(lp2356
(g83
F7.5
g1600
V(1+4+9+16)/4
p2357
tp2358
aS'DannyDelCerro'
p2359
(lp2360
V2016-10-25 02:18:37
p2361
tp2362
a(g1600
V((1+4+9+16)/4)
p2363
(lp2364
(g83
F7.5
g1600
V(1+4+9+16)/4
p2365
tp2366
ag1010
(lp2367
V2016-10-25 02:21:20
p2368
tp2369
a(g1600
V(1+4+9+16)/4
p2370
(lp2371
(g83
F7.5
g1600
g2370
tp2372
ag1024
(lp2373
V2016-10-23 19:09:30
p2374
tp2375
a(g1600
V30/4
p2376
(lp2377
(g83
F7.5
g1600
g2376
tp2378
ag1031
(lp2379
V2016-10-24 00:11:53
p2380
tp2381
a(g1600
V(1+4+9+16)/4
p2382
(lp2383
(g83
F7.5
g1600
g2382
tp2384
ag1052
(lp2385
V2016-10-26 01:42:49
p2386
tp2387
a(g1600
V(1+4+9+16)/4
p2388
(lp2389
(g83
F7.5
g1600
g2388
tp2390
ag1059
(lp2391
V2016-10-26 01:43:42
p2392
tp2393
a(g1600
V7.5
p2394
(lp2395
(g83
F7.5
g1600
g2394
tp2396
ag1066
(lp2397
V2016-10-28 04:10:02
p2398
tp2399
a(g1600
V15/2
p2400
(lp2401
(g83
F7.5
g1600
g2400
tp2402
aS'Zhongting'
p2403
(lp2404
V2016-10-22 17:10:43
p2405
tp2406
a(g1600
V7.5
p2407
(lp2408
(g83
F7.5
g1600
g2407
tp2409
aS'Zhongting'
p2410
(lp2411
V2016-10-22 17:16:06
p2412
tp2413
a(g1600
V7.5
p2414
(lp2415
(g83
F7.5
g1600
g2414
tp2416
aS'Zhongting'
p2417
(lp2418
V2016-10-24 21:32:31
p2419
tp2420
a(g1600
V7.5
p2421
(lp2422
(g83
F7.5
g1600
g2421
tp2423
aS'Zhongting'
p2424
(lp2425
V2016-10-24 21:33:22
p2426
tp2427
a(g1600
V7.5
p2428
(lp2429
(g83
F7.5
g1600
g2428
tp2430
ag1073
(lp2431
V2016-10-24 21:33:54
p2432
tp2433
a(g1600
V(1+4+9+16)/4
p2434
(lp2435
(g83
F7.5
g1600
g2434
tp2436
aS'mbland'
p2437
(lp2438
V2016-10-28 03:03:05
p2439
tp2440
a(g1600
V(1+4+9+16)/4
p2441
(lp2442
(g83
F7.5
g1600
g2441
tp2443
ag1080
(lp2444
V2016-10-28 03:05:18
p2445
tp2446
a(g1600
V(1+4+9+16)/4
p2447
(lp2448
(g83
F7.5
g1600
g2447
tp2449
aS'AmirAssad'
p2450
(lp2451
V2016-10-28 01:33:37
p2452
tp2453
a(g1600
V(1+4+9+16)/4
p2454
(lp2455
(g83
F7.5
g1600
g2454
tp2456
ag1087
(lp2457
V2016-10-28 01:34:41
p2458
tp2459
a(g1600
V(1+4+9+16)/4
p2460
(lp2461
(g83
F7.5
g1600
g2460
tp2462
ag1094
(lp2463
V2016-10-28 01:35:39
p2464
tp2465
a(g1600
V7.5
p2466
(lp2467
(g83
F7.5
g1600
g2466
tp2468
aS'katielau'
p2469
(lp2470
V2016-10-27 20:31:01
p2471
tp2472
a(g1600
V7.5
p2473
(lp2474
(g83
F7.5
g1600
g2473
tp2475
ag1108
(lp2476
V2016-10-27 20:32:55
p2477
tp2478
a(g1600
V30/4
p2479
(lp2480
(g83
F7.5
g1600
g2479
tp2481
aS'Ryan'
p2482
(lp2483
V2016-10-25 02:16:43
p2484
tp2485
a(g1600
V30/4
p2486
(lp2487
(g83
F7.5
g1600
g2486
tp2488
ag1122
(lp2489
V2016-10-25 16:39:21
p2490
tp2491
a(g1600
V30/4
p2492
(lp2493
(g83
F7.5
g1600
g2492
tp2494
ag1129
(lp2495
V2016-10-25 16:40:23
p2496
tp2497
a(g1600
V7.5
p2498
(lp2499
(g83
F7.5
g1600
g2498
tp2500
ag1143
(lp2501
V2016-10-28 06:02:22
p2502
tp2503
a(g1600
V7.5
p2504
(lp2505
(g83
F7.5
g1600
g2504
tp2506
ag1150
(lp2507
V2016-10-28 06:03:14
p2508
tp2509
a(g1600
V7.5
p2510
(lp2511
(g83
F7.5
g1600
g2510
tp2512
aS'jih089'
p2513
(lp2514
V2016-10-22 16:52:26
p2515
tp2516
a(g1600
V7.5
p2517
(lp2518
(g83
F7.5
g1600
g2517
tp2519
aS'jih089'
p2520
(lp2521
V2016-10-22 17:22:10
p2522
tp2523
a(g1600
V7.5
p2524
(lp2525
(g83
F7.5
g1600
g2524
tp2526
aS'jih089'
p2527
(lp2528
V2016-10-23 02:51:24
p2529
tp2530
a(g1600
V7.5
p2531
(lp2532
(g83
F7.5
g1600
g2531
tp2533
ag1157
(lp2534
V2016-10-23 02:52:04
p2535
tp2536
a(g1600
V1*(1/4)+4*(1/4)+9*(1/4)+16*(1/4)
p2537
(lp2538
(g83
F7.5
g1600
g2537
tp2539
aS'Guillermo'
p2540
(lp2541
V2016-10-23 01:21:19
p2542
tp2543
a(g1600
V(1/4)+1+(9/4)+4
p2544
(lp2545
(g83
F7.5
g1600
g2544
tp2546
aS'Guillermo'
p2547
(lp2548
V2016-10-23 01:25:06
p2549
tp2550
a(g1600
V7.5
p2551
(lp2552
(g83
F7.5
g1600
g2551
tp2553
aS'Guillermo'
p2554
(lp2555
V2016-10-23 01:46:57
p2556
tp2557
a(g1600
V(1/4)*(1+4+9+16)
p2558
(lp2559
(g83
F7.5
g1600
g2558
tp2560
aS'Guillermo'
p2561
(lp2562
V2016-10-23 01:56:11
p2563
tp2564
a(g1600
V(1/4)(1+4+9+16)
p2565
(lp2566
(g83
F7.5
g1600
g2565
tp2567
aS'Guillermo'
p2568
(lp2569
V2016-10-23 02:02:24
p2570
tp2571
a(g1600
V1/4*(1+4+9+16)
p2572
(lp2573
(g83
F7.5
g1600
g2572
tp2574
aS'Guillermo'
p2575
(lp2576
V2016-10-23 04:13:31
p2577
tp2578
a(g1600
V1/4*(1+4+9+16)
p2579
(lp2580
(g83
F7.5
g1600
g2579
tp2581
ag75
(lp2582
V2016-10-23 04:15:59
p2583
tp2584
a(g1600
V1/4*(1+4+9+16)
p2585
(lp2586
(g83
F7.5
g1600
g2585
tp2587
ag1164
(lp2588
V2016-10-23 04:17:00
p2589
tp2590
a(g1600
V30/4
p2591
(lp2592
(g83
F7.5
g1600
g2591
tp2593
ag1171
(lp2594
V2016-10-24 01:44:16
p2595
tp2596
a(g1600
V30/4
p2597
(lp2598
(g83
F7.5
g1600
g2597
tp2599
ag1178
(lp2600
V2016-10-24 01:45:28
p2601
tp2602
a(g1600
V30/4
p2603
(lp2604
(g83
F7.5
g1600
g2603
tp2605
ag1185
(lp2606
V2016-10-24 01:48:03
p2607
tp2608
a(g1600
V0.25+1+(9/4)+4
p2609
(lp2610
(g83
F7.5
g1600
g2609
tp2611
ag1192
(lp2612
V2016-10-27 03:11:09
p2613
tp2614
a(g1600
V7.5
p2615
(lp2616
(g83
F7.5
g1600
g2615
tp2617
aS'ssolanki'
p2618
(lp2619
V2016-10-28 06:31:26
p2620
tp2621
a(g1600
V7.5
p2622
(lp2623
(g83
F7.5
g1600
g2622
tp2624
ag1213
(lp2625
V2016-10-28 06:37:17
p2626
tp2627
a(g1600
V7.5
p2628
(lp2629
(g83
F7.5
g1600
g2628
tp2630
ag1220
(lp2631
V2016-10-28 06:38:20
p2632
tp2633
a(g1600
V(1+4+9+16)/4
p2634
(lp2635
(g83
F7.5
g1600
g2634
tp2636
ag1227
(lp2637
V2016-10-27 05:48:27
p2638
tp2639
a(g1600
V(1+4+9+16)/4
p2640
(lp2641
(g83
F7.5
g1600
g2640
tp2642
ag1234
(lp2643
V2016-10-27 05:50:16
p2644
tp2645
a(g1600
V7.5
p2646
(lp2647
(g83
F7.5
g1600
g2646
tp2648
aS'A4chau'
p2649
(lp2650
V2016-10-27 07:31:52
p2651
tp2652
a(g1600
V7.5
p2653
(lp2654
(g83
F7.5
g1600
g2653
tp2655
ag1241
(lp2656
V2016-10-27 07:34:23
p2657
tp2658
a(g1600
V7.5
p2659
(lp2660
(g83
F7.5
g1600
g2659
tp2661
ag1255
(lp2662
V2016-10-28 00:51:56
p2663
tp2664
a(g1600
V7.5
p2665
(lp2666
(g83
F7.5
g1600
g2665
tp2667
ag1262
(lp2668
V2016-10-28 00:54:00
p2669
tp2670
a(g1600
V7.5
p2671
(lp2672
(g83
F7.5
g1600
g2671
tp2673
ag1269
(lp2674
V2016-10-24 21:47:22
p2675
tp2676
a(g1600
V7.5
p2677
(lp2678
(g83
F7.5
g1600
g2677
tp2679
ag1276
(lp2680
V2016-10-28 01:27:21
p2681
tp2682
a(g1600
V7.5
p2683
(lp2684
(g83
F7.5
g1600
g2683
tp2685
ag1283
(lp2686
V2016-10-28 01:28:12
p2687
tp2688
a(g1600
V1/4 * (1+4+9+16)
p2689
(lp2690
(g83
F7.5
g1600
g2689
tp2691
ag1290
(lp2692
V2016-10-27 08:50:13
p2693
tp2694
a(g1600
V1/4 * (1+4+9+16)
p2695
(lp2696
(g83
F7.5
g1600
g2695
tp2697
ag1297
(lp2698
V2016-10-27 08:54:09
p2699
tp2700
a(g1600
V 1/4 * (1+4+9+16)
p2701
(lp2702
(g83
F7.5
g1600
V1/4 * (1+4+9+16)
p2703
tp2704
ag1305
(lp2705
V2016-10-27 08:55:25
p2706
tp2707
a(g1600
V0.25+(0.25*4)+(0.25*9)+(0.25*16)
p2708
(lp2709
(g83
F7.5
g1600
g2708
tp2710
ag1312
(lp2711
V2016-10-28 02:48:29
p2712
tp2713
a(g1600
V0.25+(0.25*4)+(0.25*9)+(0.25*16)
p2714
(lp2715
(g83
F7.5
g1600
g2714
tp2716
ag1319
(lp2717
V2016-10-28 02:50:32
p2718
tp2719
a(g1600
V(0.25+(0.25*4)+(0.25*9)+(0.25*16))
p2720
(lp2721
(g83
F7.5
g1600
V0.25+(0.25*4)+(0.25*9)+(0.25*16)
p2722
tp2723
ag1326
(lp2724
V2016-10-28 02:51:28
p2725
tp2726
a(g1600
V30/4
p2727
(lp2728
(g83
F7.5
g1600
g2727
tp2729
ag1333
(lp2730
V2016-10-26 23:52:37
p2731
tp2732
a(g1600
V7.5
p2733
(lp2734
(g83
F7.5
g1600
g2733
tp2735
ag1340
(lp2736
V2016-10-28 05:26:22
p2737
tp2738
a(g1600
V7.5
p2739
(lp2740
(g83
F7.5
g1600
g2739
tp2741
ag1347
(lp2742
V2016-10-28 06:26:46
p2743
tp2744
a(g1600
V7.5
p2745
(lp2746
(g83
F7.5
g1600
g2745
tp2747
ag1375
(lp2748
V2016-10-27 21:52:30
p2749
tp2750
a(g1600
V7.5
p2751
(lp2752
(g83
F7.5
g1600
g2751
tp2753
ag1382
(lp2754
V2016-10-27 08:38:55
p2755
tp2756
a(g1600
V7.5
p2757
(lp2758
(g83
F7.5
g1600
g2757
tp2759
ag1389
(lp2760
V2016-10-26 01:02:06
p2761
tp2762
a(g1600
V(1+4+9+16)/4
p2763
(lp2764
(g83
F7.5
g1600
g2763
tp2765
ag1424
(lp2766
V2016-10-26 08:35:40
p2767
tp2768
a(g1600
V7.5
p2769
(lp2770
(g83
F7.5
g1600
g2769
tp2771
aS'rleaton'
p2772
(lp2773
V2016-10-28 00:10:18
p2774
tp2775
a(g1600
V7.5
p2776
(lp2777
(g83
F7.5
g1600
g2776
tp2778
aS'rleaton'
p2779
(lp2780
V2016-10-28 00:12:18
p2781
tp2782
a(g1600
V7.5
p2783
(lp2784
(g83
F7.5
g1600
g2783
tp2785
aS'rleaton'
p2786
(lp2787
V2016-10-28 00:15:03
p2788
tp2789
a(g1600
V7.5
p2790
(lp2791
(g83
F7.5
g1600
g2790
tp2792
ag1431
(lp2793
V2016-10-28 00:18:20
p2794
tp2795
a(g1600
V.25 + 1 + .25*9 + 4
p2796
(lp2797
(g83
F7.5
g1600
g2796
tp2798
aS'MarianCrofts'
p2799
(lp2800
V2016-10-26 21:18:35
p2801
tp2802
a(g1600
V.25 + 1 + .25*9 + 4
p2803
(lp2804
(g83
F7.5
g1600
g2803
tp2805
ag1438
(lp2806
V2016-10-26 21:21:15
p2807
tp2808
a(g1600
V30/4
p2809
(lp2810
(g83
F7.5
g1600
g2809
tp2811
ag1445
(lp2812
V2016-10-26 23:52:47
p2813
tp2814
a(g1600
V7.5
p2815
(lp2816
(g83
F7.5
g1600
g2815
tp2817
ag1473
(lp2818
V2016-10-25 20:09:49
p2819
tp2820
a(g1600
V7.5
p2821
(lp2822
(g83
F7.5
g1600
g2821
tp2823
aS'mtashman'
p2824
(lp2825
V2016-10-25 00:34:19
p2826
tp2827
a(g1600
V7.5
p2828
(lp2829
(g83
F7.5
g1600
g2828
tp2830
ag1480
(lp2831
V2016-10-25 00:35:50
p2832
tp2833
a(g1600
V7.5
p2834
(lp2835
(g83
F7.5
g1600
g2834
tp2836
ag1487
(lp2837
V2016-10-28 02:50:10
p2838
tp2839
a(g1600
V7.5
p2840
(lp2841
(g83
F7.5
g1600
g2840
tp2842
ag1494
(lp2843
V2016-10-28 03:22:32
p2844
tp2845
a(g1600
V1*0.25+4*0.25+9*0.25+16*0.25
p2846
(lp2847
(g83
F7.5
g1600
g2846
tp2848
ag1501
(lp2849
V2016-10-28 03:45:37
p2850
tp2851
a(g1600
V1*0.25+4*0.25+9*0.25+16*0.25
p2852
(lp2853
(g83
F7.5
g1600
g2852
tp2854
ag1508
(lp2855
V2016-10-26 02:54:09
p2856
tp2857
a(g1600
V1*1/4+4*1/4+9*1/4+16*1/4
p2858
(lp2859
(g83
F7.5
g1600
g2858
tp2860
aS'gpagliar'
p2861
(lp2862
V2016-10-27 21:04:21
p2863
tp2864
a(g1600
V1*1/4+4*1/4+9*1/4+16*1/4
p2865
(lp2866
(g83
F7.5
g1600
g2865
tp2867
ag1515
(lp2868
V2016-10-27 21:07:42
p2869
tp2870
a(g1600
V(1+4+9+16)/4
p2871
(lp2872
(g83
F7.5
g1600
g2871
tp2873
ag1522
(lp2874
V2016-10-27 05:31:58
p2875
tp2876
a(g1600
V(1+4+9+16)/4
p2877
(lp2878
(g83
F7.5
g1600
g2877
tp2879
ag1529
(lp2880
V2016-10-27 05:34:00
p2881
tp2882
a(g1600
V0.25 + 1 + (9/4) + 4
p2883
(lp2884
(g83
F7.5
g1600
g2883
tp2885
aS'yash'
p2886
(lp2887
V2016-10-27 18:56:46
p2888
tp2889
a(g1600
V0.25 + 1 + 9/4 + 4 
p2890
(lp2891
(g83
F7.5
g1600
V0.25 + 1 + 9/4 + 4
p2892
tp2893
ag1543
(lp2894
V2016-10-27 19:00:12
p2895
tp2896
a(g1600
V(1 + 4 + 9 + 16) / 4
p2897
(lp2898
(g83
F7.5
g1600
g2897
tp2899
ag1550
(lp2900
V2016-10-28 05:14:36
p2901
tp2902
a(g1600
V(1 + 4 + 9 + 16) / 4
p2903
(lp2904
(g83
F7.5
g1600
g2903
tp2905
ag1557
(lp2906
V2016-10-28 05:15:48
p2907
tp2908
a(g1600
V ( 16 + 9 + 4 + 1) / 4
p2909
(lp2910
(g83
F7.5
g1600
V( 16 + 9 + 4 + 1) / 4
p2911
tp2912
ag1564
(lp2913
V2016-10-28 05:17:14
p2914
tp2915
a(g1600
V(1+4+9+16) * .25
p2916
(lp2917
(g83
F7.5
g1600
g2916
tp2918
ag1571
(lp2919
V2016-10-27 07:49:52
p2920
tp2921
a(g1600
V(1(0.25))+(4(0.25))+(9(0.25))+(16(0.25))
p2922
(lp2923
(g83
F7.5
g1600
g2922
tp2924
aS'JonDo'
p2925
(lp2926
V2016-10-27 22:49:04
p2927
tp2928
a(g1600
V(1(0.25))+(4(0.25))+(9(0.25))+(16(0.25))
p2929
(lp2930
(g83
F7.5
g1600
g2929
tp2931
ag1592
(lp2932
V2016-10-27 22:50:14
p2933
tp2934
a(g1600
V7.5
p2935
(lp2936
(g83
F7.5
g1600
g2935
tp2937
aS'DarrenYang'
p2938
(lp2939
V2016-10-22 07:37:56
p2940
tp2941
assS'2'
p2942
g2
(g3
tp2943
Rp2944
g6
(lp2945
(S'(1 + 2 + 3 + 4)/4'
p2946
V1
p2947
tp2948
a(g2946
V10
p2949
tp2950
a(g2946
V1
p2951
tp2952
a(g2946
V2
p2953
tp2954
a(g2946
V4
p2955
tp2956
a(g2946
V1
p2957
tp2958
a(g2946
V1
p2959
tp2960
a(g2946
V4
p2961
tp2962
a(g2946
V0
p2963
tp2964
a(g2946
V1
p2965
tp2966
a(g2946
V5
p2967
tp2968
a(g2946
V2
p2969
tp2970
a(g2946
V3
p2971
tp2972
asS"['R.0']"
p2973
(lp2974
(g2946
V(1+2+3+4)/2
p2975
(lp2976
(S'R.0'
p2977
F10.0
S'1 + 2 + 3 + 4'
p2978
V1+2+3+4
p2979
tp2980
ag1227
(lp2981
V2016-10-27 05:48:27
p2982
tp2983
asS"['R']"
p2984
(lp2985
(g2946
V2.5
p2986
(lp2987
(g83
F2.5
g2946
g2986
tp2988
ag85
(lp2989
V2016-10-28 01:11:28
p2990
tp2991
a(g2946
V2.5
p2992
(lp2993
(g83
F2.5
g2946
g2992
tp2994
ag92
(lp2995
V2016-10-27 06:45:45
p2996
tp2997
a(g2946
V2.5
p2998
(lp2999
(g83
F2.5
g2946
g2998
tp3000
ag120
(lp3001
V2016-10-27 15:18:00
p3002
tp3003
a(g2946
V2.5
p3004
(lp3005
(g83
F2.5
g2946
g3004
tp3006
ag127
(lp3007
V2016-10-28 03:41:43
p3008
tp3009
a(g2946
V2.5
p3010
(lp3011
(g83
F2.5
g2946
g3010
tp3012
ag1659
(lp3013
V2016-10-26 18:51:37
p3014
tp3015
a(g2946
V2.5
p3016
(lp3017
(g83
F2.5
g2946
g3016
tp3018
ag155
(lp3019
V2016-10-27 19:02:34
p3020
tp3021
a(g2946
V10/4
p3022
(lp3023
(g83
F2.5
g2946
g3022
tp3024
ag1672
(lp3025
V2016-10-28 01:23:40
p3026
tp3027
a(g2946
V10/4
p3028
(lp3029
(g83
F2.5
g2946
g3028
tp3030
ag162
(lp3031
V2016-10-28 01:25:33
p3032
tp3033
a(g2946
V10/4
p3034
(lp3035
(g83
F2.5
g2946
g3034
tp3036
ag169
(lp3037
V2016-10-28 01:26:37
p3038
tp3039
a(g2946
V1*.25+2*.25+3*.25+4*.25
p3040
(lp3041
(g83
F2.5
g2946
g3040
tp3042
ag176
(lp3043
V2016-10-28 05:41:43
p3044
tp3045
a(g2946
V10/4
p3046
(lp3047
(g83
F2.5
g2946
g3046
tp3048
ag204
(lp3049
V2016-10-25 23:30:18
p3050
tp3051
a(g2946
V10/4
p3052
(lp3053
(g83
F2.5
g2946
g3052
tp3054
ag218
(lp3055
V2016-10-26 00:31:20
p3056
tp3057
a(g2946
V5/2
p3058
(lp3059
(g83
F2.5
g2946
g3058
tp3060
ag225
(lp3061
V2016-10-26 23:45:17
p3062
tp3063
a(g2946
V2.5
p3064
(lp3065
(g83
F2.5
g2946
g3064
tp3066
ag232
(lp3067
V2016-10-28 04:22:25
p3068
tp3069
a(g2946
V2.5
p3070
(lp3071
(g83
F2.5
g2946
g3070
tp3072
ag254
(lp3073
V2016-10-26 20:37:20
p3074
tp3075
a(g2946
V2.5
p3076
(lp3077
(g83
F2.5
g2946
g3076
tp3078
ag1727
(lp3079
V2016-10-27 19:38:34
p3080
tp3081
a(g2946
V2.5
p3082
(lp3083
(g83
F2.5
g2946
g3082
tp3084
ag268
(lp3085
V2016-10-27 19:43:22
p3086
tp3087
a(g2946
V10/4
p3088
(lp3089
(g83
F2.5
g2946
g3088
tp3090
ag282
(lp3091
V2016-10-25 04:49:29
p3092
tp3093
a(g2946
V5/2
p3094
(lp3095
(g83
F2.5
g2946
g3094
tp3096
ag289
(lp3097
V2016-10-28 03:55:36
p3098
tp3099
a(g2946
V2.5
p3100
(lp3101
(g83
F2.5
g2946
g3100
tp3102
ag296
(lp3103
V2016-10-27 23:51:27
p3104
tp3105
a(g2946
V(1*.25)+(2*.25)+(3*.25)+(4*.25)
p3106
(lp3107
(g83
F2.5
g2946
g3106
tp3108
ag1758
(lp3109
V2016-10-27 08:54:39
p3110
tp3111
a(g2946
V(1*.25)+(2*.25)+(3*.25)+(4*.25)
p3112
(lp3113
(g83
F2.5
g2946
g3112
tp3114
ag303
(lp3115
V2016-10-27 08:55:30
p3116
tp3117
a(g2946
V0.25+2*0.25+3*0.25+4*0.25
p3118
(lp3119
(g83
F2.5
g2946
g3118
tp3120
ag1771
(lp3121
V2016-10-27 20:46:55
p3122
tp3123
a(g2946
V0.25+2*0.25+3*0.25+4*0.25
p3124
(lp3125
(g83
F2.5
g2946
g3124
tp3126
ag1778
(lp3127
V2016-10-27 20:49:31
p3128
tp3129
a(g2946
V0.25+2*0.25+3*0.25+4*0.25
p3130
(lp3131
(g83
F2.5
g2946
g3130
tp3132
ag317
(lp3133
V2016-10-27 20:50:14
p3134
tp3135
a(g2946
V(1 + 2 + 3 + 4)/4
p3136
(lp3137
(g83
F2.5
g2946
g3136
tp3138
ag1791
(lp3139
V2016-10-27 09:10:17
p3140
tp3141
a(g2946
V2.5
p3142
(lp3143
(g83
F2.5
g2946
g3142
tp3144
ag324
(lp3145
V2016-10-27 21:28:42
p3146
tp3147
a(g2946
V2.5
p3148
(lp3149
(g83
F2.5
g2946
g3148
tp3150
ag345
(lp3151
V2016-10-27 09:42:46
p3152
tp3153
a(g2946
V2.5
p3154
(lp3155
(g83
F2.5
g2946
g3154
tp3156
ag352
(lp3157
V2016-10-26 16:38:34
p3158
tp3159
a(g2946
V10/4
p3160
(lp3161
(g83
F2.5
g2946
g3160
tp3162
ag359
(lp3163
V2016-10-23 22:49:20
p3164
tp3165
a(g2946
V2.5
p3166
(lp3167
(g83
F2.5
g2946
g3166
tp3168
ag1834
(lp3169
V2016-10-28 01:25:56
p3170
tp3171
a(g2946
V2.5
p3172
(lp3173
(g83
F2.5
g2946
g3172
tp3174
ag1841
(lp3175
V2016-10-28 01:29:26
p3176
tp3177
a(g2946
V2.5
p3178
(lp3179
(g83
F2.5
g2946
g3178
tp3180
ag366
(lp3181
V2016-10-28 01:30:25
p3182
tp3183
a(g2946
V5/2
p3184
(lp3185
(g83
F2.5
g2946
g3184
tp3186
ag373
(lp3187
V2016-10-27 06:25:29
p3188
tp3189
a(g2946
V5/2
p3190
(lp3191
(g83
F2.5
g2946
g3190
tp3192
ag380
(lp3193
V2016-10-27 06:26:55
p3194
tp3195
a(g2946
V(1+2+3+4)/4
p3196
(lp3197
(g83
F2.5
g2946
g3196
tp3198
ag1872
(lp3199
V2016-10-27 22:43:27
p3200
tp3201
a(g2946
V(1+2+3+4)/4
p3202
(lp3203
(g83
F2.5
g2946
g3202
tp3204
ag394
(lp3205
V2016-10-27 22:44:47
p3206
tp3207
a(g2946
V(1+2+3+4)/4
p3208
(lp3209
(g83
F2.5
g2946
g3208
tp3210
ag401
(lp3211
V2016-10-26 16:35:56
p3212
tp3213
a(g2946
V1*1/4+2*1/4+3*1/4+4*1/4
p3214
(lp3215
(g83
F2.5
g2946
g3214
tp3216
ag408
(lp3217
V2016-10-28 03:02:10
p3218
tp3219
a(g2946
V1*1/4+2*1/4+3*1/4+4*1/4
p3220
(lp3221
(g83
F2.5
g2946
g3220
tp3222
ag422
(lp3223
V2016-10-28 03:05:34
p3224
tp3225
a(g2946
V10/4
p3226
(lp3227
(g83
F2.5
g2946
g3226
tp3228
ag1910
(lp3229
V2016-10-28 00:00:33
p3230
tp3231
a(g2946
V10/4
p3232
(lp3233
(g83
F2.5
g2946
g3232
tp3234
ag429
(lp3235
V2016-10-28 00:04:19
p3236
tp3237
a(g2946
V0.25(1+2+3+4)
p3238
(lp3239
(g83
F2.5
g2946
g3238
tp3240
ag1923
(lp3241
V2016-10-27 22:24:51
p3242
tp3243
a(g2946
V0.25*(1+2+3+4)
p3244
(lp3245
(g83
F2.5
g2946
g3244
tp3246
ag436
(lp3247
V2016-10-27 22:26:40
p3248
tp3249
a(g2946
V0.25*(1+2+3+4)
p3250
(lp3251
(g83
F2.5
g2946
g3250
tp3252
ag443
(lp3253
V2016-10-27 22:28:56
p3254
tp3255
a(g2946
V2.5
p3256
(lp3257
(g83
F2.5
g2946
g3256
tp3258
ag450
(lp3259
V2016-10-25 23:34:20
p3260
tp3261
a(g2946
V(1/4)*1+(1/4)*2+(1/4)*3+(1/4)*4
p3262
(lp3263
(g83
F2.5
g2946
g3262
tp3264
aS'JonahCruz'
p3265
(lp3266
V2016-10-27 20:30:43
p3267
tp3268
a(g2946
V(1/4)*1+(1/4)*2+(1/4)*3+(1/4)*4
p3269
(lp3270
(g83
F2.5
g2946
g3269
tp3271
ag464
(lp3272
V2016-10-27 20:35:30
p3273
tp3274
a(g2946
V2.5
p3275
(lp3276
(g83
F2.5
g2946
g3275
tp3277
ag506
(lp3278
V2016-10-28 05:19:27
p3279
tp3280
a(g2946
V2.5
p3281
(lp3282
(g83
F2.5
g2946
g3281
tp3283
ag534
(lp3284
V2016-10-28 07:00:46
p3285
tp3286
a(g2946
V2.5
p3287
(lp3288
(g83
F2.5
g2946
g3287
tp3289
ag541
(lp3290
V2016-10-28 07:03:12
p3291
tp3292
a(g2946
V(1+2+3+4)/4
p3293
(lp3294
(g83
F2.5
g2946
g3293
tp3295
ag548
(lp3296
V2016-10-26 19:56:06
p3297
tp3298
a(g2946
V2.5
p3299
(lp3300
(g83
F2.5
g2946
g3299
tp3301
ag555
(lp3302
V2016-10-28 04:10:56
p3303
tp3304
a(g2946
V2.5
p3305
(lp3306
(g83
F2.5
g2946
g3305
tp3307
ag569
(lp3308
V2016-10-26 02:37:51
p3309
tp3310
a(g2946
V2.5
p3311
(lp3312
(g83
F2.5
g2946
g3311
tp3313
ag576
(lp3314
V2016-10-26 02:39:36
p3315
tp3316
a(g2946
V2.5
p3317
(lp3318
(g83
F2.5
g2946
g3317
tp3319
ag583
(lp3320
V2016-10-26 02:47:28
p3321
tp3322
a(g2946
V2.5
p3323
(lp3324
(g83
F2.5
g2946
g3323
tp3325
ag590
(lp3326
V2016-10-26 02:49:06
p3327
tp3328
a(g2946
V2.5
p3329
(lp3330
(g83
F2.5
g2946
g3329
tp3331
ag597
(lp3332
V2016-10-28 03:42:51
p3333
tp3334
a(g2946
V2.5
p3335
(lp3336
(g83
F2.5
g2946
g3335
tp3337
ag604
(lp3338
V2016-10-28 06:58:53
p3339
tp3340
a(g2946
V2.5
p3341
(lp3342
(g83
F2.5
g2946
g3341
tp3343
ag611
(lp3344
V2016-10-28 02:08:07
p3345
tp3346
a(g2946
V2.5
p3347
(lp3348
(g83
F2.5
g2946
g3347
tp3349
ag618
(lp3350
V2016-10-28 02:10:09
p3351
tp3352
a(g2946
V2.5
p3353
(lp3354
(g83
F2.5
g2946
g3353
tp3355
ag2028
(lp3356
V2016-10-26 05:03:03
p3357
tp3358
a(g2946
V2.5
p3359
(lp3360
(g83
F2.5
g2946
g3359
tp3361
ag625
(lp3362
V2016-10-26 05:04:12
p3363
tp3364
a(g2946
V2.5
p3365
(lp3366
(g83
F2.5
g2946
g3365
tp3367
ag639
(lp3368
V2016-10-27 22:08:20
p3369
tp3370
a(g2946
V2.5
p3371
(lp3372
(g83
F2.5
g2946
g3371
tp3373
ag646
(lp3374
V2016-10-27 22:10:06
p3375
tp3376
a(g2946
V(1 + 2 + 3 + 4)/4
p3377
(lp3378
(g83
F2.5
g2946
g3377
tp3379
ag2053
(lp3380
V2016-10-28 02:50:15
p3381
tp3382
a(g2946
V(1 + 2 + 3 + 4)/4
p3383
(lp3384
(g83
F2.5
g2946
g3383
tp3385
ag2060
(lp3386
V2016-10-28 02:51:55
p3387
tp3388
a(g2946
V(1 + 2 + 3 + 4)/4
p3389
(lp3390
(g83
F2.5
g2946
g3389
tp3391
ag2067
(lp3392
V2016-10-28 02:53:12
p3393
tp3394
a(g2946
V(1 + 2 + 3 + 4)/4
p3395
(lp3396
(g83
F2.5
g2946
g3395
tp3397
ag653
(lp3398
V2016-10-28 02:56:07
p3399
tp3400
a(g2946
V2.5
p3401
(lp3402
(g83
F2.5
g2946
g3401
tp3403
ag667
(lp3404
V2016-10-27 23:20:26
p3405
tp3406
a(g2946
V2.5
p3407
(lp3408
(g83
F2.5
g2946
g3407
tp3409
ag674
(lp3410
V2016-10-27 23:39:17
p3411
tp3412
a(g2946
V2.5
p3413
(lp3414
(g83
F2.5
g2946
g3413
tp3415
ag681
(lp3416
V2016-10-25 20:30:33
p3417
tp3418
a(g2946
V2.5
p3419
(lp3420
(g83
F2.5
g2946
g3419
tp3421
ag688
(lp3422
V2016-10-25 20:31:48
p3423
tp3424
a(g2946
V10/4
p3425
(lp3426
(g83
F2.5
g2946
g3425
tp3427
ag695
(lp3428
V2016-10-27 21:16:58
p3429
tp3430
a(g2946
V1*0.25+2*0.25+3*0.25+4*0.25
p3431
(lp3432
(g83
F2.5
g2946
g3431
tp3433
ag2104
(lp3434
V2016-10-26 21:20:20
p3435
tp3436
a(g2946
V(1+2+3+4)/4
p3437
(lp3438
(g83
F2.5
g2946
g3437
tp3439
ag702
(lp3440
V2016-10-26 21:22:40
p3441
tp3442
a(g2946
V2.5
p3443
(lp3444
(g83
F2.5
g2946
g3443
tp3445
ag709
(lp3446
V2016-10-27 05:46:26
p3447
tp3448
a(g2946
V5/2
p3449
(lp3450
(g83
F2.5
g2946
g3449
tp3451
ag716
(lp3452
V2016-10-27 07:24:35
p3453
tp3454
a(g2946
V10/4
p3455
(lp3456
(g83
F2.5
g2946
g3455
tp3457
ag723
(lp3458
V2016-10-27 18:12:20
p3459
tp3460
a(g2946
V(1/4)*1+(1/4)*2+(1/4)*3+(1/4)*4
p3461
(lp3462
(g83
F2.5
g2946
g3461
tp3463
ag730
(lp3464
V2016-10-24 18:57:58
p3465
tp3466
a(g2946
V10/4
p3467
(lp3468
(g83
F2.5
g2946
g3467
tp3469
ag737
(lp3470
V2016-10-24 08:58:06
p3471
tp3472
a(g2946
V10/4
p3473
(lp3474
(g83
F2.5
g2946
g3473
tp3475
ag744
(lp3476
V2016-10-27 05:57:36
p3477
tp3478
a(g2946
V10/4
p3479
(lp3480
(g83
F2.5
g2946
g3479
tp3481
ag751
(lp3482
V2016-10-28 05:20:05
p3483
tp3484
a(g2946
V2.5
p3485
(lp3486
(g83
F2.5
g2946
g3485
tp3487
ag772
(lp3488
V2016-10-27 02:37:56
p3489
tp3490
a(g2946
V2.5
p3491
(lp3492
(g83
F2.5
g2946
g3491
tp3493
ag779
(lp3494
V2016-10-27 02:38:48
p3495
tp3496
a(g2946
V2.5
p3497
(lp3498
(g83
F2.5
g2946
g3497
tp3499
ag786
(lp3500
V2016-10-27 02:41:48
p3501
tp3502
a(g2946
V2.5
p3503
(lp3504
(g83
F2.5
g2946
g3503
tp3505
ag793
(lp3506
V2016-10-28 02:32:52
p3507
tp3508
a(g2946
V2.5
p3509
(lp3510
(g83
F2.5
g2946
g3509
tp3511
ag800
(lp3512
V2016-10-28 05:50:52
p3513
tp3514
a(g2946
V2.5
p3515
(lp3516
(g83
F2.5
g2946
g3515
tp3517
ag807
(lp3518
V2016-10-25 20:21:19
p3519
tp3520
a(g2946
V2.5
p3521
(lp3522
(g83
F2.5
g2946
g3521
tp3523
ag2189
(lp3524
V2016-10-25 02:18:06
p3525
tp3526
a(g2946
V2.5
p3527
(lp3528
(g83
F2.5
g2946
g3527
tp3529
ag814
(lp3530
V2016-10-25 02:19:58
p3531
tp3532
a(g2946
V2.5
p3533
(lp3534
(g83
F2.5
g2946
g3533
tp3535
ag821
(lp3536
V2016-10-28 00:52:26
p3537
tp3538
a(g2946
V2.5
p3539
(lp3540
(g83
F2.5
g2946
g3539
tp3541
ag828
(lp3542
V2016-10-28 00:53:23
p3543
tp3544
a(g2946
V2.5
p3545
(lp3546
(g83
F2.5
g2946
g3545
tp3547
ag835
(lp3548
V2016-10-27 22:32:50
p3549
tp3550
a(g2946
V2.5
p3551
(lp3552
(g83
F2.5
g2946
g3551
tp3553
ag842
(lp3554
V2016-10-27 22:34:09
p3555
tp3556
a(g2946
V2.5
p3557
(lp3558
(g83
F2.5
g2946
g3557
tp3559
ag849
(lp3560
V2016-10-26 09:08:49
p3561
tp3562
a(g2946
V2.5
p3563
(lp3564
(g83
F2.5
g2946
g3563
tp3565
ag856
(lp3566
V2016-10-26 09:10:38
p3567
tp3568
a(g2946
V2.5
p3569
(lp3570
(g83
F2.5
g2946
g3569
tp3571
ag2226
(lp3572
V2016-10-28 04:06:36
p3573
tp3574
a(g2946
V2.5
p3575
(lp3576
(g83
F2.5
g2946
g3575
tp3577
ag863
(lp3578
V2016-10-28 04:08:43
p3579
tp3580
a(g2946
V10/4
p3581
(lp3582
(g83
F2.5
g2946
g3581
tp3583
ag870
(lp3584
V2016-10-25 01:27:54
p3585
tp3586
a(g2946
V2.5
p3587
(lp3588
(g83
F2.5
g2946
g3587
tp3589
ag877
(lp3590
V2016-10-28 03:55:19
p3591
tp3592
a(g2946
V2.5
p3593
(lp3594
(g83
F2.5
g2946
g3593
tp3595
ag2251
(lp3596
V2016-10-26 23:26:11
p3597
tp3598
a(g2946
V2.5
p3599
(lp3600
(g83
F2.5
g2946
g3599
tp3601
ag884
(lp3602
V2016-10-26 23:28:45
p3603
tp3604
a(g2946
V2.5
p3605
(lp3606
(g83
F2.5
g2946
g3605
tp3607
ag891
(lp3608
V2016-10-27 23:54:25
p3609
tp3610
a(g2946
V2.5
p3611
(lp3612
(g83
F2.5
g2946
g3611
tp3613
ag898
(lp3614
V2016-10-24 23:51:51
p3615
tp3616
a(g2946
V2.5
p3617
(lp3618
(g83
F2.5
g2946
g3617
tp3619
ag905
(lp3620
V2016-10-27 23:32:44
p3621
tp3622
a(g2946
V2.5
p3623
(lp3624
(g83
F2.5
g2946
g3623
tp3625
ag919
(lp3626
V2016-10-23 17:24:41
p3627
tp3628
a(g2946
V2.5
p3629
(lp3630
(g83
F2.5
g2946
g3629
tp3631
ag926
(lp3632
V2016-10-23 17:27:05
p3633
tp3634
a(g2946
V2.5
p3635
(lp3636
(g83
F2.5
g2946
g3635
tp3637
ag940
(lp3638
V2016-10-27 19:14:13
p3639
tp3640
a(g2946
V2.5
p3641
(lp3642
(g83
F2.5
g2946
g3641
tp3643
ag2300
(lp3644
V2016-10-28 06:01:02
p3645
tp3646
a(g2946
V2.5
p3647
(lp3648
(g83
F2.5
g2946
g3647
tp3649
ag947
(lp3650
V2016-10-28 06:02:57
p3651
tp3652
a(g2946
V(1/4) + (2/4) + (3/4) + (4/4)
p3653
(lp3654
(g83
F2.5
g2946
g3653
tp3655
ag968
(lp3656
V2016-10-24 04:20:06
p3657
tp3658
a(g2946
V(1/4) + (2/4) + (3/4) + (4/4)
p3659
(lp3660
(g83
F2.5
g2946
g3659
tp3661
ag975
(lp3662
V2016-10-24 04:26:04
p3663
tp3664
a(g2946
V2.5
p3665
(lp3666
(g83
F2.5
g2946
g3665
tp3667
ag2326
(lp3668
V2016-10-28 02:01:21
p3669
tp3670
a(g2946
V2.5
p3671
(lp3672
(g83
F2.5
g2946
g3671
tp3673
ag982
(lp3674
V2016-10-28 02:02:47
p3675
tp3676
a(g2946
V0.25*1+0.25*2+0.25*3+0.25*4
p3677
(lp3678
(g83
F2.5
g2946
g3677
tp3679
ag1003
(lp3680
V2016-10-28 05:37:44
p3681
tp3682
a(g2946
V10/4
p3683
(lp3684
(g83
F2.5
g2946
g3683
tp3685
ag2351
(lp3686
V2016-10-25 02:16:55
p3687
tp3688
a(g2946
V(10/4)
p3689
(lp3690
(g83
F2.5
g2946
V10/4
p3691
tp3692
ag2359
(lp3693
V2016-10-25 02:18:37
p3694
tp3695
a(g2946
V10/4
p3696
(lp3697
(g83
F2.5
g2946
g3696
tp3698
ag1010
(lp3699
V2016-10-25 02:21:20
p3700
tp3701
a(g2946
V(1 + 2 + 3 + 4)/4
p3702
(lp3703
(g83
F2.5
g2946
g3702
tp3704
ag1017
(lp3705
V2016-10-23 19:08:06
p3706
tp3707
a(g2946
V(1+2+3+4)/4
p3708
(lp3709
(g83
F2.5
g2946
g3708
tp3710
ag1024
(lp3711
V2016-10-23 19:09:30
p3712
tp3713
a(g2946
V2.5
p3714
(lp3715
(g83
F2.5
g2946
g3714
tp3716
ag1031
(lp3717
V2016-10-24 00:11:53
p3718
tp3719
a(g2946
V10/4
p3720
(lp3721
(g83
F2.5
g2946
g3720
tp3722
ag1052
(lp3723
V2016-10-26 01:42:49
p3724
tp3725
a(g2946
V10/4
p3726
(lp3727
(g83
F2.5
g2946
g3726
tp3728
ag1059
(lp3729
V2016-10-26 01:43:42
p3730
tp3731
a(g2946
V2.5
p3732
(lp3733
(g83
F2.5
g2946
g3732
tp3734
ag1066
(lp3735
V2016-10-28 04:10:02
p3736
tp3737
a(g2946
V5/2
p3738
(lp3739
(g83
F2.5
g2946
g3738
tp3740
ag2403
(lp3741
V2016-10-22 17:10:43
p3742
tp3743
a(g2946
V2.5
p3744
(lp3745
(g83
F2.5
g2946
g3744
tp3746
ag2410
(lp3747
V2016-10-22 17:16:06
p3748
tp3749
a(g2946
V2.5
p3750
(lp3751
(g83
F2.5
g2946
g3750
tp3752
ag2417
(lp3753
V2016-10-24 21:32:31
p3754
tp3755
a(g2946
V2.5
p3756
(lp3757
(g83
F2.5
g2946
g3756
tp3758
ag2424
(lp3759
V2016-10-24 21:33:22
p3760
tp3761
a(g2946
V2.5
p3762
(lp3763
(g83
F2.5
g2946
g3762
tp3764
ag1073
(lp3765
V2016-10-24 21:33:54
p3766
tp3767
a(g2946
V(1+2+3+4)/4
p3768
(lp3769
(g83
F2.5
g2946
g3768
tp3770
ag2437
(lp3771
V2016-10-28 03:03:05
p3772
tp3773
a(g2946
V(1+2+3+4)/4
p3774
(lp3775
(g83
F2.5
g2946
g3774
tp3776
ag1080
(lp3777
V2016-10-28 03:05:18
p3778
tp3779
a(g2946
V10/4
p3780
(lp3781
(g83
F2.5
g2946
g3780
tp3782
ag2450
(lp3783
V2016-10-28 01:33:37
p3784
tp3785
a(g2946
V10/4
p3786
(lp3787
(g83
F2.5
g2946
g3786
tp3788
ag1087
(lp3789
V2016-10-28 01:34:41
p3790
tp3791
a(g2946
V10/4
p3792
(lp3793
(g83
F2.5
g2946
g3792
tp3794
ag1094
(lp3795
V2016-10-28 01:35:39
p3796
tp3797
a(g2946
V2.5
p3798
(lp3799
(g83
F2.5
g2946
g3798
tp3800
aS'katielau'
p3801
(lp3802
V2016-10-27 20:29:09
p3803
tp3804
a(g2946
V2.5
p3805
(lp3806
(g83
F2.5
g2946
g3805
tp3807
ag1108
(lp3808
V2016-10-27 20:32:55
p3809
tp3810
a(g2946
V10/4
p3811
(lp3812
(g83
F2.5
g2946
g3811
tp3813
aS'Ryan'
p3814
(lp3815
V2016-10-25 02:14:30
p3816
tp3817
a(g2946
V10/4
p3818
(lp3819
(g83
F2.5
g2946
g3818
tp3820
ag2482
(lp3821
V2016-10-25 02:16:43
p3822
tp3823
a(g2946
V10/4
p3824
(lp3825
(g83
F2.5
g2946
g3824
tp3826
ag1122
(lp3827
V2016-10-25 16:39:21
p3828
tp3829
a(g2946
V10/4
p3830
(lp3831
(g83
F2.5
g2946
g3830
tp3832
ag1129
(lp3833
V2016-10-25 16:40:23
p3834
tp3835
a(g2946
V2.5
p3836
(lp3837
(g83
F2.5
g2946
g3836
tp3838
ag1143
(lp3839
V2016-10-28 06:02:22
p3840
tp3841
a(g2946
V2.5
p3842
(lp3843
(g83
F2.5
g2946
g3842
tp3844
ag1150
(lp3845
V2016-10-28 06:03:14
p3846
tp3847
a(g2946
V2.5
p3848
(lp3849
(g83
F2.5
g2946
g3848
tp3850
aS'jih089'
p3851
(lp3852
V2016-10-22 16:43:45
p3853
tp3854
a(g2946
V2.5
p3855
(lp3856
(g83
F2.5
g2946
g3855
tp3857
aS'jih089'
p3858
(lp3859
V2016-10-22 16:46:56
p3860
tp3861
a(g2946
V2.5
p3862
(lp3863
(g83
F2.5
g2946
g3862
tp3864
aS'jih089'
p3865
(lp3866
V2016-10-22 16:55:36
p3867
tp3868
a(g2946
V2.5
p3869
(lp3870
(g83
F2.5
g2946
g3869
tp3871
aS'jih089'
p3872
(lp3873
V2016-10-22 17:15:16
p3874
tp3875
a(g2946
V2.5
p3876
(lp3877
(g83
F2.5
g2946
g3876
tp3878
ag2520
(lp3879
V2016-10-22 17:22:10
p3880
tp3881
a(g2946
V2.5
p3882
(lp3883
(g83
F2.5
g2946
g3882
tp3884
aS'jih089'
p3885
(lp3886
V2016-10-22 18:35:27
p3887
tp3888
a(g2946
V2.5
p3889
(lp3890
(g83
F2.5
g2946
g3889
tp3891
aS'jih089'
p3892
(lp3893
V2016-10-23 02:01:17
p3894
tp3895
a(g2946
V2.5
p3896
(lp3897
(g83
F2.5
g2946
g3896
tp3898
aS'jih089'
p3899
(lp3900
V2016-10-23 02:50:31
p3901
tp3902
a(g2946
V2.5
p3903
(lp3904
(g83
F2.5
g2946
g3903
tp3905
ag2527
(lp3906
V2016-10-23 02:51:24
p3907
tp3908
a(g2946
V2.5
p3909
(lp3910
(g83
F2.5
g2946
g3909
tp3911
ag1157
(lp3912
V2016-10-23 02:52:04
p3913
tp3914
a(g2946
V1*(1/4)+2*(1/4)+3*(1/4)+4*(1/4)
p3915
(lp3916
(g83
F2.5
g2946
g3915
tp3917
ag2540
(lp3918
V2016-10-23 01:21:19
p3919
tp3920
a(g2946
V(1/4)+(1/2)+(3/4)+1
p3921
(lp3922
(g83
F2.5
g2946
g3921
tp3923
aS'Guillermo'
p3924
(lp3925
V2016-10-23 01:32:36
p3926
tp3927
a(g2946
V2.5
p3928
(lp3929
(g83
F2.5
g2946
g3928
tp3930
ag2554
(lp3931
V2016-10-23 01:46:57
p3932
tp3933
a(g2946
V(1/4)*(1+2+3+4)
p3934
(lp3935
(g83
F2.5
g2946
g3934
tp3936
ag2561
(lp3937
V2016-10-23 01:56:11
p3938
tp3939
a(g2946
V(1+2+3+4)/4
p3940
(lp3941
(g83
F2.5
g2946
g3940
tp3942
ag2568
(lp3943
V2016-10-23 02:02:24
p3944
tp3945
a(g2946
V(1/4)*(1+2+3+4)
p3946
(lp3947
(g83
F2.5
g2946
g3946
tp3948
ag2575
(lp3949
V2016-10-23 04:13:31
p3950
tp3951
a(g2946
V1/4*(1+2+3+4)
p3952
(lp3953
(g83
F2.5
g2946
g3952
tp3954
ag75
(lp3955
V2016-10-23 04:15:59
p3956
tp3957
a(g2946
V1/4*(1+2+3+4)
p3958
(lp3959
(g83
F2.5
g2946
g3958
tp3960
ag1164
(lp3961
V2016-10-23 04:17:00
p3962
tp3963
a(g2946
V10/4
p3964
(lp3965
(g83
F2.5
g2946
g3964
tp3966
ag1178
(lp3967
V2016-10-24 01:45:28
p3968
tp3969
a(g2946
V10/4
p3970
(lp3971
(g83
F2.5
g2946
g3970
tp3972
ag1185
(lp3973
V2016-10-24 01:48:03
p3974
tp3975
a(g2946
V0.25+0.5+0.75+1
p3976
(lp3977
(g83
F2.5
g2946
g3976
tp3978
ag1192
(lp3979
V2016-10-27 03:11:09
p3980
tp3981
a(g2946
V2.5
p3982
(lp3983
(g83
F2.5
g2946
g3982
tp3984
aS'ssolanki'
p3985
(lp3986
V2016-10-28 06:30:15
p3987
tp3988
a(g2946
V2.5
p3989
(lp3990
(g83
F2.5
g2946
g3989
tp3991
ag1213
(lp3992
V2016-10-28 06:37:17
p3993
tp3994
a(g2946
V2.5
p3995
(lp3996
(g83
F2.5
g2946
g3995
tp3997
ag1220
(lp3998
V2016-10-28 06:38:20
p3999
tp4000
a(g2946
V10/4
p4001
(lp4002
(g83
F2.5
g2946
g4001
tp4003
ag1234
(lp4004
V2016-10-27 05:50:16
p4005
tp4006
a(g2946
V2.5
p4007
(lp4008
(g83
F2.5
g2946
g4007
tp4009
ag2649
(lp4010
V2016-10-27 07:31:52
p4011
tp4012
a(g2946
V2.5
p4013
(lp4014
(g83
F2.5
g2946
g4013
tp4015
ag1241
(lp4016
V2016-10-27 07:34:23
p4017
tp4018
a(g2946
V2.5
p4019
(lp4020
(g83
F2.5
g2946
g4019
tp4021
ag1262
(lp4022
V2016-10-28 00:54:00
p4023
tp4024
a(g2946
V2.5
p4025
(lp4026
(g83
F2.5
g2946
g4025
tp4027
ag1269
(lp4028
V2016-10-24 21:47:22
p4029
tp4030
a(g2946
V2.5
p4031
(lp4032
(g83
F2.5
g2946
g4031
tp4033
ag1283
(lp4034
V2016-10-28 01:28:12
p4035
tp4036
a(g2946
V1/4 * (1+2+3+4)
p4037
(lp4038
(g83
F2.5
g2946
g4037
tp4039
ag1290
(lp4040
V2016-10-27 08:50:13
p4041
tp4042
a(g2946
V1/4 * (1+2+3+4)
p4043
(lp4044
(g83
F2.5
g2946
g4043
tp4045
ag1297
(lp4046
V2016-10-27 08:54:09
p4047
tp4048
a(g2946
V1/4*(1+2+3+4)
p4049
(lp4050
(g83
F2.5
g2946
g4049
tp4051
ag1305
(lp4052
V2016-10-27 08:55:25
p4053
tp4054
a(g2946
V0.25+(0.25*2)+(0.25*3)+(0.25*4)
p4055
(lp4056
(g83
F2.5
g2946
g4055
tp4057
ag1312
(lp4058
V2016-10-28 02:48:29
p4059
tp4060
a(g2946
V0.25+(0.25*2)+(0.25*3)+(0.25*4)
p4061
(lp4062
(g83
F2.5
g2946
g4061
tp4063
ag1319
(lp4064
V2016-10-28 02:50:32
p4065
tp4066
a(g2946
V(0.25+(0.25*2)+(0.25*3)+(0.25*4))
p4067
(lp4068
(g83
F2.5
g2946
V0.25+(0.25*2)+(0.25*3)+(0.25*4)
p4069
tp4070
ag1326
(lp4071
V2016-10-28 02:51:28
p4072
tp4073
a(g2946
V2.5
p4074
(lp4075
(g83
F2.5
g2946
g4074
tp4076
ag1333
(lp4077
V2016-10-26 23:52:37
p4078
tp4079
a(g2946
V2.5
p4080
(lp4081
(g83
F2.5
g2946
g4080
tp4082
ag1340
(lp4083
V2016-10-28 05:26:22
p4084
tp4085
a(g2946
V2.5
p4086
(lp4087
(g83
F2.5
g2946
g4086
tp4088
ag1347
(lp4089
V2016-10-28 06:26:46
p4090
tp4091
a(g2946
V2.5
p4092
(lp4093
(g83
F2.5
g2946
g4092
tp4094
ag1361
(lp4095
V2016-10-27 21:41:28
p4096
tp4097
a(g2946
V2.5
p4098
(lp4099
(g83
F2.5
g2946
g4098
tp4100
ag1368
(lp4101
V2016-10-27 21:44:35
p4102
tp4103
a(g2946
V2.5
p4104
(lp4105
(g83
F2.5
g2946
g4104
tp4106
ag1375
(lp4107
V2016-10-27 21:52:30
p4108
tp4109
a(g2946
V2.5
p4110
(lp4111
(g83
F2.5
g2946
g4110
tp4112
ag1382
(lp4113
V2016-10-27 08:38:55
p4114
tp4115
a(g2946
V2.5
p4116
(lp4117
(g83
F2.5
g2946
g4116
tp4118
ag1389
(lp4119
V2016-10-26 01:02:06
p4120
tp4121
a(g2946
V2.5
p4122
(lp4123
(g83
F2.5
g2946
g4122
tp4124
ag1403
(lp4125
V2016-10-26 08:31:47
p4126
tp4127
a(g2946
V2.5
p4128
(lp4129
(g83
F2.5
g2946
g4128
tp4130
ag1410
(lp4131
V2016-10-26 08:33:01
p4132
tp4133
a(g2946
V2.5
p4134
(lp4135
(g83
F2.5
g2946
g4134
tp4136
ag1417
(lp4137
V2016-10-26 08:34:50
p4138
tp4139
a(g2946
V2.5
p4140
(lp4141
(g83
F2.5
g2946
g4140
tp4142
ag1424
(lp4143
V2016-10-26 08:35:40
p4144
tp4145
a(g2946
V2.5
p4146
(lp4147
(g83
F2.5
g2946
g4146
tp4148
ag2772
(lp4149
V2016-10-28 00:10:18
p4150
tp4151
a(g2946
V2.5
p4152
(lp4153
(g83
F2.5
g2946
g4152
tp4154
ag2779
(lp4155
V2016-10-28 00:12:18
p4156
tp4157
a(g2946
V2.5
p4158
(lp4159
(g83
F2.5
g2946
g4158
tp4160
ag2786
(lp4161
V2016-10-28 00:15:03
p4162
tp4163
a(g2946
V2.5
p4164
(lp4165
(g83
F2.5
g2946
g4164
tp4166
ag1431
(lp4167
V2016-10-28 00:18:20
p4168
tp4169
a(g2946
V0.25 + .5 + .75 + 1
p4170
(lp4171
(g83
F2.5
g2946
g4170
tp4172
ag2799
(lp4173
V2016-10-26 21:18:35
p4174
tp4175
a(g2946
V0.25 + .5 + .75 + 1
p4176
(lp4177
(g83
F2.5
g2946
g4176
tp4178
ag1438
(lp4179
V2016-10-26 21:21:15
p4180
tp4181
a(g2946
V10/4
p4182
(lp4183
(g83
F2.5
g2946
g4182
tp4184
ag1445
(lp4185
V2016-10-26 23:52:47
p4186
tp4187
a(g2946
V2.5
p4188
(lp4189
(g83
F2.5
g2946
g4188
tp4190
ag1473
(lp4191
V2016-10-25 20:09:49
p4192
tp4193
a(g2946
V2.5
p4194
(lp4195
(g83
F2.5
g2946
g4194
tp4196
ag2824
(lp4197
V2016-10-25 00:34:19
p4198
tp4199
a(g2946
V2.5
p4200
(lp4201
(g83
F2.5
g2946
g4200
tp4202
ag1480
(lp4203
V2016-10-25 00:35:50
p4204
tp4205
a(g2946
V2.5
p4206
(lp4207
(g83
F2.5
g2946
g4206
tp4208
ag1487
(lp4209
V2016-10-28 02:50:10
p4210
tp4211
a(g2946
V2.5
p4212
(lp4213
(g83
F2.5
g2946
g4212
tp4214
ag1494
(lp4215
V2016-10-28 03:22:32
p4216
tp4217
a(g2946
V1*0.25+2*0.25+3*0.25+4*0.25
p4218
(lp4219
(g83
F2.5
g2946
g4218
tp4220
ag1501
(lp4221
V2016-10-28 03:45:37
p4222
tp4223
a(g2946
V1*0.25+2*0.25+3*0.25+4*0.25
p4224
(lp4225
(g83
F2.5
g2946
g4224
tp4226
ag1508
(lp4227
V2016-10-26 02:54:09
p4228
tp4229
a(g2946
V1*1/4+2*1/4+3*1/4+4*1/4
p4230
(lp4231
(g83
F2.5
g2946
g4230
tp4232
aS'gpagliar'
p4233
(lp4234
V2016-10-27 21:02:40
p4235
tp4236
a(g2946
V1*1/4+2*1/4+3*1/4+4*1/4
p4237
(lp4238
(g83
F2.5
g2946
g4237
tp4239
ag1515
(lp4240
V2016-10-27 21:07:42
p4241
tp4242
a(g2946
V(1 + 2 + 3 + 4)/4
p4243
(lp4244
(g83
F2.5
g2946
g4243
tp4245
ag1522
(lp4246
V2016-10-27 05:31:58
p4247
tp4248
a(g2946
V(1 + 2 + 3 + 4)/4
p4249
(lp4250
(g83
F2.5
g2946
g4249
tp4251
ag1529
(lp4252
V2016-10-27 05:34:00
p4253
tp4254
a(g2946
V2.5
p4255
(lp4256
(g83
F2.5
g2946
g4255
tp4257
ag2886
(lp4258
V2016-10-27 18:56:46
p4259
tp4260
a(g2946
V2.5
p4261
(lp4262
(g83
F2.5
g2946
g4261
tp4263
ag1543
(lp4264
V2016-10-27 19:00:12
p4265
tp4266
a(g2946
V( 4 + 3 + 2 + 1) / 4
p4267
(lp4268
(g83
F2.5
g2946
g4267
tp4269
ag1550
(lp4270
V2016-10-28 05:14:36
p4271
tp4272
a(g2946
V( 4 + 3 + 2 + 1) / 4
p4273
(lp4274
(g83
F2.5
g2946
g4273
tp4275
ag1557
(lp4276
V2016-10-28 05:15:48
p4277
tp4278
a(g2946
V ( 4 + 3 + 2 + 1) / 4
p4279
(lp4280
(g83
F2.5
g2946
V( 4 + 3 + 2 + 1) / 4
p4281
tp4282
ag1564
(lp4283
V2016-10-28 05:17:14
p4284
tp4285
a(g2946
V(1+2+3+4)/4
p4286
(lp4287
(g83
F2.5
g2946
g4286
tp4288
ag1571
(lp4289
V2016-10-27 07:49:52
p4290
tp4291
a(g2946
V(1(0.25))+(2(0.25))+(3(0.25))+(4(0.25))
p4292
(lp4293
(g83
F2.5
g2946
g4292
tp4294
ag2925
(lp4295
V2016-10-27 22:49:04
p4296
tp4297
a(g2946
V(1(0.25))+(2(0.25))+(3(0.25))+(4(0.25))
p4298
(lp4299
(g83
F2.5
g2946
g4298
tp4300
ag1592
(lp4301
V2016-10-27 22:50:14
p4302
tp4303
a(g2946
V2.5
p4304
(lp4305
(g83
F2.5
g2946
g4304
tp4306
ag2938
(lp4307
V2016-10-22 07:37:56
p4308
tp4309
assS'5'
p4310
g2
(g3
tp4311
Rp4312
S"['R.1']"
p4313
(lp4314
(S'(2.25 + 0.25 + 0.25 + 2.25)/4'
p4315
V1/4
p4316
(lp4317
(S'R.1'
p4318
F4.0
S'4'
p4319
V4
p4320
tp4321
ag99
(lp4322
V2016-10-27 15:06:25
p4323
tp4324
a(g4315
V3/4
p4325
(lp4326
(S'R.1'
p4327
F4.0
g4319
g4320
tp4328
ag1672
(lp4329
V2016-10-28 01:23:40
p4330
tp4331
a(g4315
V3/4
p4332
(lp4333
(S'R.1'
p4334
F4.0
g4319
g4320
tp4335
ag162
(lp4336
V2016-10-28 01:25:33
p4337
tp4338
a(g4315
V(2.5+0.25+0.25+2.25)/4
p4339
(lp4340
(S'R.1'
p4341
F4.0
g4319
g4320
tp4342
ag1087
(lp4343
V2016-10-28 01:34:41
p4344
tp4345
a(g4315
V1/4
p4346
(lp4347
(S'R.1'
p4348
F4.0
g4319
g4320
tp4349
ag1452
(lp4350
V2016-10-25 18:59:53
p4351
tp4352
asg6
(lp4353
(g4315
V5
p4354
tp4355
a(g4315
V29
p4356
tp4357
a(g4315
V10
p4358
tp4359
a(g4315
V5
p4360
tp4361
a(g4315
V5
p4362
tp4363
a(g4315
V9
p4364
tp4365
a(g4315
V5
p4366
tp4367
a(g4315
V5
p4368
tp4369
a(g4315
V5
p4370
tp4371
a(g4315
V5
p4372
tp4373
a(g4315
V5
p4374
tp4375
a(g4315
V5
p4376
tp4377
a(g4315
V5
p4378
tp4379
a(g4315
V5
p4380
tp4381
a(g4315
V50
p4382
tp4383
a(g4315
V5
p4384
tp4385
asg59
(lp4386
(g4315
V0.25(1 + 4 + 9 + 16) - (0.25(1+2+3+4))^2
p4387
tp4388
a(g4315
V0.25(1+4+9+16) - (0.25(1+2+3+4))^2
p4389
tp4390
a(g4315
V5.5-(2.5^2)
p4391
tp4392
asS"['R']"
p4393
(lp4394
(g4315
V1.25
p4395
(lp4396
(g83
F1.25
g4315
g4395
tp4397
ag85
(lp4398
V2016-10-28 01:11:28
p4399
tp4400
a(g4315
V1.25
p4401
(lp4402
(g83
F1.25
g4315
g4401
tp4403
ag92
(lp4404
V2016-10-27 06:45:45
p4405
tp4406
a(g4315
V7.5-6.25
p4407
(lp4408
(g83
F1.25
g4315
g4407
tp4409
ag120
(lp4410
V2016-10-27 15:18:00
p4411
tp4412
a(g4315
V1.25
p4413
(lp4414
(g83
F1.25
g4315
g4413
tp4415
ag127
(lp4416
V2016-10-28 03:41:43
p4417
tp4418
a(g4315
V1.25
p4419
(lp4420
(g83
F1.25
g4315
g4419
tp4421
ag155
(lp4422
V2016-10-27 19:02:34
p4423
tp4424
a(g4315
V(2.25 + 0.25 + 0.25 + 2.25)/4
p4425
(lp4426
(g83
F1.25
g4315
g4425
tp4427
aS'wangpin'
p4428
(lp4429
V2016-10-28 01:25:56
p4430
tp4431
a(g4315
V(2.25 + 0.25 + 0.25 + 2.25)/4
p4432
(lp4433
(g83
F1.25
g4315
g4432
tp4434
ag169
(lp4435
V2016-10-28 01:26:37
p4436
tp4437
a(g4315
V(2.25+2.25+.25+.25)/4
p4438
(lp4439
(g83
F1.25
g4315
g4438
tp4440
ag176
(lp4441
V2016-10-28 05:41:43
p4442
tp4443
a(g4315
V((1/4)+1+(9/4)+4)-(10/4)^2
p4444
(lp4445
(g83
F1.25
g4315
g4444
tp4446
ag218
(lp4447
V2016-10-26 00:31:20
p4448
tp4449
a(g4315
V5/4
p4450
(lp4451
(g83
F1.25
g4315
g4450
tp4452
ag225
(lp4453
V2016-10-26 23:45:17
p4454
tp4455
a(g4315
V1.25
p4456
(lp4457
(g83
F1.25
g4315
g4456
tp4458
ag232
(lp4459
V2016-10-28 04:22:25
p4460
tp4461
a(g4315
V1.25
p4462
(lp4463
(g83
F1.25
g4315
g4462
tp4464
ag254
(lp4465
V2016-10-26 20:37:20
p4466
tp4467
a(g4315
V1.25
p4468
(lp4469
(g83
F1.25
g4315
g4468
tp4470
ag1727
(lp4471
V2016-10-27 19:38:34
p4472
tp4473
a(g4315
V1.25
p4474
(lp4475
(g83
F1.25
g4315
g4474
tp4476
ag268
(lp4477
V2016-10-27 19:43:22
p4478
tp4479
a(g4315
V(2.25 + 0.25 + 0.25 + 2.25)/4
p4480
(lp4481
(g83
F1.25
g4315
g4480
tp4482
ag282
(lp4483
V2016-10-25 04:49:29
p4484
tp4485
a(g4315
V5/4
p4486
(lp4487
(g83
F1.25
g4315
g4486
tp4488
ag289
(lp4489
V2016-10-28 03:55:36
p4490
tp4491
a(g4315
V(2.25 + .25)/2
p4492
(lp4493
(g83
F1.25
g4315
g4492
tp4494
ag296
(lp4495
V2016-10-27 23:51:27
p4496
tp4497
a(g4315
V((1*.25)+(4*.25)+(9*.25)+(16*.25)) - ((1*.25)+(2*.25)+(3*.25)+(4*.25))^2
p4498
(lp4499
(g83
F1.25
g4315
g4498
tp4500
ag1758
(lp4501
V2016-10-27 08:54:39
p4502
tp4503
a(g4315
V((1*.25)+(4*.25)+(9*.25)+(16*.25)) - ((1*.25)+(2*.25)+(3*.25)+(4*.25))^2
p4504
(lp4505
(g83
F1.25
g4315
g4504
tp4506
ag303
(lp4507
V2016-10-27 08:55:30
p4508
tp4509
a(g4315
V(0.25+4*0.25+9*0.25+16*0.25)-(0.25+2*0.25+3*0.25+4*0.25)^2
p4510
(lp4511
(g83
F1.25
g4315
g4510
tp4512
ag1771
(lp4513
V2016-10-27 20:46:55
p4514
tp4515
a(g4315
V(0.25+4*0.25+9*0.25+16*0.25)-(0.25+2*0.25+3*0.25+4*0.25)^2
p4516
(lp4517
(g83
F1.25
g4315
g4516
tp4518
ag1778
(lp4519
V2016-10-27 20:49:31
p4520
tp4521
a(g4315
V(0.25+4*0.25+9*0.25+16*0.25)-(0.25+2*0.25+3*0.25+4*0.25)^2
p4522
(lp4523
(g83
F1.25
g4315
g4522
tp4524
ag317
(lp4525
V2016-10-27 20:50:14
p4526
tp4527
a(g4315
V(2.25 + 0.25 + 0.25 + 2.25)/4
p4528
(lp4529
(g83
F1.25
g4315
g4528
tp4530
ag1791
(lp4531
V2016-10-27 09:10:17
p4532
tp4533
a(g4315
V1.25
p4534
(lp4535
(g83
F1.25
g4315
g4534
tp4536
ag324
(lp4537
V2016-10-27 21:28:42
p4538
tp4539
a(g4315
V1.25
p4540
(lp4541
(g83
F1.25
g4315
g4540
tp4542
ag331
(lp4543
V2016-10-27 09:38:53
p4544
tp4545
a(g4315
V1.25
p4546
(lp4547
(g83
F1.25
g4315
g4546
tp4548
ag338
(lp4549
V2016-10-27 09:41:34
p4550
tp4551
a(g4315
V1.25
p4552
(lp4553
(g83
F1.25
g4315
g4552
tp4554
ag345
(lp4555
V2016-10-27 09:42:46
p4556
tp4557
a(g4315
V1.25
p4558
(lp4559
(g83
F1.25
g4315
g4558
tp4560
ag352
(lp4561
V2016-10-26 16:38:34
p4562
tp4563
a(g4315
V5/4
p4564
(lp4565
(g83
F1.25
g4315
g4564
tp4566
ag359
(lp4567
V2016-10-23 22:49:20
p4568
tp4569
a(g4315
V1.25
p4570
(lp4571
(g83
F1.25
g4315
g4570
tp4572
ag1841
(lp4573
V2016-10-28 01:29:26
p4574
tp4575
a(g4315
V1.25
p4576
(lp4577
(g83
F1.25
g4315
g4576
tp4578
ag366
(lp4579
V2016-10-28 01:30:25
p4580
tp4581
a(g4315
V5/4
p4582
(lp4583
(g83
F1.25
g4315
g4582
tp4584
ag380
(lp4585
V2016-10-27 06:26:55
p4586
tp4587
a(g4315
V(2.25+0.25+0.25+2.25)*(1/4)
p4588
(lp4589
(g83
F1.25
g4315
g4588
tp4590
ag387
(lp4591
V2016-10-27 22:41:19
p4592
tp4593
a(g4315
V(2.25+0.25+0.25+2.25)/4
p4594
(lp4595
(g83
F1.25
g4315
g4594
tp4596
ag1872
(lp4597
V2016-10-27 22:43:27
p4598
tp4599
a(g4315
V1.25
p4600
(lp4601
(g83
F1.25
g4315
g4600
tp4602
ag394
(lp4603
V2016-10-27 22:44:47
p4604
tp4605
a(g4315
V(2.25 + 0.25 + 0.25 + 2.25)/4
p4606
(lp4607
(g83
F1.25
g4315
g4606
tp4608
ag401
(lp4609
V2016-10-26 16:35:56
p4610
tp4611
a(g4315
V1/4*2.25+1/4*0.25+1/4*0.25+1/4*2.25
p4612
(lp4613
(g83
F1.25
g4315
g4612
tp4614
ag408
(lp4615
V2016-10-28 03:02:10
p4616
tp4617
a(g4315
V1/4*2.25+1/4*0.25+1/4*0.25+1/4*2.25
p4618
(lp4619
(g83
F1.25
g4315
g4618
tp4620
ag415
(lp4621
V2016-10-28 03:04:19
p4622
tp4623
a(g4315
V1/4*2.25+1/4*0.25+1/4*0.25+1/4*2.25
p4624
(lp4625
(g83
F1.25
g4315
g4624
tp4626
ag422
(lp4627
V2016-10-28 03:05:34
p4628
tp4629
a(g4315
V5/4
p4630
(lp4631
(g83
F1.25
g4315
g4630
tp4632
ag429
(lp4633
V2016-10-28 00:04:19
p4634
tp4635
a(g4315
V(0.25*(1+4+9+16)) - (2.5^2)
p4636
(lp4637
(g83
F1.25
g4315
g4636
tp4638
ag443
(lp4639
V2016-10-27 22:28:56
p4640
tp4641
a(g4315
V1.25
p4642
(lp4643
(g83
F1.25
g4315
g4642
tp4644
ag450
(lp4645
V2016-10-25 23:34:20
p4646
tp4647
a(g4315
V((1/4)*1+(1/4)*4+(1/4)*9+(1/4)*16)-((1/4)*1+(1/4)*2+(1/4)*3+(1/4)*4)^2
p4648
(lp4649
(g83
F1.25
g4315
g4648
tp4650
aS'JonahCruz'
p4651
(lp4652
V2016-10-27 20:34:44
p4653
tp4654
a(g4315
V((1/4)*1+(1/4)*4+(1/4)*9+(1/4)*16)-((1/4)*1+(1/4)*2+(1/4)*3+(1/4)*4)^2
p4655
(lp4656
(g83
F1.25
g4315
g4655
tp4657
ag464
(lp4658
V2016-10-27 20:35:30
p4659
tp4660
a(g4315
V1.25
p4661
(lp4662
(g83
F1.25
g4315
g4661
tp4663
ag506
(lp4664
V2016-10-28 05:19:27
p4665
tp4666
a(g4315
V1.25
p4667
(lp4668
(g83
F1.25
g4315
g4667
tp4669
ag541
(lp4670
V2016-10-28 07:03:12
p4671
tp4672
a(g4315
V((1+4+9+16)/4) - ((1+2+3+4)/4)^2
p4673
(lp4674
(g83
F1.25
g4315
g4673
tp4675
ag548
(lp4676
V2016-10-26 19:56:06
p4677
tp4678
a(g4315
V1.25
p4679
(lp4680
(g83
F1.25
g4315
g4679
tp4681
ag555
(lp4682
V2016-10-28 04:10:56
p4683
tp4684
a(g4315
V5/4
p4685
(lp4686
(g83
F1.25
g4315
g4685
tp4687
ag583
(lp4688
V2016-10-26 02:47:28
p4689
tp4690
a(g4315
V5/4
p4691
(lp4692
(g83
F1.25
g4315
g4691
tp4693
ag590
(lp4694
V2016-10-26 02:49:06
p4695
tp4696
a(g4315
V5/4
p4697
(lp4698
(g83
F1.25
g4315
g4697
tp4699
ag597
(lp4700
V2016-10-28 03:42:51
p4701
tp4702
a(g4315
V1.25
p4703
(lp4704
(g83
F1.25
g4315
g4703
tp4705
ag604
(lp4706
V2016-10-28 06:58:53
p4707
tp4708
a(g4315
V5*.25
p4709
(lp4710
(g83
F1.25
g4315
g4709
tp4711
ag611
(lp4712
V2016-10-28 02:08:07
p4713
tp4714
a(g4315
V1.25
p4715
(lp4716
(g83
F1.25
g4315
g4715
tp4717
ag618
(lp4718
V2016-10-28 02:10:09
p4719
tp4720
a(g4315
V1.25
p4721
(lp4722
(g83
F1.25
g4315
g4721
tp4723
ag2028
(lp4724
V2016-10-26 05:03:03
p4725
tp4726
a(g4315
V1.25
p4727
(lp4728
(g83
F1.25
g4315
g4727
tp4729
ag625
(lp4730
V2016-10-26 05:04:12
p4731
tp4732
a(g4315
V1.25
p4733
(lp4734
(g83
F1.25
g4315
g4733
tp4735
ag639
(lp4736
V2016-10-27 22:08:20
p4737
tp4738
a(g4315
V1.25
p4739
(lp4740
(g83
F1.25
g4315
g4739
tp4741
ag646
(lp4742
V2016-10-27 22:10:06
p4743
tp4744
a(g4315
V(2.25 + 0.25 + 0.25 + 2.25)/4
p4745
(lp4746
(g83
F1.25
g4315
g4745
tp4747
ag2053
(lp4748
V2016-10-28 02:50:15
p4749
tp4750
a(g4315
V(2.25 + 0.25 + 0.25 + 2.25)/4
p4751
(lp4752
(g83
F1.25
g4315
g4751
tp4753
ag2060
(lp4754
V2016-10-28 02:51:55
p4755
tp4756
a(g4315
V(2.25 + 0.25 + 0.25 + 2.25)/4
p4757
(lp4758
(g83
F1.25
g4315
g4757
tp4759
ag2067
(lp4760
V2016-10-28 02:53:12
p4761
tp4762
a(g4315
V(2.25 + 0.25 + 0.25 + 2.25)/4
p4763
(lp4764
(g83
F1.25
g4315
g4763
tp4765
ag653
(lp4766
V2016-10-28 02:56:07
p4767
tp4768
a(g4315
V1.25
p4769
(lp4770
(g83
F1.25
g4315
g4769
tp4771
ag674
(lp4772
V2016-10-27 23:39:17
p4773
tp4774
a(g4315
V1.25
p4775
(lp4776
(g83
F1.25
g4315
g4775
tp4777
ag688
(lp4778
V2016-10-25 20:31:48
p4779
tp4780
a(g4315
V1.25
p4781
(lp4782
(g83
F1.25
g4315
g4781
tp4783
ag695
(lp4784
V2016-10-27 21:16:58
p4785
tp4786
a(g4315
V2.25*0.25+0.25*0.25+0.25*0.25+2.25*0.25
p4787
(lp4788
(g83
F1.25
g4315
g4787
tp4789
ag2104
(lp4790
V2016-10-26 21:20:20
p4791
tp4792
a(g4315
V(2.25+0.25+0.25+2.25)/4
p4793
(lp4794
(g83
F1.25
g4315
g4793
tp4795
ag702
(lp4796
V2016-10-26 21:22:40
p4797
tp4798
a(g4315
V5/4
p4799
(lp4800
(g83
F1.25
g4315
g4799
tp4801
ag709
(lp4802
V2016-10-27 05:46:26
p4803
tp4804
a(g4315
V5/4
p4805
(lp4806
(g83
F1.25
g4315
g4805
tp4807
ag716
(lp4808
V2016-10-27 07:24:35
p4809
tp4810
a(g4315
V5/4
p4811
(lp4812
(g83
F1.25
g4315
g4811
tp4813
ag723
(lp4814
V2016-10-27 18:12:20
p4815
tp4816
a(g4315
V((1/4)(1)+(1/4)*4+(1/4)*9+(1/4)*16)-((1/4)*1+(1/4)*2+(1/4)*3+(1/4)*4)^2
p4817
(lp4818
(g83
F1.25
g4315
g4817
tp4819
ag730
(lp4820
V2016-10-24 18:57:58
p4821
tp4822
a(g4315
V1.25
p4823
(lp4824
(g83
F1.25
g4315
g4823
tp4825
ag737
(lp4826
V2016-10-24 08:58:06
p4827
tp4828
a(g4315
V5/4
p4829
(lp4830
(g83
F1.25
g4315
g4829
tp4831
ag744
(lp4832
V2016-10-27 05:57:36
p4833
tp4834
a(g4315
V(2.25 + 0.25 + 0.25 + 2.25)/4
p4835
(lp4836
(g83
F1.25
g4315
g4835
tp4837
ag751
(lp4838
V2016-10-28 05:20:05
p4839
tp4840
a(g4315
V1.25
p4841
(lp4842
(g83
F1.25
g4315
g4841
tp4843
ag786
(lp4844
V2016-10-27 02:41:48
p4845
tp4846
a(g4315
V1.25
p4847
(lp4848
(g83
F1.25
g4315
g4847
tp4849
ag793
(lp4850
V2016-10-28 02:32:52
p4851
tp4852
a(g4315
V5/4
p4853
(lp4854
(g83
F1.25
g4315
g4853
tp4855
ag800
(lp4856
V2016-10-28 05:50:52
p4857
tp4858
a(g4315
V1.25
p4859
(lp4860
(g83
F1.25
g4315
g4859
tp4861
ag807
(lp4862
V2016-10-25 20:21:19
p4863
tp4864
a(g4315
V1.25
p4865
(lp4866
(g83
F1.25
g4315
g4865
tp4867
ag814
(lp4868
V2016-10-25 02:19:58
p4869
tp4870
a(g4315
V1.25
p4871
(lp4872
(g83
F1.25
g4315
g4871
tp4873
ag828
(lp4874
V2016-10-28 00:53:23
p4875
tp4876
a(g4315
V7.5-(2.5^2)
p4877
(lp4878
(g83
F1.25
g4315
g4877
tp4879
ag842
(lp4880
V2016-10-27 22:34:09
p4881
tp4882
a(g4315
V1.25
p4883
(lp4884
(g83
F1.25
g4315
g4883
tp4885
ag856
(lp4886
V2016-10-26 09:10:38
p4887
tp4888
a(g4315
V1.25
p4889
(lp4890
(g83
F1.25
g4315
g4889
tp4891
ag2226
(lp4892
V2016-10-28 04:06:36
p4893
tp4894
a(g4315
V1.25
p4895
(lp4896
(g83
F1.25
g4315
g4895
tp4897
ag863
(lp4898
V2016-10-28 04:08:43
p4899
tp4900
a(g4315
V5/4
p4901
(lp4902
(g83
F1.25
g4315
g4901
tp4903
ag870
(lp4904
V2016-10-25 01:27:54
p4905
tp4906
a(g4315
V1.25
p4907
(lp4908
(g83
F1.25
g4315
g4907
tp4909
ag877
(lp4910
V2016-10-28 03:55:19
p4911
tp4912
a(g4315
V5/4
p4913
(lp4914
(g83
F1.25
g4315
g4913
tp4915
ag2251
(lp4916
V2016-10-26 23:26:11
p4917
tp4918
a(g4315
V5/4
p4919
(lp4920
(g83
F1.25
g4315
g4919
tp4921
ag884
(lp4922
V2016-10-26 23:28:45
p4923
tp4924
a(g4315
V1.25
p4925
(lp4926
(g83
F1.25
g4315
g4925
tp4927
ag891
(lp4928
V2016-10-27 23:54:25
p4929
tp4930
a(g4315
V1.25
p4931
(lp4932
(g83
F1.25
g4315
g4931
tp4933
ag898
(lp4934
V2016-10-24 23:51:51
p4935
tp4936
a(g4315
V7.5-2.5^2
p4937
(lp4938
(g83
F1.25
g4315
g4937
tp4939
ag905
(lp4940
V2016-10-27 23:32:44
p4941
tp4942
a(g4315
V1.25
p4943
(lp4944
(g83
F1.25
g4315
g4943
tp4945
ag926
(lp4946
V2016-10-23 17:27:05
p4947
tp4948
a(g4315
V1.25
p4949
(lp4950
(g83
F1.25
g4315
g4949
tp4951
ag940
(lp4952
V2016-10-27 19:14:13
p4953
tp4954
a(g4315
V1.25
p4955
(lp4956
(g83
F1.25
g4315
g4955
tp4957
ag2300
(lp4958
V2016-10-28 06:01:02
p4959
tp4960
a(g4315
V1.25
p4961
(lp4962
(g83
F1.25
g4315
g4961
tp4963
ag947
(lp4964
V2016-10-28 06:02:57
p4965
tp4966
a(g4315
V1.25
p4967
(lp4968
(g83
F1.25
g4315
g4967
tp4969
aS'piamsiri'
p4970
(lp4971
V2016-10-24 04:25:31
p4972
tp4973
a(g4315
V1.25
p4974
(lp4975
(g83
F1.25
g4315
g4974
tp4976
ag975
(lp4977
V2016-10-24 04:26:04
p4978
tp4979
a(g4315
V1.25
p4980
(lp4981
(g83
F1.25
g4315
g4980
tp4982
ag2326
(lp4983
V2016-10-28 02:01:21
p4984
tp4985
a(g4315
V1.25
p4986
(lp4987
(g83
F1.25
g4315
g4986
tp4988
ag982
(lp4989
V2016-10-28 02:02:47
p4990
tp4991
a(g4315
V0.25*2.25+0.25*0.25+0.25*0.25+0.25*2.25
p4992
(lp4993
(g83
F1.25
g4315
g4992
tp4994
ag996
(lp4995
V2016-10-28 05:35:25
p4996
tp4997
a(g4315
V0.25*2.25+0.25*0.25+0.25*0.25+0.25*2.25
p4998
(lp4999
(g83
F1.25
g4315
g4998
tp5000
ag1003
(lp5001
V2016-10-28 05:37:44
p5002
tp5003
a(g4315
V((1+4+9+16)/4)-((10/4)(10/4))
p5004
(lp5005
(g83
F1.25
g4315
g5004
tp5006
ag2359
(lp5007
V2016-10-25 02:18:37
p5008
tp5009
a(g4315
V((1+4+9+16)/4)-((10/4)(10/4))
p5010
(lp5011
(g83
F1.25
g4315
g5010
tp5012
ag1010
(lp5013
V2016-10-25 02:21:20
p5014
tp5015
a(g4315
V(2.25 + 0.25 + 0.25 + 2.25)/4
p5016
(lp5017
(g83
F1.25
g4315
g5016
tp5018
ag1017
(lp5019
V2016-10-23 19:08:06
p5020
tp5021
a(g4315
V(2.25 + 0.25 + 0.25 + 2.25)/4
p5022
(lp5023
(g83
F1.25
g4315
g5022
tp5024
ag1024
(lp5025
V2016-10-23 19:09:30
p5026
tp5027
a(g4315
V(2.25*2+0.5)/4
p5028
(lp5029
(g83
F1.25
g4315
g5028
tp5030
ag1031
(lp5031
V2016-10-24 00:11:53
p5032
tp5033
a(g4315
V((1+4+9+16)/4)-(10/4)^2
p5034
(lp5035
(g83
F1.25
g4315
g5034
tp5036
ag1059
(lp5037
V2016-10-26 01:43:42
p5038
tp5039
a(g4315
V1.25
p5040
(lp5041
(g83
F1.25
g4315
g5040
tp5042
ag1066
(lp5043
V2016-10-28 04:10:02
p5044
tp5045
a(g4315
V5/4
p5046
(lp5047
(g83
F1.25
g4315
g5046
tp5048
ag2403
(lp5049
V2016-10-22 17:10:43
p5050
tp5051
a(g4315
V1.25
p5052
(lp5053
(g83
F1.25
g4315
g5052
tp5054
ag2410
(lp5055
V2016-10-22 17:16:06
p5056
tp5057
a(g4315
V1.25
p5058
(lp5059
(g83
F1.25
g4315
g5058
tp5060
ag2417
(lp5061
V2016-10-24 21:32:31
p5062
tp5063
a(g4315
V1.25
p5064
(lp5065
(g83
F1.25
g4315
g5064
tp5066
ag2424
(lp5067
V2016-10-24 21:33:22
p5068
tp5069
a(g4315
V1.25
p5070
(lp5071
(g83
F1.25
g4315
g5070
tp5072
ag1073
(lp5073
V2016-10-24 21:33:54
p5074
tp5075
a(g4315
V(2.25+0.25+0.25+2.25)/4
p5076
(lp5077
(g83
F1.25
g4315
g5076
tp5078
ag2437
(lp5079
V2016-10-28 03:03:05
p5080
tp5081
a(g4315
V(2.25 + 0.25 + 0.25 + 2.25)/4
p5082
(lp5083
(g83
F1.25
g4315
g5082
tp5084
ag1080
(lp5085
V2016-10-28 03:05:18
p5086
tp5087
a(g4315
V(2.25+0.25+0.25+2.25)/4
p5088
(lp5089
(g83
F1.25
g4315
g5088
tp5090
ag2450
(lp5091
V2016-10-28 01:33:37
p5092
tp5093
a(g4315
V(2.25+0.25+0.25+2.25)/4
p5094
(lp5095
(g83
F1.25
g4315
g5094
tp5096
ag1094
(lp5097
V2016-10-28 01:35:39
p5098
tp5099
a(g4315
V1.25
p5100
(lp5101
(g83
F1.25
g4315
g5100
tp5102
aS'katielau'
p5103
(lp5104
V2016-10-27 20:32:22
p5105
tp5106
a(g4315
V1.25
p5107
(lp5108
(g83
F1.25
g4315
g5107
tp5109
ag1108
(lp5110
V2016-10-27 20:32:55
p5111
tp5112
a(g4315
V30/4 - (10/4)^2
p5113
(lp5114
(g83
F1.25
g4315
g5113
tp5115
ag2482
(lp5116
V2016-10-25 02:16:43
p5117
tp5118
a(g4315
V5/4
p5119
(lp5120
(g83
F1.25
g4315
g5119
tp5121
ag1122
(lp5122
V2016-10-25 16:39:21
p5123
tp5124
a(g4315
V5/4
p5125
(lp5126
(g83
F1.25
g4315
g5125
tp5127
ag1129
(lp5128
V2016-10-25 16:40:23
p5129
tp5130
a(g4315
V1.25
p5131
(lp5132
(g83
F1.25
g4315
g5131
tp5133
ag1150
(lp5134
V2016-10-28 06:03:14
p5135
tp5136
a(g4315
V1.25
p5137
(lp5138
(g83
F1.25
g4315
g5137
tp5139
ag2520
(lp5140
V2016-10-22 17:22:10
p5141
tp5142
a(g4315
V1.25
p5143
(lp5144
(g83
F1.25
g4315
g5143
tp5145
aS'jih089'
p5146
(lp5147
V2016-10-23 02:01:41
p5148
tp5149
a(g4315
V1.25
p5150
(lp5151
(g83
F1.25
g4315
g5150
tp5152
aS'jih089'
p5153
(lp5154
V2016-10-23 02:50:08
p5155
tp5156
a(g4315
V1.25
p5157
(lp5158
(g83
F1.25
g4315
g5157
tp5159
ag2527
(lp5160
V2016-10-23 02:51:24
p5161
tp5162
a(g4315
V1.25
p5163
(lp5164
(g83
F1.25
g4315
g5163
tp5165
ag1157
(lp5166
V2016-10-23 02:52:04
p5167
tp5168
a(g4315
V(2.25)*(1/4)+(0.25)*(1/4)+(0.25)*(1/4)+(2.25)*(1/4)
p5169
(lp5170
(g83
F1.25
g4315
g5169
tp5171
ag2540
(lp5172
V2016-10-23 01:21:19
p5173
tp5174
a(g4315
V(1/4)*(2.25)+(1/4)*(.25)+(1/4)*(.25)+(1/4)*(2.25)
p5175
(lp5176
(g83
F1.25
g4315
g5175
tp5177
ag2547
(lp5178
V2016-10-23 01:25:06
p5179
tp5180
a(g4315
V1.25
p5181
(lp5182
(g83
F1.25
g4315
g5181
tp5183
ag2554
(lp5184
V2016-10-23 01:46:57
p5185
tp5186
a(g4315
V(1/4)*(2.25+.25+.25+2.25)
p5187
(lp5188
(g83
F1.25
g4315
g5187
tp5189
ag2561
(lp5190
V2016-10-23 01:56:11
p5191
tp5192
a(g4315
V1.25
p5193
(lp5194
(g83
F1.25
g4315
g5193
tp5195
ag2568
(lp5196
V2016-10-23 02:02:24
p5197
tp5198
a(g4315
V1.25
p5199
(lp5200
(g83
F1.25
g4315
g5199
tp5201
ag2575
(lp5202
V2016-10-23 04:13:31
p5203
tp5204
a(g4315
V1.25
p5205
(lp5206
(g83
F1.25
g4315
g5205
tp5207
ag75
(lp5208
V2016-10-23 04:15:59
p5209
tp5210
a(g4315
V1.25
p5211
(lp5212
(g83
F1.25
g4315
g5211
tp5213
ag1164
(lp5214
V2016-10-23 04:17:00
p5215
tp5216
a(g4315
V((1-(5/2))^2 + (2-(5/2))^2 + (3-(5/2))^2 + (4-(5/2))^2)/4
p5217
(lp5218
(g83
F1.25
g4315
g5217
tp5219
ag1185
(lp5220
V2016-10-24 01:48:03
p5221
tp5222
a(g4315
V(0.25+1+(9/4)+4)-(0.25+0.5+0.75+1)^2
p5223
(lp5224
(g83
F1.25
g4315
g5223
tp5225
ag1192
(lp5226
V2016-10-27 03:11:09
p5227
tp5228
a(g4315
V1.25
p5229
(lp5230
(g83
F1.25
g4315
g5229
tp5231
aS'ssolanki'
p5232
(lp5233
V2016-10-28 06:33:57
p5234
tp5235
a(g4315
V1.25
p5236
(lp5237
(g83
F1.25
g4315
g5236
tp5238
ag1220
(lp5239
V2016-10-28 06:38:20
p5240
tp5241
a(g4315
V(2.25+0.25+0.25+2.25)/4
p5242
(lp5243
(g83
F1.25
g4315
g5242
tp5244
ag1227
(lp5245
V2016-10-27 05:48:27
p5246
tp5247
a(g4315
V(2.25+0.25+0.25+2.25)/4
p5248
(lp5249
(g83
F1.25
g4315
g5248
tp5250
ag1234
(lp5251
V2016-10-27 05:50:16
p5252
tp5253
a(g4315
V1.25
p5254
(lp5255
(g83
F1.25
g4315
g5254
tp5256
ag2649
(lp5257
V2016-10-27 07:31:52
p5258
tp5259
a(g4315
V1.25
p5260
(lp5261
(g83
F1.25
g4315
g5260
tp5262
ag1241
(lp5263
V2016-10-27 07:34:23
p5264
tp5265
a(g4315
V1.25
p5266
(lp5267
(g83
F1.25
g4315
g5266
tp5268
ag1255
(lp5269
V2016-10-28 00:51:56
p5270
tp5271
a(g4315
V1.25
p5272
(lp5273
(g83
F1.25
g4315
g5272
tp5274
ag1262
(lp5275
V2016-10-28 00:54:00
p5276
tp5277
a(g4315
V(2.25+2.25+0.25+0.25)/4
p5278
(lp5279
(g83
F1.25
g4315
g5278
tp5280
ag1269
(lp5281
V2016-10-24 21:47:22
p5282
tp5283
a(g4315
V1.25
p5284
(lp5285
(g83
F1.25
g4315
g5284
tp5286
ag1276
(lp5287
V2016-10-28 01:27:21
p5288
tp5289
a(g4315
V1.25
p5290
(lp5291
(g83
F1.25
g4315
g5290
tp5292
ag1283
(lp5293
V2016-10-28 01:28:12
p5294
tp5295
a(g4315
V1/4 * (2.25 + 0.25 +0.25 +2.25)
p5296
(lp5297
(g83
F1.25
g4315
g5296
tp5298
ag1290
(lp5299
V2016-10-27 08:50:13
p5300
tp5301
a(g4315
V1/4 * (2.25 + 0.25 +0.25 +2.25)
p5302
(lp5303
(g83
F1.25
g4315
g5302
tp5304
ag1305
(lp5305
V2016-10-27 08:55:25
p5306
tp5307
a(g4315
V1.25
p5308
(lp5309
(g83
F1.25
g4315
g5308
tp5310
ag1326
(lp5311
V2016-10-28 02:51:28
p5312
tp5313
a(g4315
V(2.25+0.25+0.25+2.25)/4
p5314
(lp5315
(g83
F1.25
g4315
g5314
tp5316
ag1333
(lp5317
V2016-10-26 23:52:37
p5318
tp5319
a(g4315
V1.25
p5320
(lp5321
(g83
F1.25
g4315
g5320
tp5322
ag1340
(lp5323
V2016-10-28 05:26:22
p5324
tp5325
a(g4315
V1.25
p5326
(lp5327
(g83
F1.25
g4315
g5326
tp5328
ag1347
(lp5329
V2016-10-28 06:26:46
p5330
tp5331
a(g4315
V1.25
p5332
(lp5333
(g83
F1.25
g4315
g5332
tp5334
ag1368
(lp5335
V2016-10-27 21:44:35
p5336
tp5337
a(g4315
V1.25
p5338
(lp5339
(g83
F1.25
g4315
g5338
tp5340
ag1375
(lp5341
V2016-10-27 21:52:30
p5342
tp5343
a(g4315
V1.25
p5344
(lp5345
(g83
F1.25
g4315
g5344
tp5346
ag1382
(lp5347
V2016-10-27 08:38:55
p5348
tp5349
a(g4315
V5/4
p5350
(lp5351
(g83
F1.25
g4315
g5350
tp5352
ag1389
(lp5353
V2016-10-26 01:02:06
p5354
tp5355
a(g4315
V(2.25 + .25 + .25 + 2.25)/4
p5356
(lp5357
(g83
F1.25
g4315
g5356
tp5358
ag1424
(lp5359
V2016-10-26 08:35:40
p5360
tp5361
a(g4315
V1.25
p5362
(lp5363
(g83
F1.25
g4315
g5362
tp5364
ag2772
(lp5365
V2016-10-28 00:10:18
p5366
tp5367
a(g4315
V1.25
p5368
(lp5369
(g83
F1.25
g4315
g5368
tp5370
ag2779
(lp5371
V2016-10-28 00:12:18
p5372
tp5373
a(g4315
V1.25
p5374
(lp5375
(g83
F1.25
g4315
g5374
tp5376
ag2786
(lp5377
V2016-10-28 00:15:03
p5378
tp5379
a(g4315
V1.25
p5380
(lp5381
(g83
F1.25
g4315
g5380
tp5382
ag1431
(lp5383
V2016-10-28 00:18:20
p5384
tp5385
a(g4315
V.25*(2.25 + .25 + .25 + 2.25)
p5386
(lp5387
(g83
F1.25
g4315
g5386
tp5388
ag1438
(lp5389
V2016-10-26 21:21:15
p5390
tp5391
a(g4315
V(2.25+0.25+0.25+2.25)/4
p5392
(lp5393
(g83
F1.25
g4315
g5392
tp5394
ag1445
(lp5395
V2016-10-26 23:52:47
p5396
tp5397
a(g4315
V1.25
p5398
(lp5399
(g83
F1.25
g4315
g5398
tp5400
ag1473
(lp5401
V2016-10-25 20:09:49
p5402
tp5403
a(g4315
V1.25
p5404
(lp5405
(g83
F1.25
g4315
g5404
tp5406
ag1480
(lp5407
V2016-10-25 00:35:50
p5408
tp5409
a(g4315
V.25 * (2.25 + 2.25 + .25 + .25)
p5410
(lp5411
(g83
F1.25
g4315
g5410
tp5412
ag1487
(lp5413
V2016-10-28 02:50:10
p5414
tp5415
a(g4315
V1.25
p5416
(lp5417
(g83
F1.25
g4315
g5416
tp5418
ag1494
(lp5419
V2016-10-28 03:22:32
p5420
tp5421
a(g4315
V2.25*0.5+0.25*0.5
p5422
(lp5423
(g83
F1.25
g4315
g5422
tp5424
ag1501
(lp5425
V2016-10-28 03:45:37
p5426
tp5427
a(g4315
V(1*0.25+4*0.25+9*0.25+16*0.25) - (1*0.25+2*0.25+3*0.25+4*0.25)^2
p5428
(lp5429
(g83
F1.25
g4315
g5428
tp5430
ag1508
(lp5431
V2016-10-26 02:54:09
p5432
tp5433
a(g4315
V2.25*0.25+0.25*0.25+0.25*0.25+2.25*0.25
p5434
(lp5435
(g83
F1.25
g4315
g5434
tp5436
aS'gpagliar'
p5437
(lp5438
V2016-10-27 21:06:39
p5439
tp5440
a(g4315
V2.25*0.25+0.25*0.25+0.25*0.25+2.25*0.25
p5441
(lp5442
(g83
F1.25
g4315
g5441
tp5443
ag1515
(lp5444
V2016-10-27 21:07:42
p5445
tp5446
a(g4315
V(2.25 + 0.25 + 0.25 + 2.25)/4
p5447
(lp5448
(g83
F1.25
g4315
g5447
tp5449
ag1529
(lp5450
V2016-10-27 05:34:00
p5451
tp5452
a(g4315
V(2.25 * .25) + 0.25^2 + 0.25^2 + (2.25 * 0.25)
p5453
(lp5454
(g83
F1.25
g4315
g5453
tp5455
ag1543
(lp5456
V2016-10-27 19:00:12
p5457
tp5458
a(g4315
V(2.25 + 2.25 + 0.25 + 0.25) /4
p5459
(lp5460
(g83
F1.25
g4315
g5459
tp5461
ag1550
(lp5462
V2016-10-28 05:14:36
p5463
tp5464
a(g4315
V1.25
p5465
(lp5466
(g83
F1.25
g4315
g5465
tp5467
ag1564
(lp5468
V2016-10-28 05:17:14
p5469
tp5470
a(g4315
V(2.25 + 0.25 + 0.25 + 2.25) * 0.25
p5471
(lp5472
(g83
F1.25
g4315
g5471
tp5473
ag1571
(lp5474
V2016-10-27 07:49:52
p5475
tp5476
a(g4315
V(2.25(0.25))+(0.25(0.25))+(0.25(0.25))+(2.25(0.25))
p5477
(lp5478
(g83
F1.25
g4315
g5477
tp5479
ag2925
(lp5480
V2016-10-27 22:49:04
p5481
tp5482
a(g4315
V(2.25(0.25))+(0.25(0.25))+(0.25(0.25))+(2.25(0.25))
p5483
(lp5484
(g83
F1.25
g4315
g5483
tp5485
ag1592
(lp5486
V2016-10-27 22:50:14
p5487
tp5488
a(g4315
V1.25
p5489
(lp5490
(g83
F1.25
g4315
g5489
tp5491
ag2938
(lp5492
V2016-10-22 07:37:56
p5493
tp5494
asS"['R.0']"
p5495
(lp5496
(g4315
V(20/4)^2
p5497
(lp5498
(S'R.0'
p5499
F5.0
S'2.25 + 0.25 + 0.25 + 2.25'
p5500
V20/4
p5501
tp5502
ag1178
(lp5503
V2016-10-24 01:45:28
p5504
tp5505
assS'4'
p5506
g2
(g3
tp5507
Rp5508
g6
(lp5509
(S'1.25'
p5510
V0
p5511
tp5512
a(g5510
V29
p5513
tp5514
a(g5510
V10
p5515
tp5516
a(g5510
V5
p5517
tp5518
a(g5510
V3
p5519
tp5520
a(g5510
V5
p5521
tp5522
a(g5510
V5
p5523
tp5524
a(g5510
V5
p5525
tp5526
a(g5510
V5
p5527
tp5528
a(g5510
V5
p5529
tp5530
a(g5510
V5
p5531
tp5532
a(g5510
V5
p5533
tp5534
a(g5510
V5
p5535
tp5536
a(g5510
V5
p5537
tp5538
a(g5510
V50
p5539
tp5540
a(g5510
V5
p5541
tp5542
asg59
(lp5543
(g5510
V30- 100
p5544
tp5545
a(g5510
V(1+4+9+16)(1/4)-(1/4)^2
p5546
tp5547
a(g5510
V0.25(1 + 4 + 9 + 16) - (0.25(1+2+3+4))^2
p5548
tp5549
a(g5510
V0.25(1+4+9+16) - (0.25(1+2+3+4))^2
p5550
tp5551
a(g5510
V5.5-(2.5^2)
p5552
tp5553
a(g5510
V((1/4)+1+(9/4)+4)-((1/4)+(1/2)+(4/3)+(1))^2
p5554
tp5555
asS"['R']"
p5556
(lp5557
(g5510
V1.25
p5558
(lp5559
(g83
F1.25
g5510
g5558
tp5560
ag85
(lp5561
V2016-10-28 01:11:28
p5562
tp5563
a(g5510
V1.25
p5564
(lp5565
(g83
F1.25
g5510
g5564
tp5566
ag92
(lp5567
V2016-10-27 06:45:45
p5568
tp5569
a(g5510
V7.5-6.25
p5570
(lp5571
(g83
F1.25
g5510
g5570
tp5572
ag113
(lp5573
V2016-10-27 15:16:29
p5574
tp5575
a(g5510
V7.5-6.25
p5576
(lp5577
(g83
F1.25
g5510
g5576
tp5578
ag120
(lp5579
V2016-10-27 15:18:00
p5580
tp5581
a(g5510
V1.25
p5582
(lp5583
(g83
F1.25
g5510
g5582
tp5584
ag127
(lp5585
V2016-10-28 03:41:43
p5586
tp5587
a(g5510
V(7.5 - ((2.5)^2))
p5588
(lp5589
(g83
F1.25
g5510
V7.5 - ((2.5)^2)
p5590
tp5591
ag1659
(lp5592
V2016-10-26 18:51:37
p5593
tp5594
a(g5510
V(7.5 - ((2.5)^2))
p5595
(lp5596
(g83
F1.25
g5510
V7.5 - ((2.5)^2)
p5597
tp5598
ag155
(lp5599
V2016-10-27 19:02:34
p5600
tp5601
a(g5510
V1.25
p5602
(lp5603
(g83
F1.25
g5510
g5602
tp5604
ag1672
(lp5605
V2016-10-28 01:23:40
p5606
tp5607
a(g5510
V1.25
p5608
(lp5609
(g83
F1.25
g5510
g5608
tp5610
ag162
(lp5611
V2016-10-28 01:25:33
p5612
tp5613
a(g5510
V1.25
p5614
(lp5615
(g83
F1.25
g5510
g5614
tp5616
ag169
(lp5617
V2016-10-28 01:26:37
p5618
tp5619
a(g5510
V((1^2)*.25+2^(2)*.25+3^(2)*.25+4^(2)*.25)-6.25
p5620
(lp5621
(g83
F1.25
g5510
g5620
tp5622
ag176
(lp5623
V2016-10-28 05:41:43
p5624
tp5625
a(g5510
V((1/4)+1+(9/4)+4)-(10/4)^2
p5626
(lp5627
(g83
F1.25
g5510
g5626
tp5628
ag218
(lp5629
V2016-10-26 00:31:20
p5630
tp5631
a(g5510
V5/4
p5632
(lp5633
(g83
F1.25
g5510
g5632
tp5634
ag225
(lp5635
V2016-10-26 23:45:17
p5636
tp5637
a(g5510
V1.25
p5638
(lp5639
(g83
F1.25
g5510
g5638
tp5640
ag232
(lp5641
V2016-10-28 04:22:25
p5642
tp5643
a(g5510
V7.5 - (2.5)^2
p5644
(lp5645
(g83
F1.25
g5510
g5644
tp5646
ag254
(lp5647
V2016-10-26 20:37:20
p5648
tp5649
a(g5510
V1.25
p5650
(lp5651
(g83
F1.25
g5510
g5650
tp5652
ag1727
(lp5653
V2016-10-27 19:38:34
p5654
tp5655
a(g5510
V1.25
p5656
(lp5657
(g83
F1.25
g5510
g5656
tp5658
ag268
(lp5659
V2016-10-27 19:43:22
p5660
tp5661
a(g5510
V1.25
p5662
(lp5663
(g83
F1.25
g5510
g5662
tp5664
ag282
(lp5665
V2016-10-25 04:49:29
p5666
tp5667
a(g5510
V5/4
p5668
(lp5669
(g83
F1.25
g5510
g5668
tp5670
ag289
(lp5671
V2016-10-28 03:55:36
p5672
tp5673
a(g5510
V(1+4+9+16)/4 - 2.5^2
p5674
(lp5675
(g83
F1.25
g5510
g5674
tp5676
ag296
(lp5677
V2016-10-27 23:51:27
p5678
tp5679
a(g5510
V((1*.25)+(4*.25)+(9*.25)+(16*.25)) - ((1*.25)+(2*.25)+(3*.25)+(4*.25))^2
p5680
(lp5681
(g83
F1.25
g5510
g5680
tp5682
ag1758
(lp5683
V2016-10-27 08:54:39
p5684
tp5685
a(g5510
V((1*.25)+(4*.25)+(9*.25)+(16*.25)) - ((1*.25)+(2*.25)+(3*.25)+(4*.25))^2
p5686
(lp5687
(g83
F1.25
g5510
g5686
tp5688
ag303
(lp5689
V2016-10-27 08:55:30
p5690
tp5691
a(g5510
V(0.25+4*0.25+9*0.25+16*0.25)-(0.25+2*0.25+3*0.25+4*0.25)^2
p5692
(lp5693
(g83
F1.25
g5510
g5692
tp5694
ag1771
(lp5695
V2016-10-27 20:46:55
p5696
tp5697
a(g5510
V(0.25+4*0.25+9*0.25+16*0.25)-(0.25+2*0.25+3*0.25+4*0.25)^2
p5698
(lp5699
(g83
F1.25
g5510
g5698
tp5700
ag1778
(lp5701
V2016-10-27 20:49:31
p5702
tp5703
a(g5510
V(0.25+4*0.25+9*0.25+16*0.25)-(0.25+2*0.25+3*0.25+4*0.25)^2
p5704
(lp5705
(g83
F1.25
g5510
g5704
tp5706
ag317
(lp5707
V2016-10-27 20:50:14
p5708
tp5709
a(g5510
V1.25
p5710
(lp5711
(g83
F1.25
g5510
g5710
tp5712
ag1791
(lp5713
V2016-10-27 09:10:17
p5714
tp5715
a(g5510
V7.5 - (2.5^2)
p5716
(lp5717
(g83
F1.25
g5510
g5716
tp5718
ag324
(lp5719
V2016-10-27 21:28:42
p5720
tp5721
a(g5510
V1.25
p5722
(lp5723
(g83
F1.25
g5510
g5722
tp5724
ag338
(lp5725
V2016-10-27 09:41:34
p5726
tp5727
a(g5510
V1.25
p5728
(lp5729
(g83
F1.25
g5510
g5728
tp5730
ag345
(lp5731
V2016-10-27 09:42:46
p5732
tp5733
a(g5510
V1.25
p5734
(lp5735
(g83
F1.25
g5510
g5734
tp5736
ag352
(lp5737
V2016-10-26 16:38:34
p5738
tp5739
a(g5510
V(120-100)/16
p5740
(lp5741
(g83
F1.25
g5510
g5740
tp5742
ag359
(lp5743
V2016-10-23 22:49:20
p5744
tp5745
a(g5510
V1.25
p5746
(lp5747
(g83
F1.25
g5510
g5746
tp5748
ag1841
(lp5749
V2016-10-28 01:29:26
p5750
tp5751
a(g5510
V1.25
p5752
(lp5753
(g83
F1.25
g5510
g5752
tp5754
ag366
(lp5755
V2016-10-28 01:30:25
p5756
tp5757
a(g5510
V5/4
p5758
(lp5759
(g83
F1.25
g5510
g5758
tp5760
ag380
(lp5761
V2016-10-27 06:26:55
p5762
tp5763
a(g5510
V(1+4+9+16)/4-((1+2+3+4)/4)^2
p5764
(lp5765
(g83
F1.25
g5510
g5764
tp5766
ag1872
(lp5767
V2016-10-27 22:43:27
p5768
tp5769
a(g5510
V7.5-2.5^2
p5770
(lp5771
(g83
F1.25
g5510
g5770
tp5772
ag394
(lp5773
V2016-10-27 22:44:47
p5774
tp5775
a(g5510
V1.25
p5776
(lp5777
(g83
F1.25
g5510
g5776
tp5778
ag401
(lp5779
V2016-10-26 16:35:56
p5780
tp5781
a(g5510
V (1*1/4+4*1/4+9*1/4+16*1/4)-(1*1/4+2*1/4+3*1/4+4*1/4)^2
p5782
(lp5783
(g83
F1.25
g5510
V(1*1/4+4*1/4+9*1/4+16*1/4)-(1*1/4+2*1/4+3*1/4+4*1/4)^2
p5784
tp5785
ag415
(lp5786
V2016-10-28 03:04:19
p5787
tp5788
a(g5510
V(1*1/4+4*1/4+9*1/4+16*1/4)-(1*1/4+2*1/4+3*1/4+4*1/4)^2
p5789
(lp5790
(g83
F1.25
g5510
g5789
tp5791
ag422
(lp5792
V2016-10-28 03:05:34
p5793
tp5794
a(g5510
V5/4
p5795
(lp5796
(g83
F1.25
g5510
g5795
tp5797
ag429
(lp5798
V2016-10-28 00:04:19
p5799
tp5800
a(g5510
V(0.25*(1+4+9+16)) - (2.5^2)
p5801
(lp5802
(g83
F1.25
g5510
g5801
tp5803
ag443
(lp5804
V2016-10-27 22:28:56
p5805
tp5806
a(g5510
V7.5-2.5^2
p5807
(lp5808
(g83
F1.25
g5510
g5807
tp5809
ag450
(lp5810
V2016-10-25 23:34:20
p5811
tp5812
a(g5510
V((1/4)*1+(1/4)*4+(1/4)*9+(1/4)*16)-((1/4)*1+(1/4)*2+(1/4)*3+(1/4)*4)^2
p5813
(lp5814
(g83
F1.25
g5510
g5813
tp5815
aS'JonahCruz'
p5816
(lp5817
V2016-10-27 20:33:42
p5818
tp5819
a(g5510
V((1/4)*1+(1/4)*4+(1/4)*9+(1/4)*16)-((1/4)*1+(1/4)*2+(1/4)*3+(1/4)*4)^2
p5820
(lp5821
(g83
F1.25
g5510
g5820
tp5822
ag464
(lp5823
V2016-10-27 20:35:30
p5824
tp5825
a(g5510
V1.25
p5826
(lp5827
(g83
F1.25
g5510
g5826
tp5828
ag506
(lp5829
V2016-10-28 05:19:27
p5830
tp5831
a(g5510
V1.25
p5832
(lp5833
(g83
F1.25
g5510
g5832
tp5834
ag541
(lp5835
V2016-10-28 07:03:12
p5836
tp5837
a(g5510
V((1+4+9+16)/4) - ((1+2+3+4)/4)^2
p5838
(lp5839
(g83
F1.25
g5510
g5838
tp5840
ag548
(lp5841
V2016-10-26 19:56:06
p5842
tp5843
a(g5510
V1.25
p5844
(lp5845
(g83
F1.25
g5510
g5844
tp5846
ag555
(lp5847
V2016-10-28 04:10:56
p5848
tp5849
a(g5510
V30/4 - 2.5^2
p5850
(lp5851
(g83
F1.25
g5510
g5850
tp5852
ag590
(lp5853
V2016-10-26 02:49:06
p5854
tp5855
a(g5510
V30/4-2.5^2
p5856
(lp5857
(g83
F1.25
g5510
g5856
tp5858
ag597
(lp5859
V2016-10-28 03:42:51
p5860
tp5861
a(g5510
V1.25
p5862
(lp5863
(g83
F1.25
g5510
g5862
tp5864
ag604
(lp5865
V2016-10-28 06:58:53
p5866
tp5867
a(g5510
V1.25
p5868
(lp5869
(g83
F1.25
g5510
g5868
tp5870
ag618
(lp5871
V2016-10-28 02:10:09
p5872
tp5873
a(g5510
V1.25
p5874
(lp5875
(g83
F1.25
g5510
g5874
tp5876
ag2028
(lp5877
V2016-10-26 05:03:03
p5878
tp5879
a(g5510
V1.25
p5880
(lp5881
(g83
F1.25
g5510
g5880
tp5882
ag625
(lp5883
V2016-10-26 05:04:12
p5884
tp5885
a(g5510
V1.25
p5886
(lp5887
(g83
F1.25
g5510
g5886
tp5888
ag646
(lp5889
V2016-10-27 22:10:06
p5890
tp5891
a(g5510
V1.25
p5892
(lp5893
(g83
F1.25
g5510
g5892
tp5894
ag2053
(lp5895
V2016-10-28 02:50:15
p5896
tp5897
a(g5510
V1.25
p5898
(lp5899
(g83
F1.25
g5510
g5898
tp5900
ag2060
(lp5901
V2016-10-28 02:51:55
p5902
tp5903
a(g5510
V1.25
p5904
(lp5905
(g83
F1.25
g5510
g5904
tp5906
ag2067
(lp5907
V2016-10-28 02:53:12
p5908
tp5909
a(g5510
V1.25
p5910
(lp5911
(g83
F1.25
g5510
g5910
tp5912
ag653
(lp5913
V2016-10-28 02:56:07
p5914
tp5915
a(g5510
V7.5-6.25
p5916
(lp5917
(g83
F1.25
g5510
g5916
tp5918
ag674
(lp5919
V2016-10-27 23:39:17
p5920
tp5921
a(g5510
V1.25
p5922
(lp5923
(g83
F1.25
g5510
g5922
tp5924
ag688
(lp5925
V2016-10-25 20:31:48
p5926
tp5927
a(g5510
V(30/4)-(100/16)
p5928
(lp5929
(g83
F1.25
g5510
g5928
tp5930
ag695
(lp5931
V2016-10-27 21:16:58
p5932
tp5933
a(g5510
V(1*0.25+4*0.25+9*0.25+16*0.25)-(1*0.25+2*0.25+3*0.25+4*0.25)^2
p5934
(lp5935
(g83
F1.25
g5510
g5934
tp5936
ag2104
(lp5937
V2016-10-26 21:20:20
p5938
tp5939
a(g5510
V1.25
p5940
(lp5941
(g83
F1.25
g5510
g5940
tp5942
ag702
(lp5943
V2016-10-26 21:22:40
p5944
tp5945
a(g5510
V7.5-2.5^2
p5946
(lp5947
(g83
F1.25
g5510
g5946
tp5948
ag709
(lp5949
V2016-10-27 05:46:26
p5950
tp5951
a(g5510
V5/4
p5952
(lp5953
(g83
F1.25
g5510
g5952
tp5954
ag716
(lp5955
V2016-10-27 07:24:35
p5956
tp5957
a(g5510
V5/4
p5958
(lp5959
(g83
F1.25
g5510
g5958
tp5960
ag723
(lp5961
V2016-10-27 18:12:20
p5962
tp5963
a(g5510
V((1/4)(1)+(1/4)*4+(1/4)*9+(1/4)*16)-((1/4)*1+(1/4)*2+(1/4)*3+(1/4)*4)^2
p5964
(lp5965
(g83
F1.25
g5510
g5964
tp5966
ag730
(lp5967
V2016-10-24 18:57:58
p5968
tp5969
a(g5510
V15/2 - (5/2)^2
p5970
(lp5971
(g83
F1.25
g5510
g5970
tp5972
ag737
(lp5973
V2016-10-24 08:58:06
p5974
tp5975
a(g5510
V(30/4)-((10/4)^2)
p5976
(lp5977
(g83
F1.25
g5510
g5976
tp5978
ag744
(lp5979
V2016-10-27 05:57:36
p5980
tp5981
a(g5510
V1.25
p5982
(lp5983
(g83
F1.25
g5510
g5982
tp5984
ag751
(lp5985
V2016-10-28 05:20:05
p5986
tp5987
a(g5510
V1.25
p5988
(lp5989
(g83
F1.25
g5510
g5988
tp5990
ag786
(lp5991
V2016-10-27 02:41:48
p5992
tp5993
a(g5510
V1.25
p5994
(lp5995
(g83
F1.25
g5510
g5994
tp5996
ag793
(lp5997
V2016-10-28 02:32:52
p5998
tp5999
a(g5510
V30/4-2.5^2
p6000
(lp6001
(g83
F1.25
g5510
g6000
tp6002
ag800
(lp6003
V2016-10-28 05:50:52
p6004
tp6005
a(g5510
V1.25
p6006
(lp6007
(g83
F1.25
g5510
g6006
tp6008
ag807
(lp6009
V2016-10-25 20:21:19
p6010
tp6011
a(g5510
V1.25
p6012
(lp6013
(g83
F1.25
g5510
g6012
tp6014
ag814
(lp6015
V2016-10-25 02:19:58
p6016
tp6017
a(g5510
V1.25
p6018
(lp6019
(g83
F1.25
g5510
g6018
tp6020
ag828
(lp6021
V2016-10-28 00:53:23
p6022
tp6023
a(g5510
V7.5-(2.5^2)
p6024
(lp6025
(g83
F1.25
g5510
g6024
tp6026
ag842
(lp6027
V2016-10-27 22:34:09
p6028
tp6029
a(g5510
V1.25
p6030
(lp6031
(g83
F1.25
g5510
g6030
tp6032
ag856
(lp6033
V2016-10-26 09:10:38
p6034
tp6035
a(g5510
V7.5-6.25
p6036
(lp6037
(g83
F1.25
g5510
g6036
tp6038
ag2226
(lp6039
V2016-10-28 04:06:36
p6040
tp6041
a(g5510
V7.5-6.25
p6042
(lp6043
(g83
F1.25
g5510
g6042
tp6044
ag863
(lp6045
V2016-10-28 04:08:43
p6046
tp6047
a(g5510
V(30/4) - (10/4)^2
p6048
(lp6049
(g83
F1.25
g5510
g6048
tp6050
ag870
(lp6051
V2016-10-25 01:27:54
p6052
tp6053
a(g5510
V1.25
p6054
(lp6055
(g83
F1.25
g5510
g6054
tp6056
ag877
(lp6057
V2016-10-28 03:55:19
p6058
tp6059
a(g5510
V5/4
p6060
(lp6061
(g83
F1.25
g5510
g6060
tp6062
ag2251
(lp6063
V2016-10-26 23:26:11
p6064
tp6065
a(g5510
V5/4
p6066
(lp6067
(g83
F1.25
g5510
g6066
tp6068
ag884
(lp6069
V2016-10-26 23:28:45
p6070
tp6071
a(g5510
V1.25
p6072
(lp6073
(g83
F1.25
g5510
g6072
tp6074
ag891
(lp6075
V2016-10-27 23:54:25
p6076
tp6077
a(g5510
V1.25
p6078
(lp6079
(g83
F1.25
g5510
g6078
tp6080
ag898
(lp6081
V2016-10-24 23:51:51
p6082
tp6083
a(g5510
V7.5-2.5^2
p6084
(lp6085
(g83
F1.25
g5510
g6084
tp6086
ag905
(lp6087
V2016-10-27 23:32:44
p6088
tp6089
a(g5510
V1.25
p6090
(lp6091
(g83
F1.25
g5510
g6090
tp6092
ag926
(lp6093
V2016-10-23 17:27:05
p6094
tp6095
a(g5510
V1.25
p6096
(lp6097
(g83
F1.25
g5510
g6096
tp6098
ag940
(lp6099
V2016-10-27 19:14:13
p6100
tp6101
a(g5510
V1.25
p6102
(lp6103
(g83
F1.25
g5510
g6102
tp6104
ag2300
(lp6105
V2016-10-28 06:01:02
p6106
tp6107
a(g5510
V1.25
p6108
(lp6109
(g83
F1.25
g5510
g6108
tp6110
ag947
(lp6111
V2016-10-28 06:02:57
p6112
tp6113
a(g5510
V1.25
p6114
(lp6115
(g83
F1.25
g5510
g6114
tp6116
aS'piamsiri'
p6117
(lp6118
V2016-10-24 04:24:01
p6119
tp6120
a(g5510
V7.5 - (2.5)^2
p6121
(lp6122
(g83
F1.25
g5510
g6121
tp6123
ag975
(lp6124
V2016-10-24 04:26:04
p6125
tp6126
a(g5510
V1.25
p6127
(lp6128
(g83
F1.25
g5510
g6127
tp6129
ag2326
(lp6130
V2016-10-28 02:01:21
p6131
tp6132
a(g5510
V1.25
p6133
(lp6134
(g83
F1.25
g5510
g6133
tp6135
ag982
(lp6136
V2016-10-28 02:02:47
p6137
tp6138
a(g5510
V(0.25*(1^2)+(0.25*(2^2))+(0.25*(3^2))+(0.25*(4^2)))-(0.25*1+0.25*2+0.25*3+0.25*4)^2
p6139
(lp6140
(g83
F1.25
g5510
g6139
tp6141
ag1003
(lp6142
V2016-10-28 05:37:44
p6143
tp6144
a(g5510
V((1+4+9+16)/4)-((10/4)(10/4))
p6145
(lp6146
(g83
F1.25
g5510
g6145
tp6147
ag2359
(lp6148
V2016-10-25 02:18:37
p6149
tp6150
a(g5510
V((1+4+9+16)/4)-((10/4)(10/4))
p6151
(lp6152
(g83
F1.25
g5510
g6151
tp6153
ag1010
(lp6154
V2016-10-25 02:21:20
p6155
tp6156
a(g5510
V1.25
p6157
(lp6158
(g83
F1.25
g5510
g6157
tp6159
ag1017
(lp6160
V2016-10-23 19:08:06
p6161
tp6162
a(g5510
V1.25
p6163
(lp6164
(g83
F1.25
g5510
g6163
tp6165
ag1024
(lp6166
V2016-10-23 19:09:30
p6167
tp6168
a(g5510
V(30/4)-2.5*2.5
p6169
(lp6170
(g83
F1.25
g5510
g6169
tp6171
ag1031
(lp6172
V2016-10-24 00:11:53
p6173
tp6174
a(g5510
V((1+4+9+16)/4)-(10/4)^2
p6175
(lp6176
(g83
F1.25
g5510
g6175
tp6177
ag1059
(lp6178
V2016-10-26 01:43:42
p6179
tp6180
a(g5510
V1.25
p6181
(lp6182
(g83
F1.25
g5510
g6181
tp6183
ag1066
(lp6184
V2016-10-28 04:10:02
p6185
tp6186
a(g5510
V5/4
p6187
(lp6188
(g83
F1.25
g5510
g6187
tp6189
ag2403
(lp6190
V2016-10-22 17:10:43
p6191
tp6192
a(g5510
V1.25
p6193
(lp6194
(g83
F1.25
g5510
g6193
tp6195
ag2410
(lp6196
V2016-10-22 17:16:06
p6197
tp6198
a(g5510
V1.25
p6199
(lp6200
(g83
F1.25
g5510
g6199
tp6201
ag2417
(lp6202
V2016-10-24 21:32:31
p6203
tp6204
a(g5510
V1.25
p6205
(lp6206
(g83
F1.25
g5510
g6205
tp6207
ag2424
(lp6208
V2016-10-24 21:33:22
p6209
tp6210
a(g5510
V1.25
p6211
(lp6212
(g83
F1.25
g5510
g6211
tp6213
ag1073
(lp6214
V2016-10-24 21:33:54
p6215
tp6216
a(g5510
V(1+4+9+16)/4 - ((1+2+3+4)/4)^2
p6217
(lp6218
(g83
F1.25
g5510
g6217
tp6219
ag2437
(lp6220
V2016-10-28 03:03:05
p6221
tp6222
a(g5510
V(1+4+9+16)/4 - ((1+2+3+4)/4)^2
p6223
(lp6224
(g83
F1.25
g5510
g6223
tp6225
ag1080
(lp6226
V2016-10-28 03:05:18
p6227
tp6228
a(g5510
V1.25
p6229
(lp6230
(g83
F1.25
g5510
g6229
tp6231
ag2450
(lp6232
V2016-10-28 01:33:37
p6233
tp6234
a(g5510
V1.25
p6235
(lp6236
(g83
F1.25
g5510
g6235
tp6237
ag1087
(lp6238
V2016-10-28 01:34:41
p6239
tp6240
a(g5510
V1.25
p6241
(lp6242
(g83
F1.25
g5510
g6241
tp6243
ag1094
(lp6244
V2016-10-28 01:35:39
p6245
tp6246
a(g5510
V7.5-6.25
p6247
(lp6248
(g83
F1.25
g5510
g6247
tp6249
ag2469
(lp6250
V2016-10-27 20:31:01
p6251
tp6252
a(g5510
V7.5-6.25
p6253
(lp6254
(g83
F1.25
g5510
g6253
tp6255
ag1108
(lp6256
V2016-10-27 20:32:55
p6257
tp6258
a(g5510
V30/4 - (10/4)^2
p6259
(lp6260
(g83
F1.25
g5510
g6259
tp6261
ag2482
(lp6262
V2016-10-25 02:16:43
p6263
tp6264
a(g5510
V30/4 - ((10/4)^2)
p6265
(lp6266
(g83
F1.25
g5510
g6265
tp6267
ag1122
(lp6268
V2016-10-25 16:39:21
p6269
tp6270
a(g5510
V30/4 - ((10/4)^2)
p6271
(lp6272
(g83
F1.25
g5510
g6271
tp6273
ag1129
(lp6274
V2016-10-25 16:40:23
p6275
tp6276
a(g5510
V1.25
p6277
(lp6278
(g83
F1.25
g5510
g6277
tp6279
ag1150
(lp6280
V2016-10-28 06:03:14
p6281
tp6282
a(g5510
V1.25
p6283
(lp6284
(g83
F1.25
g5510
g6283
tp6285
ag2520
(lp6286
V2016-10-22 17:22:10
p6287
tp6288
a(g5510
V1.25
p6289
(lp6290
(g83
F1.25
g5510
g6289
tp6291
aS'jih089'
p6292
(lp6293
V2016-10-22 17:29:05
p6294
tp6295
a(g5510
V1.25
p6296
(lp6297
(g83
F1.25
g5510
g6296
tp6298
aS'jih089'
p6299
(lp6300
V2016-10-22 17:30:22
p6301
tp6302
a(g5510
V1.25
p6303
(lp6304
(g83
F1.25
g5510
g6303
tp6305
ag5146
(lp6306
V2016-10-23 02:01:41
p6307
tp6308
a(g5510
V1.25
p6309
(lp6310
(g83
F1.25
g5510
g6309
tp6311
ag2527
(lp6312
V2016-10-23 02:51:24
p6313
tp6314
a(g5510
V1.25
p6315
(lp6316
(g83
F1.25
g5510
g6315
tp6317
ag1157
(lp6318
V2016-10-23 02:52:04
p6319
tp6320
a(g5510
V(1*(1/4)+4*(1/4)+9*(1/4)+16*(1/4))-(1*(1/4)+2*(1/4)+3*(1/4)+4*(1/4))^2
p6321
(lp6322
(g83
F1.25
g5510
g6321
tp6323
ag2540
(lp6324
V2016-10-23 01:21:19
p6325
tp6326
a(g5510
V7.5-(2.5)^2
p6327
(lp6328
(g83
F1.25
g5510
g6327
tp6329
ag2554
(lp6330
V2016-10-23 01:46:57
p6331
tp6332
a(g5510
V((1/4)*(1+4+9+16))-((1/4)*(1+2+3+4))^2
p6333
(lp6334
(g83
F1.25
g5510
g6333
tp6335
ag2561
(lp6336
V2016-10-23 01:56:11
p6337
tp6338
a(g5510
V1.25
p6339
(lp6340
(g83
F1.25
g5510
g6339
tp6341
ag2568
(lp6342
V2016-10-23 02:02:24
p6343
tp6344
a(g5510
V1.25
p6345
(lp6346
(g83
F1.25
g5510
g6345
tp6347
ag2575
(lp6348
V2016-10-23 04:13:31
p6349
tp6350
a(g5510
V1.25
p6351
(lp6352
(g83
F1.25
g5510
g6351
tp6353
ag75
(lp6354
V2016-10-23 04:15:59
p6355
tp6356
a(g5510
V1.25
p6357
(lp6358
(g83
F1.25
g5510
g6357
tp6359
ag1164
(lp6360
V2016-10-23 04:17:00
p6361
tp6362
a(g5510
V(30/4)-(10/4)^2
p6363
(lp6364
(g83
F1.25
g5510
g6363
tp6365
ag1178
(lp6366
V2016-10-24 01:45:28
p6367
tp6368
a(g5510
V(30/4)-(10/4)^2
p6369
(lp6370
(g83
F1.25
g5510
g6369
tp6371
ag1185
(lp6372
V2016-10-24 01:48:03
p6373
tp6374
a(g5510
V(0.25+1+(9/4)+4)-(0.25+0.5+0.75+1)^2
p6375
(lp6376
(g83
F1.25
g5510
g6375
tp6377
ag1192
(lp6378
V2016-10-27 03:11:09
p6379
tp6380
a(g5510
V1.25
p6381
(lp6382
(g83
F1.25
g5510
g6381
tp6383
ag5232
(lp6384
V2016-10-28 06:33:57
p6385
tp6386
a(g5510
V1.25
p6387
(lp6388
(g83
F1.25
g5510
g6387
tp6389
ag1220
(lp6390
V2016-10-28 06:38:20
p6391
tp6392
a(g5510
V1.25
p6393
(lp6394
(g83
F1.25
g5510
g6393
tp6395
ag1227
(lp6396
V2016-10-27 05:48:27
p6397
tp6398
a(g5510
V1.25
p6399
(lp6400
(g83
F1.25
g5510
g6399
tp6401
ag1234
(lp6402
V2016-10-27 05:50:16
p6403
tp6404
a(g5510
V1.25
p6405
(lp6406
(g83
F1.25
g5510
g6405
tp6407
ag2649
(lp6408
V2016-10-27 07:31:52
p6409
tp6410
a(g5510
V1.25
p6411
(lp6412
(g83
F1.25
g5510
g6411
tp6413
ag1241
(lp6414
V2016-10-27 07:34:23
p6415
tp6416
a(g5510
V7.5-2.5^2
p6417
(lp6418
(g83
F1.25
g5510
g6417
tp6419
ag1262
(lp6420
V2016-10-28 00:54:00
p6421
tp6422
a(g5510
V7.5-2.5^2
p6423
(lp6424
(g83
F1.25
g5510
g6423
tp6425
ag1269
(lp6426
V2016-10-24 21:47:22
p6427
tp6428
a(g5510
V1.25
p6429
(lp6430
(g83
F1.25
g5510
g6429
tp6431
ag1276
(lp6432
V2016-10-28 01:27:21
p6433
tp6434
a(g5510
V1.25
p6435
(lp6436
(g83
F1.25
g5510
g6435
tp6437
ag1283
(lp6438
V2016-10-28 01:28:12
p6439
tp6440
a(g5510
V(1/4 * (1+4+9+16)) - (1/4 * (1+2+3+4))^2
p6441
(lp6442
(g83
F1.25
g5510
g6441
tp6443
ag1297
(lp6444
V2016-10-27 08:54:09
p6445
tp6446
a(g5510
V (1/4 * (1+4+9+16)) - (1/4 * (1+2+3+4))^2
p6447
(lp6448
(g83
F1.25
g5510
V(1/4 * (1+4+9+16)) - (1/4 * (1+2+3+4))^2
p6449
tp6450
ag1305
(lp6451
V2016-10-27 08:55:25
p6452
tp6453
a(g5510
V1.25
p6454
(lp6455
(g83
F1.25
g5510
g6454
tp6456
ag1326
(lp6457
V2016-10-28 02:51:28
p6458
tp6459
a(g5510
V30/4 - 2.5^2
p6460
(lp6461
(g83
F1.25
g5510
g6460
tp6462
ag1333
(lp6463
V2016-10-26 23:52:37
p6464
tp6465
a(g5510
V1.25
p6466
(lp6467
(g83
F1.25
g5510
g6466
tp6468
ag1340
(lp6469
V2016-10-28 05:26:22
p6470
tp6471
a(g5510
V1.25
p6472
(lp6473
(g83
F1.25
g5510
g6472
tp6474
ag1347
(lp6475
V2016-10-28 06:26:46
p6476
tp6477
a(g5510
V1.25
p6478
(lp6479
(g83
F1.25
g5510
g6478
tp6480
ag1375
(lp6481
V2016-10-27 21:52:30
p6482
tp6483
a(g5510
V1.25
p6484
(lp6485
(g83
F1.25
g5510
g6484
tp6486
ag1382
(lp6487
V2016-10-27 08:38:55
p6488
tp6489
a(g5510
V7.5-2.5*2.5
p6490
(lp6491
(g83
F1.25
g5510
g6490
tp6492
ag1389
(lp6493
V2016-10-26 01:02:06
p6494
tp6495
a(g5510
V((1+4+9+16)/4) - (2.5^2)
p6496
(lp6497
(g83
F1.25
g5510
g6496
tp6498
ag1424
(lp6499
V2016-10-26 08:35:40
p6500
tp6501
a(g5510
V1.25
p6502
(lp6503
(g83
F1.25
g5510
g6502
tp6504
ag2772
(lp6505
V2016-10-28 00:10:18
p6506
tp6507
a(g5510
V1.25
p6508
(lp6509
(g83
F1.25
g5510
g6508
tp6510
ag2779
(lp6511
V2016-10-28 00:12:18
p6512
tp6513
a(g5510
V1.25
p6514
(lp6515
(g83
F1.25
g5510
g6514
tp6516
ag2786
(lp6517
V2016-10-28 00:15:03
p6518
tp6519
a(g5510
V1.25
p6520
(lp6521
(g83
F1.25
g5510
g6520
tp6522
ag1431
(lp6523
V2016-10-28 00:18:20
p6524
tp6525
a(g5510
V(.25 + 1 + .25*9 + 4) - (0.25 + .5 + .75 + 1)^2
p6526
(lp6527
(g83
F1.25
g5510
g6526
tp6528
ag2799
(lp6529
V2016-10-26 21:18:35
p6530
tp6531
a(g5510
V(.25 + 1 + .25*9 + 4) - (0.25 + .5 + .75 + 1)^2
p6532
(lp6533
(g83
F1.25
g5510
g6532
tp6534
ag1438
(lp6535
V2016-10-26 21:21:15
p6536
tp6537
a(g5510
V(30/4)-(10/4)^2
p6538
(lp6539
(g83
F1.25
g5510
g6538
tp6540
ag1445
(lp6541
V2016-10-26 23:52:47
p6542
tp6543
a(g5510
V1.25
p6544
(lp6545
(g83
F1.25
g5510
g6544
tp6546
ag1473
(lp6547
V2016-10-25 20:09:49
p6548
tp6549
a(g5510
V1.25
p6550
(lp6551
(g83
F1.25
g5510
g6550
tp6552
ag1480
(lp6553
V2016-10-25 00:35:50
p6554
tp6555
a(g5510
V7.5 - 2.5^2
p6556
(lp6557
(g83
F1.25
g5510
g6556
tp6558
ag1487
(lp6559
V2016-10-28 02:50:10
p6560
tp6561
a(g5510
V1.25
p6562
(lp6563
(g83
F1.25
g5510
g6562
tp6564
ag1494
(lp6565
V2016-10-28 03:22:32
p6566
tp6567
a(g5510
V(1*0.25+4*0.25+9*0.25+16*0.25)-(1*0.25+2*0.25+3*0.25+4*0.25)^2
p6568
(lp6569
(g83
F1.25
g5510
g6568
tp6570
ag1501
(lp6571
V2016-10-28 03:45:37
p6572
tp6573
a(g5510
V(1*0.25+4*0.25+9*0.25+16*0.25) - (1*0.25+2*0.25+3*0.25+4*0.25)^2
p6574
(lp6575
(g83
F1.25
g5510
g6574
tp6576
ag1508
(lp6577
V2016-10-26 02:54:09
p6578
tp6579
a(g5510
V(1*1/4+4*1/4+9*1/4+16*1/4)-(1*1/4+2*1/4+3*1/4+4*1/4)^2
p6580
(lp6581
(g83
F1.25
g5510
g6580
tp6582
aS'gpagliar'
p6583
(lp6584
V2016-10-27 21:05:21
p6585
tp6586
a(g5510
V(1*1/4+4*1/4+9*1/4+16*1/4)-(1*1/4+2*1/4+3*1/4+4*1/4)^2
p6587
(lp6588
(g83
F1.25
g5510
g6587
tp6589
ag1515
(lp6590
V2016-10-27 21:07:42
p6591
tp6592
a(g5510
V1.25
p6593
(lp6594
(g83
F1.25
g5510
g6593
tp6595
ag1522
(lp6596
V2016-10-27 05:31:58
p6597
tp6598
a(g5510
V1.25
p6599
(lp6600
(g83
F1.25
g5510
g6599
tp6601
ag1529
(lp6602
V2016-10-27 05:34:00
p6603
tp6604
a(g5510
V(0.25 + 1 + (9/4) + 4) - 2.5^2
p6605
(lp6606
(g83
F1.25
g5510
g6605
tp6607
ag2886
(lp6608
V2016-10-27 18:56:46
p6609
tp6610
a(g5510
V(0.25 + 1 + 9/4 + 4 ) - 2.5^2
p6611
(lp6612
(g83
F1.25
g5510
g6611
tp6613
ag1543
(lp6614
V2016-10-27 19:00:12
p6615
tp6616
a(g5510
V1.25
p6617
(lp6618
(g83
F1.25
g5510
g6617
tp6619
ag1564
(lp6620
V2016-10-28 05:17:14
p6621
tp6622
a(g5510
V((1+4+9+16) * .25) - ((1+2+3+4)/4)*((1+2+3+4)/4)
p6623
(lp6624
(g83
F1.25
g5510
g6623
tp6625
ag1571
(lp6626
V2016-10-27 07:49:52
p6627
tp6628
a(g5510
V(1(0.25))+(4(0.25))+(9(0.25))+(16(0.25)) - ((1(0.25))+(2(0.25))+(3(0.25))+(4(0.25)))^2
p6629
(lp6630
(g83
F1.25
g5510
g6629
tp6631
ag2925
(lp6632
V2016-10-27 22:49:04
p6633
tp6634
a(g5510
V(1(0.25))+(4(0.25))+(9(0.25))+(16(0.25)) - ((1(0.25))+(2(0.25))+(3(0.25))+(4(0.25)))^2
p6635
(lp6636
(g83
F1.25
g5510
g6635
tp6637
ag1592
(lp6638
V2016-10-27 22:50:14
p6639
tp6640
a(g5510
V1.25
p6641
(lp6642
(g83
F1.25
g5510
g6641
tp6643
ag2938
(lp6644
V2016-10-22 07:37:56
p6645
tp6646
ass.