(dp0
S'1'
p1
ccollections
defaultdict
p2
(c__builtin__
list
p3
tp4
Rp5
S'Digits'
p6
(lp7
(S'1.5'
p8
V1
p9
tp10
a(g1
V4
p11
tp12
a(g1
V3
p13
tp14
a(g8
V1
p15
tp16
a(g8
V1
p17
tp18
a(g8
V1
p19
tp20
a(S'0.5'
p21
V1
p22
tp23
a(g21
V1
p24
tp25
a(g8
V1
p26
tp27
a(g8
V1
p28
tp29
a(g8
V1
p30
tp31
a(g8
V3
p32
tp33
a(g21
V1
p34
tp35
a(g8
V1
p36
tp37
a(g8
V1
p38
tp39
a(g8
V1
p40
tp41
a(g8
V1
p42
tp43
a(g21
V1
p44
tp45
a(g21
V1
p46
tp47
a(g1
V3
p48
tp49
a(g1
V3
p50
tp51
a(g1
V3
p52
tp53
a(g1
V3
p54
tp55
a(g8
V1
p56
tp57
a(g8
V1
p58
tp59
a(g8
V3
p60
tp61
a(g8
V3
p62
tp63
a(g8
V1
p64
tp65
a(g8
V1
p66
tp67
a(g8
V3
p68
tp69
a(g8
V3
p70
tp71
a(g8
V1
p72
tp73
a(g8
V1
p74
tp75
a(g8
V1
p76
tp77
a(g8
V1
p78
tp79
a(g8
V7
p80
tp81
a(g8
V3
p82
tp83
a(g8
V1
p84
tp85
a(g8
V6
p86
tp87
a(g8
V1
p88
tp89
a(g1
V2
p90
tp91
a(g1
V4
p92
tp93
a(g1
V2
p94
tp95
a(g1
V2
p96
tp97
a(g8
V1
p98
tp99
a(g1
V11
p100
tp101
a(g1
V11
p102
tp103
a(g8
V1
p104
tp105
a(g8
V1
p106
tp107
a(g8
V1
p108
tp109
a(g8
V1
p110
tp111
a(g8
V1
p112
tp113
a(g8
V0
p114
tp115
a(g8
V0
p116
tp117
a(g8
V1
p118
tp119
a(g8
V1
p120
tp121
a(g8
V0
p122
tp123
a(g8
V0
p124
tp125
a(g8
V0
p126
tp127
a(g8
V0
p128
tp129
a(g21
V1
p130
tp131
a(g21
V1
p132
tp133
a(g8
V1
p134
tp135
a(g8
V1
p136
tp137
a(g1
V4
p138
tp139
a(g1
V4
p140
tp141
a(g1
V6
p142
tp143
a(g1
V6
p144
tp145
a(g1
V5
p146
tp147
a(g1
V5
p148
tp149
a(g8
V1
p150
tp151
a(g8
V1
p152
tp153
a(g8
V1
p154
tp155
a(g8
V1
p156
tp157
a(g8
V2
p158
tp159
a(g8
V2
p160
tp161
a(g21
V1
p162
tp163
a(g8
V1
p164
tp165
a(g8
V1
p166
tp167
a(g8
V1
p168
tp169
a(g8
V1
p170
tp171
a(g21
V0
p172
tp173
a(g1
V6
p174
tp175
a(g1
V2
p176
tp177
a(g8
V1
p178
tp179
a(g8
V1
p180
tp181
a(g21
V1
p182
tp183
a(g21
V1
p184
tp185
a(g8
V1
p186
tp187
a(g21
V1
p188
tp189
a(g8
V1
p190
tp191
a(g8
V1234
p192
tp193
a(g8
V1
p194
tp195
a(g8
V1
p196
tp197
asS'Wrong_Sign'
p198
(lp199
(g1
V-2.0
p200
tp201
a(g1
V-2.0
p202
tp203
a(g1
V-2.0
p204
tp205
a(g1
V-2.0
p206
tp207
a(g1
V-2.0
p208
tp209
a(g1
V-2.0
p210
tp211
a(g1
V-1.0
p212
tp213
a(g1
V-1.0
p214
tp215
a(g8
V-.5
p216
tp217
a(g21
V-0.5
p218
tp219
a(g21
V-0.5
p220
tp221
a(g1
V-2.0
p222
tp223
a(g1
V-1
p224
tp225
a(g1
V-1.0
p226
tp227
a(g1
V-0.9
p228
tp229
a(g1
V-1
p230
tp231
a(g1
V-2.9
p232
tp233
a(g1
V-2.9
p234
tp235
a(g1
V-0.5
p236
tp237
a(g1
V-0.5
p238
tp239
asS"['R']"
p240
(lp241
(g1
V1
p242
(lp243
(S'R'
p244
F1.0
g1
g242
tp245
aS'Lpascual'
p246
(lp247
V2016-10-27 03:31:31
p248
tp249
a(g1
V1
p250
(lp251
(g244
F1.0
g1
g250
tp252
aS'Lpascual'
p253
(lp254
V2016-10-27 04:00:48
p255
tp256
a(g1
V1
p257
(lp258
(g244
F1.0
g1
g257
tp259
aS'Lpascual'
p260
(lp261
V2016-10-27 04:03:07
p262
tp263
a(g1
V1
p264
(lp265
(g244
F1.0
g1
g264
tp266
aS'Lpascual'
p267
(lp268
V2016-10-27 04:03:52
p269
tp270
a(g1
V1
p271
(lp272
(g244
F1.0
g1
g271
tp273
aS'Lpascual'
p274
(lp275
V2016-10-27 04:04:43
p276
tp277
a(g1
V1
p278
(lp279
(g244
F1.0
g1
g278
tp280
aS'Lpascual'
p281
(lp282
V2016-10-27 04:05:43
p283
tp284
a(g1
V1
p285
(lp286
(g244
F1.0
g1
g285
tp287
aS'Lpascual'
p288
(lp289
V2016-10-27 04:06:19
p290
tp291
a(g1
V1
p292
(lp293
(g244
F1.0
g1
g292
tp294
aS'Lpascual'
p295
(lp296
V2016-10-27 04:08:20
p297
tp298
a(g21
V0.5
p299
(lp300
(g244
F0.5
g21
g299
tp301
aS'yazin-yousif'
p302
(lp303
V2016-10-27 17:30:37
p304
tp305
a(g21
V0.5
p306
(lp307
(g244
F0.5
g21
g306
tp308
aS'yazin-yousif'
p309
(lp310
V2016-10-27 17:33:11
p311
tp312
a(g21
V0.5
p313
(lp314
(g244
F0.5
g21
g313
tp315
aS'yazin-yousif'
p316
(lp317
V2016-10-27 17:33:53
p318
tp319
a(g8
V1.5
p320
(lp321
(g244
F1.5
g8
g320
tp322
aS'adejesus'
p323
(lp324
V2016-10-27 15:37:48
p325
tp326
a(g8
V1.5
p327
(lp328
(g244
F1.5
g8
g327
tp329
aS'adejesus'
p330
(lp331
V2016-10-27 16:13:49
p332
tp333
a(g8
V1.5
p334
(lp335
(g244
F1.5
g8
g334
tp336
aS'adejesus'
p337
(lp338
V2016-10-27 18:46:09
p339
tp340
a(g8
V1.5
p341
(lp342
(g244
F1.5
g8
g341
tp343
aS'adejesus'
p344
(lp345
V2016-10-27 18:46:55
p346
tp347
a(g1
V1
p348
(lp349
(g244
F1.0
g1
g348
tp350
aS'aliceh'
p351
(lp352
V2016-10-26 05:18:02
p353
tp354
a(g1
V1
p355
(lp356
(g244
F1.0
g1
g355
tp357
aS'JunnelReboquio'
p358
(lp359
V2016-10-26 21:27:11
p360
tp361
a(g1
V1
p362
(lp363
(g244
F1.0
g1
g362
tp364
aS'JunnelReboquio'
p365
(lp366
V2016-10-26 21:27:11
p367
tp368
a(g1
V1
p369
(lp370
(g244
F1.0
g1
g369
tp371
aS'JunnelReboquio'
p372
(lp373
V2016-10-26 21:27:47
p374
tp375
a(g1
V1
p376
(lp377
(g244
F1.0
g1
g376
tp378
aS'JunnelReboquio'
p379
(lp380
V2016-10-26 21:27:47
p381
tp382
a(g1
V1
p383
(lp384
(g244
F1.0
g1
g383
tp385
aS'JunnelReboquio'
p386
(lp387
V2016-10-26 22:24:20
p388
tp389
a(g8
V1.5
p390
(lp391
(g244
F1.5
g8
g390
tp392
aS'wangpin'
p393
(lp394
V2016-10-28 01:17:35
p395
tp396
a(g1
V1
p397
(lp398
(g244
F1.0
g1
g397
tp399
aS'pyae'
p400
(lp401
V2016-10-28 04:31:53
p402
tp403
a(g8
V1.5
p404
(lp405
(g244
F1.5
g8
g404
tp406
aS'wtchiu'
p407
(lp408
V2016-10-28 04:22:25
p409
tp410
a(g8
V1.5
p411
(lp412
(g244
F1.5
g8
g411
tp413
aS'ray003'
p414
(lp415
V2016-10-25 19:39:57
p416
tp417
a(g8
V1.5
p418
(lp419
(g244
F1.5
g8
g418
tp420
aS'kevin'
p421
(lp422
V2016-10-26 23:34:14
p423
tp424
a(g1
V1
p425
(lp426
(g244
F1.0
g1
g425
tp427
aS'linhaoyu'
p428
(lp429
V2016-10-27 21:14:12
p430
tp431
a(g21
V0.5
p432
(lp433
(g244
F0.5
g21
g432
tp434
aS'JiaqiHuang'
p435
(lp436
V2016-10-27 20:43:41
p437
tp438
a(g1
V1
p439
(lp440
(g244
F1.0
g1
g439
tp441
aS'ReneSanchez'
p442
(lp443
V2016-10-26 19:56:45
p444
tp445
a(g8
V1.5
p446
(lp447
(g244
F1.5
g8
g446
tp448
aS'safarsi'
p449
(lp450
V2016-10-27 03:09:07
p451
tp452
a(g8
V1.5
p453
(lp454
(g244
F1.5
g8
g453
tp455
aS'safarsi'
p456
(lp457
V2016-10-27 03:56:20
p458
tp459
a(g8
V1.5
p460
(lp461
(g244
F1.5
g8
g460
tp462
aS'safarsi'
p463
(lp464
V2016-10-27 18:27:11
p465
tp466
a(g8
V1.5
p467
(lp468
(g244
F1.5
g8
g467
tp469
aS'jar045'
p470
(lp471
V2016-10-25 04:02:46
p472
tp473
a(g8
V1.5
p474
(lp475
(g244
F1.5
g8
g474
tp476
aS'jar045'
p477
(lp478
V2016-10-25 04:02:46
p479
tp480
a(g8
V1.5
p481
(lp482
(g244
F1.5
g8
g481
tp483
aS'jar045'
p484
(lp485
V2016-10-25 04:03:15
p486
tp487
a(g8
V1.5
p488
(lp489
(g244
F1.5
g8
g488
tp490
aS'jar045'
p491
(lp492
V2016-10-25 04:03:15
p493
tp494
a(g8
V1.5
p495
(lp496
(g244
F1.5
g8
g495
tp497
aS'jar045'
p498
(lp499
V2016-10-25 04:03:37
p500
tp501
a(g1
V1
p502
(lp503
(g244
F1.0
g1
g502
tp504
aS'kyle'
p505
(lp506
V2016-10-26 03:56:12
p507
tp508
a(g21
V.5
p509
(lp510
(g244
F0.5
g21
g509
tp511
aS'tommyt1109'
p512
(lp513
V2016-10-26 00:36:59
p514
tp515
a(g8
V0.75/0.5
p516
(lp517
(g244
F1.5
g8
g516
tp518
aS'christhoperbernard'
p519
(lp520
V2016-10-27 20:31:32
p521
tp522
a(g8
V1.5
p523
(lp524
(g244
F1.5
g8
g523
tp525
aS'alvinyho'
p526
(lp527
V2016-10-27 09:00:16
p528
tp529
a(g1
V1
p530
(lp531
(g244
F1.0
g1
g530
tp532
aS'Derrick'
p533
(lp534
V2016-10-28 06:17:38
p535
tp536
a(g1
V1
p537
(lp538
(g244
F1.0
g1
g537
tp539
aS'Derrick'
p540
(lp541
V2016-10-28 06:17:38
p542
tp543
a(g1
V1
p544
(lp545
(g244
F1.0
g1
g544
tp546
aS'Derrick'
p547
(lp548
V2016-10-28 06:23:52
p549
tp550
a(g1
V1
p551
(lp552
(g244
F1.0
g1
g551
tp553
aS'Von'
p554
(lp555
V2016-10-27 07:51:54
p556
tp557
a(g1
V1
p558
(lp559
(g244
F1.0
g1
g558
tp560
aS'lmfink'
p561
(lp562
V2016-10-27 02:02:08
p563
tp564
a(g1
V1
p565
(lp566
(g244
F1.0
g1
g565
tp567
aS'lmfink'
p568
(lp569
V2016-10-27 02:02:08
p570
tp571
a(g1
V1
p572
(lp573
(g244
F1.0
g1
g572
tp574
aS'lmfink'
p575
(lp576
V2016-10-27 02:02:39
p577
tp578
a(g1
V1
p579
(lp580
(g244
F1.0
g1
g579
tp581
aS'lmfink'
p582
(lp583
V2016-10-27 02:02:39
p584
tp585
a(g1
V1
p586
(lp587
(g244
F1.0
g1
g586
tp588
aS'lmfink'
p589
(lp590
V2016-10-27 02:03:06
p591
tp592
a(g1
V1
p593
(lp594
(g244
F1.0
g1
g593
tp595
aS'lmfink'
p596
(lp597
V2016-10-27 02:03:06
p598
tp599
a(g1
V1
p600
(lp601
(g244
F1.0
g1
g600
tp602
aS'lmfink'
p603
(lp604
V2016-10-27 02:03:31
p605
tp606
a(g1
V1
p607
(lp608
(g244
F1.0
g1
g607
tp609
aS'GNajera'
p610
(lp611
V2016-10-21 22:47:30
p612
tp613
a(g1
V1
p614
(lp615
(g244
F1.0
g1
g614
tp616
aS'MattBowen96'
p617
(lp618
V2016-10-27 07:08:46
p619
tp620
a(g8
V1.5
p621
(lp622
(g244
F1.5
g8
g621
tp623
aS'chenboy3'
p624
(lp625
V2016-10-26 20:35:04
p626
tp627
a(g21
V0.5
p628
(lp629
(g244
F0.5
g21
g628
tp630
aS'sunilraiyani'
p631
(lp632
V2016-10-25 08:44:35
p633
tp634
a(g1
V1
p635
(lp636
(g244
F1.0
g1
g635
tp637
aS'yjx99335'
p638
(lp639
V2016-10-28 00:44:18
p640
tp641
a(g8
V1.5
p642
(lp643
(g244
F1.5
g8
g642
tp644
aS'ShenTing'
p645
(lp646
V2016-10-26 23:27:53
p647
tp648
a(g8
V1.5
p649
(lp650
(g244
F1.5
g8
g649
tp651
aS'erxue'
p652
(lp653
V2016-10-28 05:57:35
p654
tp655
a(g8
V1.5
p656
(lp657
(g244
F1.5
g8
g656
tp658
aS'cpence'
p659
(lp660
V2016-10-28 06:57:09
p661
tp662
a(g21
V0.5
p663
(lp664
(g244
F0.5
g21
g663
tp665
aS'PriyankaK'
p666
(lp667
V2016-10-26 22:31:08
p668
tp669
a(g1
V1
p670
(lp671
(g244
F1.0
g1
g670
tp672
aS'Riyang'
p673
(lp674
V2016-10-27 21:50:31
p675
tp676
a(g1
V1
p677
(lp678
(g244
F1.0
g1
g677
tp679
aS'woguan'
p680
(lp681
V2016-10-26 16:17:06
p682
tp683
a(g1
V1
p684
(lp685
(g244
F1.0
g1
g684
tp686
aS'TianhaoQiu'
p687
(lp688
V2016-10-28 00:59:36
p689
tp690
a(g1
V1
p691
(lp692
(g244
F1.0
g1
g691
tp693
aS'Byung'
p694
(lp695
V2016-10-27 02:22:54
p696
tp697
a(g8
V1.5
p698
(lp699
(g244
F1.5
g8
g698
tp700
aS'dzech'
p701
(lp702
V2016-10-27 04:11:48
p703
tp704
a(g1
V1
p705
(lp706
(g244
F1.0
g1
g705
tp707
aS'YuqinWu'
p708
(lp709
V2016-10-26 00:28:59
p710
tp711
a(g1
V1.0
p712
(lp713
(g244
F1.0
g1
g712
tp714
aS'JonahCruz'
p715
(lp716
V2016-10-25 05:56:52
p717
tp718
a(g1
V1
p719
(lp720
(g244
F1.0
g1
g719
tp721
aS'JonahCruz'
p722
(lp723
V2016-10-25 06:01:48
p724
tp725
a(g8
V1.5
p726
(lp727
(g244
F1.5
g8
g726
tp728
aS'rsamuail'
p729
(lp730
V2016-10-27 21:33:14
p731
tp732
a(g8
V1.5
p733
(lp734
(g244
F1.5
g8
g733
tp735
aS'rsamuail'
p736
(lp737
V2016-10-27 23:41:06
p738
tp739
a(g8
V1.5
p740
(lp741
(g244
F1.5
g8
g740
tp742
aS'rsamuail'
p743
(lp744
V2016-10-27 23:41:06
p745
tp746
a(g8
V1.5
p747
(lp748
(g244
F1.5
g8
g747
tp749
aS'rsamuail'
p750
(lp751
V2016-10-28 00:15:42
p752
tp753
a(g8
V1.5
p754
(lp755
(g244
F1.5
g8
g754
tp756
aS'rsamuail'
p757
(lp758
V2016-10-28 00:15:42
p759
tp760
a(g8
V1.5
p761
(lp762
(g244
F1.5
g8
g761
tp763
aS'rsamuail'
p764
(lp765
V2016-10-28 00:16:05
p766
tp767
a(g8
V1.5
p768
(lp769
(g244
F1.5
g8
g768
tp770
aS'rsamuail'
p771
(lp772
V2016-10-28 00:16:05
p773
tp774
a(g8
V1.5
p775
(lp776
(g244
F1.5
g8
g775
tp777
aS'rsamuail'
p778
(lp779
V2016-10-28 00:16:40
p780
tp781
a(g8
V1.5
p782
(lp783
(g244
F1.5
g8
g782
tp784
aS'shadams'
p785
(lp786
V2016-10-27 02:42:21
p787
tp788
a(g8
V1.5
p789
(lp790
(g244
F1.5
g8
g789
tp791
aS'shadams'
p792
(lp793
V2016-10-27 17:47:50
p794
tp795
a(g21
V.5
p796
(lp797
(g244
F0.5
g21
g796
tp798
aS'hunguyen'
p799
(lp800
V2016-10-28 05:11:37
p801
tp802
a(g8
V1.5
p803
(lp804
(g244
F1.5
g8
g803
tp805
aS'abelmont'
p806
(lp807
V2016-10-27 06:30:27
p808
tp809
a(g8
V1.5
p810
(lp811
(g244
F1.5
g8
g810
tp812
aS'abelmont'
p813
(lp814
V2016-10-27 06:32:45
p815
tp816
a(g1
V1
p817
(lp818
(g244
F1.0
g1
g817
tp819
aS'codyndoan'
p820
(lp821
V2016-10-25 23:16:29
p822
tp823
a(g8
V1.5
p824
(lp825
(g244
F1.5
g8
g824
tp826
aS'AndrewYang24'
p827
(lp828
V2016-10-28 00:53:44
p829
tp830
a(g1
V1
p831
(lp832
(g244
F1.0
g1
g831
tp833
aS'AlexM'
p834
(lp835
V2016-10-26 00:46:50
p836
tp837
a(g8
V1.5
p838
(lp839
(g244
F1.5
g8
g838
tp840
aS'ankannan'
p841
(lp842
V2016-10-28 02:53:54
p843
tp844
a(g1
V1
p845
(lp846
(g244
F1.0
g1
g845
tp847
aS'QIQIWU'
p848
(lp849
V2016-10-28 04:18:26
p850
tp851
a(g1
V1
p852
(lp853
(g244
F1.0
g1
g852
tp854
aS'QIQIWU'
p855
(lp856
V2016-10-28 04:18:50
p857
tp858
a(g1
V1
p859
(lp860
(g244
F1.0
g1
g859
tp861
aS'QIQIWU'
p862
(lp863
V2016-10-28 04:19:14
p864
tp865
a(g8
V1.5
p866
(lp867
(g244
F1.5
g8
g866
tp868
aS'Max'
p869
(lp870
V2016-10-28 04:22:03
p871
tp872
a(g1
V1
p873
(lp874
(g244
F1.0
g1
g873
tp875
aS'alebedev'
p876
(lp877
V2016-10-26 21:43:45
p878
tp879
a(g1
V1
p880
(lp881
(g244
F1.0
g1
g880
tp882
aS'CharlesCruz'
p883
(lp884
V2016-10-25 01:01:02
p885
tp886
a(g1
V1
p887
(lp888
(g244
F1.0
g1
g887
tp889
aS'CharlesCruz'
p890
(lp891
V2016-10-25 01:01:02
p892
tp893
a(g1
V1
p894
(lp895
(g244
F1.0
g1
g894
tp896
aS'CharlesCruz'
p897
(lp898
V2016-10-25 01:02:31
p899
tp900
a(g1
V1
p901
(lp902
(g244
F1.0
g1
g901
tp903
aS'Ryan_Yi'
p904
(lp905
V2016-10-26 03:19:37
p906
tp907
a(g1
V1
p908
(lp909
(g244
F1.0
g1
g908
tp910
aS'Ryan_Yi'
p911
(lp912
V2016-10-26 03:19:37
p913
tp914
a(g1
V1
p915
(lp916
(g244
F1.0
g1
g915
tp917
aS'Ryan_Yi'
p918
(lp919
V2016-10-26 03:43:22
p920
tp921
a(g8
V1.5
p922
(lp923
(g244
F1.5
g8
g922
tp924
aS'msp'
p925
(lp926
V2016-10-27 23:25:49
p927
tp928
a(g8
V1.5
p929
(lp930
(g244
F1.5
g8
g929
tp931
aS'ctetreau'
p932
(lp933
V2016-10-27 21:25:22
p934
tp935
a(g8
V1.5
p936
(lp937
(g244
F1.5
g8
g936
tp938
aS'ctetreau'
p939
(lp940
V2016-10-27 21:28:06
p941
tp942
a(g8
V1.5
p943
(lp944
(g244
F1.5
g8
g943
tp945
aS'ctetreau'
p946
(lp947
V2016-10-27 21:29:43
p948
tp949
a(g1
V1
p950
(lp951
(g244
F1.0
g1
g950
tp952
aS't2xu'
p953
(lp954
V2016-10-27 03:23:35
p955
tp956
a(g8
V1.5
p957
(lp958
(g244
F1.5
g8
g957
tp959
aS'cameronEllis'
p960
(lp961
V2016-10-26 01:21:07
p962
tp963
a(g8
V1.5
p964
(lp965
(g244
F1.5
g8
g964
tp966
aS'vnoxdev'
p967
(lp968
V2016-10-25 19:32:23
p969
tp970
a(g8
V1.5
p971
(lp972
(g244
F1.5
g8
g971
tp973
aS'tsy'
p974
(lp975
V2016-10-27 21:25:51
p976
tp977
a(g8
V1.5
p978
(lp979
(g244
F1.5
g8
g978
tp980
aS'brandon_vo'
p981
(lp982
V2016-10-27 20:59:30
p983
tp984
a(g1
V1
p985
(lp986
(g244
F1.0
g1
g985
tp987
aS'd1vo'
p988
(lp989
V2016-10-25 17:05:06
p990
tp991
a(g1
V1
p992
(lp993
(g244
F1.0
g1
g992
tp994
aS'JasonHuang'
p995
(lp996
V2016-10-27 06:42:33
p997
tp998
a(g1
V1
p999
(lp1000
(g244
F1.0
g1
g999
tp1001
aS'JasonHuang'
p1002
(lp1003
V2016-10-27 06:42:59
p1004
tp1005
a(g8
V1.5
p1006
(lp1007
(g244
F1.5
g8
g1006
tp1008
aS'VanessaC'
p1009
(lp1010
V2016-10-27 19:28:53
p1011
tp1012
a(g1
V1
p1013
(lp1014
(g244
F1.0
g1
g1013
tp1015
aS'evahuynh'
p1016
(lp1017
V2016-10-27 00:32:51
p1018
tp1019
a(g1
V1
p1020
(lp1021
(g244
F1.0
g1
g1020
tp1022
aS'evahuynh'
p1023
(lp1024
V2016-10-27 00:35:05
p1025
tp1026
a(g1
V1
p1027
(lp1028
(g244
F1.0
g1
g1027
tp1029
aS'evahuynh'
p1030
(lp1031
V2016-10-27 00:36:57
p1032
tp1033
a(g8
V1.5
p1034
(lp1035
(g244
F1.5
g8
g1034
tp1036
aS'aives'
p1037
(lp1038
V2016-10-24 09:05:48
p1039
tp1040
a(g8
V1.5
p1041
(lp1042
(g244
F1.5
g8
g1041
tp1043
aS'Joonhan'
p1044
(lp1045
V2016-10-27 10:15:17
p1046
tp1047
a(g1
V1
p1048
(lp1049
(g244
F1.0
g1
g1048
tp1050
aS'yuhan'
p1051
(lp1052
V2016-10-28 04:56:09
p1053
tp1054
a(g1
V1
p1055
(lp1056
(g244
F1.0
g1
g1055
tp1057
aS'aspindle'
p1058
(lp1059
V2016-10-27 01:44:58
p1060
tp1061
a(g1
V1
p1062
(lp1063
(g244
F1.0
g1
g1062
tp1064
aS'Ankush_Sarow'
p1065
(lp1066
V2016-10-25 22:15:00
p1067
tp1068
a(g1
V1
p1069
(lp1070
(g244
F1.0
g1
g1069
tp1071
aS'dkeirouz'
p1072
(lp1073
V2016-10-28 04:54:12
p1074
tp1075
a(g8
V1.5
p1076
(lp1077
(g244
F1.5
g8
g1076
tp1078
aS'Zeyi'
p1079
(lp1080
V2016-10-25 20:10:29
p1081
tp1082
a(g8
V1.5
p1083
(lp1084
(g244
F1.5
g8
g1083
tp1085
aS'KevinKlein'
p1086
(lp1087
V2016-10-25 21:58:28
p1088
tp1089
a(g1
V1
p1090
(lp1091
(g244
F1.0
g1
g1090
tp1092
aS'Melvinw'
p1093
(lp1094
V2016-10-28 07:02:42
p1095
tp1096
a(g8
V1.5
p1097
(lp1098
(g244
F1.5
g8
g1097
tp1099
aS'TrevorJuanitas'
p1100
(lp1101
V2016-10-28 05:52:31
p1102
tp1103
a(g8
V1.5
p1104
(lp1105
(g244
F1.5
g8
g1104
tp1106
aS'TrevorJuanitas'
p1107
(lp1108
V2016-10-28 05:52:31
p1109
tp1110
a(g8
V1.5
p1111
(lp1112
(g244
F1.5
g8
g1111
tp1113
aS'TrevorJuanitas'
p1114
(lp1115
V2016-10-28 06:01:38
p1116
tp1117
a(g8
V1.5
p1118
(lp1119
(g244
F1.5
g8
g1118
tp1120
aS'TrevorJuanitas'
p1121
(lp1122
V2016-10-28 06:03:40
p1123
tp1124
a(g8
V1.5
p1125
(lp1126
(g244
F1.5
g8
g1125
tp1127
aS'TrevorJuanitas'
p1128
(lp1129
V2016-10-28 06:21:47
p1130
tp1131
a(g8
V1.5
p1132
(lp1133
(g244
F1.5
g8
g1132
tp1134
aS'TrevorJuanitas'
p1135
(lp1136
V2016-10-28 06:21:47
p1137
tp1138
a(g8
V1.5
p1139
(lp1140
(g244
F1.5
g8
g1139
tp1141
aS'TrevorJuanitas'
p1142
(lp1143
V2016-10-28 06:22:14
p1144
tp1145
a(g8
V1.5
p1146
(lp1147
(g244
F1.5
g8
g1146
tp1148
aS'TrevorJuanitas'
p1149
(lp1150
V2016-10-28 06:22:14
p1151
tp1152
a(g8
V1.5
p1153
(lp1154
(g244
F1.5
g8
g1153
tp1155
aS'TrevorJuanitas'
p1156
(lp1157
V2016-10-28 06:22:39
p1158
tp1159
a(g8
V1.5
p1160
(lp1161
(g244
F1.5
g8
g1160
tp1162
aS'TrevorJuanitas'
p1163
(lp1164
V2016-10-28 06:23:05
p1165
tp1166
a(g21
V0.5
p1167
(lp1168
(g244
F0.5
g21
g1167
tp1169
aS'Arash'
p1170
(lp1171
V2016-10-27 17:09:06
p1172
tp1173
a(g8
V1.5
p1174
(lp1175
(g244
F1.5
g8
g1174
tp1176
aS'TianYang'
p1177
(lp1178
V2016-10-28 00:14:42
p1179
tp1180
a(g1
V1
p1181
(lp1182
(g244
F1.0
g1
g1181
tp1183
aS'Kevin_Pansawira'
p1184
(lp1185
V2016-10-27 18:51:18
p1186
tp1187
a(g1
V1
p1188
(lp1189
(g244
F1.0
g1
g1188
tp1190
aS'vincebai'
p1191
(lp1192
V2016-10-24 20:42:32
p1193
tp1194
a(g1
V1
p1195
(lp1196
(g244
F1.0
g1
g1195
tp1197
aS'vincebai'
p1198
(lp1199
V2016-10-26 06:45:54
p1200
tp1201
a(g1
V1
p1202
(lp1203
(g244
F1.0
g1
g1202
tp1204
aS'vincebai'
p1205
(lp1206
V2016-10-26 07:45:37
p1207
tp1208
a(g1
V1
p1209
(lp1210
(g244
F1.0
g1
g1209
tp1211
aS'vincebai'
p1212
(lp1213
V2016-10-26 07:45:37
p1214
tp1215
a(g1
V1
p1216
(lp1217
(g244
F1.0
g1
g1216
tp1218
aS'vincebai'
p1219
(lp1220
V2016-10-26 07:48:17
p1221
tp1222
a(g1
V1
p1223
(lp1224
(g244
F1.0
g1
g1223
tp1225
aS'vincebai'
p1226
(lp1227
V2016-10-26 07:57:20
p1228
tp1229
a(g1
V1
p1230
(lp1231
(g244
F1.0
g1
g1230
tp1232
aS'vincebai'
p1233
(lp1234
V2016-10-26 07:57:20
p1235
tp1236
a(g1
V1
p1237
(lp1238
(g244
F1.0
g1
g1237
tp1239
aS'vincebai'
p1240
(lp1241
V2016-10-26 08:04:17
p1242
tp1243
a(g1
V1
p1244
(lp1245
(g244
F1.0
g1
g1244
tp1246
aS'vincebai'
p1247
(lp1248
V2016-10-26 08:04:17
p1249
tp1250
a(g1
V1
p1251
(lp1252
(g244
F1.0
g1
g1251
tp1253
aS'vincebai'
p1254
(lp1255
V2016-10-26 08:04:54
p1256
tp1257
a(g1
V1
p1258
(lp1259
(g244
F1.0
g1
g1258
tp1260
aS'vincebai'
p1261
(lp1262
V2016-10-26 08:04:54
p1263
tp1264
a(g1
V1
p1265
(lp1266
(g244
F1.0
g1
g1265
tp1267
aS'vincebai'
p1268
(lp1269
V2016-10-26 08:05:19
p1270
tp1271
a(g1
V1
p1272
(lp1273
(g244
F1.0
g1
g1272
tp1274
aS'vincebai'
p1275
(lp1276
V2016-10-26 08:05:19
p1277
tp1278
a(g1
V1
p1279
(lp1280
(g244
F1.0
g1
g1279
tp1281
aS'vincebai'
p1282
(lp1283
V2016-10-26 08:05:43
p1284
tp1285
a(g1
V1
p1286
(lp1287
(g244
F1.0
g1
g1286
tp1288
aS'vincebai'
p1289
(lp1290
V2016-10-26 08:05:43
p1291
tp1292
a(g1
V1
p1293
(lp1294
(g244
F1.0
g1
g1293
tp1295
aS'vincebai'
p1296
(lp1297
V2016-10-26 08:06:07
p1298
tp1299
a(g21
V.5
p1300
(lp1301
(g244
F0.5
g21
g1300
tp1302
aS'njcrow'
p1303
(lp1304
V2016-10-28 02:57:22
p1305
tp1306
a(g8
V1.5
p1307
(lp1308
(g244
F1.5
g8
g1307
tp1309
aS'dillonliu'
p1310
(lp1311
V2016-10-25 03:28:00
p1312
tp1313
a(g8
V1.5
p1314
(lp1315
(g244
F1.5
g8
g1314
tp1316
aS'szh'
p1317
(lp1318
V2016-10-26 22:20:15
p1319
tp1320
a(g1
V1.0
p1321
(lp1322
(g244
F1.0
g1
g1321
tp1323
aS'Bsgreenb'
p1324
(lp1325
V2016-10-25 23:43:52
p1326
tp1327
a(g21
V0.5
p1328
(lp1329
(g244
F0.5
g21
g1328
tp1330
aS'URajkumar'
p1331
(lp1332
V2016-10-28 03:46:34
p1333
tp1334
a(g21
V0.5
p1335
(lp1336
(g244
F0.5
g21
g1335
tp1337
aS'URajkumar'
p1338
(lp1339
V2016-10-28 03:46:59
p1340
tp1341
a(g8
V1.5
p1342
(lp1343
(g244
F1.5
g8
g1342
tp1344
aS'ShannonWang'
p1345
(lp1346
V2016-10-25 19:56:30
p1347
tp1348
a(g21
V0.5
p1349
(lp1350
(g244
F0.5
g21
g1349
tp1351
aS'alidding'
p1352
(lp1353
V2016-10-27 16:37:05
p1354
tp1355
a(g21
V0.5
p1356
(lp1357
(g244
F0.5
g21
g1356
tp1358
aS'alidding'
p1359
(lp1360
V2016-10-27 16:37:05
p1361
tp1362
a(g21
V0.5
p1363
(lp1364
(g244
F0.5
g21
g1363
tp1365
aS'alidding'
p1366
(lp1367
V2016-10-27 17:02:48
p1368
tp1369
a(g8
V1.5
p1370
(lp1371
(g244
F1.5
g8
g1370
tp1372
aS'ottojursch'
p1373
(lp1374
V2016-10-26 20:59:47
p1375
tp1376
a(g8
V1.5
p1377
(lp1378
(g244
F1.5
g8
g1377
tp1379
aS'ottojursch'
p1380
(lp1381
V2016-10-26 20:59:47
p1382
tp1383
a(g8
V1.5
p1384
(lp1385
(g244
F1.5
g8
g1384
tp1386
aS'ottojursch'
p1387
(lp1388
V2016-10-26 21:44:57
p1389
tp1390
a(g8
V1.5
p1391
(lp1392
(g244
F1.5
g8
g1391
tp1393
aS'ottojursch'
p1394
(lp1395
V2016-10-26 21:44:57
p1396
tp1397
a(g8
V1.5
p1398
(lp1399
(g244
F1.5
g8
g1398
tp1400
aS'ottojursch'
p1401
(lp1402
V2016-10-26 22:00:52
p1403
tp1404
a(g8
V1.5
p1405
(lp1406
(g244
F1.5
g8
g1405
tp1407
aS'ottojursch'
p1408
(lp1409
V2016-10-26 22:00:52
p1410
tp1411
a(g8
V1.5
p1412
(lp1413
(g244
F1.5
g8
g1412
tp1414
aS'ottojursch'
p1415
(lp1416
V2016-10-26 22:19:27
p1417
tp1418
a(g1
V1
p1419
(lp1420
(g244
F1.0
g1
g1419
tp1421
aS'maddymanu'
p1422
(lp1423
V2016-10-27 01:20:35
p1424
tp1425
a(g1
V1
p1426
(lp1427
(g244
F1.0
g1
g1426
tp1428
aS'ThuanNguyen'
p1429
(lp1430
V2016-10-27 17:55:59
p1431
tp1432
a(g1
V1
p1433
(lp1434
(g244
F1.0
g1
g1433
tp1435
aS'piamsiri'
p1436
(lp1437
V2016-10-24 03:34:39
p1438
tp1439
a(g1
V1
p1440
(lp1441
(g244
F1.0
g1
g1440
tp1442
aS'StefanWooding'
p1443
(lp1444
V2016-10-28 01:34:59
p1445
tp1446
a(g8
V1.5
p1447
(lp1448
(g244
F1.5
g8
g1447
tp1449
aS'christywong'
p1450
(lp1451
V2016-10-26 00:33:48
p1452
tp1453
a(g8
V1.5
p1454
(lp1455
(g244
F1.5
g8
g1454
tp1456
aS'christywong'
p1457
(lp1458
V2016-10-26 00:37:05
p1459
tp1460
a(g1
V1
p1461
(lp1462
(g244
F1.0
g1
g1461
tp1463
aS'DannyDelCerro'
p1464
(lp1465
V2016-10-26 01:30:17
p1466
tp1467
a(g1
V1
p1468
(lp1469
(g244
F1.0
g1
g1468
tp1470
aS'k1siu'
p1471
(lp1472
V2016-10-25 05:48:04
p1473
tp1474
a(g8
V1.5
p1475
(lp1476
(g244
F1.5
g8
g1475
tp1477
aS'wheilson'
p1478
(lp1479
V2016-10-27 14:23:45
p1480
tp1481
a(g8
V1.5
p1482
(lp1483
(g244
F1.5
g8
g1482
tp1484
aS'wheilson'
p1485
(lp1486
V2016-10-27 14:23:45
p1487
tp1488
a(g8
V1.5
p1489
(lp1490
(g244
F1.5
g8
g1489
tp1491
aS'wheilson'
p1492
(lp1493
V2016-10-27 14:25:02
p1494
tp1495
a(g1
V1.0
p1496
(lp1497
(g244
F1.0
g1
g1496
tp1498
aS'Ian'
p1499
(lp1500
V2016-10-26 01:28:40
p1501
tp1502
a(g1
V1
p1503
(lp1504
(g244
F1.0
g1
g1503
tp1505
aS'til005'
p1506
(lp1507
V2016-10-28 04:03:10
p1508
tp1509
a(g1
V1
p1510
(lp1511
(g244
F1.0
g1
g1510
tp1512
aS'pesca'
p1513
(lp1514
V2016-10-28 04:10:25
p1515
tp1516
a(g8
V1.5
p1517
(lp1518
(g244
F1.5
g8
g1517
tp1519
aS'Zhongting'
p1520
(lp1521
V2016-10-24 22:12:27
p1522
tp1523
a(g8
V1.5
p1524
(lp1525
(g244
F1.5
g8
g1524
tp1526
aS'mbland'
p1527
(lp1528
V2016-10-28 02:26:13
p1529
tp1530
a(g21
V.5
p1531
(lp1532
(g244
F0.5
g21
g1531
tp1533
aS'katielau'
p1534
(lp1535
V2016-10-27 19:19:17
p1536
tp1537
a(g21
V.5
p1538
(lp1539
(g244
F0.5
g21
g1538
tp1540
aS'katielau'
p1541
(lp1542
V2016-10-27 19:20:05
p1543
tp1544
a(g1
V1
p1545
(lp1546
(g244
F1.0
g1
g1545
tp1547
aS'Ryan'
p1548
(lp1549
V2016-10-25 17:34:37
p1550
tp1551
a(g1
V1.0
p1552
(lp1553
(g244
F1.0
g1
g1552
tp1554
aS'jih089'
p1555
(lp1556
V2016-10-22 06:19:38
p1557
tp1558
a(g8
V1.5
p1559
(lp1560
(g244
F1.5
g8
g1559
tp1561
aS'Guillermo'
p1562
(lp1563
V2016-10-26 04:38:05
p1564
tp1565
a(g8
V1.5
p1566
(lp1567
(g244
F1.5
g8
g1566
tp1568
aS'RobinO'
p1569
(lp1570
V2016-10-25 03:33:51
p1571
tp1572
a(g1
V1
p1573
(lp1574
(g244
F1.0
g1
g1573
tp1575
aS'wesokuhara'
p1576
(lp1577
V2016-10-28 04:48:18
p1578
tp1579
a(g1
V1
p1580
(lp1581
(g244
F1.0
g1
g1580
tp1582
aS'srrozen'
p1583
(lp1584
V2016-10-25 21:14:05
p1585
tp1586
a(g1
V1.0
p1587
(lp1588
(g244
F1.0
g1
g1587
tp1589
aS'minhsuanyao'
p1590
(lp1591
V2016-10-26 05:40:26
p1592
tp1593
a(g1
V1
p1594
(lp1595
(g244
F1.0
g1
g1594
tp1596
aS'ssolanki'
p1597
(lp1598
V2016-10-27 18:27:31
p1599
tp1600
a(g1
V1
p1601
(lp1602
(g244
F1.0
g1
g1601
tp1603
aS'ssolanki'
p1604
(lp1605
V2016-10-28 05:08:11
p1606
tp1607
a(g1
V1
p1608
(lp1609
(g244
F1.0
g1
g1608
tp1610
aS'DannyChan'
p1611
(lp1612
V2016-10-27 05:32:16
p1613
tp1614
a(g8
V1.5
p1615
(lp1616
(g244
F1.5
g8
g1615
tp1617
aS'amt040'
p1618
(lp1619
V2016-10-27 04:02:13
p1620
tp1621
a(g1
V1
p1622
(lp1623
(g244
F1.0
g1
g1622
tp1624
aS'A4chau'
p1625
(lp1626
V2016-10-27 07:10:29
p1627
tp1628
a(g1
V1
p1629
(lp1630
(g244
F1.0
g1
g1629
tp1631
aS'A4chau'
p1632
(lp1633
V2016-10-27 07:10:29
p1634
tp1635
a(g1
V1
p1636
(lp1637
(g244
F1.0
g1
g1636
tp1638
aS'A4chau'
p1639
(lp1640
V2016-10-27 07:11:11
p1641
tp1642
a(g1
V1
p1643
(lp1644
(g244
F1.0
g1
g1643
tp1645
aS'A4chau'
p1646
(lp1647
V2016-10-27 07:11:11
p1648
tp1649
a(g1
V1
p1650
(lp1651
(g244
F1.0
g1
g1650
tp1652
aS'A4chau'
p1653
(lp1654
V2016-10-27 07:11:55
p1655
tp1656
a(g1
V1
p1657
(lp1658
(g244
F1.0
g1
g1657
tp1659
aS'A4chau'
p1660
(lp1661
V2016-10-27 07:11:55
p1662
tp1663
a(g1
V1
p1664
(lp1665
(g244
F1.0
g1
g1664
tp1666
aS'A4chau'
p1667
(lp1668
V2016-10-27 07:12:20
p1669
tp1670
a(g1
V1
p1671
(lp1672
(g244
F1.0
g1
g1671
tp1673
aS'Ken'
p1674
(lp1675
V2016-10-27 23:23:10
p1676
tp1677
a(g1
V1
p1678
(lp1679
(g244
F1.0
g1
g1678
tp1680
aS'Ken'
p1681
(lp1682
V2016-10-27 23:23:10
p1683
tp1684
a(g1
V1
p1685
(lp1686
(g244
F1.0
g1
g1685
tp1687
aS'Ken'
p1688
(lp1689
V2016-10-27 23:23:56
p1690
tp1691
a(g8
V1.5
p1692
(lp1693
(g244
F1.5
g8
g1692
tp1694
aS'zow006'
p1695
(lp1696
V2016-10-28 01:14:43
p1697
tp1698
a(g8
V1.5
p1699
(lp1700
(g244
F1.5
g8
g1699
tp1701
aS'tdea'
p1702
(lp1703
V2016-10-28 01:03:53
p1704
tp1705
a(g1
V1
p1706
(lp1707
(g244
F1.0
g1
g1706
tp1708
aS'kmesic'
p1709
(lp1710
V2016-10-26 23:42:40
p1711
tp1712
a(g1
V1
p1713
(lp1714
(g244
F1.0
g1
g1713
tp1715
aS'rdabir'
p1716
(lp1717
V2016-10-28 03:07:00
p1718
tp1719
a(g1
V1
p1720
(lp1721
(g244
F1.0
g1
g1720
tp1722
aS'rdabir'
p1723
(lp1724
V2016-10-28 03:11:16
p1725
tp1726
a(g1
V1
p1727
(lp1728
(g244
F1.0
g1
g1727
tp1729
aS'rdabir'
p1730
(lp1731
V2016-10-28 03:15:34
p1732
tp1733
a(g1
V1
p1734
(lp1735
(g244
F1.0
g1
g1734
tp1736
aS'rdabir'
p1737
(lp1738
V2016-10-28 03:15:57
p1739
tp1740
a(g1
V1
p1741
(lp1742
(g244
F1.0
g1
g1741
tp1743
aS'HansGamboa'
p1744
(lp1745
V2016-10-28 05:01:50
p1746
tp1747
a(g1
V1
p1748
(lp1749
(g244
F1.0
g1
g1748
tp1750
aS'HansGamboa'
p1751
(lp1752
V2016-10-28 05:01:50
p1753
tp1754
a(g1
V1
p1755
(lp1756
(g244
F1.0
g1
g1755
tp1757
aS'HansGamboa'
p1758
(lp1759
V2016-10-28 05:02:13
p1760
tp1761
a(g1
V1.0
p1762
(lp1763
(g244
F1.0
g1
g1762
tp1764
aS'zhc047'
p1765
(lp1766
V2016-10-26 22:15:41
p1767
tp1768
a(g21
V.5
p1769
(lp1770
(g244
F0.5
g21
g1769
tp1771
aS'NickWong'
p1772
(lp1773
V2016-10-27 07:10:58
p1774
tp1775
a(g8
V1.5
p1776
(lp1777
(g244
F1.5
g8
g1776
tp1778
aS'a2evans'
p1779
(lp1780
V2016-10-28 04:19:11
p1781
tp1782
a(g1
V1
p1783
(lp1784
(g244
F1.0
g1
g1783
tp1785
aS'rrivasfe'
p1786
(lp1787
V2016-10-27 17:31:06
p1788
tp1789
a(g1
V1
p1790
(lp1791
(g244
F1.0
g1
g1790
tp1792
aS'rrivasfe'
p1793
(lp1794
V2016-10-27 17:35:06
p1795
tp1796
a(g1
V1
p1797
(lp1798
(g244
F1.0
g1
g1797
tp1799
aS'WilliamZhu'
p1800
(lp1801
V2016-10-27 08:06:38
p1802
tp1803
a(g1
V1
p1804
(lp1805
(g244
F1.0
g1
g1804
tp1806
aS'WilliamZhu'
p1807
(lp1808
V2016-10-27 08:26:46
p1809
tp1810
a(g1
V1
p1811
(lp1812
(g244
F1.0
g1
g1811
tp1813
aS'kballew00'
p1814
(lp1815
V2016-10-27 14:05:05
p1816
tp1817
a(g21
V0.5
p1818
(lp1819
(g244
F0.5
g21
g1818
tp1820
aS'oganguli'
p1821
(lp1822
V2016-10-27 21:08:45
p1823
tp1824
a(g1
V1
p1825
(lp1826
(g244
F1.0
g1
g1825
tp1827
aS'PhillipJo'
p1828
(lp1829
V2016-10-25 07:57:06
p1830
tp1831
a(g8
V1.5
p1832
(lp1833
(g244
F1.5
g8
g1832
tp1834
aS'kkhuong'
p1835
(lp1836
V2016-10-28 05:32:41
p1837
tp1838
a(g8
V1.5
p1839
(lp1840
(g244
F1.5
g8
g1839
tp1841
aS'kkhuong'
p1842
(lp1843
V2016-10-28 05:32:41
p1844
tp1845
a(g8
V1.5
p1846
(lp1847
(g244
F1.5
g8
g1846
tp1848
aS'kkhuong'
p1849
(lp1850
V2016-10-28 05:35:00
p1851
tp1852
a(g1
V1
p1853
(lp1854
(g244
F1.0
g1
g1853
tp1855
aS'KevinChrisayrton'
p1856
(lp1857
V2016-10-28 07:00:37
p1858
tp1859
a(g21
V0.5
p1860
(lp1861
(g244
F0.5
g21
g1860
tp1862
aS'thartopu'
p1863
(lp1864
V2016-10-23 20:01:42
p1865
tp1866
a(g21
V0.5
p1867
(lp1868
(g244
F0.5
g21
g1867
tp1869
aS'thartopu'
p1870
(lp1871
V2016-10-23 20:02:07
p1872
tp1873
a(g8
V1.5
p1874
(lp1875
(g244
F1.5
g8
g1874
tp1876
aS'maxcjx'
p1877
(lp1878
V2016-10-25 20:19:46
p1879
tp1880
a(g1
V1
p1881
(lp1882
(g244
F1.0
g1
g1881
tp1883
aS'PizzaPolice'
p1884
(lp1885
V2016-10-26 07:04:05
p1886
tp1887
a(g8
V1.5
p1888
(lp1889
(g244
F1.5
g8
g1888
tp1890
aS'rdrabik'
p1891
(lp1892
V2016-10-28 03:56:43
p1893
tp1894
a(g1
V1
p1895
(lp1896
(g244
F1.0
g1
g1895
tp1897
aS'rleaton'
p1898
(lp1899
V2016-10-27 06:09:14
p1900
tp1901
a(g8
V1.5
p1902
(lp1903
(g244
F1.5
g8
g1902
tp1904
aS'MarianCrofts'
p1905
(lp1906
V2016-10-28 04:50:17
p1907
tp1908
a(g8
V1.5
p1909
(lp1910
(g244
F1.5
g8
g1909
tp1911
aS'MarianCrofts'
p1912
(lp1913
V2016-10-28 04:50:50
p1914
tp1915
a(g21
V0.5
p1916
(lp1917
(g244
F0.5
g21
g1916
tp1918
aS'HaoDong'
p1919
(lp1920
V2016-10-26 23:18:39
p1921
tp1922
a(g1
V1
p1923
(lp1924
(g244
F1.0
g1
g1923
tp1925
aS'jjgallaw'
p1926
(lp1927
V2016-10-25 19:51:48
p1928
tp1929
a(g1
V1
p1930
(lp1931
(g244
F1.0
g1
g1930
tp1932
aS'mtashman'
p1933
(lp1934
V2016-10-24 22:10:18
p1935
tp1936
a(g1
V1
p1937
(lp1938
(g244
F1.0
g1
g1937
tp1939
aS'mtashman'
p1940
(lp1941
V2016-10-24 22:12:17
p1942
tp1943
a(g1
V1
p1944
(lp1945
(g244
F1.0
g1
g1944
tp1946
aS'mtashman'
p1947
(lp1948
V2016-10-24 22:16:29
p1949
tp1950
a(g8
V1.5
p1951
(lp1952
(g244
F1.5
g8
g1951
tp1953
aS'axl004'
p1954
(lp1955
V2016-10-28 04:44:18
p1956
tp1957
a(g8
V1.5
p1958
(lp1959
(g244
F1.5
g8
g1958
tp1960
aS'axl004'
p1961
(lp1962
V2016-10-28 04:46:12
p1963
tp1964
a(g8
V1.5
p1965
(lp1966
(g244
F1.5
g8
g1965
tp1967
aS'axl004'
p1968
(lp1969
V2016-10-28 04:49:27
p1970
tp1971
a(g8
V1.5
p1972
(lp1973
(g244
F1.5
g8
g1972
tp1974
aS'axl004'
p1975
(lp1976
V2016-10-28 04:50:00
p1977
tp1978
a(g8
V1.5
p1979
(lp1980
(g244
F1.5
g8
g1979
tp1981
aS'axl004'
p1982
(lp1983
V2016-10-28 04:53:00
p1984
tp1985
a(g8
V1.5
p1986
(lp1987
(g244
F1.5
g8
g1986
tp1988
aS'mhatch'
p1989
(lp1990
V2016-10-26 03:31:20
p1991
tp1992
a(g8
V1.5
p1993
(lp1994
(g244
F1.5
g8
g1993
tp1995
aS'KabirGogia'
p1996
(lp1997
V2016-10-28 03:07:48
p1998
tp1999
a(g1
V1.0
p2000
(lp2001
(g244
F1.0
g1
g2000
tp2002
aS'zpreeces'
p2003
(lp2004
V2016-10-26 01:44:16
p2005
tp2006
a(g8
V1.5
p2007
(lp2008
(g244
F1.5
g8
g2007
tp2009
aS'KevinKuo'
p2010
(lp2011
V2016-10-28 05:57:18
p2012
tp2013
a(g1
V1
p2014
(lp2015
(g244
F1.0
g1
g2014
tp2016
aS'tzc007'
p2017
(lp2018
V2016-10-26 00:33:27
p2019
tp2020
a(g1
V1
p2021
(lp2022
(g244
F1.0
g1
g2021
tp2023
aS'tzc007'
p2024
(lp2025
V2016-10-26 00:38:03
p2026
tp2027
a(g8
V1.5
p2028
(lp2029
(g244
F1.5
g8
g2028
tp2030
aS'Sync'
p2031
(lp2032
V2016-10-28 04:51:43
p2033
tp2034
a(g1
V1
p2035
(lp2036
(g244
F1.0
g1
g2035
tp2037
aS'gpagliar'
p2038
(lp2039
V2016-10-27 19:28:15
p2040
tp2041
a(g1
V1
p2042
(lp2043
(g244
F1.0
g1
g2042
tp2044
aS'gpagliar'
p2045
(lp2046
V2016-10-27 19:29:31
p2047
tp2048
a(g8
V1.5
p2049
(lp2050
(g244
F1.5
g8
g2049
tp2051
aS'JessKwok'
p2052
(lp2053
V2016-10-27 00:10:38
p2054
tp2055
a(g21
V0.5
p2056
(lp2057
(g244
F0.5
g21
g2056
tp2058
aS'kennyglee'
p2059
(lp2060
V2016-10-26 05:56:03
p2061
tp2062
a(g1
V1
p2063
(lp2064
(g244
F1.0
g1
g2063
tp2065
aS'BrianaW'
p2066
(lp2067
V2016-10-26 23:24:01
p2068
tp2069
a(g1
V1
p2070
(lp2071
(g244
F1.0
g1
g2070
tp2072
aS'BrianaW'
p2073
(lp2074
V2016-10-27 00:18:05
p2075
tp2076
a(g21
V0.5
p2077
(lp2078
(g244
F0.5
g21
g2077
tp2079
aS'yash'
p2080
(lp2081
V2016-10-27 18:22:04
p2082
tp2083
a(g1
V1
p2084
(lp2085
(g244
F1.0
g1
g2084
tp2086
aS'Aidan'
p2087
(lp2088
V2016-10-28 03:55:25
p2089
tp2090
a(g1
V1
p2091
(lp2092
(g244
F1.0
g1
g2091
tp2093
aS'ddantas'
p2094
(lp2095
V2016-10-27 06:39:52
p2096
tp2097
a(g1
V1
p2098
(lp2099
(g244
F1.0
g1
g2098
tp2100
aS'ddantas'
p2101
(lp2102
V2016-10-27 06:41:33
p2103
tp2104
a(g8
V1.5
p2105
(lp2106
(g244
F1.5
g8
g2105
tp2107
aS'jarninfang'
p2108
(lp2109
V2016-10-27 18:32:36
p2110
tp2111
a(g8
V1.5
p2112
(lp2113
(g244
F1.5
g8
g2112
tp2114
aS'ajgiri'
p2115
(lp2116
V2016-10-28 06:58:30
p2117
tp2118
a(g8
V1.5
p2119
(lp2120
(g244
F1.5
g8
g2119
tp2121
aS'JonDo'
p2122
(lp2123
V2016-10-27 01:55:20
p2124
tp2125
a(g8
V1.5
p2126
(lp2127
(g244
F1.5
g8
g2126
tp2128
aS'JonDo'
p2129
(lp2130
V2016-10-27 02:03:45
p2131
tp2132
a(g8
V1.5
p2133
(lp2134
(g244
F1.5
g8
g2133
tp2135
aS'JonDo'
p2136
(lp2137
V2016-10-27 02:08:37
p2138
tp2139
a(g8
V1.5
p2140
(lp2141
(g244
F1.5
g8
g2140
tp2142
aS'JonDo'
p2143
(lp2144
V2016-10-27 02:13:00
p2145
tp2146
a(g8
V1.5
p2147
(lp2148
(g244
F1.5
g8
g2147
tp2149
aS'JonDo'
p2150
(lp2151
V2016-10-27 02:26:48
p2152
tp2153
a(g8
V1.5
p2154
(lp2155
(g244
F1.5
g8
g2154
tp2156
aS'JonDo'
p2157
(lp2158
V2016-10-27 02:27:24
p2159
tp2160
a(g8
V1.5
p2161
(lp2162
(g244
F1.5
g8
g2161
tp2163
aS'JonDo'
p2164
(lp2165
V2016-10-27 02:29:17
p2166
tp2167
a(g8
V1.5
p2168
(lp2169
(g244
F1.5
g8
g2168
tp2170
aS'JonDo'
p2171
(lp2172
V2016-10-27 02:29:17
p2173
tp2174
a(g8
V1.5
p2175
(lp2176
(g244
F1.5
g8
g2175
tp2177
aS'JonDo'
p2178
(lp2179
V2016-10-27 03:03:24
p2180
tp2181
a(g8
V1.5
p2182
(lp2183
(g244
F1.5
g8
g2182
tp2184
aS'JonDo'
p2185
(lp2186
V2016-10-27 03:03:24
p2187
tp2188
a(g8
V1.5
p2189
(lp2190
(g244
F1.5
g8
g2189
tp2191
aS'JonDo'
p2192
(lp2193
V2016-10-27 03:16:30
p2194
tp2195
a(g8
V1.5
p2196
(lp2197
(g244
F1.5
g8
g2196
tp2198
aS'JonDo'
p2199
(lp2200
V2016-10-27 03:16:30
p2201
tp2202
a(g8
V1.5
p2203
(lp2204
(g244
F1.5
g8
g2203
tp2205
aS'JonDo'
p2206
(lp2207
V2016-10-27 03:48:35
p2208
tp2209
a(g8
V1.5
p2210
(lp2211
(g244
F1.5
g8
g2210
tp2212
aS'JonDo'
p2213
(lp2214
V2016-10-27 03:48:35
p2215
tp2216
a(g8
V1.5
p2217
(lp2218
(g244
F1.5
g8
g2217
tp2219
aS'JonDo'
p2220
(lp2221
V2016-10-27 03:49:25
p2222
tp2223
a(g8
V1.5
p2224
(lp2225
(g244
F1.5
g8
g2224
tp2226
aS'JonDo'
p2227
(lp2228
V2016-10-27 03:49:25
p2229
tp2230
a(g8
V1.5
p2231
(lp2232
(g244
F1.5
g8
g2231
tp2233
aS'JonDo'
p2234
(lp2235
V2016-10-27 03:51:23
p2236
tp2237
a(g8
V1.5
p2238
(lp2239
(g244
F1.5
g8
g2238
tp2240
aS'JonDo'
p2241
(lp2242
V2016-10-27 03:51:23
p2243
tp2244
a(g8
V1.5
p2245
(lp2246
(g244
F1.5
g8
g2245
tp2247
aS'JonDo'
p2248
(lp2249
V2016-10-27 20:50:18
p2250
tp2251
asS'Fraction'
p2252
(lp2253
(g1
V1.5
p2254
tp2255
a(g1
V1.5
p2256
tp2257
a(g1
V.5
p2258
tp2259
a(g1
V.18
p2260
tp2261
a(g1
V0.5
p2262
tp2263
a(g1
V1.5
p2264
tp2265
a(g1
V1.5
p2266
tp2267
a(g1
V4.5
p2268
tp2269
a(g1
V1.5
p2270
tp2271
a(g1
V5.5
p2272
tp2273
a(g1
V4.5
p2274
tp2275
a(g1
V5.5
p2276
tp2277
a(g1
V2.5
p2278
tp2279
a(g1
V2.5
p2280
tp2281
a(g1
V0.2
p2282
tp2283
a(g1
V1.5
p2284
tp2285
a(g1
V4.5
p2286
tp2287
a(g1
V.2
p2288
tp2289
a(g1
V.2
p2290
tp2291
a(g1
V2.5/3
p2292
tp2293
a(g1
V2.5/3
p2294
tp2295
a(g1
V0.2
p2296
tp2297
a(g1
V0.2
p2298
tp2299
a(g1
V0.2
p2300
tp2301
a(g1
V0.2
p2302
tp2303
a(g1
V0.2
p2304
tp2305
a(g1
V0.2
p2306
tp2307
a(g1
V0.2
p2308
tp2309
a(g1
V0.2
p2310
tp2311
a(g1
V0.2
p2312
tp2313
a(g1
V0.2
p2314
tp2315
a(g1
V0.2
p2316
tp2317
a(g1
V0.2
p2318
tp2319
a(g1
V0.2
p2320
tp2321
a(g1
V0.2
p2322
tp2323
a(g1
V1.5
p2324
tp2325
a(g1
V1.5
p2326
tp2327
a(g1
V0.5
p2328
tp2329
a(g1
V0.5
p2330
tp2331
a(g1
V1.5
p2332
tp2333
a(g1
V0.4
p2334
tp2335
a(g1
V0.5
p2336
tp2337
a(g1
V0.5
p2338
tp2339
a(g1
V1.5
p2340
tp2341
a(g1
V1.5
p2342
tp2343
a(g1
V0.37
p2344
tp2345
a(g1
V0.37
p2346
tp2347
a(g1
V10/6
p2348
tp2349
a(g1
V10/6
p2350
tp2351
a(g1
V1.5
p2352
tp2353
a(g1
V1.5
p2354
tp2355
a(g1
V0.5
p2356
tp2357
a(g1
V0.5
p2358
tp2359
a(g1
V0.5
p2360
tp2361
a(g1
V0.18
p2362
tp2363
a(g1
V.35
p2364
tp2365
a(g1
V.5
p2366
tp2367
a(g1
V0.5
p2368
tp2369
a(g1
V1.5
p2370
tp2371
a(g1
V1.5
p2372
tp2373
a(g1
V4/3
p2374
tp2375
a(g1
V10/6
p2376
tp2377
a(g1
V9/6
p2378
tp2379
a(g1
V9/6
p2380
tp2381
a(g1
V4/3
p2382
tp2383
a(g1
V4/3
p2384
tp2385
a(g1
V1.5
p2386
tp2387
a(g1
V0.5
p2388
tp2389
a(g1
V1.5
p2390
tp2391
a(g1
V0.5
p2392
tp2393
a(g1
V0.5
p2394
tp2395
a(g1
V1.5
p2396
tp2397
a(g1
V0.17
p2398
tp2399
a(g1
V0.17
p2400
tp2401
a(g1
V0.2
p2402
tp2403
a(g1
V0.2
p2404
tp2405
a(g1
V0.5
p2406
tp2407
a(g1
V0.5
p2408
tp2409
a(g1
V0.5
p2410
tp2411
a(g1
V.5
p2412
tp2413
a(g1
V1.5
p2414
tp2415
a(g1
V1.5
p2416
tp2417
a(g1
V(2.25/2)^0.5
p2418
tp2419
a(g1
V(2.25/2)^0.5
p2420
tp2421
a(g1
V0.5
p2422
tp2423
a(g1
V0.5
p2424
tp2425
a(g1
V1.5
p2426
tp2427
a(g1
V1.5
p2428
tp2429
a(g1
V1.5
p2430
tp2431
a(g1
V1.5
p2432
tp2433
a(g1
V2.5
p2434
tp2435
a(g1
V0.5
p2436
tp2437
a(g1
V0.5
p2438
tp2439
a(g1
V0.2
p2440
tp2441
a(g1
V1.5
p2442
tp2443
a(g1
V0.18
p2444
tp2445
a(g1
V1.5
p2446
tp2447
a(g1
V0.3
p2448
tp2449
a(g1
V.5
p2450
tp2451
a(g1
V.5
p2452
tp2453
a(g1
V1.5
p2454
tp2455
a(g1
V0.5
p2456
tp2457
assS'3'
p2458
g2
(g3
tp2459
Rp2460
g6
(lp2461
(S'0.0'
p2462
V0
p2463
tp2464
a(g2462
V0
p2465
tp2466
a(g2462
V0
p2467
tp2468
a(g2462
V0
p2469
tp2470
a(g2462
V0
p2471
tp2472
a(g2462
V0
p2473
tp2474
a(g2462
V0
p2475
tp2476
a(g2462
V0
p2477
tp2478
a(g2462
V0
p2479
tp2480
a(g2462
V0
p2481
tp2482
a(g2462
V0
p2483
tp2484
a(g2462
V0
p2485
tp2486
a(g2462
V0
p2487
tp2488
a(g2462
V0
p2489
tp2490
a(g2462
V0
p2491
tp2492
a(S'3.0'
p2493
V5
p2494
tp2495
a(g2462
V0
p2496
tp2497
a(g2462
V0
p2498
tp2499
a(g2462
V0
p2500
tp2501
a(g2462
V0
p2502
tp2503
a(g2462
V0
p2504
tp2505
a(g2462
V0
p2506
tp2507
a(g2462
V0
p2508
tp2509
a(g2462
V0
p2510
tp2511
a(g2462
V0
p2512
tp2513
a(g2462
V0
p2514
tp2515
a(g2462
V0
p2516
tp2517
a(g2462
V0
p2518
tp2519
a(g2462
V0
p2520
tp2521
a(g2462
V0
p2522
tp2523
a(g2462
V0
p2524
tp2525
a(g2462
V0
p2526
tp2527
a(g2462
V0
p2528
tp2529
a(g2462
V0
p2530
tp2531
a(g2462
V0
p2532
tp2533
a(g2462
V0
p2534
tp2535
a(g2462
V0
p2536
tp2537
a(g2462
V0
p2538
tp2539
a(g2462
V0
p2540
tp2541
a(g2462
V0
p2542
tp2543
a(g2462
V0
p2544
tp2545
a(g2462
V0
p2546
tp2547
a(g2462
V0
p2548
tp2549
a(g2462
V0
p2550
tp2551
a(g2462
V0
p2552
tp2553
a(g2462
V0
p2554
tp2555
a(g2462
V0
p2556
tp2557
a(g2462
V0
p2558
tp2559
asg198
(lp2560
(S'-0.5'
p2561
V0.5
p2562
tp2563
a(g2493
V-0.5
p2564
tp2565
a(g2493
V-0.5
p2566
tp2567
a(g2561
V1
p2568
tp2569
a(g2561
V1
p2570
tp2571
a(g2561
V0.5
p2572
tp2573
a(g2493
V-0.5
p2574
tp2575
a(g2561
V0.5
p2576
tp2577
a(g2493
V-.5
p2578
tp2579
asS"['R']"
p2580
(lp2581
(S'2.5'
p2582
V2.5
p2583
(lp2584
(g244
F2.5
g2582
g2583
tp2585
aS'Lpascual'
p2586
(lp2587
V2016-10-26 00:23:10
p2588
tp2589
a(g2582
V2.5
p2590
(lp2591
(g244
F2.5
g2582
g2590
tp2592
aS'Lpascual'
p2593
(lp2594
V2016-10-27 03:25:11
p2595
tp2596
a(g2582
V2.5
p2597
(lp2598
(g244
F2.5
g2582
g2597
tp2599
ag246
(lp2600
V2016-10-27 03:31:31
p2601
tp2602
a(g2582
V2.5
p2603
(lp2604
(g244
F2.5
g2582
g2603
tp2605
aS'Lpascual'
p2606
(lp2607
V2016-10-27 03:59:41
p2608
tp2609
a(g2582
V2.5
p2610
(lp2611
(g244
F2.5
g2582
g2610
tp2612
ag253
(lp2613
V2016-10-27 04:00:48
p2614
tp2615
a(g2582
V2.5
p2616
(lp2617
(g244
F2.5
g2582
g2616
tp2618
ag260
(lp2619
V2016-10-27 04:03:07
p2620
tp2621
a(g2582
V2.5
p2622
(lp2623
(g244
F2.5
g2582
g2622
tp2624
ag267
(lp2625
V2016-10-27 04:03:52
p2626
tp2627
a(g2582
V2.5
p2628
(lp2629
(g244
F2.5
g2582
g2628
tp2630
ag274
(lp2631
V2016-10-27 04:04:43
p2632
tp2633
a(g2582
V2.5
p2634
(lp2635
(g244
F2.5
g2582
g2634
tp2636
ag281
(lp2637
V2016-10-27 04:05:43
p2638
tp2639
a(g2582
V2.5
p2640
(lp2641
(g244
F2.5
g2582
g2640
tp2642
ag288
(lp2643
V2016-10-27 04:06:19
p2644
tp2645
a(g2582
V2.5
p2646
(lp2647
(g244
F2.5
g2582
g2646
tp2648
ag295
(lp2649
V2016-10-27 04:08:20
p2650
tp2651
a(g2561
V-0.5
p2652
(lp2653
(g244
F-0.5
g2561
g2652
tp2654
ag302
(lp2655
V2016-10-27 17:30:37
p2656
tp2657
a(g2561
V-0.5
p2658
(lp2659
(g244
F-0.5
g2561
g2658
tp2660
ag316
(lp2661
V2016-10-27 17:33:53
p2662
tp2663
a(S'1.0'
p2664
V1.0
p2665
(lp2666
(g244
F1.0
g2664
g2665
tp2667
aS'adejesus'
p2668
(lp2669
V2016-10-27 15:34:49
p2670
tp2671
a(g2664
V1.0
p2672
(lp2673
(g244
F1.0
g2664
g2672
tp2674
aS'adejesus'
p2675
(lp2676
V2016-10-27 15:37:25
p2677
tp2678
a(g2664
V1.0
p2679
(lp2680
(g244
F1.0
g2664
g2679
tp2681
ag323
(lp2682
V2016-10-27 15:37:48
p2683
tp2684
a(g2664
V1.0
p2685
(lp2686
(g244
F1.0
g2664
g2685
tp2687
ag330
(lp2688
V2016-10-27 16:13:49
p2689
tp2690
a(g2664
V1
p2691
(lp2692
(g244
F1.0
g2664
g2691
tp2693
ag337
(lp2694
V2016-10-27 18:46:09
p2695
tp2696
a(g2664
V1
p2697
(lp2698
(g244
F1.0
g2664
g2697
tp2699
ag344
(lp2700
V2016-10-27 18:46:55
p2701
tp2702
a(g2582
V2.5
p2703
(lp2704
(g244
F2.5
g2582
g2703
tp2705
ag351
(lp2706
V2016-10-26 05:18:02
p2707
tp2708
a(g2493
V3.0
p2709
(lp2710
(g244
F3.0
g2493
g2709
tp2711
aS'NicoleStone'
p2712
(lp2713
V2016-10-28 04:21:57
p2714
tp2715
a(g2493
V3.0
p2716
(lp2717
(g244
F3.0
g2493
g2716
tp2718
aS'NicoleStone'
p2719
(lp2720
V2016-10-28 04:29:57
p2721
tp2722
a(g2493
V3.0
p2723
(lp2724
(g244
F3.0
g2493
g2723
tp2725
aS'JunnelReboquio'
p2726
(lp2727
V2016-10-25 15:06:23
p2728
tp2729
a(g2493
V3.0
p2730
(lp2731
(g244
F3.0
g2493
g2730
tp2732
aS'JunnelReboquio'
p2733
(lp2734
V2016-10-25 15:06:23
p2735
tp2736
a(g2493
V3.0
p2737
(lp2738
(g244
F3.0
g2493
g2737
tp2739
aS'JunnelReboquio'
p2740
(lp2741
V2016-10-25 15:06:50
p2742
tp2743
a(g2493
V3.0
p2744
(lp2745
(g244
F3.0
g2493
g2744
tp2746
aS'JunnelReboquio'
p2747
(lp2748
V2016-10-25 15:06:50
p2749
tp2750
a(g2493
V3.0
p2751
(lp2752
(g244
F3.0
g2493
g2751
tp2753
aS'JunnelReboquio'
p2754
(lp2755
V2016-10-25 15:07:14
p2756
tp2757
a(g2493
V3.0
p2758
(lp2759
(g244
F3.0
g2493
g2758
tp2760
aS'JunnelReboquio'
p2761
(lp2762
V2016-10-25 15:07:14
p2763
tp2764
a(g2493
V3.0
p2765
(lp2766
(g244
F3.0
g2493
g2765
tp2767
aS'JunnelReboquio'
p2768
(lp2769
V2016-10-25 15:08:20
p2770
tp2771
a(g2493
V3.0
p2772
(lp2773
(g244
F3.0
g2493
g2772
tp2774
aS'JunnelReboquio'
p2775
(lp2776
V2016-10-25 15:08:20
p2777
tp2778
a(g2493
V3.0
p2779
(lp2780
(g244
F3.0
g2493
g2779
tp2781
aS'JunnelReboquio'
p2782
(lp2783
V2016-10-25 15:08:46
p2784
tp2785
a(g2493
V3.0
p2786
(lp2787
(g244
F3.0
g2493
g2786
tp2788
aS'JunnelReboquio'
p2789
(lp2790
V2016-10-25 15:08:46
p2791
tp2792
a(g2493
V3.0
p2793
(lp2794
(g244
F3.0
g2493
g2793
tp2795
aS'JunnelReboquio'
p2796
(lp2797
V2016-10-25 15:09:11
p2798
tp2799
a(g2493
V3.0
p2800
(lp2801
(g244
F3.0
g2493
g2800
tp2802
aS'JunnelReboquio'
p2803
(lp2804
V2016-10-25 15:09:11
p2805
tp2806
a(g2493
V3.0
p2807
(lp2808
(g244
F3.0
g2493
g2807
tp2809
aS'JunnelReboquio'
p2810
(lp2811
V2016-10-26 21:26:45
p2812
tp2813
a(g2493
V3.0
p2814
(lp2815
(g244
F3.0
g2493
g2814
tp2816
aS'JunnelReboquio'
p2817
(lp2818
V2016-10-26 21:26:45
p2819
tp2820
a(g2493
V3.0
p2821
(lp2822
(g244
F3.0
g2493
g2821
tp2823
ag358
(lp2824
V2016-10-26 21:27:11
p2825
tp2826
a(g2493
V3.0
p2827
(lp2828
(g244
F3.0
g2493
g2827
tp2829
ag365
(lp2830
V2016-10-26 21:27:11
p2831
tp2832
a(g2493
V3.0
p2833
(lp2834
(g244
F3.0
g2493
g2833
tp2835
ag372
(lp2836
V2016-10-26 21:27:47
p2837
tp2838
a(g2493
V3.0
p2839
(lp2840
(g244
F3.0
g2493
g2839
tp2841
ag379
(lp2842
V2016-10-26 21:27:47
p2843
tp2844
a(g2493
V3.0
p2845
(lp2846
(g244
F3.0
g2493
g2845
tp2847
ag386
(lp2848
V2016-10-26 22:24:20
p2849
tp2850
a(g2582
V2.5
p2851
(lp2852
(g244
F2.5
g2582
g2851
tp2853
aS'pyae'
p2854
(lp2855
V2016-10-28 02:14:30
p2856
tp2857
a(g2582
V2.5
p2858
(lp2859
(g244
F2.5
g2582
g2858
tp2860
ag400
(lp2861
V2016-10-28 04:31:53
p2862
tp2863
a(g2664
V1
p2864
(lp2865
(g244
F1.0
g2664
g2864
tp2866
aS'wtchiu'
p2867
(lp2868
V2016-10-28 04:15:00
p2869
tp2870
a(g2664
V1
p2871
(lp2872
(g244
F1.0
g2664
g2871
tp2873
aS'wtchiu'
p2874
(lp2875
V2016-10-28 04:16:39
p2876
tp2877
a(g2664
V1
p2878
(lp2879
(g244
F1.0
g2664
g2878
tp2880
aS'wtchiu'
p2881
(lp2882
V2016-10-28 04:20:46
p2883
tp2884
a(g2664
V1
p2885
(lp2886
(g244
F1.0
g2664
g2885
tp2887
ag407
(lp2888
V2016-10-28 04:22:25
p2889
tp2890
a(g2664
V1.0
p2891
(lp2892
(g244
F1.0
g2664
g2891
tp2893
ag414
(lp2894
V2016-10-25 19:39:57
p2895
tp2896
a(g2664
V1.0
p2897
(lp2898
(g244
F1.0
g2664
g2897
tp2899
ag421
(lp2900
V2016-10-26 23:34:14
p2901
tp2902
a(g2493
V3
p2903
(lp2904
(g244
F3.0
g2493
g2903
tp2905
ag428
(lp2906
V2016-10-27 21:14:12
p2907
tp2908
a(g2561
V-0.5
p2909
(lp2910
(g244
F-0.5
g2561
g2909
tp2911
ag435
(lp2912
V2016-10-27 20:43:41
p2913
tp2914
a(g2582
V2.5
p2915
(lp2916
(g244
F2.5
g2582
g2915
tp2917
ag442
(lp2918
V2016-10-26 19:56:45
p2919
tp2920
a(g2582
V2.5
p2921
(lp2922
(g244
F2.5
g2582
g2921
tp2923
ag505
(lp2924
V2016-10-26 03:56:12
p2925
tp2926
a(g2561
V-.5
p2927
(lp2928
(g244
F-0.5
g2561
g2927
tp2929
aS'tommyt1109'
p2930
(lp2931
V2016-10-26 00:35:20
p2932
tp2933
a(g2561
V-.5
p2934
(lp2935
(g244
F-0.5
g2561
g2934
tp2936
aS'tommyt1109'
p2937
(lp2938
V2016-10-26 00:35:20
p2939
tp2940
a(g2561
V-.5
p2941
(lp2942
(g244
F-0.5
g2561
g2941
tp2943
aS'tommyt1109'
p2944
(lp2945
V2016-10-26 00:35:44
p2946
tp2947
a(g2561
V-.5
p2948
(lp2949
(g244
F-0.5
g2561
g2948
tp2950
aS'tommyt1109'
p2951
(lp2952
V2016-10-26 00:35:44
p2953
tp2954
a(g2561
V-.5
p2955
(lp2956
(g244
F-0.5
g2561
g2955
tp2957
ag512
(lp2958
V2016-10-26 00:36:59
p2959
tp2960
a(g2582
V2.5
p2961
(lp2962
(g244
F2.5
g2582
g2961
tp2963
ag533
(lp2964
V2016-10-28 06:17:38
p2965
tp2966
a(g2582
V2.5
p2967
(lp2968
(g244
F2.5
g2582
g2967
tp2969
ag540
(lp2970
V2016-10-28 06:17:38
p2971
tp2972
a(g2582
V2.5
p2973
(lp2974
(g244
F2.5
g2582
g2973
tp2975
ag547
(lp2976
V2016-10-28 06:23:52
p2977
tp2978
a(g2493
V3
p2979
(lp2980
(g244
F3.0
g2493
g2979
tp2981
ag554
(lp2982
V2016-10-27 07:51:54
p2983
tp2984
a(g2582
V2.5
p2985
(lp2986
(g244
F2.5
g2582
g2985
tp2987
ag603
(lp2988
V2016-10-27 02:03:31
p2989
tp2990
a(g2493
V3
p2991
(lp2992
(g244
F3.0
g2493
g2991
tp2993
ag610
(lp2994
V2016-10-21 22:47:30
p2995
tp2996
a(g2582
V2.5
p2997
(lp2998
(g244
F2.5
g2582
g2997
tp2999
aS'MattBowen96'
p3000
(lp3001
V2016-10-27 06:59:44
p3002
tp3003
a(g2582
V2.5
p3004
(lp3005
(g244
F2.5
g2582
g3004
tp3006
aS'MattBowen96'
p3007
(lp3008
V2016-10-27 06:59:44
p3009
tp3010
a(g2582
V2.5
p3011
(lp3012
(g244
F2.5
g2582
g3011
tp3013
aS'MattBowen96'
p3014
(lp3015
V2016-10-27 07:04:24
p3016
tp3017
a(g2582
V2.5
p3018
(lp3019
(g244
F2.5
g2582
g3018
tp3020
aS'MattBowen96'
p3021
(lp3022
V2016-10-27 07:04:24
p3023
tp3024
a(g2582
V2.5
p3025
(lp3026
(g244
F2.5
g2582
g3025
tp3027
aS'MattBowen96'
p3028
(lp3029
V2016-10-27 07:05:32
p3030
tp3031
a(g2582
V2.5
p3032
(lp3033
(g244
F2.5
g2582
g3032
tp3034
aS'MattBowen96'
p3035
(lp3036
V2016-10-27 07:05:32
p3037
tp3038
a(g2582
V2.5
p3039
(lp3040
(g244
F2.5
g2582
g3039
tp3041
aS'MattBowen96'
p3042
(lp3043
V2016-10-27 07:06:28
p3044
tp3045
a(g2582
V2.5
p3046
(lp3047
(g244
F2.5
g2582
g3046
tp3048
aS'MattBowen96'
p3049
(lp3050
V2016-10-27 07:06:28
p3051
tp3052
a(g2582
V2.5
p3053
(lp3054
(g244
F2.5
g2582
g3053
tp3055
aS'MattBowen96'
p3056
(lp3057
V2016-10-27 07:07:44
p3058
tp3059
a(g2582
V2.5
p3060
(lp3061
(g244
F2.5
g2582
g3060
tp3062
aS'MattBowen96'
p3063
(lp3064
V2016-10-27 07:07:44
p3065
tp3066
a(g2582
V2.5
p3067
(lp3068
(g244
F2.5
g2582
g3067
tp3069
aS'MattBowen96'
p3070
(lp3071
V2016-10-27 07:08:17
p3072
tp3073
a(g2582
V2.5
p3074
(lp3075
(g244
F2.5
g2582
g3074
tp3076
aS'MattBowen96'
p3077
(lp3078
V2016-10-27 07:08:17
p3079
tp3080
a(g2582
V2.5
p3081
(lp3082
(g244
F2.5
g2582
g3081
tp3083
ag617
(lp3084
V2016-10-27 07:08:46
p3085
tp3086
a(g2664
V1
p3087
(lp3088
(g244
F1.0
g2664
g3087
tp3089
aS'chenboy3'
p3090
(lp3091
V2016-10-26 20:32:54
p3092
tp3093
a(g2664
V1
p3094
(lp3095
(g244
F1.0
g2664
g3094
tp3096
aS'chenboy3'
p3097
(lp3098
V2016-10-26 20:34:27
p3099
tp3100
a(g2664
V1
p3101
(lp3102
(g244
F1.0
g2664
g3101
tp3103
ag624
(lp3104
V2016-10-26 20:35:04
p3105
tp3106
a(g2561
V-0.5
p3107
(lp3108
(g244
F-0.5
g2561
g3107
tp3109
aS'sunilraiyani'
p3110
(lp3111
V2016-10-25 08:43:46
p3112
tp3113
a(g2561
V-0.5
p3114
(lp3115
(g244
F-0.5
g2561
g3114
tp3116
ag631
(lp3117
V2016-10-25 08:44:35
p3118
tp3119
a(g2582
V2.5
p3120
(lp3121
(g244
F2.5
g2582
g3120
tp3122
ag638
(lp3123
V2016-10-28 00:44:18
p3124
tp3125
a(g2664
V1
p3126
(lp3127
(g244
F1.0
g2664
g3126
tp3128
aS'ShenTing'
p3129
(lp3130
V2016-10-26 23:27:09
p3131
tp3132
a(g2664
V1
p3133
(lp3134
(g244
F1.0
g2664
g3133
tp3135
aS'ShenTing'
p3136
(lp3137
V2016-10-26 23:27:09
p3138
tp3139
a(g2664
V1
p3140
(lp3141
(g244
F1.0
g2664
g3140
tp3142
ag645
(lp3143
V2016-10-26 23:27:53
p3144
tp3145
a(g2664
V1
p3146
(lp3147
(g244
F1.0
g2664
g3146
tp3148
ag652
(lp3149
V2016-10-28 05:57:35
p3150
tp3151
a(g2561
V-0.5
p3152
(lp3153
(g244
F-0.5
g2561
g3152
tp3154
aS'PriyankaK'
p3155
(lp3156
V2016-10-26 22:28:22
p3157
tp3158
a(g2561
V-0.5
p3159
(lp3160
(g244
F-0.5
g2561
g3159
tp3161
aS'PriyankaK'
p3162
(lp3163
V2016-10-26 22:28:22
p3164
tp3165
a(g2561
V-0.5
p3166
(lp3167
(g244
F-0.5
g2561
g3166
tp3168
aS'PriyankaK'
p3169
(lp3170
V2016-10-26 22:30:20
p3171
tp3172
a(g2561
V-0.5
p3173
(lp3174
(g244
F-0.5
g2561
g3173
tp3175
aS'PriyankaK'
p3176
(lp3177
V2016-10-26 22:30:20
p3178
tp3179
a(g2561
V-0.5
p3180
(lp3181
(g244
F-0.5
g2561
g3180
tp3182
aS'PriyankaK'
p3183
(lp3184
V2016-10-26 22:30:43
p3185
tp3186
a(g2561
V-0.5
p3187
(lp3188
(g244
F-0.5
g2561
g3187
tp3189
aS'PriyankaK'
p3190
(lp3191
V2016-10-26 22:30:43
p3192
tp3193
a(g2561
V-0.5
p3194
(lp3195
(g244
F-0.5
g2561
g3194
tp3196
ag666
(lp3197
V2016-10-26 22:31:08
p3198
tp3199
a(g2664
V1.0
p3200
(lp3201
(g244
F1.0
g2664
g3200
tp3202
aS'twsalim'
p3203
(lp3204
V2016-10-23 23:43:34
p3205
tp3206
a(g2582
V2.5
p3207
(lp3208
(g244
F2.5
g2582
g3207
tp3209
aS'Riyang'
p3210
(lp3211
V2016-10-26 04:16:00
p3212
tp3213
a(g2582
V2.5
p3214
(lp3215
(g244
F2.5
g2582
g3214
tp3216
aS'Riyang'
p3217
(lp3218
V2016-10-26 04:16:00
p3219
tp3220
a(g2582
V2.5
p3221
(lp3222
(g244
F2.5
g2582
g3221
tp3223
aS'Riyang'
p3224
(lp3225
V2016-10-26 04:17:27
p3226
tp3227
a(g2582
V2.5
p3228
(lp3229
(g244
F2.5
g2582
g3228
tp3230
aS'Riyang'
p3231
(lp3232
V2016-10-26 04:17:27
p3233
tp3234
a(g2582
V2.5
p3235
(lp3236
(g244
F2.5
g2582
g3235
tp3237
aS'Riyang'
p3238
(lp3239
V2016-10-26 04:23:58
p3240
tp3241
a(g2582
V2.5
p3242
(lp3243
(g244
F2.5
g2582
g3242
tp3244
aS'Riyang'
p3245
(lp3246
V2016-10-26 04:25:52
p3247
tp3248
a(g2582
V2.5
p3249
(lp3250
(g244
F2.5
g2582
g3249
tp3251
aS'Riyang'
p3252
(lp3253
V2016-10-26 04:25:52
p3254
tp3255
a(g2582
V2.5
p3256
(lp3257
(g244
F2.5
g2582
g3256
tp3258
aS'Riyang'
p3259
(lp3260
V2016-10-26 21:21:46
p3261
tp3262
a(g2582
V2.5
p3263
(lp3264
(g244
F2.5
g2582
g3263
tp3265
aS'Riyang'
p3266
(lp3267
V2016-10-26 21:21:46
p3268
tp3269
a(g2582
V2.5
p3270
(lp3271
(g244
F2.5
g2582
g3270
tp3272
aS'Riyang'
p3273
(lp3274
V2016-10-27 21:37:47
p3275
tp3276
a(g2582
V2.5
p3277
(lp3278
(g244
F2.5
g2582
g3277
tp3279
aS'Riyang'
p3280
(lp3281
V2016-10-27 21:37:47
p3282
tp3283
a(g2582
V2.5
p3284
(lp3285
(g244
F2.5
g2582
g3284
tp3286
aS'Riyang'
p3287
(lp3288
V2016-10-27 21:50:08
p3289
tp3290
a(g2582
V2.5
p3291
(lp3292
(g244
F2.5
g2582
g3291
tp3293
aS'Riyang'
p3294
(lp3295
V2016-10-27 21:50:08
p3296
tp3297
a(g2582
V2.5
p3298
(lp3299
(g244
F2.5
g2582
g3298
tp3300
ag673
(lp3301
V2016-10-27 21:50:31
p3302
tp3303
a(g2493
V3.0
p3304
(lp3305
(g244
F3.0
g2493
g3304
tp3306
ag680
(lp3307
V2016-10-26 16:17:06
p3308
tp3309
a(g2493
V3
p3310
(lp3311
(g244
F3.0
g2493
g3310
tp3312
ag687
(lp3313
V2016-10-28 00:59:36
p3314
tp3315
a(g2582
V2.5
p3316
(lp3317
(g244
F2.5
g2582
g3316
tp3318
aS'Byung'
p3319
(lp3320
V2016-10-26 23:49:36
p3321
tp3322
a(g2582
V2.5
p3323
(lp3324
(g244
F2.5
g2582
g3323
tp3325
aS'Byung'
p3326
(lp3327
V2016-10-26 23:49:36
p3328
tp3329
a(g2582
V2.5
p3330
(lp3331
(g244
F2.5
g2582
g3330
tp3332
aS'Byung'
p3333
(lp3334
V2016-10-26 23:51:18
p3335
tp3336
a(g2582
V2.5
p3337
(lp3338
(g244
F2.5
g2582
g3337
tp3339
aS'Byung'
p3340
(lp3341
V2016-10-26 23:51:18
p3342
tp3343
a(g2582
V2.5
p3344
(lp3345
(g244
F2.5
g2582
g3344
tp3346
aS'Byung'
p3347
(lp3348
V2016-10-26 23:51:42
p3349
tp3350
a(g2582
V2.5
p3351
(lp3352
(g244
F2.5
g2582
g3351
tp3353
aS'Byung'
p3354
(lp3355
V2016-10-26 23:51:42
p3356
tp3357
a(g2582
V2.5
p3358
(lp3359
(g244
F2.5
g2582
g3358
tp3360
aS'Byung'
p3361
(lp3362
V2016-10-27 01:41:46
p3363
tp3364
a(g2582
V2.5
p3365
(lp3366
(g244
F2.5
g2582
g3365
tp3367
aS'Byung'
p3368
(lp3369
V2016-10-27 01:41:46
p3370
tp3371
a(g2582
V2.5
p3372
(lp3373
(g244
F2.5
g2582
g3372
tp3374
aS'Byung'
p3375
(lp3376
V2016-10-27 01:50:41
p3377
tp3378
a(g2582
V2.5
p3379
(lp3380
(g244
F2.5
g2582
g3379
tp3381
aS'Byung'
p3382
(lp3383
V2016-10-27 01:50:41
p3384
tp3385
a(g2582
V2.5
p3386
(lp3387
(g244
F2.5
g2582
g3386
tp3388
aS'Byung'
p3389
(lp3390
V2016-10-27 01:54:48
p3391
tp3392
a(g2582
V2.5
p3393
(lp3394
(g244
F2.5
g2582
g3393
tp3395
aS'Byung'
p3396
(lp3397
V2016-10-27 01:54:48
p3398
tp3399
a(g2582
V2.5
p3400
(lp3401
(g244
F2.5
g2582
g3400
tp3402
aS'Byung'
p3403
(lp3404
V2016-10-27 02:04:37
p3405
tp3406
a(g2582
V2.5
p3407
(lp3408
(g244
F2.5
g2582
g3407
tp3409
aS'Byung'
p3410
(lp3411
V2016-10-27 02:04:37
p3412
tp3413
a(g2582
V2.5
p3414
(lp3415
(g244
F2.5
g2582
g3414
tp3416
aS'Byung'
p3417
(lp3418
V2016-10-27 02:18:30
p3419
tp3420
a(g2582
V2.5
p3421
(lp3422
(g244
F2.5
g2582
g3421
tp3423
aS'Byung'
p3424
(lp3425
V2016-10-27 02:18:30
p3426
tp3427
a(g2582
V2.5
p3428
(lp3429
(g244
F2.5
g2582
g3428
tp3430
aS'Byung'
p3431
(lp3432
V2016-10-27 02:22:04
p3433
tp3434
a(g2582
V2.5
p3435
(lp3436
(g244
F2.5
g2582
g3435
tp3437
aS'Byung'
p3438
(lp3439
V2016-10-27 02:22:04
p3440
tp3441
a(g2582
V2.5
p3442
(lp3443
(g244
F2.5
g2582
g3442
tp3444
ag694
(lp3445
V2016-10-27 02:22:54
p3446
tp3447
a(g2664
V1.0
p3448
(lp3449
(g244
F1.0
g2664
g3448
tp3450
ag701
(lp3451
V2016-10-27 04:11:48
p3452
tp3453
a(g2582
V2.5
p3454
(lp3455
(g244
F2.5
g2582
g3454
tp3456
aS'YuqinWu'
p3457
(lp3458
V2016-10-26 00:26:30
p3459
tp3460
a(g2582
V2.5
p3461
(lp3462
(g244
F2.5
g2582
g3461
tp3463
aS'YuqinWu'
p3464
(lp3465
V2016-10-26 00:28:35
p3466
tp3467
a(g2582
V2.5
p3468
(lp3469
(g244
F2.5
g2582
g3468
tp3470
ag708
(lp3471
V2016-10-26 00:28:59
p3472
tp3473
a(g2493
V3
p3474
(lp3475
(g244
F3.0
g2493
g3474
tp3476
aS'JonahCruz'
p3477
(lp3478
V2016-10-25 05:59:57
p3479
tp3480
a(g2493
V3
p3481
(lp3482
(g244
F3.0
g2493
g3481
tp3483
ag722
(lp3484
V2016-10-25 06:01:48
p3485
tp3486
a(g2664
V1
p3487
(lp3488
(g244
F1.0
g2664
g3487
tp3489
aS'rsamuail'
p3490
(lp3491
V2016-10-27 23:40:11
p3492
tp3493
a(g2664
V1
p3494
(lp3495
(g244
F1.0
g2664
g3494
tp3496
aS'rsamuail'
p3497
(lp3498
V2016-10-27 23:40:11
p3499
tp3500
a(g2664
V1
p3501
(lp3502
(g244
F1.0
g2664
g3501
tp3503
aS'rsamuail'
p3504
(lp3505
V2016-10-27 23:40:36
p3506
tp3507
a(g2664
V1
p3508
(lp3509
(g244
F1.0
g2664
g3508
tp3510
aS'rsamuail'
p3511
(lp3512
V2016-10-27 23:40:36
p3513
tp3514
a(g2664
V1
p3515
(lp3516
(g244
F1.0
g2664
g3515
tp3517
ag736
(lp3518
V2016-10-27 23:41:06
p3519
tp3520
a(g2664
V1
p3521
(lp3522
(g244
F1.0
g2664
g3521
tp3523
ag743
(lp3524
V2016-10-27 23:41:06
p3525
tp3526
a(g2664
V1
p3527
(lp3528
(g244
F1.0
g2664
g3527
tp3529
ag750
(lp3530
V2016-10-28 00:15:42
p3531
tp3532
a(g2664
V1
p3533
(lp3534
(g244
F1.0
g2664
g3533
tp3535
ag757
(lp3536
V2016-10-28 00:15:42
p3537
tp3538
a(g2664
V1
p3539
(lp3540
(g244
F1.0
g2664
g3539
tp3541
ag764
(lp3542
V2016-10-28 00:16:05
p3543
tp3544
a(g2664
V1
p3545
(lp3546
(g244
F1.0
g2664
g3545
tp3547
ag771
(lp3548
V2016-10-28 00:16:05
p3549
tp3550
a(g2664
V1
p3551
(lp3552
(g244
F1.0
g2664
g3551
tp3553
ag778
(lp3554
V2016-10-28 00:16:40
p3555
tp3556
a(g2664
V1.0
p3557
(lp3558
(g244
F1.0
g2664
g3557
tp3559
aS'shadams'
p3560
(lp3561
V2016-10-27 02:31:19
p3562
tp3563
a(g2664
V1.0
p3564
(lp3565
(g244
F1.0
g2664
g3564
tp3566
aS'shadams'
p3567
(lp3568
V2016-10-27 02:41:27
p3569
tp3570
a(g2664
V1
p3571
(lp3572
(g244
F1.0
g2664
g3571
tp3573
ag792
(lp3574
V2016-10-27 17:47:50
p3575
tp3576
a(g2561
V-.5
p3577
(lp3578
(g244
F-0.5
g2561
g3577
tp3579
ag799
(lp3580
V2016-10-28 05:11:37
p3581
tp3582
a(g2664
V1
p3583
(lp3584
(g244
F1.0
g2664
g3583
tp3585
aS'abelmont'
p3586
(lp3587
V2016-10-27 06:31:58
p3588
tp3589
a(g2664
V1
p3590
(lp3591
(g244
F1.0
g2664
g3590
tp3592
ag813
(lp3593
V2016-10-27 06:32:45
p3594
tp3595
a(g2493
V3
p3596
(lp3597
(g244
F3.0
g2493
g3596
tp3598
ag820
(lp3599
V2016-10-25 23:16:29
p3600
tp3601
a(g2664
V1.0
p3602
(lp3603
(g244
F1.0
g2664
g3602
tp3604
aS'AndrewYang24'
p3605
(lp3606
V2016-10-28 00:23:41
p3607
tp3608
a(g2664
V1.0
p3609
(lp3610
(g244
F1.0
g2664
g3609
tp3611
aS'AndrewYang24'
p3612
(lp3613
V2016-10-28 00:23:41
p3614
tp3615
a(g2664
V1.0
p3616
(lp3617
(g244
F1.0
g2664
g3616
tp3618
aS'AndrewYang24'
p3619
(lp3620
V2016-10-28 00:33:46
p3621
tp3622
a(g2664
V1.0
p3623
(lp3624
(g244
F1.0
g2664
g3623
tp3625
aS'AndrewYang24'
p3626
(lp3627
V2016-10-28 00:33:46
p3628
tp3629
a(g2664
V1.0
p3630
(lp3631
(g244
F1.0
g2664
g3630
tp3632
aS'AndrewYang24'
p3633
(lp3634
V2016-10-28 00:34:54
p3635
tp3636
a(g2664
V1.0
p3637
(lp3638
(g244
F1.0
g2664
g3637
tp3639
aS'AndrewYang24'
p3640
(lp3641
V2016-10-28 00:34:54
p3642
tp3643
a(g2664
V1.0
p3644
(lp3645
(g244
F1.0
g2664
g3644
tp3646
aS'AndrewYang24'
p3647
(lp3648
V2016-10-28 00:35:18
p3649
tp3650
a(g2664
V1.0
p3651
(lp3652
(g244
F1.0
g2664
g3651
tp3653
aS'AndrewYang24'
p3654
(lp3655
V2016-10-28 00:35:18
p3656
tp3657
a(g2664
V1.0
p3658
(lp3659
(g244
F1.0
g2664
g3658
tp3660
aS'AndrewYang24'
p3661
(lp3662
V2016-10-28 00:37:33
p3663
tp3664
a(g2664
V1.0
p3665
(lp3666
(g244
F1.0
g2664
g3665
tp3667
aS'AndrewYang24'
p3668
(lp3669
V2016-10-28 00:37:33
p3670
tp3671
a(g2664
V1.0
p3672
(lp3673
(g244
F1.0
g2664
g3672
tp3674
ag827
(lp3675
V2016-10-28 00:53:44
p3676
tp3677
a(g2493
V3
p3678
(lp3679
(g244
F3.0
g2493
g3678
tp3680
ag834
(lp3681
V2016-10-26 00:46:50
p3682
tp3683
a(g2664
V1
p3684
(lp3685
(g244
F1.0
g2664
g3684
tp3686
aS'ankannan'
p3687
(lp3688
V2016-10-28 02:00:43
p3689
tp3690
a(g2664
V1
p3691
(lp3692
(g244
F1.0
g2664
g3691
tp3693
aS'ankannan'
p3694
(lp3695
V2016-10-28 02:00:43
p3696
tp3697
a(g2664
V1
p3698
(lp3699
(g244
F1.0
g2664
g3698
tp3700
aS'ankannan'
p3701
(lp3702
V2016-10-28 02:53:30
p3703
tp3704
a(g2664
V1
p3705
(lp3706
(g244
F1.0
g2664
g3705
tp3707
aS'ankannan'
p3708
(lp3709
V2016-10-28 02:53:30
p3710
tp3711
a(g2664
V1
p3712
(lp3713
(g244
F1.0
g2664
g3712
tp3714
ag841
(lp3715
V2016-10-28 02:53:54
p3716
tp3717
a(g2493
V3
p3718
(lp3719
(g244
F3.0
g2493
g3718
tp3720
ag862
(lp3721
V2016-10-28 04:19:14
p3722
tp3723
a(g2664
V1
p3724
(lp3725
(g244
F1.0
g2664
g3724
tp3726
ag869
(lp3727
V2016-10-28 04:22:03
p3728
tp3729
a(g2582
V2.5
p3730
(lp3731
(g244
F2.5
g2582
g3730
tp3732
ag876
(lp3733
V2016-10-26 21:43:45
p3734
tp3735
a(g2493
V3.0
p3736
(lp3737
(g244
F3.0
g2493
g3736
tp3738
ag883
(lp3739
V2016-10-25 01:01:02
p3740
tp3741
a(g2493
V3.0
p3742
(lp3743
(g244
F3.0
g2493
g3742
tp3744
ag890
(lp3745
V2016-10-25 01:01:02
p3746
tp3747
a(g2493
V3.0
p3748
(lp3749
(g244
F3.0
g2493
g3748
tp3750
ag897
(lp3751
V2016-10-25 01:02:31
p3752
tp3753
a(g2582
V2.5
p3754
(lp3755
(g244
F2.5
g2582
g3754
tp3756
aS'Ryan_Yi'
p3757
(lp3758
V2016-10-26 03:06:49
p3759
tp3760
a(g2582
V2.5
p3761
(lp3762
(g244
F2.5
g2582
g3761
tp3763
aS'Ryan_Yi'
p3764
(lp3765
V2016-10-26 03:06:49
p3766
tp3767
a(g2582
V2.5
p3768
(lp3769
(g244
F2.5
g2582
g3768
tp3770
aS'Ryan_Yi'
p3771
(lp3772
V2016-10-26 03:14:13
p3773
tp3774
a(g2582
V2.5
p3775
(lp3776
(g244
F2.5
g2582
g3775
tp3777
aS'Ryan_Yi'
p3778
(lp3779
V2016-10-26 03:14:13
p3780
tp3781
a(g2582
V2.5
p3782
(lp3783
(g244
F2.5
g2582
g3782
tp3784
ag904
(lp3785
V2016-10-26 03:19:37
p3786
tp3787
a(g2582
V2.5
p3788
(lp3789
(g244
F2.5
g2582
g3788
tp3790
ag911
(lp3791
V2016-10-26 03:19:37
p3792
tp3793
a(g2582
V2.5
p3794
(lp3795
(g244
F2.5
g2582
g3794
tp3796
ag918
(lp3797
V2016-10-26 03:43:22
p3798
tp3799
a(g2664
V1
p3800
(lp3801
(g244
F1.0
g2664
g3800
tp3802
ag925
(lp3803
V2016-10-27 23:25:49
p3804
tp3805
a(g2664
V1
p3806
(lp3807
(g244
F1.0
g2664
g3806
tp3808
ag939
(lp3809
V2016-10-27 21:28:06
p3810
tp3811
a(g2664
V1
p3812
(lp3813
(g244
F1.0
g2664
g3812
tp3814
ag946
(lp3815
V2016-10-27 21:29:43
p3816
tp3817
a(g2582
V2.5
p3818
(lp3819
(g244
F2.5
g2582
g3818
tp3820
ag953
(lp3821
V2016-10-27 03:23:35
p3822
tp3823
a(g2664
V1.0
p3824
(lp3825
(g244
F1.0
g2664
g3824
tp3826
aS'cameronEllis'
p3827
(lp3828
V2016-10-25 23:31:52
p3829
tp3830
a(g2664
V1.0
p3831
(lp3832
(g244
F1.0
g2664
g3831
tp3833
aS'cameronEllis'
p3834
(lp3835
V2016-10-25 23:46:01
p3836
tp3837
a(g2664
V1.0
p3838
(lp3839
(g244
F1.0
g2664
g3838
tp3840
aS'cameronEllis'
p3841
(lp3842
V2016-10-25 23:46:26
p3843
tp3844
a(g2664
V1.0
p3845
(lp3846
(g244
F1.0
g2664
g3845
tp3847
aS'cameronEllis'
p3848
(lp3849
V2016-10-26 01:18:55
p3850
tp3851
a(g2664
V1.0
p3852
(lp3853
(g244
F1.0
g2664
g3852
tp3854
aS'cameronEllis'
p3855
(lp3856
V2016-10-26 01:20:12
p3857
tp3858
a(g2664
V1.0
p3859
(lp3860
(g244
F1.0
g2664
g3859
tp3861
ag960
(lp3862
V2016-10-26 01:21:07
p3863
tp3864
a(g2664
V1.0
p3865
(lp3866
(g244
F1.0
g2664
g3865
tp3867
ag974
(lp3868
V2016-10-27 21:25:51
p3869
tp3870
a(g2582
V2.5
p3871
(lp3872
(g244
F2.5
g2582
g3871
tp3873
ag988
(lp3874
V2016-10-25 17:05:06
p3875
tp3876
a(g2582
V2.5
p3877
(lp3878
(g244
F2.5
g2582
g3877
tp3879
aS'JasonHuang'
p3880
(lp3881
V2016-10-27 06:24:32
p3882
tp3883
a(g2582
V2.5
p3884
(lp3885
(g244
F2.5
g2582
g3884
tp3886
aS'JasonHuang'
p3887
(lp3888
V2016-10-27 06:26:11
p3889
tp3890
a(g2582
V2.5
p3891
(lp3892
(g244
F2.5
g2582
g3891
tp3893
aS'JasonHuang'
p3894
(lp3895
V2016-10-27 06:27:32
p3896
tp3897
a(g2582
V2.5
p3898
(lp3899
(g244
F2.5
g2582
g3898
tp3900
aS'JasonHuang'
p3901
(lp3902
V2016-10-27 06:28:04
p3903
tp3904
a(g2582
V2.5
p3905
(lp3906
(g244
F2.5
g2582
g3905
tp3907
aS'JasonHuang'
p3908
(lp3909
V2016-10-27 06:33:31
p3910
tp3911
a(g2582
V2.5
p3912
(lp3913
(g244
F2.5
g2582
g3912
tp3914
ag1002
(lp3915
V2016-10-27 06:42:59
p3916
tp3917
a(g2664
V1.0
p3918
(lp3919
(g244
F1.0
g2664
g3918
tp3920
ag1009
(lp3921
V2016-10-27 19:28:53
p3922
tp3923
a(g2582
V2.5
p3924
(lp3925
(g244
F2.5
g2582
g3924
tp3926
aS'evahuynh'
p3927
(lp3928
V2016-10-26 21:20:01
p3929
tp3930
a(g2582
V2.5
p3931
(lp3932
(g244
F2.5
g2582
g3931
tp3933
aS'evahuynh'
p3934
(lp3935
V2016-10-27 00:30:01
p3936
tp3937
a(g2582
V2.5
p3938
(lp3939
(g244
F2.5
g2582
g3938
tp3940
ag1016
(lp3941
V2016-10-27 00:32:51
p3942
tp3943
a(g2582
V2.5
p3944
(lp3945
(g244
F2.5
g2582
g3944
tp3946
ag1023
(lp3947
V2016-10-27 00:35:05
p3948
tp3949
a(g2582
V2.5
p3950
(lp3951
(g244
F2.5
g2582
g3950
tp3952
ag1030
(lp3953
V2016-10-27 00:36:57
p3954
tp3955
a(g2664
V1.0
p3956
(lp3957
(g244
F1.0
g2664
g3956
tp3958
ag1037
(lp3959
V2016-10-24 09:05:48
p3960
tp3961
a(g2664
V1.0
p3962
(lp3963
(g244
F1.0
g2664
g3962
tp3964
aS'Joonhan'
p3965
(lp3966
V2016-10-27 10:01:48
p3967
tp3968
a(g2664
V1.0
p3969
(lp3970
(g244
F1.0
g2664
g3969
tp3971
aS'Joonhan'
p3972
(lp3973
V2016-10-27 10:13:31
p3974
tp3975
a(g2664
V1.0
p3976
(lp3977
(g244
F1.0
g2664
g3976
tp3978
aS'Joonhan'
p3979
(lp3980
V2016-10-27 10:14:53
p3981
tp3982
a(g2664
V1.0
p3983
(lp3984
(g244
F1.0
g2664
g3983
tp3985
ag1044
(lp3986
V2016-10-27 10:15:17
p3987
tp3988
a(g2582
V2.5
p3989
(lp3990
(g244
F2.5
g2582
g3989
tp3991
ag1051
(lp3992
V2016-10-28 04:56:09
p3993
tp3994
a(g2582
V2.5
p3995
(lp3996
(g244
F2.5
g2582
g3995
tp3997
ag1058
(lp3998
V2016-10-27 01:44:58
p3999
tp4000
a(g2582
V2.5
p4001
(lp4002
(g244
F2.5
g2582
g4001
tp4003
aS'Ankush_Sarow'
p4004
(lp4005
V2016-10-25 22:10:58
p4006
tp4007
a(g2582
V2.5
p4008
(lp4009
(g244
F2.5
g2582
g4008
tp4010
aS'Ankush_Sarow'
p4011
(lp4012
V2016-10-25 22:13:46
p4013
tp4014
a(g2582
V2.5
p4015
(lp4016
(g244
F2.5
g2582
g4015
tp4017
aS'Ankush_Sarow'
p4018
(lp4019
V2016-10-25 22:14:17
p4020
tp4021
a(g2582
V2.5
p4022
(lp4023
(g244
F2.5
g2582
g4022
tp4024
aS'Ankush_Sarow'
p4025
(lp4026
V2016-10-25 22:14:17
p4027
tp4028
a(g2582
V2.5
p4029
(lp4030
(g244
F2.5
g2582
g4029
tp4031
ag1065
(lp4032
V2016-10-25 22:15:00
p4033
tp4034
a(g2582
V2.5
p4035
(lp4036
(g244
F2.5
g2582
g4035
tp4037
aS'dkeirouz'
p4038
(lp4039
V2016-10-28 04:50:54
p4040
tp4041
a(g2582
V2.5
p4042
(lp4043
(g244
F2.5
g2582
g4042
tp4044
aS'dkeirouz'
p4045
(lp4046
V2016-10-28 04:52:53
p4047
tp4048
a(g2582
V2.5
p4049
(lp4050
(g244
F2.5
g2582
g4049
tp4051
aS'dkeirouz'
p4052
(lp4053
V2016-10-28 04:52:53
p4054
tp4055
a(g2582
V2.5
p4056
(lp4057
(g244
F2.5
g2582
g4056
tp4058
ag1072
(lp4059
V2016-10-28 04:54:12
p4060
tp4061
a(g2664
V1.0
p4062
(lp4063
(g244
F1.0
g2664
g4062
tp4064
ag1079
(lp4065
V2016-10-25 20:10:29
p4066
tp4067
a(g2664
V1
p4068
(lp4069
(g244
F1.0
g2664
g4068
tp4070
aS'KevinKlein'
p4071
(lp4072
V2016-10-25 21:56:42
p4073
tp4074
a(g2664
V1
p4075
(lp4076
(g244
F1.0
g2664
g4075
tp4077
aS'KevinKlein'
p4078
(lp4079
V2016-10-25 21:57:45
p4080
tp4081
a(g2664
V1
p4082
(lp4083
(g244
F1.0
g2664
g4082
tp4084
ag1086
(lp4085
V2016-10-25 21:58:28
p4086
tp4087
a(g2493
V3
p4088
(lp4089
(g244
F3.0
g2493
g4088
tp4090
aS'Melvinw'
p4091
(lp4092
V2016-10-28 07:01:44
p4093
tp4094
a(g2561
V-0.5
p4095
(lp4096
(g244
F-0.5
g2561
g4095
tp4097
ag1170
(lp4098
V2016-10-27 17:09:06
p4099
tp4100
a(g2664
V1.0
p4101
(lp4102
(g244
F1.0
g2664
g4101
tp4103
aS'TianYang'
p4104
(lp4105
V2016-10-28 00:05:46
p4106
tp4107
a(g2664
V1.0
p4108
(lp4109
(g244
F1.0
g2664
g4108
tp4110
aS'TianYang'
p4111
(lp4112
V2016-10-28 00:05:46
p4113
tp4114
a(g2664
V1.0
p4115
(lp4116
(g244
F1.0
g2664
g4115
tp4117
ag1177
(lp4118
V2016-10-28 00:14:42
p4119
tp4120
a(g2582
V2.5
p4121
(lp4122
(g244
F2.5
g2582
g4121
tp4123
ag1184
(lp4124
V2016-10-27 18:51:18
p4125
tp4126
a(g2582
V2.5
p4127
(lp4128
(g244
F2.5
g2582
g4127
tp4129
ag1296
(lp4130
V2016-10-26 08:06:07
p4131
tp4132
a(g2561
V-.5
p4133
(lp4134
(g244
F-0.5
g2561
g4133
tp4135
aS'njcrow'
p4136
(lp4137
V2016-10-28 02:56:52
p4138
tp4139
a(g2561
V-.5
p4140
(lp4141
(g244
F-0.5
g2561
g4140
tp4142
aS'njcrow'
p4143
(lp4144
V2016-10-28 02:56:52
p4145
tp4146
a(g2561
V-.5
p4147
(lp4148
(g244
F-0.5
g2561
g4147
tp4149
ag1303
(lp4150
V2016-10-28 02:57:22
p4151
tp4152
a(g2561
V-.5
p4153
(lp4154
(g244
F-0.5
g2561
g4153
tp4155
aS'Kanurame'
p4156
(lp4157
V2016-10-28 04:58:27
p4158
tp4159
a(g2561
V-.5
p4160
(lp4161
(g244
F-0.5
g2561
g4160
tp4162
aS'Kanurame'
p4163
(lp4164
V2016-10-28 04:58:27
p4165
tp4166
a(g2561
V-.5
p4167
(lp4168
(g244
F-0.5
g2561
g4167
tp4169
aS'Kanurame'
p4170
(lp4171
V2016-10-28 05:00:42
p4172
tp4173
a(g2664
V1
p4174
(lp4175
(g244
F1.0
g2664
g4174
tp4176
aS'dillonliu'
p4177
(lp4178
V2016-10-25 03:20:07
p4179
tp4180
a(g2664
V1
p4181
(lp4182
(g244
F1.0
g2664
g4181
tp4183
aS'dillonliu'
p4184
(lp4185
V2016-10-25 03:21:23
p4186
tp4187
a(g2664
V1
p4188
(lp4189
(g244
F1.0
g2664
g4188
tp4190
aS'dillonliu'
p4191
(lp4192
V2016-10-25 03:22:10
p4193
tp4194
a(g2664
V1
p4195
(lp4196
(g244
F1.0
g2664
g4195
tp4197
aS'dillonliu'
p4198
(lp4199
V2016-10-25 03:22:42
p4200
tp4201
a(g2664
V1
p4202
(lp4203
(g244
F1.0
g2664
g4202
tp4204
aS'dillonliu'
p4205
(lp4206
V2016-10-25 03:27:32
p4207
tp4208
a(g2664
V1
p4209
(lp4210
(g244
F1.0
g2664
g4209
tp4211
ag1310
(lp4212
V2016-10-25 03:28:00
p4213
tp4214
a(g2493
V3.0
p4215
(lp4216
(g244
F3.0
g2493
g4215
tp4217
aS'Bsgreenb'
p4218
(lp4219
V2016-10-25 23:38:42
p4220
tp4221
a(g2493
V3.0
p4222
(lp4223
(g244
F3.0
g2493
g4222
tp4224
aS'Bsgreenb'
p4225
(lp4226
V2016-10-25 23:43:26
p4227
tp4228
a(g2493
V3.0
p4229
(lp4230
(g244
F3.0
g2493
g4229
tp4231
ag1324
(lp4232
V2016-10-25 23:43:52
p4233
tp4234
a(g2561
V-0.5
p4235
(lp4236
(g244
F-0.5
g2561
g4235
tp4237
ag1338
(lp4238
V2016-10-28 03:46:59
p4239
tp4240
a(g2664
V1.0
p4241
(lp4242
(g244
F1.0
g2664
g4241
tp4243
aS'ShannonWang'
p4244
(lp4245
V2016-10-25 04:51:55
p4246
tp4247
a(g2664
V1.0
p4248
(lp4249
(g244
F1.0
g2664
g4248
tp4250
aS'ShannonWang'
p4251
(lp4252
V2016-10-25 04:51:55
p4253
tp4254
a(g2664
V1.0
p4255
(lp4256
(g244
F1.0
g2664
g4255
tp4257
aS'ShannonWang'
p4258
(lp4259
V2016-10-25 04:54:35
p4260
tp4261
a(g2664
V1.0
p4262
(lp4263
(g244
F1.0
g2664
g4262
tp4264
aS'ShannonWang'
p4265
(lp4266
V2016-10-25 04:54:35
p4267
tp4268
a(g2664
V1.0
p4269
(lp4270
(g244
F1.0
g2664
g4269
tp4271
aS'ShannonWang'
p4272
(lp4273
V2016-10-25 18:25:46
p4274
tp4275
a(g2664
V1.0
p4276
(lp4277
(g244
F1.0
g2664
g4276
tp4278
aS'ShannonWang'
p4279
(lp4280
V2016-10-25 18:25:46
p4281
tp4282
a(g2664
V1.0
p4283
(lp4284
(g244
F1.0
g2664
g4283
tp4285
aS'ShannonWang'
p4286
(lp4287
V2016-10-25 18:48:31
p4288
tp4289
a(g2664
V1.0
p4290
(lp4291
(g244
F1.0
g2664
g4290
tp4292
aS'ShannonWang'
p4293
(lp4294
V2016-10-25 18:48:31
p4295
tp4296
a(g2664
V1.0
p4297
(lp4298
(g244
F1.0
g2664
g4297
tp4299
aS'ShannonWang'
p4300
(lp4301
V2016-10-25 19:02:28
p4302
tp4303
a(g2664
V1.0
p4304
(lp4305
(g244
F1.0
g2664
g4304
tp4306
aS'ShannonWang'
p4307
(lp4308
V2016-10-25 19:02:28
p4309
tp4310
a(g2664
V1.0
p4311
(lp4312
(g244
F1.0
g2664
g4311
tp4313
aS'ShannonWang'
p4314
(lp4315
V2016-10-25 19:03:43
p4316
tp4317
a(g2664
V1.0
p4318
(lp4319
(g244
F1.0
g2664
g4318
tp4320
aS'ShannonWang'
p4321
(lp4322
V2016-10-25 19:03:43
p4323
tp4324
a(g2664
V1.0
p4325
(lp4326
(g244
F1.0
g2664
g4325
tp4327
aS'ShannonWang'
p4328
(lp4329
V2016-10-25 19:12:45
p4330
tp4331
a(g2664
V1.0
p4332
(lp4333
(g244
F1.0
g2664
g4332
tp4334
aS'ShannonWang'
p4335
(lp4336
V2016-10-25 19:12:45
p4337
tp4338
a(g2664
V1.0
p4339
(lp4340
(g244
F1.0
g2664
g4339
tp4341
aS'ShannonWang'
p4342
(lp4343
V2016-10-25 19:22:45
p4344
tp4345
a(g2664
V1.0
p4346
(lp4347
(g244
F1.0
g2664
g4346
tp4348
aS'ShannonWang'
p4349
(lp4350
V2016-10-25 19:22:45
p4351
tp4352
a(g2664
V1.0
p4353
(lp4354
(g244
F1.0
g2664
g4353
tp4355
aS'ShannonWang'
p4356
(lp4357
V2016-10-25 19:24:52
p4358
tp4359
a(g2664
V1.0
p4360
(lp4361
(g244
F1.0
g2664
g4360
tp4362
aS'ShannonWang'
p4363
(lp4364
V2016-10-25 19:24:52
p4365
tp4366
a(g2664
V1.0
p4367
(lp4368
(g244
F1.0
g2664
g4367
tp4369
aS'ShannonWang'
p4370
(lp4371
V2016-10-25 19:40:53
p4372
tp4373
a(g2664
V1.0
p4374
(lp4375
(g244
F1.0
g2664
g4374
tp4376
aS'ShannonWang'
p4377
(lp4378
V2016-10-25 19:40:53
p4379
tp4380
a(g2664
V1.0
p4381
(lp4382
(g244
F1.0
g2664
g4381
tp4383
aS'ShannonWang'
p4384
(lp4385
V2016-10-25 19:50:20
p4386
tp4387
a(g2664
V1.0
p4388
(lp4389
(g244
F1.0
g2664
g4388
tp4390
aS'ShannonWang'
p4391
(lp4392
V2016-10-25 19:50:20
p4393
tp4394
a(g2664
V1.0
p4395
(lp4396
(g244
F1.0
g2664
g4395
tp4397
ag1345
(lp4398
V2016-10-25 19:56:30
p4399
tp4400
a(g2561
V-0.5
p4401
(lp4402
(g244
F-0.5
g2561
g4401
tp4403
aS'alidding'
p4404
(lp4405
V2016-10-27 16:31:03
p4406
tp4407
a(g2561
V-0.5
p4408
(lp4409
(g244
F-0.5
g2561
g4408
tp4410
aS'alidding'
p4411
(lp4412
V2016-10-27 16:31:03
p4413
tp4414
a(g2561
V-0.5
p4415
(lp4416
(g244
F-0.5
g2561
g4415
tp4417
aS'alidding'
p4418
(lp4419
V2016-10-27 16:31:26
p4420
tp4421
a(g2561
V-0.5
p4422
(lp4423
(g244
F-0.5
g2561
g4422
tp4424
aS'alidding'
p4425
(lp4426
V2016-10-27 16:31:26
p4427
tp4428
a(g2561
V-0.5
p4429
(lp4430
(g244
F-0.5
g2561
g4429
tp4431
aS'alidding'
p4432
(lp4433
V2016-10-27 16:32:44
p4434
tp4435
a(g2561
V-0.5
p4436
(lp4437
(g244
F-0.5
g2561
g4436
tp4438
aS'alidding'
p4439
(lp4440
V2016-10-27 16:32:44
p4441
tp4442
a(g2561
V-0.5
p4443
(lp4444
(g244
F-0.5
g2561
g4443
tp4445
aS'alidding'
p4446
(lp4447
V2016-10-27 16:34:25
p4448
tp4449
a(g2561
V-0.5
p4450
(lp4451
(g244
F-0.5
g2561
g4450
tp4452
aS'alidding'
p4453
(lp4454
V2016-10-27 16:34:25
p4455
tp4456
a(g2561
V-0.5
p4457
(lp4458
(g244
F-0.5
g2561
g4457
tp4459
aS'alidding'
p4460
(lp4461
V2016-10-27 16:34:52
p4462
tp4463
a(g2561
V-0.5
p4464
(lp4465
(g244
F-0.5
g2561
g4464
tp4466
aS'alidding'
p4467
(lp4468
V2016-10-27 16:34:52
p4469
tp4470
a(g2561
V-0.5
p4471
(lp4472
(g244
F-0.5
g2561
g4471
tp4473
aS'alidding'
p4474
(lp4475
V2016-10-27 16:36:20
p4476
tp4477
a(g2561
V-0.5
p4478
(lp4479
(g244
F-0.5
g2561
g4478
tp4480
aS'alidding'
p4481
(lp4482
V2016-10-27 16:36:20
p4483
tp4484
a(g2561
V-0.5
p4485
(lp4486
(g244
F-0.5
g2561
g4485
tp4487
aS'alidding'
p4488
(lp4489
V2016-10-27 16:36:43
p4490
tp4491
a(g2561
V-0.5
p4492
(lp4493
(g244
F-0.5
g2561
g4492
tp4494
aS'alidding'
p4495
(lp4496
V2016-10-27 16:36:43
p4497
tp4498
a(g2561
V-0.5
p4499
(lp4500
(g244
F-0.5
g2561
g4499
tp4501
ag1352
(lp4502
V2016-10-27 16:37:05
p4503
tp4504
a(g2561
V-0.5
p4505
(lp4506
(g244
F-0.5
g2561
g4505
tp4507
ag1359
(lp4508
V2016-10-27 16:37:05
p4509
tp4510
a(g2561
V-0.5
p4511
(lp4512
(g244
F-0.5
g2561
g4511
tp4513
ag1366
(lp4514
V2016-10-27 17:02:48
p4515
tp4516
a(g2664
V1
p4517
(lp4518
(g244
F1.0
g2664
g4517
tp4519
aS'ottojursch'
p4520
(lp4521
V2016-10-26 20:53:30
p4522
tp4523
a(g2664
V1
p4524
(lp4525
(g244
F1.0
g2664
g4524
tp4526
aS'ottojursch'
p4527
(lp4528
V2016-10-26 20:53:30
p4529
tp4530
a(g2664
V1
p4531
(lp4532
(g244
F1.0
g2664
g4531
tp4533
aS'ottojursch'
p4534
(lp4535
V2016-10-26 20:57:27
p4536
tp4537
a(g2664
V1
p4538
(lp4539
(g244
F1.0
g2664
g4538
tp4540
aS'ottojursch'
p4541
(lp4542
V2016-10-26 20:57:27
p4543
tp4544
a(g2664
V1
p4545
(lp4546
(g244
F1.0
g2664
g4545
tp4547
ag1373
(lp4548
V2016-10-26 20:59:47
p4549
tp4550
a(g2664
V1
p4551
(lp4552
(g244
F1.0
g2664
g4551
tp4553
ag1380
(lp4554
V2016-10-26 20:59:47
p4555
tp4556
a(g2664
V1
p4557
(lp4558
(g244
F1.0
g2664
g4557
tp4559
ag1387
(lp4560
V2016-10-26 21:44:57
p4561
tp4562
a(g2664
V1
p4563
(lp4564
(g244
F1.0
g2664
g4563
tp4565
ag1394
(lp4566
V2016-10-26 21:44:57
p4567
tp4568
a(g2664
V1
p4569
(lp4570
(g244
F1.0
g2664
g4569
tp4571
ag1401
(lp4572
V2016-10-26 22:00:52
p4573
tp4574
a(g2664
V1
p4575
(lp4576
(g244
F1.0
g2664
g4575
tp4577
ag1408
(lp4578
V2016-10-26 22:00:52
p4579
tp4580
a(g2664
V1
p4581
(lp4582
(g244
F1.0
g2664
g4581
tp4583
ag1415
(lp4584
V2016-10-26 22:19:27
p4585
tp4586
a(g2582
V2.5
p4587
(lp4588
(g244
F2.5
g2582
g4587
tp4589
ag1422
(lp4590
V2016-10-27 01:20:35
p4591
tp4592
a(g2493
V3.0
p4593
(lp4594
(g244
F3.0
g2493
g4593
tp4595
ag1429
(lp4596
V2016-10-27 17:55:59
p4597
tp4598
a(g2582
V2.5
p4599
(lp4600
(g244
F2.5
g2582
g4599
tp4601
ag1436
(lp4602
V2016-10-24 03:34:39
p4603
tp4604
a(g2582
V2.5
p4605
(lp4606
(g244
F2.5
g2582
g4605
tp4607
aS'StefanWooding'
p4608
(lp4609
V2016-10-27 23:00:17
p4610
tp4611
a(g2582
V2.5
p4612
(lp4613
(g244
F2.5
g2582
g4612
tp4614
aS'StefanWooding'
p4615
(lp4616
V2016-10-27 23:01:02
p4617
tp4618
a(g2582
V2.5
p4619
(lp4620
(g244
F2.5
g2582
g4619
tp4621
aS'StefanWooding'
p4622
(lp4623
V2016-10-27 23:02:35
p4624
tp4625
a(g2582
V2.5
p4626
(lp4627
(g244
F2.5
g2582
g4626
tp4628
aS'StefanWooding'
p4629
(lp4630
V2016-10-27 23:02:35
p4631
tp4632
a(g2582
V2.5
p4633
(lp4634
(g244
F2.5
g2582
g4633
tp4635
aS'StefanWooding'
p4636
(lp4637
V2016-10-27 23:14:12
p4638
tp4639
a(g2582
V2.5
p4640
(lp4641
(g244
F2.5
g2582
g4640
tp4642
aS'StefanWooding'
p4643
(lp4644
V2016-10-27 23:14:12
p4645
tp4646
a(g2582
V2.5
p4647
(lp4648
(g244
F2.5
g2582
g4647
tp4649
aS'StefanWooding'
p4650
(lp4651
V2016-10-27 23:14:43
p4652
tp4653
a(g2582
V2.5
p4654
(lp4655
(g244
F2.5
g2582
g4654
tp4656
aS'StefanWooding'
p4657
(lp4658
V2016-10-27 23:14:43
p4659
tp4660
a(g2582
V2.5
p4661
(lp4662
(g244
F2.5
g2582
g4661
tp4663
aS'StefanWooding'
p4664
(lp4665
V2016-10-27 23:17:27
p4666
tp4667
a(g2582
V2.5
p4668
(lp4669
(g244
F2.5
g2582
g4668
tp4670
aS'StefanWooding'
p4671
(lp4672
V2016-10-27 23:17:27
p4673
tp4674
a(g2582
V2.5
p4675
(lp4676
(g244
F2.5
g2582
g4675
tp4677
aS'StefanWooding'
p4678
(lp4679
V2016-10-27 23:19:53
p4680
tp4681
a(g2582
V2.5
p4682
(lp4683
(g244
F2.5
g2582
g4682
tp4684
aS'StefanWooding'
p4685
(lp4686
V2016-10-27 23:19:53
p4687
tp4688
a(g2582
V2.5
p4689
(lp4690
(g244
F2.5
g2582
g4689
tp4691
aS'StefanWooding'
p4692
(lp4693
V2016-10-28 01:34:32
p4694
tp4695
a(g2582
V2.5
p4696
(lp4697
(g244
F2.5
g2582
g4696
tp4698
aS'StefanWooding'
p4699
(lp4700
V2016-10-28 01:34:32
p4701
tp4702
a(g2582
V2.5
p4703
(lp4704
(g244
F2.5
g2582
g4703
tp4705
ag1443
(lp4706
V2016-10-28 01:34:59
p4707
tp4708
a(g2664
V1.0
p4709
(lp4710
(g244
F1.0
g2664
g4709
tp4711
ag1457
(lp4712
V2016-10-26 00:37:05
p4713
tp4714
a(g2582
V2.5
p4715
(lp4716
(g244
F2.5
g2582
g4715
tp4717
ag1464
(lp4718
V2016-10-26 01:30:17
p4719
tp4720
a(g2493
V3.0
p4721
(lp4722
(g244
F3.0
g2493
g4721
tp4723
ag1471
(lp4724
V2016-10-25 05:48:04
p4725
tp4726
a(g2582
V2.5
p4727
(lp4728
(g244
F2.5
g2582
g4727
tp4729
aS'Ian'
p4730
(lp4731
V2016-10-25 23:58:58
p4732
tp4733
a(g2582
V2.5
p4734
(lp4735
(g244
F2.5
g2582
g4734
tp4736
aS'Ian'
p4737
(lp4738
V2016-10-25 23:59:48
p4739
tp4740
a(g2582
V2.5
p4741
(lp4742
(g244
F2.5
g2582
g4741
tp4743
aS'Ian'
p4744
(lp4745
V2016-10-26 00:00:11
p4746
tp4747
a(g2582
V2.5
p4748
(lp4749
(g244
F2.5
g2582
g4748
tp4750
aS'Ian'
p4751
(lp4752
V2016-10-26 01:28:14
p4753
tp4754
a(g2582
V2.5
p4755
(lp4756
(g244
F2.5
g2582
g4755
tp4757
ag1499
(lp4758
V2016-10-26 01:28:40
p4759
tp4760
a(g2582
V2.5
p4761
(lp4762
(g244
F2.5
g2582
g4761
tp4763
ag1506
(lp4764
V2016-10-28 04:03:10
p4765
tp4766
a(g2582
V2.5
p4767
(lp4768
(g244
F2.5
g2582
g4767
tp4769
aS'pesca'
p4770
(lp4771
V2016-10-25 07:25:58
p4772
tp4773
a(g2582
V2.5
p4774
(lp4775
(g244
F2.5
g2582
g4774
tp4776
ag1513
(lp4777
V2016-10-28 04:10:25
p4778
tp4779
a(g2664
V1
p4780
(lp4781
(g244
F1.0
g2664
g4780
tp4782
ag1527
(lp4783
V2016-10-28 02:26:13
p4784
tp4785
a(g2664
V1
p4786
(lp4787
(g244
F1.0
g2664
g4786
tp4788
aS'AmirAssad'
p4789
(lp4790
V2016-10-28 01:29:14
p4791
tp4792
a(g2664
V1
p4793
(lp4794
(g244
F1.0
g2664
g4793
tp4795
aS'AmirAssad'
p4796
(lp4797
V2016-10-28 02:01:03
p4798
tp4799
a(g2561
V-.5
p4800
(lp4801
(g244
F-0.5
g2561
g4800
tp4802
ag1541
(lp4803
V2016-10-27 19:20:05
p4804
tp4805
a(g2582
V2.5
p4806
(lp4807
(g244
F2.5
g2582
g4806
tp4808
ag1548
(lp4809
V2016-10-25 17:34:37
p4810
tp4811
a(g2582
V2.5
p4812
(lp4813
(g244
F2.5
g2582
g4812
tp4814
aS'jih089'
p4815
(lp4816
V2016-10-22 05:54:03
p4817
tp4818
a(g2582
V2.5
p4819
(lp4820
(g244
F2.5
g2582
g4819
tp4821
aS'jih089'
p4822
(lp4823
V2016-10-22 05:54:03
p4824
tp4825
a(g2582
V2.5
p4826
(lp4827
(g244
F2.5
g2582
g4826
tp4828
aS'jih089'
p4829
(lp4830
V2016-10-22 05:54:27
p4831
tp4832
a(g2582
V2.5
p4833
(lp4834
(g244
F2.5
g2582
g4833
tp4835
aS'jih089'
p4836
(lp4837
V2016-10-22 05:54:27
p4838
tp4839
a(g2582
V2.5
p4840
(lp4841
(g244
F2.5
g2582
g4840
tp4842
aS'jih089'
p4843
(lp4844
V2016-10-22 06:05:45
p4845
tp4846
a(g2582
V2.5
p4847
(lp4848
(g244
F2.5
g2582
g4847
tp4849
aS'jih089'
p4850
(lp4851
V2016-10-22 06:05:45
p4852
tp4853
a(g2582
V2.5
p4854
(lp4855
(g244
F2.5
g2582
g4854
tp4856
aS'jih089'
p4857
(lp4858
V2016-10-22 06:07:07
p4859
tp4860
a(g2582
V2.5
p4861
(lp4862
(g244
F2.5
g2582
g4861
tp4863
aS'jih089'
p4864
(lp4865
V2016-10-22 06:07:07
p4866
tp4867
a(g2582
V2.5
p4868
(lp4869
(g244
F2.5
g2582
g4868
tp4870
aS'jih089'
p4871
(lp4872
V2016-10-22 06:18:50
p4873
tp4874
a(g2582
V2.5
p4875
(lp4876
(g244
F2.5
g2582
g4875
tp4877
aS'jih089'
p4878
(lp4879
V2016-10-22 06:18:50
p4880
tp4881
a(g2582
V2.5
p4882
(lp4883
(g244
F2.5
g2582
g4882
tp4884
aS'jih089'
p4885
(lp4886
V2016-10-22 06:19:14
p4887
tp4888
a(g2582
V2.5
p4889
(lp4890
(g244
F2.5
g2582
g4889
tp4891
aS'jih089'
p4892
(lp4893
V2016-10-22 06:19:14
p4894
tp4895
a(g2582
V2.5
p4896
(lp4897
(g244
F2.5
g2582
g4896
tp4898
ag1555
(lp4899
V2016-10-22 06:19:38
p4900
tp4901
a(g2664
V1
p4902
(lp4903
(g244
F1.0
g2664
g4902
tp4904
aS'Guillermo'
p4905
(lp4906
V2016-10-25 17:00:20
p4907
tp4908
a(g2664
V1
p4909
(lp4910
(g244
F1.0
g2664
g4909
tp4911
aS'Guillermo'
p4912
(lp4913
V2016-10-25 17:00:20
p4914
tp4915
a(g2664
V1
p4916
(lp4917
(g244
F1.0
g2664
g4916
tp4918
aS'Guillermo'
p4919
(lp4920
V2016-10-25 17:01:21
p4921
tp4922
a(g2664
V1
p4923
(lp4924
(g244
F1.0
g2664
g4923
tp4925
aS'Guillermo'
p4926
(lp4927
V2016-10-25 17:01:21
p4928
tp4929
a(g2664
V1
p4930
(lp4931
(g244
F1.0
g2664
g4930
tp4932
aS'Guillermo'
p4933
(lp4934
V2016-10-25 17:01:44
p4935
tp4936
a(g2664
V1
p4937
(lp4938
(g244
F1.0
g2664
g4937
tp4939
aS'Guillermo'
p4940
(lp4941
V2016-10-25 17:01:44
p4942
tp4943
a(g2664
V1
p4944
(lp4945
(g244
F1.0
g2664
g4944
tp4946
aS'Guillermo'
p4947
(lp4948
V2016-10-25 17:03:17
p4949
tp4950
a(g2664
V1
p4951
(lp4952
(g244
F1.0
g2664
g4951
tp4953
aS'Guillermo'
p4954
(lp4955
V2016-10-25 17:03:17
p4956
tp4957
a(g2664
V1
p4958
(lp4959
(g244
F1.0
g2664
g4958
tp4960
aS'Guillermo'
p4961
(lp4962
V2016-10-25 17:06:35
p4963
tp4964
a(g2664
V1
p4965
(lp4966
(g244
F1.0
g2664
g4965
tp4967
aS'Guillermo'
p4968
(lp4969
V2016-10-25 17:06:35
p4970
tp4971
a(g2664
V1
p4972
(lp4973
(g244
F1.0
g2664
g4972
tp4974
aS'Guillermo'
p4975
(lp4976
V2016-10-26 04:37:34
p4977
tp4978
a(g2664
V1
p4979
(lp4980
(g244
F1.0
g2664
g4979
tp4981
aS'Guillermo'
p4982
(lp4983
V2016-10-26 04:37:34
p4984
tp4985
a(g2664
V1
p4986
(lp4987
(g244
F1.0
g2664
g4986
tp4988
ag1562
(lp4989
V2016-10-26 04:38:05
p4990
tp4991
a(g2664
V1.0
p4992
(lp4993
(g244
F1.0
g2664
g4992
tp4994
ag1569
(lp4995
V2016-10-25 03:33:51
p4996
tp4997
a(g2493
V3
p4998
(lp4999
(g244
F3.0
g2493
g4998
tp5000
aS'wesokuhara'
p5001
(lp5002
V2016-10-28 04:33:59
p5003
tp5004
a(g2493
V3
p5005
(lp5006
(g244
F3.0
g2493
g5005
tp5007
aS'wesokuhara'
p5008
(lp5009
V2016-10-28 04:33:59
p5010
tp5011
a(g2493
V3
p5012
(lp5013
(g244
F3.0
g2493
g5012
tp5014
aS'wesokuhara'
p5015
(lp5016
V2016-10-28 04:35:26
p5017
tp5018
a(g2493
V3
p5019
(lp5020
(g244
F3.0
g2493
g5019
tp5021
aS'wesokuhara'
p5022
(lp5023
V2016-10-28 04:35:26
p5024
tp5025
a(g2493
V3
p5026
(lp5027
(g244
F3.0
g2493
g5026
tp5028
aS'wesokuhara'
p5029
(lp5030
V2016-10-28 04:47:53
p5031
tp5032
a(g2493
V3
p5033
(lp5034
(g244
F3.0
g2493
g5033
tp5035
aS'wesokuhara'
p5036
(lp5037
V2016-10-28 04:47:53
p5038
tp5039
a(g2493
V3
p5040
(lp5041
(g244
F3.0
g2493
g5040
tp5042
ag1576
(lp5043
V2016-10-28 04:48:18
p5044
tp5045
a(g2582
V2.5
p5046
(lp5047
(g244
F2.5
g2582
g5046
tp5048
ag1583
(lp5049
V2016-10-25 21:14:05
p5050
tp5051
a(g2582
V2.5
p5052
(lp5053
(g244
F2.5
g2582
g5052
tp5054
ag1590
(lp5055
V2016-10-26 05:40:26
p5056
tp5057
a(g2582
V2.5
p5058
(lp5059
(g244
F2.5
g2582
g5058
tp5060
aS'ssolanki'
p5061
(lp5062
V2016-10-28 04:51:17
p5063
tp5064
a(g2582
V2.5
p5065
(lp5066
(g244
F2.5
g2582
g5065
tp5067
aS'ssolanki'
p5068
(lp5069
V2016-10-28 04:51:17
p5070
tp5071
a(g2582
V2.5
p5072
(lp5073
(g244
F2.5
g2582
g5072
tp5074
aS'ssolanki'
p5075
(lp5076
V2016-10-28 04:51:40
p5077
tp5078
a(g2582
V2.5
p5079
(lp5080
(g244
F2.5
g2582
g5079
tp5081
aS'ssolanki'
p5082
(lp5083
V2016-10-28 04:51:40
p5084
tp5085
a(g2582
V2.5
p5086
(lp5087
(g244
F2.5
g2582
g5086
tp5088
aS'ssolanki'
p5089
(lp5090
V2016-10-28 04:54:33
p5091
tp5092
a(g2582
V2.5
p5093
(lp5094
(g244
F2.5
g2582
g5093
tp5095
aS'ssolanki'
p5096
(lp5097
V2016-10-28 04:54:33
p5098
tp5099
a(g2582
V2.5
p5100
(lp5101
(g244
F2.5
g2582
g5100
tp5102
ag1604
(lp5103
V2016-10-28 05:08:11
p5104
tp5105
a(g2582
V2.5
p5106
(lp5107
(g244
F2.5
g2582
g5106
tp5108
ag1611
(lp5109
V2016-10-27 05:32:16
p5110
tp5111
a(g2664
V1.0
p5112
(lp5113
(g244
F1.0
g2664
g5112
tp5114
aS'amt040'
p5115
(lp5116
V2016-10-27 03:51:52
p5117
tp5118
a(g2664
V1.0
p5119
(lp5120
(g244
F1.0
g2664
g5119
tp5121
aS'amt040'
p5122
(lp5123
V2016-10-27 03:53:08
p5124
tp5125
a(g2664
V1.0
p5126
(lp5127
(g244
F1.0
g2664
g5126
tp5128
aS'amt040'
p5129
(lp5130
V2016-10-27 04:01:24
p5131
tp5132
a(g2664
V1.0
p5133
(lp5134
(g244
F1.0
g2664
g5133
tp5135
aS'amt040'
p5136
(lp5137
V2016-10-27 04:01:24
p5138
tp5139
a(g2664
V1.0
p5140
(lp5141
(g244
F1.0
g2664
g5140
tp5142
ag1618
(lp5143
V2016-10-27 04:02:13
p5144
tp5145
a(g2582
V2.5
p5146
(lp5147
(g244
F2.5
g2582
g5146
tp5148
ag1667
(lp5149
V2016-10-27 07:12:20
p5150
tp5151
a(g2582
V2.5
p5152
(lp5153
(g244
F2.5
g2582
g5152
tp5154
ag1674
(lp5155
V2016-10-27 23:23:10
p5156
tp5157
a(g2582
V2.5
p5158
(lp5159
(g244
F2.5
g2582
g5158
tp5160
ag1681
(lp5161
V2016-10-27 23:23:10
p5162
tp5163
a(g2582
V2.5
p5164
(lp5165
(g244
F2.5
g2582
g5164
tp5166
ag1688
(lp5167
V2016-10-27 23:23:56
p5168
tp5169
a(g2493
V3.0
p5170
(lp5171
(g244
F3.0
g2493
g5170
tp5172
aS'kmesic'
p5173
(lp5174
V2016-10-26 22:46:38
p5175
tp5176
a(g2493
V3.0
p5177
(lp5178
(g244
F3.0
g2493
g5177
tp5179
aS'kmesic'
p5180
(lp5181
V2016-10-26 23:22:11
p5182
tp5183
a(g2493
V3.0
p5184
(lp5185
(g244
F3.0
g2493
g5184
tp5186
aS'kmesic'
p5187
(lp5188
V2016-10-26 23:29:52
p5189
tp5190
a(g2493
V3
p5191
(lp5192
(g244
F3.0
g2493
g5191
tp5193
aS'kmesic'
p5194
(lp5195
V2016-10-26 23:38:47
p5196
tp5197
a(g2493
V3
p5198
(lp5199
(g244
F3.0
g2493
g5198
tp5200
aS'kmesic'
p5201
(lp5202
V2016-10-26 23:38:47
p5203
tp5204
a(g2493
V3
p5205
(lp5206
(g244
F3.0
g2493
g5205
tp5207
aS'kmesic'
p5208
(lp5209
V2016-10-26 23:42:08
p5210
tp5211
a(g2493
V3
p5212
(lp5213
(g244
F3.0
g2493
g5212
tp5214
aS'kmesic'
p5215
(lp5216
V2016-10-26 23:42:08
p5217
tp5218
a(g2493
V3
p5219
(lp5220
(g244
F3.0
g2493
g5219
tp5221
ag1709
(lp5222
V2016-10-26 23:42:40
p5223
tp5224
a(g2582
V2.5
p5225
(lp5226
(g244
F2.5
g2582
g5225
tp5227
ag1737
(lp5228
V2016-10-28 03:15:57
p5229
tp5230
a(g2582
V2.5
p5231
(lp5232
(g244
F2.5
g2582
g5231
tp5233
ag1758
(lp5234
V2016-10-28 05:02:13
p5235
tp5236
a(g2582
V2.5
p5237
(lp5238
(g244
F2.5
g2582
g5237
tp5239
aS'zhc047'
p5240
(lp5241
V2016-10-26 22:12:58
p5242
tp5243
a(g2582
V2.5
p5244
(lp5245
(g244
F2.5
g2582
g5244
tp5246
ag1765
(lp5247
V2016-10-26 22:15:41
p5248
tp5249
a(g2561
V-0.5
p5250
(lp5251
(g244
F-0.5
g2561
g5250
tp5252
aS'NickWong'
p5253
(lp5254
V2016-10-27 07:02:50
p5255
tp5256
a(g2561
V-0.5
p5257
(lp5258
(g244
F-0.5
g2561
g5257
tp5259
aS'NickWong'
p5260
(lp5261
V2016-10-27 07:08:16
p5262
tp5263
a(g2561
V-.5
p5264
(lp5265
(g244
F-0.5
g2561
g5264
tp5266
aS'NickWong'
p5267
(lp5268
V2016-10-27 07:10:34
p5269
tp5270
a(g2561
V-.5
p5271
(lp5272
(g244
F-0.5
g2561
g5271
tp5273
ag1772
(lp5274
V2016-10-27 07:10:58
p5275
tp5276
a(g2664
V1.0
p5277
(lp5278
(g244
F1.0
g2664
g5277
tp5279
aS'a2evans'
p5280
(lp5281
V2016-10-28 03:58:11
p5282
tp5283
a(g2664
V1.0
p5284
(lp5285
(g244
F1.0
g2664
g5284
tp5286
aS'a2evans'
p5287
(lp5288
V2016-10-28 03:58:11
p5289
tp5290
a(g2664
V1.0
p5291
(lp5292
(g244
F1.0
g2664
g5291
tp5293
aS'a2evans'
p5294
(lp5295
V2016-10-28 04:07:40
p5296
tp5297
a(g2664
V1.0
p5298
(lp5299
(g244
F1.0
g2664
g5298
tp5300
aS'a2evans'
p5301
(lp5302
V2016-10-28 04:07:40
p5303
tp5304
a(g2664
V1.0
p5305
(lp5306
(g244
F1.0
g2664
g5305
tp5307
aS'a2evans'
p5308
(lp5309
V2016-10-28 04:14:04
p5310
tp5311
a(g2664
V1.0
p5312
(lp5313
(g244
F1.0
g2664
g5312
tp5314
aS'a2evans'
p5315
(lp5316
V2016-10-28 04:14:04
p5317
tp5318
a(g2664
V1.0
p5319
(lp5320
(g244
F1.0
g2664
g5319
tp5321
aS'a2evans'
p5322
(lp5323
V2016-10-28 04:14:59
p5324
tp5325
a(g2664
V1.0
p5326
(lp5327
(g244
F1.0
g2664
g5326
tp5328
aS'a2evans'
p5329
(lp5330
V2016-10-28 04:14:59
p5331
tp5332
a(g2664
V1.0
p5333
(lp5334
(g244
F1.0
g2664
g5333
tp5335
aS'a2evans'
p5336
(lp5337
V2016-10-28 04:15:26
p5338
tp5339
a(g2664
V1.0
p5340
(lp5341
(g244
F1.0
g2664
g5340
tp5342
aS'a2evans'
p5343
(lp5344
V2016-10-28 04:15:26
p5345
tp5346
a(g2664
V1.0
p5347
(lp5348
(g244
F1.0
g2664
g5347
tp5349
aS'a2evans'
p5350
(lp5351
V2016-10-28 04:18:08
p5352
tp5353
a(g2664
V1.0
p5354
(lp5355
(g244
F1.0
g2664
g5354
tp5356
aS'a2evans'
p5357
(lp5358
V2016-10-28 04:18:08
p5359
tp5360
a(g2664
V1.0
p5361
(lp5362
(g244
F1.0
g2664
g5361
tp5363
aS'a2evans'
p5364
(lp5365
V2016-10-28 04:18:31
p5366
tp5367
a(g2664
V1.0
p5368
(lp5369
(g244
F1.0
g2664
g5368
tp5370
aS'a2evans'
p5371
(lp5372
V2016-10-28 04:18:31
p5373
tp5374
a(g2664
V1.0
p5375
(lp5376
(g244
F1.0
g2664
g5375
tp5377
ag1779
(lp5378
V2016-10-28 04:19:11
p5379
tp5380
a(g2582
V2.5
p5381
(lp5382
(g244
F2.5
g2582
g5381
tp5383
ag1793
(lp5384
V2016-10-27 17:35:06
p5385
tp5386
a(g2493
V3.0
p5387
(lp5388
(g244
F3.0
g2493
g5387
tp5389
ag1807
(lp5390
V2016-10-27 08:26:46
p5391
tp5392
a(g2493
V3
p5393
(lp5394
(g244
F3.0
g2493
g5393
tp5395
ag1814
(lp5396
V2016-10-27 14:05:05
p5397
tp5398
a(g2561
V-0.5
p5399
(lp5400
(g244
F-0.5
g2561
g5399
tp5401
aS'oganguli'
p5402
(lp5403
V2016-10-26 23:23:33
p5404
tp5405
a(g2561
V-0.5
p5406
(lp5407
(g244
F-0.5
g2561
g5406
tp5408
aS'oganguli'
p5409
(lp5410
V2016-10-26 23:23:33
p5411
tp5412
a(g2561
V-0.5
p5413
(lp5414
(g244
F-0.5
g2561
g5413
tp5415
aS'oganguli'
p5416
(lp5417
V2016-10-26 23:25:07
p5418
tp5419
a(g2561
V-0.5
p5420
(lp5421
(g244
F-0.5
g2561
g5420
tp5422
aS'oganguli'
p5423
(lp5424
V2016-10-26 23:25:07
p5425
tp5426
a(g2561
V-0.5
p5427
(lp5428
(g244
F-0.5
g2561
g5427
tp5429
ag1821
(lp5430
V2016-10-27 21:08:45
p5431
tp5432
a(g2493
V3.0
p5433
(lp5434
(g244
F3.0
g2493
g5433
tp5435
aS'PhillipJo'
p5436
(lp5437
V2016-10-25 07:49:46
p5438
tp5439
a(g2493
V3.0
p5440
(lp5441
(g244
F3.0
g2493
g5440
tp5442
aS'PhillipJo'
p5443
(lp5444
V2016-10-25 07:50:45
p5445
tp5446
a(g2493
V3.0
p5447
(lp5448
(g244
F3.0
g2493
g5447
tp5449
aS'PhillipJo'
p5450
(lp5451
V2016-10-25 07:51:20
p5452
tp5453
a(g2493
V3.0
p5454
(lp5455
(g244
F3.0
g2493
g5454
tp5456
ag1828
(lp5457
V2016-10-25 07:57:06
p5458
tp5459
a(g2582
V2.5
p5460
(lp5461
(g244
F2.5
g2582
g5460
tp5462
ag1856
(lp5463
V2016-10-28 07:00:37
p5464
tp5465
a(g2561
V-0.5
p5466
(lp5467
(g244
F-0.5
g2561
g5466
tp5468
ag1870
(lp5469
V2016-10-23 20:02:07
p5470
tp5471
a(g2664
V1.0
p5472
(lp5473
(g244
F1.0
g2664
g5472
tp5474
ag1877
(lp5475
V2016-10-25 20:19:46
p5476
tp5477
a(g2582
V2.5
p5478
(lp5479
(g244
F2.5
g2582
g5478
tp5480
ag1884
(lp5481
V2016-10-26 07:04:05
p5482
tp5483
a(g2582
V2.5
p5484
(lp5485
(g244
F2.5
g2582
g5484
tp5486
aS'rleaton'
p5487
(lp5488
V2016-10-27 05:45:42
p5489
tp5490
a(g2582
V2.5
p5491
(lp5492
(g244
F2.5
g2582
g5491
tp5493
ag1898
(lp5494
V2016-10-27 06:09:14
p5495
tp5496
a(g2664
V1
p5497
(lp5498
(g244
F1.0
g2664
g5497
tp5499
aS'MarianCrofts'
p5500
(lp5501
V2016-10-28 04:40:13
p5502
tp5503
a(g2664
V1
p5504
(lp5505
(g244
F1.0
g2664
g5504
tp5506
ag1912
(lp5507
V2016-10-28 04:50:50
p5508
tp5509
a(g2561
V-0.5
p5510
(lp5511
(g244
F-0.5
g2561
g5510
tp5512
aS'HaoDong'
p5513
(lp5514
V2016-10-26 23:14:56
p5515
tp5516
a(g2561
V-0.5
p5517
(lp5518
(g244
F-0.5
g2561
g5517
tp5519
aS'HaoDong'
p5520
(lp5521
V2016-10-26 23:14:56
p5522
tp5523
a(g2561
V-0.5
p5524
(lp5525
(g244
F-0.5
g2561
g5524
tp5526
aS'HaoDong'
p5527
(lp5528
V2016-10-26 23:18:14
p5529
tp5530
a(g2561
V-0.5
p5531
(lp5532
(g244
F-0.5
g2561
g5531
tp5533
aS'HaoDong'
p5534
(lp5535
V2016-10-26 23:18:14
p5536
tp5537
a(g2561
V-0.5
p5538
(lp5539
(g244
F-0.5
g2561
g5538
tp5540
ag1919
(lp5541
V2016-10-26 23:18:39
p5542
tp5543
a(g2493
V3
p5544
(lp5545
(g244
F3.0
g2493
g5544
tp5546
ag1926
(lp5547
V2016-10-25 19:51:48
p5548
tp5549
a(g2493
V3
p5550
(lp5551
(g244
F3.0
g2493
g5550
tp5552
aS'mtashman'
p5553
(lp5554
V2016-10-24 22:04:26
p5555
tp5556
a(g2493
V3
p5557
(lp5558
(g244
F3.0
g2493
g5557
tp5559
ag1933
(lp5560
V2016-10-24 22:10:18
p5561
tp5562
a(g2493
V3
p5563
(lp5564
(g244
F3.0
g2493
g5563
tp5565
ag1940
(lp5566
V2016-10-24 22:12:17
p5567
tp5568
a(g2493
V3
p5569
(lp5570
(g244
F3.0
g2493
g5569
tp5571
ag1947
(lp5572
V2016-10-24 22:16:29
p5573
tp5574
a(g2664
V1
p5575
(lp5576
(g244
F1.0
g2664
g5575
tp5577
ag1982
(lp5578
V2016-10-28 04:53:00
p5579
tp5580
a(g2664
V1.0
p5581
(lp5582
(g244
F1.0
g2664
g5581
tp5583
ag1996
(lp5584
V2016-10-28 03:07:48
p5585
tp5586
a(g2582
V2.5
p5587
(lp5588
(g244
F2.5
g2582
g5587
tp5589
aS'zpreeces'
p5590
(lp5591
V2016-10-26 01:42:21
p5592
tp5593
a(g2582
V2.5
p5594
(lp5595
(g244
F2.5
g2582
g5594
tp5596
ag2003
(lp5597
V2016-10-26 01:44:16
p5598
tp5599
a(g2664
V1.0
p5600
(lp5601
(g244
F1.0
g2664
g5600
tp5602
ag2010
(lp5603
V2016-10-28 05:57:18
p5604
tp5605
a(g2582
V2.5
p5606
(lp5607
(g244
F2.5
g2582
g5606
tp5608
ag2024
(lp5609
V2016-10-26 00:38:03
p5610
tp5611
a(g2664
V1
p5612
(lp5613
(g244
F1.0
g2664
g5612
tp5614
ag2031
(lp5615
V2016-10-28 04:51:43
p5616
tp5617
a(g2493
V3
p5618
(lp5619
(g244
F3.0
g2493
g5618
tp5620
ag2045
(lp5621
V2016-10-27 19:29:31
p5622
tp5623
a(g2664
V1
p5624
(lp5625
(g244
F1.0
g2664
g5624
tp5626
ag2052
(lp5627
V2016-10-27 00:10:38
p5628
tp5629
a(g2561
V-0.5
p5630
(lp5631
(g244
F-0.5
g2561
g5630
tp5632
ag2059
(lp5633
V2016-10-26 05:56:03
p5634
tp5635
a(g2582
V2.5
p5636
(lp5637
(g244
F2.5
g2582
g5636
tp5638
ag2073
(lp5639
V2016-10-27 00:18:05
p5640
tp5641
a(g2561
V-0.5
p5642
(lp5643
(g244
F-0.5
g2561
g5642
tp5644
aS'yash'
p5645
(lp5646
V2016-10-27 17:31:20
p5647
tp5648
a(g2561
V-0.5
p5649
(lp5650
(g244
F-0.5
g2561
g5649
tp5651
ag2080
(lp5652
V2016-10-27 18:22:04
p5653
tp5654
a(g2582
V2.5
p5655
(lp5656
(g244
F2.5
g2582
g5655
tp5657
ag2087
(lp5658
V2016-10-28 03:55:25
p5659
tp5660
a(g2493
V3
p5661
(lp5662
(g244
F3.0
g2493
g5661
tp5663
ag2094
(lp5664
V2016-10-27 06:39:52
p5665
tp5666
a(g2493
V3
p5667
(lp5668
(g244
F3.0
g2493
g5667
tp5669
ag2101
(lp5670
V2016-10-27 06:41:33
p5671
tp5672
a(g2664
V1
p5673
(lp5674
(g244
F1.0
g2664
g5673
tp5675
aS'jarninfang'
p5676
(lp5677
V2016-10-27 18:28:30
p5678
tp5679
a(g2664
V1
p5680
(lp5681
(g244
F1.0
g2664
g5680
tp5682
aS'jarninfang'
p5683
(lp5684
V2016-10-27 18:29:13
p5685
tp5686
a(g2664
V1
p5687
(lp5688
(g244
F1.0
g2664
g5687
tp5689
aS'jarninfang'
p5690
(lp5691
V2016-10-27 18:29:13
p5692
tp5693
a(g2664
V1
p5694
(lp5695
(g244
F1.0
g2664
g5694
tp5696
aS'jarninfang'
p5697
(lp5698
V2016-10-27 18:29:43
p5699
tp5700
a(g2664
V1
p5701
(lp5702
(g244
F1.0
g2664
g5701
tp5703
aS'jarninfang'
p5704
(lp5705
V2016-10-27 18:30:48
p5706
tp5707
a(g2664
V1
p5708
(lp5709
(g244
F1.0
g2664
g5708
tp5710
aS'jarninfang'
p5711
(lp5712
V2016-10-27 18:30:48
p5713
tp5714
a(g2664
V1
p5715
(lp5716
(g244
F1.0
g2664
g5715
tp5717
aS'jarninfang'
p5718
(lp5719
V2016-10-27 18:31:14
p5720
tp5721
a(g2664
V1
p5722
(lp5723
(g244
F1.0
g2664
g5722
tp5724
ag2108
(lp5725
V2016-10-27 18:32:36
p5726
tp5727
a(g2664
V1
p5728
(lp5729
(g244
F1.0
g2664
g5728
tp5730
aS'ajgiri'
p5731
(lp5732
V2016-10-28 06:55:45
p5733
tp5734
a(g2664
V1
p5735
(lp5736
(g244
F1.0
g2664
g5735
tp5737
aS'ajgiri'
p5738
(lp5739
V2016-10-28 06:55:45
p5740
tp5741
a(g2664
V1
p5742
(lp5743
(g244
F1.0
g2664
g5742
tp5744
aS'ajgiri'
p5745
(lp5746
V2016-10-28 06:56:15
p5747
tp5748
a(g2664
V1
p5749
(lp5750
(g244
F1.0
g2664
g5749
tp5751
aS'ajgiri'
p5752
(lp5753
V2016-10-28 06:56:15
p5754
tp5755
a(g2664
V1
p5756
(lp5757
(g244
F1.0
g2664
g5756
tp5758
aS'ajgiri'
p5759
(lp5760
V2016-10-28 06:58:06
p5761
tp5762
a(g2664
V1
p5763
(lp5764
(g244
F1.0
g2664
g5763
tp5765
aS'ajgiri'
p5766
(lp5767
V2016-10-28 06:58:06
p5768
tp5769
a(g2664
V1
p5770
(lp5771
(g244
F1.0
g2664
g5770
tp5772
ag2115
(lp5773
V2016-10-28 06:58:30
p5774
tp5775
a(g2664
V1.0
p5776
(lp5777
(g244
F1.0
g2664
g5776
tp5778
ag2136
(lp5779
V2016-10-27 02:08:37
p5780
tp5781
a(g2664
V1.0
p5782
(lp5783
(g244
F1.0
g2664
g5782
tp5784
ag2143
(lp5785
V2016-10-27 02:13:00
p5786
tp5787
a(g2664
V1.0
p5788
(lp5789
(g244
F1.0
g2664
g5788
tp5790
ag2150
(lp5791
V2016-10-27 02:26:48
p5792
tp5793
a(g2664
V1.0
p5794
(lp5795
(g244
F1.0
g2664
g5794
tp5796
ag2164
(lp5797
V2016-10-27 02:29:17
p5798
tp5799
a(g2664
V1.0
p5800
(lp5801
(g244
F1.0
g2664
g5800
tp5802
ag2171
(lp5803
V2016-10-27 02:29:17
p5804
tp5805
a(g2664
V1.0
p5806
(lp5807
(g244
F1.0
g2664
g5806
tp5808
ag2178
(lp5809
V2016-10-27 03:03:24
p5810
tp5811
a(g2664
V1.0
p5812
(lp5813
(g244
F1.0
g2664
g5812
tp5814
ag2185
(lp5815
V2016-10-27 03:03:24
p5816
tp5817
a(g2664
V1.0
p5818
(lp5819
(g244
F1.0
g2664
g5818
tp5820
ag2192
(lp5821
V2016-10-27 03:16:30
p5822
tp5823
a(g2664
V1.0
p5824
(lp5825
(g244
F1.0
g2664
g5824
tp5826
ag2199
(lp5827
V2016-10-27 03:16:30
p5828
tp5829
a(g2664
V1.0
p5830
(lp5831
(g244
F1.0
g2664
g5830
tp5832
ag2206
(lp5833
V2016-10-27 03:48:35
p5834
tp5835
a(g2664
V1.0
p5836
(lp5837
(g244
F1.0
g2664
g5836
tp5838
ag2213
(lp5839
V2016-10-27 03:48:35
p5840
tp5841
a(g2664
V1.0
p5842
(lp5843
(g244
F1.0
g2664
g5842
tp5844
ag2220
(lp5845
V2016-10-27 03:49:25
p5846
tp5847
a(g2664
V1.0
p5848
(lp5849
(g244
F1.0
g2664
g5848
tp5850
ag2227
(lp5851
V2016-10-27 03:49:25
p5852
tp5853
a(g2664
V1.0
p5854
(lp5855
(g244
F1.0
g2664
g5854
tp5856
ag2234
(lp5857
V2016-10-27 03:51:23
p5858
tp5859
a(g2664
V1.0
p5860
(lp5861
(g244
F1.0
g2664
g5860
tp5862
ag2241
(lp5863
V2016-10-27 03:51:23
p5864
tp5865
a(g2664
V1.0
p5866
(lp5867
(g244
F1.0
g2664
g5866
tp5868
ag2248
(lp5869
V2016-10-27 20:50:18
p5870
tp5871
asg2252
(lp5872
(g2664
V.75
p5873
tp5874
a(g2664
V0.75
p5875
tp5876
a(g2664
V.50
p5877
tp5878
a(g2664
V.50
p5879
tp5880
a(g2664
V.51
p5881
tp5882
a(g2664
V.51
p5883
tp5884
a(g2493
V0.3
p5885
tp5886
a(g2664
V.5
p5887
tp5888
a(g2664
V2.5
p5889
tp5890
a(g2664
V0.5
p5891
tp5892
assS'2'
p5893
g2
(g3
tp5894
Rp5895
g6
(lp5896
(g21
V1
p5897
tp5898
a(S'0.4'
p5899
V1
p5900
tp5901
a(g5899
V1
p5902
tp5903
a(g5899
V1
p5904
tp5905
a(S'0.25'
p5906
V1
p5907
tp5908
a(g5899
V1
p5909
tp5910
a(g21
V0
p5911
tp5912
a(S'0.35'
p5913
V1
p5914
tp5915
a(g5906
V1
p5916
tp5917
a(g5906
V1
p5918
tp5919
a(g5906
V1
p5920
tp5921
a(g5906
V1
p5922
tp5923
asg198
(lp5924
(g21
V-0.5
p5925
tp5926
asS"['R']"
p5927
(lp5928
(g5899
V.4
p5929
(lp5930
(g244
F0.4
g5899
g5929
tp5931
ag295
(lp5932
V2016-10-27 04:08:20
p5933
tp5934
a(g21
V0.5
p5935
(lp5936
(g244
F0.5
g21
g5935
tp5937
ag309
(lp5938
V2016-10-27 17:33:11
p5939
tp5940
a(g21
V0.5
p5941
(lp5942
(g244
F0.5
g21
g5941
tp5943
ag316
(lp5944
V2016-10-27 17:33:53
p5945
tp5946
a(g21
V.5
p5947
(lp5948
(g244
F0.5
g21
g5947
tp5949
aS'mvkrishn'
p5950
(lp5951
V2016-10-24 17:39:56
p5952
tp5953
a(g21
V.5
p5954
(lp5955
(g244
F0.5
g21
g5954
tp5956
aS'mvkrishn'
p5957
(lp5958
V2016-10-24 17:44:34
p5959
tp5960
a(g5906
V0.25
p5961
(lp5962
(g244
F0.25
g5906
g5961
tp5963
ag344
(lp5964
V2016-10-27 18:46:55
p5965
tp5966
a(g5899
V.4
p5967
(lp5968
(g244
F0.4
g5899
g5967
tp5969
ag351
(lp5970
V2016-10-26 05:18:02
p5971
tp5972
a(g5913
V.35
p5973
(lp5974
(g244
F0.35
g5913
g5973
tp5975
ag2712
(lp5976
V2016-10-28 04:21:57
p5977
tp5978
a(g5913
V.35
p5979
(lp5980
(g244
F0.35
g5913
g5979
tp5981
ag2719
(lp5982
V2016-10-28 04:29:57
p5983
tp5984
a(g5913
V0.35
p5985
(lp5986
(g244
F0.35
g5913
g5985
tp5987
ag2768
(lp5988
V2016-10-25 15:08:20
p5989
tp5990
a(g5913
V0.35
p5991
(lp5992
(g244
F0.35
g5913
g5991
tp5993
ag2775
(lp5994
V2016-10-25 15:08:20
p5995
tp5996
a(g5913
V0.35
p5997
(lp5998
(g244
F0.35
g5913
g5997
tp5999
ag2782
(lp6000
V2016-10-25 15:08:46
p6001
tp6002
a(g5913
V0.35
p6003
(lp6004
(g244
F0.35
g5913
g6003
tp6005
ag2789
(lp6006
V2016-10-25 15:08:46
p6007
tp6008
a(g5913
V0.35
p6009
(lp6010
(g244
F0.35
g5913
g6009
tp6011
ag2796
(lp6012
V2016-10-25 15:09:11
p6013
tp6014
a(g5913
V0.35
p6015
(lp6016
(g244
F0.35
g5913
g6015
tp6017
ag2803
(lp6018
V2016-10-25 15:09:11
p6019
tp6020
a(g5913
V0.35
p6021
(lp6022
(g244
F0.35
g5913
g6021
tp6023
ag2810
(lp6024
V2016-10-26 21:26:45
p6025
tp6026
a(g5913
V0.35
p6027
(lp6028
(g244
F0.35
g5913
g6027
tp6029
ag2817
(lp6030
V2016-10-26 21:26:45
p6031
tp6032
a(g5913
V0.35
p6033
(lp6034
(g244
F0.35
g5913
g6033
tp6035
ag358
(lp6036
V2016-10-26 21:27:11
p6037
tp6038
a(g5913
V0.35
p6039
(lp6040
(g244
F0.35
g5913
g6039
tp6041
ag365
(lp6042
V2016-10-26 21:27:11
p6043
tp6044
a(g5913
V0.35
p6045
(lp6046
(g244
F0.35
g5913
g6045
tp6047
ag372
(lp6048
V2016-10-26 21:27:47
p6049
tp6050
a(g5913
V0.35
p6051
(lp6052
(g244
F0.35
g5913
g6051
tp6053
ag379
(lp6054
V2016-10-26 21:27:47
p6055
tp6056
a(g5913
V0.35
p6057
(lp6058
(g244
F0.35
g5913
g6057
tp6059
ag386
(lp6060
V2016-10-26 22:24:20
p6061
tp6062
a(g21
V0.5
p6063
(lp6064
(g244
F0.5
g21
g6063
tp6065
ag393
(lp6066
V2016-10-28 01:17:35
p6067
tp6068
a(g5899
V0.4
p6069
(lp6070
(g244
F0.4
g5899
g6069
tp6071
ag2854
(lp6072
V2016-10-28 02:14:30
p6073
tp6074
a(g5899
V0.4
p6075
(lp6076
(g244
F0.4
g5899
g6075
tp6077
ag400
(lp6078
V2016-10-28 04:31:53
p6079
tp6080
a(g5906
V.25
p6081
(lp6082
(g244
F0.25
g5906
g6081
tp6083
ag2867
(lp6084
V2016-10-28 04:15:00
p6085
tp6086
a(g5906
V.25
p6087
(lp6088
(g244
F0.25
g5906
g6087
tp6089
ag2874
(lp6090
V2016-10-28 04:16:39
p6091
tp6092
a(g5906
V.25
p6093
(lp6094
(g244
F0.25
g5906
g6093
tp6095
ag2881
(lp6096
V2016-10-28 04:20:46
p6097
tp6098
a(g5906
V.25
p6099
(lp6100
(g244
F0.25
g5906
g6099
tp6101
ag407
(lp6102
V2016-10-28 04:22:25
p6103
tp6104
a(g5906
V0.25
p6105
(lp6106
(g244
F0.25
g5906
g6105
tp6107
ag414
(lp6108
V2016-10-25 19:39:57
p6109
tp6110
a(g5906
V0.25
p6111
(lp6112
(g244
F0.25
g5906
g6111
tp6113
ag421
(lp6114
V2016-10-26 23:34:14
p6115
tp6116
a(g5913
V0.35
p6117
(lp6118
(g244
F0.35
g5913
g6117
tp6119
ag428
(lp6120
V2016-10-27 21:14:12
p6121
tp6122
a(g21
V0.5
p6123
(lp6124
(g244
F0.5
g21
g6123
tp6125
ag435
(lp6126
V2016-10-27 20:43:41
p6127
tp6128
a(g5899
V0.4
p6129
(lp6130
(g244
F0.4
g5899
g6129
tp6131
ag442
(lp6132
V2016-10-26 19:56:45
p6133
tp6134
a(g21
V0.5
p6135
(lp6136
(g244
F0.5
g21
g6135
tp6137
ag463
(lp6138
V2016-10-27 18:27:11
p6139
tp6140
a(g21
V0.5
p6141
(lp6142
(g244
F0.5
g21
g6141
tp6143
ag484
(lp6144
V2016-10-25 04:03:15
p6145
tp6146
a(g21
V0.5
p6147
(lp6148
(g244
F0.5
g21
g6147
tp6149
ag491
(lp6150
V2016-10-25 04:03:15
p6151
tp6152
a(g21
V0.5
p6153
(lp6154
(g244
F0.5
g21
g6153
tp6155
ag498
(lp6156
V2016-10-25 04:03:37
p6157
tp6158
a(g5899
V0.4
p6159
(lp6160
(g244
F0.4
g5899
g6159
tp6161
ag505
(lp6162
V2016-10-26 03:56:12
p6163
tp6164
a(g21
V.5
p6165
(lp6166
(g244
F0.5
g21
g6165
tp6167
ag2930
(lp6168
V2016-10-26 00:35:20
p6169
tp6170
a(g21
V.5
p6171
(lp6172
(g244
F0.5
g21
g6171
tp6173
ag2937
(lp6174
V2016-10-26 00:35:20
p6175
tp6176
a(g21
V.5
p6177
(lp6178
(g244
F0.5
g21
g6177
tp6179
ag2944
(lp6180
V2016-10-26 00:35:44
p6181
tp6182
a(g21
V.5
p6183
(lp6184
(g244
F0.5
g21
g6183
tp6185
ag2951
(lp6186
V2016-10-26 00:35:44
p6187
tp6188
a(g21
V.5
p6189
(lp6190
(g244
F0.5
g21
g6189
tp6191
ag512
(lp6192
V2016-10-26 00:36:59
p6193
tp6194
a(g21
V0.5
p6195
(lp6196
(g244
F0.5
g21
g6195
tp6197
aS'christhoperbernard'
p6198
(lp6199
V2016-10-27 03:44:07
p6200
tp6201
a(g21
V0.5
p6202
(lp6203
(g244
F0.5
g21
g6202
tp6204
aS'christhoperbernard'
p6205
(lp6206
V2016-10-27 19:22:29
p6207
tp6208
a(g21
V0.5
p6209
(lp6210
(g244
F0.5
g21
g6209
tp6211
aS'christhoperbernard'
p6212
(lp6213
V2016-10-27 19:33:12
p6214
tp6215
a(g21
V0.5
p6216
(lp6217
(g244
F0.5
g21
g6216
tp6218
aS'christhoperbernard'
p6219
(lp6220
V2016-10-27 19:33:12
p6221
tp6222
a(g21
V0.5
p6223
(lp6224
(g244
F0.5
g21
g6223
tp6225
aS'christhoperbernard'
p6226
(lp6227
V2016-10-27 19:34:01
p6228
tp6229
a(g21
V0.5
p6230
(lp6231
(g244
F0.5
g21
g6230
tp6232
aS'christhoperbernard'
p6233
(lp6234
V2016-10-27 19:34:01
p6235
tp6236
a(g21
V0.5
p6237
(lp6238
(g244
F0.5
g21
g6237
tp6239
ag519
(lp6240
V2016-10-27 20:31:32
p6241
tp6242
a(g21
V0.5
p6243
(lp6244
(g244
F0.5
g21
g6243
tp6245
ag526
(lp6246
V2016-10-27 09:00:16
p6247
tp6248
a(g5899
V1-(0.97-0.37)
p6249
(lp6250
(g244
F0.4
g5899
g6249
tp6251
ag547
(lp6252
V2016-10-28 06:23:52
p6253
tp6254
a(g5913
V0.35
p6255
(lp6256
(g244
F0.35
g5913
g6255
tp6257
ag554
(lp6258
V2016-10-27 07:51:54
p6259
tp6260
a(g5899
V.4
p6261
(lp6262
(g244
F0.4
g5899
g6261
tp6263
ag589
(lp6264
V2016-10-27 02:03:06
p6265
tp6266
a(g5899
V.4
p6267
(lp6268
(g244
F0.4
g5899
g6267
tp6269
ag596
(lp6270
V2016-10-27 02:03:06
p6271
tp6272
a(g5899
V.4
p6273
(lp6274
(g244
F0.4
g5899
g6273
tp6275
ag603
(lp6276
V2016-10-27 02:03:31
p6277
tp6278
a(g5913
V0.35
p6279
(lp6280
(g244
F0.35
g5913
g6279
tp6281
ag610
(lp6282
V2016-10-21 22:47:30
p6283
tp6284
a(g5899
V.4
p6285
(lp6286
(g244
F0.4
g5899
g6285
tp6287
ag3056
(lp6288
V2016-10-27 07:07:44
p6289
tp6290
a(g5899
V.4
p6291
(lp6292
(g244
F0.4
g5899
g6291
tp6293
ag3063
(lp6294
V2016-10-27 07:07:44
p6295
tp6296
a(g5899
V.4
p6297
(lp6298
(g244
F0.4
g5899
g6297
tp6299
ag3070
(lp6300
V2016-10-27 07:08:17
p6301
tp6302
a(g5899
V.4
p6303
(lp6304
(g244
F0.4
g5899
g6303
tp6305
ag3077
(lp6306
V2016-10-27 07:08:17
p6307
tp6308
a(g5899
V.4
p6309
(lp6310
(g244
F0.4
g5899
g6309
tp6311
ag617
(lp6312
V2016-10-27 07:08:46
p6313
tp6314
a(g5906
V0.25
p6315
(lp6316
(g244
F0.25
g5906
g6315
tp6317
ag3097
(lp6318
V2016-10-26 20:34:27
p6319
tp6320
a(g5906
V0.25
p6321
(lp6322
(g244
F0.25
g5906
g6321
tp6323
ag624
(lp6324
V2016-10-26 20:35:04
p6325
tp6326
a(g21
V0.5
p6327
(lp6328
(g244
F0.5
g21
g6327
tp6329
ag3110
(lp6330
V2016-10-25 08:43:46
p6331
tp6332
a(g21
V0.5
p6333
(lp6334
(g244
F0.5
g21
g6333
tp6335
ag631
(lp6336
V2016-10-25 08:44:35
p6337
tp6338
a(g5899
V0.4
p6339
(lp6340
(g244
F0.4
g5899
g6339
tp6341
aS'yjx99335'
p6342
(lp6343
V2016-10-28 00:42:47
p6344
tp6345
a(g5899
V0.4
p6346
(lp6347
(g244
F0.4
g5899
g6346
tp6348
ag638
(lp6349
V2016-10-28 00:44:18
p6350
tp6351
a(g5906
V0.25
p6352
(lp6353
(g244
F0.25
g5906
g6352
tp6354
ag3129
(lp6355
V2016-10-26 23:27:09
p6356
tp6357
a(g5906
V0.25
p6358
(lp6359
(g244
F0.25
g5906
g6358
tp6360
ag3136
(lp6361
V2016-10-26 23:27:09
p6362
tp6363
a(g5906
V0.25
p6364
(lp6365
(g244
F0.25
g5906
g6364
tp6366
ag645
(lp6367
V2016-10-26 23:27:53
p6368
tp6369
a(g5906
V0.25
p6370
(lp6371
(g244
F0.25
g5906
g6370
tp6372
aS'erxue'
p6373
(lp6374
V2016-10-28 05:55:50
p6375
tp6376
a(g5906
V0.25
p6377
(lp6378
(g244
F0.25
g5906
g6377
tp6379
aS'erxue'
p6380
(lp6381
V2016-10-28 05:55:50
p6382
tp6383
a(g5906
V0.25
p6384
(lp6385
(g244
F0.25
g5906
g6384
tp6386
ag652
(lp6387
V2016-10-28 05:57:35
p6388
tp6389
a(g21
V0.5
p6390
(lp6391
(g244
F0.5
g21
g6390
tp6392
aS'cpence'
p6393
(lp6394
V2016-10-28 06:54:08
p6395
tp6396
a(g21
V0.5
p6397
(lp6398
(g244
F0.5
g21
g6397
tp6399
aS'cpence'
p6400
(lp6401
V2016-10-28 06:54:08
p6402
tp6403
a(g21
V0.5
p6404
(lp6405
(g244
F0.5
g21
g6404
tp6406
aS'cpence'
p6407
(lp6408
V2016-10-28 06:56:43
p6409
tp6410
a(g21
V0.5
p6411
(lp6412
(g244
F0.5
g21
g6411
tp6413
aS'cpence'
p6414
(lp6415
V2016-10-28 06:56:43
p6416
tp6417
a(g21
V0.5
p6418
(lp6419
(g244
F0.5
g21
g6418
tp6420
ag659
(lp6421
V2016-10-28 06:57:09
p6422
tp6423
a(g21
V0.5
p6424
(lp6425
(g244
F0.5
g21
g6424
tp6426
ag3155
(lp6427
V2016-10-26 22:28:22
p6428
tp6429
a(g21
V0.5
p6430
(lp6431
(g244
F0.5
g21
g6430
tp6432
ag3162
(lp6433
V2016-10-26 22:28:22
p6434
tp6435
a(g21
V0.5
p6436
(lp6437
(g244
F0.5
g21
g6436
tp6438
ag3169
(lp6439
V2016-10-26 22:30:20
p6440
tp6441
a(g21
V0.5
p6442
(lp6443
(g244
F0.5
g21
g6442
tp6444
ag3176
(lp6445
V2016-10-26 22:30:20
p6446
tp6447
a(g21
V0.5
p6448
(lp6449
(g244
F0.5
g21
g6448
tp6450
ag3183
(lp6451
V2016-10-26 22:30:43
p6452
tp6453
a(g21
V0.5
p6454
(lp6455
(g244
F0.5
g21
g6454
tp6456
ag3190
(lp6457
V2016-10-26 22:30:43
p6458
tp6459
a(g21
V0.5
p6460
(lp6461
(g244
F0.5
g21
g6460
tp6462
ag666
(lp6463
V2016-10-26 22:31:08
p6464
tp6465
a(g5906
V0.25
p6466
(lp6467
(g244
F0.25
g5906
g6466
tp6468
ag3203
(lp6469
V2016-10-23 23:43:34
p6470
tp6471
a(g5899
V0.4
p6472
(lp6473
(g244
F0.4
g5899
g6472
tp6474
ag3210
(lp6475
V2016-10-26 04:16:00
p6476
tp6477
a(g5899
V0.4
p6478
(lp6479
(g244
F0.4
g5899
g6478
tp6480
ag3217
(lp6481
V2016-10-26 04:16:00
p6482
tp6483
a(g5899
V0.4
p6484
(lp6485
(g244
F0.4
g5899
g6484
tp6486
ag3224
(lp6487
V2016-10-26 04:17:27
p6488
tp6489
a(g5899
V0.4
p6490
(lp6491
(g244
F0.4
g5899
g6490
tp6492
ag3231
(lp6493
V2016-10-26 04:17:27
p6494
tp6495
a(g5899
V0.4
p6496
(lp6497
(g244
F0.4
g5899
g6496
tp6498
ag3238
(lp6499
V2016-10-26 04:23:58
p6500
tp6501
a(g5899
V0.4
p6502
(lp6503
(g244
F0.4
g5899
g6502
tp6504
ag3245
(lp6505
V2016-10-26 04:25:52
p6506
tp6507
a(g5899
V0.4
p6508
(lp6509
(g244
F0.4
g5899
g6508
tp6510
ag3252
(lp6511
V2016-10-26 04:25:52
p6512
tp6513
a(g5899
V0.4
p6514
(lp6515
(g244
F0.4
g5899
g6514
tp6516
ag3259
(lp6517
V2016-10-26 21:21:46
p6518
tp6519
a(g5899
V0.4
p6520
(lp6521
(g244
F0.4
g5899
g6520
tp6522
ag3266
(lp6523
V2016-10-26 21:21:46
p6524
tp6525
a(g5899
V0.4
p6526
(lp6527
(g244
F0.4
g5899
g6526
tp6528
ag3273
(lp6529
V2016-10-27 21:37:47
p6530
tp6531
a(g5899
V0.4
p6532
(lp6533
(g244
F0.4
g5899
g6532
tp6534
ag3280
(lp6535
V2016-10-27 21:37:47
p6536
tp6537
a(g5899
V0.4
p6538
(lp6539
(g244
F0.4
g5899
g6538
tp6540
ag3287
(lp6541
V2016-10-27 21:50:08
p6542
tp6543
a(g5899
V0.4
p6544
(lp6545
(g244
F0.4
g5899
g6544
tp6546
ag3294
(lp6547
V2016-10-27 21:50:08
p6548
tp6549
a(g5899
V0.4
p6550
(lp6551
(g244
F0.4
g5899
g6550
tp6552
ag673
(lp6553
V2016-10-27 21:50:31
p6554
tp6555
a(g5913
V0.35
p6556
(lp6557
(g244
F0.35
g5913
g6556
tp6558
ag680
(lp6559
V2016-10-26 16:17:06
p6560
tp6561
a(g5913
V0.35
p6562
(lp6563
(g244
F0.35
g5913
g6562
tp6564
ag687
(lp6565
V2016-10-28 00:59:36
p6566
tp6567
a(g5899
V0.4
p6568
(lp6569
(g244
F0.4
g5899
g6568
tp6570
ag3375
(lp6571
V2016-10-27 01:50:41
p6572
tp6573
a(g5899
V0.4
p6574
(lp6575
(g244
F0.4
g5899
g6574
tp6576
ag3382
(lp6577
V2016-10-27 01:50:41
p6578
tp6579
a(g5899
V0.4
p6580
(lp6581
(g244
F0.4
g5899
g6580
tp6582
ag3389
(lp6583
V2016-10-27 01:54:48
p6584
tp6585
a(g5899
V0.4
p6586
(lp6587
(g244
F0.4
g5899
g6586
tp6588
ag3396
(lp6589
V2016-10-27 01:54:48
p6590
tp6591
a(g5899
V0.4
p6592
(lp6593
(g244
F0.4
g5899
g6592
tp6594
ag3403
(lp6595
V2016-10-27 02:04:37
p6596
tp6597
a(g5899
V0.4
p6598
(lp6599
(g244
F0.4
g5899
g6598
tp6600
ag3410
(lp6601
V2016-10-27 02:04:37
p6602
tp6603
a(g5899
V0.4
p6604
(lp6605
(g244
F0.4
g5899
g6604
tp6606
ag3417
(lp6607
V2016-10-27 02:18:30
p6608
tp6609
a(g5899
V0.4
p6610
(lp6611
(g244
F0.4
g5899
g6610
tp6612
ag3424
(lp6613
V2016-10-27 02:18:30
p6614
tp6615
a(g5899
V0.4
p6616
(lp6617
(g244
F0.4
g5899
g6616
tp6618
ag3431
(lp6619
V2016-10-27 02:22:04
p6620
tp6621
a(g5899
V0.4
p6622
(lp6623
(g244
F0.4
g5899
g6622
tp6624
ag3438
(lp6625
V2016-10-27 02:22:04
p6626
tp6627
a(g5899
V0.4
p6628
(lp6629
(g244
F0.4
g5899
g6628
tp6630
ag694
(lp6631
V2016-10-27 02:22:54
p6632
tp6633
a(g5906
V.25
p6634
(lp6635
(g244
F0.25
g5906
g6634
tp6636
ag701
(lp6637
V2016-10-27 04:11:48
p6638
tp6639
a(g5899
V0.4
p6640
(lp6641
(g244
F0.4
g5899
g6640
tp6642
ag3457
(lp6643
V2016-10-26 00:26:30
p6644
tp6645
a(g5899
V0.4
p6646
(lp6647
(g244
F0.4
g5899
g6646
tp6648
ag3464
(lp6649
V2016-10-26 00:28:35
p6650
tp6651
a(g5899
V0.4
p6652
(lp6653
(g244
F0.4
g5899
g6652
tp6654
ag708
(lp6655
V2016-10-26 00:28:59
p6656
tp6657
a(g5913
V.35
p6658
(lp6659
(g244
F0.35
g5913
g6658
tp6660
ag3477
(lp6661
V2016-10-25 05:59:57
p6662
tp6663
a(g5913
V.35
p6664
(lp6665
(g244
F0.35
g5913
g6664
tp6666
ag722
(lp6667
V2016-10-25 06:01:48
p6668
tp6669
a(g5906
V.25
p6670
(lp6671
(g244
F0.25
g5906
g6670
tp6672
ag778
(lp6673
V2016-10-28 00:16:40
p6674
tp6675
a(g5906
V1-(.91-.16)
p6676
(lp6677
(g244
F0.25
g5906
g6676
tp6678
ag792
(lp6679
V2016-10-27 17:47:50
p6680
tp6681
a(g21
V.5
p6682
(lp6683
(g244
F0.5
g21
g6682
tp6684
ag799
(lp6685
V2016-10-28 05:11:37
p6686
tp6687
a(g5906
V.25
p6688
(lp6689
(g244
F0.25
g5906
g6688
tp6690
ag813
(lp6691
V2016-10-27 06:32:45
p6692
tp6693
a(g5913
V.35
p6694
(lp6695
(g244
F0.35
g5913
g6694
tp6696
ag820
(lp6697
V2016-10-25 23:16:29
p6698
tp6699
a(g5906
V0.25
p6700
(lp6701
(g244
F0.25
g5906
g6700
tp6702
ag3605
(lp6703
V2016-10-28 00:23:41
p6704
tp6705
a(g5906
V0.25
p6706
(lp6707
(g244
F0.25
g5906
g6706
tp6708
ag3612
(lp6709
V2016-10-28 00:23:41
p6710
tp6711
a(g5906
V0.25
p6712
(lp6713
(g244
F0.25
g5906
g6712
tp6714
ag3619
(lp6715
V2016-10-28 00:33:46
p6716
tp6717
a(g5906
V0.25
p6718
(lp6719
(g244
F0.25
g5906
g6718
tp6720
ag3626
(lp6721
V2016-10-28 00:33:46
p6722
tp6723
a(g5906
V0.25
p6724
(lp6725
(g244
F0.25
g5906
g6724
tp6726
ag3633
(lp6727
V2016-10-28 00:34:54
p6728
tp6729
a(g5906
V0.25
p6730
(lp6731
(g244
F0.25
g5906
g6730
tp6732
ag3640
(lp6733
V2016-10-28 00:34:54
p6734
tp6735
a(g5906
V0.25
p6736
(lp6737
(g244
F0.25
g5906
g6736
tp6738
ag3647
(lp6739
V2016-10-28 00:35:18
p6740
tp6741
a(g5906
V0.25
p6742
(lp6743
(g244
F0.25
g5906
g6742
tp6744
ag3654
(lp6745
V2016-10-28 00:35:18
p6746
tp6747
a(g5906
V0.25
p6748
(lp6749
(g244
F0.25
g5906
g6748
tp6750
ag3661
(lp6751
V2016-10-28 00:37:33
p6752
tp6753
a(g5906
V0.25
p6754
(lp6755
(g244
F0.25
g5906
g6754
tp6756
ag3668
(lp6757
V2016-10-28 00:37:33
p6758
tp6759
a(g5906
V0.25
p6760
(lp6761
(g244
F0.25
g5906
g6760
tp6762
ag827
(lp6763
V2016-10-28 00:53:44
p6764
tp6765
a(g5913
V0.35
p6766
(lp6767
(g244
F0.35
g5913
g6766
tp6768
ag834
(lp6769
V2016-10-26 00:46:50
p6770
tp6771
a(g5906
V.25
p6772
(lp6773
(g244
F0.25
g5906
g6772
tp6774
ag3687
(lp6775
V2016-10-28 02:00:43
p6776
tp6777
a(g5906
V.25
p6778
(lp6779
(g244
F0.25
g5906
g6778
tp6780
ag3694
(lp6781
V2016-10-28 02:00:43
p6782
tp6783
a(g5906
V.25
p6784
(lp6785
(g244
F0.25
g5906
g6784
tp6786
ag3701
(lp6787
V2016-10-28 02:53:30
p6788
tp6789
a(g5906
V.25
p6790
(lp6791
(g244
F0.25
g5906
g6790
tp6792
ag3708
(lp6793
V2016-10-28 02:53:30
p6794
tp6795
a(g5906
V.25
p6796
(lp6797
(g244
F0.25
g5906
g6796
tp6798
ag841
(lp6799
V2016-10-28 02:53:54
p6800
tp6801
a(g5913
V.35
p6802
(lp6803
(g244
F0.35
g5913
g6802
tp6804
ag855
(lp6805
V2016-10-28 04:18:50
p6806
tp6807
a(g5913
V.35
p6808
(lp6809
(g244
F0.35
g5913
g6808
tp6810
ag862
(lp6811
V2016-10-28 04:19:14
p6812
tp6813
a(g5906
V.25
p6814
(lp6815
(g244
F0.25
g5906
g6814
tp6816
ag869
(lp6817
V2016-10-28 04:22:03
p6818
tp6819
a(g5899
V0.4
p6820
(lp6821
(g244
F0.4
g5899
g6820
tp6822
ag876
(lp6823
V2016-10-26 21:43:45
p6824
tp6825
a(g5913
V0.35
p6826
(lp6827
(g244
F0.35
g5913
g6826
tp6828
ag883
(lp6829
V2016-10-25 01:01:02
p6830
tp6831
a(g5913
V0.35
p6832
(lp6833
(g244
F0.35
g5913
g6832
tp6834
ag890
(lp6835
V2016-10-25 01:01:02
p6836
tp6837
a(g5913
V0.35
p6838
(lp6839
(g244
F0.35
g5913
g6838
tp6840
ag897
(lp6841
V2016-10-25 01:02:31
p6842
tp6843
a(g5899
V0.4
p6844
(lp6845
(g244
F0.4
g5899
g6844
tp6846
ag918
(lp6847
V2016-10-26 03:43:22
p6848
tp6849
a(g5906
V0.25
p6850
(lp6851
(g244
F0.25
g5906
g6850
tp6852
ag946
(lp6853
V2016-10-27 21:29:43
p6854
tp6855
a(g5899
V0.4
p6856
(lp6857
(g244
F0.4
g5899
g6856
tp6858
ag953
(lp6859
V2016-10-27 03:23:35
p6860
tp6861
a(g21
V0.5
p6862
(lp6863
(g244
F0.5
g21
g6862
tp6864
aS'karl-rummler'
p6865
(lp6866
V2016-10-27 06:30:09
p6867
tp6868
a(g21
V0.5
p6869
(lp6870
(g244
F0.5
g21
g6869
tp6871
aS'karl-rummler'
p6872
(lp6873
V2016-10-27 06:41:19
p6874
tp6875
a(g21
V0.5
p6876
(lp6877
(g244
F0.5
g21
g6876
tp6878
aS'karl-rummler'
p6879
(lp6880
V2016-10-27 06:47:25
p6881
tp6882
a(g21
V0.5
p6883
(lp6884
(g244
F0.5
g21
g6883
tp6885
aS'karl-rummler'
p6886
(lp6887
V2016-10-27 06:48:20
p6888
tp6889
a(g21
V0.5
p6890
(lp6891
(g244
F0.5
g21
g6890
tp6892
aS'karl-rummler'
p6893
(lp6894
V2016-10-27 06:49:58
p6895
tp6896
a(g5906
V0.25
p6897
(lp6898
(g244
F0.25
g5906
g6897
tp6899
ag3848
(lp6900
V2016-10-26 01:18:55
p6901
tp6902
a(g5906
V0.25
p6903
(lp6904
(g244
F0.25
g5906
g6903
tp6905
ag3855
(lp6906
V2016-10-26 01:20:12
p6907
tp6908
a(g5906
V0.25
p6909
(lp6910
(g244
F0.25
g5906
g6909
tp6911
ag960
(lp6912
V2016-10-26 01:21:07
p6913
tp6914
a(g21
V0.5
p6915
(lp6916
(g244
F0.5
g21
g6915
tp6917
ag967
(lp6918
V2016-10-25 19:32:23
p6919
tp6920
a(g5906
V0.25
p6921
(lp6922
(g244
F0.25
g5906
g6921
tp6923
ag974
(lp6924
V2016-10-27 21:25:51
p6925
tp6926
a(g21
V0.5
p6927
(lp6928
(g244
F0.5
g21
g6927
tp6929
aS'brandon_vo'
p6930
(lp6931
V2016-10-27 20:52:37
p6932
tp6933
a(g21
V0.5
p6934
(lp6935
(g244
F0.5
g21
g6934
tp6936
aS'brandon_vo'
p6937
(lp6938
V2016-10-27 20:57:01
p6939
tp6940
a(g21
V0.5
p6941
(lp6942
(g244
F0.5
g21
g6941
tp6943
aS'brandon_vo'
p6944
(lp6945
V2016-10-27 20:59:05
p6946
tp6947
a(g21
V0.5
p6948
(lp6949
(g244
F0.5
g21
g6948
tp6950
ag981
(lp6951
V2016-10-27 20:59:30
p6952
tp6953
a(g5899
V0.4
p6954
(lp6955
(g244
F0.4
g5899
g6954
tp6956
ag988
(lp6957
V2016-10-25 17:05:06
p6958
tp6959
a(g5899
V0.4
p6960
(lp6961
(g244
F0.4
g5899
g6960
tp6962
ag3880
(lp6963
V2016-10-27 06:24:32
p6964
tp6965
a(g5899
V0.4
p6966
(lp6967
(g244
F0.4
g5899
g6966
tp6968
ag3887
(lp6969
V2016-10-27 06:26:11
p6970
tp6971
a(g5899
V0.4
p6972
(lp6973
(g244
F0.4
g5899
g6972
tp6974
ag3894
(lp6975
V2016-10-27 06:27:32
p6976
tp6977
a(g5899
V0.4
p6978
(lp6979
(g244
F0.4
g5899
g6978
tp6980
ag3901
(lp6981
V2016-10-27 06:28:04
p6982
tp6983
a(g5899
V0.4
p6984
(lp6985
(g244
F0.4
g5899
g6984
tp6986
ag3908
(lp6987
V2016-10-27 06:33:31
p6988
tp6989
a(g5899
V0.4
p6990
(lp6991
(g244
F0.4
g5899
g6990
tp6992
ag1002
(lp6993
V2016-10-27 06:42:59
p6994
tp6995
a(g5906
V0.25
p6996
(lp6997
(g244
F0.25
g5906
g6996
tp6998
ag1009
(lp6999
V2016-10-27 19:28:53
p7000
tp7001
a(g5899
V0.40
p7002
(lp7003
(g244
F0.4
g5899
V0.4
p7004
tp7005
aS'evahuynh'
p7006
(lp7007
V2016-10-27 00:36:31
p7008
tp7009
a(g5899
V0.4
p7010
(lp7011
(g244
F0.4
g5899
g7010
tp7012
ag1030
(lp7013
V2016-10-27 00:36:57
p7014
tp7015
a(g5906
V.25
p7016
(lp7017
(g244
F0.25
g5906
g7016
tp7018
ag1037
(lp7019
V2016-10-24 09:05:48
p7020
tp7021
a(g5906
V0.25
p7022
(lp7023
(g244
F0.25
g5906
g7022
tp7024
aS'Joonhan'
p7025
(lp7026
V2016-10-27 09:54:28
p7027
tp7028
a(g5906
V0.25
p7029
(lp7030
(g244
F0.25
g5906
g7029
tp7031
aS'Joonhan'
p7032
(lp7033
V2016-10-27 09:54:28
p7034
tp7035
a(g5906
V0.25
p7036
(lp7037
(g244
F0.25
g5906
g7036
tp7038
aS'Joonhan'
p7039
(lp7040
V2016-10-27 10:00:01
p7041
tp7042
a(g5906
V0.25
p7043
(lp7044
(g244
F0.25
g5906
g7043
tp7045
ag3965
(lp7046
V2016-10-27 10:01:48
p7047
tp7048
a(g5906
V0.25
p7049
(lp7050
(g244
F0.25
g5906
g7049
tp7051
ag3972
(lp7052
V2016-10-27 10:13:31
p7053
tp7054
a(g5906
V0.25
p7055
(lp7056
(g244
F0.25
g5906
g7055
tp7057
ag3979
(lp7058
V2016-10-27 10:14:53
p7059
tp7060
a(g5906
V0.25
p7061
(lp7062
(g244
F0.25
g5906
g7061
tp7063
ag1044
(lp7064
V2016-10-27 10:15:17
p7065
tp7066
a(g5899
V0.4
p7067
(lp7068
(g244
F0.4
g5899
g7067
tp7069
ag1051
(lp7070
V2016-10-28 04:56:09
p7071
tp7072
a(g5899
V.4
p7073
(lp7074
(g244
F0.4
g5899
g7073
tp7075
ag1058
(lp7076
V2016-10-27 01:44:58
p7077
tp7078
a(g5899
V0.40
p7079
(lp7080
(g244
F0.4
g5899
V0.4
p7081
tp7082
ag4004
(lp7083
V2016-10-25 22:10:58
p7084
tp7085
a(g5899
V0.40
p7086
(lp7087
(g244
F0.4
g5899
V0.4
p7088
tp7089
ag4011
(lp7090
V2016-10-25 22:13:46
p7091
tp7092
a(g5899
V0.40
p7093
(lp7094
(g244
F0.4
g5899
V0.4
p7095
tp7096
ag4018
(lp7097
V2016-10-25 22:14:17
p7098
tp7099
a(g5899
V0.40
p7100
(lp7101
(g244
F0.4
g5899
V0.4
p7102
tp7103
ag4025
(lp7104
V2016-10-25 22:14:17
p7105
tp7106
a(g5899
V0.40
p7107
(lp7108
(g244
F0.4
g5899
V0.4
p7109
tp7110
ag1065
(lp7111
V2016-10-25 22:15:00
p7112
tp7113
a(g5899
V0.4
p7114
(lp7115
(g244
F0.4
g5899
g7114
tp7116
ag4038
(lp7117
V2016-10-28 04:50:54
p7118
tp7119
a(g5899
V0.4
p7120
(lp7121
(g244
F0.4
g5899
g7120
tp7122
ag1072
(lp7123
V2016-10-28 04:54:12
p7124
tp7125
a(g5906
V0.25
p7126
(lp7127
(g244
F0.25
g5906
g7126
tp7128
ag1079
(lp7129
V2016-10-25 20:10:29
p7130
tp7131
a(g5906
V.25
p7132
(lp7133
(g244
F0.25
g5906
g7132
tp7134
ag4071
(lp7135
V2016-10-25 21:56:42
p7136
tp7137
a(g5906
V.25
p7138
(lp7139
(g244
F0.25
g5906
g7138
tp7140
ag4078
(lp7141
V2016-10-25 21:57:45
p7142
tp7143
a(g5906
V.25
p7144
(lp7145
(g244
F0.25
g5906
g7144
tp7146
ag1086
(lp7147
V2016-10-25 21:58:28
p7148
tp7149
a(g21
V0.5
p7150
(lp7151
(g244
F0.5
g21
g7150
tp7152
ag1156
(lp7153
V2016-10-28 06:22:39
p7154
tp7155
a(g21
V0.5
p7156
(lp7157
(g244
F0.5
g21
g7156
tp7158
ag1163
(lp7159
V2016-10-28 06:23:05
p7160
tp7161
a(g21
V0.5
p7162
(lp7163
(g244
F0.5
g21
g7162
tp7164
ag1170
(lp7165
V2016-10-27 17:09:06
p7166
tp7167
a(g5906
V0.25
p7168
(lp7169
(g244
F0.25
g5906
g7168
tp7170
ag4104
(lp7171
V2016-10-28 00:05:46
p7172
tp7173
a(g5906
V0.25
p7174
(lp7175
(g244
F0.25
g5906
g7174
tp7176
ag4111
(lp7177
V2016-10-28 00:05:46
p7178
tp7179
a(g5906
V0.25
p7180
(lp7181
(g244
F0.25
g5906
g7180
tp7182
ag1177
(lp7183
V2016-10-28 00:14:42
p7184
tp7185
a(g5899
V0.4
p7186
(lp7187
(g244
F0.4
g5899
g7186
tp7188
ag1184
(lp7189
V2016-10-27 18:51:18
p7190
tp7191
a(g5899
V0.4
p7192
(lp7193
(g244
F0.4
g5899
g7192
tp7194
ag1282
(lp7195
V2016-10-26 08:05:43
p7196
tp7197
a(g5899
V0.4
p7198
(lp7199
(g244
F0.4
g5899
g7198
tp7200
ag1289
(lp7201
V2016-10-26 08:05:43
p7202
tp7203
a(g5899
V0.4
p7204
(lp7205
(g244
F0.4
g5899
g7204
tp7206
ag1296
(lp7207
V2016-10-26 08:06:07
p7208
tp7209
a(g21
V.5
p7210
(lp7211
(g244
F0.5
g21
g7210
tp7212
ag4136
(lp7213
V2016-10-28 02:56:52
p7214
tp7215
a(g21
V.5
p7216
(lp7217
(g244
F0.5
g21
g7216
tp7218
ag4143
(lp7219
V2016-10-28 02:56:52
p7220
tp7221
a(g21
V.5
p7222
(lp7223
(g244
F0.5
g21
g7222
tp7224
ag1303
(lp7225
V2016-10-28 02:57:22
p7226
tp7227
a(g21
V.5
p7228
(lp7229
(g244
F0.5
g21
g7228
tp7230
aS'Kanurame'
p7231
(lp7232
V2016-10-28 04:58:03
p7233
tp7234
a(g21
V.5
p7235
(lp7236
(g244
F0.5
g21
g7235
tp7237
aS'Kanurame'
p7238
(lp7239
V2016-10-28 04:58:03
p7240
tp7241
a(g21
V.5
p7242
(lp7243
(g244
F0.5
g21
g7242
tp7244
ag4156
(lp7245
V2016-10-28 04:58:27
p7246
tp7247
a(g21
V.5
p7248
(lp7249
(g244
F0.5
g21
g7248
tp7250
ag4163
(lp7251
V2016-10-28 04:58:27
p7252
tp7253
a(g21
V.5
p7254
(lp7255
(g244
F0.5
g21
g7254
tp7256
ag4170
(lp7257
V2016-10-28 05:00:42
p7258
tp7259
a(g5906
V0.25
p7260
(lp7261
(g244
F0.25
g5906
g7260
tp7262
ag4191
(lp7263
V2016-10-25 03:22:10
p7264
tp7265
a(g5906
V0.25
p7266
(lp7267
(g244
F0.25
g5906
g7266
tp7268
ag4198
(lp7269
V2016-10-25 03:22:42
p7270
tp7271
a(g5906
V0.25
p7272
(lp7273
(g244
F0.25
g5906
g7272
tp7274
ag4205
(lp7275
V2016-10-25 03:27:32
p7276
tp7277
a(g5906
V0.25
p7278
(lp7279
(g244
F0.25
g5906
g7278
tp7280
ag1310
(lp7281
V2016-10-25 03:28:00
p7282
tp7283
a(g21
V0.5
p7284
(lp7285
(g244
F0.5
g21
g7284
tp7286
aS'szh'
p7287
(lp7288
V2016-10-26 22:13:46
p7289
tp7290
a(g21
V0.5
p7291
(lp7292
(g244
F0.5
g21
g7291
tp7293
ag1317
(lp7294
V2016-10-26 22:20:15
p7295
tp7296
a(g5913
V0.35
p7297
(lp7298
(g244
F0.35
g5913
g7297
tp7299
ag4218
(lp7300
V2016-10-25 23:38:42
p7301
tp7302
a(g5913
V0.35
p7303
(lp7304
(g244
F0.35
g5913
g7303
tp7305
ag4225
(lp7306
V2016-10-25 23:43:26
p7307
tp7308
a(g5913
V0.35
p7309
(lp7310
(g244
F0.35
g5913
g7309
tp7311
ag1324
(lp7312
V2016-10-25 23:43:52
p7313
tp7314
a(g21
V0.5
p7315
(lp7316
(g244
F0.5
g21
g7315
tp7317
ag1331
(lp7318
V2016-10-28 03:46:34
p7319
tp7320
a(g21
V0.5
p7321
(lp7322
(g244
F0.5
g21
g7321
tp7323
ag1338
(lp7324
V2016-10-28 03:46:59
p7325
tp7326
a(g5906
V0.25
p7327
(lp7328
(g244
F0.25
g5906
g7327
tp7329
ag4258
(lp7330
V2016-10-25 04:54:35
p7331
tp7332
a(g5906
V0.25
p7333
(lp7334
(g244
F0.25
g5906
g7333
tp7335
ag4265
(lp7336
V2016-10-25 04:54:35
p7337
tp7338
a(g5906
V0.25
p7339
(lp7340
(g244
F0.25
g5906
g7339
tp7341
ag4272
(lp7342
V2016-10-25 18:25:46
p7343
tp7344
a(g5906
V0.25
p7345
(lp7346
(g244
F0.25
g5906
g7345
tp7347
ag4279
(lp7348
V2016-10-25 18:25:46
p7349
tp7350
a(g5906
V0.25
p7351
(lp7352
(g244
F0.25
g5906
g7351
tp7353
ag4286
(lp7354
V2016-10-25 18:48:31
p7355
tp7356
a(g5906
V0.25
p7357
(lp7358
(g244
F0.25
g5906
g7357
tp7359
ag4293
(lp7360
V2016-10-25 18:48:31
p7361
tp7362
a(g5906
V0.25
p7363
(lp7364
(g244
F0.25
g5906
g7363
tp7365
ag4300
(lp7366
V2016-10-25 19:02:28
p7367
tp7368
a(g5906
V0.25
p7369
(lp7370
(g244
F0.25
g5906
g7369
tp7371
ag4307
(lp7372
V2016-10-25 19:02:28
p7373
tp7374
a(g5906
V0.25
p7375
(lp7376
(g244
F0.25
g5906
g7375
tp7377
ag4314
(lp7378
V2016-10-25 19:03:43
p7379
tp7380
a(g5906
V0.25
p7381
(lp7382
(g244
F0.25
g5906
g7381
tp7383
ag4321
(lp7384
V2016-10-25 19:03:43
p7385
tp7386
a(g5906
V0.25
p7387
(lp7388
(g244
F0.25
g5906
g7387
tp7389
ag4328
(lp7390
V2016-10-25 19:12:45
p7391
tp7392
a(g5906
V0.25
p7393
(lp7394
(g244
F0.25
g5906
g7393
tp7395
ag4335
(lp7396
V2016-10-25 19:12:45
p7397
tp7398
a(g5906
V0.25
p7399
(lp7400
(g244
F0.25
g5906
g7399
tp7401
ag4342
(lp7402
V2016-10-25 19:22:45
p7403
tp7404
a(g5906
V0.25
p7405
(lp7406
(g244
F0.25
g5906
g7405
tp7407
ag4349
(lp7408
V2016-10-25 19:22:45
p7409
tp7410
a(g5906
V0.25
p7411
(lp7412
(g244
F0.25
g5906
g7411
tp7413
ag4356
(lp7414
V2016-10-25 19:24:52
p7415
tp7416
a(g5906
V0.25
p7417
(lp7418
(g244
F0.25
g5906
g7417
tp7419
ag4363
(lp7420
V2016-10-25 19:24:52
p7421
tp7422
a(g5906
V0.25
p7423
(lp7424
(g244
F0.25
g5906
g7423
tp7425
ag4370
(lp7426
V2016-10-25 19:40:53
p7427
tp7428
a(g5906
V0.25
p7429
(lp7430
(g244
F0.25
g5906
g7429
tp7431
ag4377
(lp7432
V2016-10-25 19:40:53
p7433
tp7434
a(g5906
V0.25
p7435
(lp7436
(g244
F0.25
g5906
g7435
tp7437
ag4384
(lp7438
V2016-10-25 19:50:20
p7439
tp7440
a(g5906
V0.25
p7441
(lp7442
(g244
F0.25
g5906
g7441
tp7443
ag4391
(lp7444
V2016-10-25 19:50:20
p7445
tp7446
a(g5906
V0.25
p7447
(lp7448
(g244
F0.25
g5906
g7447
tp7449
ag1345
(lp7450
V2016-10-25 19:56:30
p7451
tp7452
a(g21
V.5
p7453
(lp7454
(g244
F0.5
g21
g7453
tp7455
ag1366
(lp7456
V2016-10-27 17:02:48
p7457
tp7458
a(g5906
V.25
p7459
(lp7460
(g244
F0.25
g5906
g7459
tp7461
ag1415
(lp7462
V2016-10-26 22:19:27
p7463
tp7464
a(g5899
V0.4
p7465
(lp7466
(g244
F0.4
g5899
g7465
tp7467
ag1422
(lp7468
V2016-10-27 01:20:35
p7469
tp7470
a(g5913
V0.35
p7471
(lp7472
(g244
F0.35
g5913
g7471
tp7473
ag1429
(lp7474
V2016-10-27 17:55:59
p7475
tp7476
a(g5899
V0.4
p7477
(lp7478
(g244
F0.4
g5899
g7477
tp7479
ag1436
(lp7480
V2016-10-24 03:34:39
p7481
tp7482
a(g5899
V0.4
p7483
(lp7484
(g244
F0.4
g5899
g7483
tp7485
ag4608
(lp7486
V2016-10-27 23:00:17
p7487
tp7488
a(g5899
V0.4
p7489
(lp7490
(g244
F0.4
g5899
g7489
tp7491
ag4615
(lp7492
V2016-10-27 23:01:02
p7493
tp7494
a(g5899
V0.4
p7495
(lp7496
(g244
F0.4
g5899
g7495
tp7497
ag4622
(lp7498
V2016-10-27 23:02:35
p7499
tp7500
a(g5899
V0.4
p7501
(lp7502
(g244
F0.4
g5899
g7501
tp7503
ag4629
(lp7504
V2016-10-27 23:02:35
p7505
tp7506
a(g5899
V0.4
p7507
(lp7508
(g244
F0.4
g5899
g7507
tp7509
ag4636
(lp7510
V2016-10-27 23:14:12
p7511
tp7512
a(g5899
V0.4
p7513
(lp7514
(g244
F0.4
g5899
g7513
tp7515
ag4643
(lp7516
V2016-10-27 23:14:12
p7517
tp7518
a(g5899
V0.4
p7519
(lp7520
(g244
F0.4
g5899
g7519
tp7521
ag4650
(lp7522
V2016-10-27 23:14:43
p7523
tp7524
a(g5899
V0.4
p7525
(lp7526
(g244
F0.4
g5899
g7525
tp7527
ag4657
(lp7528
V2016-10-27 23:14:43
p7529
tp7530
a(g5899
V0.4
p7531
(lp7532
(g244
F0.4
g5899
g7531
tp7533
ag4664
(lp7534
V2016-10-27 23:17:27
p7535
tp7536
a(g5899
V0.4
p7537
(lp7538
(g244
F0.4
g5899
g7537
tp7539
ag4671
(lp7540
V2016-10-27 23:17:27
p7541
tp7542
a(g5899
V0.4
p7543
(lp7544
(g244
F0.4
g5899
g7543
tp7545
ag4678
(lp7546
V2016-10-27 23:19:53
p7547
tp7548
a(g5899
V0.4
p7549
(lp7550
(g244
F0.4
g5899
g7549
tp7551
ag4685
(lp7552
V2016-10-27 23:19:53
p7553
tp7554
a(g5899
V0.4
p7555
(lp7556
(g244
F0.4
g5899
g7555
tp7557
ag4692
(lp7558
V2016-10-28 01:34:32
p7559
tp7560
a(g5899
V0.4
p7561
(lp7562
(g244
F0.4
g5899
g7561
tp7563
ag4699
(lp7564
V2016-10-28 01:34:32
p7565
tp7566
a(g5899
V0.4
p7567
(lp7568
(g244
F0.4
g5899
g7567
tp7569
ag1443
(lp7570
V2016-10-28 01:34:59
p7571
tp7572
a(g5906
V1-(0.91-0.16)
p7573
(lp7574
(g244
F0.25
g5906
g7573
tp7575
ag1457
(lp7576
V2016-10-26 00:37:05
p7577
tp7578
a(g5899
V.4
p7579
(lp7580
(g244
F0.4
g5899
g7579
tp7581
ag1464
(lp7582
V2016-10-26 01:30:17
p7583
tp7584
a(g5913
V0.35
p7585
(lp7586
(g244
F0.35
g5913
g7585
tp7587
ag1471
(lp7588
V2016-10-25 05:48:04
p7589
tp7590
a(g21
V0.5
p7591
(lp7592
(g244
F0.5
g21
g7591
tp7593
ag1492
(lp7594
V2016-10-27 14:25:02
p7595
tp7596
a(g5899
V1-(.97-.37)
p7597
(lp7598
(g244
F0.4
g5899
g7597
tp7599
ag4751
(lp7600
V2016-10-26 01:28:14
p7601
tp7602
a(g5899
V1-(.97-.37)
p7603
(lp7604
(g244
F0.4
g5899
g7603
tp7605
ag1499
(lp7606
V2016-10-26 01:28:40
p7607
tp7608
a(g5899
V0.4
p7609
(lp7610
(g244
F0.4
g5899
g7609
tp7611
ag1506
(lp7612
V2016-10-28 04:03:10
p7613
tp7614
a(g5899
V.4
p7615
(lp7616
(g244
F0.4
g5899
g7615
tp7617
ag4770
(lp7618
V2016-10-25 07:25:58
p7619
tp7620
a(g5899
V.4
p7621
(lp7622
(g244
F0.4
g5899
g7621
tp7623
ag1513
(lp7624
V2016-10-28 04:10:25
p7625
tp7626
a(g21
V0.5
p7627
(lp7628
(g244
F0.5
g21
g7627
tp7629
aS'Zhongting'
p7630
(lp7631
V2016-10-24 22:10:59
p7632
tp7633
a(g21
V0.5
p7634
(lp7635
(g244
F0.5
g21
g7634
tp7636
aS'Zhongting'
p7637
(lp7638
V2016-10-24 22:10:59
p7639
tp7640
a(g21
V0.5
p7641
(lp7642
(g244
F0.5
g21
g7641
tp7643
aS'Zhongting'
p7644
(lp7645
V2016-10-24 22:11:23
p7646
tp7647
a(g21
V0.5
p7648
(lp7649
(g244
F0.5
g21
g7648
tp7650
aS'Zhongting'
p7651
(lp7652
V2016-10-24 22:11:23
p7653
tp7654
a(g21
V0.5
p7655
(lp7656
(g244
F0.5
g21
g7655
tp7657
ag1520
(lp7658
V2016-10-24 22:12:27
p7659
tp7660
a(g5906
V0.25
p7661
(lp7662
(g244
F0.25
g5906
g7661
tp7663
ag1527
(lp7664
V2016-10-28 02:26:13
p7665
tp7666
a(g21
V.5
p7667
(lp7668
(g244
F0.5
g21
g7667
tp7669
ag1541
(lp7670
V2016-10-27 19:20:05
p7671
tp7672
a(g5899
V0.4
p7673
(lp7674
(g244
F0.4
g5899
g7673
tp7675
ag1548
(lp7676
V2016-10-25 17:34:37
p7677
tp7678
a(g5899
V0.4
p7679
(lp7680
(g244
F0.4
g5899
g7679
tp7681
aS'jih089'
p7682
(lp7683
V2016-10-22 05:53:38
p7684
tp7685
a(g5899
V0.4
p7686
(lp7687
(g244
F0.4
g5899
g7686
tp7688
aS'jih089'
p7689
(lp7690
V2016-10-22 05:53:38
p7691
tp7692
a(g5899
V0.4
p7693
(lp7694
(g244
F0.4
g5899
g7693
tp7695
ag4815
(lp7696
V2016-10-22 05:54:03
p7697
tp7698
a(g5899
V0.4
p7699
(lp7700
(g244
F0.4
g5899
g7699
tp7701
ag4822
(lp7702
V2016-10-22 05:54:03
p7703
tp7704
a(g5899
V0.4
p7705
(lp7706
(g244
F0.4
g5899
g7705
tp7707
ag4829
(lp7708
V2016-10-22 05:54:27
p7709
tp7710
a(g5899
V0.4
p7711
(lp7712
(g244
F0.4
g5899
g7711
tp7713
ag4836
(lp7714
V2016-10-22 05:54:27
p7715
tp7716
a(g5899
V0.4
p7717
(lp7718
(g244
F0.4
g5899
g7717
tp7719
ag4843
(lp7720
V2016-10-22 06:05:45
p7721
tp7722
a(g5899
V0.4
p7723
(lp7724
(g244
F0.4
g5899
g7723
tp7725
ag4850
(lp7726
V2016-10-22 06:05:45
p7727
tp7728
a(g5899
V0.4
p7729
(lp7730
(g244
F0.4
g5899
g7729
tp7731
ag4857
(lp7732
V2016-10-22 06:07:07
p7733
tp7734
a(g5899
V0.4
p7735
(lp7736
(g244
F0.4
g5899
g7735
tp7737
ag4864
(lp7738
V2016-10-22 06:07:07
p7739
tp7740
a(g5899
V0.4
p7741
(lp7742
(g244
F0.4
g5899
g7741
tp7743
ag4871
(lp7744
V2016-10-22 06:18:50
p7745
tp7746
a(g5899
V0.4
p7747
(lp7748
(g244
F0.4
g5899
g7747
tp7749
ag4878
(lp7750
V2016-10-22 06:18:50
p7751
tp7752
a(g5899
V0.4
p7753
(lp7754
(g244
F0.4
g5899
g7753
tp7755
ag4885
(lp7756
V2016-10-22 06:19:14
p7757
tp7758
a(g5899
V0.4
p7759
(lp7760
(g244
F0.4
g5899
g7759
tp7761
ag4892
(lp7762
V2016-10-22 06:19:14
p7763
tp7764
a(g5899
V0.4
p7765
(lp7766
(g244
F0.4
g5899
g7765
tp7767
ag1555
(lp7768
V2016-10-22 06:19:38
p7769
tp7770
a(g5906
V.25
p7771
(lp7772
(g244
F0.25
g5906
g7771
tp7773
ag4933
(lp7774
V2016-10-25 17:01:44
p7775
tp7776
a(g5906
V.25
p7777
(lp7778
(g244
F0.25
g5906
g7777
tp7779
ag4940
(lp7780
V2016-10-25 17:01:44
p7781
tp7782
a(g5906
V.25
p7783
(lp7784
(g244
F0.25
g5906
g7783
tp7785
ag4947
(lp7786
V2016-10-25 17:03:17
p7787
tp7788
a(g5906
V.25
p7789
(lp7790
(g244
F0.25
g5906
g7789
tp7791
ag4954
(lp7792
V2016-10-25 17:03:17
p7793
tp7794
a(g5906
V.25
p7795
(lp7796
(g244
F0.25
g5906
g7795
tp7797
ag4961
(lp7798
V2016-10-25 17:06:35
p7799
tp7800
a(g5906
V.25
p7801
(lp7802
(g244
F0.25
g5906
g7801
tp7803
ag4968
(lp7804
V2016-10-25 17:06:35
p7805
tp7806
a(g5906
V.25
p7807
(lp7808
(g244
F0.25
g5906
g7807
tp7809
ag4975
(lp7810
V2016-10-26 04:37:34
p7811
tp7812
a(g5906
V.25
p7813
(lp7814
(g244
F0.25
g5906
g7813
tp7815
ag4982
(lp7816
V2016-10-26 04:37:34
p7817
tp7818
a(g5906
V.25
p7819
(lp7820
(g244
F0.25
g5906
g7819
tp7821
ag1562
(lp7822
V2016-10-26 04:38:05
p7823
tp7824
a(g5906
V.25
p7825
(lp7826
(g244
F0.25
g5906
g7825
tp7827
ag1569
(lp7828
V2016-10-25 03:33:51
p7829
tp7830
a(g5913
V0.35
p7831
(lp7832
(g244
F0.35
g5913
g7831
tp7833
ag5015
(lp7834
V2016-10-28 04:35:26
p7835
tp7836
a(g5913
V0.35
p7837
(lp7838
(g244
F0.35
g5913
g7837
tp7839
ag5022
(lp7840
V2016-10-28 04:35:26
p7841
tp7842
a(g5913
V0.35
p7843
(lp7844
(g244
F0.35
g5913
g7843
tp7845
ag5029
(lp7846
V2016-10-28 04:47:53
p7847
tp7848
a(g5913
V0.35
p7849
(lp7850
(g244
F0.35
g5913
g7849
tp7851
ag5036
(lp7852
V2016-10-28 04:47:53
p7853
tp7854
a(g5913
V0.35
p7855
(lp7856
(g244
F0.35
g5913
g7855
tp7857
ag1576
(lp7858
V2016-10-28 04:48:18
p7859
tp7860
a(g5899
V0.4
p7861
(lp7862
(g244
F0.4
g5899
g7861
tp7863
ag1583
(lp7864
V2016-10-25 21:14:05
p7865
tp7866
a(g5899
V0.4
p7867
(lp7868
(g244
F0.4
g5899
g7867
tp7869
ag1590
(lp7870
V2016-10-26 05:40:26
p7871
tp7872
a(g5899
V0.4
p7873
(lp7874
(g244
F0.4
g5899
g7873
tp7875
ag5089
(lp7876
V2016-10-28 04:54:33
p7877
tp7878
a(g5899
V0.4
p7879
(lp7880
(g244
F0.4
g5899
g7879
tp7881
ag5096
(lp7882
V2016-10-28 04:54:33
p7883
tp7884
a(g5899
V0.4
p7885
(lp7886
(g244
F0.4
g5899
g7885
tp7887
ag1604
(lp7888
V2016-10-28 05:08:11
p7889
tp7890
a(g5899
V0.4
p7891
(lp7892
(g244
F0.4
g5899
g7891
tp7893
ag1611
(lp7894
V2016-10-27 05:32:16
p7895
tp7896
a(g5906
V.25
p7897
(lp7898
(g244
F0.25
g5906
g7897
tp7899
ag5129
(lp7900
V2016-10-27 04:01:24
p7901
tp7902
a(g5906
V.25
p7903
(lp7904
(g244
F0.25
g5906
g7903
tp7905
ag5136
(lp7906
V2016-10-27 04:01:24
p7907
tp7908
a(g5906
V.25
p7909
(lp7910
(g244
F0.25
g5906
g7909
tp7911
ag1618
(lp7912
V2016-10-27 04:02:13
p7913
tp7914
a(g5899
V.40
p7915
(lp7916
(g244
F0.4
g5899
g7915
tp7917
ag1653
(lp7918
V2016-10-27 07:11:55
p7919
tp7920
a(g5899
V.40
p7921
(lp7922
(g244
F0.4
g5899
g7921
tp7923
ag1660
(lp7924
V2016-10-27 07:11:55
p7925
tp7926
a(g5899
V.40
p7927
(lp7928
(g244
F0.4
g5899
g7927
tp7929
ag1667
(lp7930
V2016-10-27 07:12:20
p7931
tp7932
a(g5899
V0.4
p7933
(lp7934
(g244
F0.4
g5899
g7933
tp7935
ag1688
(lp7936
V2016-10-27 23:23:56
p7937
tp7938
a(g21
V0.5
p7939
(lp7940
(g244
F0.5
g21
g7939
tp7941
aS'zow006'
p7942
(lp7943
V2016-10-28 01:13:58
p7944
tp7945
a(g21
V0.5
p7946
(lp7947
(g244
F0.5
g21
g7946
tp7948
aS'zow006'
p7949
(lp7950
V2016-10-28 01:13:58
p7951
tp7952
a(g21
V0.5
p7953
(lp7954
(g244
F0.5
g21
g7953
tp7955
ag1695
(lp7956
V2016-10-28 01:14:43
p7957
tp7958
a(g21
V.5
p7959
(lp7960
(g244
F0.5
g21
g7959
tp7961
ag1702
(lp7962
V2016-10-28 01:03:53
p7963
tp7964
a(g5913
V0.35
p7965
(lp7966
(g244
F0.35
g5913
g7965
tp7967
ag5180
(lp7968
V2016-10-26 23:22:11
p7969
tp7970
a(g5913
V0.35
p7971
(lp7972
(g244
F0.35
g5913
g7971
tp7973
ag5187
(lp7974
V2016-10-26 23:29:52
p7975
tp7976
a(g5913
V0.35
p7977
(lp7978
(g244
F0.35
g5913
g7977
tp7979
ag5194
(lp7980
V2016-10-26 23:38:47
p7981
tp7982
a(g5913
V0.35
p7983
(lp7984
(g244
F0.35
g5913
g7983
tp7985
ag5201
(lp7986
V2016-10-26 23:38:47
p7987
tp7988
a(g5913
V0.35
p7989
(lp7990
(g244
F0.35
g5913
g7989
tp7991
ag5208
(lp7992
V2016-10-26 23:42:08
p7993
tp7994
a(g5913
V0.35
p7995
(lp7996
(g244
F0.35
g5913
g7995
tp7997
ag5215
(lp7998
V2016-10-26 23:42:08
p7999
tp8000
a(g5913
V0.35
p8001
(lp8002
(g244
F0.35
g5913
g8001
tp8003
ag1709
(lp8004
V2016-10-26 23:42:40
p8005
tp8006
a(g5899
V0.4
p8007
(lp8008
(g244
F0.4
g5899
g8007
tp8009
ag1730
(lp8010
V2016-10-28 03:15:34
p8011
tp8012
a(g5899
V0.4
p8013
(lp8014
(g244
F0.4
g5899
g8013
tp8015
ag1737
(lp8016
V2016-10-28 03:15:57
p8017
tp8018
a(g5899
V.4
p8019
(lp8020
(g244
F0.4
g5899
g8019
tp8021
ag1758
(lp8022
V2016-10-28 05:02:13
p8023
tp8024
a(g5899
V0.4
p8025
(lp8026
(g244
F0.4
g5899
g8025
tp8027
ag5240
(lp8028
V2016-10-26 22:12:58
p8029
tp8030
a(g5899
V0.4
p8031
(lp8032
(g244
F0.4
g5899
g8031
tp8033
ag1765
(lp8034
V2016-10-26 22:15:41
p8035
tp8036
a(g21
V0.5
p8037
(lp8038
(g244
F0.5
g21
g8037
tp8039
ag5267
(lp8040
V2016-10-27 07:10:34
p8041
tp8042
a(g21
V.5
p8043
(lp8044
(g244
F0.5
g21
g8043
tp8045
ag1772
(lp8046
V2016-10-27 07:10:58
p8047
tp8048
a(g5906
V0.25
p8049
(lp8050
(g244
F0.25
g5906
g8049
tp8051
aS'a2evans'
p8052
(lp8053
V2016-10-28 03:57:43
p8054
tp8055
a(g5906
V0.25
p8056
(lp8057
(g244
F0.25
g5906
g8056
tp8058
aS'a2evans'
p8059
(lp8060
V2016-10-28 03:57:43
p8061
tp8062
a(g5906
V0.25
p8063
(lp8064
(g244
F0.25
g5906
g8063
tp8065
ag5280
(lp8066
V2016-10-28 03:58:11
p8067
tp8068
a(g5906
V0.25
p8069
(lp8070
(g244
F0.25
g5906
g8069
tp8071
ag5287
(lp8072
V2016-10-28 03:58:11
p8073
tp8074
a(g5906
V0.25
p8075
(lp8076
(g244
F0.25
g5906
g8075
tp8077
ag5294
(lp8078
V2016-10-28 04:07:40
p8079
tp8080
a(g5906
V0.25
p8081
(lp8082
(g244
F0.25
g5906
g8081
tp8083
ag5301
(lp8084
V2016-10-28 04:07:40
p8085
tp8086
a(g5906
V0.25
p8087
(lp8088
(g244
F0.25
g5906
g8087
tp8089
ag5308
(lp8090
V2016-10-28 04:14:04
p8091
tp8092
a(g5906
V0.25
p8093
(lp8094
(g244
F0.25
g5906
g8093
tp8095
ag5315
(lp8096
V2016-10-28 04:14:04
p8097
tp8098
a(g5906
V0.25
p8099
(lp8100
(g244
F0.25
g5906
g8099
tp8101
ag5322
(lp8102
V2016-10-28 04:14:59
p8103
tp8104
a(g5906
V0.25
p8105
(lp8106
(g244
F0.25
g5906
g8105
tp8107
ag5329
(lp8108
V2016-10-28 04:14:59
p8109
tp8110
a(g5906
V0.25
p8111
(lp8112
(g244
F0.25
g5906
g8111
tp8113
ag5336
(lp8114
V2016-10-28 04:15:26
p8115
tp8116
a(g5906
V0.25
p8117
(lp8118
(g244
F0.25
g5906
g8117
tp8119
ag5343
(lp8120
V2016-10-28 04:15:26
p8121
tp8122
a(g5906
V0.25
p8123
(lp8124
(g244
F0.25
g5906
g8123
tp8125
ag5350
(lp8126
V2016-10-28 04:18:08
p8127
tp8128
a(g5906
V0.25
p8129
(lp8130
(g244
F0.25
g5906
g8129
tp8131
ag5357
(lp8132
V2016-10-28 04:18:08
p8133
tp8134
a(g5906
V0.25
p8135
(lp8136
(g244
F0.25
g5906
g8135
tp8137
ag5364
(lp8138
V2016-10-28 04:18:31
p8139
tp8140
a(g5906
V0.25
p8141
(lp8142
(g244
F0.25
g5906
g8141
tp8143
ag5371
(lp8144
V2016-10-28 04:18:31
p8145
tp8146
a(g5906
V0.25
p8147
(lp8148
(g244
F0.25
g5906
g8147
tp8149
ag1779
(lp8150
V2016-10-28 04:19:11
p8151
tp8152
a(g5899
V0.4
p8153
(lp8154
(g244
F0.4
g5899
g8153
tp8155
ag1786
(lp8156
V2016-10-27 17:31:06
p8157
tp8158
a(g5899
V0.4
p8159
(lp8160
(g244
F0.4
g5899
g8159
tp8161
ag1793
(lp8162
V2016-10-27 17:35:06
p8163
tp8164
a(g5913
V0.35
p8165
(lp8166
(g244
F0.35
g5913
g8165
tp8167
ag1807
(lp8168
V2016-10-27 08:26:46
p8169
tp8170
a(g5913
V0.35
p8171
(lp8172
(g244
F0.35
g5913
g8171
tp8173
ag1814
(lp8174
V2016-10-27 14:05:05
p8175
tp8176
a(g21
V0.5
p8177
(lp8178
(g244
F0.5
g21
g8177
tp8179
ag5416
(lp8180
V2016-10-26 23:25:07
p8181
tp8182
a(g21
V0.5
p8183
(lp8184
(g244
F0.5
g21
g8183
tp8185
ag5423
(lp8186
V2016-10-26 23:25:07
p8187
tp8188
a(g21
V0.5
p8189
(lp8190
(g244
F0.5
g21
g8189
tp8191
ag1821
(lp8192
V2016-10-27 21:08:45
p8193
tp8194
a(g5913
V0.35
p8195
(lp8196
(g244
F0.35
g5913
g8195
tp8197
aS'PhillipJo'
p8198
(lp8199
V2016-10-25 07:47:19
p8200
tp8201
a(g5913
V0.35
p8202
(lp8203
(g244
F0.35
g5913
g8202
tp8204
ag5436
(lp8205
V2016-10-25 07:49:46
p8206
tp8207
a(g5913
V0.35
p8208
(lp8209
(g244
F0.35
g5913
g8208
tp8210
ag5443
(lp8211
V2016-10-25 07:50:45
p8212
tp8213
a(g5913
V0.35
p8214
(lp8215
(g244
F0.35
g5913
g8214
tp8216
ag5450
(lp8217
V2016-10-25 07:51:20
p8218
tp8219
a(g5913
V0.35
p8220
(lp8221
(g244
F0.35
g5913
g8220
tp8222
ag1828
(lp8223
V2016-10-25 07:57:06
p8224
tp8225
a(g21
V0.5
p8226
(lp8227
(g244
F0.5
g21
g8226
tp8228
ag1849
(lp8229
V2016-10-28 05:35:00
p8230
tp8231
a(g5899
V0.4
p8232
(lp8233
(g244
F0.4
g5899
g8232
tp8234
ag1856
(lp8235
V2016-10-28 07:00:37
p8236
tp8237
a(g21
V0.5
p8238
(lp8239
(g244
F0.5
g21
g8238
tp8240
ag1863
(lp8241
V2016-10-23 20:01:42
p8242
tp8243
a(g21
V0.5
p8244
(lp8245
(g244
F0.5
g21
g8244
tp8246
ag1870
(lp8247
V2016-10-23 20:02:07
p8248
tp8249
a(g5906
V0.25
p8250
(lp8251
(g244
F0.25
g5906
g8250
tp8252
ag1877
(lp8253
V2016-10-25 20:19:46
p8254
tp8255
a(g5899
V.4
p8256
(lp8257
(g244
F0.4
g5899
g8256
tp8258
ag1884
(lp8259
V2016-10-26 07:04:05
p8260
tp8261
a(g21
V.5
p8262
(lp8263
(g244
F0.5
g21
g8262
tp8264
aS'rdrabik'
p8265
(lp8266
V2016-10-28 03:56:18
p8267
tp8268
a(g21
V.5
p8269
(lp8270
(g244
F0.5
g21
g8269
tp8271
ag1891
(lp8272
V2016-10-28 03:56:43
p8273
tp8274
a(g5899
V.4
p8275
(lp8276
(g244
F0.4
g5899
g8275
tp8277
ag1898
(lp8278
V2016-10-27 06:09:14
p8279
tp8280
a(g5906
V.25
p8281
(lp8282
(g244
F0.25
g5906
g8281
tp8283
ag5500
(lp8284
V2016-10-28 04:40:13
p8285
tp8286
a(g5906
V.25
p8287
(lp8288
(g244
F0.25
g5906
g8287
tp8289
ag1912
(lp8290
V2016-10-28 04:50:50
p8291
tp8292
a(g21
V0.5
p8293
(lp8294
(g244
F0.5
g21
g8293
tp8295
ag5513
(lp8296
V2016-10-26 23:14:56
p8297
tp8298
a(g21
V0.5
p8299
(lp8300
(g244
F0.5
g21
g8299
tp8301
ag5520
(lp8302
V2016-10-26 23:14:56
p8303
tp8304
a(g21
V0.5
p8305
(lp8306
(g244
F0.5
g21
g8305
tp8307
ag5527
(lp8308
V2016-10-26 23:18:14
p8309
tp8310
a(g21
V0.5
p8311
(lp8312
(g244
F0.5
g21
g8311
tp8313
ag5534
(lp8314
V2016-10-26 23:18:14
p8315
tp8316
a(g21
V0.5
p8317
(lp8318
(g244
F0.5
g21
g8317
tp8319
ag1919
(lp8320
V2016-10-26 23:18:39
p8321
tp8322
a(g5913
V.35
p8323
(lp8324
(g244
F0.35
g5913
g8323
tp8325
aS'jjgallaw'
p8326
(lp8327
V2016-10-25 19:50:49
p8328
tp8329
a(g5913
V.35
p8330
(lp8331
(g244
F0.35
g5913
g8330
tp8332
aS'jjgallaw'
p8333
(lp8334
V2016-10-25 19:51:19
p8335
tp8336
a(g5913
V.35
p8337
(lp8338
(g244
F0.35
g5913
g8337
tp8339
ag1926
(lp8340
V2016-10-25 19:51:48
p8341
tp8342
a(g5913
V.35
p8343
(lp8344
(g244
F0.35
g5913
g8343
tp8345
ag1933
(lp8346
V2016-10-24 22:10:18
p8347
tp8348
a(g5913
V.35
p8349
(lp8350
(g244
F0.35
g5913
g8349
tp8351
ag1940
(lp8352
V2016-10-24 22:12:17
p8353
tp8354
a(g5913
V.35
p8355
(lp8356
(g244
F0.35
g5913
g8355
tp8357
ag1947
(lp8358
V2016-10-24 22:16:29
p8359
tp8360
a(g5906
V.25
p8361
(lp8362
(g244
F0.25
g5906
g8361
tp8363
ag1982
(lp8364
V2016-10-28 04:53:00
p8365
tp8366
a(g21
V.5
p8367
(lp8368
(g244
F0.5
g21
g8367
tp8369
ag1989
(lp8370
V2016-10-26 03:31:20
p8371
tp8372
a(g5906
V0.25
p8373
(lp8374
(g244
F0.25
g5906
g8373
tp8375
ag1996
(lp8376
V2016-10-28 03:07:48
p8377
tp8378
a(g5899
V0.4
p8379
(lp8380
(g244
F0.4
g5899
g8379
tp8381
ag5590
(lp8382
V2016-10-26 01:42:21
p8383
tp8384
a(g5899
V0.4
p8385
(lp8386
(g244
F0.4
g5899
g8385
tp8387
ag2003
(lp8388
V2016-10-26 01:44:16
p8389
tp8390
a(g5906
V.25
p8391
(lp8392
(g244
F0.25
g5906
g8391
tp8393
ag2010
(lp8394
V2016-10-28 05:57:18
p8395
tp8396
a(g5899
V0.4
p8397
(lp8398
(g244
F0.4
g5899
g8397
tp8399
ag2024
(lp8400
V2016-10-26 00:38:03
p8401
tp8402
a(g5906
V.25
p8403
(lp8404
(g244
F0.25
g5906
g8403
tp8405
ag2031
(lp8406
V2016-10-28 04:51:43
p8407
tp8408
a(g5913
V0.35
p8409
(lp8410
(g244
F0.35
g5913
g8409
tp8411
ag2038
(lp8412
V2016-10-27 19:28:15
p8413
tp8414
a(g5913
V0.35
p8415
(lp8416
(g244
F0.35
g5913
g8415
tp8417
ag2045
(lp8418
V2016-10-27 19:29:31
p8419
tp8420
a(g5906
V.25
p8421
(lp8422
(g244
F0.25
g5906
g8421
tp8423
ag2052
(lp8424
V2016-10-27 00:10:38
p8425
tp8426
a(g21
V0.5
p8427
(lp8428
(g244
F0.5
g21
g8427
tp8429
ag2059
(lp8430
V2016-10-26 05:56:03
p8431
tp8432
a(g5899
V0.4
p8433
(lp8434
(g244
F0.4
g5899
g8433
tp8435
ag2073
(lp8436
V2016-10-27 00:18:05
p8437
tp8438
a(g21
V0.5
p8439
(lp8440
(g244
F0.5
g21
g8439
tp8441
ag5645
(lp8442
V2016-10-27 17:31:20
p8443
tp8444
a(g21
V0.5
p8445
(lp8446
(g244
F0.5
g21
g8445
tp8447
ag2080
(lp8448
V2016-10-27 18:22:04
p8449
tp8450
a(g5899
V.4
p8451
(lp8452
(g244
F0.4
g5899
g8451
tp8453
ag2087
(lp8454
V2016-10-28 03:55:25
p8455
tp8456
a(g5913
V0.35
p8457
(lp8458
(g244
F0.35
g5913
g8457
tp8459
ag2101
(lp8460
V2016-10-27 06:41:33
p8461
tp8462
a(g5906
V.25
p8463
(lp8464
(g244
F0.25
g5906
g8463
tp8465
ag2108
(lp8466
V2016-10-27 18:32:36
p8467
tp8468
a(g5906
V.25
p8469
(lp8470
(g244
F0.25
g5906
g8469
tp8471
ag5745
(lp8472
V2016-10-28 06:56:15
p8473
tp8474
a(g5906
V.25
p8475
(lp8476
(g244
F0.25
g5906
g8475
tp8477
ag5752
(lp8478
V2016-10-28 06:56:15
p8479
tp8480
a(g5906
V.25
p8481
(lp8482
(g244
F0.25
g5906
g8481
tp8483
ag5759
(lp8484
V2016-10-28 06:58:06
p8485
tp8486
a(g5906
V.25
p8487
(lp8488
(g244
F0.25
g5906
g8487
tp8489
ag5766
(lp8490
V2016-10-28 06:58:06
p8491
tp8492
a(g5906
V.25
p8493
(lp8494
(g244
F0.25
g5906
g8493
tp8495
ag2115
(lp8496
V2016-10-28 06:58:30
p8497
tp8498
a(g5906
V0.25
p8499
(lp8500
(g244
F0.25
g5906
g8499
tp8501
ag2248
(lp8502
V2016-10-27 20:50:18
p8503
tp8504
assS'4'
p8505
g2
(g3
tp8506
Rp8507
g6
(lp8508
(g21
V1
p8509
tp8510
a(S'0.65'
p8511
V1
p8512
tp8513
a(g8511
V1
p8514
tp8515
a(g8511
V1
p8516
tp8517
a(g8511
V1
p8518
tp8519
a(g8511
V1
p8520
tp8521
a(g8511
V1
p8522
tp8523
a(g8511
V1
p8524
tp8525
a(g8511
V1
p8526
tp8527
a(g8511
V1
p8528
tp8529
a(g8511
V1
p8530
tp8531
a(g8511
V1
p8532
tp8533
a(g8511
V1
p8534
tp8535
a(S'0.6'
p8536
V1
p8537
tp8538
a(g8536
V1
p8539
tp8540
a(g8511
V1
p8541
tp8542
a(g21
V0
p8543
tp8544
a(g8536
V0
p8545
tp8546
a(g8536
V0
p8547
tp8548
a(g8536
V0
p8549
tp8550
a(S'0.75'
p8551
V0
p8552
tp8553
a(g8536
V1
p8554
tp8555
a(g8551
V1
p8556
tp8557
a(g8551
V1
p8558
tp8559
a(g8551
V1
p8560
tp8561
a(g8511
V1
p8562
tp8563
asg198
(lp8564
(g8511
V-.5
p8565
tp8566
asS"['R']"
p8567
(lp8568
(g8536
V.6
p8569
(lp8570
(g244
F0.6
g8536
g8569
tp8571
ag295
(lp8572
V2016-10-27 04:08:20
p8573
tp8574
a(g21
V0.5
p8575
(lp8576
(g244
F0.5
g21
g8575
tp8577
ag309
(lp8578
V2016-10-27 17:33:11
p8579
tp8580
a(g21
V0.5
p8581
(lp8582
(g244
F0.5
g21
g8581
tp8583
ag316
(lp8584
V2016-10-27 17:33:53
p8585
tp8586
a(g21
V.5
p8587
(lp8588
(g244
F0.5
g21
g8587
tp8589
ag5950
(lp8590
V2016-10-24 17:39:56
p8591
tp8592
a(g21
V.5
p8593
(lp8594
(g244
F0.5
g21
g8593
tp8595
ag5957
(lp8596
V2016-10-24 17:44:34
p8597
tp8598
a(g8551
V0.75
p8599
(lp8600
(g244
F0.75
g8551
g8599
tp8601
ag337
(lp8602
V2016-10-27 18:46:09
p8603
tp8604
a(g8551
V0.75
p8605
(lp8606
(g244
F0.75
g8551
g8605
tp8607
ag344
(lp8608
V2016-10-27 18:46:55
p8609
tp8610
a(g8536
V.6
p8611
(lp8612
(g244
F0.6
g8536
g8611
tp8613
ag351
(lp8614
V2016-10-26 05:18:02
p8615
tp8616
a(g8511
V.65
p8617
(lp8618
(g244
F0.65
g8511
g8617
tp8619
ag2712
(lp8620
V2016-10-28 04:21:57
p8621
tp8622
a(g8511
V.65
p8623
(lp8624
(g244
F0.65
g8511
g8623
tp8625
ag2719
(lp8626
V2016-10-28 04:29:57
p8627
tp8628
a(g8511
V0.65
p8629
(lp8630
(g244
F0.65
g8511
g8629
tp8631
ag386
(lp8632
V2016-10-26 22:24:20
p8633
tp8634
a(g21
V0.5
p8635
(lp8636
(g244
F0.5
g21
g8635
tp8637
ag393
(lp8638
V2016-10-28 01:17:35
p8639
tp8640
a(g8536
V0.6
p8641
(lp8642
(g244
F0.6
g8536
g8641
tp8643
ag2854
(lp8644
V2016-10-28 02:14:30
p8645
tp8646
a(g8536
V0.6
p8647
(lp8648
(g244
F0.6
g8536
g8647
tp8649
ag400
(lp8650
V2016-10-28 04:31:53
p8651
tp8652
a(g8551
V.75
p8653
(lp8654
(g244
F0.75
g8551
g8653
tp8655
ag2867
(lp8656
V2016-10-28 04:15:00
p8657
tp8658
a(g8551
V.75
p8659
(lp8660
(g244
F0.75
g8551
g8659
tp8661
ag2874
(lp8662
V2016-10-28 04:16:39
p8663
tp8664
a(g8551
V.75
p8665
(lp8666
(g244
F0.75
g8551
g8665
tp8667
ag2881
(lp8668
V2016-10-28 04:20:46
p8669
tp8670
a(g8551
V.75
p8671
(lp8672
(g244
F0.75
g8551
g8671
tp8673
ag407
(lp8674
V2016-10-28 04:22:25
p8675
tp8676
a(g8551
V0.75
p8677
(lp8678
(g244
F0.75
g8551
g8677
tp8679
ag414
(lp8680
V2016-10-25 19:39:57
p8681
tp8682
a(g8551
V0.75
p8683
(lp8684
(g244
F0.75
g8551
g8683
tp8685
ag421
(lp8686
V2016-10-26 23:34:14
p8687
tp8688
a(g8511
V0.65
p8689
(lp8690
(g244
F0.65
g8511
g8689
tp8691
ag428
(lp8692
V2016-10-27 21:14:12
p8693
tp8694
a(g21
V0.5
p8695
(lp8696
(g244
F0.5
g21
g8695
tp8697
ag435
(lp8698
V2016-10-27 20:43:41
p8699
tp8700
a(g8536
V0.6
p8701
(lp8702
(g244
F0.6
g8536
g8701
tp8703
ag442
(lp8704
V2016-10-26 19:56:45
p8705
tp8706
a(g21
V0.5
p8707
(lp8708
(g244
F0.5
g21
g8707
tp8709
ag463
(lp8710
V2016-10-27 18:27:11
p8711
tp8712
a(g21
V0.5
p8713
(lp8714
(g244
F0.5
g21
g8713
tp8715
ag498
(lp8716
V2016-10-25 04:03:37
p8717
tp8718
a(g8536
V0.6
p8719
(lp8720
(g244
F0.6
g8536
g8719
tp8721
ag505
(lp8722
V2016-10-26 03:56:12
p8723
tp8724
a(g21
V.5
p8725
(lp8726
(g244
F0.5
g21
g8725
tp8727
ag2930
(lp8728
V2016-10-26 00:35:20
p8729
tp8730
a(g21
V.5
p8731
(lp8732
(g244
F0.5
g21
g8731
tp8733
ag2937
(lp8734
V2016-10-26 00:35:20
p8735
tp8736
a(g21
V.5
p8737
(lp8738
(g244
F0.5
g21
g8737
tp8739
ag2944
(lp8740
V2016-10-26 00:35:44
p8741
tp8742
a(g21
V.5
p8743
(lp8744
(g244
F0.5
g21
g8743
tp8745
ag2951
(lp8746
V2016-10-26 00:35:44
p8747
tp8748
a(g21
V.5
p8749
(lp8750
(g244
F0.5
g21
g8749
tp8751
ag512
(lp8752
V2016-10-26 00:36:59
p8753
tp8754
a(g21
V0.5
p8755
(lp8756
(g244
F0.5
g21
g8755
tp8757
ag6198
(lp8758
V2016-10-27 03:44:07
p8759
tp8760
a(g21
V0.5
p8761
(lp8762
(g244
F0.5
g21
g8761
tp8763
ag6205
(lp8764
V2016-10-27 19:22:29
p8765
tp8766
a(g21
V0.5
p8767
(lp8768
(g244
F0.5
g21
g8767
tp8769
ag6212
(lp8770
V2016-10-27 19:33:12
p8771
tp8772
a(g21
V0.5
p8773
(lp8774
(g244
F0.5
g21
g8773
tp8775
ag6219
(lp8776
V2016-10-27 19:33:12
p8777
tp8778
a(g21
V0.5
p8779
(lp8780
(g244
F0.5
g21
g8779
tp8781
ag6226
(lp8782
V2016-10-27 19:34:01
p8783
tp8784
a(g21
V0.5
p8785
(lp8786
(g244
F0.5
g21
g8785
tp8787
ag6233
(lp8788
V2016-10-27 19:34:01
p8789
tp8790
a(g21
V0.5
p8791
(lp8792
(g244
F0.5
g21
g8791
tp8793
ag519
(lp8794
V2016-10-27 20:31:32
p8795
tp8796
a(g21
V0.5
p8797
(lp8798
(g244
F0.5
g21
g8797
tp8799
ag526
(lp8800
V2016-10-27 09:00:16
p8801
tp8802
a(g8536
V(0.97-0.37)
p8803
(lp8804
(g244
F0.6
g8536
V0.97-0.37
p8805
tp8806
ag547
(lp8807
V2016-10-28 06:23:52
p8808
tp8809
a(g8511
V0.65
p8810
(lp8811
(g244
F0.65
g8511
g8810
tp8812
ag554
(lp8813
V2016-10-27 07:51:54
p8814
tp8815
a(g8536
V.6
p8816
(lp8817
(g244
F0.6
g8536
g8816
tp8818
ag603
(lp8819
V2016-10-27 02:03:31
p8820
tp8821
a(g8511
V.65
p8822
(lp8823
(g244
F0.65
g8511
g8822
tp8824
ag610
(lp8825
V2016-10-21 22:47:30
p8826
tp8827
a(g8536
V.6
p8828
(lp8829
(g244
F0.6
g8536
g8828
tp8830
ag3042
(lp8831
V2016-10-27 07:06:28
p8832
tp8833
a(g8536
V.6
p8834
(lp8835
(g244
F0.6
g8536
g8834
tp8836
ag3049
(lp8837
V2016-10-27 07:06:28
p8838
tp8839
a(g8536
V.6
p8840
(lp8841
(g244
F0.6
g8536
g8840
tp8842
ag3056
(lp8843
V2016-10-27 07:07:44
p8844
tp8845
a(g8536
V.6
p8846
(lp8847
(g244
F0.6
g8536
g8846
tp8848
ag3063
(lp8849
V2016-10-27 07:07:44
p8850
tp8851
a(g8536
V.6
p8852
(lp8853
(g244
F0.6
g8536
g8852
tp8854
ag3070
(lp8855
V2016-10-27 07:08:17
p8856
tp8857
a(g8536
V.6
p8858
(lp8859
(g244
F0.6
g8536
g8858
tp8860
ag3077
(lp8861
V2016-10-27 07:08:17
p8862
tp8863
a(g8536
V.6
p8864
(lp8865
(g244
F0.6
g8536
g8864
tp8866
ag617
(lp8867
V2016-10-27 07:08:46
p8868
tp8869
a(g8551
V0.75
p8870
(lp8871
(g244
F0.75
g8551
g8870
tp8872
ag3097
(lp8873
V2016-10-26 20:34:27
p8874
tp8875
a(g8551
V0.75
p8876
(lp8877
(g244
F0.75
g8551
g8876
tp8878
ag624
(lp8879
V2016-10-26 20:35:04
p8880
tp8881
a(g21
V0.5
p8882
(lp8883
(g244
F0.5
g21
g8882
tp8884
ag3110
(lp8885
V2016-10-25 08:43:46
p8886
tp8887
a(g21
V0.5
p8888
(lp8889
(g244
F0.5
g21
g8888
tp8890
ag631
(lp8891
V2016-10-25 08:44:35
p8892
tp8893
a(g8536
V0.6
p8894
(lp8895
(g244
F0.6
g8536
g8894
tp8896
ag6342
(lp8897
V2016-10-28 00:42:47
p8898
tp8899
a(g8536
V0.6
p8900
(lp8901
(g244
F0.6
g8536
g8900
tp8902
ag638
(lp8903
V2016-10-28 00:44:18
p8904
tp8905
a(g8551
V0.75
p8906
(lp8907
(g244
F0.75
g8551
g8906
tp8908
ag3129
(lp8909
V2016-10-26 23:27:09
p8910
tp8911
a(g8551
V0.75
p8912
(lp8913
(g244
F0.75
g8551
g8912
tp8914
ag3136
(lp8915
V2016-10-26 23:27:09
p8916
tp8917
a(g8551
V0.75
p8918
(lp8919
(g244
F0.75
g8551
g8918
tp8920
ag645
(lp8921
V2016-10-26 23:27:53
p8922
tp8923
a(g8551
V0.75
p8924
(lp8925
(g244
F0.75
g8551
g8924
tp8926
ag6373
(lp8927
V2016-10-28 05:55:50
p8928
tp8929
a(g8551
V0.75
p8930
(lp8931
(g244
F0.75
g8551
g8930
tp8932
ag6380
(lp8933
V2016-10-28 05:55:50
p8934
tp8935
a(g8551
V0.75
p8936
(lp8937
(g244
F0.75
g8551
g8936
tp8938
ag652
(lp8939
V2016-10-28 05:57:35
p8940
tp8941
a(g21
V0.5
p8942
(lp8943
(g244
F0.5
g21
g8942
tp8944
ag6393
(lp8945
V2016-10-28 06:54:08
p8946
tp8947
a(g21
V0.5
p8948
(lp8949
(g244
F0.5
g21
g8948
tp8950
ag6400
(lp8951
V2016-10-28 06:54:08
p8952
tp8953
a(g21
V0.5
p8954
(lp8955
(g244
F0.5
g21
g8954
tp8956
ag6407
(lp8957
V2016-10-28 06:56:43
p8958
tp8959
a(g21
V0.5
p8960
(lp8961
(g244
F0.5
g21
g8960
tp8962
ag6414
(lp8963
V2016-10-28 06:56:43
p8964
tp8965
a(g21
V0.5
p8966
(lp8967
(g244
F0.5
g21
g8966
tp8968
ag659
(lp8969
V2016-10-28 06:57:09
p8970
tp8971
a(g21
V0.5
p8972
(lp8973
(g244
F0.5
g21
g8972
tp8974
ag3155
(lp8975
V2016-10-26 22:28:22
p8976
tp8977
a(g21
V0.5
p8978
(lp8979
(g244
F0.5
g21
g8978
tp8980
ag3162
(lp8981
V2016-10-26 22:28:22
p8982
tp8983
a(g21
V0.5
p8984
(lp8985
(g244
F0.5
g21
g8984
tp8986
ag3169
(lp8987
V2016-10-26 22:30:20
p8988
tp8989
a(g21
V0.5
p8990
(lp8991
(g244
F0.5
g21
g8990
tp8992
ag3176
(lp8993
V2016-10-26 22:30:20
p8994
tp8995
a(g21
V0.5
p8996
(lp8997
(g244
F0.5
g21
g8996
tp8998
ag3183
(lp8999
V2016-10-26 22:30:43
p9000
tp9001
a(g21
V0.5
p9002
(lp9003
(g244
F0.5
g21
g9002
tp9004
ag3190
(lp9005
V2016-10-26 22:30:43
p9006
tp9007
a(g21
V0.5
p9008
(lp9009
(g244
F0.5
g21
g9008
tp9010
ag666
(lp9011
V2016-10-26 22:31:08
p9012
tp9013
a(g8551
V0.75
p9014
(lp9015
(g244
F0.75
g8551
g9014
tp9016
ag3203
(lp9017
V2016-10-23 23:43:34
p9018
tp9019
a(g8536
V0.6
p9020
(lp9021
(g244
F0.6
g8536
g9020
tp9022
ag3210
(lp9023
V2016-10-26 04:16:00
p9024
tp9025
a(g8536
V0.6
p9026
(lp9027
(g244
F0.6
g8536
g9026
tp9028
ag3217
(lp9029
V2016-10-26 04:16:00
p9030
tp9031
a(g8536
V0.6
p9032
(lp9033
(g244
F0.6
g8536
g9032
tp9034
ag3224
(lp9035
V2016-10-26 04:17:27
p9036
tp9037
a(g8536
V0.6
p9038
(lp9039
(g244
F0.6
g8536
g9038
tp9040
ag3231
(lp9041
V2016-10-26 04:17:27
p9042
tp9043
a(g8536
V0.6
p9044
(lp9045
(g244
F0.6
g8536
g9044
tp9046
ag3238
(lp9047
V2016-10-26 04:23:58
p9048
tp9049
a(g8536
V0.6
p9050
(lp9051
(g244
F0.6
g8536
g9050
tp9052
ag3245
(lp9053
V2016-10-26 04:25:52
p9054
tp9055
a(g8536
V0.6
p9056
(lp9057
(g244
F0.6
g8536
g9056
tp9058
ag3252
(lp9059
V2016-10-26 04:25:52
p9060
tp9061
a(g8536
V0.6
p9062
(lp9063
(g244
F0.6
g8536
g9062
tp9064
ag3259
(lp9065
V2016-10-26 21:21:46
p9066
tp9067
a(g8536
V0.6
p9068
(lp9069
(g244
F0.6
g8536
g9068
tp9070
ag3266
(lp9071
V2016-10-26 21:21:46
p9072
tp9073
a(g8536
V0.6
p9074
(lp9075
(g244
F0.6
g8536
g9074
tp9076
ag3273
(lp9077
V2016-10-27 21:37:47
p9078
tp9079
a(g8536
V0.6
p9080
(lp9081
(g244
F0.6
g8536
g9080
tp9082
ag3280
(lp9083
V2016-10-27 21:37:47
p9084
tp9085
a(g8536
V0.6
p9086
(lp9087
(g244
F0.6
g8536
g9086
tp9088
ag3287
(lp9089
V2016-10-27 21:50:08
p9090
tp9091
a(g8536
V0.6
p9092
(lp9093
(g244
F0.6
g8536
g9092
tp9094
ag3294
(lp9095
V2016-10-27 21:50:08
p9096
tp9097
a(g8536
V0.6
p9098
(lp9099
(g244
F0.6
g8536
g9098
tp9100
ag673
(lp9101
V2016-10-27 21:50:31
p9102
tp9103
a(g8511
V0.65
p9104
(lp9105
(g244
F0.65
g8511
g9104
tp9106
ag680
(lp9107
V2016-10-26 16:17:06
p9108
tp9109
a(g8511
V0.65
p9110
(lp9111
(g244
F0.65
g8511
g9110
tp9112
ag687
(lp9113
V2016-10-28 00:59:36
p9114
tp9115
a(g8536
V0.6
p9116
(lp9117
(g244
F0.6
g8536
g9116
tp9118
ag3361
(lp9119
V2016-10-27 01:41:46
p9120
tp9121
a(g8536
V0.6
p9122
(lp9123
(g244
F0.6
g8536
g9122
tp9124
ag3368
(lp9125
V2016-10-27 01:41:46
p9126
tp9127
a(g8536
V0.6
p9128
(lp9129
(g244
F0.6
g8536
g9128
tp9130
ag3375
(lp9131
V2016-10-27 01:50:41
p9132
tp9133
a(g8536
V0.6
p9134
(lp9135
(g244
F0.6
g8536
g9134
tp9136
ag3382
(lp9137
V2016-10-27 01:50:41
p9138
tp9139
a(g8536
V0.6
p9140
(lp9141
(g244
F0.6
g8536
g9140
tp9142
ag3389
(lp9143
V2016-10-27 01:54:48
p9144
tp9145
a(g8536
V0.6
p9146
(lp9147
(g244
F0.6
g8536
g9146
tp9148
ag3396
(lp9149
V2016-10-27 01:54:48
p9150
tp9151
a(g8536
V0.6
p9152
(lp9153
(g244
F0.6
g8536
g9152
tp9154
ag3403
(lp9155
V2016-10-27 02:04:37
p9156
tp9157
a(g8536
V0.6
p9158
(lp9159
(g244
F0.6
g8536
g9158
tp9160
ag3410
(lp9161
V2016-10-27 02:04:37
p9162
tp9163
a(g8536
V0.6
p9164
(lp9165
(g244
F0.6
g8536
g9164
tp9166
ag3417
(lp9167
V2016-10-27 02:18:30
p9168
tp9169
a(g8536
V0.6
p9170
(lp9171
(g244
F0.6
g8536
g9170
tp9172
ag3424
(lp9173
V2016-10-27 02:18:30
p9174
tp9175
a(g8536
V0.6
p9176
(lp9177
(g244
F0.6
g8536
g9176
tp9178
ag3431
(lp9179
V2016-10-27 02:22:04
p9180
tp9181
a(g8536
V0.6
p9182
(lp9183
(g244
F0.6
g8536
g9182
tp9184
ag3438
(lp9185
V2016-10-27 02:22:04
p9186
tp9187
a(g8536
V0.6
p9188
(lp9189
(g244
F0.6
g8536
g9188
tp9190
ag694
(lp9191
V2016-10-27 02:22:54
p9192
tp9193
a(g8551
V0.75
p9194
(lp9195
(g244
F0.75
g8551
g9194
tp9196
ag701
(lp9197
V2016-10-27 04:11:48
p9198
tp9199
a(g8536
V0.6
p9200
(lp9201
(g244
F0.6
g8536
g9200
tp9202
ag3457
(lp9203
V2016-10-26 00:26:30
p9204
tp9205
a(g8536
V0.6
p9206
(lp9207
(g244
F0.6
g8536
g9206
tp9208
ag3464
(lp9209
V2016-10-26 00:28:35
p9210
tp9211
a(g8536
V0.6
p9212
(lp9213
(g244
F0.6
g8536
g9212
tp9214
ag708
(lp9215
V2016-10-26 00:28:59
p9216
tp9217
a(g8511
V1-.35
p9218
(lp9219
(g244
F0.65
g8511
g9218
tp9220
aS'JonahCruz'
p9221
(lp9222
V2016-10-25 06:01:15
p9223
tp9224
a(g8511
V1-.35
p9225
(lp9226
(g244
F0.65
g8511
g9225
tp9227
ag722
(lp9228
V2016-10-25 06:01:48
p9229
tp9230
a(g8551
V.75
p9231
(lp9232
(g244
F0.75
g8551
g9231
tp9233
ag764
(lp9234
V2016-10-28 00:16:05
p9235
tp9236
a(g8551
V.75
p9237
(lp9238
(g244
F0.75
g8551
g9237
tp9239
ag771
(lp9240
V2016-10-28 00:16:05
p9241
tp9242
a(g8551
V.75
p9243
(lp9244
(g244
F0.75
g8551
g9243
tp9245
ag778
(lp9246
V2016-10-28 00:16:40
p9247
tp9248
a(g8551
V.91-.16
p9249
(lp9250
(g244
F0.75
g8551
g9249
tp9251
ag792
(lp9252
V2016-10-27 17:47:50
p9253
tp9254
a(g21
V.5
p9255
(lp9256
(g244
F0.5
g21
g9255
tp9257
ag799
(lp9258
V2016-10-28 05:11:37
p9259
tp9260
a(g8551
V.75
p9261
(lp9262
(g244
F0.75
g8551
g9261
tp9263
ag813
(lp9264
V2016-10-27 06:32:45
p9265
tp9266
a(g8511
V.65
p9267
(lp9268
(g244
F0.65
g8511
g9267
tp9269
ag820
(lp9270
V2016-10-25 23:16:29
p9271
tp9272
a(g8551
V0.75
p9273
(lp9274
(g244
F0.75
g8551
g9273
tp9275
ag3605
(lp9276
V2016-10-28 00:23:41
p9277
tp9278
a(g8551
V0.75
p9279
(lp9280
(g244
F0.75
g8551
g9279
tp9281
ag3612
(lp9282
V2016-10-28 00:23:41
p9283
tp9284
a(g8551
V0.75
p9285
(lp9286
(g244
F0.75
g8551
g9285
tp9287
ag3619
(lp9288
V2016-10-28 00:33:46
p9289
tp9290
a(g8551
V0.75
p9291
(lp9292
(g244
F0.75
g8551
g9291
tp9293
ag3626
(lp9294
V2016-10-28 00:33:46
p9295
tp9296
a(g8551
V0.75
p9297
(lp9298
(g244
F0.75
g8551
g9297
tp9299
ag3633
(lp9300
V2016-10-28 00:34:54
p9301
tp9302
a(g8551
V0.75
p9303
(lp9304
(g244
F0.75
g8551
g9303
tp9305
ag3640
(lp9306
V2016-10-28 00:34:54
p9307
tp9308
a(g8551
V0.75
p9309
(lp9310
(g244
F0.75
g8551
g9309
tp9311
ag3647
(lp9312
V2016-10-28 00:35:18
p9313
tp9314
a(g8551
V0.75
p9315
(lp9316
(g244
F0.75
g8551
g9315
tp9317
ag3654
(lp9318
V2016-10-28 00:35:18
p9319
tp9320
a(g8551
V0.75
p9321
(lp9322
(g244
F0.75
g8551
g9321
tp9323
ag3661
(lp9324
V2016-10-28 00:37:33
p9325
tp9326
a(g8551
V0.75
p9327
(lp9328
(g244
F0.75
g8551
g9327
tp9329
ag3668
(lp9330
V2016-10-28 00:37:33
p9331
tp9332
a(g8551
V0.75
p9333
(lp9334
(g244
F0.75
g8551
g9333
tp9335
ag827
(lp9336
V2016-10-28 00:53:44
p9337
tp9338
a(g8511
V0.65
p9339
(lp9340
(g244
F0.65
g8511
g9339
tp9341
ag834
(lp9342
V2016-10-26 00:46:50
p9343
tp9344
a(g8551
V.75
p9345
(lp9346
(g244
F0.75
g8551
g9345
tp9347
ag3687
(lp9348
V2016-10-28 02:00:43
p9349
tp9350
a(g8551
V.75
p9351
(lp9352
(g244
F0.75
g8551
g9351
tp9353
ag3694
(lp9354
V2016-10-28 02:00:43
p9355
tp9356
a(g8551
V.75
p9357
(lp9358
(g244
F0.75
g8551
g9357
tp9359
ag3701
(lp9360
V2016-10-28 02:53:30
p9361
tp9362
a(g8551
V.75
p9363
(lp9364
(g244
F0.75
g8551
g9363
tp9365
ag3708
(lp9366
V2016-10-28 02:53:30
p9367
tp9368
a(g8551
V.75
p9369
(lp9370
(g244
F0.75
g8551
g9369
tp9371
ag841
(lp9372
V2016-10-28 02:53:54
p9373
tp9374
a(g8511
V.65
p9375
(lp9376
(g244
F0.65
g8511
g9375
tp9377
ag862
(lp9378
V2016-10-28 04:19:14
p9379
tp9380
a(g8551
V.75
p9381
(lp9382
(g244
F0.75
g8551
g9381
tp9383
ag869
(lp9384
V2016-10-28 04:22:03
p9385
tp9386
a(g8536
V0.6
p9387
(lp9388
(g244
F0.6
g8536
g9387
tp9389
ag876
(lp9390
V2016-10-26 21:43:45
p9391
tp9392
a(g8511
V0.65
p9393
(lp9394
(g244
F0.65
g8511
g9393
tp9395
ag897
(lp9396
V2016-10-25 01:02:31
p9397
tp9398
a(g8536
V0.6
p9399
(lp9400
(g244
F0.6
g8536
g9399
tp9401
ag918
(lp9402
V2016-10-26 03:43:22
p9403
tp9404
a(g8551
V0.75
p9405
(lp9406
(g244
F0.75
g8551
g9405
tp9407
ag946
(lp9408
V2016-10-27 21:29:43
p9409
tp9410
a(g8536
V0.6
p9411
(lp9412
(g244
F0.6
g8536
g9411
tp9413
ag953
(lp9414
V2016-10-27 03:23:35
p9415
tp9416
a(g21
V0.5
p9417
(lp9418
(g244
F0.5
g21
g9417
tp9419
ag6865
(lp9420
V2016-10-27 06:30:09
p9421
tp9422
a(g21
V0.5
p9423
(lp9424
(g244
F0.5
g21
g9423
tp9425
ag6872
(lp9426
V2016-10-27 06:41:19
p9427
tp9428
a(g21
V0.5
p9429
(lp9430
(g244
F0.5
g21
g9429
tp9431
ag6879
(lp9432
V2016-10-27 06:47:25
p9433
tp9434
a(g21
V0.5
p9435
(lp9436
(g244
F0.5
g21
g9435
tp9437
ag6886
(lp9438
V2016-10-27 06:48:20
p9439
tp9440
a(g21
V0.5
p9441
(lp9442
(g244
F0.5
g21
g9441
tp9443
ag6893
(lp9444
V2016-10-27 06:49:58
p9445
tp9446
a(g8551
V0.75
p9447
(lp9448
(g244
F0.75
g8551
g9447
tp9449
ag3848
(lp9450
V2016-10-26 01:18:55
p9451
tp9452
a(g8551
V0.75
p9453
(lp9454
(g244
F0.75
g8551
g9453
tp9455
ag3855
(lp9456
V2016-10-26 01:20:12
p9457
tp9458
a(g8551
V0.75
p9459
(lp9460
(g244
F0.75
g8551
g9459
tp9461
ag960
(lp9462
V2016-10-26 01:21:07
p9463
tp9464
a(g21
V0.5
p9465
(lp9466
(g244
F0.5
g21
g9465
tp9467
ag967
(lp9468
V2016-10-25 19:32:23
p9469
tp9470
a(g8551
V0.75
p9471
(lp9472
(g244
F0.75
g8551
g9471
tp9473
ag974
(lp9474
V2016-10-27 21:25:51
p9475
tp9476
a(g21
V0.5
p9477
(lp9478
(g244
F0.5
g21
g9477
tp9479
ag6930
(lp9480
V2016-10-27 20:52:37
p9481
tp9482
a(g21
V0.5
p9483
(lp9484
(g244
F0.5
g21
g9483
tp9485
ag6937
(lp9486
V2016-10-27 20:57:01
p9487
tp9488
a(g21
V0.5
p9489
(lp9490
(g244
F0.5
g21
g9489
tp9491
ag6944
(lp9492
V2016-10-27 20:59:05
p9493
tp9494
a(g21
V0.5
p9495
(lp9496
(g244
F0.5
g21
g9495
tp9497
ag981
(lp9498
V2016-10-27 20:59:30
p9499
tp9500
a(g8536
V0.6
p9501
(lp9502
(g244
F0.6
g8536
g9501
tp9503
ag988
(lp9504
V2016-10-25 17:05:06
p9505
tp9506
a(g8536
V0.6
p9507
(lp9508
(g244
F0.6
g8536
g9507
tp9509
ag3880
(lp9510
V2016-10-27 06:24:32
p9511
tp9512
a(g8536
V0.6
p9513
(lp9514
(g244
F0.6
g8536
g9513
tp9515
ag3887
(lp9516
V2016-10-27 06:26:11
p9517
tp9518
a(g8536
V0.6
p9519
(lp9520
(g244
F0.6
g8536
g9519
tp9521
ag3894
(lp9522
V2016-10-27 06:27:32
p9523
tp9524
a(g8536
V0.6
p9525
(lp9526
(g244
F0.6
g8536
g9525
tp9527
ag3901
(lp9528
V2016-10-27 06:28:04
p9529
tp9530
a(g8536
V0.6
p9531
(lp9532
(g244
F0.6
g8536
g9531
tp9533
ag3908
(lp9534
V2016-10-27 06:33:31
p9535
tp9536
a(g8536
V0.6
p9537
(lp9538
(g244
F0.6
g8536
g9537
tp9539
ag1002
(lp9540
V2016-10-27 06:42:59
p9541
tp9542
a(g8551
V0.75
p9543
(lp9544
(g244
F0.75
g8551
g9543
tp9545
ag1009
(lp9546
V2016-10-27 19:28:53
p9547
tp9548
a(g8536
V0.6
p9549
(lp9550
(g244
F0.6
g8536
g9549
tp9551
ag1030
(lp9552
V2016-10-27 00:36:57
p9553
tp9554
a(g8551
V.91 - .16
p9555
(lp9556
(g244
F0.75
g8551
g9555
tp9557
ag1037
(lp9558
V2016-10-24 09:05:48
p9559
tp9560
a(g8551
V0.75
p9561
(lp9562
(g244
F0.75
g8551
g9561
tp9563
ag3972
(lp9564
V2016-10-27 10:13:31
p9565
tp9566
a(g8551
V0.75
p9567
(lp9568
(g244
F0.75
g8551
g9567
tp9569
ag3979
(lp9570
V2016-10-27 10:14:53
p9571
tp9572
a(g8551
V0.75
p9573
(lp9574
(g244
F0.75
g8551
g9573
tp9575
ag1044
(lp9576
V2016-10-27 10:15:17
p9577
tp9578
a(g8536
V0.6
p9579
(lp9580
(g244
F0.6
g8536
g9579
tp9581
ag1051
(lp9582
V2016-10-28 04:56:09
p9583
tp9584
a(g8536
V.6
p9585
(lp9586
(g244
F0.6
g8536
g9585
tp9587
ag1058
(lp9588
V2016-10-27 01:44:58
p9589
tp9590
a(g8536
V0.60
p9591
(lp9592
(g244
F0.6
g8536
V0.6
p9593
tp9594
ag4004
(lp9595
V2016-10-25 22:10:58
p9596
tp9597
a(g8536
V0.60
p9598
(lp9599
(g244
F0.6
g8536
V0.6
p9600
tp9601
ag4011
(lp9602
V2016-10-25 22:13:46
p9603
tp9604
a(g8536
V0.60
p9605
(lp9606
(g244
F0.6
g8536
V0.6
p9607
tp9608
ag4018
(lp9609
V2016-10-25 22:14:17
p9610
tp9611
a(g8536
V0.60
p9612
(lp9613
(g244
F0.6
g8536
V0.6
p9614
tp9615
ag4025
(lp9616
V2016-10-25 22:14:17
p9617
tp9618
a(g8536
V0.60
p9619
(lp9620
(g244
F0.6
g8536
V0.6
p9621
tp9622
ag1065
(lp9623
V2016-10-25 22:15:00
p9624
tp9625
a(g8536
V0.6
p9626
(lp9627
(g244
F0.6
g8536
g9626
tp9628
ag4038
(lp9629
V2016-10-28 04:50:54
p9630
tp9631
a(g8536
V0.6
p9632
(lp9633
(g244
F0.6
g8536
g9632
tp9634
ag1072
(lp9635
V2016-10-28 04:54:12
p9636
tp9637
a(g8551
V0.75
p9638
(lp9639
(g244
F0.75
g8551
g9638
tp9640
ag1079
(lp9641
V2016-10-25 20:10:29
p9642
tp9643
a(g8551
V.75
p9644
(lp9645
(g244
F0.75
g8551
g9644
tp9646
ag4071
(lp9647
V2016-10-25 21:56:42
p9648
tp9649
a(g8551
V.75
p9650
(lp9651
(g244
F0.75
g8551
g9650
tp9652
ag4078
(lp9653
V2016-10-25 21:57:45
p9654
tp9655
a(g8551
V.75
p9656
(lp9657
(g244
F0.75
g8551
g9656
tp9658
ag1086
(lp9659
V2016-10-25 21:58:28
p9660
tp9661
a(g21
V0.5
p9662
(lp9663
(g244
F0.5
g21
g9662
tp9664
ag1163
(lp9665
V2016-10-28 06:23:05
p9666
tp9667
a(g21
V0.5
p9668
(lp9669
(g244
F0.5
g21
g9668
tp9670
ag1170
(lp9671
V2016-10-27 17:09:06
p9672
tp9673
a(g8551
V0.75
p9674
(lp9675
(g244
F0.75
g8551
g9674
tp9676
ag4104
(lp9677
V2016-10-28 00:05:46
p9678
tp9679
a(g8551
V0.75
p9680
(lp9681
(g244
F0.75
g8551
g9680
tp9682
ag4111
(lp9683
V2016-10-28 00:05:46
p9684
tp9685
a(g8551
V0.75
p9686
(lp9687
(g244
F0.75
g8551
g9686
tp9688
ag1177
(lp9689
V2016-10-28 00:14:42
p9690
tp9691
a(g8536
V0.6
p9692
(lp9693
(g244
F0.6
g8536
g9692
tp9694
ag1184
(lp9695
V2016-10-27 18:51:18
p9696
tp9697
a(g8536
V0.6
p9698
(lp9699
(g244
F0.6
g8536
g9698
tp9700
ag1282
(lp9701
V2016-10-26 08:05:43
p9702
tp9703
a(g8536
V0.6
p9704
(lp9705
(g244
F0.6
g8536
g9704
tp9706
ag1289
(lp9707
V2016-10-26 08:05:43
p9708
tp9709
a(g8536
V0.6
p9710
(lp9711
(g244
F0.6
g8536
g9710
tp9712
ag1296
(lp9713
V2016-10-26 08:06:07
p9714
tp9715
a(g21
V.5
p9716
(lp9717
(g244
F0.5
g21
g9716
tp9718
ag4136
(lp9719
V2016-10-28 02:56:52
p9720
tp9721
a(g21
V.5
p9722
(lp9723
(g244
F0.5
g21
g9722
tp9724
ag4143
(lp9725
V2016-10-28 02:56:52
p9726
tp9727
a(g21
V.5
p9728
(lp9729
(g244
F0.5
g21
g9728
tp9730
ag1303
(lp9731
V2016-10-28 02:57:22
p9732
tp9733
a(g21
V.5
p9734
(lp9735
(g244
F0.5
g21
g9734
tp9736
ag7231
(lp9737
V2016-10-28 04:58:03
p9738
tp9739
a(g21
V.5
p9740
(lp9741
(g244
F0.5
g21
g9740
tp9742
ag7238
(lp9743
V2016-10-28 04:58:03
p9744
tp9745
a(g21
V.5
p9746
(lp9747
(g244
F0.5
g21
g9746
tp9748
ag4156
(lp9749
V2016-10-28 04:58:27
p9750
tp9751
a(g21
V.5
p9752
(lp9753
(g244
F0.5
g21
g9752
tp9754
ag4163
(lp9755
V2016-10-28 04:58:27
p9756
tp9757
a(g21
V.5
p9758
(lp9759
(g244
F0.5
g21
g9758
tp9760
ag4170
(lp9761
V2016-10-28 05:00:42
p9762
tp9763
a(g8551
V0.75
p9764
(lp9765
(g244
F0.75
g8551
g9764
tp9766
ag4184
(lp9767
V2016-10-25 03:21:23
p9768
tp9769
a(g8551
V0.75
p9770
(lp9771
(g244
F0.75
g8551
g9770
tp9772
ag4191
(lp9773
V2016-10-25 03:22:10
p9774
tp9775
a(g8551
V0.75
p9776
(lp9777
(g244
F0.75
g8551
g9776
tp9778
ag4198
(lp9779
V2016-10-25 03:22:42
p9780
tp9781
a(g8551
V0.75
p9782
(lp9783
(g244
F0.75
g8551
g9782
tp9784
ag4205
(lp9785
V2016-10-25 03:27:32
p9786
tp9787
a(g8551
V0.75
p9788
(lp9789
(g244
F0.75
g8551
g9788
tp9790
ag1310
(lp9791
V2016-10-25 03:28:00
p9792
tp9793
a(g21
V0.5
p9794
(lp9795
(g244
F0.5
g21
g9794
tp9796
aS'szh'
p9797
(lp9798
V2016-10-26 21:38:59
p9799
tp9800
a(g21
V0.5
p9801
(lp9802
(g244
F0.5
g21
g9801
tp9803
ag7287
(lp9804
V2016-10-26 22:13:46
p9805
tp9806
a(g21
V0.5
p9807
(lp9808
(g244
F0.5
g21
g9807
tp9809
ag1317
(lp9810
V2016-10-26 22:20:15
p9811
tp9812
a(g8511
V0.65
p9813
(lp9814
(g244
F0.65
g8511
g9813
tp9815
ag4218
(lp9816
V2016-10-25 23:38:42
p9817
tp9818
a(g8511
V0.65
p9819
(lp9820
(g244
F0.65
g8511
g9819
tp9821
ag4225
(lp9822
V2016-10-25 23:43:26
p9823
tp9824
a(g8511
V0.65
p9825
(lp9826
(g244
F0.65
g8511
g9825
tp9827
ag1324
(lp9828
V2016-10-25 23:43:52
p9829
tp9830
a(g21
V0.5
p9831
(lp9832
(g244
F0.5
g21
g9831
tp9833
ag1331
(lp9834
V2016-10-28 03:46:34
p9835
tp9836
a(g21
V0.5
p9837
(lp9838
(g244
F0.5
g21
g9837
tp9839
ag1338
(lp9840
V2016-10-28 03:46:59
p9841
tp9842
a(g8551
V0.75
p9843
(lp9844
(g244
F0.75
g8551
g9843
tp9845
ag4258
(lp9846
V2016-10-25 04:54:35
p9847
tp9848
a(g8551
V0.75
p9849
(lp9850
(g244
F0.75
g8551
g9849
tp9851
ag4265
(lp9852
V2016-10-25 04:54:35
p9853
tp9854
a(g8551
V0.75
p9855
(lp9856
(g244
F0.75
g8551
g9855
tp9857
ag4272
(lp9858
V2016-10-25 18:25:46
p9859
tp9860
a(g8551
V0.75
p9861
(lp9862
(g244
F0.75
g8551
g9861
tp9863
ag4279
(lp9864
V2016-10-25 18:25:46
p9865
tp9866
a(g8551
V0.75
p9867
(lp9868
(g244
F0.75
g8551
g9867
tp9869
ag4286
(lp9870
V2016-10-25 18:48:31
p9871
tp9872
a(g8551
V0.75
p9873
(lp9874
(g244
F0.75
g8551
g9873
tp9875
ag4293
(lp9876
V2016-10-25 18:48:31
p9877
tp9878
a(g8551
V0.75
p9879
(lp9880
(g244
F0.75
g8551
g9879
tp9881
ag4300
(lp9882
V2016-10-25 19:02:28
p9883
tp9884
a(g8551
V0.75
p9885
(lp9886
(g244
F0.75
g8551
g9885
tp9887
ag4307
(lp9888
V2016-10-25 19:02:28
p9889
tp9890
a(g8551
V0.75
p9891
(lp9892
(g244
F0.75
g8551
g9891
tp9893
ag4314
(lp9894
V2016-10-25 19:03:43
p9895
tp9896
a(g8551
V0.75
p9897
(lp9898
(g244
F0.75
g8551
g9897
tp9899
ag4321
(lp9900
V2016-10-25 19:03:43
p9901
tp9902
a(g8551
V0.75
p9903
(lp9904
(g244
F0.75
g8551
g9903
tp9905
ag4328
(lp9906
V2016-10-25 19:12:45
p9907
tp9908
a(g8551
V0.75
p9909
(lp9910
(g244
F0.75
g8551
g9909
tp9911
ag4335
(lp9912
V2016-10-25 19:12:45
p9913
tp9914
a(g8551
V0.75
p9915
(lp9916
(g244
F0.75
g8551
g9915
tp9917
ag4342
(lp9918
V2016-10-25 19:22:45
p9919
tp9920
a(g8551
V0.75
p9921
(lp9922
(g244
F0.75
g8551
g9921
tp9923
ag4349
(lp9924
V2016-10-25 19:22:45
p9925
tp9926
a(g8551
V0.75
p9927
(lp9928
(g244
F0.75
g8551
g9927
tp9929
ag4356
(lp9930
V2016-10-25 19:24:52
p9931
tp9932
a(g8551
V0.75
p9933
(lp9934
(g244
F0.75
g8551
g9933
tp9935
ag4363
(lp9936
V2016-10-25 19:24:52
p9937
tp9938
a(g8551
V0.75
p9939
(lp9940
(g244
F0.75
g8551
g9939
tp9941
ag4370
(lp9942
V2016-10-25 19:40:53
p9943
tp9944
a(g8551
V0.75
p9945
(lp9946
(g244
F0.75
g8551
g9945
tp9947
ag4377
(lp9948
V2016-10-25 19:40:53
p9949
tp9950
a(g8551
V0.75
p9951
(lp9952
(g244
F0.75
g8551
g9951
tp9953
ag4384
(lp9954
V2016-10-25 19:50:20
p9955
tp9956
a(g8551
V0.75
p9957
(lp9958
(g244
F0.75
g8551
g9957
tp9959
ag4391
(lp9960
V2016-10-25 19:50:20
p9961
tp9962
a(g8551
V0.75
p9963
(lp9964
(g244
F0.75
g8551
g9963
tp9965
ag1345
(lp9966
V2016-10-25 19:56:30
p9967
tp9968
a(g21
V.5
p9969
(lp9970
(g244
F0.5
g21
g9969
tp9971
ag1366
(lp9972
V2016-10-27 17:02:48
p9973
tp9974
a(g8551
V.75
p9975
(lp9976
(g244
F0.75
g8551
g9975
tp9977
ag1415
(lp9978
V2016-10-26 22:19:27
p9979
tp9980
a(g8536
V0.6
p9981
(lp9982
(g244
F0.6
g8536
g9981
tp9983
ag1422
(lp9984
V2016-10-27 01:20:35
p9985
tp9986
a(g8511
V0.65
p9987
(lp9988
(g244
F0.65
g8511
g9987
tp9989
ag1429
(lp9990
V2016-10-27 17:55:59
p9991
tp9992
a(g8536
V0.6
p9993
(lp9994
(g244
F0.6
g8536
g9993
tp9995
ag1436
(lp9996
V2016-10-24 03:34:39
p9997
tp9998
a(g8536
V0.6
p9999
(lp10000
(g244
F0.6
g8536
g9999
tp10001
ag4608
(lp10002
V2016-10-27 23:00:17
p10003
tp10004
a(g8536
V0.6
p10005
(lp10006
(g244
F0.6
g8536
g10005
tp10007
ag4615
(lp10008
V2016-10-27 23:01:02
p10009
tp10010
a(g8536
V0.6
p10011
(lp10012
(g244
F0.6
g8536
g10011
tp10013
ag4622
(lp10014
V2016-10-27 23:02:35
p10015
tp10016
a(g8536
V0.6
p10017
(lp10018
(g244
F0.6
g8536
g10017
tp10019
ag4629
(lp10020
V2016-10-27 23:02:35
p10021
tp10022
a(g8536
V0.6
p10023
(lp10024
(g244
F0.6
g8536
g10023
tp10025
ag4636
(lp10026
V2016-10-27 23:14:12
p10027
tp10028
a(g8536
V0.6
p10029
(lp10030
(g244
F0.6
g8536
g10029
tp10031
ag4643
(lp10032
V2016-10-27 23:14:12
p10033
tp10034
a(g8536
V0.6
p10035
(lp10036
(g244
F0.6
g8536
g10035
tp10037
ag4650
(lp10038
V2016-10-27 23:14:43
p10039
tp10040
a(g8536
V0.6
p10041
(lp10042
(g244
F0.6
g8536
g10041
tp10043
ag4657
(lp10044
V2016-10-27 23:14:43
p10045
tp10046
a(g8536
V0.6
p10047
(lp10048
(g244
F0.6
g8536
g10047
tp10049
ag4664
(lp10050
V2016-10-27 23:17:27
p10051
tp10052
a(g8536
V0.6
p10053
(lp10054
(g244
F0.6
g8536
g10053
tp10055
ag4671
(lp10056
V2016-10-27 23:17:27
p10057
tp10058
a(g8536
V0.6
p10059
(lp10060
(g244
F0.6
g8536
g10059
tp10061
ag4678
(lp10062
V2016-10-27 23:19:53
p10063
tp10064
a(g8536
V0.6
p10065
(lp10066
(g244
F0.6
g8536
g10065
tp10067
ag4685
(lp10068
V2016-10-27 23:19:53
p10069
tp10070
a(g8536
V0.6
p10071
(lp10072
(g244
F0.6
g8536
g10071
tp10073
ag4692
(lp10074
V2016-10-28 01:34:32
p10075
tp10076
a(g8536
V0.6
p10077
(lp10078
(g244
F0.6
g8536
g10077
tp10079
ag4699
(lp10080
V2016-10-28 01:34:32
p10081
tp10082
a(g8536
V0.6
p10083
(lp10084
(g244
F0.6
g8536
g10083
tp10085
ag1443
(lp10086
V2016-10-28 01:34:59
p10087
tp10088
a(g8551
V0.91-0.16
p10089
(lp10090
(g244
F0.75
g8551
g10089
tp10091
ag1457
(lp10092
V2016-10-26 00:37:05
p10093
tp10094
a(g8536
V.6
p10095
(lp10096
(g244
F0.6
g8536
g10095
tp10097
ag1464
(lp10098
V2016-10-26 01:30:17
p10099
tp10100
a(g8511
V0.65
p10101
(lp10102
(g244
F0.65
g8511
g10101
tp10103
ag1471
(lp10104
V2016-10-25 05:48:04
p10105
tp10106
a(g21
V0.5
p10107
(lp10108
(g244
F0.5
g21
g10107
tp10109
ag1492
(lp10110
V2016-10-27 14:25:02
p10111
tp10112
a(g8536
V.97-.37
p10113
(lp10114
(g244
F0.6
g8536
g10113
tp10115
ag4744
(lp10116
V2016-10-26 00:00:11
p10117
tp10118
a(g8536
V.97-.37
p10119
(lp10120
(g244
F0.6
g8536
g10119
tp10121
ag4751
(lp10122
V2016-10-26 01:28:14
p10123
tp10124
a(g8536
V(.97-.37)
p10125
(lp10126
(g244
F0.6
g8536
V.97-.37)
p10127
tp10128
ag1499
(lp10129
V2016-10-26 01:28:40
p10130
tp10131
a(g8536
V0.6
p10132
(lp10133
(g244
F0.6
g8536
g10132
tp10134
ag1506
(lp10135
V2016-10-28 04:03:10
p10136
tp10137
a(g8536
V.6
p10138
(lp10139
(g244
F0.6
g8536
g10138
tp10140
ag4770
(lp10141
V2016-10-25 07:25:58
p10142
tp10143
a(g8536
V.6
p10144
(lp10145
(g244
F0.6
g8536
g10144
tp10146
ag1513
(lp10147
V2016-10-28 04:10:25
p10148
tp10149
a(g21
V0.5
p10150
(lp10151
(g244
F0.5
g21
g10150
tp10152
ag7630
(lp10153
V2016-10-24 22:10:59
p10154
tp10155
a(g21
V0.5
p10156
(lp10157
(g244
F0.5
g21
g10156
tp10158
ag7637
(lp10159
V2016-10-24 22:10:59
p10160
tp10161
a(g21
V0.5
p10162
(lp10163
(g244
F0.5
g21
g10162
tp10164
ag7644
(lp10165
V2016-10-24 22:11:23
p10166
tp10167
a(g21
V0.5
p10168
(lp10169
(g244
F0.5
g21
g10168
tp10170
ag7651
(lp10171
V2016-10-24 22:11:23
p10172
tp10173
a(g21
V0.5
p10174
(lp10175
(g244
F0.5
g21
g10174
tp10176
ag1520
(lp10177
V2016-10-24 22:12:27
p10178
tp10179
a(g8551
V0.75
p10180
(lp10181
(g244
F0.75
g8551
g10180
tp10182
ag1527
(lp10183
V2016-10-28 02:26:13
p10184
tp10185
a(g21
V.5
p10186
(lp10187
(g244
F0.5
g21
g10186
tp10188
ag1541
(lp10189
V2016-10-27 19:20:05
p10190
tp10191
a(g8536
V0.6
p10192
(lp10193
(g244
F0.6
g8536
g10192
tp10194
ag1548
(lp10195
V2016-10-25 17:34:37
p10196
tp10197
a(g8536
V0.6
p10198
(lp10199
(g244
F0.6
g8536
g10198
tp10200
ag4829
(lp10201
V2016-10-22 05:54:27
p10202
tp10203
a(g8536
V0.6
p10204
(lp10205
(g244
F0.6
g8536
g10204
tp10206
ag4836
(lp10207
V2016-10-22 05:54:27
p10208
tp10209
a(g8536
V0.6
p10210
(lp10211
(g244
F0.6
g8536
g10210
tp10212
ag4843
(lp10213
V2016-10-22 06:05:45
p10214
tp10215
a(g8536
V0.6
p10216
(lp10217
(g244
F0.6
g8536
g10216
tp10218
ag4850
(lp10219
V2016-10-22 06:05:45
p10220
tp10221
a(g8536
V0.6
p10222
(lp10223
(g244
F0.6
g8536
g10222
tp10224
ag4857
(lp10225
V2016-10-22 06:07:07
p10226
tp10227
a(g8536
V0.6
p10228
(lp10229
(g244
F0.6
g8536
g10228
tp10230
ag4864
(lp10231
V2016-10-22 06:07:07
p10232
tp10233
a(g8536
V0.6
p10234
(lp10235
(g244
F0.6
g8536
g10234
tp10236
ag4871
(lp10237
V2016-10-22 06:18:50
p10238
tp10239
a(g8536
V0.6
p10240
(lp10241
(g244
F0.6
g8536
g10240
tp10242
ag4878
(lp10243
V2016-10-22 06:18:50
p10244
tp10245
a(g8536
V0.6
p10246
(lp10247
(g244
F0.6
g8536
g10246
tp10248
ag4885
(lp10249
V2016-10-22 06:19:14
p10250
tp10251
a(g8536
V0.6
p10252
(lp10253
(g244
F0.6
g8536
g10252
tp10254
ag4892
(lp10255
V2016-10-22 06:19:14
p10256
tp10257
a(g8536
V0.6
p10258
(lp10259
(g244
F0.6
g8536
g10258
tp10260
ag1555
(lp10261
V2016-10-22 06:19:38
p10262
tp10263
a(g8551
V.75
p10264
(lp10265
(g244
F0.75
g8551
g10264
tp10266
ag4919
(lp10267
V2016-10-25 17:01:21
p10268
tp10269
a(g8551
V.75
p10270
(lp10271
(g244
F0.75
g8551
g10270
tp10272
ag4926
(lp10273
V2016-10-25 17:01:21
p10274
tp10275
a(g8551
V.75
p10276
(lp10277
(g244
F0.75
g8551
g10276
tp10278
ag4933
(lp10279
V2016-10-25 17:01:44
p10280
tp10281
a(g8551
V.75
p10282
(lp10283
(g244
F0.75
g8551
g10282
tp10284
ag4940
(lp10285
V2016-10-25 17:01:44
p10286
tp10287
a(g8551
V.75
p10288
(lp10289
(g244
F0.75
g8551
g10288
tp10290
ag4947
(lp10291
V2016-10-25 17:03:17
p10292
tp10293
a(g8551
V.75
p10294
(lp10295
(g244
F0.75
g8551
g10294
tp10296
ag4954
(lp10297
V2016-10-25 17:03:17
p10298
tp10299
a(g8551
V.75
p10300
(lp10301
(g244
F0.75
g8551
g10300
tp10302
ag4961
(lp10303
V2016-10-25 17:06:35
p10304
tp10305
a(g8551
V.75
p10306
(lp10307
(g244
F0.75
g8551
g10306
tp10308
ag4968
(lp10309
V2016-10-25 17:06:35
p10310
tp10311
a(g8551
V.75
p10312
(lp10313
(g244
F0.75
g8551
g10312
tp10314
ag4975
(lp10315
V2016-10-26 04:37:34
p10316
tp10317
a(g8551
V.75
p10318
(lp10319
(g244
F0.75
g8551
g10318
tp10320
ag4982
(lp10321
V2016-10-26 04:37:34
p10322
tp10323
a(g8551
V.75
p10324
(lp10325
(g244
F0.75
g8551
g10324
tp10326
ag1562
(lp10327
V2016-10-26 04:38:05
p10328
tp10329
a(g8551
V.75
p10330
(lp10331
(g244
F0.75
g8551
g10330
tp10332
ag1569
(lp10333
V2016-10-25 03:33:51
p10334
tp10335
a(g8511
V0.65
p10336
(lp10337
(g244
F0.65
g8511
g10336
tp10338
ag5001
(lp10339
V2016-10-28 04:33:59
p10340
tp10341
a(g8511
V0.65
p10342
(lp10343
(g244
F0.65
g8511
g10342
tp10344
ag5008
(lp10345
V2016-10-28 04:33:59
p10346
tp10347
a(g8511
V0.65
p10348
(lp10349
(g244
F0.65
g8511
g10348
tp10350
ag5015
(lp10351
V2016-10-28 04:35:26
p10352
tp10353
a(g8511
V0.65
p10354
(lp10355
(g244
F0.65
g8511
g10354
tp10356
ag5022
(lp10357
V2016-10-28 04:35:26
p10358
tp10359
a(g8511
V0.65
p10360
(lp10361
(g244
F0.65
g8511
g10360
tp10362
ag5029
(lp10363
V2016-10-28 04:47:53
p10364
tp10365
a(g8511
V0.65
p10366
(lp10367
(g244
F0.65
g8511
g10366
tp10368
ag5036
(lp10369
V2016-10-28 04:47:53
p10370
tp10371
a(g8511
V0.65
p10372
(lp10373
(g244
F0.65
g8511
g10372
tp10374
ag1576
(lp10375
V2016-10-28 04:48:18
p10376
tp10377
a(g8536
V0.6
p10378
(lp10379
(g244
F0.6
g8536
g10378
tp10380
ag1583
(lp10381
V2016-10-25 21:14:05
p10382
tp10383
a(g8536
V0.6
p10384
(lp10385
(g244
F0.6
g8536
g10384
tp10386
ag1590
(lp10387
V2016-10-26 05:40:26
p10388
tp10389
a(g8536
V0.6
p10390
(lp10391
(g244
F0.6
g8536
g10390
tp10392
ag5075
(lp10393
V2016-10-28 04:51:40
p10394
tp10395
a(g8536
V0.6
p10396
(lp10397
(g244
F0.6
g8536
g10396
tp10398
ag5082
(lp10399
V2016-10-28 04:51:40
p10400
tp10401
a(g8536
V0.6
p10402
(lp10403
(g244
F0.6
g8536
g10402
tp10404
ag5089
(lp10405
V2016-10-28 04:54:33
p10406
tp10407
a(g8536
V0.6
p10408
(lp10409
(g244
F0.6
g8536
g10408
tp10410
ag5096
(lp10411
V2016-10-28 04:54:33
p10412
tp10413
a(g8536
V0.6
p10414
(lp10415
(g244
F0.6
g8536
g10414
tp10416
ag1604
(lp10417
V2016-10-28 05:08:11
p10418
tp10419
a(g8536
V0.6
p10420
(lp10421
(g244
F0.6
g8536
g10420
tp10422
ag1611
(lp10423
V2016-10-27 05:32:16
p10424
tp10425
a(g8551
V.75
p10426
(lp10427
(g244
F0.75
g8551
g10426
tp10428
ag5122
(lp10429
V2016-10-27 03:53:08
p10430
tp10431
a(g8551
V.75
p10432
(lp10433
(g244
F0.75
g8551
g10432
tp10434
ag5129
(lp10435
V2016-10-27 04:01:24
p10436
tp10437
a(g8551
V.75
p10438
(lp10439
(g244
F0.75
g8551
g10438
tp10440
ag5136
(lp10441
V2016-10-27 04:01:24
p10442
tp10443
a(g8551
V.75
p10444
(lp10445
(g244
F0.75
g8551
g10444
tp10446
ag1618
(lp10447
V2016-10-27 04:02:13
p10448
tp10449
a(g8536
V.6
p10450
(lp10451
(g244
F0.6
g8536
g10450
tp10452
ag1667
(lp10453
V2016-10-27 07:12:20
p10454
tp10455
a(g8536
V0.6
p10456
(lp10457
(g244
F0.6
g8536
g10456
tp10458
ag1674
(lp10459
V2016-10-27 23:23:10
p10460
tp10461
a(g8536
V0.6
p10462
(lp10463
(g244
F0.6
g8536
g10462
tp10464
ag1681
(lp10465
V2016-10-27 23:23:10
p10466
tp10467
a(g8536
V0.6
p10468
(lp10469
(g244
F0.6
g8536
g10468
tp10470
ag1688
(lp10471
V2016-10-27 23:23:56
p10472
tp10473
a(g21
V0.5
p10474
(lp10475
(g244
F0.5
g21
g10474
tp10476
ag7942
(lp10477
V2016-10-28 01:13:58
p10478
tp10479
a(g21
V0.5
p10480
(lp10481
(g244
F0.5
g21
g10480
tp10482
ag7949
(lp10483
V2016-10-28 01:13:58
p10484
tp10485
a(g21
V0.5
p10486
(lp10487
(g244
F0.5
g21
g10486
tp10488
ag1695
(lp10489
V2016-10-28 01:14:43
p10490
tp10491
a(g21
V.5
p10492
(lp10493
(g244
F0.5
g21
g10492
tp10494
ag1702
(lp10495
V2016-10-28 01:03:53
p10496
tp10497
a(g8511
V0.65
p10498
(lp10499
(g244
F0.65
g8511
g10498
tp10500
ag5173
(lp10501
V2016-10-26 22:46:38
p10502
tp10503
a(g8511
V0.65
p10504
(lp10505
(g244
F0.65
g8511
g10504
tp10506
ag5180
(lp10507
V2016-10-26 23:22:11
p10508
tp10509
a(g8511
V0.65
p10510
(lp10511
(g244
F0.65
g8511
g10510
tp10512
ag5187
(lp10513
V2016-10-26 23:29:52
p10514
tp10515
a(g8511
V0.65
p10516
(lp10517
(g244
F0.65
g8511
g10516
tp10518
ag5194
(lp10519
V2016-10-26 23:38:47
p10520
tp10521
a(g8511
V0.65
p10522
(lp10523
(g244
F0.65
g8511
g10522
tp10524
ag5201
(lp10525
V2016-10-26 23:38:47
p10526
tp10527
a(g8511
V0.65
p10528
(lp10529
(g244
F0.65
g8511
g10528
tp10530
ag5208
(lp10531
V2016-10-26 23:42:08
p10532
tp10533
a(g8511
V0.65
p10534
(lp10535
(g244
F0.65
g8511
g10534
tp10536
ag5215
(lp10537
V2016-10-26 23:42:08
p10538
tp10539
a(g8511
V0.65
p10540
(lp10541
(g244
F0.65
g8511
g10540
tp10542
ag1709
(lp10543
V2016-10-26 23:42:40
p10544
tp10545
a(g8536
V0.6
p10546
(lp10547
(g244
F0.6
g8536
g10546
tp10548
ag1737
(lp10549
V2016-10-28 03:15:57
p10550
tp10551
a(g8536
V.6
p10552
(lp10553
(g244
F0.6
g8536
g10552
tp10554
ag1758
(lp10555
V2016-10-28 05:02:13
p10556
tp10557
a(g8536
V0.6
p10558
(lp10559
(g244
F0.6
g8536
g10558
tp10560
ag5240
(lp10561
V2016-10-26 22:12:58
p10562
tp10563
a(g8536
V0.6
p10564
(lp10565
(g244
F0.6
g8536
g10564
tp10566
ag1765
(lp10567
V2016-10-26 22:15:41
p10568
tp10569
a(g21
V0.5
p10570
(lp10571
(g244
F0.5
g21
g10570
tp10572
ag5253
(lp10573
V2016-10-27 07:02:50
p10574
tp10575
a(g21
V0.5
p10576
(lp10577
(g244
F0.5
g21
g10576
tp10578
ag5260
(lp10579
V2016-10-27 07:08:16
p10580
tp10581
a(g21
V.5
p10582
(lp10583
(g244
F0.5
g21
g10582
tp10584
ag5267
(lp10585
V2016-10-27 07:10:34
p10586
tp10587
a(g21
V.5
p10588
(lp10589
(g244
F0.5
g21
g10588
tp10590
ag1772
(lp10591
V2016-10-27 07:10:58
p10592
tp10593
a(g8551
V0.75
p10594
(lp10595
(g244
F0.75
g8551
g10594
tp10596
ag8052
(lp10597
V2016-10-28 03:57:43
p10598
tp10599
a(g8551
V0.75
p10600
(lp10601
(g244
F0.75
g8551
g10600
tp10602
ag8059
(lp10603
V2016-10-28 03:57:43
p10604
tp10605
a(g8551
V0.75
p10606
(lp10607
(g244
F0.75
g8551
g10606
tp10608
ag5280
(lp10609
V2016-10-28 03:58:11
p10610
tp10611
a(g8551
V0.75
p10612
(lp10613
(g244
F0.75
g8551
g10612
tp10614
ag5287
(lp10615
V2016-10-28 03:58:11
p10616
tp10617
a(g8551
V0.75
p10618
(lp10619
(g244
F0.75
g8551
g10618
tp10620
ag5294
(lp10621
V2016-10-28 04:07:40
p10622
tp10623
a(g8551
V0.75
p10624
(lp10625
(g244
F0.75
g8551
g10624
tp10626
ag5301
(lp10627
V2016-10-28 04:07:40
p10628
tp10629
a(g8551
V0.75
p10630
(lp10631
(g244
F0.75
g8551
g10630
tp10632
ag5308
(lp10633
V2016-10-28 04:14:04
p10634
tp10635
a(g8551
V0.75
p10636
(lp10637
(g244
F0.75
g8551
g10636
tp10638
ag5315
(lp10639
V2016-10-28 04:14:04
p10640
tp10641
a(g8551
V0.75
p10642
(lp10643
(g244
F0.75
g8551
g10642
tp10644
ag5322
(lp10645
V2016-10-28 04:14:59
p10646
tp10647
a(g8551
V0.75
p10648
(lp10649
(g244
F0.75
g8551
g10648
tp10650
ag5329
(lp10651
V2016-10-28 04:14:59
p10652
tp10653
a(g8551
V0.75
p10654
(lp10655
(g244
F0.75
g8551
g10654
tp10656
ag5336
(lp10657
V2016-10-28 04:15:26
p10658
tp10659
a(g8551
V0.75
p10660
(lp10661
(g244
F0.75
g8551
g10660
tp10662
ag5343
(lp10663
V2016-10-28 04:15:26
p10664
tp10665
a(g8551
V0.75
p10666
(lp10667
(g244
F0.75
g8551
g10666
tp10668
ag5350
(lp10669
V2016-10-28 04:18:08
p10670
tp10671
a(g8551
V0.75
p10672
(lp10673
(g244
F0.75
g8551
g10672
tp10674
ag5357
(lp10675
V2016-10-28 04:18:08
p10676
tp10677
a(g8551
V0.75
p10678
(lp10679
(g244
F0.75
g8551
g10678
tp10680
ag5364
(lp10681
V2016-10-28 04:18:31
p10682
tp10683
a(g8551
V0.75
p10684
(lp10685
(g244
F0.75
g8551
g10684
tp10686
ag5371
(lp10687
V2016-10-28 04:18:31
p10688
tp10689
a(g8551
V0.75
p10690
(lp10691
(g244
F0.75
g8551
g10690
tp10692
ag1779
(lp10693
V2016-10-28 04:19:11
p10694
tp10695
a(g8536
V0.6
p10696
(lp10697
(g244
F0.6
g8536
g10696
tp10698
ag1786
(lp10699
V2016-10-27 17:31:06
p10700
tp10701
a(g8536
V0.6
p10702
(lp10703
(g244
F0.6
g8536
g10702
tp10704
ag1793
(lp10705
V2016-10-27 17:35:06
p10706
tp10707
a(g8511
V0.65
p10708
(lp10709
(g244
F0.65
g8511
g10708
tp10710
ag1807
(lp10711
V2016-10-27 08:26:46
p10712
tp10713
a(g8511
V0.65
p10714
(lp10715
(g244
F0.65
g8511
g10714
tp10716
ag1814
(lp10717
V2016-10-27 14:05:05
p10718
tp10719
a(g21
V.5
p10720
(lp10721
(g244
F0.5
g21
g10720
tp10722
ag5402
(lp10723
V2016-10-26 23:23:33
p10724
tp10725
a(g21
V.5
p10726
(lp10727
(g244
F0.5
g21
g10726
tp10728
ag5409
(lp10729
V2016-10-26 23:23:33
p10730
tp10731
a(g21
V.5
p10732
(lp10733
(g244
F0.5
g21
g10732
tp10734
ag5416
(lp10735
V2016-10-26 23:25:07
p10736
tp10737
a(g21
V.5
p10738
(lp10739
(g244
F0.5
g21
g10738
tp10740
ag5423
(lp10741
V2016-10-26 23:25:07
p10742
tp10743
a(g21
V.5
p10744
(lp10745
(g244
F0.5
g21
g10744
tp10746
ag1821
(lp10747
V2016-10-27 21:08:45
p10748
tp10749
a(g8511
V0.65
p10750
(lp10751
(g244
F0.65
g8511
g10750
tp10752
ag5436
(lp10753
V2016-10-25 07:49:46
p10754
tp10755
a(g8511
V0.65
p10756
(lp10757
(g244
F0.65
g8511
g10756
tp10758
ag5443
(lp10759
V2016-10-25 07:50:45
p10760
tp10761
a(g8511
V0.65
p10762
(lp10763
(g244
F0.65
g8511
g10762
tp10764
ag5450
(lp10765
V2016-10-25 07:51:20
p10766
tp10767
a(g8511
V0.65
p10768
(lp10769
(g244
F0.65
g8511
g10768
tp10770
ag1828
(lp10771
V2016-10-25 07:57:06
p10772
tp10773
a(g21
V.50
p10774
(lp10775
(g244
F0.5
g21
g10774
tp10776
aS'kkhuong'
p10777
(lp10778
V2016-10-28 05:30:53
p10779
tp10780
a(g21
V.5
p10781
(lp10782
(g244
F0.5
g21
g10781
tp10783
ag1835
(lp10784
V2016-10-28 05:32:41
p10785
tp10786
a(g21
V.5
p10787
(lp10788
(g244
F0.5
g21
g10787
tp10789
ag1842
(lp10790
V2016-10-28 05:32:41
p10791
tp10792
a(g21
V.5
p10793
(lp10794
(g244
F0.5
g21
g10793
tp10795
ag1849
(lp10796
V2016-10-28 05:35:00
p10797
tp10798
a(g8536
V0.6
p10799
(lp10800
(g244
F0.6
g8536
g10799
tp10801
ag1856
(lp10802
V2016-10-28 07:00:37
p10803
tp10804
a(g21
V0.5
p10805
(lp10806
(g244
F0.5
g21
g10805
tp10807
ag1863
(lp10808
V2016-10-23 20:01:42
p10809
tp10810
a(g21
V0.5
p10811
(lp10812
(g244
F0.5
g21
g10811
tp10813
ag1870
(lp10814
V2016-10-23 20:02:07
p10815
tp10816
a(g8551
V0.75
p10817
(lp10818
(g244
F0.75
g8551
g10817
tp10819
ag1877
(lp10820
V2016-10-25 20:19:46
p10821
tp10822
a(g8536
V.6
p10823
(lp10824
(g244
F0.6
g8536
g10823
tp10825
ag1884
(lp10826
V2016-10-26 07:04:05
p10827
tp10828
a(g21
V.5
p10829
(lp10830
(g244
F0.5
g21
g10829
tp10831
aS'rdrabik'
p10832
(lp10833
V2016-10-28 03:55:47
p10834
tp10835
a(g21
V.5
p10836
(lp10837
(g244
F0.5
g21
g10836
tp10838
ag8265
(lp10839
V2016-10-28 03:56:18
p10840
tp10841
a(g21
V.5
p10842
(lp10843
(g244
F0.5
g21
g10842
tp10844
ag1891
(lp10845
V2016-10-28 03:56:43
p10846
tp10847
a(g8536
V.6
p10848
(lp10849
(g244
F0.6
g8536
g10848
tp10850
ag1898
(lp10851
V2016-10-27 06:09:14
p10852
tp10853
a(g8551
V.75
p10854
(lp10855
(g244
F0.75
g8551
g10854
tp10856
ag5500
(lp10857
V2016-10-28 04:40:13
p10858
tp10859
a(g8551
V.75
p10860
(lp10861
(g244
F0.75
g8551
g10860
tp10862
ag1912
(lp10863
V2016-10-28 04:50:50
p10864
tp10865
a(g21
V0.5
p10866
(lp10867
(g244
F0.5
g21
g10866
tp10868
ag5513
(lp10869
V2016-10-26 23:14:56
p10870
tp10871
a(g21
V0.5
p10872
(lp10873
(g244
F0.5
g21
g10872
tp10874
ag5520
(lp10875
V2016-10-26 23:14:56
p10876
tp10877
a(g21
V0.5
p10878
(lp10879
(g244
F0.5
g21
g10878
tp10880
ag5527
(lp10881
V2016-10-26 23:18:14
p10882
tp10883
a(g21
V0.5
p10884
(lp10885
(g244
F0.5
g21
g10884
tp10886
ag5534
(lp10887
V2016-10-26 23:18:14
p10888
tp10889
a(g21
V0.5
p10890
(lp10891
(g244
F0.5
g21
g10890
tp10892
ag1919
(lp10893
V2016-10-26 23:18:39
p10894
tp10895
a(g8511
V.65
p10896
(lp10897
(g244
F0.65
g8511
g10896
tp10898
ag8326
(lp10899
V2016-10-25 19:50:49
p10900
tp10901
a(g8511
V.65
p10902
(lp10903
(g244
F0.65
g8511
g10902
tp10904
ag8333
(lp10905
V2016-10-25 19:51:19
p10906
tp10907
a(g8511
V.65
p10908
(lp10909
(g244
F0.65
g8511
g10908
tp10910
ag1926
(lp10911
V2016-10-25 19:51:48
p10912
tp10913
a(g8511
V.65
p10914
(lp10915
(g244
F0.65
g8511
g10914
tp10916
ag1947
(lp10917
V2016-10-24 22:16:29
p10918
tp10919
a(g8551
V.75
p10920
(lp10921
(g244
F0.75
g8551
g10920
tp10922
ag1982
(lp10923
V2016-10-28 04:53:00
p10924
tp10925
a(g21
V.5
p10926
(lp10927
(g244
F0.5
g21
g10926
tp10928
ag1989
(lp10929
V2016-10-26 03:31:20
p10930
tp10931
a(g8551
V0.75
p10932
(lp10933
(g244
F0.75
g8551
g10932
tp10934
ag1996
(lp10935
V2016-10-28 03:07:48
p10936
tp10937
a(g8536
V0.6
p10938
(lp10939
(g244
F0.6
g8536
g10938
tp10940
ag5590
(lp10941
V2016-10-26 01:42:21
p10942
tp10943
a(g8536
V0.6
p10944
(lp10945
(g244
F0.6
g8536
g10944
tp10946
ag2003
(lp10947
V2016-10-26 01:44:16
p10948
tp10949
a(g8551
V.75
p10950
(lp10951
(g244
F0.75
g8551
g10950
tp10952
ag2010
(lp10953
V2016-10-28 05:57:18
p10954
tp10955
a(g8536
V0.6
p10956
(lp10957
(g244
F0.6
g8536
g10956
tp10958
ag2024
(lp10959
V2016-10-26 00:38:03
p10960
tp10961
a(g8551
V.75
p10962
(lp10963
(g244
F0.75
g8551
g10962
tp10964
ag2031
(lp10965
V2016-10-28 04:51:43
p10966
tp10967
a(g8511
V0.65
p10968
(lp10969
(g244
F0.65
g8511
g10968
tp10970
ag2045
(lp10971
V2016-10-27 19:29:31
p10972
tp10973
a(g8551
V.75
p10974
(lp10975
(g244
F0.75
g8551
g10974
tp10976
ag2052
(lp10977
V2016-10-27 00:10:38
p10978
tp10979
a(g21
V0.5
p10980
(lp10981
(g244
F0.5
g21
g10980
tp10982
ag2059
(lp10983
V2016-10-26 05:56:03
p10984
tp10985
a(g8536
V0.6
p10986
(lp10987
(g244
F0.6
g8536
g10986
tp10988
ag2073
(lp10989
V2016-10-27 00:18:05
p10990
tp10991
a(g21
V0.5
p10992
(lp10993
(g244
F0.5
g21
g10992
tp10994
ag5645
(lp10995
V2016-10-27 17:31:20
p10996
tp10997
a(g21
V0.5
p10998
(lp10999
(g244
F0.5
g21
g10998
tp11000
ag2080
(lp11001
V2016-10-27 18:22:04
p11002
tp11003
a(g8536
V.6
p11004
(lp11005
(g244
F0.6
g8536
g11004
tp11006
ag2087
(lp11007
V2016-10-28 03:55:25
p11008
tp11009
a(g8511
V.65
p11010
(lp11011
(g244
F0.65
g8511
g11010
tp11012
ag2094
(lp11013
V2016-10-27 06:39:52
p11014
tp11015
a(g8511
V.65
p11016
(lp11017
(g244
F0.65
g8511
g11016
tp11018
ag2101
(lp11019
V2016-10-27 06:41:33
p11020
tp11021
a(g8551
V.75
p11022
(lp11023
(g244
F0.75
g8551
g11022
tp11024
ag5676
(lp11025
V2016-10-27 18:28:30
p11026
tp11027
a(g8551
V.75
p11028
(lp11029
(g244
F0.75
g8551
g11028
tp11030
ag5683
(lp11031
V2016-10-27 18:29:13
p11032
tp11033
a(g8551
V.75
p11034
(lp11035
(g244
F0.75
g8551
g11034
tp11036
ag5690
(lp11037
V2016-10-27 18:29:13
p11038
tp11039
a(g8551
V.75
p11040
(lp11041
(g244
F0.75
g8551
g11040
tp11042
ag5697
(lp11043
V2016-10-27 18:29:43
p11044
tp11045
a(g8551
V.75
p11046
(lp11047
(g244
F0.75
g8551
g11046
tp11048
ag5704
(lp11049
V2016-10-27 18:30:48
p11050
tp11051
a(g8551
V.75
p11052
(lp11053
(g244
F0.75
g8551
g11052
tp11054
ag5711
(lp11055
V2016-10-27 18:30:48
p11056
tp11057
a(g8551
V.75
p11058
(lp11059
(g244
F0.75
g8551
g11058
tp11060
ag5718
(lp11061
V2016-10-27 18:31:14
p11062
tp11063
a(g8551
V.75
p11064
(lp11065
(g244
F0.75
g8551
g11064
tp11066
ag2108
(lp11067
V2016-10-27 18:32:36
p11068
tp11069
a(g8551
V.75
p11070
(lp11071
(g244
F0.75
g8551
g11070
tp11072
aS'ajgiri'
p11073
(lp11074
V2016-10-28 06:54:36
p11075
tp11076
a(g8551
V.75
p11077
(lp11078
(g244
F0.75
g8551
g11077
tp11079
aS'ajgiri'
p11080
(lp11081
V2016-10-28 06:54:36
p11082
tp11083
a(g8551
V.75
p11084
(lp11085
(g244
F0.75
g8551
g11084
tp11086
ag5731
(lp11087
V2016-10-28 06:55:45
p11088
tp11089
a(g8551
V.75
p11090
(lp11091
(g244
F0.75
g8551
g11090
tp11092
ag5738
(lp11093
V2016-10-28 06:55:45
p11094
tp11095
a(g8551
V.75
p11096
(lp11097
(g244
F0.75
g8551
g11096
tp11098
ag5745
(lp11099
V2016-10-28 06:56:15
p11100
tp11101
a(g8551
V.75
p11102
(lp11103
(g244
F0.75
g8551
g11102
tp11104
ag5752
(lp11105
V2016-10-28 06:56:15
p11106
tp11107
a(g8551
V.75
p11108
(lp11109
(g244
F0.75
g8551
g11108
tp11110
ag5759
(lp11111
V2016-10-28 06:58:06
p11112
tp11113
a(g8551
V.75
p11114
(lp11115
(g244
F0.75
g8551
g11114
tp11116
ag5766
(lp11117
V2016-10-28 06:58:06
p11118
tp11119
a(g8551
V.75
p11120
(lp11121
(g244
F0.75
g8551
g11120
tp11122
ag2115
(lp11123
V2016-10-28 06:58:30
p11124
tp11125
a(g8551
V0.75
p11126
(lp11127
(g244
F0.75
g8551
g11126
tp11128
ag2248
(lp11129
V2016-10-27 20:50:18
p11130
tp11131
ass.