(dp0
S'1'
p1
(dp2
S'alebedev'
p3
(dp4
S'part1_correct_attempt'
p5
(lp6
S'0:01:09'
p7
aV0.3-(0.3)^2
p8
asS'first_attempt'
p9
V2016-10-26 05:03:03
p10
sS'part1_incorrect_attempt'
p11
(lp12
(S'0:00:00'
p13
V0.6
p14
tp15
assS'Zhongting'
p16
(dp17
S'part1_correct_attempt'
p18
(lp19
S'0:00:32'
p20
aV0.21
p21
asg9
V2016-10-24 21:33:22
p22
sS'part1_incorrect_attempt'
p23
(lp24
(S'0:00:00'
p25
V0.24
p26
tp27
assS'szh'
p28
(dp29
S'part1_correct_attempt'
p30
(lp31
S'0:02:34'
p32
aV0.21
p33
asg9
V2016-10-26 23:26:11
p34
sS'part1_incorrect_attempt'
p35
(lp36
(S'0:00:00'
p37
V0.021
p38
tp39
assS'christhoperbernard'
p40
(dp41
S'part1_correct_attempt'
p42
(lp43
S'0:02:26'
p44
aV0.3-0.3^2
p45
asg9
V2016-10-27 20:47:48
p46
sS'part1_incorrect_attempt'
p47
(lp48
(S'0:00:00'
p49
V0.6
p50
tp51
assS'rleaton'
p52
(dp53
S'part1_correct_attempt'
p54
(lp55
S'0:08:02'
p56
aV.21
p57
asg9
V2016-10-28 00:10:18
p58
sS'part1_incorrect_attempt'
p59
(lp60
(S'0:00:00'
p61
V.91
p62
tp63
a(S'0:02:00'
p64
V1.25
p65
tp66
assS't2xu'
p67
(dp68
S'part1_correct_attempt'
p69
(lp70
S'0:05:52'
p71
aV0.3(1-0.3)
p72
asg9
V2016-10-28 02:50:15
p73
sS'part1_incorrect_attempt'
p74
(lp75
(S'0:00:00'
p76
V1-0.3
p77
tp78
a(S'0:02:57'
p79
V1-1
p80
tp81
assS'aspindle'
p82
(dp83
S'part1_correct_attempt'
p84
(lp85
S'0:10:09'
p86
aV.21
p87
asg9
V2016-10-27 02:31:39
p88
sS'part1_incorrect_attempt'
p89
(lp90
(S'0:00:00'
p91
V.6
p92
tp93
assS'dzech'
p94
(dp95
S'part1_correct_attempt'
p96
(lp97
S'0:04:05'
p98
aV0.3*0.7
p99
asg9
V2016-10-27 22:24:51
p100
sS'part1_incorrect_attempt'
p101
(lp102
(S'0:00:00'
p103
V0.5 - 0.25
p104
tp105
assS'safarsi'
p106
(dp107
S'part1_correct_attempt'
p108
(lp109
S'0:04:48'
p110
aV0.21
p111
asg9
V2016-10-27 19:38:34
p112
sS'part1_incorrect_attempt'
p113
(lp114
(S'0:00:00'
p115
V0.39
p116
tp117
a(S'0:02:19'
p118
V1-0.09
p119
tp120
assS'StefanWooding'
p121
(dp122
S'part1_correct_attempt'
p123
(lp124
S'0:01:26'
p125
aV0.3-(0.3*0.3)
p126
asg9
V2016-10-28 02:01:21
p127
sS'part1_incorrect_attempt'
p128
(lp129
(S'0:00:00'
p130
V0.3*0.7-((0.3*0.7)^2)
p131
tp132
assS'yjx99335'
p133
(dp134
S'part1_correct_attempt'
p135
(lp136
S'0:04:29'
p137
aV0.3-0.09
p138
asg9
V2016-10-28 01:25:56
p139
sS'part1_incorrect_attempt'
p140
(lp141
(S'0:00:00'
p142
V0.3+0.09
p143
tp144
a(S'0:03:30'
p145
V0.3*0.7*2
p146
tp147
assS'ssolanki'
p148
(dp149
S'part1_correct_attempt'
p150
(lp151
S'0:11:13'
p152
aV0.21
p153
asg9
V2016-10-28 06:27:07
p154
sS'part1_incorrect_attempt'
p155
(lp156
(S'0:00:00'
p157
V0.24
p158
tp159
a(S'0:07:47'
p160
V0.24
p161
tp162
assS'wangpin'
p163
(dp164
S'part1_correct_attempt'
p165
(lp166
S'0:02:57'
p167
aV0.21
p168
asg9
V2016-10-28 01:23:40
p169
sS'part1_incorrect_attempt'
p170
(lp171
(S'0:00:00'
p172
V0.7
p173
tp174
assS'jar045'
p175
(dp176
S'part1_correct_attempt'
p177
(lp178
S'0:11:30'
p179
aV0.3 * 0.7
p180
asg9
V2016-10-25 04:37:59
p181
sS'part1_incorrect_attempt'
p182
(lp183
(S'0:00:00'
p184
V1 - 0.3
p185
tp186
assS'MarianCrofts'
p187
(dp188
S'part1_correct_attempt'
p189
(lp190
S'0:02:40'
p191
aV.3 - .3^2
p192
asg9
V2016-10-26 21:18:35
p193
sS'part1_incorrect_attempt'
p194
(lp195
(S'0:00:00'
p196
V0.3 * 0.3^2
p197
tp198
assS'JonahCruz'
p199
(dp200
S'part1_correct_attempt'
p201
(lp202
S'0:22:42'
p203
aV.3 - .3^2
p204
asg9
V2016-10-27 20:12:48
p205
sS'part1_incorrect_attempt'
p206
(lp207
(S'0:00:00'
p208
V1-(.3^2)
p209
tp210
assS'A4chau'
p211
(dp212
S'part1_correct_attempt'
p213
(lp214
S'0:02:31'
p215
aV0.21
p216
asg9
V2016-10-27 07:31:52
p217
sS'part1_incorrect_attempt'
p218
(lp219
(S'0:00:00'
p220
V0.25
p221
tp222
assS'Lpascual'
p223
(dp224
g9
V2016-10-28 04:27:50
p225
sS'part1_incorrect_attempt'
p226
(lp227
(S'0:00:00'
p228
V.36
p229
tp230
a(S'0:25:02'
p231
V.6
p232
tp233
asssS'3'
p234
(dp235
S'oganguli'
p236
(dp237
S'part3_correct_attempt'
p238
(lp239
S'0:00:00'
p240
aV7.5
p241
asS'part3_incorrect_attempt'
p242
(lp243
(S'-1 day, 23:44:25'
p244
V0.25
p245
tp246
a(S'-1 day, 23:48:58'
p247
V2.5
p248
tp249
a(S'-1 day, 23:52:05'
p250
V1.875
p251
tp252
asg9
V2016-10-27 21:52:30
p253
ssS'Ian'
p254
(dp255
S'part3_correct_attempt'
p256
(lp257
S'0:00:00'
p258
aV(1+4+9+16)/4
p259
asS'part3_incorrect_attempt'
p260
(lp261
(S'-2 days, 22:42:14'
p262
V.25
p263
tp264
asg9
V2016-10-26 01:43:42
p265
ssS'vincebai'
p266
(dp267
S'part3_correct_attempt'
p268
(lp269
S'0:00:00'
p270
aV30/4
p271
asS'part3_incorrect_attempt'
p272
(lp273
(S'-1 day, 23:58:11'
p274
V6.5
p275
tp276
asg9
V2016-10-26 09:10:38
p277
ssS'jih089'
p278
(dp279
S'part3_correct_attempt'
p280
(lp281
S'0:00:00'
p282
aV7.5
p283
asS'part3_incorrect_attempt'
p284
(lp285
(S'-1 day, 13:54:52'
p286
V4.75
p287
tp288
a(S'-1 day, 13:59:24'
p289
V2.5
p290
tp291
asg9
V2016-10-23 02:52:04
p292
ssS'g5park'
p293
(dp294
S'part3_incorrect_attempt'
p295
(lp296
(S'-1 day, 23:58:48'
p297
V1/4
p298
tp299
asg9
V2016-10-25 19:01:05
p300
ssS'JiaqiHuang'
p301
(dp302
S'part3_incorrect_attempt'
p303
(lp304
(S'0:00:00'
p305
V1/4
p306
tp307
asg9
V2016-10-28 07:02:51
p308
ssS'adejesus'
p309
(dp310
S'part3_correct_attempt'
p311
(lp312
S'0:00:00'
p313
aV7.5
p314
asS'part3_incorrect_attempt'
p315
(lp316
(S'-1 day, 23:48:25'
p317
V1/4
p318
tp319
asg9
V2016-10-27 15:18:00
p320
ssS'JonDo'
p321
(dp322
S'part3_correct_attempt'
p323
(lp324
S'0:00:00'
p325
aV(1(0.25))+(4(0.25))+(9(0.25))+(16(0.25))
p326
asS'part3_incorrect_attempt'
p327
(lp328
(S'-1 day, 23:53:31'
p329
V0.25
p330
tp331
asg9
V2016-10-27 22:50:14
p332
ssS'PizzaPolice'
p333
(dp334
S'part3_correct_attempt'
p335
(lp336
S'0:00:00'
p337
aV(1+4+9+16)/4
p338
asS'part3_incorrect_attempt'
p339
(lp340
(S'-1 day, 23:59:10'
p341
V(2.5)^2
p342
tp343
asg9
V2016-10-26 08:35:40
p344
ssS'Kevin_Pansawira'
p345
(dp346
S'part3_correct_attempt'
p347
(lp348
S'0:00:00'
p349
aV7.5
p350
asS'part3_incorrect_attempt'
p351
(lp352
(S'-1 day, 23:58:41'
p353
V5.5
p354
tp355
asg9
V2016-10-27 22:34:09
p356
sssS'2'
p357
(dp358
g254
(dp359
S'part2_correct_attempt'
p360
(lp361
S'0:00:00'
p362
aV10/4
p363
asg9
g265
sS'part2_incorrect_attempt'
p364
(lp365
(S'-2 days, 22:42:14'
p366
V.25
p367
tp368
a(S'-1 day, 23:55:11'
p369
V.3
p370
tp371
assS'piamsiri'
p372
(dp373
S'part2_correct_attempt'
p374
(lp375
S'0:00:00'
p376
aV(1/4) + (2/4) + (3/4) + (4/4)
p377
asg9
V2016-10-24 04:26:04
p378
sS'part2_incorrect_attempt'
p379
(lp380
(S'-1 day, 23:50:49'
p381
V1/4
p382
tp383
assS'abelmont'
p384
(dp385
S'part2_correct_attempt'
p386
(lp387
S'0:00:00'
p388
aV2.5
p389
asg9
V2016-10-28 07:03:12
p390
sS'part2_incorrect_attempt'
p391
(lp392
(S'-1 day, 23:52:31'
p393
V.25
p394
tp395
assS'g5park'
p396
(dp397
S'part2_correct_attempt'
p398
(lp399
S'0:00:00'
p400
aV0.1875
p401
asg9
g300
sS'part2_incorrect_attempt'
p402
(lp403
(S'0:00:00'
p404
V0.1875
p405
tp406
assS'rsamuail'
p407
(dp408
g9
V2016-10-28 02:53:51
p409
sS'part2_incorrect_attempt'
p410
(lp411
(S'-1 day, 23:51:47'
p412
V1/4
p413
tp414
assS'aspindle'
p415
(dp416
S'part2_correct_attempt'
p417
(lp418
S'0:00:00'
p419
aV2.5
p420
asg9
V2016-10-27 02:41:48
p421
sS'part2_incorrect_attempt'
p422
(lp423
(S'-1 day, 23:55:05'
p424
V0.25
p425
tp426
assS'Ken'
p427
(dp428
S'part2_correct_attempt'
p429
(lp430
S'0:00:00'
p431
aV2.5
p432
asg9
V2016-10-28 00:54:00
p433
sS'part2_incorrect_attempt'
p434
(lp435
(S'-1 day, 23:57:56'
p436
V1.5
p437
tp438
assS'jih089'
p439
(dp440
S'part2_correct_attempt'
p441
(lp442
S'0:00:00'
p443
aV2.5
p444
asg9
g292
sS'part2_incorrect_attempt'
p445
(lp446
(S'-1 day, 14:24:27'
p447
V3.5
p448
tp449
assS'christywong'
p450
(dp451
S'part2_correct_attempt'
p452
(lp453
S'0:00:00'
p454
aV0.25*1+0.25*2+0.25*3+0.25*4
p455
asg9
V2016-10-28 05:37:44
p456
sS'part2_incorrect_attempt'
p457
(lp458
(S'-1 day, 23:57:41'
p459
V0.25
p460
tp461
assg301
(dp462
g9
V2016-10-28 07:02:51
p463
sS'part2_incorrect_attempt'
p464
(lp465
(S'0:00:00'
p466
V0.3
p467
tp468
assS'gpagliar'
p469
(dp470
S'part2_correct_attempt'
p471
(lp472
S'0:00:00'
p473
aV1*1/4+2*1/4+3*1/4+4*1/4
p474
asg9
V2016-10-27 21:07:42
p475
sS'part2_incorrect_attempt'
p476
(lp477
(S'-1 day, 23:53:36'
p478
V0.3
p479
tp480
assg321
(dp481
S'part2_correct_attempt'
p482
(lp483
S'0:00:00'
p484
aV(1(0.25))+(2(0.25))+(3(0.25))+(4(0.25))
p485
asg9
g332
sS'part2_incorrect_attempt'
p486
(lp487
(S'-1 day, 23:53:31'
p488
V0.25
p489
tp490
assS'RobinO'
p491
(dp492
S'part2_correct_attempt'
p493
(lp494
S'0:00:00'
p495
aV10/4
p496
asg9
V2016-10-24 01:48:03
p497
sS'part2_incorrect_attempt'
p498
(lp499
(S'-1 day, 23:56:13'
p500
V5/4
p501
tp502
assS'tdea'
p503
(dp504
S'part2_correct_attempt'
p505
(lp506
S'0:00:00'
p507
aV2.5
p508
asg9
V2016-10-28 01:28:12
p509
sS'part2_incorrect_attempt'
p510
(lp511
(S'-1 day, 23:59:09'
p512
V2.4
p513
tp514
assS'TianhaoQiu'
p515
(dp516
S'part2_correct_attempt'
p517
(lp518
S'0:00:00'
p519
aV1*1/4+2*1/4+3*1/4+4*1/4
p520
asg9
V2016-10-28 03:05:34
p521
sS'part2_incorrect_attempt'
p522
(lp523
(S'-1 day, 23:58:45'
p524
V 1*1/4+4*1/4+9*1/4+16*1/4
p525
tp526
assS'JonahCruz'
p527
(dp528
S'part2_correct_attempt'
p529
(lp530
S'0:00:00'
p531
aV(1/4)*1+(1/4)*2+(1/4)*3+(1/4)*4
p532
asg9
V2016-10-27 20:35:30
p533
sS'part2_incorrect_attempt'
p534
(lp535
(S'-1 day, 23:50:06'
p536
V1/4
p537
tp538
a(S'-1 day, 23:53:25'
p539
V(1/4)*4
p540
tp541
assS'Lpascual'
p542
(dp543
g9
V2016-10-28 04:52:52
p544
sS'part2_incorrect_attempt'
p545
(lp546
(S'0:00:00'
p547
V.6
p548
tp549
assS'ray003'
p550
(dp551
S'part2_correct_attempt'
p552
(lp553
S'0:00:00'
p554
aV10/4
p555
asg9
V2016-10-26 00:31:20
p556
sS'part2_incorrect_attempt'
p557
(lp558
(S'-1 day, 22:57:56'
p559
V0.25
p560
tp561
a(S'-1 day, 22:58:21'
p562
V1/4
p563
tp564
a(S'-1 day, 23:49:48'
p565
V1/4
p566
tp567
assg236
(dp568
S'part2_correct_attempt'
p569
(lp570
S'0:00:00'
p571
aV2.5
p572
asg9
g253
sS'part2_incorrect_attempt'
p573
(lp574
(S'-1 day, 23:44:25'
p575
V.25
p576
tp577
assS'MattBowen96'
p578
(dp579
S'part2_correct_attempt'
p580
(lp581
S'0:00:00'
p582
aV2.5
p583
asg9
V2016-10-27 09:42:46
p584
sS'part2_incorrect_attempt'
p585
(lp586
(S'-1 day, 23:56:07'
p587
V0.25
p588
tp589
a(S'-1 day, 23:58:48'
p590
V.25
p591
tp592
assg309
(dp593
S'part2_correct_attempt'
p594
(lp595
S'0:00:00'
p596
aV2.5
p597
asg9
g320
sS'part2_incorrect_attempt'
p598
(lp599
(S'-1 day, 23:48:25'
p600
V1/4
p601
tp602
assS'Guillermo'
p603
(dp604
S'part2_correct_attempt'
p605
(lp606
S'0:00:00'
p607
aV1/4*(1+2+3+4)
p608
asg9
V2016-10-23 04:17:00
p609
sS'part2_incorrect_attempt'
p610
(lp611
(S'-1 day, 21:08:06'
p612
V(1/4)+(1/2)+(4/3)+(1)
p613
tp614
assS'Riyang'
p615
(dp616
S'part2_correct_attempt'
p617
(lp618
S'0:00:00'
p619
aV(1+2+3+4)/4
p620
asg9
V2016-10-27 22:44:47
p621
sS'part2_incorrect_attempt'
p622
(lp623
(S'-1 day, 23:56:32'
p624
V1/4
p625
tp626
asssS'5'
p627
(dp628
S'rdabir'
p629
(dp630
S'part5_correct_attempt'
p631
(lp632
S'0:00:00'
p633
aV1.25
p634
asS'part5_incorrect_attempt'
p635
(lp636
(S'-1 day, 23:57:01'
p637
V(0.25+(0.25*4)+(0.25*9)+(0.25*16))-(0.25+(0.25*2)+(0.25*3)+(0.25*4))
p638
tp639
asg9
V2016-10-28 02:51:28
p640
ssg491
(dp641
S'part5_correct_attempt'
p642
(lp643
S'0:00:00'
p644
aV((1-(5/2))^2 + (2-(5/2))^2 + (3-(5/2))^2 + (4-(5/2))^2)/4
p645
asS'part5_incorrect_attempt'
p646
(lp647
(S'-1 day, 23:56:13'
p648
V((30/4)-(5/4))^2
p649
tp650
asg9
g497
ssg236
(dp651
S'part5_correct_attempt'
p652
(lp653
S'0:00:00'
p654
aV1.25
p655
asS'part5_incorrect_attempt'
p656
(lp657
(S'-1 day, 23:44:25'
p658
V0.1875
p659
tp660
a(S'-1 day, 23:48:58'
p661
V2.4375
p662
tp663
asg9
g253
ssg254
(dp664
S'part5_correct_attempt'
p665
(lp666
S'0:00:00'
p667
aV((1+4+9+16)/4)-(10/4)^2
p668
asS'part5_incorrect_attempt'
p669
(lp670
(S'-2 days, 22:42:14'
p671
V0.0625
p672
tp673
a(S'-1 day, 23:59:07'
p674
V((1+4+9+16)/4)-(10/4)
p675
tp676
asg9
g265
ssg266
(dp677
S'part5_correct_attempt'
p678
(lp679
S'0:00:00'
p680
aV1.25
p681
asS'part5_incorrect_attempt'
p682
(lp683
(S'-1 day, 23:58:11'
p684
V0.25
p685
tp686
asg9
g277
ssS'yash'
p687
(dp688
S'part5_correct_attempt'
p689
(lp690
S'0:00:00'
p691
aV(2.25 * .25) + 0.25^2 + 0.25^2 + (2.25 * 0.25)
p692
asS'part5_incorrect_attempt'
p693
(lp694
(S'-1 day, 23:56:34'
p695
V-1.5 * .25 + -0.5 * 0.25 + 0.5 *2.5 + 1.5*2.5
p696
tp697
asg9
V2016-10-27 19:00:12
p698
ssg301
(dp699
S'part5_incorrect_attempt'
p700
(lp701
(S'0:00:00'
p702
V1/4 - (0.3*0.3)
p703
tp704
asg9
V2016-10-28 07:02:51
p705
ssg321
(dp706
S'part5_correct_attempt'
p707
(lp708
S'0:00:00'
p709
aV(2.25(0.25))+(0.25(0.25))+(0.25(0.25))+(2.25(0.25))
p710
asS'part5_incorrect_attempt'
p711
(lp712
(S'-1 day, 23:53:31'
p713
V0.25-(0.25^2)
p714
tp715
asg9
g332
ssS'DannyDelCerro'
p716
(dp717
S'part5_correct_attempt'
p718
(lp719
S'0:00:00'
p720
aV((1+4+9+16)/4)-((10/4)(10/4))
p721
asS'part5_incorrect_attempt'
p722
(lp723
(S'-1 day, 23:55:35'
p724
V((1+4+9+16)/4)-(10/4)
p725
tp726
asg9
V2016-10-25 02:21:20
p727
ssS'PizzaPolice'
p728
(dp729
S'part5_correct_attempt'
p730
(lp731
S'0:00:00'
p732
aV(2.25 + .25 + .25 + 2.25)/4
p733
asS'part5_incorrect_attempt'
p734
(lp735
(S'-1 day, 23:56:07'
p736
V(15 - ((2.5)^2))^2
p737
tp738
a(S'-1 day, 23:57:21'
p739
V1.25^2
p740
tp741
asg9
g344
ssg187
(dp742
S'part5_correct_attempt'
p743
(lp744
S'0:00:00'
p745
aV.25*(2.25 + .25 + .25 + 2.25)
p746
asS'part5_incorrect_attempt'
p747
(lp748
(S'-1 day, 23:57:20'
p749
V.25*2.25
p750
tp751
asg9
V2016-10-26 21:21:15
p752
ssS'maddymanu'
p753
(dp754
S'part5_correct_attempt'
p755
(lp756
S'0:00:00'
p757
aV1.25
p758
asS'part5_incorrect_attempt'
p759
(lp760
(S'-1 day, 23:57:36'
p761
V0.21
p762
tp763
asg9
V2016-10-23 17:27:05
p764
sssS'4'
p765
(dp766
S'Byung'
p767
(dp768
S'part4_correct_attempt'
p769
(lp770
S'0:00:00'
p771
aV5/4
p772
asS'part4_incorrect_attempt'
p773
(lp774
(S'-1 day, 23:56:14'
p775
V20/4
p776
tp777
asg9
V2016-10-28 00:04:19
p778
ssg491
(dp779
S'part4_correct_attempt'
p780
(lp781
S'0:00:00'
p782
aV(30/4)-(10/4)^2
p783
asS'part4_incorrect_attempt'
p784
(lp785
(S'-1 day, 23:56:13'
p786
V(30/4)-(5/4)^2
p787
tp788
asg9
g497
ssg236
(dp789
S'part4_correct_attempt'
p790
(lp791
S'0:00:00'
p792
aV1.25
p793
asS'part4_incorrect_attempt'
p794
(lp795
(S'-1 day, 23:44:25'
p796
V0.1875
p797
tp798
a(S'-1 day, 23:48:58'
p799
V2.4375
p800
tp801
a(S'-1 day, 23:52:05'
p802
V1.8125
p803
tp804
asg9
g253
ssg254
(dp805
S'part4_correct_attempt'
p806
(lp807
S'0:00:00'
p808
aV((1+4+9+16)/4)-(10/4)^2
p809
asS'part4_incorrect_attempt'
p810
(lp811
(S'-2 days, 22:42:14'
p812
V.25-0.0625
p813
tp814
a(S'-1 day, 23:59:07'
p815
V((1+4+9+16)/4)-(10/4)
p816
tp817
asg9
g265
ssg266
(dp818
S'part4_correct_attempt'
p819
(lp820
S'0:00:00'
p821
aV1.25
p822
asS'part4_incorrect_attempt'
p823
(lp824
(S'-1 day, 23:58:11'
p825
V0.25
p826
tp827
asg9
g277
ssg629
(dp828
S'part4_correct_attempt'
p829
(lp830
S'0:00:00'
p831
aV1.25
p832
asS'part4_incorrect_attempt'
p833
(lp834
(S'-1 day, 23:57:01'
p835
V(0.25+(0.25*4)+(0.25*9)+(0.25*16))-(0.25+(0.25*2)+(0.25*3)+(0.25*4))
p836
tp837
asg9
g640
ssg427
(dp838
S'part4_correct_attempt'
p839
(lp840
S'0:00:00'
p841
aV7.5-2.5^2
p842
asS'part4_incorrect_attempt'
p843
(lp844
(S'-1 day, 23:57:56'
p845
V7.5-1.5^2
p846
tp847
asg9
g433
ssS'AlexM'
p848
(dp849
S'part4_correct_attempt'
p850
(lp851
S'0:00:00'
p852
aV30/4 - 2.5^2
p853
asS'part4_incorrect_attempt'
p854
(lp855
(S'-1 day, 23:58:22'
p856
V30/4 - 2.5
p857
tp858
asg9
V2016-10-26 02:49:06
p859
ssS'Max'
p860
(dp861
S'part4_correct_attempt'
p862
(lp863
S'0:00:00'
p864
aV1.25
p865
asS'part4_incorrect_attempt'
p866
(lp867
(S'-1 day, 23:57:58'
p868
V23.75*.25
p869
tp870
asg9
V2016-10-28 02:10:09
p871
ssg450
(dp872
S'part4_correct_attempt'
p873
(lp874
S'0:00:00'
p875
aV(0.25*(1^2)+(0.25*(2^2))+(0.25*(3^2))+(0.25*(4^2)))-(0.25*1+0.25*2+0.25*3+0.25*4)^2
p876
asS'part4_incorrect_attempt'
p877
(lp878
(S'-1 day, 23:57:41'
p879
V(0.25*(1^2)+(0.25*(2^2))+(0.25*(3^2))+(0.25*(4^2)))-(0.25^2)
p880
tp881
asg9
g456
ssS'kmesic'
p882
(dp883
S'part4_correct_attempt'
p884
(lp885
S'0:00:00'
p886
aV (1/4 * (1+4+9+16)) - (1/4 * (1+2+3+4))^2
p887
asS'part4_incorrect_attempt'
p888
(lp889
(S'-1 day, 23:54:48'
p890
V(1/4 * (1+4+9+16)) - (1/4 * (1+2+3+4))
p891
tp892
asg9
V2016-10-27 08:55:25
p893
ssg301
(dp894
S'part4_incorrect_attempt'
p895
(lp896
(S'0:00:00'
p897
V1/4 - (0.3*0.3)
p898
tp899
asg9
V2016-10-28 07:02:51
p900
ssg578
(dp901
S'part4_correct_attempt'
p902
(lp903
S'0:00:00'
p904
aV1.25
p905
asS'part4_incorrect_attempt'
p906
(lp907
(S'-1 day, 23:56:07'
p908
V7.4375
p909
tp910
asg9
g584
ssg321
(dp911
S'part4_correct_attempt'
p912
(lp913
S'0:00:00'
p914
aV(1(0.25))+(4(0.25))+(9(0.25))+(16(0.25)) - ((1(0.25))+(2(0.25))+(3(0.25))+(4(0.25)))^2
p915
asS'part4_incorrect_attempt'
p916
(lp917
(S'-1 day, 23:53:31'
p918
V0.25-(0.25^2)
p919
tp920
asg9
g332
ssg716
(dp921
S'part4_correct_attempt'
p922
(lp923
S'0:00:00'
p924
aV((1+4+9+16)/4)-((10/4)(10/4))
p925
asS'part4_incorrect_attempt'
p926
(lp927
(S'-1 day, 23:55:35'
p928
V((1+4+9+16)/4)-(10/4)
p929
tp930
asg9
g727
ssg293
(dp931
S'part4_incorrect_attempt'
p932
(lp933
(S'-1 day, 23:58:48'
p934
V0.1875
p935
tp936
asg9
g300
ssg728
(dp937
S'part4_correct_attempt'
p938
(lp939
S'0:00:00'
p940
aV((1+4+9+16)/4) - (2.5^2)
p941
asS'part4_incorrect_attempt'
p942
(lp943
(S'-1 day, 23:56:07'
p944
V15 - ((2.5)^2)
p945
tp946
a(S'-1 day, 23:57:21'
p947
V(30 / 2) - (2.5^2)
p948
tp949
asg9
g344
ssS'TianhaoQiu'
p950
(dp951
S'part4_correct_attempt'
p952
(lp953
S'0:00:00'
p954
aV(1*1/4+4*1/4+9*1/4+16*1/4)-(1*1/4+2*1/4+3*1/4+4*1/4)^2
p955
asS'part4_incorrect_attempt'
p956
(lp957
(S'-1 day, 23:56:36'
p958
V(1*1/4+4*1/4+9*1/4+16*1/4)-(1*1/4+2*1/4+3*1/4+4*1/4)
p959
tp960
asg9
g521
ssS'JonahCruz'
p961
(dp962
S'part4_correct_attempt'
p963
(lp964
S'0:00:00'
p965
aV((1/4)*1+(1/4)*4+(1/4)*9+(1/4)*16)-((1/4)*1+(1/4)*2+(1/4)*3+(1/4)*4)^2
p966
asS'part4_incorrect_attempt'
p967
(lp968
(S'-1 day, 23:57:38'
p969
V((1/4)*1+(1/4)*4+(1/4)*9+(1/4)*16)-((1/4)*1+(1/4)*2+(1/4)*3+(1/4)*4)
p970
tp971
asg9
g533
ssS'Aidan'
p972
(dp973
S'part4_correct_attempt'
p974
(lp975
S'0:00:00'
p976
aV1.25
p977
asS'part4_incorrect_attempt'
p978
(lp979
(S'-1 day, 23:57:22'
p980
V(1 + 4 + 9 + 16) / 4 - ( 4 + 3 + 2 + 1) / 4
p981
tp982
asg9
V2016-10-28 05:17:14
p983
sss.