(dp0
S'1'
p1
(dp2
S'rdabir'
p3
(dp4
S'part1_correct_attempt'
p5
(lp6
S'4:27:57'
p7
aV1-0.45
p8
asS'first_attempt'
p9
V2016-10-27 23:03:43
p10
sS'part1_incorrect_attempt'
p11
(lp12
(S'0:00:00'
p13
V1/3
p14
tp15
a(S'0:02:14'
p16
V1/2
p17
tp18
a(S'0:02:14'
p19
V1/2
p20
tp21
assS'AmirAssad'
p22
(dp23
S'part1_correct_attempt'
p24
(lp25
S'0:33:12'
p26
aV1
p27
asg9
V2016-10-28 01:26:13
p28
sS'part1_incorrect_attempt'
p29
(lp30
(S'0:00:00'
p31
V0.3
p32
tp33
a(S'0:27:34'
p34
V0.44
p35
tp36
a(S'0:27:34'
p37
V0.44
p38
tp39
a(S'0:28:07'
p40
V0.44
p41
tp42
a(S'0:29:55'
p43
V0.44
p44
tp45
a(S'0:30:18'
p46
V0.98
p47
tp48
a(S'0:32:26'
p49
V0.2
p50
tp51
assS'szh'
p52
(dp53
S'part1_correct_attempt'
p54
(lp55
S'0:17:46'
p56
aV0.55
p57
asg9
V2016-10-26 20:13:40
p58
sS'part1_incorrect_attempt'
p59
(lp60
(S'0:00:00'
p61
V0.6
p62
tp63
a(S'0:00:46'
p64
V0.52
p65
tp66
a(S'0:04:08'
p67
V0.7
p68
tp69
a(S'0:05:55'
p70
V0.52
p71
tp72
a(S'0:05:55'
p73
V0.52
p74
tp75
assS'Ian'
p76
(dp77
S'part1_correct_attempt'
p78
(lp79
S'1:34:26'
p80
aV.3
p81
asg9
V2016-10-25 23:50:58
p82
sS'part1_incorrect_attempt'
p83
(lp84
(S'0:00:00'
p85
V1-e^(-1.5*4)
p86
tp87
a(S'1:32:13'
p88
V.5
p89
tp90
a(S'1:33:07'
p91
V.6
p92
tp93
a(S'1:33:38'
p94
V.65
p95
tp96
a(S'1:34:01'
p97
V.70
p98
tp99
assS'piamsiri'
p100
(dp101
S'part1_correct_attempt'
p102
(lp103
S'0:03:06'
p104
aV0.4
p105
asg9
V2016-10-24 03:30:58
p106
sS'part1_incorrect_attempt'
p107
(lp108
(S'0:00:00'
p109
V0.3
p110
tp111
a(S'0:00:41'
p112
V0.65
p113
tp114
a(S'0:01:03'
p115
V0.6
p116
tp117
a(S'0:01:32'
p118
V0.5
p119
tp120
assS'VanessaC'
p121
(dp122
S'part1_correct_attempt'
p123
(lp124
S'0:27:02'
p125
aV.4
p126
asg9
V2016-10-27 18:35:13
p127
sS'part1_incorrect_attempt'
p128
(lp129
(S'0:00:00'
p130
V2/3.5
p131
tp132
a(S'0:00:00'
p133
V2/3.5
p134
tp135
a(S'0:02:47'
p136
V2/3.5
p137
tp138
a(S'0:02:47'
p139
V2/3.5
p140
tp141
a(S'0:03:31'
p142
V3.5/5
p143
tp144
a(S'0:03:31'
p145
V3.5/5
p146
tp147
a(S'0:04:57'
p148
V.29/.97
p149
tp150
assS'TrevorJuanitas'
p151
(dp152
S'part1_correct_attempt'
p153
(lp154
S'0:22:29'
p155
aV0.3
p156
asg9
V2016-10-28 05:18:18
p157
sS'part1_incorrect_attempt'
p158
(lp159
(S'0:00:00'
p160
V4/4.55
p161
tp162
a(S'0:00:00'
p163
V4/4.55
p164
tp165
a(S'0:00:52'
p166
V4/5
p167
tp168
a(S'0:00:52'
p169
V4/5
p170
tp171
a(S'0:02:06'
p172
V4/4.5
p173
tp174
a(S'0:18:56'
p175
V0.3/(1-e^(-4.5))
p176
tp177
assS'DChour'
p178
(dp179
S'part1_correct_attempt'
p180
(lp181
S'0:02:36'
p182
aV.86
p183
asg9
V2016-10-28 01:24:23
p184
sS'part1_incorrect_attempt'
p185
(lp186
(S'0:00:00'
p187
V1.5/.14
p188
tp189
a(S'0:00:22'
p190
V1.5
p191
tp192
a(S'0:02:36'
p193
V.86
p194
tp195
assS'ReneSanchez'
p196
(dp197
S'part1_correct_attempt'
p198
(lp199
S'21:35:24'
p200
aV0.55
p201
asg9
V2016-10-25 22:17:12
p202
sS'part1_incorrect_attempt'
p203
(lp204
(S'0:00:00'
p205
V0.05
p206
tp207
a(S'0:00:27'
p208
V0.50
p209
tp210
a(S'0:00:27'
p211
V0.50
p212
tp213
a(S'21:19:54'
p214
V1.0
p215
tp216
a(S'21:19:54'
p217
V1.0
p218
tp219
a(S'21:29:24'
p220
V0.7
p221
tp222
a(S'21:29:24'
p223
V0.7
p224
tp225
a(S'21:29:47'
p226
V0.3
p227
tp228
a(S'21:29:47'
p229
V0.3
p230
tp231
a(S'21:30:09'
p232
V0.1
p233
tp234
a(S'21:30:09'
p235
V0.1
p236
tp237
a(S'21:30:42'
p238
V0.15
p239
tp240
a(S'21:30:42'
p241
V0.15
p242
tp243
a(S'21:31:06'
p244
V0.2
p245
tp246
a(S'21:31:06'
p247
V0.2
p248
tp249
a(S'21:31:38'
p250
V0.4
p251
tp252
a(S'21:31:38'
p253
V0.4
p254
tp255
assS'til005'
p256
(dp257
S'part1_correct_attempt'
p258
(lp259
S'0:32:01'
p260
aV0.4
p261
asg9
V2016-10-27 21:54:37
p262
sS'part1_incorrect_attempt'
p263
(lp264
(S'0:00:00'
p265
V1.5
p266
tp267
a(S'0:00:00'
p268
V1.5
p269
tp270
a(S'0:02:26'
p271
V0.0025
p272
tp273
a(S'0:02:26'
p274
V0.0025
p275
tp276
a(S'0:22:23'
p277
V0.25/1.414
p278
tp279
a(S'0:22:23'
p280
V0.25/1.414
p281
tp282
a(S'0:23:10'
p283
V0.25/sqrt(2)
p284
tp285
a(S'0:23:10'
p286
V0.25/sqrt(2)
p287
tp288
a(S'0:27:50'
p289
V0.29
p290
tp291
a(S'0:27:50'
p292
V0.29
p293
tp294
a(S'0:29:21'
p295
V0.32
p296
tp297
a(S'0:29:21'
p298
V0.32
p299
tp300
a(S'0:30:01'
p301
V0.25
p302
tp303
a(S'0:30:01'
p304
V0.25
p305
tp306
assS'HansGamboa'
p307
(dp308
S'part1_correct_attempt'
p309
(lp310
S'0:09:02'
p311
aV0.55
p312
asg9
V2016-10-28 04:49:58
p313
sS'part1_incorrect_attempt'
p314
(lp315
(S'0:00:00'
p316
V5.0
p317
tp318
a(S'0:00:00'
p319
V5.0
p320
tp321
a(S'0:01:45'
p322
V0.05
p323
tp324
a(S'0:01:45'
p325
V0.05
p326
tp327
a(S'0:02:08'
p328
V5.5
p329
tp330
a(S'0:02:08'
p331
V5.5
p332
tp333
a(S'0:03:27'
p334
V0.5
p335
tp336
a(S'0:03:27'
p337
V0.5
p338
tp339
a(S'0:03:51'
p340
V0.25
p341
tp342
a(S'0:03:51'
p343
V0.25
p344
tp345
a(S'0:04:13'
p346
V0.15
p347
tp348
a(S'0:04:13'
p349
V0.15
p350
tp351
a(S'0:04:35'
p352
V1.0
p353
tp354
a(S'0:04:35'
p355
V1.0
p356
tp357
a(S'0:05:32'
p358
V0.7
p359
tp360
a(S'0:05:32'
p361
V0.7
p362
tp363
assS'AndrewYang24'
p364
(dp365
S'part1_correct_attempt'
p366
(lp367
S'0:08:42'
p368
aV0.4
p369
asg9
V2016-10-27 23:25:07
p370
sS'part1_incorrect_attempt'
p371
(lp372
(S'0:00:00'
p373
V0.97
p374
tp375
a(S'0:00:00'
p376
V0.97
p377
tp378
a(S'0:06:33'
p379
V0.95
p380
tp381
a(S'0:06:33'
p382
V0.95
p383
tp384
a(S'0:06:58'
p385
V0.9
p386
tp387
a(S'0:06:58'
p388
V0.9
p389
tp390
assS'KabirGogia'
p391
(dp392
S'part1_correct_attempt'
p393
(lp394
S'0:04:24'
p395
aV0.6
p396
asg9
V2016-10-28 03:02:30
p397
sS'part1_incorrect_attempt'
p398
(lp399
(S'0:00:00'
p400
V0.7
p401
tp402
assS'rsamuail'
p403
(dp404
S'part1_correct_attempt'
p405
(lp406
S'4:06:55'
p407
aV.4
p408
asg9
V2016-10-27 22:00:35
p409
sS'part1_incorrect_attempt'
p410
(lp411
(S'0:00:00'
p412
V10.5
p413
tp414
a(S'0:53:36'
p415
V.18
p416
tp417
a(S'2:16:54'
p418
V.18
p419
tp420
a(S'2:16:54'
p421
V.18
p422
tp423
a(S'2:20:00'
p424
V4.5
p425
tp426
a(S'2:20:00'
p427
V4.5
p428
tp429
a(S'2:34:17'
p430
V4.5
p431
tp432
a(S'2:34:17'
p433
V4.5
p434
tp435
a(S'2:35:58'
p436
V.19
p437
tp438
a(S'2:35:58'
p439
V.19
p440
tp441
a(S'2:36:22'
p442
V.81
p443
tp444
a(S'2:36:22'
p445
V.81
p446
tp447
a(S'2:47:43'
p448
V.3
p449
tp450
a(S'2:47:43'
p451
V.3
p452
tp453
a(S'2:48:06'
p454
V.25
p455
tp456
a(S'2:48:06'
p457
V.25
p458
tp459
a(S'2:49:59'
p460
V.23
p461
tp462
a(S'2:49:59'
p463
V.23
p464
tp465
a(S'2:51:21'
p466
V.95
p467
tp468
a(S'2:51:21'
p469
V.95
p470
tp471
a(S'2:55:13'
p472
V.45
p473
tp474
a(S'2:55:13'
p475
V.45
p476
tp477
a(S'2:55:36'
p478
V.4
p479
tp480
a(S'2:55:36'
p481
V.4
p482
tp483
a(S'3:13:35'
p484
V.98
p485
tp486
a(S'3:13:35'
p487
V.98
p488
tp489
a(S'3:14:00'
p490
V.02
p491
tp492
a(S'3:14:00'
p493
V.02
p494
tp495
a(S'3:14:30'
p496
V.03
p497
tp498
a(S'3:14:30'
p499
V.03
p500
tp501
a(S'3:16:54'
p502
V.45
p503
tp504
a(S'3:16:54'
p505
V.45
p506
tp507
a(S'3:37:21'
p508
V.27
p509
tp510
a(S'3:37:21'
p511
V.27
p512
tp513
a(S'3:38:46'
p514
V.24
p515
tp516
a(S'3:38:46'
p517
V.24
p518
tp519
a(S'4:01:56'
p520
V.27
p521
tp522
a(S'4:01:56'
p523
V.27
p524
tp525
a(S'4:02:21'
p526
V.73
p527
tp528
a(S'4:02:21'
p529
V.73
p530
tp531
a(S'4:04:42'
p532
V.6
p533
tp534
a(S'4:04:42'
p535
V.6
p536
tp537
a(S'4:06:30'
p538
V.6
p539
tp540
a(S'4:06:30'
p541
V.6
p542
tp543
a(S'4:06:55'
p544
V.4
p545
tp546
assS'Ryan_Yi'
p547
(dp548
S'part1_correct_attempt'
p549
(lp550
S'2 days, 22:41:03'
p551
aV0.55
p552
asg9
V2016-10-23 04:18:20
p553
sS'part1_incorrect_attempt'
p554
(lp555
(S'0:00:00'
p556
V0.5
p557
tp558
a(S'0:00:00'
p559
V0.5
p560
tp561
a(S'0:01:07'
p562
V0.5
p563
tp564
a(S'0:01:07'
p565
V0.5
p566
tp567
a(S'0:01:53'
p568
V0.5
p569
tp570
a(S'2 days, 20:43:03'
p571
V0.7
p572
tp573
a(S'2 days, 20:43:03'
p574
V0.7
p575
tp576
a(S'2 days, 20:44:10'
p577
V1.0
p578
tp579
a(S'2 days, 20:44:10'
p580
V1.0
p581
tp582
a(S'2 days, 20:46:00'
p583
V0.7
p584
tp585
a(S'2 days, 20:46:00'
p586
V0.7
p587
tp588
a(S'2 days, 20:46:33'
p589
V0.5
p590
tp591
a(S'2 days, 20:46:33'
p592
V0.5
p593
tp594
a(S'2 days, 21:09:46'
p595
V0.48
p596
tp597
a(S'2 days, 21:09:46'
p598
V0.48
p599
tp600
a(S'2 days, 21:43:02'
p601
V0.48
p602
tp603
a(S'2 days, 21:43:02'
p604
V0.48
p605
tp606
a(S'2 days, 21:44:22'
p607
V0.52
p608
tp609
a(S'2 days, 21:44:22'
p610
V0.52
p611
tp612
a(S'2 days, 22:01:47'
p613
V0.52
p614
tp615
a(S'2 days, 22:01:47'
p616
V0.52
p617
tp618
assS'PhillipJo'
p619
(dp620
S'part1_correct_attempt'
p621
(lp622
S'1 day, 18:07:34'
p623
aV0.55
p624
asg9
V2016-10-25 07:27:54
p625
sS'part1_incorrect_attempt'
p626
(lp627
(S'0:00:00'
p628
V0.05
p629
tp630
a(S'0:09:37'
p631
V0.5
p632
tp633
a(S'0:10:55'
p634
V0.52
p635
tp636
a(S'0:12:29'
p637
V0.8
p638
tp639
a(S'0:15:55'
p640
V0.75
p641
tp642
a(S'0:17:19'
p643
V0.05
p644
tp645
a(S'1 day, 17:56:22'
p646
V0.60
p647
tp648
a(S'1 day, 18:02:34'
p649
V0.60
p650
tp651
a(S'1 day, 18:02:56'
p652
V0.60912
p653
tp654
a(S'1 day, 18:03:58'
p655
V0.40
p656
tp657
assS'jih089'
p658
(dp659
S'part1_correct_attempt'
p660
(lp661
S'0:05:11'
p662
aV0.55
p663
asg9
V2016-10-22 05:46:15
p664
sS'part1_incorrect_attempt'
p665
(lp666
(S'0:00:00'
p667
V1/1.5
p668
tp669
a(S'0:00:00'
p670
V1/1.5
p671
tp672
a(S'0:02:05'
p673
V10^1.5
p674
tp675
a(S'0:02:05'
p676
V10^1.5
p677
tp678
assS'abelmont'
p679
(dp680
S'part1_correct_attempt'
p681
(lp682
S'2:27:16'
p683
aV.65
p684
asg9
V2016-10-27 03:58:11
p685
sS'part1_incorrect_attempt'
p686
(lp687
(S'0:00:00'
p688
V.05
p689
tp690
a(S'1:29:35'
p691
V1.329^-10
p692
tp693
a(S'1:31:01'
p694
V1.36
p695
tp696
a(S'1:35:04'
p697
V1.036554609
p698
tp699
a(S'1:36:00'
p700
V.9362428728
p701
tp702
a(S'1:36:30'
p703
V.9585343698
p704
tp705
a(S'1:49:59'
p706
V.09
p707
tp708
a(S'1:50:53'
p709
V.0316
p710
tp711
a(S'1:52:23'
p712
V.938966
p713
tp714
a(S'1:55:06'
p715
V.090416
p716
tp717
a(S'1:56:20'
p718
V.10
p719
tp720
a(S'1:56:42'
p721
V.95
p722
tp723
a(S'1:57:04'
p724
V.05
p725
tp726
a(S'2:09:58'
p727
V.90
p728
tp729
a(S'2:10:24'
p730
V.20
p731
tp732
a(S'2:10:59'
p733
V.95
p734
tp735
a(S'2:11:41'
p736
V.10
p737
tp738
a(S'2:15:13'
p739
V.95
p740
tp741
a(S'2:15:35'
p742
V.85
p743
tp744
a(S'2:15:57'
p745
V.80
p746
tp747
a(S'2:17:05'
p748
V.75
p749
tp750
a(S'2:17:57'
p751
V.70
p752
tp753
assS'JiaqiHuang'
p754
(dp755
S'part1_correct_attempt'
p756
(lp757
S'2:56:55'
p758
aV0.6
p759
asg9
V2016-10-27 17:44:50
p760
sS'part1_incorrect_attempt'
p761
(lp762
(S'0:00:00'
p763
V0.7
p764
tp765
a(S'0:17:35'
p766
V4.55/9.55
p767
tp768
a(S'0:20:29'
p769
V4.55/7.05
p770
tp771
a(S'0:20:29'
p772
V4.55/7.05
p773
tp774
a(S'0:20:55'
p775
V4.55/7.05
p776
tp777
a(S'1:08:11'
p778
V1/ (1-e^(-1.5)) 
p779
tp780
a(S'1:08:47'
p781
V1/ (1-e^(-4.5)) 
p782
tp783
a(S'1:11:16'
p784
V0.14/ (1-e^(-1.5)) 
p785
tp786
a(S'1:14:57'
p787
V1/0.14
p788
tp789
a(S'1:14:57'
p790
V1/0.14
p791
tp792
a(S'2:03:08'
p793
V1/0.14
p794
tp795
a(S'2:06:37'
p796
V0.15
p797
tp798
a(S'2:16:10'
p799
V0.15
p800
tp801
a(S'2:27:30'
p802
V0.7
p803
tp804
assS'AlexM'
p805
(dp806
S'part1_correct_attempt'
p807
(lp808
S'0:14:54'
p809
aV0.6
p810
asg9
V2016-10-26 00:09:23
p811
sS'part1_incorrect_attempt'
p812
(lp813
(S'0:00:00'
p814
V0.1
p815
tp816
assS'JonDo'
p817
(dp818
S'part1_correct_attempt'
p819
(lp820
S'0:08:49'
p821
aV0.300
p822
asg9
V2016-10-27 01:16:24
p823
sS'part1_incorrect_attempt'
p824
(lp825
(S'0:00:00'
p826
V121.028638
p827
tp828
a(S'0:03:58'
p829
V0.3/(1-(e^(-1.5(4.0))))
p830
tp831
assS'Steven_Natalius'
p832
(dp833
g9
V2016-10-27 04:03:49
p834
sS'part1_incorrect_attempt'
p835
(lp836
(S'0:00:00'
p837
V1.0-0.14
p838
tp839
a(S'0:01:55'
p840
V1-0.15
p841
tp842
a(S'0:06:38'
p843
V0.9
p844
tp845
a(S'0:07:14'
p846
V0.85
p847
tp848
assS'tsy'
p849
(dp850
S'part1_correct_attempt'
p851
(lp852
S'1:00:32'
p853
aV0.6
p854
asg9
V2016-10-27 02:25:04
p855
sS'part1_incorrect_attempt'
p856
(lp857
(S'0:00:00'
p858
V0.85
p859
tp860
a(S'0:23:18'
p861
V0.86/(1-(e^-6.75))
p862
tp863
a(S'0:23:18'
p864
V0.86/(1-(e^-6.75))
p865
tp866
a(S'0:34:36'
p867
V0.85
p868
tp869
a(S'0:34:36'
p870
V0.85
p871
tp872
a(S'0:35:06'
p873
V0.86
p874
tp875
a(S'0:35:06'
p876
V0.86
p877
tp878
a(S'0:53:08'
p879
V0.86
p880
tp881
a(S'0:53:08'
p882
V0.86
p883
tp884
a(S'0:53:36'
p885
V0.86
p886
tp887
a(S'0:53:36'
p888
V0.86
p889
tp890
a(S'0:56:26'
p891
V0.86
p892
tp893
a(S'0:56:26'
p894
V0.86
p895
tp896
assS'tommyt1109'
p897
(dp898
S'part1_correct_attempt'
p899
(lp900
S'0:16:46'
p901
aV.6
p902
asg9
V2016-10-26 00:15:45
p903
sS'part1_incorrect_attempt'
p904
(lp905
(S'0:00:00'
p906
V.15
p907
tp908
a(S'0:04:38'
p909
V.5
p910
tp911
a(S'0:15:32'
p912
V.35
p913
tp914
a(S'0:15:32'
p915
V.35
p916
tp917
assS'PriyankaK'
p918
(dp919
S'part1_correct_attempt'
p920
(lp921
S'1:57:04'
p922
aV0.7
p923
asg9
V2016-10-26 21:46:28
p924
sS'part1_incorrect_attempt'
p925
(lp926
(S'0:00:00'
p927
V0.4
p928
tp929
a(S'0:30:35'
p930
V0.46
p931
tp932
a(S'0:31:04'
p933
V0.45
p934
tp935
a(S'0:34:38'
p936
V0.4
p937
tp938
a(S'0:36:14'
p939
V0.35
p940
tp941
a(S'0:38:00'
p942
V6.5
p943
tp944
a(S'0:45:19'
p945
V0.45
p946
tp947
assS'bfalk'
p948
(dp949
S'part1_correct_attempt'
p950
(lp951
S'0:53:37'
p952
aV0.86 / 1.5
p953
asg9
V2016-10-25 21:52:33
p954
sS'part1_incorrect_attempt'
p955
(lp956
(S'0:00:00'
p957
V1.0-0.14
p958
tp959
a(S'0:00:00'
p960
V1.0-0.14
p961
tp962
a(S'0:18:53'
p963
V1.0-(0.14/2.5)
p964
tp965
a(S'0:18:53'
p966
V1.0-(0.14/2.5)
p967
tp968
a(S'0:33:22'
p969
V.575
p970
tp971
a(S'0:33:22'
p972
V.575
p973
tp974
a(S'0:44:35'
p975
V(1-0.14)/1.5
p976
tp977
a(S'0:44:35'
p978
V(1-0.14)/1.5
p979
tp980
a(S'0:51:53'
p981
V1-0.39
p982
tp983
a(S'0:51:53'
p984
V1-0.39
p985
tp986
a(S'0:53:37'
p987
V0.86 / 1.5
p988
tp989
assS'ddantas'
p990
(dp991
S'part1_correct_attempt'
p992
(lp993
S'0:01:59'
p994
aV0.65
p995
asg9
V2016-10-27 06:23:33
p996
sS'part1_incorrect_attempt'
p997
(lp998
(S'0:00:00'
p999
V.4
p1000
tp1001
assS'rrivasfe'
p1002
(dp1003
S'part1_correct_attempt'
p1004
(lp1005
S'22:13:39'
p1006
aV0.4
p1007
asg9
V2016-10-25 02:13:03
p1008
sS'part1_incorrect_attempt'
p1009
(lp1010
(S'0:00:00'
p1011
V0.68
p1012
tp1013
a(S'21:55:19'
p1014
V0.25
p1015
tp1016
assS'FrankHuang'
p1017
(dp1018
g9
V2016-10-28 01:50:58
p1019
sS'part1_incorrect_attempt'
p1020
(lp1021
(S'0:00:00'
p1022
V2.75
p1023
tp1024
assS'migil'
p1025
(dp1026
S'part1_correct_attempt'
p1027
(lp1028
S'0:16:20'
p1029
aV2.0
p1030
asg9
V2016-10-26 00:28:24
p1031
sS'part1_incorrect_attempt'
p1032
(lp1033
(S'0:00:00'
p1034
V0.25
p1035
tp1036
a(S'0:00:00'
p1037
V0.25
p1038
tp1039
a(S'0:00:23'
p1040
V2.0
p1041
tp1042
a(S'0:00:23'
p1043
V2.0
p1044
tp1045
a(S'0:03:17'
p1046
V2.0
p1047
tp1048
a(S'0:03:17'
p1049
V2.0
p1050
tp1051
a(S'0:05:29'
p1052
V0.25
p1053
tp1054
a(S'0:05:29'
p1055
V0.25
p1056
tp1057
a(S'0:05:55'
p1058
V0.251
p1059
tp1060
a(S'0:05:55'
p1061
V0.251
p1062
tp1063
a(S'0:14:23'
p1064
V0.251
p1065
tp1066
a(S'0:14:23'
p1067
V0.251
p1068
tp1069
a(S'0:16:20'
p1070
V2.0
p1071
tp1072
assS'URajkumar'
p1073
(dp1074
S'part1_correct_attempt'
p1075
(lp1076
S'0:07:22'
p1077
aV0.4
p1078
asg9
V2016-10-28 03:36:55
p1079
sS'part1_incorrect_attempt'
p1080
(lp1081
(S'0:00:00'
p1082
V0.25/(1-(1/e))
p1083
tp1084
assS'sokunev'
p1085
(dp1086
S'part1_correct_attempt'
p1087
(lp1088
S'0:00:00'
p1089
aV.95
p1090
asg9
V2016-10-28 06:52:32
p1091
sS'part1_incorrect_attempt'
p1092
(lp1093
(S'0:00:00'
p1094
V.95
p1095
tp1096
assS'brandon_vo'
p1097
(dp1098
S'part1_correct_attempt'
p1099
(lp1100
S'1:07:01'
p1101
aV0.55
p1102
asg9
V2016-10-27 19:35:00
p1103
sS'part1_incorrect_attempt'
p1104
(lp1105
(S'0:00:00'
p1106
V0.5
p1107
tp1108
a(S'0:58:33'
p1109
V0.52
p1110
tp1111
assS'YuqinWu'
p1112
(dp1113
S'part1_correct_attempt'
p1114
(lp1115
S'0:16:34'
p1116
aV0.6
p1117
asg9
V2016-10-26 00:03:30
p1118
sS'part1_incorrect_attempt'
p1119
(lp1120
(S'0:00:00'
p1121
V0.5
p1122
tp1123
a(S'0:06:17'
p1124
V0.42
p1125
tp1126
a(S'0:06:57'
p1127
V0.4
p1128
tp1129
a(S'0:07:46'
p1130
V0.45
p1131
tp1132
assS'kmesic'
p1133
(dp1134
S'part1_correct_attempt'
p1135
(lp1136
S'0:40:30'
p1137
aV0.40
p1138
asg9
V2016-10-26 22:38:04
p1139
sS'part1_incorrect_attempt'
p1140
(lp1141
(S'0:00:00'
p1142
V0.25/(1-e^(-0.5*2))
p1143
tp1144
a(S'0:00:40'
p1145
V0.25/(0.63)
p1146
tp1147
assS'kkhuong'
p1148
(dp1149
S'part1_correct_attempt'
p1150
(lp1151
S'0:04:43'
p1152
aV0.4
p1153
asg9
V2016-10-28 05:54:21
p1154
sS'part1_incorrect_attempt'
p1155
(lp1156
(S'0:00:00'
p1157
V0.5*e^(-0.5*3.5)
p1158
tp1159
a(S'0:00:00'
p1160
V0.5*e^(-0.5*3.5)
p1161
tp1162
a(S'0:00:45'
p1163
V0.5*e^(-0.5*3.5)
p1164
tp1165
a(S'0:00:45'
p1166
V0.5*e^(-0.5*3.5)
p1167
tp1168
assS'aliqbal'
p1169
(dp1170
S'part1_correct_attempt'
p1171
(lp1172
S'3 days, 6:12:49'
p1173
aV0.5
p1174
asg9
V2016-10-23 20:49:16
p1175
sS'part1_incorrect_attempt'
p1176
(lp1177
(S'0:00:00'
p1178
V5.0
p1179
tp1180
a(S'0:52:01'
p1181
V5.0
p1182
tp1183
a(S'0:57:24'
p1184
V2.5
p1185
tp1186
a(S'0:57:24'
p1187
V2.5
p1188
tp1189
a(S'1:30:08'
p1190
V1.0
p1191
tp1192
a(S'3:25:48'
p1193
V0.006737947
p1194
tp1195
a(S'3:25:48'
p1196
V0.006737947
p1197
tp1198
a(S'3 days, 6:12:49'
p1199
V0.5
p1200
tp1201
assS'QIQIWU'
p1202
(dp1203
S'part1_correct_attempt'
p1204
(lp1205
S'0:01:11'
p1206
aV0.7
p1207
asg9
V2016-10-28 04:06:08
p1208
sS'part1_incorrect_attempt'
p1209
(lp1210
(S'0:00:00'
p1211
V1.0
p1212
tp1213
assS'yjx99335'
p1214
(dp1215
S'part1_correct_attempt'
p1216
(lp1217
S'4:17:47'
p1218
aV0.55
p1219
asg9
V2016-10-27 20:06:34
p1220
sS'part1_incorrect_attempt'
p1221
(lp1222
(S'0:00:00'
p1223
V0.05
p1224
tp1225
a(S'0:23:02'
p1226
V0.5
p1227
tp1228
a(S'0:30:32'
p1229
V0.45
p1230
tp1231
a(S'0:33:40'
p1232
V2.5
p1233
tp1234
a(S'0:36:51'
p1235
V0.05
p1236
tp1237
a(S'3:43:31'
p1238
V0.05
p1239
tp1240
a(S'3:58:51'
p1241
V0.52
p1242
tp1243
a(S'3:59:31'
p1244
V0.08
p1245
tp1246
a(S'4:09:50'
p1247
V0.7
p1248
tp1249
a(S'4:10:45'
p1250
V0.5
p1251
tp1252
a(S'4:10:45'
p1253
V0.5
p1254
tp1255
a(S'4:16:41'
p1256
V0.7
p1257
tp1258
a(S'4:16:41'
p1259
V0.7
p1260
tp1261
assS'jar045'
p1262
(dp1263
S'part1_correct_attempt'
p1264
(lp1265
S'0:28:04'
p1266
aV0.4
p1267
asg9
V2016-10-25 03:11:21
p1268
sS'part1_incorrect_attempt'
p1269
(lp1270
(S'0:00:00'
p1271
V0.25
p1272
tp1273
a(S'0:00:22'
p1274
V0.93
p1275
tp1276
a(S'0:00:51'
p1277
V0.7
p1278
tp1279
a(S'0:07:46'
p1280
V1.5
p1281
tp1282
a(S'0:15:00'
p1283
V0.25
p1284
tp1285
a(S'0:20:11'
p1286
V0.3
p1287
tp1288
a(S'0:20:40'
p1289
V0.2
p1290
tp1291
a(S'0:21:23'
p1292
V0.1
p1293
tp1294
assS'a2evans'
p1295
(dp1296
S'part1_correct_attempt'
p1297
(lp1298
S'1 day, 0:35:20'
p1299
aV0.55
p1300
asg9
V2016-10-27 02:37:07
p1301
sS'part1_incorrect_attempt'
p1302
(lp1303
(S'0:00:00'
p1304
V1/5.5
p1305
tp1306
a(S'23:38:51'
p1307
V0.08
p1308
tp1309
a(S'23:45:09'
p1310
V0.05
p1311
tp1312
a(S'23:45:09'
p1313
V0.05
p1314
tp1315
a(S'23:46:56'
p1316
V0.05
p1317
tp1318
a(S'23:47:33'
p1319
V0.13
p1320
tp1321
a(S'23:48:29'
p1322
V0.95
p1323
tp1324
a(S'23:56:08'
p1325
V0.1266
p1326
tp1327
a(S'23:56:08'
p1328
V0.1266
p1329
tp1330
a(S'1 day, 0:04:07'
p1331
V0.13
p1332
tp1333
a(S'1 day, 0:04:07'
p1334
V0.13
p1335
tp1336
a(S'1 day, 0:07:27'
p1337
V0.05
p1338
tp1339
a(S'1 day, 0:07:27'
p1340
V0.05
p1341
tp1342
a(S'1 day, 0:07:51'
p1343
V0.10
p1344
tp1345
a(S'1 day, 0:07:51'
p1346
V0.10
p1347
tp1348
a(S'1 day, 0:08:17'
p1349
V0.15
p1350
tp1351
a(S'1 day, 0:08:17'
p1352
V0.15
p1353
tp1354
a(S'1 day, 0:09:03'
p1355
V0.20
p1356
tp1357
a(S'1 day, 0:09:03'
p1358
V0.20
p1359
tp1360
a(S'1 day, 0:09:28'
p1361
V0.25
p1362
tp1363
a(S'1 day, 0:09:28'
p1364
V0.25
p1365
tp1366
a(S'1 day, 0:09:53'
p1367
V0.30
p1368
tp1369
a(S'1 day, 0:09:53'
p1370
V0.30
p1371
tp1372
a(S'1 day, 0:10:31'
p1373
V0.35
p1374
tp1375
a(S'1 day, 0:10:31'
p1376
V0.35
p1377
tp1378
a(S'1 day, 0:12:01'
p1379
V0.40
p1380
tp1381
a(S'1 day, 0:12:01'
p1382
V0.40
p1383
tp1384
a(S'1 day, 0:12:41'
p1385
V0.45
p1386
tp1387
a(S'1 day, 0:12:41'
p1388
V0.45
p1389
tp1390
a(S'1 day, 0:17:27'
p1391
V0.50
p1392
tp1393
a(S'1 day, 0:17:27'
p1394
V0.50
p1395
tp1396
a(S'1 day, 0:17:52'
p1397
V0.60
p1398
tp1399
a(S'1 day, 0:17:52'
p1400
V0.60
p1401
tp1402
a(S'1 day, 0:19:53'
p1403
V1.034
p1404
tp1405
a(S'1 day, 0:19:53'
p1406
V1.034
p1407
tp1408
a(S'1 day, 0:28:37'
p1409
V0.65
p1410
tp1411
a(S'1 day, 0:28:37'
p1412
V0.65
p1413
tp1414
a(S'1 day, 0:29:00'
p1415
V0.70
p1416
tp1417
a(S'1 day, 0:29:00'
p1418
V0.70
p1419
tp1420
a(S'1 day, 0:29:23'
p1421
V0.75
p1422
tp1423
a(S'1 day, 0:29:23'
p1424
V0.75
p1425
tp1426
a(S'1 day, 0:31:30'
p1427
V0.80
p1428
tp1429
a(S'1 day, 0:31:30'
p1430
V0.80
p1431
tp1432
a(S'1 day, 0:31:54'
p1433
V0.85
p1434
tp1435
a(S'1 day, 0:31:54'
p1436
V0.85
p1437
tp1438
a(S'1 day, 0:34:04'
p1439
V0.90
p1440
tp1441
a(S'1 day, 0:34:04'
p1442
V0.90
p1443
tp1444
assS'Byung'
p1445
(dp1446
S'part1_correct_attempt'
p1447
(lp1448
S'3:50:19'
p1449
aV0.55
p1450
asg9
V2016-10-26 21:00:26
p1451
sS'part1_incorrect_attempt'
p1452
(lp1453
(S'0:00:00'
p1454
V0.035
p1455
tp1456
a(S'0:00:00'
p1457
V0.035
p1458
tp1459
a(S'3:32:07'
p1460
V0.35
p1461
tp1462
a(S'3:32:07'
p1463
V0.35
p1464
tp1465
a(S'3:39:33'
p1466
V0.05
p1467
tp1468
a(S'3:39:33'
p1469
V0.05
p1470
tp1471
a(S'3:42:12'
p1472
V0.05
p1473
tp1474
a(S'3:42:12'
p1475
V0.05
p1476
tp1477
a(S'3:44:57'
p1478
V0.05
p1479
tp1480
a(S'3:44:57'
p1481
V0.05
p1482
tp1483
a(S'3:45:57'
p1484
V0.05
p1485
tp1486
a(S'3:45:57'
p1487
V0.05
p1488
tp1489
assS'vincebai'
p1490
(dp1491
S'part1_correct_attempt'
p1492
(lp1493
S'0:12:11'
p1494
aV0.7
p1495
asg9
V2016-10-24 20:09:35
p1496
sS'part1_incorrect_attempt'
p1497
(lp1498
(S'0:00:00'
p1499
V0.44
p1500
tp1501
a(S'0:09:12'
p1502
V0.98
p1503
tp1504
assS'BrianaW'
p1505
(dp1506
S'part1_correct_attempt'
p1507
(lp1508
S'21:29:51'
p1509
aV0.65
p1510
asg9
V2016-10-26 02:46:57
p1511
sS'part1_incorrect_attempt'
p1512
(lp1513
(S'0:00:00'
p1514
Ve^(0.09/0.32)
p1515
tp1516
a(S'0:23:10'
p1517
V0.7
p1518
tp1519
a(S'0:25:10'
p1520
V0.35
p1521
tp1522
a(S'21:27:26'
p1523
V0.6
p1524
tp1525
a(S'21:28:18'
p1526
V0.5
p1527
tp1528
assS'ssolanki'
p1529
(dp1530
S'part1_correct_attempt'
p1531
(lp1532
S'0:04:06'
p1533
aV0.4
p1534
asg9
V2016-10-28 04:40:31
p1535
sS'part1_incorrect_attempt'
p1536
(lp1537
(S'0:00:00'
p1538
V0.395
p1539
tp1540
a(S'0:00:00'
p1541
V0.395
p1542
tp1543
assS'NickWong'
p1544
(dp1545
S'part1_correct_attempt'
p1546
(lp1547
S'11:30:38'
p1548
aV.7
p1549
asg9
V2016-10-27 06:47:28
p1550
sS'part1_incorrect_attempt'
p1551
(lp1552
(S'0:00:00'
p1553
V.44
p1554
tp1555
a(S'0:04:50'
p1556
V0.44
p1557
tp1558
a(S'0:09:23'
p1559
V.4
p1560
tp1561
a(S'0:10:27'
p1562
V0.45
p1563
tp1564
a(S'0:13:45'
p1565
V0.05
p1566
tp1567
a(S'0:25:05'
p1568
V.56
p1569
tp1570
a(S'0:31:17'
p1571
V9.5
p1572
tp1573
assS'djku'
p1574
(dp1575
S'part1_correct_attempt'
p1576
(lp1577
S'0:17:58'
p1578
aV.8
p1579
asg9
V2016-10-27 03:14:13
p1580
sS'part1_incorrect_attempt'
p1581
(lp1582
(S'0:00:00'
p1583
V.7
p1584
tp1585
a(S'0:00:00'
p1586
V.7
p1587
tp1588
a(S'0:09:53'
p1589
V.05
p1590
tp1591
a(S'0:16:23'
p1592
V.3
p1593
tp1594
a(S'0:16:47'
p1595
V.5
p1596
tp1597
a(S'0:17:58'
p1598
V.8
p1599
tp1600
assS'alvinyho'
p1601
(dp1602
S'part1_correct_attempt'
p1603
(lp1604
S'0:28:21'
p1605
aV.6
p1606
asg9
V2016-10-27 08:31:05
p1607
sS'part1_incorrect_attempt'
p1608
(lp1609
(S'0:00:00'
p1610
V.86
p1611
tp1612
a(S'0:15:12'
p1613
V.86
p1614
tp1615
assS'ShannonWang'
p1616
(dp1617
S'part1_correct_attempt'
p1618
(lp1619
S'4:04:39'
p1620
aV0.3
p1621
asg9
V2016-10-25 00:44:31
p1622
sS'part1_incorrect_attempt'
p1623
(lp1624
(S'0:00:00'
p1625
V4.48
p1626
tp1627
a(S'0:00:00'
p1628
V4.48
p1629
tp1630
a(S'0:00:46'
p1631
V4.48
p1632
tp1633
a(S'0:00:46'
p1634
V4.48
p1635
tp1636
a(S'0:01:20'
p1637
V4.48
p1638
tp1639
a(S'4:02:01'
p1640
V0.176
p1641
tp1642
a(S'4:02:01'
p1643
V0.176
p1644
tp1645
a(S'4:03:45'
p1646
V0.176
p1647
tp1648
a(S'4:03:45'
p1649
V0.176
p1650
tp1651
a(S'4:04:12'
p1652
V4.48
p1653
tp1654
a(S'4:04:12'
p1655
V4.48
p1656
tp1657
assS'Ken'
p1658
(dp1659
S'part1_correct_attempt'
p1660
(lp1661
S'1 day, 22:18:18'
p1662
aV0.4
p1663
asg9
V2016-10-26 01:01:13
p1664
sS'part1_incorrect_attempt'
p1665
(lp1666
(S'0:00:00'
p1667
V2.05238
p1668
tp1669
a(S'0:00:00'
p1670
V2.05238
p1671
tp1672
a(S'0:14:13'
p1673
V2.05238
p1674
tp1675
a(S'0:14:13'
p1676
V2.05238
p1677
tp1678
a(S'0:37:47'
p1679
V0.7
p1680
tp1681
a(S'0:37:47'
p1682
V0.7
p1683
tp1684
assS'alidding'
p1685
(dp1686
S'part1_correct_attempt'
p1687
(lp1688
S'0:29:09'
p1689
aV.55
p1690
asg9
V2016-10-27 15:57:00
p1691
sS'part1_incorrect_attempt'
p1692
(lp1693
(S'0:00:00'
p1694
V.95
p1695
tp1696
a(S'0:00:00'
p1697
V.95
p1698
tp1699
a(S'0:04:09'
p1700
V1/(1-e^(-5))
p1701
tp1702
a(S'0:04:09'
p1703
V1/(1-e^(-5))
p1704
tp1705
a(S'0:05:02'
p1706
V.95/(1-e^(-2.5))
p1707
tp1708
a(S'0:05:02'
p1709
V.95/(1-e^(-2.5))
p1710
tp1711
a(S'0:06:39'
p1712
V1.0
p1713
tp1714
a(S'0:06:39'
p1715
V1.0
p1716
tp1717
a(S'0:09:37'
p1718
V.05
p1719
tp1720
a(S'0:09:37'
p1721
V.05
p1722
tp1723
a(S'0:16:45'
p1724
V0.95
p1725
tp1726
a(S'0:26:25'
p1727
V.5
p1728
tp1729
a(S'0:26:25'
p1730
V.5
p1731
tp1732
assS'katielau'
p1733
(dp1734
S'part1_correct_attempt'
p1735
(lp1736
S'4 days, 19:21:16'
p1737
aV.4
p1738
asg9
V2016-10-22 23:48:06
p1739
sS'part1_incorrect_attempt'
p1740
(lp1741
(S'0:00:00'
p1742
V.5
p1743
tp1744
a(S'4 days, 19:11:59'
p1745
V1.3
p1746
tp1747
assS'njcrow'
p1748
(dp1749
S'part1_correct_attempt'
p1750
(lp1751
S'4 days, 8:41:29'
p1752
aV.7
p1753
asg9
V2016-10-23 18:39:55
p1754
sS'part1_incorrect_attempt'
p1755
(lp1756
(S'0:00:00'
p1757
V.44
p1758
tp1759
a(S'4 days, 7:17:10'
p1760
V.98
p1761
tp1762
a(S'4 days, 7:18:08'
p1763
V.02
p1764
tp1765
a(S'4 days, 7:18:37'
p1766
V.44
p1767
tp1768
a(S'4 days, 7:19:00'
p1769
V.66
p1770
tp1771
a(S'4 days, 7:21:39'
p1772
V.56
p1773
tp1774
a(S'4 days, 7:21:39'
p1775
V.56
p1776
tp1777
a(S'4 days, 7:22:06'
p1778
V.56
p1779
tp1780
a(S'4 days, 7:23:15'
p1781
V.46
p1782
tp1783
a(S'4 days, 7:34:53'
p1784
V.44/(1-(e^-1))
p1785
tp1786
a(S'4 days, 7:35:23'
p1787
V.696
p1788
tp1789
a(S'4 days, 7:36:24'
p1790
V(1-(e^-1))
p1791
tp1792
a(S'4 days, 7:37:07'
p1793
V.46/(1-(e^-1))
p1794
tp1795
a(S'4 days, 7:48:22'
p1796
V(1-.44)/(.56-.44)
p1797
tp1798
a(S'4 days, 8:11:02'
p1799
V.98-( (1-e^(-3.5)) * (.44/(1-e^(-1))))
p1800
tp1801
a(S'4 days, 8:11:02'
p1802
V.98-( (1-e^(-3.5)) * (.44/(1-e^(-1))))
p1803
tp1804
a(S'4 days, 8:11:25'
p1805
V.98-( (1-e^(-3.5)) * (.44/(1-e^(-1))))
p1806
tp1807
a(S'4 days, 8:11:25'
p1808
V.98-( (1-e^(-3.5)) * (.44/(1-e^(-1))))
p1809
tp1810
a(S'4 days, 8:29:30'
p1811
V.44
p1812
tp1813
a(S'4 days, 8:29:30'
p1814
V.44
p1815
tp1816
a(S'4 days, 8:29:56'
p1817
V.98
p1818
tp1819
a(S'4 days, 8:29:56'
p1820
V.98
p1821
tp1822
a(S'4 days, 8:30:21'
p1823
V1-(e^-1)
p1824
tp1825
a(S'4 days, 8:30:21'
p1826
V1-(e^-1)
p1827
tp1828
a(S'4 days, 8:31:04'
p1829
V.566
p1830
tp1831
a(S'4 days, 8:31:04'
p1832
V.566
p1833
tp1834
a(S'4 days, 8:31:41'
p1835
V.44/(1-e^(-1.5))
p1836
tp1837
a(S'4 days, 8:31:41'
p1838
V.44/(1-e^(-1.5))
p1839
tp1840
a(S'4 days, 8:32:04'
p1841
V.44/(1-e^(-.5))
p1842
tp1843
a(S'4 days, 8:32:04'
p1844
V.44/(1-e^(-.5))
p1845
tp1846
a(S'4 days, 8:34:10'
p1847
V.54
p1848
tp1849
a(S'4 days, 8:34:10'
p1850
V.54
p1851
tp1852
a(S'4 days, 8:34:48'
p1853
V.56
p1854
tp1855
a(S'4 days, 8:34:48'
p1856
V.56
p1857
tp1858
a(S'4 days, 8:35:19'
p1859
V.02
p1860
tp1861
a(S'4 days, 8:35:19'
p1862
V.02
p1863
tp1864
a(S'4 days, 8:35:42'
p1865
V.03
p1866
tp1867
a(S'4 days, 8:35:42'
p1868
V.03
p1869
tp1870
a(S'4 days, 8:36:06'
p1871
V.04
p1872
tp1873
a(S'4 days, 8:36:06'
p1874
V.04
p1875
tp1876
a(S'4 days, 8:36:30'
p1877
V.46
p1878
tp1879
a(S'4 days, 8:36:30'
p1880
V.46
p1881
tp1882
a(S'4 days, 8:36:53'
p1883
V.5
p1884
tp1885
a(S'4 days, 8:36:53'
p1886
V.5
p1887
tp1888
a(S'4 days, 8:37:16'
p1889
V.49
p1890
tp1891
a(S'4 days, 8:37:16'
p1892
V.49
p1893
tp1894
a(S'4 days, 8:37:46'
p1895
V.48
p1896
tp1897
a(S'4 days, 8:37:46'
p1898
V.48
p1899
tp1900
a(S'4 days, 8:38:10'
p1901
V.47
p1902
tp1903
a(S'4 days, 8:38:10'
p1904
V.47
p1905
tp1906
a(S'4 days, 8:38:35'
p1907
V.45
p1908
tp1909
a(S'4 days, 8:38:35'
p1910
V.45
p1911
tp1912
a(S'4 days, 8:38:59'
p1913
V.43
p1914
tp1915
a(S'4 days, 8:38:59'
p1916
V.43
p1917
tp1918
a(S'4 days, 8:39:24'
p1919
V.42
p1920
tp1921
a(S'4 days, 8:39:24'
p1922
V.42
p1923
tp1924
a(S'4 days, 8:39:50'
p1925
V.41
p1926
tp1927
a(S'4 days, 8:39:50'
p1928
V.41
p1929
tp1930
a(S'4 days, 8:40:14'
p1931
V.4
p1932
tp1933
a(S'4 days, 8:40:14'
p1934
V.4
p1935
tp1936
a(S'4 days, 8:40:42'
p1937
V.35
p1938
tp1939
a(S'4 days, 8:40:42'
p1940
V.35
p1941
tp1942
a(S'4 days, 8:41:05'
p1943
V.30
p1944
tp1945
a(S'4 days, 8:41:05'
p1946
V.30
p1947
tp1948
assS'Bsgreenb'
p1949
(dp1950
S'part1_correct_attempt'
p1951
(lp1952
S'1 day, 3:27:22'
p1953
aV0.65
p1954
asg9
V2016-10-25 23:06:58
p1955
sS'part1_incorrect_attempt'
p1956
(lp1957
(S'0:00:00'
p1958
V0.90
p1959
tp1960
a(S'1 day, 3:18:06'
p1961
V0.05
p1962
tp1963
a(S'1 day, 3:22:10'
p1964
V0.10
p1965
tp1966
a(S'1 day, 3:22:46'
p1967
V0.15
p1968
tp1969
a(S'1 day, 3:23:28'
p1970
V0.20
p1971
tp1972
a(S'1 day, 3:24:03'
p1973
V0.25
p1974
tp1975
a(S'1 day, 3:24:29'
p1976
V0.30
p1977
tp1978
a(S'1 day, 3:24:58'
p1979
V0.35
p1980
tp1981
a(S'1 day, 3:25:22'
p1982
V0.40
p1983
tp1984
a(S'1 day, 3:25:45'
p1985
V0.45
p1986
tp1987
a(S'1 day, 3:26:09'
p1988
V0.50
p1989
tp1990
a(S'1 day, 3:26:34'
p1991
V0.55
p1992
tp1993
a(S'1 day, 3:26:58'
p1994
V0.60
p1995
tp1996
assS'srrozen'
p1997
(dp1998
S'part1_correct_attempt'
p1999
(lp2000
S'0:01:58'
p2001
aV0.3
p2002
asg9
V2016-10-25 21:08:22
p2003
sS'part1_incorrect_attempt'
p2004
(lp2005
(S'0:00:00'
p2006
V1/1.5
p2007
tp2008
assS'danFlorencio'
p2009
(dp2010
S'part1_correct_attempt'
p2011
(lp2012
S'0:27:02'
p2013
aV1.5
p2014
asg9
V2016-10-27 09:53:20
p2015
sS'part1_incorrect_attempt'
p2016
(lp2017
(S'0:00:00'
p2018
V0.5
p2019
tp2020
a(S'0:27:02'
p2021
V1.5
p2022
tp2023
assS'gpagliar'
p2024
(dp2025
S'part1_correct_attempt'
p2026
(lp2027
S'18:24:47'
p2028
aV0.6
p2029
asg9
V2016-10-27 00:58:14
p2030
sS'part1_incorrect_attempt'
p2031
(lp2032
(S'0:00:00'
p2033
V((0.95-0.9)*(5-3.5))/2+(0.9-0.32)*(5-3.5)+(0.32)*(5-3.5)
p2034
tp2035
a(S'17:03:05'
p2036
V0.32
p2037
tp2038
a(S'17:03:36'
p2039
V0.9
p2040
tp2041
a(S'17:04:25'
p2042
V0.95
p2043
tp2044
a(S'17:04:25'
p2045
V0.95
p2046
tp2047
a(S'18:14:05'
p2048
V0.4
p2049
tp2050
a(S'18:15:55'
p2051
V0.25
p2052
tp2053
a(S'18:16:17'
p2054
V0.45
p2055
tp2056
a(S'18:22:08'
p2057
V0.4
p2058
tp2059
a(S'18:22:31'
p2060
V.4
p2061
tp2062
assS'yphilip'
p2063
(dp2064
g9
V2016-10-28 06:19:07
p2065
sS'part1_incorrect_attempt'
p2066
(lp2067
(S'0:00:00'
p2068
V0.15
p2069
tp2070
a(S'0:00:28'
p2071
V0.2
p2072
tp2073
a(S'0:00:55'
p2074
V0.25
p2075
tp2076
a(S'0:01:19'
p2077
V0.3
p2078
tp2079
a(S'0:08:10'
p2080
V0.4
p2081
tp2082
a(S'0:10:33'
p2083
V0.45
p2084
tp2085
a(S'0:11:05'
p2086
V0.25
p2087
tp2088
a(S'0:11:37'
p2089
V0.3
p2090
tp2091
a(S'0:12:07'
p2092
V0.6
p2093
tp2094
a(S'0:12:07'
p2095
V0.6
p2096
tp2097
a(S'0:15:23'
p2098
V0.2
p2099
tp2100
a(S'0:15:23'
p2101
V0.2
p2102
tp2103
a(S'0:15:49'
p2104
V0.15
p2105
tp2106
a(S'0:15:49'
p2107
V0.15
p2108
tp2109
a(S'0:27:38'
p2110
V2.35
p2111
tp2112
a(S'0:29:04'
p2113
V0.8
p2114
tp2115
assS'Kanurame'
p2116
(dp2117
S'part1_correct_attempt'
p2118
(lp2119
S'23:00:42'
p2120
aV.40
p2121
asg9
V2016-10-26 23:15:15
p2122
sS'part1_incorrect_attempt'
p2123
(lp2124
(S'0:00:00'
p2125
V.8
p2126
tp2127
a(S'0:01:09'
p2128
V1.33
p2129
tp2130
a(S'0:01:09'
p2131
V1.33
p2132
tp2133
a(S'0:09:02'
p2134
V1-e^(-2.5)
p2135
tp2136
a(S'0:09:02'
p2137
V1-e^(-2.5)
p2138
tp2139
a(S'0:10:02'
p2140
V1.0894254898338520133853459784523
p2141
tp2142
a(S'0:10:02'
p2143
V1.0894254898338520133853459784523
p2144
tp2145
a(S'0:14:41'
p2146
V1/(5+(e^(-2.5)-1)/.5)
p2147
tp2148
a(S'0:14:41'
p2149
V1/(5+(e^(-2.5)-1)/.5)
p2150
tp2151
a(S'0:15:24'
p2152
V0.31603864548042688023627404416251
p2153
tp2154
a(S'0:15:24'
p2155
V0.31603864548042688023627404416251
p2156
tp2157
a(S'0:18:02'
p2158
V1/(1-e^(-2.5))
p2159
tp2160
a(S'0:18:02'
p2161
V1/(1-e^(-2.5))
p2162
tp2163
a(S'0:20:09'
p2164
V.395
p2165
tp2166
a(S'0:20:09'
p2167
V.395
p2168
tp2169
a(S'0:20:53'
p2170
V.25/(1-e^(-1))
p2171
tp2172
a(S'0:20:53'
p2173
V.25/(1-e^(-1))
p2174
tp2175
assS'hunguyen'
p2176
(dp2177
S'part1_correct_attempt'
p2178
(lp2179
S'2 days, 7:13:59'
p2180
aV.65
p2181
asg9
V2016-10-25 21:55:29
p2182
sS'part1_incorrect_attempt'
p2183
(lp2184
(S'0:00:00'
p2185
V.5
p2186
tp2187
a(S'0:00:47'
p2188
V1.5
p2189
tp2190
a(S'0:01:42'
p2191
V.5*.05
p2192
tp2193
a(S'0:03:01'
p2194
V0.7
p2195
tp2196
a(S'2 days, 7:12:57'
p2197
V.4
p2198
tp2199
assS'wtchiu'
p2200
(dp2201
S'part1_correct_attempt'
p2202
(lp2203
S'0:26:11'
p2204
aV.4
p2205
asg9
V2016-10-28 03:03:11
p2206
sS'part1_incorrect_attempt'
p2207
(lp2208
(S'0:00:00'
p2209
V.97/(1-e^(-0.5*5.0))
p2210
tp2211
a(S'0:02:07'
p2212
V.25/(1-e^(-0.5*2.0))
p2213
tp2214
a(S'0:04:39'
p2215
V1-((.93-.25)*0.5*1.5)
p2216
tp2217
a(S'0:12:32'
p2218
V.97/(1-e^(-0.5*5))
p2219
tp2220
a(S'0:14:33'
p2221
V.93/(1-e^(-.5*3.5))
p2222
tp2223
assS'ccaine'
p2224
(dp2225
S'part1_correct_attempt'
p2226
(lp2227
S'0:07:50'
p2228
aV1.0068
p2229
asg9
V2016-10-28 00:07:42
p2230
sS'part1_incorrect_attempt'
p2231
(lp2232
(S'0:00:00'
p2233
V1.03
p2234
tp2235
a(S'0:00:00'
p2236
V1.03
p2237
tp2238
a(S'0:00:33'
p2239
V.59/(1-(e^-2.5))
p2240
tp2241
a(S'0:00:33'
p2242
V.59/(1-(e^-2.5))
p2243
tp2244
a(S'0:04:40'
p2245
V1.01
p2246
tp2247
a(S'0:04:40'
p2248
V1.01
p2249
tp2250
a(S'0:07:50'
p2251
V1.0068
p2252
tp2253
assS'djmoreno'
p2254
(dp2255
S'part1_correct_attempt'
p2256
(lp2257
S'0:18:55'
p2258
aV.55
p2259
asg9
V2016-10-27 09:41:30
p2260
sS'part1_incorrect_attempt'
p2261
(lp2262
(S'0:00:00'
p2263
V.0008
p2264
tp2265
a(S'0:07:02'
p2266
V.15
p2267
tp2268
a(S'0:07:02'
p2269
V.15
p2270
tp2271
assS'wesokuhara'
p2272
(dp2273
S'part1_correct_attempt'
p2274
(lp2275
S'1 day, 12:20:38'
p2276
aV0.6
p2277
asg9
V2016-10-26 18:10:08
p2278
sS'part1_incorrect_attempt'
p2279
(lp2280
(S'0:00:00'
p2281
V4.5
p2282
tp2283
a(S'0:00:00'
p2284
V4.5
p2285
tp2286
a(S'0:02:32'
p2287
V1.5
p2288
tp2289
a(S'0:02:32'
p2290
V1.5
p2291
tp2292
a(S'1 day, 9:54:58'
p2293
V1.5
p2294
tp2295
a(S'1 day, 9:54:58'
p2296
V1.5
p2297
tp2298
a(S'1 day, 9:58:17'
p2299
V1.5
p2300
tp2301
a(S'1 day, 9:58:17'
p2302
V1.5
p2303
tp2304
a(S'1 day, 10:11:15'
p2305
V0.99
p2306
tp2307
a(S'1 day, 10:11:15'
p2308
V0.99
p2309
tp2310
a(S'1 day, 11:18:21'
p2311
V0.95
p2312
tp2313
a(S'1 day, 11:18:21'
p2314
V0.95
p2315
tp2316
a(S'1 day, 11:18:44'
p2317
V0.9
p2318
tp2319
a(S'1 day, 11:18:44'
p2320
V0.9
p2321
tp2322
a(S'1 day, 11:19:07'
p2323
V0.85
p2324
tp2325
a(S'1 day, 11:19:07'
p2326
V0.85
p2327
tp2328
a(S'1 day, 11:23:23'
p2329
V0.95
p2330
tp2331
a(S'1 day, 11:23:23'
p2332
V0.95
p2333
tp2334
a(S'1 day, 11:23:47'
p2335
V0.75
p2336
tp2337
a(S'1 day, 11:23:47'
p2338
V0.75
p2339
tp2340
a(S'1 day, 11:43:34'
p2341
V0.7
p2342
tp2343
a(S'1 day, 11:43:34'
p2344
V0.7
p2345
tp2346
a(S'1 day, 12:19:13'
p2347
V0.65
p2348
tp2349
a(S'1 day, 12:19:13'
p2350
V0.65
p2351
tp2352
assS'JunnelReboquio'
p2353
(dp2354
S'part1_correct_attempt'
p2355
(lp2356
S'1 day, 7:16:35'
p2357
aV0.55
p2358
asg9
V2016-10-25 14:48:23
p2359
sS'part1_incorrect_attempt'
p2360
(lp2361
(S'0:00:00'
p2362
V4.5
p2363
tp2364
a(S'0:00:22'
p2365
V0.45
p2366
tp2367
a(S'0:16:16'
p2368
V1.5
p2369
tp2370
a(S'0:16:16'
p2371
V1.5
p2372
tp2373
a(S'1 day, 6:55:08'
p2374
V0.45
p2375
tp2376
a(S'1 day, 6:55:08'
p2377
V0.45
p2378
tp2379
a(S'1 day, 7:02:53'
p2380
V1.5
p2381
tp2382
a(S'1 day, 7:02:53'
p2383
V1.5
p2384
tp2385
a(S'1 day, 7:04:53'
p2386
V0.5
p2387
tp2388
a(S'1 day, 7:04:53'
p2389
V0.5
p2390
tp2391
a(S'1 day, 7:09:28'
p2392
V7.5
p2393
tp2394
a(S'1 day, 7:09:28'
p2395
V7.5
p2396
tp2397
assS'christhoperbernard'
p2398
(dp2399
S'part1_correct_attempt'
p2400
(lp2401
S'0:57:22'
p2402
aV0.3
p2403
asg9
V2016-10-27 02:17:56
p2404
sS'part1_incorrect_attempt'
p2405
(lp2406
(S'0:00:00'
p2407
V0.25
p2408
tp2409
a(S'0:50:15'
p2410
V0.05
p2411
tp2412
a(S'0:50:39'
p2413
V0.05*3
p2414
tp2415
assS'smkurtz'
p2416
(dp2417
g9
V2016-10-28 01:23:01
p2418
sS'part1_incorrect_attempt'
p2419
(lp2420
(S'0:00:00'
p2421
V0.95
p2422
tp2423
a(S'0:04:12'
p2424
V0.05
p2425
tp2426
a(S'0:40:46'
p2427
V2/3
p2428
tp2429
a(S'0:50:28'
p2430
V0.45
p2431
tp2432
assS'zow006'
p2433
(dp2434
S'part1_correct_attempt'
p2435
(lp2436
S'0:30:58'
p2437
aV0.40
p2438
asg9
V2016-10-28 00:11:26
p2439
sS'part1_incorrect_attempt'
p2440
(lp2441
(S'0:00:00'
p2442
V0.32
p2443
tp2444
a(S'0:00:00'
p2445
V0.32
p2446
tp2447
a(S'0:01:46'
p2448
V0.31
p2449
tp2450
a(S'0:01:46'
p2451
V0.31
p2452
tp2453
a(S'0:02:35'
p2454
V0.33
p2455
tp2456
a(S'0:02:35'
p2457
V0.33
p2458
tp2459
a(S'0:03:00'
p2460
V0.35
p2461
tp2462
a(S'0:03:00'
p2463
V0.35
p2464
tp2465
a(S'0:03:29'
p2466
V0.30
p2467
tp2468
a(S'0:03:29'
p2469
V0.30
p2470
tp2471
assS'MattBowen96'
p2472
(dp2473
S'part1_correct_attempt'
p2474
(lp2475
S'0:43:25'
p2476
aV.55
p2477
asg9
V2016-10-27 04:33:13
p2478
sS'part1_incorrect_attempt'
p2479
(lp2480
(S'0:00:00'
p2481
V0.461
p2482
tp2483
a(S'0:00:00'
p2484
V0.461
p2485
tp2486
a(S'0:40:23'
p2487
V0.461
p2488
tp2489
a(S'0:40:23'
p2490
V0.461
p2491
tp2492
assS'adejesus'
p2493
(dp2494
S'part1_correct_attempt'
p2495
(lp2496
S'8:08:33'
p2497
aV.60
p2498
asg9
V2016-10-27 15:23:12
p2499
sS'part1_incorrect_attempt'
p2500
(lp2501
(S'0:00:00'
p2502
V0.5/3
p2503
tp2504
a(S'0:02:39'
p2505
V0.5/3
p2506
tp2507
a(S'0:04:20'
p2508
V0.05/3
p2509
tp2510
a(S'0:09:32'
p2511
V0.05/0.5
p2512
tp2513
a(S'0:46:57'
p2514
V1.5-0.05
p2515
tp2516
a(S'0:48:21'
p2517
V0.1
p2518
tp2519
a(S'0:48:45'
p2520
V1.5 - 0.05
p2521
tp2522
a(S'0:49:49'
p2523
V0.05
p2524
tp2525
a(S'2:55:59'
p2526
V1.5-0.05
p2527
tp2528
a(S'3:24:28'
p2529
V.15
p2530
tp2531
a(S'3:25:19'
p2532
V.10
p2533
tp2534
a(S'3:26:18'
p2535
V.14
p2536
tp2537
a(S'7:49:28'
p2538
V0.85
p2539
tp2540
a(S'7:49:57'
p2541
V1.5-0.05
p2542
tp2543
a(S'7:56:26'
p2544
V.15
p2545
tp2546
a(S'7:57:26'
p2547
V1-.15
p2548
tp2549
a(S'7:57:49'
p2550
V.15-0.05
p2551
tp2552
a(S'8:06:16'
p2553
V0.1
p2554
tp2555
assS'rjanowit'
p2556
(dp2557
S'part1_correct_attempt'
p2558
(lp2559
S'0:21:25'
p2560
aV1-(0.09+0.02)
p2561
asg9
V2016-10-26 03:47:26
p2562
sS'part1_incorrect_attempt'
p2563
(lp2564
(S'0:00:00'
p2565
V0.09+0.02
p2566
tp2567
a(S'0:00:00'
p2568
V0.09+0.02
p2569
tp2570
a(S'0:21:25'
p2571
V1-(0.09+0.02)
p2572
tp2573
assS'codyndoan'
p2574
(dp2575
S'part1_correct_attempt'
p2576
(lp2577
S'0:35:42'
p2578
aV.6
p2579
asg9
V2016-10-25 22:33:01
p2580
sS'part1_incorrect_attempt'
p2581
(lp2582
(S'0:00:00'
p2583
V.5
p2584
tp2585
a(S'0:03:19'
p2586
V.85
p2587
tp2588
assS'WilliamZhu'
p2589
(dp2590
S'part1_correct_attempt'
p2591
(lp2592
S'22:38:35'
p2593
aV0.70
p2594
asg9
V2016-10-26 09:13:45
p2595
sS'part1_incorrect_attempt'
p2596
(lp2597
(S'0:00:00'
p2598
V0.1
p2599
tp2600
a(S'0:01:15'
p2601
V0.44
p2602
tp2603
assS'ctetreau'
p2604
(dp2605
S'part1_correct_attempt'
p2606
(lp2607
S'0:07:19'
p2608
aV0.4
p2609
asg9
V2016-10-27 21:04:58
p2610
sS'part1_incorrect_attempt'
p2611
(lp2612
(S'0:00:00'
p2613
V0.25
p2614
tp2615
assS'erxue'
p2616
(dp2617
S'part1_correct_attempt'
p2618
(lp2619
S'0:05:31'
p2620
aV0.40
p2621
asg9
V2016-10-28 05:40:06
p2622
sS'part1_incorrect_attempt'
p2623
(lp2624
(S'0:00:00'
p2625
V0.3955
p2626
tp2627
a(S'0:00:00'
p2628
V0.3955
p2629
tp2630
a(S'0:03:17'
p2631
V0.39549417672
p2632
tp2633
a(S'0:03:17'
p2634
V0.39549417672
p2635
tp2636
assS'vnoxdev'
p2637
(dp2638
S'part1_correct_attempt'
p2639
(lp2640
S'0:04:47'
p2641
aV0.3
p2642
asg9
V2016-10-25 19:21:17
p2643
sS'part1_incorrect_attempt'
p2644
(lp2645
(S'0:00:00'
p2646
V1-e^((-1.5)*(4))
p2647
tp2648
assS'yuhan'
p2649
(dp2650
S'part1_correct_attempt'
p2651
(lp2652
S'0:10:46'
p2653
aV0.6
p2654
asg9
V2016-10-28 04:43:15
p2655
sS'part1_incorrect_attempt'
p2656
(lp2657
(S'0:00:00'
p2658
V1.5*0.05
p2659
tp2660
assS'StefanWooding'
p2661
(dp2662
S'part1_correct_attempt'
p2663
(lp2664
S'2:27:29'
p2665
aV.60
p2666
asg9
V2016-10-27 23:06:29
p2667
sS'part1_incorrect_attempt'
p2668
(lp2669
(S'0:00:00'
p2670
V.42
p2671
tp2672
a(S'0:00:00'
p2673
V.42
p2674
tp2675
assS'A4chau'
p2676
(dp2677
S'part1_correct_attempt'
p2678
(lp2679
S'9:35:07'
p2680
aV0.6
p2681
asg9
V2016-10-25 20:31:44
p2682
sS'part1_incorrect_attempt'
p2683
(lp2684
(S'0:00:00'
p2685
V.05
p2686
tp2687
a(S'0:06:13'
p2688
V0.5
p2689
tp2690
a(S'0:06:13'
p2691
V0.5
p2692
tp2693
a(S'0:07:27'
p2694
V0.5
p2695
tp2696
a(S'0:13:30'
p2697
V0.86
p2698
tp2699
a(S'0:13:30'
p2700
V0.86
p2701
tp2702
a(S'0:49:29'
p2703
V.21
p2704
tp2705
a(S'0:49:29'
p2706
V.21
p2707
tp2708
a(S'0:50:34'
p2709
V.21
p2710
tp2711
a(S'0:50:34'
p2712
V.21
p2713
tp2714
a(S'9:28:34'
p2715
V(e^4.5)/1.5
p2716
tp2717
a(S'9:28:34'
p2718
V(e^4.5)/1.5
p2719
tp2720
a(S'9:30:35'
p2721
V(e^4.5)/1.5
p2722
tp2723
a(S'9:30:35'
p2724
V(e^4.5)/1.5
p2725
tp2726
a(S'9:31:24'
p2727
V(e^4.5)/1.5
p2728
tp2729
a(S'9:31:24'
p2730
V(e^4.5)/1.5
p2731
tp2732
a(S'9:31:48'
p2733
V(e^4.5)/1.5
p2734
tp2735
a(S'9:31:48'
p2736
V(e^4.5)/1.5
p2737
tp2738
assS'mbland'
p2739
(dp2740
S'part1_correct_attempt'
p2741
(lp2742
S'0:00:54'
p2743
aV0.4
p2744
asg9
V2016-10-28 02:19:03
p2745
sS'part1_incorrect_attempt'
p2746
(lp2747
(S'0:00:00'
p2748
V.25/(1-(1/e)) 
p2749
tp2750
assS'kballew00'
p2751
(dp2752
S'part1_correct_attempt'
p2753
(lp2754
S'1:37:09'
p2755
aV0.52
p2756
asg9
V2016-10-27 14:08:33
p2757
sS'part1_incorrect_attempt'
p2758
(lp2759
(S'0:00:00'
p2760
V0.52
p2761
tp2762
a(S'0:01:41'
p2763
V0.05
p2764
tp2765
a(S'0:03:00'
p2766
V0.1
p2767
tp2768
a(S'0:03:00'
p2769
V0.1
p2770
tp2771
a(S'0:05:04'
p2772
V0.1
p2773
tp2774
a(S'0:24:09'
p2775
V0.6
p2776
tp2777
a(S'0:24:09'
p2778
V0.6
p2779
tp2780
a(S'1:21:52'
p2781
V0.52
p2782
tp2783
a(S'1:21:52'
p2784
V0.52
p2785
tp2786
a(S'1:22:16'
p2787
V0.5
p2788
tp2789
a(S'1:22:16'
p2790
V0.5
p2791
tp2792
a(S'1:37:09'
p2793
V0.52
p2794
tp2795
assS'shadams'
p2796
(dp2797
S'part1_correct_attempt'
p2798
(lp2799
S'1 day, 5:14:44'
p2800
aV1-0.35
p2801
asg9
V2016-10-26 21:29:59
p2802
sS'part1_incorrect_attempt'
p2803
(lp2804
(S'0:00:00'
p2805
V1-e^-1
p2806
tp2807
a(S'3:32:09'
p2808
V0.36
p2809
tp2810
a(S'3:36:30'
p2811
V1-.5
p2812
tp2813
a(S'4:18:52'
p2814
V(.93)/( 1 - e^((-0.5)*(6))  )
p2815
tp2816
a(S'5:22:48'
p2817
V1-.5
p2818
tp2819
a(S'5:31:02'
p2820
V1-.4
p2821
tp2822
a(S'5:31:57'
p2823
V.85
p2824
tp2825
a(S'5:33:07'
p2826
V.9
p2827
tp2828
a(S'5:34:53'
p2829
V.05
p2830
tp2831
a(S'5:36:49'
p2832
V.95
p2833
tp2834
a(S'5:59:52'
p2835
V.95
p2836
tp2837
a(S'6:03:10'
p2838
V0.55
p2839
tp2840
a(S'20:04:04'
p2841
V1-(-4.55/11)
p2842
tp2843
a(S'20:05:48'
p2844
V1-e^(-0.5*4.55)
p2845
tp2846
a(S'20:09:40'
p2847
V1-e^(-0.5*5)
p2848
tp2849
a(S'20:12:24'
p2850
V0.09/( 1-e^(  -.05*4.55  )    )
p2851
tp2852
a(S'20:13:02'
p2853
V0.93/( 1-e^(  -.5*4.55  )    )
p2854
tp2855
a(S'20:13:46'
p2856
V0.95/(1-(e^(-.5*5.0)))
p2857
tp2858
a(S'1 day, 5:10:18'
p2859
V0.95
p2860
tp2861
assS'msp'
p2862
(dp2863
S'part1_correct_attempt'
p2864
(lp2865
S'0:21:58'
p2866
aV0.4
p2867
asg9
V2016-10-27 22:53:14
p2868
sS'part1_incorrect_attempt'
p2869
(lp2870
(S'0:00:00'
p2871
V1-e^(-0.5*2)
p2872
tp2873
a(S'0:15:27'
p2874
V0.25/(1-e^(-0.5*2))
p2875
tp2876
a(S'0:18:28'
p2877
V0.25/(1-0.37)
p2878
tp2879
a(S'0:21:26'
p2880
V0.39
p2881
tp2882
assS'safarsi'
p2883
(dp2884
S'part1_correct_attempt'
p2885
(lp2886
S'1:20:30'
p2887
aV0.55
p2888
asg9
V2016-10-27 01:29:29
p2889
sS'part1_incorrect_attempt'
p2890
(lp2891
(S'0:00:00'
p2892
V1/0.9994469156
p2893
tp2894
a(S'0:01:25'
p2895
V1/(1-(e^((-1.5)*5.0)))
p2896
tp2897
a(S'0:01:25'
p2898
V1/(1-(e^((-1.5)*5.0)))
p2899
tp2900
a(S'0:26:28'
p2901
V0.2083333614
p2902
tp2903
assS'MarianCrofts'
p2904
(dp2905
S'part1_correct_attempt'
p2906
(lp2907
S'1 day, 6:44:25'
p2908
aV.55
p2909
asg9
V2016-10-26 21:30:18
p2910
sS'part1_incorrect_attempt'
p2911
(lp2912
(S'0:00:00'
p2913
V0.7
p2914
tp2915
a(S'0:01:30'
p2916
V0.05
p2917
tp2918
a(S'0:01:53'
p2919
V1.05
p2920
tp2921
a(S'1 day, 6:11:45'
p2922
V1.5
p2923
tp2924
a(S'1 day, 6:18:44'
p2925
V.5
p2926
tp2927
a(S'1 day, 6:41:52'
p2928
V.45
p2929
tp2930
a(S'1 day, 6:42:17'
p2931
V.48
p2932
tp2933
a(S'1 day, 6:42:39'
p2934
V.5
p2935
tp2936
assS'RobinO'
p2937
(dp2938
S'part1_correct_attempt'
p2939
(lp2940
S'1:39:17'
p2941
aV.55
p2942
asg9
V2016-10-25 03:17:48
p2943
sS'part1_incorrect_attempt'
p2944
(lp2945
(S'0:00:00'
p2946
V.5
p2947
tp2948
a(S'0:19:48'
p2949
V.05
p2950
tp2951
a(S'0:20:36'
p2952
V.1
p2953
tp2954
a(S'1:28:10'
p2955
V.3
p2956
tp2957
a(S'1:28:33'
p2958
V.25
p2959
tp2960
a(S'1:30:03'
p2961
V.2
p2962
tp2963
a(S'1:30:27'
p2964
V.35
p2965
tp2966
a(S'1:30:27'
p2967
V.35
p2968
tp2969
a(S'1:30:57'
p2970
V.4
p2971
tp2972
a(S'1:30:57'
p2973
V.4
p2974
tp2975
a(S'1:31:35'
p2976
V.45
p2977
tp2978
a(S'1:31:35'
p2979
V.45
p2980
tp2981
a(S'1:31:59'
p2982
V.5
p2983
tp2984
a(S'1:31:59'
p2985
V.5
p2986
tp2987
a(S'1:32:24'
p2988
V.28
p2989
tp2990
a(S'1:32:24'
p2991
V.28
p2992
tp2993
assS'cameronEllis'
p2994
(dp2995
S'part1_correct_attempt'
p2996
(lp2997
S'1 day, 2:47:33'
p2998
aV0.55
p2999
asg9
V2016-10-25 23:41:30
p3000
sS'part1_incorrect_attempt'
p3001
(lp3002
(S'0:00:00'
p3003
V0.9
p3004
tp3005
a(S'0:00:35'
p3006
V0.87
p3007
tp3008
a(S'0:01:01'
p3009
V0.85
p3010
tp3011
a(S'1:52:25'
p3012
V0.05
p3013
tp3014
a(S'1:53:32'
p3015
V0.90
p3016
tp3017
a(S'1:54:10'
p3018
V1.0
p3019
tp3020
a(S'17:52:13'
p3021
V0.95
p3022
tp3023
a(S'17:56:47'
p3024
V0.8
p3025
tp3026
a(S'18:06:56'
p3027
V0.05
p3028
tp3029
a(S'18:07:19'
p3030
V0.8
p3031
tp3032
a(S'18:17:35'
p3033
V0.65
p3034
tp3035
a(S'18:17:58'
p3036
V0.60
p3037
tp3038
a(S'21:44:38'
p3039
V0.65
p3040
tp3041
a(S'21:44:38'
p3042
V0.65
p3043
tp3044
a(S'21:45:02'
p3045
V0.7
p3046
tp3047
a(S'21:45:02'
p3048
V0.7
p3049
tp3050
a(S'21:45:24'
p3051
V0.75
p3052
tp3053
a(S'21:45:24'
p3054
V0.75
p3055
tp3056
a(S'21:45:46'
p3057
V0.8
p3058
tp3059
a(S'21:45:46'
p3060
V0.8
p3061
tp3062
a(S'21:46:08'
p3063
V0.85
p3064
tp3065
a(S'21:46:08'
p3066
V0.85
p3067
tp3068
a(S'21:46:32'
p3069
V1.0
p3070
tp3071
a(S'1 day, 2:41:13'
p3072
V0.1
p3073
tp3074
a(S'1 day, 2:41:13'
p3075
V0.1
p3076
tp3077
a(S'1 day, 2:41:55'
p3078
V0.08
p3079
tp3080
a(S'1 day, 2:41:55'
p3081
V0.08
p3082
tp3083
a(S'1 day, 2:42:18'
p3084
V0.05
p3085
tp3086
a(S'1 day, 2:42:18'
p3087
V0.05
p3088
tp3089
a(S'1 day, 2:43:00'
p3090
V0.15
p3091
tp3092
a(S'1 day, 2:43:00'
p3093
V0.15
p3094
tp3095
a(S'1 day, 2:43:25'
p3096
V0.20
p3097
tp3098
a(S'1 day, 2:43:25'
p3099
V0.20
p3100
tp3101
a(S'1 day, 2:44:19'
p3102
V0.25
p3103
tp3104
a(S'1 day, 2:44:19'
p3105
V0.25
p3106
tp3107
a(S'1 day, 2:44:43'
p3108
V0.3
p3109
tp3110
a(S'1 day, 2:44:43'
p3111
V0.3
p3112
tp3113
a(S'1 day, 2:45:08'
p3114
V0.35
p3115
tp3116
a(S'1 day, 2:45:08'
p3117
V0.35
p3118
tp3119
a(S'1 day, 2:45:32'
p3120
V0.4
p3121
tp3122
a(S'1 day, 2:45:32'
p3123
V0.4
p3124
tp3125
a(S'1 day, 2:45:56'
p3126
V0.4
p3127
tp3128
a(S'1 day, 2:45:56'
p3129
V0.4
p3130
tp3131
a(S'1 day, 2:46:21'
p3132
V0.45
p3133
tp3134
a(S'1 day, 2:46:21'
p3135
V0.45
p3136
tp3137
a(S'1 day, 2:46:45'
p3138
V0.5
p3139
tp3140
a(S'1 day, 2:46:45'
p3141
V0.5
p3142
tp3143
assS'g5park'
p3144
(dp3145
g9
V2016-10-25 18:51:04
p3146
sS'part1_incorrect_attempt'
p3147
(lp3148
(S'0:00:00'
p3149
V0.05
p3150
tp3151
a(S'0:00:22'
p3152
V0.1
p3153
tp3154
assS'Melvinw'
p3155
(dp3156
S'part1_correct_attempt'
p3157
(lp3158
S'4:11:57'
p3159
aV0.4
p3160
asg9
V2016-10-28 02:47:12
p3161
sS'part1_incorrect_attempt'
p3162
(lp3163
(S'0:00:00'
p3164
V0.25
p3165
tp3166
a(S'0:00:00'
p3167
V0.25
p3168
tp3169
a(S'3:50:24'
p3170
V0.395
p3171
tp3172
a(S'3:56:51'
p3173
V0.45
p3174
tp3175
a(S'3:56:51'
p3176
V0.45
p3177
tp3178
a(S'3:57:18'
p3179
V0.45
p3180
tp3181
assS'KevinChrisayrton'
p3182
(dp3183
S'part1_correct_attempt'
p3184
(lp3185
S'0:06:52'
p3186
aV0.6
p3187
asg9
V2016-10-28 06:52:39
p3188
sS'part1_incorrect_attempt'
p3189
(lp3190
(S'0:00:00'
p3191
V0.7
p3192
tp3193
a(S'0:02:46'
p3194
V0.3
p3195
tp3196
a(S'0:04:13'
p3197
V0.3
p3198
tp3199
assS'evahuynh'
p3200
(dp3201
S'part1_correct_attempt'
p3202
(lp3203
S'15:05:32'
p3204
aV0.7
p3205
asg9
V2016-10-26 06:43:17
p3206
sS'part1_incorrect_attempt'
p3207
(lp3208
(S'0:00:00'
p3209
V0.5
p3210
tp3211
a(S'0:05:16'
p3212
V0.4
p3213
tp3214
assS'aliceh'
p3215
(dp3216
S'part1_correct_attempt'
p3217
(lp3218
S'1 day, 4:02:41'
p3219
aV.55
p3220
asg9
V2016-10-26 22:32:50
p3221
sS'part1_incorrect_attempt'
p3222
(lp3223
(S'0:00:00'
p3224
V0.10
p3225
tp3226
a(S'0:01:50'
p3227
V.95
p3228
tp3229
a(S'0:03:05'
p3230
V.955
p3231
tp3232
a(S'0:03:27'
p3233
V.9
p3234
tp3235
a(S'0:05:07'
p3236
V.1
p3237
tp3238
a(S'1 day, 3:40:30'
p3239
V.95
p3240
tp3241
a(S'1 day, 3:41:20'
p3242
V.9
p3243
tp3244
a(S'1 day, 3:41:43'
p3245
V.85
p3246
tp3247
a(S'1 day, 3:42:19'
p3248
V.8
p3249
tp3250
a(S'1 day, 3:48:42'
p3251
V.95
p3252
tp3253
a(S'1 day, 3:50:30'
p3254
V.15
p3255
tp3256
a(S'1 day, 3:50:58'
p3257
V.2
p3258
tp3259
a(S'1 day, 3:51:49'
p3260
V.05
p3261
tp3262
a(S'1 day, 3:52:14'
p3263
V.15
p3264
tp3265
a(S'1 day, 3:52:36'
p3266
V.3
p3267
tp3268
a(S'1 day, 3:53:19'
p3269
V.35
p3270
tp3271
a(S'1 day, 3:53:51'
p3272
V.4
p3273
tp3274
assS'rdrabik'
p3275
(dp3276
S'part1_correct_attempt'
p3277
(lp3278
S'6:11:58'
p3279
aV.300
p3280
asg9
V2016-10-27 21:42:17
p3281
sS'part1_incorrect_attempt'
p3282
(lp3283
(S'0:00:00'
p3284
V1.346
p3285
tp3286
a(S'0:04:35'
p3287
V1-e^(-1.5 * 4.0)
p3288
tp3289
a(S'6:11:10'
p3290
V.3 / (1-e^(-6))
p3291
tp3292
a(S'6:11:10'
p3293
V.3 / (1-e^(-6))
p3294
tp3295
a(S'6:11:33'
p3296
V.3 / (1-e^(-6))
p3297
tp3298
assS'maddymanu'
p3299
(dp3300
S'part1_correct_attempt'
p3301
(lp3302
S'0:09:23'
p3303
aV0.55
p3304
asg9
V2016-10-25 17:10:04
p3305
sS'part1_incorrect_attempt'
p3306
(lp3307
(S'0:00:00'
p3308
V0.7
p3309
tp3310
assS'EricO'
p3311
(dp3312
g9
V2016-10-28 03:44:45
p3313
sS'part1_incorrect_attempt'
p3314
(lp3315
(S'0:00:00'
p3316
V.55
p3317
tp3318
a(S'0:00:46'
p3319
V0.55
p3320
tp3321
a(S'0:05:10'
p3322
V0.55
p3323
tp3324
assS'oganguli'
p3325
(dp3326
S'part1_correct_attempt'
p3327
(lp3328
S'1 day, 4:28:53'
p3329
aV.87
p3330
asg9
V2016-10-26 23:17:12
p3331
sS'part1_incorrect_attempt'
p3332
(lp3333
(S'0:00:00'
p3334
V.86
p3335
tp3336
a(S'0:00:00'
p3337
V.86
p3338
tp3339
a(S'21:37:30'
p3340
V0.86
p3341
tp3342
a(S'21:37:30'
p3343
V0.86
p3344
tp3345
a(S'21:54:16'
p3346
V0.85
p3347
tp3348
a(S'21:54:16'
p3349
V0.85
p3350
tp3351
a(S'21:54:41'
p3352
V0.85
p3353
tp3354
a(S'21:54:41'
p3355
V0.85
p3356
tp3357
a(S'1 day, 2:31:02'
p3358
V1.00117
p3359
tp3360
a(S'1 day, 2:31:02'
p3361
V1.00117
p3362
tp3363
a(S'1 day, 2:33:11'
p3364
V.86
p3365
tp3366
a(S'1 day, 2:33:11'
p3367
V.86
p3368
tp3369
a(S'1 day, 2:39:42'
p3370
V.85
p3371
tp3372
a(S'1 day, 2:39:42'
p3373
V.85
p3374
tp3375
a(S'1 day, 2:59:54'
p3376
V.85
p3377
tp3378
a(S'1 day, 2:59:54'
p3379
V.85
p3380
tp3381
a(S'1 day, 3:00:18'
p3382
V.85
p3383
tp3384
a(S'1 day, 3:00:18'
p3385
V.85
p3386
tp3387
a(S'1 day, 3:02:01'
p3388
V.85
p3389
tp3390
a(S'1 day, 3:02:01'
p3391
V.85
p3392
tp3393
a(S'1 day, 3:06:09'
p3394
V.85
p3395
tp3396
a(S'1 day, 3:06:09'
p3397
V.85
p3398
tp3399
a(S'1 day, 3:25:27'
p3400
V.85
p3401
tp3402
a(S'1 day, 3:25:27'
p3403
V.85
p3404
tp3405
a(S'1 day, 4:19:39'
p3406
V.55
p3407
tp3408
a(S'1 day, 4:19:39'
p3409
V.55
p3410
tp3411
a(S'1 day, 4:20:46'
p3412
V1 - 0.14
p3413
tp3414
a(S'1 day, 4:20:46'
p3415
V1 - 0.14
p3416
tp3417
a(S'1 day, 4:23:07'
p3418
V 1 - 0.14
p3419
tp3420
a(S'1 day, 4:23:07'
p3421
V 1 - 0.14
p3422
tp3423
a(S'1 day, 4:25:53'
p3424
V.80
p3425
tp3426
a(S'1 day, 4:25:53'
p3427
V.80
p3428
tp3429
a(S'1 day, 4:26:18'
p3430
V.75
p3431
tp3432
a(S'1 day, 4:26:18'
p3433
V.75
p3434
tp3435
a(S'1 day, 4:26:42'
p3436
V.14
p3437
tp3438
a(S'1 day, 4:26:42'
p3439
V.14
p3440
tp3441
a(S'1 day, 4:28:28'
p3442
V.13
p3443
tp3444
a(S'1 day, 4:28:28'
p3445
V.13
p3446
tp3447
a(S'1 day, 4:28:53'
p3448
V.87
p3449
tp3450
assS'kevinpham'
p3451
(dp3452
S'part1_correct_attempt'
p3453
(lp3454
S'0:04:29'
p3455
aV.5
p3456
asg9
V2016-10-28 02:57:50
p3457
sS'part1_incorrect_attempt'
p3458
(lp3459
(S'0:00:00'
p3460
V2.5
p3461
tp3462
a(S'0:03:33'
p3463
V2.0
p3464
tp3465
a(S'0:03:33'
p3466
V2.0
p3467
tp3468
a(S'0:04:05'
p3469
V2.0
p3470
tp3471
a(S'0:04:29'
p3472
V.5
p3473
tp3474
assS'sunilraiyani'
p3475
(dp3476
S'part1_correct_attempt'
p3477
(lp3478
S'0:05:27'
p3479
aV0.4
p3480
asg9
V2016-10-25 06:06:56
p3481
sS'part1_incorrect_attempt'
p3482
(lp3483
(S'0:00:00'
p3484
V0.35
p3485
tp3486
assS'christywong'
p3487
(dp3488
S'part1_correct_attempt'
p3489
(lp3490
S'3:10:28'
p3491
aV0.4
p3492
asg9
V2016-10-25 23:08:36
p3493
sS'part1_incorrect_attempt'
p3494
(lp3495
(S'0:00:00'
p3496
V0.5
p3497
tp3498
a(S'0:06:53'
p3499
V0.29*0.05
p3500
tp3501
a(S'1:30:07'
p3502
V1-0.7
p3503
tp3504
a(S'1:31:21'
p3505
V0.25
p3506
tp3507
a(S'1:31:47'
p3508
V0.3
p3509
tp3510
a(S'1:34:11'
p3511
V0.95
p3512
tp3513
a(S'1:34:34'
p3514
V1.0
p3515
tp3516
a(S'1:39:16'
p3517
V0.3
p3518
tp3519
a(S'1:39:51'
p3520
V1-0.65
p3521
tp3522
a(S'1:48:17'
p3523
V0.9
p3524
tp3525
a(S'2:54:49'
p3526
V0.7
p3527
tp3528
a(S'2:55:23'
p3529
V0.5
p3530
tp3531
a(S'2:55:50'
p3532
V0.9
p3533
tp3534
a(S'2:56:22'
p3535
V0.6
p3536
tp3537
a(S'3:01:47'
p3538
V0.75
p3539
tp3540
a(S'3:02:58'
p3541
V2*0.25+0.05
p3542
tp3543
a(S'3:03:52'
p3544
V0.125*1.5+0.25+0.04
p3545
tp3546
assS'amt040'
p3547
(dp3548
S'part1_correct_attempt'
p3549
(lp3550
S'6:01:08'
p3551
aV.60
p3552
asg9
V2016-10-26 21:48:44
p3553
sS'part1_incorrect_attempt'
p3554
(lp3555
(S'0:00:00'
p3556
V.10
p3557
tp3558
a(S'0:06:02'
p3559
V.90
p3560
tp3561
a(S'0:06:02'
p3562
V.90
p3563
tp3564
a(S'0:06:37'
p3565
V.86
p3566
tp3567
a(S'0:06:37'
p3568
V.86
p3569
tp3570
a(S'0:07:00'
p3571
V.85
p3572
tp3573
a(S'0:07:00'
p3574
V.85
p3575
tp3576
a(S'0:10:02'
p3577
V.15
p3578
tp3579
a(S'0:10:02'
p3580
V.15
p3581
tp3582
a(S'0:26:18'
p3583
V.85
p3584
tp3585
a(S'0:26:18'
p3586
V.85
p3587
tp3588
a(S'0:29:07'
p3589
V.85
p3590
tp3591
a(S'0:29:07'
p3592
V.85
p3593
tp3594
a(S'0:29:36'
p3595
V.90
p3596
tp3597
a(S'5:40:52'
p3598
V.5
p3599
tp3600
assS'Von'
p3601
(dp3602
S'part1_correct_attempt'
p3603
(lp3604
S'2 days, 0:20:49'
p3605
aV0.55
p3606
asg9
V2016-10-25 05:58:17
p3607
sS'part1_incorrect_attempt'
p3608
(lp3609
(S'0:00:00'
p3610
V0.05
p3611
tp3612
a(S'0:02:38'
p3613
V0.5
p3614
tp3615
a(S'0:02:38'
p3616
V0.5
p3617
tp3618
a(S'0:03:05'
p3619
V0.5
p3620
tp3621
a(S'0:27:28'
p3622
V2/3
p3623
tp3624
a(S'0:30:49'
p3625
V0.45
p3626
tp3627
a(S'16:39:02'
p3628
V0.05
p3629
tp3630
a(S'1 day, 21:58:51'
p3631
V1/(1-(1/e))
p3632
tp3633
a(S'1 day, 22:03:01'
p3634
V1/(e^(-5))
p3635
tp3636
a(S'1 day, 23:33:05'
p3637
V0.45
p3638
tp3639
a(S'1 day, 23:33:33'
p3640
V0.4
p3641
tp3642
a(S'1 day, 23:55:52'
p3643
V0.9
p3644
tp3645
a(S'2 days, 0:17:43'
p3646
V0.85
p3647
tp3648
a(S'2 days, 0:18:18'
p3649
V0.8
p3650
tp3651
a(S'2 days, 0:18:49'
p3652
V0.75
p3653
tp3654
a(S'2 days, 0:19:14'
p3655
V0.7
p3656
tp3657
a(S'2 days, 0:20:01'
p3658
V0.65
p3659
tp3660
a(S'2 days, 0:20:24'
p3661
V0.6
p3662
tp3663
assS't2xu'
p3664
(dp3665
S'part1_correct_attempt'
p3666
(lp3667
S'0:01:47'
p3668
aV.55
p3669
asg9
V2016-10-27 03:20:24
p3670
sS'part1_incorrect_attempt'
p3671
(lp3672
(S'0:00:00'
p3673
V0.7
p3674
tp3675
assS'minhsuanyao'
p3676
(dp3677
S'part1_correct_attempt'
p3678
(lp3679
S'0:02:46'
p3680
aV0.4
p3681
asg9
V2016-10-26 05:33:08
p3682
sS'part1_incorrect_attempt'
p3683
(lp3684
(S'0:00:00'
p3685
V0.97
p3686
tp3687
a(S'0:01:08'
p3688
V0.5
p3689
tp3690
assS'jarninfang'
p3691
(dp3692
S'part1_correct_attempt'
p3693
(lp3694
S'0:18:35'
p3695
aV.55
p3696
asg9
V2016-10-27 18:34:06
p3697
sS'part1_incorrect_attempt'
p3698
(lp3699
(S'0:00:00'
p3700
V.13
p3701
tp3702
a(S'0:02:16'
p3703
V.92
p3704
tp3705
a(S'0:03:33'
p3706
V.9
p3707
tp3708
a(S'0:05:47'
p3709
V.95
p3710
tp3711
a(S'0:13:05'
p3712
V.05
p3713
tp3714
a(S'0:13:28'
p3715
V.95
p3716
tp3717
a(S'0:14:02'
p3718
V.1
p3719
tp3720
a(S'0:14:27'
p3721
V.15
p3722
tp3723
a(S'0:14:52'
p3724
V.2
p3725
tp3726
a(S'0:15:18'
p3727
V.7
p3728
tp3729
a(S'0:16:07'
p3730
V.9
p3731
tp3732
a(S'0:16:32'
p3733
V.25
p3734
tp3735
a(S'0:16:57'
p3736
V.35
p3737
tp3738
a(S'0:17:20'
p3739
V.4
p3740
tp3741
a(S'0:17:45'
p3742
V.45
p3743
tp3744
a(S'0:18:10'
p3745
V.5
p3746
tp3747
assS'Ankush_Sarow'
p3748
(dp3749
S'part1_correct_attempt'
p3750
(lp3751
S'4 days, 0:41:10'
p3752
aV0.55
p3753
asg9
V2016-10-23 18:48:55
p3754
sS'part1_incorrect_attempt'
p3755
(lp3756
(S'0:00:00'
p3757
V5.0
p3758
tp3759
a(S'0:04:55'
p3760
V2.5
p3761
tp3762
a(S'0:24:20'
p3763
V5.0
p3764
tp3765
a(S'2 days, 1:33:59'
p3766
V0.02
p3767
tp3768
a(S'2 days, 1:38:57'
p3769
V0.92
p3770
tp3771
a(S'2 days, 1:58:29'
p3772
V0.05
p3773
tp3774
a(S'2 days, 1:58:29'
p3775
V0.05
p3776
tp3777
a(S'2 days, 2:00:53'
p3778
V2*0.05
p3779
tp3780
a(S'2 days, 2:00:53'
p3781
V2*0.05
p3782
tp3783
a(S'2 days, 3:41:49'
p3784
V0.50
p3785
tp3786
a(S'2 days, 3:41:49'
p3787
V0.50
p3788
tp3789
a(S'2 days, 3:43:01'
p3790
V0.05
p3791
tp3792
a(S'2 days, 3:43:01'
p3793
V0.05
p3794
tp3795
a(S'2 days, 3:46:22'
p3796
V0.45
p3797
tp3798
a(S'2 days, 3:46:22'
p3799
V0.45
p3800
tp3801
a(S'4 days, 0:12:49'
p3802
V0.50
p3803
tp3804
a(S'4 days, 0:12:49'
p3805
V0.50
p3806
tp3807
a(S'4 days, 0:35:37'
p3808
V0.50
p3809
tp3810
a(S'4 days, 0:35:37'
p3811
V0.50
p3812
tp3813
assS'Guillermo'
p3814
(dp3815
S'part1_correct_attempt'
p3816
(lp3817
S'11:53:20'
p3818
aV.60
p3819
asg9
V2016-10-25 16:35:57
p3820
sS'part1_incorrect_attempt'
p3821
(lp3822
(S'0:00:00'
p3823
V.86
p3824
tp3825
a(S'0:00:00'
p3826
V.86
p3827
tp3828
a(S'0:00:38'
p3829
V.86
p3830
tp3831
a(S'0:00:38'
p3832
V.86
p3833
tp3834
a(S'0:01:57'
p3835
V.85
p3836
tp3837
a(S'0:01:57'
p3838
V.85
p3839
tp3840
a(S'0:22:15'
p3841
V.85
p3842
tp3843
a(S'0:22:15'
p3844
V.85
p3845
tp3846
a(S'11:44:22'
p3847
V.85
p3848
tp3849
a(S'11:44:22'
p3850
V.85
p3851
tp3852
a(S'11:44:47'
p3853
V.61
p3854
tp3855
a(S'11:44:47'
p3856
V.61
p3857
tp3858
a(S'11:45:44'
p3859
V.61
p3860
tp3861
a(S'11:45:44'
p3862
V.61
p3863
tp3864
a(S'11:47:39'
p3865
V1/(1-e^(-6.75))
p3866
tp3867
a(S'11:47:39'
p3868
V1/(1-e^(-6.75))
p3869
tp3870
a(S'11:50:58'
p3871
V1/(1-e^(-6.75))
p3872
tp3873
a(S'11:50:58'
p3874
V1/(1-e^(-6.75))
p3875
tp3876
a(S'11:51:35'
p3877
V1/(1-e^(-6.75))
p3878
tp3879
a(S'11:51:35'
p3880
V1/(1-e^(-6.75))
p3881
tp3882
a(S'11:52:12'
p3883
V1/(1-e^(-6.75))
p3884
tp3885
a(S'11:52:12'
p3886
V1/(1-e^(-6.75))
p3887
tp3888
a(S'11:52:53'
p3889
V1/(1-e^(-6.75))
p3890
tp3891
a(S'11:52:53'
p3892
V1/(1-e^(-6.75))
p3893
tp3894
assS'Riyang'
p3895
(dp3896
S'part1_correct_attempt'
p3897
(lp3898
S'4:02:00'
p3899
aV0.6
p3900
asg9
V2016-10-25 23:27:22
p3901
sS'part1_incorrect_attempt'
p3902
(lp3903
(S'0:00:00'
p3904
V0.37
p3905
tp3906
a(S'0:00:00'
p3907
V0.37
p3908
tp3909
a(S'0:02:29'
p3910
V0.4
p3911
tp3912
a(S'0:02:29'
p3913
V0.4
p3914
tp3915
a(S'0:02:53'
p3916
V0.35
p3917
tp3918
a(S'0:02:53'
p3919
V0.35
p3920
tp3921
a(S'0:06:44'
p3922
V0.42
p3923
tp3924
a(S'0:06:44'
p3925
V0.42
p3926
tp3927
a(S'0:07:08'
p3928
V0.45
p3929
tp3930
a(S'0:15:35'
p3931
V0.84
p3932
tp3933
a(S'0:16:26'
p3934
V0.21
p3935
tp3936
a(S'0:17:28'
p3937
V0.42
p3938
tp3939
a(S'0:17:28'
p3940
V0.42
p3941
tp3942
a(S'0:20:53'
p3943
V0.37/0.95
p3944
tp3945
a(S'0:21:19'
p3946
V0.37/0.95
p3947
tp3948
a(S'3:01:48'
p3949
V0.42
p3950
tp3951
a(S'3:01:48'
p3952
V0.42
p3953
tp3954
assS'Zhongting'
p3955
(dp3956
S'part1_correct_attempt'
p3957
(lp3958
S'2 days, 5:21:19'
p3959
aV0.6
p3960
asg9
V2016-10-22 16:57:21
p3961
sS'part1_incorrect_attempt'
p3962
(lp3963
(S'0:00:00'
p3964
V0.7
p3965
tp3966
a(S'0:39:37'
p3967
V0.7
p3968
tp3969
a(S'0:47:05'
p3970
V0.65
p3971
tp3972
a(S'2 days, 5:08:25'
p3973
V0.85
p3974
tp3975
a(S'2 days, 5:18:25'
p3976
V0.75
p3977
tp3978
a(S'2 days, 5:18:25'
p3979
V0.75
p3980
tp3981
a(S'2 days, 5:19:14'
p3982
V0.35
p3983
tp3984
a(S'2 days, 5:19:14'
p3985
V0.35
p3986
tp3987
a(S'2 days, 5:19:44'
p3988
V0.5
p3989
tp3990
a(S'2 days, 5:19:44'
p3991
V0.5
p3992
tp3993
a(S'2 days, 5:20:07'
p3994
V0.55
p3995
tp3996
assS'zkvick'
p3997
(dp3998
g9
V2016-10-28 04:59:49
p3999
sS'part1_incorrect_attempt'
p4000
(lp4001
(S'0:00:00'
p4002
V.86
p4003
tp4004
assS'Zeyi'
p4005
(dp4006
S'part1_correct_attempt'
p4007
(lp4008
S'0:13:15'
p4009
aV0.6
p4010
asg9
V2016-10-25 19:52:37
p4011
sS'part1_incorrect_attempt'
p4012
(lp4013
(S'0:00:00'
p4014
V0.3
p4015
tp4016
a(S'0:00:00'
p4017
V0.3
p4018
tp4019
a(S'0:06:10'
p4020
V0.55
p4021
tp4022
a(S'0:06:10'
p4023
V0.55
p4024
tp4025
assS'HaoDong'
p4026
(dp4027
S'part1_correct_attempt'
p4028
(lp4029
S'3 days, 17:25:35'
p4030
aV0.65
p4031
asg9
V2016-10-23 05:36:16
p4032
sS'part1_incorrect_attempt'
p4033
(lp4034
(S'0:00:00'
p4035
V0.93-0.09
p4036
tp4037
assS'd1vo'
p4038
(dp4039
S'part1_correct_attempt'
p4040
(lp4041
S'5:50:40'
p4042
aV0.55
p4043
asg9
V2016-10-25 17:15:56
p4044
sS'part1_incorrect_attempt'
p4045
(lp4046
(S'0:00:00'
p4047
V0.52
p4048
tp4049
a(S'0:17:27'
p4050
V0.6
p4051
tp4052
a(S'0:20:44'
p4053
V0.5
p4054
tp4055
a(S'0:34:28'
p4056
V0.4
p4057
tp4058
a(S'0:34:28'
p4059
V0.4
p4060
tp4061
a(S'5:50:09'
p4062
V0.45
p4063
tp4064
assS'rleaton'
p4065
(dp4066
S'part1_correct_attempt'
p4067
(lp4068
S'0:31:23'
p4069
aV.4
p4070
asg9
V2016-10-27 05:07:56
p4071
sS'part1_incorrect_attempt'
p4072
(lp4073
(S'0:00:00'
p4074
V.25
p4075
tp4076
assS'cpence'
p4077
(dp4078
S'part1_correct_attempt'
p4079
(lp4080
S'1:35:58'
p4081
aV0.6
p4082
asg9
V2016-10-28 04:54:32
p4083
sS'part1_incorrect_attempt'
p4084
(lp4085
(S'0:00:00'
p4086
V0.51
p4087
tp4088
a(S'0:03:03'
p4089
V0.37
p4090
tp4091
a(S'0:03:46'
p4092
V0.42
p4093
tp4094
a(S'0:23:25'
p4095
V0.1
p4096
tp4097
a(S'1:23:04'
p4098
V0.32/(1 - 1/(e^0.75))
p4099
tp4100
assS'thartopu'
p4101
(dp4102
S'part1_correct_attempt'
p4103
(lp4104
S'0:01:04'
p4105
aV0.4
p4106
asg9
V2016-10-23 19:58:58
p4107
sS'part1_incorrect_attempt'
p4108
(lp4109
(S'0:00:00'
p4110
V0.7
p4111
tp4112
assS'woguan'
p4113
(dp4114
S'part1_correct_attempt'
p4115
(lp4116
S'3 days, 2:39:18'
p4117
aV0.3
p4118
asg9
V2016-10-23 13:34:22
p4119
sS'part1_incorrect_attempt'
p4120
(lp4121
(S'0:00:00'
p4122
V0.7
p4123
tp4124
assS'kevin'
p4125
(dp4126
S'part1_correct_attempt'
p4127
(lp4128
S'0:02:41'
p4129
aV0.65
p4130
asg9
V2016-10-26 23:30:46
p4131
sS'part1_incorrect_attempt'
p4132
(lp4133
(S'0:00:00'
p4134
V0.4
p4135
tp4136
assS'shuang'
p4137
(dp4138
S'part1_correct_attempt'
p4139
(lp4140
S'1:04:35'
p4141
aV0.4
p4142
asg9
V2016-10-28 05:42:53
p4143
sS'part1_incorrect_attempt'
p4144
(lp4145
(S'0:00:00'
p4146
V0.1
p4147
tp4148
a(S'0:58:32'
p4149
V0.25/(1-e^(-1))
p4150
tp4151
a(S'1:03:41'
p4152
V0.395
p4153
tp4154
assS'JasonHuang'
p4155
(dp4156
S'part1_correct_attempt'
p4157
(lp4158
S'1 day, 5:51:27'
p4159
aV0.3
p4160
asg9
V2016-10-26 00:24:28
p4161
sS'part1_incorrect_attempt'
p4162
(lp4163
(S'0:00:00'
p4164
V0.5
p4165
tp4166
assS'Max'
p4167
(dp4168
S'part1_correct_attempt'
p4169
(lp4170
S'0:03:55'
p4171
aV0.40
p4172
asg9
V2016-10-28 03:59:59
p4173
sS'part1_incorrect_attempt'
p4174
(lp4175
(S'0:00:00'
p4176
V.3
p4177
tp4178
a(S'0:03:24'
p4179
V.25 / (1 - e^(-2*0.5))
p4180
tp4181
a(S'0:03:24'
p4182
V.25 / (1 - e^(-2*0.5))
p4183
tp4184
assS'axl004'
p4185
(dp4186
S'part1_correct_attempt'
p4187
(lp4188
S'4 days, 5:55:17'
p4189
aV0.55
p4190
asg9
V2016-10-23 21:13:11
p4191
sS'part1_incorrect_attempt'
p4192
(lp4193
(S'0:00:00'
p4194
V0.90
p4195
tp4196
a(S'4 days, 5:42:51'
p4197
V1.5
p4198
tp4199
a(S'4 days, 5:51:05'
p4200
V0.95
p4201
tp4202
a(S'4 days, 5:51:05'
p4203
V0.95
p4204
tp4205
a(S'4 days, 5:53:04'
p4206
V0.9
p4207
tp4208
a(S'4 days, 5:53:04'
p4209
V0.9
p4210
tp4211
a(S'4 days, 5:53:27'
p4212
V0.85
p4213
tp4214
a(S'4 days, 5:53:27'
p4215
V0.85
p4216
tp4217
a(S'4 days, 5:53:49'
p4218
V0.80
p4219
tp4220
a(S'4 days, 5:53:49'
p4221
V0.80
p4222
tp4223
assS'ottojursch'
p4224
(dp4225
S'part1_correct_attempt'
p4226
(lp4227
S'1:27:52'
p4228
aV0.55
p4229
asg9
V2016-10-26 20:52:14
p4230
sS'part1_incorrect_attempt'
p4231
(lp4232
(S'0:00:00'
p4233
V5/9.5
p4234
tp4235
a(S'0:00:00'
p4236
V5/9.5
p4237
tp4238
assS'dzech'
p4239
(dp4240
S'part1_correct_attempt'
p4241
(lp4242
S'2:04:07'
p4243
aV.6
p4244
asg9
V2016-10-27 01:19:52
p4245
sS'part1_incorrect_attempt'
p4246
(lp4247
(S'0:00:00'
p4248
V.86
p4249
tp4250
a(S'1:44:29'
p4251
V1-0.392
p4252
tp4253
assS'DannyChan'
p4254
(dp4255
S'part1_correct_attempt'
p4256
(lp4257
S'0:13:06'
p4258
aV0.3
p4259
asg9
V2016-10-27 05:15:57
p4260
sS'part1_incorrect_attempt'
p4261
(lp4262
(S'0:00:00'
p4263
V0.45
p4264
tp4265
a(S'0:00:00'
p4266
V0.45
p4267
tp4268
assS'dkeirouz'
p4269
(dp4270
S'part1_correct_attempt'
p4271
(lp4272
S'0:17:55'
p4273
aV0.4
p4274
asg9
V2016-10-28 04:18:16
p4275
sS'part1_incorrect_attempt'
p4276
(lp4277
(S'0:00:00'
p4278
V0.25
p4279
tp4280
a(S'0:00:00'
p4281
V0.25
p4282
tp4283
a(S'0:10:47'
p4284
V0.25/(1-1/e)
p4285
tp4286
assS'ThuanNguyen'
p4287
(dp4288
S'part1_correct_attempt'
p4289
(lp4290
S'21:27:16'
p4291
aV0.4
p4292
asg9
V2016-10-26 20:11:50
p4293
sS'part1_incorrect_attempt'
p4294
(lp4295
(S'0:00:00'
p4296
V0.25/4
p4297
tp4298
a(S'4:25:04'
p4299
V2.5*0.25
p4300
tp4301
a(S'4:25:04'
p4302
V2.5*0.25
p4303
tp4304
a(S'4:28:16'
p4305
V(3.5/2)*(0.25)
p4306
tp4307
a(S'5:53:58'
p4308
V0.25*0.25
p4309
tp4310
a(S'5:53:58'
p4311
V0.25*0.25
p4312
tp4313
a(S'5:56:47'
p4314
V1/8
p4315
tp4316
a(S'6:06:51'
p4317
V2.5*0.25
p4318
tp4319
a(S'6:20:51'
p4320
V1.35914
p4321
tp4322
a(S'6:20:51'
p4323
V1.35914
p4324
tp4325
a(S'21:14:17'
p4326
V0.25
p4327
tp4328
a(S'21:14:17'
p4329
V0.25
p4330
tp4331
a(S'21:15:39'
p4332
V0.29
p4333
tp4334
a(S'21:15:39'
p4335
V0.29
p4336
tp4337
a(S'21:19:59'
p4338
V0.395
p4339
tp4340
a(S'21:19:59'
p4341
V0.395
p4342
tp4343
assS'tdea'
p4344
(dp4345
S'part1_correct_attempt'
p4346
(lp4347
S'0:23:30'
p4348
aV.55
p4349
asg9
V2016-10-28 00:37:41
p4350
sS'part1_incorrect_attempt'
p4351
(lp4352
(S'0:00:00'
p4353
V.075
p4354
tp4355
a(S'0:14:45'
p4356
V.3
p4357
tp4358
a(S'0:23:04'
p4359
V0.3
p4360
tp4361
assS'JessKwok'
p4362
(dp4363
S'part1_correct_attempt'
p4364
(lp4365
S'0:53:31'
p4366
aV.4
p4367
asg9
V2016-10-26 23:13:47
p4368
sS'part1_incorrect_attempt'
p4369
(lp4370
(S'0:00:00'
p4371
V.25
p4372
tp4373
a(S'0:02:09'
p4374
V.93
p4375
tp4376
a(S'0:21:49'
p4377
V2.5
p4378
tp4379
assS'nolin'
p4380
(dp4381
g9
V2016-10-28 01:05:03
p4382
sS'part1_incorrect_attempt'
p4383
(lp4384
(S'0:00:00'
p4385
V.5
p4386
tp4387
a(S'0:19:08'
p4388
V.02
p4389
tp4390
a(S'0:19:42'
p4391
V4.5
p4392
tp4393
assS'Ryan'
p4394
(dp4395
S'part1_correct_attempt'
p4396
(lp4397
S'0:15:05'
p4398
aV0.55
p4399
asg9
V2016-10-25 17:09:49
p4400
sS'part1_incorrect_attempt'
p4401
(lp4402
(S'0:00:00'
p4403
V9/10
p4404
tp4405
a(S'0:00:45'
p4406
V10/11
p4407
tp4408
a(S'0:01:19'
p4409
V0.92
p4410
tp4411
a(S'0:09:37'
p4412
V0.9
p4413
tp4414
assS'Joonhan'
p4415
(dp4416
S'part1_correct_attempt'
p4417
(lp4418
S'23:33:14'
p4419
aV0.6
p4420
asg9
V2016-10-26 11:29:06
p4421
sS'part1_incorrect_attempt'
p4422
(lp4423
(S'0:00:00'
p4424
V0.7
p4425
tp4426
a(S'23:31:53'
p4427
V0.55
p4428
tp4429
a(S'23:32:42'
p4430
V0.5
p4431
tp4432
assS'tzc007'
p4433
(dp4434
S'part1_correct_attempt'
p4435
(lp4436
S'1:19:01'
p4437
aV0.7
p4438
asg9
V2016-10-26 00:40:58
p4439
sS'part1_incorrect_attempt'
p4440
(lp4441
(S'0:00:00'
p4442
V0.95
p4443
tp4444
a(S'0:00:00'
p4445
V0.95
p4446
tp4447
a(S'0:01:35'
p4448
V0.95
p4449
tp4450
a(S'0:07:04'
p4451
V0.45
p4452
tp4453
a(S'0:09:29'
p4454
V0.5
p4455
tp4456
a(S'0:10:20'
p4457
V0.6
p4458
tp4459
a(S'0:11:07'
p4460
V0.4
p4461
tp4462
a(S'0:11:58'
p4463
V0.45
p4464
tp4465
a(S'0:25:00'
p4466
V0.95
p4467
tp4468
a(S'1:02:04'
p4469
V0.99
p4470
tp4471
a(S'1:02:43'
p4472
V1.0
p4473
tp4474
a(S'1:03:58'
p4475
V0.98
p4476
tp4477
a(S'1:05:57'
p4478
V0.9
p4479
tp4480
a(S'1:06:22'
p4481
V0.85
p4482
tp4483
a(S'1:08:21'
p4484
V0.45
p4485
tp4486
a(S'1:08:46'
p4487
V0.55
p4488
tp4489
a(S'1:16:18'
p4490
V0.95
p4491
tp4492
a(S'1:17:57'
p4493
V0.5
p4494
tp4495
assS'Kevin_Pansawira'
p4496
(dp4497
S'part1_correct_attempt'
p4498
(lp4499
S'3:34:08'
p4500
aV0.6
p4501
asg9
V2016-10-27 18:11:59
p4502
sS'part1_incorrect_attempt'
p4503
(lp4504
(S'0:00:00'
p4505
V0.685
p4506
tp4507
a(S'0:01:51'
p4508
V0.7
p4509
tp4510
a(S'0:13:39'
p4511
V0.7
p4512
tp4513
a(S'0:16:22'
p4514
V0.86
p4515
tp4516
a(S'0:20:48'
p4517
V0.8
p4518
tp4519
a(S'0:21:15'
p4520
V0.9
p4521
tp4522
a(S'0:21:15'
p4523
V0.9
p4524
tp4525
a(S'3:21:46'
p4526
V0.55
p4527
tp4528
a(S'3:21:46'
p4529
V0.55
p4530
tp4531
a(S'3:30:54'
p4532
V0.5
p4533
tp4534
a(S'3:30:54'
p4535
V0.5
p4536
tp4537
assS'JonahCruz'
p4538
(dp4539
S'part1_correct_attempt'
p4540
(lp4541
S'0:10:49'
p4542
aV.3
p4543
asg9
V2016-10-25 05:33:06
p4544
sS'part1_incorrect_attempt'
p4545
(lp4546
(S'0:00:00'
p4547
V.25
p4548
tp4549
assS'karl-rummler'
p4550
(dp4551
S'part1_correct_attempt'
p4552
(lp4553
S'6:37:10'
p4554
aV.55
p4555
asg9
V2016-10-26 19:33:10
p4556
sS'part1_incorrect_attempt'
p4557
(lp4558
(S'0:00:00'
p4559
V1/1.5
p4560
tp4561
a(S'2:13:18'
p4562
V0.45
p4563
tp4564
a(S'2:16:23'
p4565
V0.45*((4.5)/(2.5))
p4566
tp4567
assS'KevinKlein'
p4568
(dp4569
S'part1_correct_attempt'
p4570
(lp4571
S'1 day, 6:09:26'
p4572
aV.4
p4573
asg9
V2016-10-25 21:22:17
p4574
sS'part1_incorrect_attempt'
p4575
(lp4576
(S'0:00:00'
p4577
V.25
p4578
tp4579
a(S'0:01:09'
p4580
V.5
p4581
tp4582
a(S'0:10:29'
p4583
V.32
p4584
tp4585
a(S'0:25:15'
p4586
V.3
p4587
tp4588
a(S'0:29:54'
p4589
V.35
p4590
tp4591
assS'Aidan'
p4592
(dp4593
S'part1_correct_attempt'
p4594
(lp4595
S'0:04:08'
p4596
aV.6
p4597
asg9
V2016-10-28 03:49:02
p4598
sS'part1_incorrect_attempt'
p4599
(lp4600
(S'0:00:00'
p4601
V0.35
p4602
tp4603
a(S'0:00:56'
p4604
V0.4
p4605
tp4606
a(S'0:02:20'
p4607
V.5
p4608
tp4609
a(S'0:02:44'
p4610
V.45
p4611
tp4612
assS'maxcjx'
p4613
(dp4614
S'part1_correct_attempt'
p4615
(lp4616
S'16:57:52'
p4617
aV0.65
p4618
asg9
V2016-10-25 03:42:29
p4619
sS'part1_incorrect_attempt'
p4620
(lp4621
(S'0:00:00'
p4622
V0.4
p4623
tp4624
a(S'2:19:58'
p4625
V0.61
p4626
tp4627
a(S'2:31:59'
p4628
V0.84
p4629
tp4630
a(S'16:30:30'
p4631
V0.64
p4632
tp4633
a(S'16:30:30'
p4634
V0.64
p4635
tp4636
assS'yazin-yousif'
p4637
(dp4638
S'part1_correct_attempt'
p4639
(lp4640
S'0:05:53'
p4641
aV0.55
p4642
asg9
V2016-10-27 17:23:26
p4643
sS'part1_incorrect_attempt'
p4644
(lp4645
(S'0:00:00'
p4646
V0.5
p4647
tp4648
a(S'0:03:00'
p4649
V0.6
p4650
tp4651
assS'kyle'
p4652
(dp4653
S'part1_correct_attempt'
p4654
(lp4655
S'18:46:43'
p4656
aV0.6
p4657
asg9
V2016-10-26 03:00:40
p4658
sS'part1_incorrect_attempt'
p4659
(lp4660
(S'0:00:00'
p4661
V0.86
p4662
tp4663
assS'k1siu'
p4664
(dp4665
S'part1_correct_attempt'
p4666
(lp4667
S'0:01:35'
p4668
aV0.55
p4669
asg9
V2016-10-23 18:52:46
p4670
sS'part1_incorrect_attempt'
p4671
(lp4672
(S'0:00:00'
p4673
V0.3
p4674
tp4675
a(S'0:01:12'
p4676
V0.6
p4677
tp4678
assS'denniskim'
p4679
(dp4680
S'part1_correct_attempt'
p4681
(lp4682
S'0:00:00'
p4683
aV0.98
p4684
asg9
V2016-10-28 00:43:00
p4685
sS'part1_incorrect_attempt'
p4686
(lp4687
(S'0:00:00'
p4688
V0.98
p4689
tp4690
assS'KevinKuo'
p4691
(dp4692
S'part1_correct_attempt'
p4693
(lp4694
S'3:07:50'
p4695
aV.4
p4696
asg9
V2016-10-28 02:39:16
p4697
sS'part1_incorrect_attempt'
p4698
(lp4699
(S'0:00:00'
p4700
V0.29
p4701
tp4702
a(S'0:00:00'
p4703
V0.29
p4704
tp4705
a(S'0:10:33'
p4706
V0.32
p4707
tp4708
a(S'2:37:08'
p4709
V0.3955
p4710
tp4711
a(S'2:37:08'
p4712
V0.3955
p4713
tp4714
a(S'2:56:30'
p4715
V0.32
p4716
tp4717
a(S'2:56:30'
p4718
V0.32
p4719
tp4720
a(S'3:00:30'
p4721
V0.264
p4722
tp4723
a(S'3:00:30'
p4724
V0.264
p4725
tp4726
a(S'3:01:05'
p4727
V0.2631
p4728
tp4729
a(S'3:02:46'
p4730
V.514
p4731
tp4732
a(S'3:02:46'
p4733
V.514
p4734
tp4735
assS'mhatch'
p4736
(dp4737
S'part1_correct_attempt'
p4738
(lp4739
S'0:12:00'
p4740
aV.4
p4741
asg9
V2016-10-26 03:17:46
p4742
sS'part1_incorrect_attempt'
p4743
(lp4744
(S'0:00:00'
p4745
V.30
p4746
tp4747
a(S'0:00:00'
p4748
V.30
p4749
tp4750
a(S'0:00:38'
p4751
V.30
p4752
tp4753
a(S'0:00:38'
p4754
V.30
p4755
tp4756
assS'wheilson'
p4757
(dp4758
S'part1_correct_attempt'
p4759
(lp4760
S'0:08:02'
p4761
aV0.60
p4762
asg9
V2016-10-27 14:03:17
p4763
sS'part1_incorrect_attempt'
p4764
(lp4765
(S'0:00:00'
p4766
V0.32/(1-e^(-0.5*(1.5)))
p4767
tp4768
a(S'0:00:00'
p4769
V0.32/(1-e^(-0.5*(1.5)))
p4770
tp4771
asssS'3'
p4772
(dp4773
S'Byung'
p4774
(dp4775
S'part3_correct_attempt'
p4776
(lp4777
S'0:00:00'
p4778
aV2.5
p4779
asS'part3_incorrect_attempt'
p4780
(lp4781
(S'-1 day, 19:52:45'
p4782
V0.0
p4783
tp4784
asg9
V2016-10-27 00:50:45
p4785
ssS'codyndoan'
p4786
(dp4787
S'part3_correct_attempt'
p4788
(lp4789
S'0:00:00'
p4790
aV4.5
p4791
asS'part3_incorrect_attempt'
p4792
(lp4793
(S'-1 day, 23:27:37'
p4794
V4.55
p4795
tp4796
a(S'-1 day, 23:43:59'
p4797
V2.5
p4798
tp4799
asg9
V2016-10-25 23:08:43
p4800
ssS'zkvick'
p4801
(dp4802
S'part3_correct_attempt'
p4803
(lp4804
S'2:05:42'
p4805
aV4.5
p4806
asS'part3_incorrect_attempt'
p4807
(lp4808
(S'0:00:00'
p4809
V4.55
p4810
tp4811
asg9
V2016-10-28 04:58:01
p4812
ssS'piamsiri'
p4813
(dp4814
S'part3_correct_attempt'
p4815
(lp4816
S'0:00:00'
p4817
aV3.5
p4818
asS'part3_incorrect_attempt'
p4819
(lp4820
(S'-1 day, 23:57:35'
p4821
V4.5
p4822
tp4823
asg9
V2016-10-24 03:34:04
p4824
ssS'Zeyi'
p4825
(dp4826
S'part3_correct_attempt'
p4827
(lp4828
S'0:00:00'
p4829
aV4.5
p4830
asS'part3_incorrect_attempt'
p4831
(lp4832
(S'-1 day, 23:59:29'
p4833
V0.0
p4834
tp4835
a(S'-1 day, 23:59:29'
p4836
V0.0
p4837
tp4838
asg9
V2016-10-25 20:05:52
p4839
ssg121
(dp4840
S'part3_correct_attempt'
p4841
(lp4842
S'0:00:00'
p4843
aV3.5
p4844
asS'part3_incorrect_attempt'
p4845
(lp4846
(S'-1 day, 23:32:58'
p4847
V.93
p4848
tp4849
a(S'-1 day, 23:32:58'
p4850
V.93
p4851
tp4852
asg9
V2016-10-27 19:02:15
p4853
ssg151
(dp4854
S'part3_correct_attempt'
p4855
(lp4856
S'0:00:00'
p4857
aV4.5
p4858
asS'part3_incorrect_attempt'
p4859
(lp4860
(S'-1 day, 23:37:31'
p4861
V4.55
p4862
tp4863
a(S'-1 day, 23:37:31'
p4864
V4.55
p4865
tp4866
asg9
V2016-10-28 05:40:47
p4867
ssS'shadams'
p4868
(dp4869
S'part3_correct_attempt'
p4870
(lp4871
S'0:00:00'
p4872
aV4.5
p4873
asS'part3_incorrect_attempt'
p4874
(lp4875
(S'-2 days, 15:47:16'
p4876
V4.55
p4877
tp4878
asg9
V2016-10-28 02:44:43
p4879
ssS'evahuynh'
p4880
(dp4881
S'part3_correct_attempt'
p4882
(lp4883
S'0:00:00'
p4884
aV3.5
p4885
asS'part3_incorrect_attempt'
p4886
(lp4887
(S'-1 day, 8:51:29'
p4888
V6.0
p4889
tp4890
asg9
V2016-10-26 21:48:49
p4891
ssS'pesca'
p4892
(dp4893
S'part3_correct_attempt'
p4894
(lp4895
S'0:00:00'
p4896
aV4.5
p4897
asS'part3_incorrect_attempt'
p4898
(lp4899
(S'-1 day, 23:59:36'
p4900
V4.55
p4901
tp4902
asg9
V2016-10-28 04:08:24
p4903
ssg256
(dp4904
S'part3_correct_attempt'
p4905
(lp4906
S'0:00:00'
p4907
aV3.5
p4908
asS'part3_incorrect_attempt'
p4909
(lp4910
(S'-1 day, 23:27:59'
p4911
V1.0
p4912
tp4913
a(S'-1 day, 23:27:59'
p4914
V1.0
p4915
tp4916
asg9
V2016-10-27 22:26:38
p4917
ssg990
(dp4918
S'part3_correct_attempt'
p4919
(lp4920
S'0:00:00'
p4921
aV4.5
p4922
asS'part3_incorrect_attempt'
p4923
(lp4924
(S'-1 day, 23:58:01'
p4925
V3.5
p4926
tp4927
asg9
V2016-10-27 06:25:32
p4928
ssg1574
(dp4929
S'part3_correct_attempt'
p4930
(lp4931
S'0:00:00'
p4932
aV2.5
p4933
asS'part3_incorrect_attempt'
p4934
(lp4935
(S'-1 day, 23:42:02'
p4936
V3.5
p4937
tp4938
a(S'-1 day, 23:42:02'
p4939
V3.5
p4940
tp4941
asg9
V2016-10-27 03:32:11
p4942
ssg4125
(dp4943
S'part3_correct_attempt'
p4944
(lp4945
S'0:00:00'
p4946
aV4.5
p4947
asS'part3_incorrect_attempt'
p4948
(lp4949
(S'-1 day, 23:57:19'
p4950
V5.0
p4951
tp4952
asg9
V2016-10-26 23:33:27
p4953
ssS'Ryan_Yi'
p4954
(dp4955
S'part3_correct_attempt'
p4956
(lp4957
S'0:00:00'
p4958
aV2.5
p4959
asS'part3_incorrect_attempt'
p4960
(lp4961
(S'-3 days, 1:17:03'
p4962
V5.0
p4963
tp4964
a(S'-3 days, 1:17:37'
p4965
V0.50
p4966
tp4967
a(S'-3 days, 1:17:37'
p4968
V0.50
p4969
tp4970
a(S'-3 days, 1:18:27'
p4971
V0.50
p4972
tp4973
a(S'-3 days, 1:18:27'
p4974
V0.50
p4975
tp4976
a(S'-3 days, 1:20:04'
p4977
V4.5
p4978
tp4979
a(S'-3 days, 1:20:04'
p4980
V4.5
p4981
tp4982
asg9
V2016-10-26 02:59:23
p4983
ssS'Ken'
p4984
(dp4985
S'part3_correct_attempt'
p4986
(lp4987
S'0:00:00'
p4988
aV3.5
p4989
asS'part3_incorrect_attempt'
p4990
(lp4991
(S'-2 days, 0:59:54'
p4992
V0.97
p4993
tp4994
a(S'-1 day, 23:59:25'
p4995
V0.6
p4996
tp4997
asg9
V2016-10-27 23:19:31
p4998
ssS'Zhongting'
p4999
(dp5000
S'part3_correct_attempt'
p5001
(lp5002
S'0:00:00'
p5003
aV4.5
p5004
asS'part3_incorrect_attempt'
p5005
(lp5006
(S'-3 days, 19:18:18'
p5007
V0.0
p5008
tp5009
a(S'-3 days, 19:25:46'
p5010
V0.5
p5011
tp5012
a(S'-1 day, 23:47:06'
p5013
V0.0
p5014
tp5015
asg9
V2016-10-24 22:18:40
p5016
ssS'shuang'
p5017
(dp5018
S'part3_correct_attempt'
p5019
(lp5020
S'0:00:00'
p5021
aV3.5
p5022
asS'part3_incorrect_attempt'
p5023
(lp5024
(S'-1 day, 23:28:34'
p5025
V5.0
p5026
tp5027
asg9
V2016-10-28 06:47:28
p5028
ssS'Ankush_Sarow'
p5029
(dp5030
S'part3_correct_attempt'
p5031
(lp5032
S'0:00:00'
p5033
aV2.5
p5034
asS'part3_incorrect_attempt'
p5035
(lp5036
(S'-5 days, 23:43:10'
p5037
V0.0
p5038
tp5039
a(S'-2 days, 0:57:47'
p5040
V0.0
p5041
tp5042
asg9
V2016-10-27 19:30:05
p5043
ssS'jih089'
p5044
(dp5045
S'part3_correct_attempt'
p5046
(lp5047
S'0:00:00'
p5048
aV-2.0
p5049
asS'part3_incorrect_attempt'
p5050
(lp5051
(S'-1 day, 23:49:36'
p5052
V0.0
p5053
tp5054
asg9
V2016-10-22 05:51:26
p5055
ssS'abelmont'
p5056
(dp5057
S'part3_correct_attempt'
p5058
(lp5059
S'0:00:00'
p5060
aV4.5
p5061
asS'part3_incorrect_attempt'
p5062
(lp5063
(S'-1 day, 23:19:44'
p5064
V4.55
p5065
tp5066
a(S'-1 day, 23:20:08'
p5067
V4.6
p5068
tp5069
a(S'-1 day, 23:20:34'
p5070
V5.0
p5071
tp5072
a(S'-1 day, 23:20:57'
p5073
V0.0
p5074
tp5075
asg9
V2016-10-27 06:25:27
p5076
ssg22
(dp5077
S'part3_incorrect_attempt'
p5078
(lp5079
(S'-1 day, 23:26:48'
p5080
V4.5
p5081
tp5082
a(S'-1 day, 23:54:22'
p5083
V5.0
p5084
tp5085
a(S'-1 day, 23:54:22'
p5086
V5.0
p5087
tp5088
a(S'-1 day, 23:54:55'
p5089
V5.0
p5090
tp5091
a(S'-1 day, 23:55:53'
p5092
V1.35
p5093
tp5094
asg9
V2016-10-28 01:59:25
p5095
ssg754
(dp5096
S'part3_correct_attempt'
p5097
(lp5098
S'0:00:00'
p5099
aV4.5
p5100
asS'part3_incorrect_attempt'
p5101
(lp5102
(S'-1 day, 21:03:05'
p5103
V3.5
p5104
tp5105
a(S'-1 day, 21:23:34'
p5106
V0.14
p5107
tp5108
a(S'-1 day, 21:23:34'
p5109
V0.14
p5110
tp5111
a(S'-1 day, 21:24:00'
p5112
V0.14
p5113
tp5114
a(S'-1 day, 21:44:02'
p5115
V0.0
p5116
tp5117
a(S'-1 day, 21:45:53'
p5118
V0.14
p5119
tp5120
a(S'-1 day, 21:46:24'
p5121
V4.55
p5122
tp5123
a(S'-1 day, 21:50:34'
p5124
V3.5
p5125
tp5126
asg9
V2016-10-27 20:41:45
p5127
ssS'safarsi'
p5128
(dp5129
S'part3_correct_attempt'
p5130
(lp5131
S'0:00:00'
p5132
aV-2.0
p5133
asS'part3_incorrect_attempt'
p5134
(lp5135
(S'-1 day, 22:09:35'
p5136
V0.0
p5137
tp5138
asg9
V2016-10-27 02:49:59
p5139
ssS'CharlesCruz'
p5140
(dp5141
S'part3_correct_attempt'
p5142
(lp5143
S'0:00:00'
p5144
aV-2.0
p5145
asS'part3_incorrect_attempt'
p5146
(lp5147
(S'-1 day, 23:42:49'
p5148
V0.0
p5149
tp5150
asg9
V2016-10-25 00:57:42
p5151
ssg2676
(dp5152
S'part3_correct_attempt'
p5153
(lp5154
S'0:00:00'
p5155
aV4.5
p5156
asS'part3_incorrect_attempt'
p5157
(lp5158
(S'-1 day, 14:24:53'
p5159
V0.0
p5160
tp5161
a(S'-1 day, 14:30:07'
p5162
V4.55
p5163
tp5164
asg9
V2016-10-26 06:06:51
p5165
ssS'tsy'
p5166
(dp5167
S'part3_correct_attempt'
p5168
(lp5169
S'0:00:00'
p5170
aV4.5
p5171
asS'part3_incorrect_attempt'
p5172
(lp5173
(S'-1 day, 23:22:46'
p5174
V0.0
p5175
tp5176
a(S'-1 day, 23:22:46'
p5177
V0.0
p5178
tp5179
a(S'-1 day, 23:34:04'
p5180
V0.0
p5181
tp5182
a(S'-1 day, 23:34:04'
p5183
V0.0
p5184
tp5185
a(S'-1 day, 23:34:34'
p5186
V0.0
p5187
tp5188
a(S'-1 day, 23:34:34'
p5189
V0.0
p5190
tp5191
asg9
V2016-10-27 03:25:36
p5192
ssS'Bsgreenb'
p5193
(dp5194
S'part3_correct_attempt'
p5195
(lp5196
S'0:00:00'
p5197
aV4.5
p5198
asS'part3_incorrect_attempt'
p5199
(lp5200
(S'-2 days, 17:08:13'
p5201
V5.0
p5202
tp5203
a(S'-2 days, 20:32:38'
p5204
V0.0
p5205
tp5206
asg9
V2016-10-27 02:34:20
p5207
ssg897
(dp5208
S'part3_correct_attempt'
p5209
(lp5210
S'0:00:00'
p5211
aV3.5
p5212
asS'part3_incorrect_attempt'
p5213
(lp5214
(S'-1 day, 23:43:14'
p5215
V1.5
p5216
tp5217
asg9
V2016-10-26 00:32:31
p5218
ssS'ajgiri'
p5219
(dp5220
S'part3_correct_attempt'
p5221
(lp5222
S'0:00:00'
p5223
aV2.5
p5224
asS'part3_incorrect_attempt'
p5225
(lp5226
(S'-1 day, 23:25:57'
p5227
V5.0
p5228
tp5229
a(S'-1 day, 23:25:57'
p5230
V5.0
p5231
tp5232
asg9
V2016-10-28 06:09:06
p5233
ssS'PriyankaK'
p5234
(dp5235
S'part3_correct_attempt'
p5236
(lp5237
S'0:00:00'
p5238
aV3.5
p5239
asS'part3_incorrect_attempt'
p5240
(lp5241
(S'-1 day, 21:40:38'
p5242
V5.0
p5243
tp5244
a(S'-1 day, 21:42:26'
p5245
V0.35
p5246
tp5247
a(S'-1 day, 21:44:12'
p5248
V1.0
p5249
tp5250
asg9
V2016-10-26 23:43:32
p5251
ssg948
(dp5252
S'part3_correct_attempt'
p5253
(lp5254
S'0:00:00'
p5255
aV4.5
p5256
asS'part3_incorrect_attempt'
p5257
(lp5258
(S'-1 day, 23:06:23'
p5259
V0.0
p5260
tp5261
a(S'-1 day, 23:06:23'
p5262
V0.0
p5263
tp5264
asg9
V2016-10-25 22:46:10
p5265
ssS'cameronEllis'
p5266
(dp5267
S'part3_correct_attempt'
p5268
(lp5269
S'0:00:00'
p5270
aV2.5
p5271
asS'part3_incorrect_attempt'
p5272
(lp5273
(S'-2 days, 17:58:19'
p5274
V5.0
p5275
tp5276
a(S'-1 day, 14:54:47'
p5277
V0.5
p5278
tp5279
asg9
V2016-10-27 02:29:03
p5280
ssS'hunguyen'
p5281
(dp5282
S'part3_correct_attempt'
p5283
(lp5284
S'0:00:00'
p5285
aV4.5
p5286
asS'part3_incorrect_attempt'
p5287
(lp5288
(S'-3 days, 16:49:02'
p5289
V3.5
p5290
tp5291
a(S'-1 day, 23:58:58'
p5292
V3.5
p5293
tp5294
asg9
V2016-10-28 05:09:28
p5295
ssS'rdrabik'
p5296
(dp5297
S'part3_correct_attempt'
p5298
(lp5299
S'0:00:00'
p5300
aV4.5
p5301
asS'part3_incorrect_attempt'
p5302
(lp5303
(S'-1 day, 23:59:12'
p5304
V4.55
p5305
tp5306
a(S'-1 day, 23:59:12'
p5307
V4.55
p5308
tp5309
asg9
V2016-10-28 03:54:15
p5310
ssg2937
(dp5311
S'part3_correct_attempt'
p5312
(lp5313
S'0:00:00'
p5314
aV2.5
p5315
asS'part3_incorrect_attempt'
p5316
(lp5317
(S'-1 day, 22:20:43'
p5318
V.08
p5319
tp5320
a(S'-1 day, 22:38:25'
p5321
V0.0
p5322
tp5323
asg9
V2016-10-25 04:57:05
p5324
ssg4415
(dp5325
S'part3_correct_attempt'
p5326
(lp5327
S'0:00:00'
p5328
aV4.5
p5329
asS'part3_incorrect_attempt'
p5330
(lp5331
(S'-1 day, 0:26:46'
p5332
V3.5
p5333
tp5334
asg9
V2016-10-27 11:02:20
p5335
ssS'Derrick'
p5336
(dp5337
S'part3_correct_attempt'
p5338
(lp5339
S'0:00:00'
p5340
aV4.5
p5341
asS'part3_incorrect_attempt'
p5342
(lp5343
(S'-1 day, 23:57:56'
p5344
V5.0
p5345
tp5346
asg9
V2016-10-28 05:49:46
p5347
ssg2649
(dp5348
S'part3_correct_attempt'
p5349
(lp5350
S'0:00:00'
p5351
aV4.5
p5352
asS'part3_incorrect_attempt'
p5353
(lp5354
(S'-1 day, 23:49:14'
p5355
V4.55
p5356
tp5357
asg9
V2016-10-28 04:54:01
p5358
ssS'TianhaoQiu'
p5359
(dp5360
S'part3_correct_attempt'
p5361
(lp5362
S'0:00:00'
p5363
aV4.5
p5364
asS'part3_incorrect_attempt'
p5365
(lp5366
(S'-1 day, 23:59:05'
p5367
V4.0
p5368
tp5369
asg9
V2016-10-28 00:57:06
p5370
ssg4433
(dp5371
S'part3_correct_attempt'
p5372
(lp5373
S'0:00:00'
p5374
aV3.5
p5375
asS'part3_incorrect_attempt'
p5376
(lp5377
(S'-1 day, 22:40:59'
p5378
V5.0
p5379
tp5380
a(S'-1 day, 22:40:59'
p5381
V5.0
p5382
tp5383
a(S'-1 day, 22:42:34'
p5384
V5.0
p5385
tp5386
asg9
V2016-10-26 01:59:59
p5387
ssg4496
(dp5388
S'part3_correct_attempt'
p5389
(lp5390
S'0:00:00'
p5391
aV4.5
p5392
asS'part3_incorrect_attempt'
p5393
(lp5394
(S'-1 day, 20:25:52'
p5395
V0.0
p5396
tp5397
asg9
V2016-10-27 21:46:07
p5398
ssS'wesokuhara'
p5399
(dp5400
S'part3_correct_attempt'
p5401
(lp5402
S'0:00:00'
p5403
aV4.5
p5404
asS'part3_incorrect_attempt'
p5405
(lp5406
(S'-2 days, 10:44:50'
p5407
V0.0
p5408
tp5409
a(S'-2 days, 11:01:31'
p5410
V0.14
p5411
tp5412
a(S'-2 days, 11:01:55'
p5413
V0.15
p5414
tp5415
a(S'-2 days, 11:01:55'
p5416
V0.15
p5417
tp5418
asg9
V2016-10-28 06:30:46
p5419
ssS'Lpascual'
p5420
(dp5421
S'part3_correct_attempt'
p5422
(lp5423
S'0:00:00'
p5424
aV4.5
p5425
asS'part3_incorrect_attempt'
p5426
(lp5427
(S'-1 day, 19:25:39'
p5428
V4.0
p5429
tp5430
asg9
V2016-10-27 03:01:44
p5431
ssS'oganguli'
p5432
(dp5433
S'part3_correct_attempt'
p5434
(lp5435
S'0:00:00'
p5436
aV4.5
p5437
asS'part3_incorrect_attempt'
p5438
(lp5439
(S'-2 days, 19:28:22'
p5440
V0.0
p5441
tp5442
a(S'-2 days, 19:28:22'
p5443
V0.0
p5444
tp5445
a(S'-2 days, 19:31:07'
p5446
V0.0
p5447
tp5448
a(S'-2 days, 19:31:07'
p5449
V0.0
p5450
tp5451
a(S'-2 days, 19:31:34'
p5452
V0.0
p5453
tp5454
a(S'-2 days, 19:31:34'
p5455
V0.0
p5456
tp5457
a(S'-2 days, 19:33:47'
p5458
V0.5
p5459
tp5460
a(S'-2 days, 19:33:47'
p5461
V0.5
p5462
tp5463
a(S'-1 day, 16:58:44'
p5464
V5.0
p5465
tp5466
a(S'-1 day, 16:58:44'
p5467
V5.0
p5468
tp5469
a(S'-1 day, 16:59:23'
p5470
V0.0
p5471
tp5472
asg9
V2016-10-28 03:46:05
p5473
ssS'migil'
p5474
(dp5475
S'part3_correct_attempt'
p5476
(lp5477
S'0:00:00'
p5478
aV3.5
p5479
asS'part3_incorrect_attempt'
p5480
(lp5481
(S'-1 day, 23:46:57'
p5482
V2.0
p5483
tp5484
a(S'-1 day, 23:46:57'
p5485
V2.0
p5486
tp5487
asg9
V2016-10-26 00:44:44
p5488
ssg4592
(dp5489
S'part3_correct_attempt'
p5490
(lp5491
S'0:00:00'
p5492
aV3.5
p5493
asS'part3_incorrect_attempt'
p5494
(lp5495
(S'-1 day, 23:55:52'
p5496
V5.0
p5497
tp5498
asg9
V2016-10-28 03:53:10
p5499
ssg3664
(dp5500
S'part3_correct_attempt'
p5501
(lp5502
S'0:00:00'
p5503
aV2.5
p5504
asS'part3_incorrect_attempt'
p5505
(lp5506
(S'-1 day, 23:58:13'
p5507
V3.5
p5508
tp5509
asg9
V2016-10-27 03:22:11
p5510
ssS'maxcjx'
p5511
(dp5512
S'part3_correct_attempt'
p5513
(lp5514
S'0:00:00'
p5515
aV4.5
p5516
asS'part3_incorrect_attempt'
p5517
(lp5518
(S'-1 day, 9:22:06'
p5519
V5.0
p5520
tp5521
a(S'-1 day, 23:30:47'
p5522
V5.0
p5523
tp5524
a(S'-1 day, 23:30:47'
p5525
V5.0
p5526
tp5527
asg9
V2016-10-25 20:40:21
p5528
ssg1085
(dp5529
S'part3_correct_attempt'
p5530
(lp5531
S'0:00:00'
p5532
aV5.0
p5533
asS'part3_incorrect_attempt'
p5534
(lp5535
(S'0:00:00'
p5536
V5.0
p5537
tp5538
asg9
V2016-10-28 06:52:32
p5539
ssS'YuqinWu'
p5540
(dp5541
S'part3_correct_attempt'
p5542
(lp5543
S'0:00:00'
p5544
aV3.5
p5545
asS'part3_incorrect_attempt'
p5546
(lp5547
(S'-1 day, 23:37:16'
p5548
V5.0
p5549
tp5550
a(S'-1 day, 23:37:16'
p5551
V5.0
p5552
tp5553
asg9
V2016-10-26 00:20:04
p5554
ssS'jarninfang'
p5555
(dp5556
S'part3_correct_attempt'
p5557
(lp5558
S'0:00:00'
p5559
aV2.5
p5560
asS'part3_incorrect_attempt'
p5561
(lp5562
(S'-1 day, 23:44:58'
p5563
V0.0
p5564
tp5565
asg9
V2016-10-27 18:52:41
p5566
ssg2904
(dp5567
S'part3_correct_attempt'
p5568
(lp5569
S'0:00:00'
p5570
aV2.5
p5571
asS'part3_incorrect_attempt'
p5572
(lp5573
(S'-2 days, 17:15:35'
p5574
V3.5
p5575
tp5576
asg9
V2016-10-28 04:14:43
p5577
ssS'aliqbal'
p5578
(dp5579
S'part3_correct_attempt'
p5580
(lp5581
S'0:00:00'
p5582
aV2.5
p5583
asS'part3_incorrect_attempt'
p5584
(lp5585
(S'-4 days, 17:42:36'
p5586
V5.0
p5587
tp5588
a(S'-4 days, 17:42:36'
p5589
V5.0
p5590
tp5591
a(S'-4 days, 17:47:11'
p5592
V5.0
p5593
tp5594
asg9
V2016-10-27 03:02:05
p5595
ssg2493
(dp5596
S'part3_correct_attempt'
p5597
(lp5598
S'0:00:00'
p5599
aV4.5
p5600
asS'part3_incorrect_attempt'
p5601
(lp5602
(S'-1 day, 15:51:27'
p5603
V4.55
p5604
tp5605
a(S'-1 day, 15:55:47'
p5606
V0.0
p5607
tp5608
a(S'-1 day, 15:59:03'
p5609
V4.55.0
p5610
tp5611
a(S'-1 day, 16:00:59'
p5612
V0.0
p5613
tp5614
asg9
V2016-10-27 23:31:45
p5615
ssg4679
(dp5616
S'part3_correct_attempt'
p5617
(lp5618
S'0:00:00'
p5619
aV5.0
p5620
asS'part3_incorrect_attempt'
p5621
(lp5622
(S'0:00:00'
p5623
V5.0
p5624
tp5625
asg9
V2016-10-28 00:43:00
p5626
ssg1214
(dp5627
S'part3_correct_attempt'
p5628
(lp5629
S'0:00:00'
p5630
aV2.5
p5631
asS'part3_incorrect_attempt'
p5632
(lp5633
(S'-1 day, 19:42:13'
p5634
V0.08
p5635
tp5636
asg9
V2016-10-28 00:24:21
p5637
ssS'PizzaPolice'
p5638
(dp5639
S'part3_correct_attempt'
p5640
(lp5641
S'0:00:00'
p5642
aV4.5
p5643
asS'part3_incorrect_attempt'
p5644
(lp5645
(S'-1 day, 23:52:13'
p5646
V4.55
p5647
tp5648
asg9
V2016-10-26 07:00:27
p5649
ssS'Guillermo'
p5650
(dp5651
S'part3_correct_attempt'
p5652
(lp5653
S'0:00:00'
p5654
aV4.50
p5655
asS'part3_incorrect_attempt'
p5656
(lp5657
(S'-1 day, 11:50:59'
p5658
V4.55
p5659
tp5660
a(S'-1 day, 11:52:25'
p5661
V0.0
p5662
tp5663
a(S'-1 day, 11:56:46'
p5664
V4.55.0
p5665
tp5666
asg9
V2016-10-26 04:29:17
p5667
ssS'Riyang'
p5668
(dp5669
S'part3_correct_attempt'
p5670
(lp5671
S'0:00:00'
p5672
aV3.5
p5673
asS'part3_incorrect_attempt'
p5674
(lp5675
(S'-1 day, 23:59:29'
p5676
V5.0
p5677
tp5678
a(S'-1 day, 23:59:29'
p5679
V5.0
p5680
tp5681
asg9
V2016-10-26 03:29:22
p5682
ssS'wheilson'
p5683
(dp5684
S'part3_correct_attempt'
p5685
(lp5686
S'0:00:00'
p5687
aV3.5
p5688
asS'part3_incorrect_attempt'
p5689
(lp5690
(S'-1 day, 23:54:20'
p5691
V5.0
p5692
tp5693
a(S'-1 day, 23:54:20'
p5694
V5.0
p5695
tp5696
a(S'-1 day, 23:57:31'
p5697
V2.9736
p5698
tp5699
a(S'-1 day, 23:57:31'
p5700
V2.9736
p5701
tp5702
asg9
V2016-10-27 14:11:19
p5703
ssS'ccaine'
p5704
(dp5705
S'part3_correct_attempt'
p5706
(lp5707
S'0:00:00'
p5708
aV2.5
p5709
asS'part3_incorrect_attempt'
p5710
(lp5711
(S'-1 day, 23:28:56'
p5712
V5.0
p5713
tp5714
a(S'-1 day, 23:41:20'
p5715
V0.0
p5716
tp5717
a(S'-1 day, 23:42:50'
p5718
V0.0
p5719
tp5720
a(S'-1 day, 23:46:03'
p5721
V.0
p5722
tp5723
asg9
V2016-10-28 00:15:32
p5724
sssS'2'
p5725
(dp5726
g391
(dp5727
S'part2_correct_attempt'
p5728
(lp5729
S'0:00:00'
p5730
aV1.5
p5731
asg9
V2016-10-28 03:06:54
p5732
sS'part2_incorrect_attempt'
p5733
(lp5734
(S'-1 day, 23:55:36'
p5735
V1.0
p5736
tp5737
assg4880
(dp5738
S'part2_correct_attempt'
p5739
(lp5740
S'0:00:00'
p5741
aV1.0
p5742
asg9
g4891
sS'part2_incorrect_attempt'
p5743
(lp5744
(S'-1 day, 8:51:29'
p5745
V5.0
p5746
tp5747
assS'djku'
p5748
(dp5749
S'part2_correct_attempt'
p5750
(lp5751
S'0:00:00'
p5752
aV1.5
p5753
asg9
g4942
sS'part2_incorrect_attempt'
p5754
(lp5755
(S'-1 day, 23:58:49'
p5756
V0.0
p5757
tp5758
assg5044
(dp5759
S'part2_correct_attempt'
p5760
(lp5761
S'0:00:00'
p5762
aV-4.5
p5763
asg9
g5055
sS'part2_incorrect_attempt'
p5764
(lp5765
(S'-1 day, 23:49:36'
p5766
V-2.0
p5767
tp5768
a(S'-1 day, 23:49:58'
p5769
V0.0
p5770
tp5771
a(S'-1 day, 23:49:58'
p5772
V0.0
p5773
tp5774
assg5166
(dp5775
S'part2_correct_attempt'
p5776
(lp5777
S'0:00:00'
p5778
aV-2.5
p5779
asg9
g5192
sS'part2_incorrect_attempt'
p5780
(lp5781
(S'-1 day, 23:22:46'
p5782
V-0.25
p5783
tp5784
a(S'-1 day, 23:22:46'
p5785
V-0.25
p5786
tp5787
a(S'-1 day, 23:34:04'
p5788
V-0.25
p5789
tp5790
a(S'-1 day, 23:34:04'
p5791
V-0.25
p5792
tp5793
assg5668
(dp5794
S'part2_correct_attempt'
p5795
(lp5796
S'0:00:00'
p5797
aV1.5
p5798
asg9
g5682
sS'part2_incorrect_attempt'
p5799
(lp5800
(S'-1 day, 23:59:29'
p5801
V0.0
p5802
tp5803
a(S'-1 day, 23:59:29'
p5804
V0.0
p5805
tp5806
assS'PriyankaK'
p5807
(dp5808
S'part2_correct_attempt'
p5809
(lp5810
S'0:00:00'
p5811
aV1.0
p5812
asg9
g5251
sS'part2_incorrect_attempt'
p5813
(lp5814
(S'-1 day, 22:30:41'
p5815
V0.0
p5816
tp5817
assS'tdea'
p5818
(dp5819
S'part2_correct_attempt'
p5820
(lp5821
S'0:00:00'
p5822
aV-4.5
p5823
asg9
V2016-10-28 01:01:11
p5824
sS'part2_incorrect_attempt'
p5825
(lp5826
(S'-1 day, 23:59:34'
p5827
V-2
p5828
tp5829
assg4101
(dp5830
S'part2_correct_attempt'
p5831
(lp5832
S'0:00:00'
p5833
aV2
p5834
asg9
V2016-10-23 20:00:02
p5835
sS'part2_incorrect_attempt'
p5836
(lp5837
(S'-1 day, 23:58:56'
p5838
V1.0
p5839
tp5840
assS'ccaine'
p5841
(dp5842
S'part2_correct_attempt'
p5843
(lp5844
S'0:00:00'
p5845
aV-.5
p5846
asg9
g5724
sS'part2_incorrect_attempt'
p5847
(lp5848
(S'-1 day, 23:41:20'
p5849
V-0.05
p5850
tp5851
assS'djmoreno'
p5852
(dp5853
S'part2_correct_attempt'
p5854
(lp5855
S'0:00:00'
p5856
aV-4.5
p5857
asg9
V2016-10-27 10:00:25
p5858
sS'part2_incorrect_attempt'
p5859
(lp5860
(S'-1 day, 22:30:40'
p5861
V-5.04
p5862
tp5863
assg4185
(dp5864
S'part2_correct_attempt'
p5865
(lp5866
S'0:00:00'
p5867
aV-4.5
p5868
asg9
V2016-10-28 03:08:28
p5869
sS'part2_incorrect_attempt'
p5870
(lp5871
(S'-5 days, 18:04:43'
p5872
V-2.0
p5873
tp5874
a(S'-1 day, 20:59:17'
p5875
V-5
p5876
tp5877
a(S'-1 day, 20:59:40'
p5878
V-2
p5879
tp5880
a(S'-1 day, 21:11:11'
p5881
V-2.0
p5882
tp5883
assg5420
(dp5884
S'part2_correct_attempt'
p5885
(lp5886
S'0:00:00'
p5887
aV4.0
p5888
asg9
g5431
sS'part2_incorrect_attempt'
p5889
(lp5890
(S'-1 day, 19:25:39'
p5891
V0.0
p5892
tp5893
assg3311
(dp5894
g9
V2016-10-28 03:44:45
p5895
sS'part2_incorrect_attempt'
p5896
(lp5897
(S'0:00:00'
p5898
V-4.5
p5899
tp5900
a(S'0:00:00'
p5901
V-4.5
p5902
tp5903
assS'yazin-yousif'
p5904
(dp5905
S'part2_correct_attempt'
p5906
(lp5907
S'0:00:00'
p5908
aV-4.5
p5909
asg9
V2016-10-27 17:29:19
p5910
sS'part2_incorrect_attempt'
p5911
(lp5912
(S'-1 day, 23:57:07'
p5913
V-2.5
p5914
tp5915
assS'brandon_vo'
p5916
(dp5917
S'part2_correct_attempt'
p5918
(lp5919
S'0:00:00'
p5920
aV-0.5
p5921
asg9
V2016-10-27 20:42:01
p5922
sS'part2_incorrect_attempt'
p5923
(lp5924
(S'-3 days, 23:54:34'
p5925
V-5
p5926
tp5927
assg5540
(dp5928
S'part2_correct_attempt'
p5929
(lp5930
S'0:00:00'
p5931
aV1.5
p5932
asg9
g5554
sS'part2_incorrect_attempt'
p5933
(lp5934
(S'-1 day, 23:37:16'
p5935
V0.0
p5936
tp5937
a(S'-1 day, 23:37:16'
p5938
V0.0
p5939
tp5940
assS'pyae'
p5941
(dp5942
S'part2_correct_attempt'
p5943
(lp5944
S'0:00:00'
p5945
aV-4.5
p5946
asg9
V2016-10-27 07:54:26
p5947
sS'part2_incorrect_attempt'
p5948
(lp5949
(S'-1 day, 18:09:47'
p5950
V-2
p5951
tp5952
assS'k1siu'
p5953
(dp5954
S'part2_correct_attempt'
p5955
(lp5956
S'0:00:00'
p5957
aV-4.5
p5958
asg9
V2016-10-23 18:54:21
p5959
sS'part2_incorrect_attempt'
p5960
(lp5961
(S'-1 day, 23:59:37'
p5962
V-2.5
p5963
tp5964
assS'adejesus'
p5965
(dp5966
S'part2_correct_attempt'
p5967
(lp5968
S'0:00:00'
p5969
aV-2.5
p5970
asg9
g5615
sS'part2_incorrect_attempt'
p5971
(lp5972
(S'-1 day, 18:47:26'
p5973
V-2.4
p5974
tp5975
assS'yjx99335'
p5976
(dp5977
S'part2_correct_attempt'
p5978
(lp5979
S'0:00:00'
p5980
aV-0.5
p5981
asg9
g5637
sS'part2_incorrect_attempt'
p5982
(lp5983
(S'-1 day, 20:15:53'
p5984
V-0.05
p5985
tp5986
assS'jar045'
p5987
(dp5988
S'part2_correct_attempt'
p5989
(lp5990
S'0:00:00'
p5991
aV2.0
p5992
asg9
V2016-10-25 03:39:25
p5993
sS'part2_incorrect_attempt'
p5994
(lp5995
(S'-1 day, 23:56:52'
p5996
V1.0
p5997
tp5998
a(S'-1 day, 23:56:52'
p5999
V1.0
p6000
tp6001
assS'karl-rummler'
p6002
(dp6003
S'part2_correct_attempt'
p6004
(lp6005
S'0:00:00'
p6006
aV-4.5
p6007
asg9
V2016-10-27 02:10:20
p6008
sS'part2_incorrect_attempt'
p6009
(lp6010
(S'-1 day, 19:36:08'
p6011
V-.45
p6012
tp6013
asssS'4'
p6014
(dp6015
g22
(dp6016
S'part4_incorrect_attempt'
p6017
(lp6018
(S'-1 day, 23:26:48'
p6019
V0.7
p6020
tp6021
a(S'-1 day, 23:54:22'
p6022
V0.56
p6023
tp6024
a(S'-1 day, 23:54:22'
p6025
V0.56
p6026
tp6027
a(S'-1 day, 23:54:55'
p6028
V0.56
p6029
tp6030
a(S'-1 day, 23:59:14'
p6031
V0.8
p6032
tp6033
asg9
g5095
ssg76
(dp6034
S'part4_correct_attempt'
p6035
(lp6036
S'0:00:00'
p6037
aV.7
p6038
asS'part4_incorrect_attempt'
p6039
(lp6040
(S'-1 day, 22:25:34'
p6041
V.7/.5
p6042
tp6043
a(S'-1 day, 23:55:42'
p6044
V.7/.5
p6045
tp6046
a(S'-1 day, 23:55:42'
p6047
V.7/.5
p6048
tp6049
a(S'-1 day, 23:57:47'
p6050
V.45
p6051
tp6052
a(S'-1 day, 23:58:41'
p6053
V.4
p6054
tp6055
a(S'-1 day, 23:59:12'
p6056
V.35
p6057
tp6058
a(S'-1 day, 23:59:35'
p6059
V.30
p6060
tp6061
asg9
V2016-10-26 01:25:24
p6062
ssg100
(dp6063
S'part4_correct_attempt'
p6064
(lp6065
S'0:00:00'
p6066
aV0.6
p6067
asS'part4_incorrect_attempt'
p6068
(lp6069
(S'-1 day, 23:56:54'
p6070
V0.7
p6071
tp6072
a(S'-1 day, 23:57:35'
p6073
V0.35
p6074
tp6075
asg9
g4824
ssg121
(dp6076
S'part4_correct_attempt'
p6077
(lp6078
S'0:00:00'
p6079
aV.6
p6080
asS'part4_incorrect_attempt'
p6081
(lp6082
(S'-1 day, 23:32:58'
p6083
V1.5/3.5
p6084
tp6085
a(S'-1 day, 23:32:58'
p6086
V1.5/3.5
p6087
tp6088
a(S'-1 day, 23:35:45'
p6089
V1.5/3.5
p6090
tp6091
a(S'-1 day, 23:35:45'
p6092
V1.5/3.5
p6093
tp6094
a(S'-1 day, 23:36:29'
p6095
V1.5/5
p6096
tp6097
a(S'-1 day, 23:36:29'
p6098
V1.5/5
p6099
tp6100
a(S'-1 day, 23:37:55'
p6101
V.68/.97
p6102
tp6103
a(S'-1 day, 23:46:32'
p6104
V.3
p6105
tp6106
a(S'-1 day, 23:53:31'
p6107
V.15
p6108
tp6109
asg9
g4853
ssg151
(dp6110
S'part4_correct_attempt'
p6111
(lp6112
S'0:00:00'
p6113
aV0.7
p6114
asS'part4_incorrect_attempt'
p6115
(lp6116
(S'-1 day, 23:37:31'
p6117
V0.55/4.55
p6118
tp6119
a(S'-1 day, 23:37:31'
p6120
V0.55/4.55
p6121
tp6122
a(S'-1 day, 23:38:23'
p6123
V1/5
p6124
tp6125
a(S'-1 day, 23:38:23'
p6126
V1/5
p6127
tp6128
a(S'-1 day, 23:39:37'
p6129
V0.5/4.5
p6130
tp6131
asg9
g4867
ssg256
(dp6132
S'part4_correct_attempt'
p6133
(lp6134
S'0:00:00'
p6135
aV0.6
p6136
asS'part4_incorrect_attempt'
p6137
(lp6138
(S'-1 day, 23:27:59'
p6139
V0.75
p6140
tp6141
a(S'-1 day, 23:27:59'
p6142
V0.75
p6143
tp6144
a(S'-1 day, 23:30:25'
p6145
V0.68/1.5
p6146
tp6147
a(S'-1 day, 23:30:25'
p6148
V0.68/1.5
p6149
tp6150
a(S'-1 day, 23:50:22'
p6151
V0.68/1.5
p6152
tp6153
a(S'-1 day, 23:50:22'
p6154
V0.68/1.5
p6155
tp6156
a(S'-1 day, 23:51:09'
p6157
V0.68/1.5
p6158
tp6159
a(S'-1 day, 23:51:09'
p6160
V0.68/1.5
p6161
tp6162
a(S'-1 day, 23:55:49'
p6163
V1-0.25/(2^(1/2))
p6164
tp6165
a(S'-1 day, 23:55:49'
p6166
V1-0.25/(2^(1/2))
p6167
tp6168
a(S'-1 day, 23:57:20'
p6169
V0.68
p6170
tp6171
a(S'-1 day, 23:57:20'
p6172
V0.68
p6173
tp6174
a(S'-1 day, 23:58:00'
p6175
V0.75
p6176
tp6177
a(S'-1 day, 23:58:00'
p6178
V0.75
p6179
tp6180
asg9
g4917
ssg364
(dp6181
S'part4_correct_attempt'
p6182
(lp6183
S'0:00:00'
p6184
aV0.6
p6185
asS'part4_incorrect_attempt'
p6186
(lp6187
(S'-1 day, 23:51:18'
p6188
V0.03
p6189
tp6190
a(S'-1 day, 23:51:18'
p6191
V0.03
p6192
tp6193
a(S'-1 day, 23:57:51'
p6194
V0.05
p6195
tp6196
a(S'-1 day, 23:57:51'
p6197
V0.05
p6198
tp6199
a(S'-1 day, 23:58:16'
p6200
V0.1
p6201
tp6202
a(S'-1 day, 23:58:16'
p6203
V0.1
p6204
tp6205
asg9
V2016-10-27 23:33:49
p6206
ssg391
(dp6207
S'part4_correct_attempt'
p6208
(lp6209
S'0:00:00'
p6210
aV0.4
p6211
asS'part4_incorrect_attempt'
p6212
(lp6213
(S'-1 day, 23:55:36'
p6214
V0.3
p6215
tp6216
asg9
g5732
ssS'rsamuail'
p6217
(dp6218
S'part4_correct_attempt'
p6219
(lp6220
S'0:00:00'
p6221
aV.4
p6222
asS'part4_incorrect_attempt'
p6223
(lp6224
(S'-1 day, 21:26:54'
p6225
V.18
p6226
tp6227
a(S'-1 day, 21:26:54'
p6228
V.18
p6229
tp6230
a(S'-1 day, 21:27:51'
p6231
V5.5
p6232
tp6233
a(S'-1 day, 21:27:51'
p6234
V5.5
p6235
tp6236
a(S'-1 day, 21:28:36'
p6237
V5.5
p6238
tp6239
a(S'-1 day, 21:28:36'
p6240
V5.5
p6241
tp6242
a(S'-1 day, 21:46:55'
p6243
V.18
p6244
tp6245
a(S'-1 day, 21:46:55'
p6246
V.18
p6247
tp6248
a(S'-1 day, 21:49:34'
p6249
V.55
p6250
tp6251
a(S'-1 day, 21:49:34'
p6252
V.55
p6253
tp6254
a(S'-1 day, 22:07:08'
p6255
V.72
p6256
tp6257
a(S'-1 day, 22:07:08'
p6258
V.72
p6259
tp6260
a(S'-1 day, 22:09:59'
p6261
V.72
p6262
tp6263
a(S'-1 day, 22:09:59'
p6264
V.72
p6265
tp6266
a(S'-1 day, 22:13:05'
p6267
V.72
p6268
tp6269
a(S'-1 day, 22:13:05'
p6270
V.72
p6271
tp6272
a(S'-1 day, 22:27:22'
p6273
V.81
p6274
tp6275
a(S'-1 day, 22:27:22'
p6276
V.81
p6277
tp6278
a(S'-1 day, 22:29:03'
p6279
V.19
p6280
tp6281
a(S'-1 day, 22:29:03'
p6282
V.19
p6283
tp6284
a(S'-1 day, 22:29:27'
p6285
V.19
p6286
tp6287
a(S'-1 day, 22:29:27'
p6288
V.19
p6289
tp6290
a(S'-1 day, 22:40:48'
p6291
V.7
p6292
tp6293
a(S'-1 day, 22:40:48'
p6294
V.7
p6295
tp6296
a(S'-1 day, 22:41:11'
p6297
V.7
p6298
tp6299
a(S'-1 day, 22:41:11'
p6300
V.7
p6301
tp6302
a(S'-1 day, 22:42:31'
p6303
V.77
p6304
tp6305
a(S'-1 day, 22:42:31'
p6306
V.77
p6307
tp6308
a(S'-1 day, 22:44:26'
p6309
V.05
p6310
tp6311
a(S'-1 day, 22:44:26'
p6312
V.05
p6313
tp6314
a(S'-1 day, 22:48:18'
p6315
V.05
p6316
tp6317
a(S'-1 day, 22:48:18'
p6318
V.05
p6319
tp6320
a(S'-1 day, 22:48:41'
p6321
V.6
p6322
tp6323
a(S'-1 day, 22:48:41'
p6324
V.6
p6325
tp6326
a(S'-1 day, 23:06:40'
p6327
V.6
p6328
tp6329
a(S'-1 day, 23:06:40'
p6330
V.6
p6331
tp6332
a(S'-1 day, 23:07:05'
p6333
V.98
p6334
tp6335
a(S'-1 day, 23:07:05'
p6336
V.98
p6337
tp6338
a(S'-1 day, 23:07:35'
p6339
V.97
p6340
tp6341
a(S'-1 day, 23:07:35'
p6342
V.97
p6343
tp6344
a(S'-1 day, 23:09:59'
p6345
V.97
p6346
tp6347
a(S'-1 day, 23:09:59'
p6348
V.97
p6349
tp6350
a(S'-1 day, 23:30:26'
p6351
V.97
p6352
tp6353
a(S'-1 day, 23:30:26'
p6354
V.97
p6355
tp6356
a(S'-1 day, 23:31:51'
p6357
V.76
p6358
tp6359
a(S'-1 day, 23:31:51'
p6360
V.76
p6361
tp6362
a(S'-1 day, 23:55:01'
p6363
V.76
p6364
tp6365
a(S'-1 day, 23:55:01'
p6366
V.76
p6367
tp6368
a(S'-1 day, 23:55:26'
p6369
V.27
p6370
tp6371
a(S'-1 day, 23:55:26'
p6372
V.27
p6373
tp6374
a(S'-1 day, 23:57:47'
p6375
V.4
p6376
tp6377
a(S'-1 day, 23:57:47'
p6378
V.4
p6379
tp6380
a(S'-1 day, 23:59:35'
p6381
V.6
p6382
tp6383
a(S'-1 day, 23:59:35'
p6384
V.6
p6385
tp6386
a(S'0:00:00'
p6387
V.4
p6388
tp6389
asg9
V2016-10-28 02:07:30
p6390
ssS'Ryan_Yi'
p6391
(dp6392
S'part4_correct_attempt'
p6393
(lp6394
S'0:00:00'
p6395
aV0.45
p6396
asS'part4_incorrect_attempt'
p6397
(lp6398
(S'-1 day, 22:02:00'
p6399
V0.3
p6400
tp6401
a(S'-1 day, 22:02:00'
p6402
V0.3
p6403
tp6404
a(S'-1 day, 22:03:07'
p6405
V0.3
p6406
tp6407
a(S'-1 day, 22:03:07'
p6408
V0.3
p6409
tp6410
a(S'-1 day, 22:04:57'
p6411
V0.3
p6412
tp6413
a(S'-1 day, 22:04:57'
p6414
V0.3
p6415
tp6416
a(S'-1 day, 23:03:19'
p6417
V0.48
p6418
tp6419
a(S'-1 day, 23:03:19'
p6420
V0.48
p6421
tp6422
a(S'-1 day, 23:09:21'
p6423
V0.47
p6424
tp6425
a(S'-1 day, 23:09:21'
p6426
V0.47
p6427
tp6428
a(S'-1 day, 23:20:44'
p6429
V0.48
p6430
tp6431
a(S'-1 day, 23:20:44'
p6432
V0.48
p6433
tp6434
asg9
g4983
ssg619
(dp6435
S'part4_correct_attempt'
p6436
(lp6437
S'0:00:00'
p6438
aV0.45
p6439
asS'part4_incorrect_attempt'
p6440
(lp6441
(S'-2 days, 5:52:26'
p6442
V0.95
p6443
tp6444
a(S'-2 days, 6:02:03'
p6445
V0.5
p6446
tp6447
a(S'-1 day, 23:58:09'
p6448
V0.48
p6449
tp6450
a(S'-1 day, 23:58:43'
p6451
V0.5
p6452
tp6453
asg9
V2016-10-27 01:35:28
p6454
ssg2433
(dp6455
S'part4_correct_attempt'
p6456
(lp6457
S'0:00:00'
p6458
aV0.6
p6459
asS'part4_incorrect_attempt'
p6460
(lp6461
(S'-1 day, 23:29:02'
p6462
V0.68
p6463
tp6464
a(S'-1 day, 23:29:02'
p6465
V0.68
p6466
tp6467
a(S'-1 day, 23:30:48'
p6468
V0.69
p6469
tp6470
a(S'-1 day, 23:30:48'
p6471
V0.69
p6472
tp6473
a(S'-1 day, 23:31:37'
p6474
V0.67
p6475
tp6476
a(S'-1 day, 23:31:37'
p6477
V0.67
p6478
tp6479
a(S'-1 day, 23:32:02'
p6480
V0.65
p6481
tp6482
a(S'-1 day, 23:32:02'
p6483
V0.65
p6484
tp6485
a(S'-1 day, 23:32:31'
p6486
V0.7
p6487
tp6488
a(S'-1 day, 23:32:31'
p6489
V0.7
p6490
tp6491
asg9
V2016-10-28 00:42:24
p6492
ssg754
(dp6493
S'part4_correct_attempt'
p6494
(lp6495
S'0:00:00'
p6496
aV0.4
p6497
asS'part4_incorrect_attempt'
p6498
(lp6499
(S'-1 day, 21:03:05'
p6500
V0.3
p6501
tp6502
a(S'-1 day, 21:20:40'
p6503
V2.5/9.55
p6504
tp6505
a(S'-1 day, 21:23:34'
p6506
V4.55/7.05
p6507
tp6508
a(S'-1 day, 21:23:34'
p6509
V4.55/7.05
p6510
tp6511
a(S'-1 day, 21:24:00'
p6512
V4.55/7.05
p6513
tp6514
a(S'-1 day, 22:14:21'
p6515
V1-0.14/ (1-e^(-1.5)) 
p6516
tp6517
a(S'-1 day, 22:18:02'
p6518
V1/(1/0.14)
p6519
tp6520
a(S'-1 day, 22:18:02'
p6521
V1/(1/0.14)
p6522
tp6523
a(S'-1 day, 23:06:13'
p6524
V1/(1/0.14)
p6525
tp6526
a(S'-1 day, 23:09:42'
p6527
V0.65
p6528
tp6529
a(S'-1 day, 23:19:15'
p6530
V0.85
p6531
tp6532
asg9
g5127
ssS'AlexM'
p6533
(dp6534
S'part4_correct_attempt'
p6535
(lp6536
S'0:00:00'
p6537
aV0.4
p6538
asS'part4_incorrect_attempt'
p6539
(lp6540
(S'-1 day, 23:55:33'
p6541
V0.3
p6542
tp6543
asg9
V2016-10-26 00:24:17
p6544
ssg849
(dp6545
S'part4_correct_attempt'
p6546
(lp6547
S'0:00:00'
p6548
aV0.4
p6549
asS'part4_incorrect_attempt'
p6550
(lp6551
(S'-1 day, 22:59:28'
p6552
V0.15
p6553
tp6554
a(S'-1 day, 23:22:46'
p6555
V0.14
p6556
tp6557
a(S'-1 day, 23:22:46'
p6558
V0.14
p6559
tp6560
a(S'-1 day, 23:34:04'
p6561
V0.15
p6562
tp6563
a(S'-1 day, 23:34:04'
p6564
V0.15
p6565
tp6566
a(S'-1 day, 23:34:34'
p6567
V0.14
p6568
tp6569
a(S'-1 day, 23:34:34'
p6570
V0.14
p6571
tp6572
a(S'-1 day, 23:52:36'
p6573
V0.14
p6574
tp6575
a(S'-1 day, 23:52:36'
p6576
V0.14
p6577
tp6578
a(S'-1 day, 23:53:04'
p6579
V0.14
p6580
tp6581
a(S'-1 day, 23:53:04'
p6582
V0.14
p6583
tp6584
asg9
g5192
ssg897
(dp6585
S'part4_correct_attempt'
p6586
(lp6587
S'0:00:00'
p6588
aV.4
p6589
asS'part4_incorrect_attempt'
p6590
(lp6591
(S'-1 day, 23:43:14'
p6592
V.32
p6593
tp6594
a(S'-1 day, 23:47:52'
p6595
V.58
p6596
tp6597
a(S'-1 day, 23:58:46'
p6598
V.65
p6599
tp6600
a(S'-1 day, 23:58:46'
p6601
V.65
p6602
tp6603
asg9
g5218
ssS'PriyankaK'
p6604
(dp6605
S'part4_correct_attempt'
p6606
(lp6607
S'0:00:00'
p6608
aV0.3
p6609
asS'part4_incorrect_attempt'
p6610
(lp6611
(S'-1 day, 22:33:31'
p6612
V0.54
p6613
tp6614
a(S'-1 day, 22:34:00'
p6615
V0.55
p6616
tp6617
a(S'-1 day, 22:37:34'
p6618
V0.6
p6619
tp6620
a(S'-1 day, 22:40:56'
p6621
V3.5
p6622
tp6623
a(S'-1 day, 22:48:15'
p6624
V0.55
p6625
tp6626
asg9
g5251
ssg4101
(dp6627
S'part4_correct_attempt'
p6628
(lp6629
S'0:00:00'
p6630
aV0.6
p6631
asS'part4_incorrect_attempt'
p6632
(lp6633
(S'-1 day, 23:58:56'
p6634
V0.3
p6635
tp6636
asg9
g5835
ssg990
(dp6637
S'part4_correct_attempt'
p6638
(lp6639
S'0:00:00'
p6640
aV0.35
p6641
asS'part4_incorrect_attempt'
p6642
(lp6643
(S'-1 day, 23:58:01'
p6644
V0.6
p6645
tp6646
asg9
g4928
ssS'scottychen'
p6647
(dp6648
S'part4_correct_attempt'
p6649
(lp6650
S'0:00:00'
p6651
aV.58
p6652
asS'part4_incorrect_attempt'
p6653
(lp6654
(S'0:00:00'
p6655
V.58
p6656
tp6657
asg9
V2016-10-28 06:47:10
p6658
ssS'migil'
p6659
(dp6660
S'part4_correct_attempt'
p6661
(lp6662
S'0:00:00'
p6663
aV0.25
p6664
asS'part4_incorrect_attempt'
p6665
(lp6666
(S'-1 day, 23:58:03'
p6667
V0.25
p6668
tp6669
a(S'-1 day, 23:58:03'
p6670
V0.25
p6671
tp6672
a(S'0:00:00'
p6673
V0.25
p6674
tp6675
asg9
g5488
ssS'URajkumar'
p6676
(dp6677
S'part4_correct_attempt'
p6678
(lp6679
S'0:00:00'
p6680
aV0.6
p6681
asS'part4_incorrect_attempt'
p6682
(lp6683
(S'-1 day, 16:56:22'
p6684
V0.68/1.5
p6685
tp6686
a(S'-1 day, 23:52:38'
p6687
V1-(0.25/(1-(1/e)))
p6688
tp6689
a(S'-1 day, 23:58:37'
p6690
V0.93
p6691
tp6692
asg9
V2016-10-28 03:44:17
p6693
ssg1085
(dp6694
S'part4_correct_attempt'
p6695
(lp6696
S'0:00:00'
p6697
aV.05
p6698
asS'part4_incorrect_attempt'
p6699
(lp6700
(S'0:00:00'
p6701
V.05
p6702
tp6703
asg9
g5539
ssS'brandon_vo'
p6704
(dp6705
S'part4_correct_attempt'
p6706
(lp6707
S'0:00:00'
p6708
aV0.45
p6709
asS'part4_incorrect_attempt'
p6710
(lp6711
(S'-1 day, 23:51:32'
p6712
V0.48
p6713
tp6714
a(S'-1 day, 23:54:08'
p6715
V0.5
p6716
tp6717
asg9
g5922
ssg1112
(dp6718
S'part4_correct_attempt'
p6719
(lp6720
S'0:00:00'
p6721
aV0.4
p6722
asS'part4_incorrect_attempt'
p6723
(lp6724
(S'-1 day, 23:43:26'
p6725
V0.5
p6726
tp6727
a(S'-1 day, 23:49:43'
p6728
V0.58
p6729
tp6730
a(S'-1 day, 23:50:23'
p6731
V0.6
p6732
tp6733
a(S'-1 day, 23:51:12'
p6734
V0.55
p6735
tp6736
asg9
g5554
ssg1544
(dp6737
S'part4_correct_attempt'
p6738
(lp6739
S'0:00:00'
p6740
aV.3
p6741
asS'part4_incorrect_attempt'
p6742
(lp6743
(S'-1 day, 12:29:22'
p6744
V.02
p6745
tp6746
a(S'-1 day, 12:38:45'
p6747
V.4
p6748
tp6749
a(S'-1 day, 13:00:39'
p6750
V.02
p6751
tp6752
asg9
V2016-10-27 18:18:06
p6753
ssS'kkhuong'
p6754
(dp6755
S'part4_correct_attempt'
p6756
(lp6757
S'0:00:00'
p6758
aV0.6
p6759
asS'part4_incorrect_attempt'
p6760
(lp6761
(S'-1 day, 23:56:02'
p6762
V(3.5-2.0)/5.0
p6763
tp6764
a(S'-1 day, 23:56:02'
p6765
V(3.5-2.0)/5.0
p6766
tp6767
a(S'-1 day, 23:57:27'
p6768
V(3.5-2.0)/5.0
p6769
tp6770
a(S'-1 day, 23:57:27'
p6771
V(3.5-2.0)/5.0
p6772
tp6773
asg9
V2016-10-28 05:59:04
p6774
ssg1214
(dp6775
S'part4_correct_attempt'
p6776
(lp6777
S'0:00:00'
p6778
aV0.45
p6779
asS'part4_incorrect_attempt'
p6780
(lp6781
(S'-1 day, 19:42:13'
p6782
V0.08
p6783
tp6784
a(S'-1 day, 19:46:43'
p6785
V0.16
p6786
tp6787
a(S'-1 day, 20:05:15'
p6788
V0.2
p6789
tp6790
a(S'-1 day, 20:12:45'
p6791
V0.09
p6792
tp6793
a(S'-1 day, 20:19:04'
p6794
V0.95
p6795
tp6796
a(S'-1 day, 23:25:44'
p6797
V0.95
p6798
tp6799
a(S'-1 day, 23:41:04'
p6800
V0.48
p6801
tp6802
a(S'-1 day, 23:52:58'
p6803
V0.5
p6804
tp6805
a(S'-1 day, 23:52:58'
p6806
V0.5
p6807
tp6808
a(S'-1 day, 23:58:54'
p6809
V0.5
p6810
tp6811
a(S'-1 day, 23:58:54'
p6812
V0.5
p6813
tp6814
asg9
g5637
ssS'a2evans'
p6815
(dp6816
S'part4_correct_attempt'
p6817
(lp6818
S'0:00:00'
p6819
aV0.45
p6820
asS'part4_incorrect_attempt'
p6821
(lp6822
(S'-1 day, 23:03:31'
p6823
V0.95
p6824
tp6825
a(S'-1 day, 23:09:49'
p6826
V0.95
p6827
tp6828
a(S'-1 day, 23:09:49'
p6829
V0.95
p6830
tp6831
a(S'-1 day, 23:11:36'
p6832
V0.95
p6833
tp6834
a(S'-1 day, 23:12:13'
p6835
V0.87
p6836
tp6837
a(S'-1 day, 23:13:09'
p6838
V0.05
p6839
tp6840
asg9
V2016-10-28 03:12:27
p6841
ssS'Byung'
p6842
(dp6843
S'part4_correct_attempt'
p6844
(lp6845
S'0:00:00'
p6846
aV0.45
p6847
asS'part4_incorrect_attempt'
p6848
(lp6849
(S'-1 day, 20:02:27'
p6850
V0.8
p6851
tp6852
a(S'-1 day, 20:02:27'
p6853
V0.8
p6854
tp6855
a(S'-1 day, 20:03:03'
p6856
V0.8
p6857
tp6858
a(S'-1 day, 20:04:17'
p6859
V0.48
p6860
tp6861
a(S'-1 day, 20:04:17'
p6862
V0.48
p6863
tp6864
a(S'-1 day, 20:09:41'
p6865
V0.48
p6866
tp6867
a(S'-1 day, 20:09:41'
p6868
V0.48
p6869
tp6870
a(S'-1 day, 23:41:48'
p6871
V0.48
p6872
tp6873
a(S'-1 day, 23:41:48'
p6874
V0.48
p6875
tp6876
a(S'-1 day, 23:49:14'
p6877
V0.48
p6878
tp6879
a(S'-1 day, 23:49:14'
p6880
V0.48
p6881
tp6882
a(S'-1 day, 23:51:53'
p6883
V0.25
p6884
tp6885
a(S'-1 day, 23:51:53'
p6886
V0.25
p6887
tp6888
a(S'-1 day, 23:54:38'
p6889
V0.50
p6890
tp6891
a(S'-1 day, 23:54:38'
p6892
V0.50
p6893
tp6894
asg9
g4785
ssS'BrianaW'
p6895
(dp6896
S'part4_correct_attempt'
p6897
(lp6898
S'0:00:00'
p6899
aV0.35
p6900
asS'part4_incorrect_attempt'
p6901
(lp6902
(S'-1 day, 2:53:19'
p6903
V0.3
p6904
tp6905
a(S'-1 day, 2:55:19'
p6906
V0.15
p6907
tp6908
a(S'-1 day, 23:57:35'
p6909
V0.4
p6910
tp6911
a(S'-1 day, 23:58:27'
p6912
V0.5
p6913
tp6914
asg9
V2016-10-27 00:16:48
p6915
ssS'ssolanki'
p6916
(dp6917
S'part4_correct_attempt'
p6918
(lp6919
S'0:00:00'
p6920
aV0.6
p6921
asS'part4_incorrect_attempt'
p6922
(lp6923
(S'-1 day, 23:59:33'
p6924
V0.93
p6925
tp6926
a(S'-1 day, 23:59:33'
p6927
V0.93
p6928
tp6929
asg9
V2016-10-28 04:44:37
p6930
ssg1574
(dp6931
S'part4_correct_attempt'
p6932
(lp6933
S'0:00:00'
p6934
aV.2
p6935
asS'part4_incorrect_attempt'
p6936
(lp6937
(S'-1 day, 23:42:02'
p6938
V.3
p6939
tp6940
a(S'-1 day, 23:42:02'
p6941
V.3
p6942
tp6943
a(S'-1 day, 23:51:55'
p6944
V.95
p6945
tp6946
a(S'-1 day, 23:58:25'
p6947
V.7
p6948
tp6949
a(S'-1 day, 23:58:49'
p6950
V.5
p6951
tp6952
a(S'0:00:00'
p6953
V.2
p6954
tp6955
asg9
g4942
ssg1601
(dp6956
S'part4_correct_attempt'
p6957
(lp6958
S'0:00:00'
p6959
aV.4
p6960
asS'part4_incorrect_attempt'
p6961
(lp6962
(S'-1 day, 23:31:39'
p6963
V.14
p6964
tp6965
a(S'-1 day, 23:46:51'
p6966
V.14
p6967
tp6968
asg9
V2016-10-27 08:59:26
p6969
ssg1616
(dp6970
S'part4_correct_attempt'
p6971
(lp6972
S'0:00:00'
p6973
aV0.7
p6974
asS'part4_incorrect_attempt'
p6975
(lp6976
(S'-1 day, 19:55:21'
p6977
V.7/.5
p6978
tp6979
a(S'-1 day, 19:55:21'
p6980
V.7/.5
p6981
tp6982
a(S'-1 day, 19:56:07'
p6983
V0.5*0.7/2
p6984
tp6985
a(S'-1 day, 19:56:07'
p6986
V0.5*0.7/2
p6987
tp6988
a(S'-1 day, 19:56:41'
p6989
V0.5/0.7
p6990
tp6991
asg9
V2016-10-25 04:49:10
p6992
ssS'Ken'
p6993
(dp6994
S'part4_correct_attempt'
p6995
(lp6996
S'0:00:00'
p6997
aV0.6
p6998
asS'part4_incorrect_attempt'
p6999
(lp7000
(S'-2 days, 1:12:12'
p7001
V0.68
p7002
tp7003
a(S'-2 days, 1:12:12'
p7004
V0.68
p7005
tp7006
a(S'-2 days, 1:13:23'
p7007
V0.68*1.5/2
p7008
tp7009
a(S'-2 days, 1:13:23'
p7010
V0.68*1.5/2
p7011
tp7012
a(S'-2 days, 1:41:42'
p7013
V2.05238+1.5*0.25+0.68*1.5
p7014
tp7015
a(S'-2 days, 1:41:42'
p7016
V2.05238+1.5*0.25+0.68*1.5
p7017
tp7018
a(S'-2 days, 1:55:55'
p7019
V1.5*0.25+0.68*1.5
p7020
tp7021
a(S'-2 days, 1:55:55'
p7022
V1.5*0.25+0.68*1.5
p7023
tp7024
a(S'-2 days, 1:58:09'
p7025
V1.5*0.25+0.68*1.5
p7026
tp7027
a(S'-2 days, 1:58:09'
p7028
V1.5*0.25+0.68*1.5
p7029
tp7030
a(S'-2 days, 2:19:29'
p7031
V0.3
p7032
tp7033
a(S'-2 days, 2:19:29'
p7034
V0.3
p7035
tp7036
a(S'-1 day, 23:59:25'
p7037
V0.3
p7038
tp7039
asg9
g4998
ssS'njcrow'
p7040
(dp7041
S'part4_correct_attempt'
p7042
(lp7043
S'0:00:00'
p7044
aV.3
p7045
asS'part4_incorrect_attempt'
p7046
(lp7047
(S'-1 day, 22:35:41'
p7048
V.02
p7049
tp7050
a(S'-1 day, 22:40:10'
p7051
V.98
p7052
tp7053
a(S'-1 day, 22:40:10'
p7054
V.98
p7055
tp7056
a(S'-1 day, 22:40:37'
p7057
V.98
p7058
tp7059
a(S'-1 day, 22:41:46'
p7060
V.54
p7061
tp7062
a(S'-1 day, 22:53:24'
p7063
V1 - (.44/(1-(e^-1)))
p7064
tp7065
a(S'-1 day, 23:28:48'
p7066
V.98- (1-e^(-3.5)) * (.44/(1-e^(-1)))
p7067
tp7068
a(S'-1 day, 23:29:56'
p7069
V.98-( (1-e^(-3.5)) * (.44/(1-e^(-1))))
p7070
tp7071
a(S'-1 day, 23:29:56'
p7072
V.98-( (1-e^(-3.5)) * (.44/(1-e^(-1))))
p7073
tp7074
a(S'-1 day, 23:48:01'
p7075
V.44
p7076
tp7077
a(S'-1 day, 23:48:01'
p7078
V.44
p7079
tp7080
a(S'-1 day, 23:48:27'
p7081
V.98
p7082
tp7083
a(S'-1 day, 23:48:27'
p7084
V.98
p7085
tp7086
a(S'-1 day, 23:48:52'
p7087
V1-(e^-1)
p7088
tp7089
a(S'-1 day, 23:48:52'
p7090
V1-(e^-1)
p7091
tp7092
a(S'-1 day, 23:49:35'
p7093
V1-(e^-1)
p7094
tp7095
a(S'-1 day, 23:49:35'
p7096
V1-(e^-1)
p7097
tp7098
a(S'-1 day, 23:50:12'
p7099
V1-(e^-1)
p7100
tp7101
a(S'-1 day, 23:50:12'
p7102
V1-(e^-1)
p7103
tp7104
a(S'-1 day, 23:50:35'
p7105
V1-(e^-1)
p7106
tp7107
a(S'-1 day, 23:50:35'
p7108
V1-(e^-1)
p7109
tp7110
a(S'-1 day, 23:52:41'
p7111
V.54
p7112
tp7113
a(S'-1 day, 23:52:41'
p7114
V.54
p7115
tp7116
a(S'-1 day, 23:53:19'
p7117
V.56
p7118
tp7119
a(S'-1 day, 23:53:19'
p7120
V.56
p7121
tp7122
a(S'-1 day, 23:53:50'
p7123
V.02
p7124
tp7125
a(S'-1 day, 23:53:50'
p7126
V.02
p7127
tp7128
a(S'-1 day, 23:54:13'
p7129
V.03
p7130
tp7131
a(S'-1 day, 23:54:13'
p7132
V.03
p7133
tp7134
a(S'-1 day, 23:54:37'
p7135
V.04
p7136
tp7137
a(S'-1 day, 23:54:37'
p7138
V.04
p7139
tp7140
a(S'-1 day, 23:55:01'
p7141
V.46
p7142
tp7143
a(S'-1 day, 23:55:01'
p7144
V.46
p7145
tp7146
a(S'-1 day, 23:55:24'
p7147
V.5
p7148
tp7149
a(S'-1 day, 23:55:24'
p7150
V.5
p7151
tp7152
a(S'-1 day, 23:55:47'
p7153
V.49
p7154
tp7155
a(S'-1 day, 23:55:47'
p7156
V.49
p7157
tp7158
a(S'-1 day, 23:56:17'
p7159
V.48
p7160
tp7161
a(S'-1 day, 23:56:17'
p7162
V.48
p7163
tp7164
a(S'-1 day, 23:56:41'
p7165
V.47
p7166
tp7167
a(S'-1 day, 23:56:41'
p7168
V.47
p7169
tp7170
a(S'-1 day, 23:57:06'
p7171
V.45
p7172
tp7173
a(S'-1 day, 23:57:06'
p7174
V.45
p7175
tp7176
a(S'-1 day, 23:57:30'
p7177
V.43
p7178
tp7179
a(S'-1 day, 23:57:30'
p7180
V.43
p7181
tp7182
a(S'-1 day, 23:57:55'
p7183
V.42
p7184
tp7185
a(S'-1 day, 23:57:55'
p7186
V.42
p7187
tp7188
a(S'-1 day, 23:58:21'
p7189
V.41
p7190
tp7191
a(S'-1 day, 23:58:21'
p7192
V.41
p7193
tp7194
a(S'-1 day, 23:58:45'
p7195
V.4
p7196
tp7197
a(S'-1 day, 23:58:45'
p7198
V.4
p7199
tp7200
a(S'-1 day, 23:59:13'
p7201
V.35
p7202
tp7203
a(S'-1 day, 23:59:13'
p7204
V.35
p7205
tp7206
asg9
V2016-10-28 03:21:24
p7207
ssg1949
(dp7208
S'part4_correct_attempt'
p7209
(lp7210
S'0:00:00'
p7211
aV0.35
p7212
asS'part4_incorrect_attempt'
p7213
(lp7214
(S'-2 days, 20:32:38'
p7215
V0.10
p7216
tp7217
a(S'-1 day, 23:50:44'
p7218
V0.95
p7219
tp7220
a(S'-1 day, 23:54:48'
p7221
V0.90
p7222
tp7223
a(S'-1 day, 23:55:24'
p7224
V0.85
p7225
tp7226
a(S'-1 day, 23:56:06'
p7227
V0.80
p7228
tp7229
a(S'-1 day, 23:56:41'
p7230
V0.75
p7231
tp7232
a(S'-1 day, 23:57:07'
p7233
V0.70
p7234
tp7235
a(S'-1 day, 23:57:36'
p7236
V0.65
p7237
tp7238
a(S'-1 day, 23:58:00'
p7239
V0.60
p7240
tp7241
a(S'-1 day, 23:58:23'
p7242
V0.55
p7243
tp7244
a(S'-1 day, 23:58:47'
p7245
V0.50
p7246
tp7247
a(S'-1 day, 23:59:12'
p7248
V0.45
p7249
tp7250
a(S'-1 day, 23:59:36'
p7251
V0.40
p7252
tp7253
asg9
g5207
ssS'ajgiri'
p7254
(dp7255
S'part4_correct_attempt'
p7256
(lp7257
S'0:00:00'
p7258
aV.45
p7259
asS'part4_incorrect_attempt'
p7260
(lp7261
(S'-1 day, 23:07:03'
p7262
V.08
p7263
tp7264
a(S'-1 day, 23:07:03'
p7265
V.08
p7266
tp7267
a(S'-1 day, 23:07:26'
p7268
V.08
p7269
tp7270
a(S'-1 day, 23:07:26'
p7271
V.08
p7272
tp7273
a(S'-1 day, 23:25:33'
p7274
V.08
p7275
tp7276
a(S'-1 day, 23:25:33'
p7277
V.08
p7278
tp7279
a(S'-1 day, 23:25:57'
p7280
V.08
p7281
tp7282
a(S'-1 day, 23:25:57'
p7283
V.08
p7284
tp7285
a(S'-1 day, 23:26:20'
p7286
V.08
p7287
tp7288
a(S'-1 day, 23:26:20'
p7289
V.08
p7290
tp7291
a(S'-1 day, 23:50:13'
p7292
V.08
p7293
tp7294
a(S'-1 day, 23:50:13'
p7295
V.08
p7296
tp7297
asg9
g5233
ssg5281
(dp7298
S'part4_correct_attempt'
p7299
(lp7300
S'0:00:00'
p7301
aV.35
p7302
asS'part4_incorrect_attempt'
p7303
(lp7304
(S'-3 days, 16:49:02'
p7305
V.3
p7306
tp7307
a(S'-1 day, 23:58:58'
p7308
V.6
p7309
tp7310
asg9
g5295
ssS'wtchiu'
p7311
(dp7312
S'part4_correct_attempt'
p7313
(lp7314
S'0:00:00'
p7315
aV1-.4
p7316
asS'part4_incorrect_attempt'
p7317
(lp7318
(S'-1 day, 23:35:56'
p7319
V1-(.25/(1-e^(-0.5*2.0)))
p7320
tp7321
a(S'-1 day, 23:38:28'
p7322
V(.93-.25)*0.5*1.5
p7323
tp7324
a(S'-1 day, 23:39:34'
p7325
V.93/(.93-.25)*0.5*1.5
p7326
tp7327
asg9
V2016-10-28 03:29:22
p7328
ssS'djmoreno'
p7329
(dp7330
S'part4_correct_attempt'
p7331
(lp7332
S'0:00:00'
p7333
aV.45
p7334
asS'part4_incorrect_attempt'
p7335
(lp7336
(S'-1 day, 22:36:03'
p7337
V.4
p7338
tp7339
a(S'-1 day, 22:36:03'
p7340
V.4
p7341
tp7342
a(S'-1 day, 22:37:30'
p7343
V1/(-2.0 + 4.5)
p7344
tp7345
a(S'-1 day, 23:10:49'
p7346
V.18
p7347
tp7348
a(S'-1 day, 23:34:34'
p7349
V.4
p7350
tp7351
a(S'-1 day, 23:34:34'
p7352
V.4
p7353
tp7354
a(S'-1 day, 23:41:05'
p7355
V.9992
p7356
tp7357
a(S'-1 day, 23:48:07'
p7358
V.85
p7359
tp7360
a(S'-1 day, 23:48:07'
p7361
V.85
p7362
tp7363
asg9
g5858
ssS'wesokuhara'
p7364
(dp7365
S'part4_correct_attempt'
p7366
(lp7367
S'0:00:00'
p7368
aV0.4
p7369
asS'part4_incorrect_attempt'
p7370
(lp7371
(S'-2 days, 11:35:30'
p7372
V1/7
p7373
tp7374
a(S'-1 day, 21:34:20'
p7375
V2.5/7
p7376
tp7377
a(S'-1 day, 21:34:20'
p7378
V2.5/7
p7379
tp7380
a(S'-1 day, 21:37:39'
p7381
V2.5/7
p7382
tp7383
a(S'-1 day, 21:37:39'
p7384
V2.5/7
p7385
tp7386
a(S'-1 day, 21:50:37'
p7387
V2.5/7
p7388
tp7389
a(S'-1 day, 21:50:37'
p7390
V2.5/7
p7391
tp7392
a(S'-1 day, 22:57:43'
p7393
V2.5/7
p7394
tp7395
a(S'-1 day, 22:57:43'
p7396
V2.5/7
p7397
tp7398
a(S'-1 day, 22:58:06'
p7399
V0.1
p7400
tp7401
a(S'-1 day, 22:58:06'
p7402
V0.1
p7403
tp7404
a(S'-1 day, 22:58:29'
p7405
V0.15
p7406
tp7407
a(S'-1 day, 22:58:29'
p7408
V0.15
p7409
tp7410
a(S'-1 day, 23:02:45'
p7411
V0.05
p7412
tp7413
a(S'-1 day, 23:02:45'
p7414
V0.05
p7415
tp7416
a(S'-1 day, 23:03:09'
p7417
V0.25
p7418
tp7419
a(S'-1 day, 23:03:09'
p7420
V0.25
p7421
tp7422
a(S'-1 day, 23:22:56'
p7423
V0.3
p7424
tp7425
a(S'-1 day, 23:22:56'
p7426
V0.3
p7427
tp7428
a(S'-1 day, 23:58:35'
p7429
V0.35
p7430
tp7431
a(S'-1 day, 23:58:35'
p7432
V0.35
p7433
tp7434
asg9
g5419
ssg2398
(dp7435
S'part4_correct_attempt'
p7436
(lp7437
S'0:00:00'
p7438
aV0.7
p7439
asS'part4_incorrect_attempt'
p7440
(lp7441
(S'-1 day, 23:02:38'
p7442
V0.2
p7443
tp7444
a(S'-1 day, 23:04:04'
p7445
V0.3
p7446
tp7447
a(S'-1 day, 23:52:22'
p7448
V0.33
p7449
tp7450
asg9
V2016-10-27 03:15:18
p7451
ssS'mninette'
p7452
(dp7453
S'part4_incorrect_attempt'
p7454
(lp7455
(S'0:00:00'
p7456
V.5
p7457
tp7458
asg9
V2016-10-28 02:35:46
p7459
ssg2472
(dp7460
S'part4_correct_attempt'
p7461
(lp7462
S'0:00:00'
p7463
aV.45
p7464
asS'part4_incorrect_attempt'
p7465
(lp7466
(S'-1 day, 23:16:35'
p7467
V0.461
p7468
tp7469
a(S'-1 day, 23:16:35'
p7470
V0.461
p7471
tp7472
asg9
V2016-10-27 05:16:38
p7473
ssS'adejesus'
p7474
(dp7475
S'part4_correct_attempt'
p7476
(lp7477
S'0:00:00'
p7478
aV1-.60
p7479
asS'part4_incorrect_attempt'
p7480
(lp7481
(S'-1 day, 15:55:47'
p7482
V0.05
p7483
tp7484
a(S'-1 day, 16:00:59'
p7485
V0.1
p7486
tp7487
a(S'-1 day, 16:38:24'
p7488
V4.5-0.05
p7489
tp7490
a(S'-1 day, 16:41:16'
p7491
V1-0.05
p7492
tp7493
a(S'-1 day, 16:41:39'
p7494
V4.5 - 0.05
p7495
tp7496
a(S'-1 day, 18:47:26'
p7497
V1-0.05
p7498
tp7499
a(S'-1 day, 19:15:55'
p7500
V.85
p7501
tp7502
a(S'-1 day, 19:17:45'
p7503
V.86
p7504
tp7505
a(S'-1 day, 23:40:55'
p7506
V0.15
p7507
tp7508
a(S'-1 day, 23:41:24'
p7509
V1-0.05
p7510
tp7511
a(S'-1 day, 23:47:53'
p7512
V1 - .15
p7513
tp7514
a(S'-1 day, 23:57:43'
p7515
V1-0.1
p7516
tp7517
asg9
g5615
ssg2574
(dp7518
S'part4_correct_attempt'
p7519
(lp7520
S'0:00:00'
p7521
aV.4
p7522
asS'part4_incorrect_attempt'
p7523
(lp7524
(S'-1 day, 23:24:18'
p7525
V.14
p7526
tp7527
a(S'-1 day, 23:27:37'
p7528
V.15
p7529
tp7530
asg9
g4800
ssg2616
(dp7531
S'part4_correct_attempt'
p7532
(lp7533
S'0:00:00'
p7534
aV0.60
p7535
asS'part4_incorrect_attempt'
p7536
(lp7537
(S'-1 day, 23:54:29'
p7538
V0.6045
p7539
tp7540
a(S'-1 day, 23:54:29'
p7541
V0.6045
p7542
tp7543
a(S'-1 day, 23:57:46'
p7544
V0.6045
p7545
tp7546
a(S'-1 day, 23:57:46'
p7547
V0.6045
p7548
tp7549
asg9
V2016-10-28 05:45:37
p7550
ssg3487
(dp7551
S'part4_correct_attempt'
p7552
(lp7553
S'0:00:00'
p7554
aV0.6
p7555
asS'part4_incorrect_attempt'
p7556
(lp7557
(S'-1 day, 20:49:32'
p7558
V0.5
p7559
tp7560
a(S'-1 day, 20:56:25'
p7561
V1-(0.29*0.05)
p7562
tp7563
a(S'-1 day, 22:19:39'
p7564
V0.7
p7565
tp7566
a(S'-1 day, 22:20:53'
p7567
V0.75
p7568
tp7569
a(S'-1 day, 22:21:19'
p7570
V0.7
p7571
tp7572
a(S'-1 day, 22:23:43'
p7573
V0.05
p7574
tp7575
a(S'-1 day, 22:24:06'
p7576
V0.0
p7577
tp7578
a(S'-1 day, 22:28:48'
p7579
V0.7
p7580
tp7581
a(S'-1 day, 22:29:23'
p7582
V0.65
p7583
tp7584
a(S'-1 day, 22:37:49'
p7585
V0.1
p7586
tp7587
a(S'-1 day, 23:44:21'
p7588
V0.3
p7589
tp7590
a(S'-1 day, 23:44:55'
p7591
V0.5
p7592
tp7593
a(S'-1 day, 23:45:22'
p7594
V0.1
p7595
tp7596
a(S'-1 day, 23:45:54'
p7597
V0.4
p7598
tp7599
a(S'-1 day, 23:51:19'
p7600
V0.25
p7601
tp7602
a(S'-1 day, 23:52:30'
p7603
V0.45
p7604
tp7605
a(S'-1 day, 23:53:24'
p7606
V1-(0.125*1.5+0.25+0.04)
p7607
tp7608
asg9
V2016-10-26 02:19:04
p7609
ssS'lmfink'
p7610
(dp7611
S'part4_correct_attempt'
p7612
(lp7613
S'0:00:00'
p7614
aV.7
p7615
asS'part4_incorrect_attempt'
p7616
(lp7617
(S'-1 day, 23:58:11'
p7618
V.65
p7619
tp7620
a(S'-1 day, 23:58:11'
p7621
V.65
p7622
tp7623
a(S'-1 day, 23:59:07'
p7624
V.325
p7625
tp7626
a(S'-1 day, 23:59:07'
p7627
V.325
p7628
tp7629
asg9
V2016-10-27 01:58:05
p7630
ssg2661
(dp7631
S'part4_correct_attempt'
p7632
(lp7633
S'0:00:00'
p7634
aV.4
p7635
asS'part4_incorrect_attempt'
p7636
(lp7637
(S'-1 day, 21:32:31'
p7638
V.58
p7639
tp7640
a(S'-1 day, 21:32:31'
p7641
V.58
p7642
tp7643
asg9
V2016-10-28 01:33:58
p7644
ssg2676
(dp7645
S'part4_correct_attempt'
p7646
(lp7647
S'0:00:00'
p7648
aV1/2.5
p7649
asS'part4_incorrect_attempt'
p7650
(lp7651
(S'-1 day, 14:24:53'
p7652
V.14
p7653
tp7654
a(S'-1 day, 14:32:20'
p7655
V0.14
p7656
tp7657
a(S'-1 day, 14:32:20'
p7658
V0.14
p7659
tp7660
a(S'-1 day, 14:38:23'
p7661
V0.86
p7662
tp7663
a(S'-1 day, 14:38:23'
p7664
V0.86
p7665
tp7666
a(S'-1 day, 15:14:22'
p7667
V.21
p7668
tp7669
a(S'-1 day, 15:14:22'
p7670
V.21
p7671
tp7672
a(S'-1 day, 15:15:27'
p7673
V0.14
p7674
tp7675
a(S'-1 day, 15:15:27'
p7676
V0.14
p7677
tp7678
a(S'-1 day, 23:53:27'
p7679
V0.14
p7680
tp7681
a(S'-1 day, 23:53:27'
p7682
V0.14
p7683
tp7684
asg9
g5165
ssg2751
(dp7685
S'part4_correct_attempt'
p7686
(lp7687
S'0:00:00'
p7688
aV0.48
p7689
asS'part4_incorrect_attempt'
p7690
(lp7691
(S'-1 day, 22:22:51'
p7692
V0.48
p7693
tp7694
a(S'-1 day, 22:24:32'
p7695
V0.95
p7696
tp7697
a(S'-1 day, 22:25:51'
p7698
V0.9
p7699
tp7700
a(S'-1 day, 22:25:51'
p7701
V0.9
p7702
tp7703
a(S'-1 day, 22:27:55'
p7704
V0.9
p7705
tp7706
a(S'-1 day, 22:29:37'
p7707
V0.48
p7708
tp7709
a(S'-1 day, 22:30:06'
p7710
V0.08
p7711
tp7712
a(S'-1 day, 22:30:06'
p7713
V0.08
p7714
tp7715
a(S'-1 day, 22:47:00'
p7716
V0.4
p7717
tp7718
a(S'-1 day, 22:47:00'
p7719
V0.4
p7720
tp7721
a(S'-1 day, 23:44:43'
p7722
V0.48
p7723
tp7724
a(S'-1 day, 23:44:43'
p7725
V0.48
p7726
tp7727
a(S'-1 day, 23:45:07'
p7728
V0.5
p7729
tp7730
a(S'-1 day, 23:45:07'
p7731
V0.5
p7732
tp7733
a(S'0:00:00'
p7734
V0.48
p7735
tp7736
asg9
V2016-10-27 15:45:42
p7737
ssS'shadams'
p7738
(dp7739
S'part4_correct_attempt'
p7740
(lp7741
S'0:00:00'
p7742
aV0.35
p7743
asS'part4_incorrect_attempt'
p7744
(lp7745
(S'-2 days, 22:13:24'
p7746
V(.09)(4)
p7747
tp7748
a(S'-2 days, 22:17:25'
p7749
V0.36
p7750
tp7751
a(S'-2 days, 22:18:35'
p7752
V6*.09
p7753
tp7754
a(S'-2 days, 22:21:46'
p7755
V.5
p7756
tp7757
a(S'-2 days, 22:31:42'
p7758
V.09/4
p7759
tp7760
a(S'-2 days, 22:40:37'
p7761
V1-(4*0.09)
p7762
tp7763
a(S'-2 days, 22:41:01'
p7764
V0.09*3
p7765
tp7766
a(S'-1 day, 0:04:01'
p7767
V.09
p7768
tp7769
a(S'-1 day, 0:08:04'
p7770
V0.5
p7771
tp7772
a(S'-1 day, 0:16:18'
p7773
V.4
p7774
tp7775
a(S'-1 day, 0:17:13'
p7776
V.15
p7777
tp7778
a(S'-1 day, 0:18:23'
p7779
V.1
p7780
tp7781
a(S'-1 day, 0:19:07'
p7782
V0.1
p7783
tp7784
a(S'-1 day, 0:19:29'
p7785
V.25
p7786
tp7787
a(S'-1 day, 0:20:09'
p7788
V0.95
p7789
tp7790
a(S'-1 day, 0:39:28'
p7791
V0.15
p7792
tp7793
a(S'-1 day, 14:51:04'
p7794
V1-(1-e^(-0.5*4.55))
p7795
tp7796
a(S'-1 day, 14:54:56'
p7797
V1- (1-e^(-0.5*5))
p7798
tp7799
a(S'-1 day, 15:00:43'
p7800
V1/4.55
p7801
tp7802
a(S'-1 day, 17:38:52'
p7803
V.1
p7804
tp7805
a(S'-1 day, 17:39:16'
p7806
V.09
p7807
tp7808
a(S'-1 day, 17:39:38'
p7809
V.95
p7810
tp7811
a(S'-1 day, 17:40:01'
p7812
V.9
p7813
tp7814
a(S'-1 day, 23:55:34'
p7815
V.05
p7816
tp7817
asg9
g4879
ssg2862
(dp7818
S'part4_correct_attempt'
p7819
(lp7820
S'0:00:00'
p7821
aV0.6
p7822
asS'part4_incorrect_attempt'
p7823
(lp7824
(S'-1 day, 23:38:02'
p7825
V1-(1-e^(-0.5*2))
p7826
tp7827
a(S'-1 day, 23:53:29'
p7828
V1-(0.25/(1-e^(-0.5*2)))
p7829
tp7830
a(S'-1 day, 23:56:30'
p7831
V1-(0.25/(1-0.37))
p7832
tp7833
asg9
V2016-10-27 23:15:12
p7834
ssg2904
(dp7835
S'part4_correct_attempt'
p7836
(lp7837
S'0:00:00'
p7838
aV0.45
p7839
asS'part4_incorrect_attempt'
p7840
(lp7841
(S'-2 days, 17:15:35'
p7842
V0.3
p7843
tp7844
asg9
g5577
ssg2937
(dp7845
S'part4_correct_attempt'
p7846
(lp7847
S'0:00:00'
p7848
aV.45
p7849
asS'part4_incorrect_attempt'
p7850
(lp7851
(S'-1 day, 22:20:43'
p7852
V.5
p7853
tp7854
a(S'-1 day, 22:40:31'
p7855
V.95
p7856
tp7857
a(S'-1 day, 22:41:19'
p7858
V.9
p7859
tp7860
a(S'-1 day, 23:48:53'
p7861
V.7
p7862
tp7863
a(S'-1 day, 23:49:16'
p7864
V.75
p7865
tp7866
a(S'-1 day, 23:50:46'
p7867
V.8
p7868
tp7869
a(S'-1 day, 23:51:10'
p7870
V.65
p7871
tp7872
a(S'-1 day, 23:51:10'
p7873
V.65
p7874
tp7875
a(S'-1 day, 23:51:40'
p7876
V.6
p7877
tp7878
a(S'-1 day, 23:51:40'
p7879
V.6
p7880
tp7881
a(S'-1 day, 23:52:18'
p7882
V.55
p7883
tp7884
a(S'-1 day, 23:52:18'
p7885
V.55
p7886
tp7887
a(S'-1 day, 23:52:42'
p7888
V.5
p7889
tp7890
a(S'-1 day, 23:52:42'
p7891
V.5
p7892
tp7893
a(S'-1 day, 23:53:07'
p7894
V.72
p7895
tp7896
a(S'-1 day, 23:53:07'
p7897
V.72
p7898
tp7899
asg9
g5324
ssS'cameronEllis'
p7900
(dp7901
S'part4_correct_attempt'
p7902
(lp7903
S'0:00:00'
p7904
aV0.45
p7905
asS'part4_incorrect_attempt'
p7906
(lp7907
(S'-2 days, 23:04:52'
p7908
V0.95
p7909
tp7910
a(S'-2 days, 23:05:59'
p7911
V0.10
p7912
tp7913
a(S'-2 days, 23:06:37'
p7914
V0.0
p7915
tp7916
a(S'-1 day, 15:23:47'
p7917
V0.10
p7918
tp7919
asg9
g5280
ssS'Melvinw'
p7920
(dp7921
S'part4_correct_attempt'
p7922
(lp7923
S'0:00:00'
p7924
aV0.6
p7925
asS'part4_incorrect_attempt'
p7926
(lp7927
(S'-1 day, 20:08:57'
p7928
V1.5/5
p7929
tp7930
a(S'-1 day, 23:44:54'
p7931
V0.55
p7932
tp7933
a(S'-1 day, 23:44:54'
p7934
V0.55
p7935
tp7936
a(S'-1 day, 23:45:21'
p7937
V0.55
p7938
tp7939
asg9
V2016-10-28 06:59:09
p7940
ssS'KevinChrisayrton'
p7941
(dp7942
S'part4_correct_attempt'
p7943
(lp7944
S'0:00:00'
p7945
aV0.4
p7946
asS'part4_incorrect_attempt'
p7947
(lp7948
(S'-1 day, 23:55:54'
p7949
V0.7
p7950
tp7951
a(S'-1 day, 23:57:21'
p7952
V0.7
p7953
tp7954
asg9
V2016-10-28 06:59:31
p7955
ssg3200
(dp7956
S'part4_correct_attempt'
p7957
(lp7958
S'0:00:00'
p7959
aV0.3
p7960
asS'part4_incorrect_attempt'
p7961
(lp7962
(S'-1 day, 8:54:28'
p7963
V0.5
p7964
tp7965
asg9
g4891
ssS'aliceh'
p7966
(dp7967
S'part4_correct_attempt'
p7968
(lp7969
S'0:00:00'
p7970
aV.45
p7971
asS'part4_incorrect_attempt'
p7972
(lp7973
(S'-2 days, 2:41:09'
p7974
V.9
p7975
tp7976
asg9
V2016-10-28 02:35:31
p7977
ssg5296
(dp7978
S'part4_correct_attempt'
p7979
(lp7980
S'0:00:00'
p7981
aV.7
p7982
asS'part4_incorrect_attempt'
p7983
(lp7984
(S'-1 day, 23:59:12'
p7985
V1 - .3 / (1-e^(-6))
p7986
tp7987
a(S'-1 day, 23:59:12'
p7988
V1 - .3 / (1-e^(-6))
p7989
tp7990
a(S'-1 day, 23:59:35'
p7991
V1 - .3 / (1-e^(-6))
p7992
tp7993
asg9
g5310
ssg3311
(dp7994
S'part4_incorrect_attempt'
p7995
(lp7996
(S'0:00:00'
p7997
V.45
p7998
tp7999
a(S'0:00:00'
p8000
V0.45
p8001
tp8002
asg9
V2016-10-28 03:44:45
p8003
ssS'oganguli'
p8004
(dp8005
S'part4_correct_attempt'
p8006
(lp8007
S'0:00:00'
p8008
aV.13
p8009
asS'part4_incorrect_attempt'
p8010
(lp8011
(S'-2 days, 19:23:43'
p8012
V.14
p8013
tp8014
a(S'-2 days, 19:28:22'
p8015
V0.15
p8016
tp8017
a(S'-2 days, 19:28:22'
p8018
V0.15
p8019
tp8020
a(S'-2 days, 19:31:07'
p8021
V0.15
p8022
tp8023
a(S'-2 days, 19:31:07'
p8024
V0.15
p8025
tp8026
a(S'-2 days, 19:31:34'
p8027
V0.15
p8028
tp8029
a(S'-2 days, 19:31:34'
p8030
V0.15
p8031
tp8032
a(S'-2 days, 19:33:47'
p8033
V0.15
p8034
tp8035
a(S'-2 days, 19:33:47'
p8036
V0.15
p8037
tp8038
a(S'-1 day, 16:58:44'
p8039
V0.15
p8040
tp8041
a(S'-1 day, 16:58:44'
p8042
V0.15
p8043
tp8044
a(S'-1 day, 16:59:23'
p8045
V0.15
p8046
tp8047
a(S'-1 day, 17:08:37'
p8048
V0.14
p8049
tp8050
a(S'-1 day, 17:08:37'
p8051
V0.14
p8052
tp8053
a(S'-1 day, 17:25:23'
p8054
V0.15
p8055
tp8056
a(S'-1 day, 17:25:23'
p8057
V0.15
p8058
tp8059
a(S'-1 day, 22:31:01'
p8060
V.85
p8061
tp8062
a(S'-1 day, 22:31:01'
p8063
V.85
p8064
tp8065
a(S'-1 day, 22:31:25'
p8066
V.15
p8067
tp8068
a(S'-1 day, 22:31:25'
p8069
V.15
p8070
tp8071
a(S'-1 day, 22:33:08'
p8072
V.45
p8073
tp8074
a(S'-1 day, 22:33:08'
p8075
V.45
p8076
tp8077
a(S'-1 day, 22:37:16'
p8078
V.1
p8079
tp8080
a(S'-1 day, 22:37:16'
p8081
V.1
p8082
tp8083
a(S'-1 day, 23:52:41'
p8084
V.55
p8085
tp8086
a(S'-1 day, 23:52:41'
p8087
V.55
p8088
tp8089
a(S'-1 day, 23:54:14'
p8090
V.14
p8091
tp8092
a(S'-1 day, 23:54:14'
p8093
V.14
p8094
tp8095
a(S'-1 day, 23:57:00'
p8096
V.20
p8097
tp8098
a(S'-1 day, 23:57:00'
p8099
V.20
p8100
tp8101
a(S'-1 day, 23:57:25'
p8102
V.30
p8103
tp8104
a(S'-1 day, 23:57:25'
p8105
V.30
p8106
tp8107
a(S'-1 day, 23:57:49'
p8108
V.86
p8109
tp8110
a(S'-1 day, 23:57:49'
p8111
V.86
p8112
tp8113
a(S'-1 day, 23:59:35'
p8114
V.87
p8115
tp8116
a(S'-1 day, 23:59:35'
p8117
V.87
p8118
tp8119
a(S'0:00:00'
p8120
V.13
p8121
tp8122
asg9
g5473
ssg3451
(dp8123
S'part4_correct_attempt'
p8124
(lp8125
S'0:00:00'
p8126
aV.5
p8127
asS'part4_incorrect_attempt'
p8128
(lp8129
(S'-1 day, 23:55:31'
p8130
V.51
p8131
tp8132
a(S'-1 day, 23:59:04'
p8133
V1.5
p8134
tp8135
a(S'-1 day, 23:59:04'
p8136
V1.5
p8137
tp8138
a(S'-1 day, 23:59:36'
p8139
V1.5
p8140
tp8141
a(S'0:00:00'
p8142
V.5
p8143
tp8144
asg9
V2016-10-28 03:02:19
p8145
ssg3475
(dp8146
S'part4_correct_attempt'
p8147
(lp8148
S'0:00:00'
p8149
aV0.6
p8150
asS'part4_incorrect_attempt'
p8151
(lp8152
(S'-1 day, 23:54:33'
p8153
V0.65
p8154
tp8155
asg9
V2016-10-25 06:12:23
p8156
ssg3547
(dp8157
S'part4_correct_attempt'
p8158
(lp8159
S'0:00:00'
p8160
aV.40
p8161
asS'part4_incorrect_attempt'
p8162
(lp8163
(S'-1 day, 17:58:52'
p8164
V.15
p8165
tp8166
a(S'-1 day, 23:23:20'
p8167
V.7
p8168
tp8169
a(S'-1 day, 23:26:38'
p8170
V.14
p8171
tp8172
a(S'-1 day, 23:51:11'
p8173
V.392
p8174
tp8175
asg9
V2016-10-27 03:49:52
p8176
ssg3601
(dp8177
S'part4_correct_attempt'
p8178
(lp8179
S'0:00:00'
p8180
aV0.45
p8181
asS'part4_incorrect_attempt'
p8182
(lp8183
(S'-3 days, 23:39:11'
p8184
V0.95
p8185
tp8186
a(S'-3 days, 23:41:49'
p8187
V0.5
p8188
tp8189
a(S'-3 days, 23:41:49'
p8190
V0.5
p8191
tp8192
a(S'-3 days, 23:42:16'
p8193
V0.5
p8194
tp8195
a(S'-2 days, 0:06:39'
p8196
V1/3
p8197
tp8198
a(S'-2 days, 0:10:00'
p8199
V0.55
p8200
tp8201
a(S'-2 days, 16:18:13'
p8202
V0.95
p8203
tp8204
a(S'-1 day, 23:12:16'
p8205
V0.55
p8206
tp8207
a(S'-1 day, 23:12:44'
p8208
V0.6
p8209
tp8210
a(S'-1 day, 23:35:03'
p8211
V0.1
p8212
tp8213
a(S'-1 day, 23:56:54'
p8214
V0.15
p8215
tp8216
a(S'-1 day, 23:57:29'
p8217
V0.2
p8218
tp8219
a(S'-1 day, 23:58:00'
p8220
V0.25
p8221
tp8222
a(S'-1 day, 23:58:25'
p8223
V0.3
p8224
tp8225
a(S'-1 day, 23:59:12'
p8226
V0.35
p8227
tp8228
a(S'-1 day, 23:59:35'
p8229
V0.4
p8230
tp8231
asg9
V2016-10-27 06:19:06
p8232
ssg3664
(dp8233
S'part4_correct_attempt'
p8234
(lp8235
S'0:00:00'
p8236
aV0.45
p8237
asS'part4_incorrect_attempt'
p8238
(lp8239
(S'-1 day, 23:58:13'
p8240
V0.3
p8241
tp8242
asg9
g5510
ssg3691
(dp8243
S'part4_correct_attempt'
p8244
(lp8245
S'0:00:00'
p8246
aV.45
p8247
asS'part4_incorrect_attempt'
p8248
(lp8249
(S'-1 day, 23:41:25'
p8250
V.87
p8251
tp8252
a(S'-1 day, 23:43:41'
p8253
V.08
p8254
tp8255
a(S'-1 day, 23:44:58'
p8256
V.1
p8257
tp8258
a(S'-1 day, 23:47:12'
p8259
V.05
p8260
tp8261
a(S'-1 day, 23:54:30'
p8262
V.95
p8263
tp8264
a(S'-1 day, 23:54:53'
p8265
V.05
p8266
tp8267
a(S'-1 day, 23:55:27'
p8268
V.9
p8269
tp8270
a(S'-1 day, 23:55:52'
p8271
V.85
p8272
tp8273
a(S'-1 day, 23:56:17'
p8274
V.8
p8275
tp8276
a(S'-1 day, 23:56:43'
p8277
V.3
p8278
tp8279
a(S'-1 day, 23:57:32'
p8280
V.1
p8281
tp8282
a(S'-1 day, 23:57:57'
p8283
V.75
p8284
tp8285
a(S'-1 day, 23:58:22'
p8286
V.65
p8287
tp8288
a(S'-1 day, 23:58:45'
p8289
V.6
p8290
tp8291
a(S'-1 day, 23:59:10'
p8292
V.55
p8293
tp8294
a(S'-1 day, 23:59:35'
p8295
V.5
p8296
tp8297
asg9
g5566
ssg3748
(dp8298
S'part4_correct_attempt'
p8299
(lp8300
S'0:00:00'
p8301
aV0.45
p8302
asS'part4_incorrect_attempt'
p8303
(lp8304
(S'-5 days, 23:18:50'
p8305
V5.5
p8306
tp8307
a(S'-5 days, 23:23:45'
p8308
V0.08
p8309
tp8310
a(S'-5 days, 23:43:10'
p8311
V0.50
p8312
tp8313
a(S'-2 days, 0:52:49'
p8314
V0.08
p8315
tp8316
a(S'-2 days, 0:57:47'
p8317
V0.08
p8318
tp8319
a(S'-2 days, 1:23:47'
p8320
V1/9
p8321
tp8322
a(S'-2 days, 1:23:47'
p8323
V1/9
p8324
tp8325
a(S'-2 days, 3:00:39'
p8326
V0.95
p8327
tp8328
a(S'-2 days, 3:00:39'
p8329
V0.95
p8330
tp8331
a(S'-2 days, 3:01:51'
p8332
V0.95
p8333
tp8334
a(S'-2 days, 3:01:51'
p8335
V0.95
p8336
tp8337
a(S'-2 days, 3:05:12'
p8338
V0.95
p8339
tp8340
a(S'-2 days, 3:05:12'
p8341
V0.95
p8342
tp8343
a(S'-1 day, 23:31:39'
p8344
V0.50
p8345
tp8346
a(S'-1 day, 23:31:39'
p8347
V0.50
p8348
tp8349
a(S'-1 day, 23:54:27'
p8350
V0.10
p8351
tp8352
a(S'-1 day, 23:54:27'
p8353
V0.10
p8354
tp8355
asg9
g5043
ssS'Guillermo'
p8356
(dp8357
S'part4_correct_attempt'
p8358
(lp8359
S'0:00:00'
p8360
aV.40
p8361
asS'part4_incorrect_attempt'
p8362
(lp8363
(S'-1 day, 11:49:36'
p8364
V(.14-0)/(0+2.5)
p8365
tp8366
a(S'-1 day, 12:01:38'
p8367
V(1-0)/(4.50+2.50)
p8368
tp8369
a(S'-1 day, 12:01:38'
p8370
V(1-0)/(4.50+2.50)
p8371
tp8372
a(S'-1 day, 12:05:14'
p8373
V(1-0)/(4.50+2.50)*.14
p8374
tp8375
a(S'-1 day, 12:05:14'
p8376
V(1-0)/(4.50+2.50)*.14
p8377
tp8378
a(S'-1 day, 12:05:37'
p8379
V((1-0)/(4.50+2.50))*.14
p8380
tp8381
a(S'-1 day, 12:05:37'
p8382
V((1-0)/(4.50+2.50))*.14
p8383
tp8384
a(S'-1 day, 12:07:18'
p8385
V.86
p8386
tp8387
a(S'-1 day, 12:07:18'
p8388
V.86
p8389
tp8390
a(S'-1 day, 12:08:37'
p8391
V.86
p8392
tp8393
a(S'-1 day, 12:08:37'
p8394
V.86
p8395
tp8396
a(S'-1 day, 12:28:55'
p8397
V.15
p8398
tp8399
a(S'-1 day, 12:28:55'
p8400
V.15
p8401
tp8402
a(S'-1 day, 23:51:02'
p8403
V.392
p8404
tp8405
a(S'-1 day, 23:51:02'
p8406
V.392
p8407
tp8408
a(S'-1 day, 23:51:27'
p8409
V.39
p8410
tp8411
a(S'-1 day, 23:51:27'
p8412
V.39
p8413
tp8414
a(S'-1 day, 23:52:24'
p8415
V.395
p8416
tp8417
a(S'-1 day, 23:52:24'
p8418
V.395
p8419
tp8420
a(S'-1 day, 23:54:19'
p8421
V.395
p8422
tp8423
a(S'-1 day, 23:54:19'
p8424
V.395
p8425
tp8426
a(S'-1 day, 23:57:38'
p8427
V.395
p8428
tp8429
a(S'-1 day, 23:57:38'
p8430
V.395
p8431
tp8432
a(S'-1 day, 23:58:15'
p8433
V.390
p8434
tp8435
a(S'-1 day, 23:58:15'
p8436
V.390
p8437
tp8438
a(S'-1 day, 23:58:52'
p8439
V.440
p8440
tp8441
a(S'-1 day, 23:58:52'
p8442
V.440
p8443
tp8444
asg9
g5667
ssg3895
(dp8445
S'part4_correct_attempt'
p8446
(lp8447
S'0:00:00'
p8448
aV0.4
p8449
asS'part4_incorrect_attempt'
p8450
(lp8451
(S'-1 day, 19:58:00'
p8452
V0.58
p8453
tp8454
a(S'-1 day, 19:58:00'
p8455
V0.58
p8456
tp8457
a(S'-1 day, 20:00:29'
p8458
V0.6
p8459
tp8460
a(S'-1 day, 20:00:29'
p8461
V0.6
p8462
tp8463
a(S'-1 day, 20:00:53'
p8464
V0.65
p8465
tp8466
a(S'-1 day, 20:00:53'
p8467
V0.65
p8468
tp8469
a(S'-1 day, 20:04:44'
p8470
V0.58
p8471
tp8472
a(S'-1 day, 20:04:44'
p8473
V0.58
p8474
tp8475
a(S'-1 day, 20:05:08'
p8476
V0.55
p8477
tp8478
a(S'-1 day, 20:13:35'
p8479
V0.16
p8480
tp8481
a(S'-1 day, 20:14:26'
p8482
V0.79
p8483
tp8484
a(S'-1 day, 20:15:28'
p8485
V0.58
p8486
tp8487
a(S'-1 day, 20:15:28'
p8488
V0.58
p8489
tp8490
a(S'-1 day, 20:18:53'
p8491
V0.58/0.95
p8492
tp8493
a(S'-1 day, 20:19:19'
p8494
V0.58/0.95
p8495
tp8496
a(S'-1 day, 22:59:48'
p8497
V0.58
p8498
tp8499
a(S'-1 day, 22:59:48'
p8500
V0.58
p8501
tp8502
asg9
g5682
ssg3955
(dp8503
S'part4_correct_attempt'
p8504
(lp8505
S'0:00:00'
p8506
aV0.4
p8507
asS'part4_incorrect_attempt'
p8508
(lp8509
(S'-3 days, 18:38:41'
p8510
V0.14
p8511
tp8512
a(S'-3 days, 19:18:18'
p8513
V0.056
p8514
tp8515
a(S'-3 days, 19:25:46'
p8516
V0.35
p8517
tp8518
a(S'-1 day, 23:47:06'
p8519
V0.15
p8520
tp8521
a(S'-1 day, 23:57:06'
p8522
V0.25
p8523
tp8524
a(S'-1 day, 23:57:06'
p8525
V0.25
p8526
tp8527
a(S'-1 day, 23:57:55'
p8528
V0.65
p8529
tp8530
a(S'-1 day, 23:57:55'
p8531
V0.65
p8532
tp8533
a(S'-1 day, 23:58:25'
p8534
V0.5
p8535
tp8536
a(S'-1 day, 23:58:25'
p8537
V0.5
p8538
tp8539
a(S'-1 day, 23:58:48'
p8540
V0.45
p8541
tp8542
asg9
g5016
ssS'Zeyi'
p8543
(dp8544
S'part4_correct_attempt'
p8545
(lp8546
S'0:00:00'
p8547
aV0.4
p8548
asS'part4_incorrect_attempt'
p8549
(lp8550
(S'-1 day, 23:52:55'
p8551
V2.5
p8552
tp8553
a(S'-1 day, 23:52:55'
p8554
V2.5
p8555
tp8556
asg9
g4839
ssg4026
(dp8557
S'part4_correct_attempt'
p8558
(lp8559
S'0:00:00'
p8560
aV0.35
p8561
asS'part4_incorrect_attempt'
p8562
(lp8563
(S'-4 days, 6:34:25'
p8564
V0.09
p8565
tp8566
asg9
V2016-10-26 23:01:51
p8567
ssg4038
(dp8568
S'part4_correct_attempt'
p8569
(lp8570
S'0:00:00'
p8571
aV0.45
p8572
asS'part4_incorrect_attempt'
p8573
(lp8574
(S'-1 day, 18:09:20'
p8575
V0.48
p8576
tp8577
a(S'-1 day, 18:26:47'
p8578
V0.4
p8579
tp8580
a(S'-1 day, 18:30:04'
p8581
V0.5
p8582
tp8583
a(S'-1 day, 18:43:48'
p8584
V0.6
p8585
tp8586
a(S'-1 day, 18:43:48'
p8587
V0.6
p8588
tp8589
asg9
V2016-10-25 23:06:36
p8590
ssS'rleaton'
p8591
(dp8592
S'part4_correct_attempt'
p8593
(lp8594
S'0:00:00'
p8595
aV.6
p8596
asS'part4_incorrect_attempt'
p8597
(lp8598
(S'-1 day, 23:43:05'
p8599
V.65
p8600
tp8601
asg9
V2016-10-27 05:39:19
p8602
ssS'cpence'
p8603
(dp8604
S'part4_correct_attempt'
p8605
(lp8606
S'0:00:00'
p8607
aV0.4
p8608
asS'part4_incorrect_attempt'
p8609
(lp8610
(S'-1 day, 22:47:27'
p8611
V0.9
p8612
tp8613
a(S'-1 day, 23:47:06'
p8614
V1 - 0.32/(1 - 1/(e^0.75))
p8615
tp8616
asg9
V2016-10-28 06:30:30
p8617
ssg948
(dp8618
S'part4_correct_attempt'
p8619
(lp8620
S'0:00:00'
p8621
aV1 - (0.86 / 1.5)
p8622
asS'part4_incorrect_attempt'
p8623
(lp8624
(S'-1 day, 23:06:23'
p8625
V0.14
p8626
tp8627
a(S'-1 day, 23:06:23'
p8628
V0.14
p8629
tp8630
a(S'-1 day, 23:25:16'
p8631
V0.14/2.5
p8632
tp8633
a(S'-1 day, 23:25:16'
p8634
V0.14/2.5
p8635
tp8636
a(S'-1 day, 23:39:45'
p8637
V0.39
p8638
tp8639
a(S'-1 day, 23:39:45'
p8640
V0.39
p8641
tp8642
a(S'-1 day, 23:50:58'
p8643
V1- (1-0.14)/1.5
p8644
tp8645
a(S'-1 day, 23:50:58'
p8646
V1- (1-0.14)/1.5
p8647
tp8648
a(S'-1 day, 23:58:16'
p8649
V0.39
p8650
tp8651
a(S'-1 day, 23:58:16'
p8652
V0.39
p8653
tp8654
a(S'0:00:00'
p8655
V1 - (0.86 / 1.5)
p8656
tp8657
asg9
g5265
ssg4125
(dp8658
S'part4_correct_attempt'
p8659
(lp8660
S'0:00:00'
p8661
aV0.35
p8662
asS'part4_incorrect_attempt'
p8663
(lp8664
(S'-1 day, 23:57:19'
p8665
V0.6
p8666
tp8667
asg9
g4953
ssg4155
(dp8668
S'part4_correct_attempt'
p8669
(lp8670
S'0:00:00'
p8671
aV0.7
p8672
asS'part4_incorrect_attempt'
p8673
(lp8674
(S'-2 days, 18:08:33'
p8675
V0.4
p8676
tp8677
asg9
V2016-10-27 06:15:55
p8678
ssg4167
(dp8679
S'part4_correct_attempt'
p8680
(lp8681
S'0:00:00'
p8682
aV.60
p8683
asS'part4_incorrect_attempt'
p8684
(lp8685
(S'-1 day, 23:56:05'
p8686
V.7
p8687
tp8688
asg9
V2016-10-28 04:03:54
p8689
ssg4224
(dp8690
S'part4_correct_attempt'
p8691
(lp8692
S'0:00:00'
p8693
aV0.45
p8694
asS'part4_incorrect_attempt'
p8695
(lp8696
(S'-1 day, 22:32:08'
p8697
V4.5/9.5
p8698
tp8699
a(S'-1 day, 22:32:08'
p8700
V4.5/9.5
p8701
tp8702
asg9
V2016-10-26 22:20:06
p8703
ssg4239
(dp8704
S'part4_correct_attempt'
p8705
(lp8706
S'0:00:00'
p8707
aV.4
p8708
asS'part4_incorrect_attempt'
p8709
(lp8710
(S'-1 day, 21:55:53'
p8711
V.14
p8712
tp8713
a(S'-1 day, 23:40:22'
p8714
V0.392
p8715
tp8716
asg9
V2016-10-27 03:23:59
p8717
ssS'CharlesCruz'
p8718
(dp8719
S'part4_correct_attempt'
p8720
(lp8721
S'0:00:00'
p8722
aV0.45
p8723
asS'part4_incorrect_attempt'
p8724
(lp8725
(S'-1 day, 23:53:39'
p8726
V1.8
p8727
tp8728
asg9
g5151
ssS'ThuanNguyen'
p8729
(dp8730
S'part4_correct_attempt'
p8731
(lp8732
S'0:00:00'
p8733
aV0.6
p8734
asS'part4_incorrect_attempt'
p8735
(lp8736
(S'-1 day, 6:57:48'
p8737
V(5/3)*(0.93-0.25)
p8738
tp8739
a(S'-1 day, 6:57:48'
p8740
V(5/3)*(0.93-0.25)
p8741
tp8742
a(S'-1 day, 7:01:00'
p8743
V(3.5/1.5)*(0.93-0.25)
p8744
tp8745
a(S'-1 day, 8:26:42'
p8746
V(1/3)*(1/2)
p8747
tp8748
a(S'-1 day, 8:26:42'
p8749
V(1/3)*(1/2)
p8750
tp8751
a(S'-1 day, 8:29:31'
p8752
V(1/3)*(1/2)
p8753
tp8754
a(S'-1 day, 23:47:01'
p8755
V0.75
p8756
tp8757
a(S'-1 day, 23:47:01'
p8758
V0.75
p8759
tp8760
a(S'-1 day, 23:48:23'
p8761
V0.75
p8762
tp8763
a(S'-1 day, 23:48:23'
p8764
V0.75
p8765
tp8766
a(S'-1 day, 23:52:43'
p8767
V0.6045
p8768
tp8769
a(S'-1 day, 23:52:43'
p8770
V0.6045
p8771
tp8772
asg9
V2016-10-27 17:39:06
p8773
ssS'mtashman'
p8774
(dp8775
S'part4_correct_attempt'
p8776
(lp8777
S'0:00:00'
p8778
aV.7
p8779
asS'part4_incorrect_attempt'
p8780
(lp8781
(S'-1 day, 23:57:03'
p8782
V.3
p8783
tp8784
asg9
V2016-10-24 21:21:11
p8785
ssS'tdea'
p8786
(dp8787
S'part4_correct_attempt'
p8788
(lp8789
S'0:00:00'
p8790
aV.45
p8791
asS'part4_incorrect_attempt'
p8792
(lp8793
(S'-1 day, 23:51:15'
p8794
V.7
p8795
tp8796
asg9
g5824
ssS'JessKwok'
p8797
(dp8798
S'part4_correct_attempt'
p8799
(lp8800
S'0:00:00'
p8801
aV.6
p8802
asS'part4_incorrect_attempt'
p8803
(lp8804
(S'-1 day, 23:29:20'
p8805
V1.5/5
p8806
tp8807
a(S'-1 day, 23:29:20'
p8808
V1.5/5
p8809
tp8810
a(S'-1 day, 23:30:26'
p8811
V1.5/10
p8812
tp8813
a(S'-1 day, 23:30:26'
p8814
V1.5/10
p8815
tp8816
asg9
V2016-10-27 00:07:18
p8817
ssg4415
(dp8818
S'part4_correct_attempt'
p8819
(lp8820
S'0:00:00'
p8821
aV0.4
p8822
asS'part4_incorrect_attempt'
p8823
(lp8824
(S'-1 day, 0:26:46'
p8825
V0.3
p8826
tp8827
a(S'-1 day, 22:53:15'
p8828
V0.86
p8829
tp8830
a(S'-1 day, 22:55:16'
p8831
V0.14
p8832
tp8833
a(S'-1 day, 23:58:39'
p8834
V0.45
p8835
tp8836
a(S'-1 day, 23:59:28'
p8837
V0.5
p8838
tp8839
asg9
g5335
ssg4433
(dp8840
S'part4_correct_attempt'
p8841
(lp8842
S'0:00:00'
p8843
aV0.3
p8844
asS'part4_incorrect_attempt'
p8845
(lp8846
(S'-1 day, 22:40:59'
p8847
V0.05
p8848
tp8849
a(S'-1 day, 22:40:59'
p8850
V0.05
p8851
tp8852
a(S'-1 day, 22:42:34'
p8853
V0.05
p8854
tp8855
a(S'-1 day, 22:48:03'
p8856
V0.55
p8857
tp8858
a(S'-1 day, 22:50:28'
p8859
V0.5
p8860
tp8861
a(S'-1 day, 22:51:19'
p8862
V0.4
p8863
tp8864
a(S'-1 day, 22:52:06'
p8865
V0.6
p8866
tp8867
a(S'-1 day, 22:52:57'
p8868
V0.55
p8869
tp8870
a(S'-1 day, 23:05:59'
p8871
V0.05
p8872
tp8873
a(S'-1 day, 23:43:03'
p8874
V0.01
p8875
tp8876
a(S'-1 day, 23:44:57'
p8877
V0.02
p8878
tp8879
a(S'-1 day, 23:46:56'
p8880
V0.1
p8881
tp8882
a(S'-1 day, 23:47:21'
p8883
V0.15
p8884
tp8885
a(S'-1 day, 23:49:20'
p8886
V0.55
p8887
tp8888
a(S'-1 day, 23:49:45'
p8889
V0.45
p8890
tp8891
a(S'-1 day, 23:57:17'
p8892
V0.05
p8893
tp8894
a(S'-1 day, 23:58:56'
p8895
V0.5
p8896
tp8897
asg9
g5387
ssg4496
(dp8898
S'part4_correct_attempt'
p8899
(lp8900
S'0:00:00'
p8901
aV0.4
p8902
asS'part4_incorrect_attempt'
p8903
(lp8904
(S'-1 day, 20:25:52'
p8905
V0.315
p8906
tp8907
a(S'-1 day, 20:27:43'
p8908
V0.3
p8909
tp8910
a(S'-1 day, 20:39:31'
p8911
V0.3
p8912
tp8913
a(S'-1 day, 20:42:14'
p8914
V0.14
p8915
tp8916
a(S'-1 day, 20:46:40'
p8917
V0.2
p8918
tp8919
a(S'-1 day, 20:47:07'
p8920
V0.1
p8921
tp8922
a(S'-1 day, 20:47:07'
p8923
V0.1
p8924
tp8925
a(S'-1 day, 23:47:38'
p8926
V0.45
p8927
tp8928
a(S'-1 day, 23:47:38'
p8929
V0.45
p8930
tp8931
a(S'-1 day, 23:56:46'
p8932
V0.5
p8933
tp8934
a(S'-1 day, 23:56:46'
p8935
V0.5
p8936
tp8937
asg9
g5398
ssg4568
(dp8938
S'part4_correct_attempt'
p8939
(lp8940
S'0:00:00'
p8941
aV.6
p8942
asS'part4_incorrect_attempt'
p8943
(lp8944
(S'-2 days, 17:50:34'
p8945
V.75
p8946
tp8947
a(S'-2 days, 17:51:43'
p8948
V.5
p8949
tp8950
a(S'-2 days, 18:01:03'
p8951
V.68
p8952
tp8953
a(S'-2 days, 18:15:49'
p8954
V.7
p8955
tp8956
asg9
V2016-10-27 03:31:43
p8957
ssg4592
(dp8958
S'part4_correct_attempt'
p8959
(lp8960
S'0:00:00'
p8961
aV.4
p8962
asS'part4_incorrect_attempt'
p8963
(lp8964
(S'-1 day, 23:55:52'
p8965
V.65
p8966
tp8967
a(S'-1 day, 23:56:48'
p8968
V0.6
p8969
tp8970
a(S'-1 day, 23:58:12'
p8971
V.5
p8972
tp8973
a(S'-1 day, 23:58:36'
p8974
V.55
p8975
tp8976
asg9
g5499
ssg4613
(dp8977
S'part4_correct_attempt'
p8978
(lp8979
S'0:00:00'
p8980
aV0.35
p8981
asS'part4_incorrect_attempt'
p8982
(lp8983
(S'-1 day, 7:02:08'
p8984
V0.6
p8985
tp8986
a(S'-1 day, 9:22:06'
p8987
V0.39
p8988
tp8989
a(S'-1 day, 9:34:07'
p8990
V0.16
p8991
tp8992
a(S'-1 day, 23:32:38'
p8993
V0.36
p8994
tp8995
a(S'-1 day, 23:32:38'
p8996
V0.36
p8997
tp8998
asg9
g5528
ssg5904
(dp8999
S'part4_correct_attempt'
p9000
(lp9001
S'0:00:00'
p9002
aV0.45
p9003
asS'part4_incorrect_attempt'
p9004
(lp9005
(S'-1 day, 23:57:07'
p9006
V0.4
p9007
tp9008
asg9
g5910
ssg4652
(dp9009
S'part4_correct_attempt'
p9010
(lp9011
S'0:00:00'
p9012
aV0.4
p9013
asS'part4_incorrect_attempt'
p9014
(lp9015
(S'-1 day, 5:13:17'
p9016
V0.14
p9017
tp9018
asg9
V2016-10-26 21:47:23
p9019
ssg4664
(dp9020
S'part4_correct_attempt'
p9021
(lp9022
S'0:00:00'
p9023
aV0.45
p9024
asS'part4_incorrect_attempt'
p9025
(lp9026
(S'-1 day, 23:58:25'
p9027
V0.7
p9028
tp9029
a(S'-1 day, 23:59:37'
p9030
V0.4
p9031
tp9032
asg9
g5959
ssg4679
(dp9033
S'part4_correct_attempt'
p9034
(lp9035
S'0:00:00'
p9036
aV0.2
p9037
asS'part4_incorrect_attempt'
p9038
(lp9039
(S'0:00:00'
p9040
V0.2
p9041
tp9042
asg9
g5626
ssS'KevinKuo'
p9043
(dp9044
S'part4_correct_attempt'
p9045
(lp9046
S'0:00:00'
p9047
aV.6
p9048
asS'part4_incorrect_attempt'
p9049
(lp9050
(S'-1 day, 21:02:43'
p9051
V0.68
p9052
tp9053
a(S'-1 day, 23:29:18'
p9054
V1-.3955
p9055
tp9056
a(S'-1 day, 23:29:18'
p9057
V1-.3955
p9058
tp9059
a(S'-1 day, 23:48:40'
p9060
V0.68
p9061
tp9062
a(S'-1 day, 23:48:40'
p9063
V0.68
p9064
tp9065
a(S'-1 day, 23:52:40'
p9066
V0.736
p9067
tp9068
a(S'-1 day, 23:52:40'
p9069
V0.736
p9070
tp9071
a(S'-1 day, 23:53:15'
p9072
V0.7359
p9073
tp9074
a(S'-1 day, 23:54:56'
p9075
V.486
p9076
tp9077
a(S'-1 day, 23:54:56'
p9078
V.486
p9079
tp9080
asg9
V2016-10-28 05:47:06
p9081
ssg4736
(dp9082
S'part4_correct_attempt'
p9083
(lp9084
S'0:00:00'
p9085
aV0.6
p9086
asS'part4_incorrect_attempt'
p9087
(lp9088
(S'-1 day, 23:48:00'
p9089
V0.7
p9090
tp9091
a(S'-1 day, 23:48:00'
p9092
V0.7
p9093
tp9094
a(S'-1 day, 23:48:38'
p9095
V0.7
p9096
tp9097
a(S'-1 day, 23:48:38'
p9098
V0.7
p9099
tp9100
asg9
V2016-10-26 03:29:46
p9101
sss.