(dp0
V1
p1
(dp2
Vdruble
p3
(dp4
S'part1_correct_attempt'
p5
(lp6
S'0:25:44'
p7
aV80*(1/800)
p8
asS'first_attempt'
p9
V2015-11-04 04:36:09
p10
sS'part1_incorrect_attempt'
p11
(lp12
(S'0:00:00'
p13
V1/ ((1/800) * 80)
p14
tp15
assVb3hwang
p16
(dp17
S'part1_correct_attempt'
p18
(lp19
S'0:00:20'
p20
aV100/1000
p21
asg9
V2015-11-05 07:08:20
p22
sS'part1_incorrect_attempt'
p23
(lp24
(S'0:00:00'
p25
V1000/100
p26
tp27
assVccn001
p28
(dp29
S'part1_correct_attempt'
p30
(lp31
S'0:02:25'
p32
aV0.1
p33
asg9
V2015-11-05 00:57:11
p34
sS'part1_incorrect_attempt'
p35
(lp36
(S'0:00:00'
p37
V1/1200
p38
tp39
assVt2shin
p40
(dp41
S'part1_correct_attempt'
p42
(lp43
S'0:00:46'
p44
aV120/1200
p45
asg9
V2015-11-04 04:25:01
p46
sS'part1_incorrect_attempt'
p47
(lp48
(S'0:00:00'
p49
V1/120
p50
tp51
a(S'0:00:29'
p52
V1200/120
p53
tp54
assVfichoi
p55
(dp56
S'part1_correct_attempt'
p57
(lp58
S'0:02:24'
p59
aV1/1100*110
p60
asg9
V2015-11-03 22:53:38
p61
sS'part1_incorrect_attempt'
p62
(lp63
(S'0:00:00'
p64
V(1/1100)/110
p65
tp66
a(S'0:02:14'
p67
V1/1100
p68
tp69
assValakamsa
p70
(dp71
S'part1_correct_attempt'
p72
(lp73
S'2 days, 0:48:57'
p74
aV.1
p75
asg9
V2015-11-02 17:12:44
p76
sS'part1_incorrect_attempt'
p77
(lp78
(S'0:00:00'
p79
V0.01
p80
tp81
assVabjara
p82
(dp83
S'part1_correct_attempt'
p84
(lp85
S'0:08:42'
p86
aV80/800
p87
asg9
V2015-11-04 01:10:19
p88
sS'part1_incorrect_attempt'
p89
(lp90
(S'0:00:00'
p91
V10/800
p92
tp93
a(S'0:00:05'
p94
V1/800
p95
tp96
a(S'0:01:18'
p97
V(1/800)/10
p98
tp99
assVmasaro
p100
(dp101
S'part1_correct_attempt'
p102
(lp103
S'0:09:06'
p104
aV0.1
p105
asg9
V2015-11-02 00:47:11
p106
sS'part1_incorrect_attempt'
p107
(lp108
(S'0:00:00'
p109
V110*e^(-1/1100)
p110
tp111
a(S'0:05:02'
p112
Ve^(-1/1100)*[(1/1100)^1/1!]
p113
tp114
a(S'0:06:03'
p115
Ve^(-1/1100)*[(1/1100)^110/110!]
p116
tp117
assVdcrume
p118
(dp119
S'part1_correct_attempt'
p120
(lp121
S'5:42:22'
p122
aV90/900
p123
asg9
V2015-11-06 17:42:52
p124
sS'part1_incorrect_attempt'
p125
(lp126
(S'0:00:00'
p127
V1/900*(1/10)
p128
tp129
assVmroknich
p130
(dp131
S'part1_correct_attempt'
p132
(lp133
S'0:00:07'
p134
aV110/1100
p135
asg9
V2015-11-01 19:38:57
p136
sS'part1_incorrect_attempt'
p137
(lp138
(S'0:00:00'
p139
V1100*1/110
p140
tp141
assVt2li
p142
(dp143
S'part1_correct_attempt'
p144
(lp145
S'0:00:31'
p146
aV1/1200 *120
p147
asg9
V2015-11-06 00:47:01
p148
sS'part1_incorrect_attempt'
p149
(lp150
(S'0:00:00'
p151
V1/1200
p152
tp153
assVk5law
p154
(dp155
S'part1_correct_attempt'
p156
(lp157
S'0:03:45'
p158
aV120/1200
p159
asg9
V2015-11-04 07:24:51
p160
sS'part1_incorrect_attempt'
p161
(lp162
(S'0:00:00'
p163
Ve^(-120)
p164
tp165
assVdlt009
p166
(dp167
S'part1_correct_attempt'
p168
(lp169
S'2:47:37'
p170
aV110(1/1100)
p171
asg9
V2015-11-05 04:13:36
p172
sS'part1_incorrect_attempt'
p173
(lp174
(S'0:00:00'
p175
V[e^-(1/1100)][(1/1100)^3]/[3!]
p176
tp177
a(S'0:00:42'
p178
V[e^-(110/1100)][(110)(1/1100)^3]/[3!]
p179
tp180
a(S'0:01:24'
p181
V[e^-(110/1100)][[(110)(1/1100)]^3]/[3!]
p182
tp183
a(S'1:48:17'
p184
V[1100][e^-(110/1100)][[(110)(1/1100)]^3]/[3!]
p185
tp186
a(S'2:27:50'
p187
V[110][e^-(110/1100)][[(110)(1/1100)]^3]/[3!]
p188
tp189
a(S'0:00:00'
p190
V110[[e^-(110/1100)][[(110)(1/1100)]^3]/[3!]]
p191
tp192
assVmbl003
p193
(dp194
S'part1_correct_attempt'
p195
(lp196
S'0:04:21'
p197
aV120/1200
p198
asg9
V2015-11-05 20:33:22
p199
sS'part1_incorrect_attempt'
p200
(lp201
(S'0:00:00'
p202
Ve^(-1/1200) * (((-1/1200)^120)/120!)
p203
tp204
a(S'0:00:16'
p205
Ve^(-1/1200) * (((1/1200)^120)/120!)
p206
tp207
a(S'0:01:51'
p208
Ve^(-120/1200) * (((120/1200)^0)/0!)
p209
tp210
a(S'0:03:19'
p211
V1-e^(-120/1200) * (((120/1200)^0)/0!)
p212
tp213
assVn2patil
p214
(dp215
S'part1_correct_attempt'
p216
(lp217
S'0:08:26'
p218
aV.1
p219
asg9
V2015-11-03 06:18:15
p220
sS'part1_incorrect_attempt'
p221
(lp222
(S'0:00:00'
p223
V1-e^(-90/900)
p224
tp225
a(S'0:00:15'
p226
V1-e^(-900/90)
p227
tp228
assVtpmach
p229
(dp230
S'part1_correct_attempt'
p231
(lp232
S'23:32:11'
p233
aV110/1100
p234
asg9
V2015-11-04 00:08:49
p235
sS'part1_incorrect_attempt'
p236
(lp237
(S'0:00:00'
p238
V1/1100
p239
tp240
a(S'0:00:06'
p241
V1/110
p242
tp243
a(S'0:00:00'
p244
V(1/110)(1/2)(110)(109)
p245
tp246
a(S'0:00:13'
p247
V(1/1100)(1/2)(110)(109)
p248
tp249
assVgsrandha
p250
(dp251
S'part1_correct_attempt'
p252
(lp253
S'0:00:10'
p254
aV1/900 * 90
p255
asg9
V2015-11-05 00:43:27
p256
sS'part1_incorrect_attempt'
p257
(lp258
(S'0:00:00'
p259
V1/900
p260
tp261
assVjyc018
p262
(dp263
S'part1_correct_attempt'
p264
(lp265
S'0:00:18'
p266
aV1/900*90
p267
asg9
V2015-11-01 01:13:16
p268
sS'part1_incorrect_attempt'
p269
(lp270
(S'0:00:00'
p271
V1/900
p272
tp273
assVdkostins
p274
(dp275
S'part1_correct_attempt'
p276
(lp277
S'0:03:18'
p278
aV80/800
p279
asg9
V2015-11-03 21:25:07
p280
sS'part1_incorrect_attempt'
p281
(lp282
(S'0:00:00'
p283
V1/80
p284
tp285
a(S'0:00:10'
p286
V800/80
p287
tp288
assVyos017
p289
(dp290
S'part1_correct_attempt'
p291
(lp292
S'0:00:09'
p293
aV1/1100 * 110
p294
asg9
V2015-11-06 05:54:30
p295
sS'part1_incorrect_attempt'
p296
(lp297
(S'0:00:00'
p298
V1/1000 * 110
p299
tp300
assVrlhagen
p301
(dp302
S'part1_correct_attempt'
p303
(lp304
S'0:00:08'
p305
aV90/900
p306
asg9
V2015-10-31 17:03:41
p307
sS'part1_incorrect_attempt'
p308
(lp309
(S'0:00:00'
p310
V900/90
p311
tp312
assVjmiclat
p313
(dp314
S'part1_correct_attempt'
p315
(lp316
S'0:29:15'
p317
aV100/1000
p318
asg9
V2015-11-06 08:49:42
p319
sS'part1_incorrect_attempt'
p320
(lp321
(S'0:00:00'
p322
V1000/100
p323
tp324
assVk4ma
p325
(dp326
S'part1_correct_attempt'
p327
(lp328
S'0:01:56'
p329
aV110/1100
p330
asg9
V2015-11-06 20:36:16
p331
sS'part1_incorrect_attempt'
p332
(lp333
(S'0:00:00'
p334
V1/100
p335
tp336
a(S'0:00:21'
p337
V1/1000
p338
tp339
a(S'0:00:28'
p340
V1/1100
p341
tp342
assVjhw015
p343
(dp344
S'part1_correct_attempt'
p345
(lp346
S'0:02:18'
p347
aV90/900
p348
asg9
V2015-11-04 02:23:51
p349
sS'part1_incorrect_attempt'
p350
(lp351
(S'0:00:00'
p352
Ve ^(- 90/(1/900))
p353
tp354
a(S'0:02:02'
p355
V1/90
p356
tp357
assVv4zhang
p358
(dp359
S'part1_correct_attempt'
p360
(lp361
S'0:00:30'
p362
aV(1/900)*90
p363
asg9
V2015-11-05 09:37:24
p364
sS'part1_incorrect_attempt'
p365
(lp366
(S'0:00:00'
p367
V1/900
p368
tp369
assVtcn013
p370
(dp371
S'part1_correct_attempt'
p372
(lp373
S'0:00:14'
p374
aV1/10
p375
asg9
V2015-11-04 01:51:44
p376
sS'part1_incorrect_attempt'
p377
(lp378
(S'0:00:00'
p379
V1/100
p380
tp381
assVhaliew
p382
(dp383
S'part1_correct_attempt'
p384
(lp385
S'0:32:57'
p386
aV1/10
p387
asg9
V2015-11-06 22:42:49
p388
sS'part1_incorrect_attempt'
p389
(lp390
(S'0:00:00'
p391
V900/90
p392
tp393
a(S'0:00:30'
p394
V1/900
p395
tp396
a(S'0:00:34'
p397
V1/90
p398
tp399
assVl8ngo
p400
(dp401
S'part1_correct_attempt'
p402
(lp403
S'0:00:48'
p404
aV1/800*80
p405
asg9
V2015-11-04 00:20:27
p406
sS'part1_incorrect_attempt'
p407
(lp408
(S'0:00:00'
p409
V1/80
p410
tp411
a(S'0:00:10'
p412
V1/800
p413
tp414
assVmcatozzi
p415
(dp416
S'part1_correct_attempt'
p417
(lp418
S'0:00:10'
p419
aV.1
p420
asg9
V2015-11-03 18:56:11
p421
sS'part1_incorrect_attempt'
p422
(lp423
(S'0:00:00'
p424
V.01
p425
tp426
a(S'0:00:05'
p427
V.001
p428
tp429
assVaurodrig
p430
(dp431
S'part1_correct_attempt'
p432
(lp433
S'0:09:54'
p434
aV90/900
p435
asg9
V2015-11-06 04:50:38
p436
sS'part1_incorrect_attempt'
p437
(lp438
(S'0:00:00'
p439
V90.0
p440
tp441
a(S'0:04:53'
p442
V1/900
p443
tp444
assVm4bui
p445
(dp446
S'part1_correct_attempt'
p447
(lp448
S'0:01:41'
p449
aV(1100/10)/1100
p450
asg9
V2015-11-05 22:47:02
p451
sS'part1_incorrect_attempt'
p452
(lp453
(S'0:00:00'
p454
V110 *110 /10
p455
tp456
a(S'0:01:00'
p457
V1110*1110
p458
tp459
assVarvenega
p460
(dp461
S'part1_correct_attempt'
p462
(lp463
S'0:03:24'
p464
aV1/10
p465
asg9
V2015-11-05 00:01:32
p466
sS'part1_incorrect_attempt'
p467
(lp468
(S'0:00:00'
p469
V1/1000/100
p470
tp471
assVflhernan
p472
(dp473
S'part1_correct_attempt'
p474
(lp475
S'0:00:10'
p476
aV80/800
p477
asg9
V2015-11-03 18:36:04
p478
sS'part1_incorrect_attempt'
p479
(lp480
(S'0:00:00'
p481
V800/80
p482
tp483
assVlahawkin
p484
(dp485
S'part1_correct_attempt'
p486
(lp487
S'0:01:52'
p488
aV100/1000
p489
asg9
V2015-11-04 04:29:06
p490
sS'part1_incorrect_attempt'
p491
(lp492
(S'0:00:00'
p493
V1/1000
p494
tp495
a(S'0:00:35'
p496
V1/100(1000)
p497
tp498
a(S'0:01:30'
p499
V1000/100
p500
tp501
assVw4shin
p502
(dp503
S'part1_correct_attempt'
p504
(lp505
S'0:00:06'
p506
aV90/900
p507
asg9
V2015-11-06 22:25:39
p508
sS'part1_incorrect_attempt'
p509
(lp510
(S'0:00:00'
p511
V1/900
p512
tp513
assVralhadda
p514
(dp515
S'part1_correct_attempt'
p516
(lp517
S'0:00:28'
p518
aV0.1
p519
asg9
V2015-10-31 19:48:43
p520
sS'part1_incorrect_attempt'
p521
(lp522
(S'0:00:00'
p523
V(1/120)
p524
tp525
assVdcastlem
p526
(dp527
S'part1_correct_attempt'
p528
(lp529
S'0:01:52'
p530
aV1/1000*100
p531
asg9
V2015-11-02 06:16:40
p532
sS'part1_incorrect_attempt'
p533
(lp534
(S'0:00:00'
p535
Ve^(-1/1000)*1/1000^100/100!
p536
tp537
a(S'0:00:46'
p538
Ve^(-1/1000)*((1/1000)^100)/100!
p539
tp540
a(S'0:01:16'
p541
V1/1000
p542
tp543
assVxweng
p544
(dp545
S'part1_correct_attempt'
p546
(lp547
S'0:02:42'
p548
aV120/1200
p549
asg9
V2015-11-05 23:29:21
p550
sS'part1_incorrect_attempt'
p551
(lp552
(S'0:00:00'
p553
V1/100
p554
tp555
a(S'0:02:19'
p556
V1/1200
p557
tp558
assVc3chung
p559
(dp560
S'part1_correct_attempt'
p561
(lp562
S'0:05:29'
p563
aV1/800(80)
p564
asg9
V2015-11-06 10:32:38
p565
sS'part1_incorrect_attempt'
p566
(lp567
(S'0:00:00'
p568
Ve^(80)
p569
tp570
a(S'0:05:16'
p571
V1/800
p572
tp573
assVaordookh
p574
(dp575
S'part1_correct_attempt'
p576
(lp577
S'0:18:17'
p578
aV(1/1100)*110
p579
asg9
V2015-11-04 21:31:10
p580
sS'part1_incorrect_attempt'
p581
(lp582
(S'0:00:00'
p583
V1/1100/110
p584
tp585
a(S'0:17:02'
p586
V1/1100
p587
tp588
assVdac064
p589
(dp590
S'part1_correct_attempt'
p591
(lp592
S'0:00:31'
p593
aV110/1100
p594
asg9
V2015-11-05 11:13:25
p595
sS'part1_incorrect_attempt'
p596
(lp597
(S'0:00:00'
p598
V1100/110
p599
tp600
assVmitopete
p601
(dp602
S'part1_correct_attempt'
p603
(lp604
S'0:02:31'
p605
aV110/1100
p606
asg9
V2015-11-04 04:26:02
p607
sS'part1_incorrect_attempt'
p608
(lp609
(S'0:00:00'
p610
V(C(110,1))(1/1100)(1-(1/1000))^109
p611
tp612
a(S'0:00:19'
p613
V(C(110,1))(1/1100)(1-(1/1100))^109
p614
tp615
assVkgrozav
p616
(dp617
S'part1_correct_attempt'
p618
(lp619
S'0:00:24'
p620
aV1/10
p621
asg9
V2015-11-05 06:54:03
p622
sS'part1_incorrect_attempt'
p623
(lp624
(S'0:00:00'
p625
V1/100
p626
tp627
assVjhp077
p628
(dp629
S'part1_correct_attempt'
p630
(lp631
S'0:00:09'
p632
aV120/1200
p633
asg9
V2015-11-05 12:48:23
p634
sS'part1_incorrect_attempt'
p635
(lp636
(S'0:00:00'
p637
V1/1200
p638
tp639
assVj2phung
p640
(dp641
S'part1_correct_attempt'
p642
(lp643
S'0:00:15'
p644
aV100/1000
p645
asg9
V2015-11-03 19:35:11
p646
sS'part1_incorrect_attempt'
p647
(lp648
(S'0:00:00'
p649
V1/100
p650
tp651
a(S'0:00:06'
p652
V1/1000
p653
tp654
asssV3
p655
(dp656
Vapokhare
p657
(dp658
S'part3_correct_attempt'
p659
(lp660
S'0:09:32'
p661
aV(e^(-0.1)*(0.1)^3)/3!
p662
asS'part3_incorrect_attempt'
p663
(lp664
(S'0:08:30'
p665
Ve^(-0.1)*(0.1^.5)
p666
tp667
asg9
V2015-11-05 21:24:16
p668
ssVkew060
p669
(dp670
S'part3_correct_attempt'
p671
(lp672
S'1 day, 23:25:35'
p673
aV0.00452
p674
asS'part3_incorrect_attempt'
p675
(lp676
(S'0:00:00'
p677
V0.0045
p678
tp679
asg9
V2015-11-03 02:09:02
p680
ssVkvass
p681
(dp682
S'part3_correct_attempt'
p683
(lp684
S'0:09:20'
p685
aV[e**(-110/1100) * (110/1100)**3]/3!
p686
asS'part3_incorrect_attempt'
p687
(lp688
(S'0:06:03'
p689
V[e**(-(110/1100) * 110)]/3!
p690
tp691
a(S'0:08:15'
p692
V[e**(-(110/1100) * (110/1100)**3)]/3!
p693
tp694
asg9
V2015-11-05 19:42:09
p695
ssVssamudra
p696
(dp697
S'part3_correct_attempt'
p698
(lp699
S'0:00:58'
p700
aV0.0045241
p701
asS'part3_incorrect_attempt'
p702
(lp703
(S'0:00:00'
p704
V0.004493785
p705
tp706
asg9
V2015-11-05 06:02:24
p707
ssVmhale
p708
(dp709
S'part3_correct_attempt'
p710
(lp711
S'0:27:23'
p712
aVe^(-0.1) * (0.1)^2 / 2
p713
asS'part3_incorrect_attempt'
p714
(lp715
(S'0:24:16'
p716
V[(1/1200)^2] * (1199/1200)^(118)
p717
tp718
a(S'0:25:10'
p719
V[(0.00083333333)^2] * (1199/1200)^(118)
p720
tp721
a(S'0:26:21'
p722
VC(120, 2) * [(0.00083333333)^2] * (1199/1200)^(118)
p723
tp724
a(S'0:27:03'
p725
Ve^(-400/81) * (400/81)^2 / 2
p726
tp727
asg9
V2015-11-05 19:40:16
p728
ssVrsmurlo
p729
(dp730
S'part3_correct_attempt'
p731
(lp732
S'1 day, 22:14:34'
p733
aVe^(-.1)*.1
p734
asS'part3_incorrect_attempt'
p735
(lp736
(S'1 day, 21:57:00'
p737
Ve^(-.0905554)*.0905554
p738
tp739
asg9
V2015-11-03 18:28:24
p740
ssVctgraves
p741
(dp742
S'part3_correct_attempt'
p743
(lp744
S'2 days, 20:14:24'
p745
aV(e^(-120/1200)*(120/1200)^3)/6
p746
asS'part3_incorrect_attempt'
p747
(lp748
(S'2 days, 20:10:54'
p749
V(e^(120/1200)*(120/1200)^3)/6
p750
tp751
a(S'2 days, 20:11:59'
p752
V(e^(120/1200)*(120*120/1200)^3)/6
p753
tp754
a(S'2 days, 20:12:14'
p755
V(e^(-120*120/1200)*(120*120/1200)^3)/6
p756
tp757
asg9
V2015-11-03 05:04:56
p758
ssVc4du
p759
(dp760
S'part3_correct_attempt'
p761
(lp762
S'0:01:42'
p763
aV0.1^2*e^-0.1/2
p764
asS'part3_incorrect_attempt'
p765
(lp766
(S'0:00:00'
p767
V0.1^2*e^-2/2
p768
tp769
asg9
V2015-11-05 03:41:40
p770
ssVjyc018
p771
(dp772
S'part3_correct_attempt'
p773
(lp774
S'0:11:35'
p775
aVe^(-0.1)*0.1^3/6
p776
asS'part3_incorrect_attempt'
p777
(lp778
(S'0:08:30'
p779
Ve^(-0.1)/6
p780
tp781
a(S'0:09:31'
p782
VC(90,3)*(1/900)^3*(899/900)^(87)*e^(-0.1)
p783
tp784
a(S'0:09:37'
p785
VC(90,3)*(1/900)^3*(899/900)^(87)*e^(-0.1)/6
p786
tp787
asg9
V2015-11-01 01:13:34
p788
ssVr9jiang
p789
(dp790
S'part3_correct_attempt'
p791
(lp792
S'0:02:27'
p793
aV0.0001508
p794
asS'part3_incorrect_attempt'
p795
(lp796
(S'0:00:00'
p797
V0.0002
p798
tp799
asg9
V2015-11-02 02:04:35
p800
ssVtcn013
p801
(dp802
S'part3_correct_attempt'
p803
(lp804
S'1 day, 7:52:17'
p805
aV.0905
p806
asS'part3_incorrect_attempt'
p807
(lp808
(S'1 day, 7:51:36'
p809
V.3679
p810
tp811
asg9
V2015-11-04 01:51:58
p812
ssVtstevens
p813
(dp814
S'part3_correct_attempt'
p815
(lp816
S'0:08:21'
p817
aV0.09048374180359596
p818
asS'part3_incorrect_attempt'
p819
(lp820
(S'0:07:09'
p821
V0.000999000499833375
p822
tp823
a(S'0:07:27'
p824
V0.0827274002725516
p825
tp826
asg9
V2015-11-06 12:34:51
p827
ssVl8ngo
p828
(dp829
S'part3_correct_attempt'
p830
(lp831
S'2 days, 4:27:45'
p832
aV[e^-0.1]*[0.1^3]/6
p833
asS'part3_incorrect_attempt'
p834
(lp835
(S'2 days, 4:24:51'
p836
V[e^(-1/800)]*[(1/800)^3]/6
p837
tp838
asg9
V2015-11-04 00:21:15
p839
ssVabasu
p840
(dp841
S'part3_correct_attempt'
p842
(lp843
S'5:34:25'
p844
aVe^(-0.1)((0.1)^3/3!)
p845
asS'part3_incorrect_attempt'
p846
(lp847
(S'0:09:53'
p848
V1-e^(-0.3)
p849
tp850
a(S'0:10:44'
p851
V3(e^(-0.1))
p852
tp853
a(S'5:34:10'
p854
Ve^(-1/900)((1/900)^3/3!)
p855
tp856
asg9
V2015-11-04 20:34:10
p857
ssVachava
p858
(dp859
S'part3_correct_attempt'
p860
(lp861
S'0:05:05'
p862
aVe^(-90/900) * ((1/10)^3/(6))
p863
asS'part3_incorrect_attempt'
p864
(lp865
(S'0:03:54'
p866
Ve^(-1/900) * ((1/900)^3/(6))
p867
tp868
a(S'0:04:33'
p869
Ve^(-900) * ((900)^3/(6))
p870
tp871
a(S'0:04:40'
p872
Ve^(-1) * ((1)^3/(6))
p873
tp874
asg9
V2015-11-05 23:16:18
p875
ssVa2ahmed
p876
(dp877
S'part3_correct_attempt'
p878
(lp879
S'0:11:52'
p880
aV1.50806236*10^-4
p881
asS'part3_incorrect_attempt'
p882
(lp883
(S'0:09:45'
p884
V9.637027*10^-11
p885
tp886
asg9
V2015-11-07 00:13:47
p887
ssVc1wei
p888
(dp889
S'part3_correct_attempt'
p890
(lp891
S'0:05:42'
p892
aVe^(-(120/1200))*((120/1200)^2/2)
p893
asS'part3_incorrect_attempt'
p894
(lp895
(S'0:00:58'
p896
V7140*(.1)
p897
tp898
a(S'0:03:20'
p899
V0.00449379
p900
tp901
a(S'0:04:51'
p902
Ve^(-(120/1200))*((120/1200)/2)
p903
tp904
asg9
V2015-11-04 06:34:25
p905
ssVmitopete
p906
(dp907
S'part3_correct_attempt'
p908
(lp909
S'2 days, 16:47:09'
p910
aV((e^(-110(1/1100)))((110(1/1100))^3))/3!
p911
asS'part3_incorrect_attempt'
p912
(lp913
(S'0:09:16'
p914
V1-e^-(1/1100)*(((1/1100)^3)/(3!))
p915
tp916
a(S'0:12:36'
p917
V((e^-110(1/1100))(110(1/1100)^3))/3!
p918
tp919
a(S'0:13:02'
p920
V((e^(-110(1/1100)))(110(1/1100)^3))/3!
p921
tp922
asg9
V2015-11-04 04:28:33
p923
ssVtak068
p924
(dp925
S'part3_correct_attempt'
p926
(lp927
S'0:02:14'
p928
aVe^(-.1)*(.1)^2/2!
p929
asS'part3_incorrect_attempt'
p930
(lp931
(S'0:02:02'
p932
Ve^(-.1)*(.1)^80/80!
p933
tp934
asg9
V2015-11-05 21:01:47
p935
ssVjguanzho
p936
(dp937
S'part3_correct_attempt'
p938
(lp939
S'1 day, 4:16:30'
p940
aVe**-0.1 * 0.1**2 / 2!
p941
asS'part3_incorrect_attempt'
p942
(lp943
(S'1 day, 2:10:14'
p944
V100*(1/10)**2*e**-2/2!
p945
tp946
a(S'1 day, 3:56:00'
p947
V10*e**-20
p948
tp949
a(S'1 day, 3:57:46'
p950
V100*e**-200
p951
tp952
a(S'1 day, 4:15:23'
p953
V(1/10)*e**-0.2
p954
tp955
asg9
V2015-11-04 04:00:20
p956
ssVakg009
p957
(dp958
S'part3_correct_attempt'
p959
(lp960
S'3:59:41'
p961
aVe^(-1/10)*(1/10)^2/2
p962
asS'part3_incorrect_attempt'
p963
(lp964
(S'0:03:19'
p965
Ve^(-1/10)*(1/10)
p966
tp967
asg9
V2015-11-06 18:20:04
p968
ssVb3hwang
p969
(dp970
S'part3_correct_attempt'
p971
(lp972
S'1:24:56'
p973
aVe^(-100/1000)*((100/1000)^2)/2!
p974
asS'part3_incorrect_attempt'
p975
(lp976
(S'1:23:50'
p977
Ve^(-100/1000)*((100/1000)^1)/1
p978
tp979
asg9
V2015-11-05 07:08:40
p980
ssVjag028
p981
(dp982
S'part3_correct_attempt'
p983
(lp984
S'0:44:37'
p985
aVe^(-.1).1^2/2!
p986
asS'part3_incorrect_attempt'
p987
(lp988
(S'0:35:55'
p989
Ve^(-1/900)((1/900)^2)/2!
p990
tp991
a(S'0:41:45'
p992
Ve^(-1/900)(((1/900)^2)/2!)
p993
tp994
a(S'0:42:15'
p995
Ve^-(1/900)(((1/900)^2)/2!)
p996
tp997
asg9
V2015-11-02 21:36:20
p998
ssVccn001
p999
(dp1000
S'part3_correct_attempt'
p1001
(lp1002
S'0:01:22'
p1003
aVe^(-0.1)((0.1)^1)
p1004
asS'part3_incorrect_attempt'
p1005
(lp1006
(S'-1 day, 23:57:35'
p1007
Ve^(-1/1200)((1/1200)^1)
p1008
tp1009
a(S'0:00:00'
p1010
Ve^(0.1)((0.1)^1)
p1011
tp1012
asg9
V2015-11-05 00:59:36
p1013
ssVquwong
p1014
(dp1015
S'part3_correct_attempt'
p1016
(lp1017
S'0:43:44'
p1018
aVe^(-1/10)*1/10
p1019
asS'part3_incorrect_attempt'
p1020
(lp1021
(S'0:40:12'
p1022
Ve^(-1/800)*1/800
p1023
tp1024
asg9
V2015-11-03 01:47:03
p1025
ssVasetters
p1026
(dp1027
S'part3_correct_attempt'
p1028
(lp1029
S'0:10:49'
p1030
aV(e^(-110*(1/1100)))*(110*(1/1100))
p1031
asS'part3_incorrect_attempt'
p1032
(lp1033
(S'0:03:24'
p1034
Ve^(-1100)*(1/1100)
p1035
tp1036
a(S'0:05:14'
p1037
Ve^(-1/1100)*(1/1100)
p1038
tp1039
a(S'0:08:24'
p1040
V(e^(-(1/1100)))*(1/1100)
p1041
tp1042
a(S'0:08:50'
p1043
V(e^(-1100))*(1100)
p1044
tp1045
asg9
V2015-11-05 19:48:11
p1046
ssVabjara
p1047
(dp1048
S'part3_correct_attempt'
p1049
(lp1050
S'0:01:16'
p1051
aV.1*e^-.1
p1052
asS'part3_incorrect_attempt'
p1053
(lp1054
(S'0:01:03'
p1055
V.1*e^-1
p1056
tp1057
asg9
V2015-11-04 01:19:01
p1058
ssVcprafull
p1059
(dp1060
S'part3_correct_attempt'
p1061
(lp1062
S'2 days, 0:10:29'
p1063
aV((e^-0.1)*(0.1^2))/2!
p1064
asS'part3_incorrect_attempt'
p1065
(lp1066
(S'0:20:48'
p1067
Ve^-(((110^2)^2)/1100)((110^2)/1100)
p1068
tp1069
asg9
V2015-11-04 02:56:11
p1070
ssVkrau
p1071
(dp1072
S'part3_correct_attempt'
p1073
(lp1074
S'7:19:17'
p1075
aV.01*e^(-.1)/2
p1076
asS'part3_incorrect_attempt'
p1077
(lp1078
(S'7:13:31'
p1079
V(e^-2)*(2^1)/(1!)
p1080
tp1081
a(S'7:18:29'
p1082
V.1*e^(-.1)/1
p1083
tp1084
a(S'7:18:40'
p1085
V.1*e^(-.1)/2!
p1086
tp1087
a(S'7:19:05'
p1088
V.1*e^(-2)/2
p1089
tp1090
a(S'7:19:10'
p1091
V.01*e^(-2)/2
p1092
tp1093
asg9
V2015-11-04 19:44:09
p1094
ssVtpmach
p1095
(dp1096
S'part3_correct_attempt'
p1097
(lp1098
S'4:04:49'
p1099
aV(0.1^3)*e^(-0.1)/(3!)
p1100
asS'part3_incorrect_attempt'
p1101
(lp1102
(S'4:00:54'
p1103
V(0.1^3)*e^(-0.1)/(3)
p1104
tp1105
asg9
V2015-11-04 23:41:00
p1106
ssVt2li
p1107
(dp1108
S'part3_correct_attempt'
p1109
(lp1110
S'0:32:17'
p1111
aVe^(-0.1)*0.1^2/2!
p1112
asS'part3_incorrect_attempt'
p1113
(lp1114
(S'0:24:17'
p1115
V0.1e^(-0.1)
p1116
tp1117
a(S'0:26:30'
p1118
Ve^(-0.1)*2/2!
p1119
tp1120
a(S'0:26:44'
p1121
Ve^(-0.1)^(2/2!)
p1122
tp1123
a(S'0:27:16'
p1124
Ve^(-0.1)*0.1^(2/2!)
p1125
tp1126
a(S'0:31:43'
p1127
Ve^(-0.1)*0.1^(2/2!)
p1128
tp1129
asg9
V2015-11-06 00:47:32
p1130
ssVrraiyyan
p1131
(dp1132
S'part3_correct_attempt'
p1133
(lp1134
S'0:13:13'
p1135
aV e^(-1/10)* ((1/10)^2)/2
p1136
asS'part3_incorrect_attempt'
p1137
(lp1138
(S'0:12:09'
p1139
V e^(-1/1000)* ((1/1000)^2)/2
p1140
tp1141
asg9
V2015-11-06 20:58:56
p1142
ssVdsmonaha
p1143
(dp1144
S'part3_correct_attempt'
p1145
(lp1146
S'2 days, 2:40:47'
p1147
aV(e^(-.1)(.1)^2)/2!
p1148
asS'part3_incorrect_attempt'
p1149
(lp1150
(S'2 days, 2:40:36'
p1151
V(e^(.1)(.1)^2)/2!
p1152
tp1153
asg9
V2015-11-02 16:20:51
p1154
ssVakalathi
p1155
(dp1156
S'part3_correct_attempt'
p1157
(lp1158
S'0:11:02'
p1159
aV(e^-.1) *(.1^2/2!)
p1160
asS'part3_incorrect_attempt'
p1161
(lp1162
(S'0:10:56'
p1163
V(e^-.1) *(1^2/2!)
p1164
tp1165
asg9
V2015-11-04 05:59:05
p1166
ssVjel075
p1167
(dp1168
S'part3_correct_attempt'
p1169
(lp1170
S'0:07:39'
p1171
aVe^(-0.1)*((0.1)^1/1!)
p1172
asS'part3_incorrect_attempt'
p1173
(lp1174
(S'0:00:00'
p1175
V1/10
p1176
tp1177
asg9
V2015-11-04 23:54:24
p1178
ssVhmnaing
p1179
(dp1180
S'part3_correct_attempt'
p1181
(lp1182
S'0:17:15'
p1183
aVe^(-90/900)* ((90/900)^3 /3!)
p1184
asS'part3_incorrect_attempt'
p1185
(lp1186
(S'0:16:22'
p1187
Ve^(-1/900)* ((1/900)^3 /3!)
p1188
tp1189
a(S'0:16:46'
p1190
Ve^(-1/90)* ((1/90)^3 /3!)
p1191
tp1192
asg9
V2015-11-04 18:43:55
p1193
ssVggaddi
p1194
(dp1195
S'part3_correct_attempt'
p1196
(lp1197
S'3 days, 22:29:33'
p1198
aVC(100,1)*(1/1000)^1*(1-1/1000)^99
p1199
asS'part3_incorrect_attempt'
p1200
(lp1201
(S'3 days, 22:27:25'
p1202
Ve^(-1000)*(1000)
p1203
tp1204
a(S'3 days, 22:27:35'
p1205
Ve^(-100)*(100)
p1206
tp1207
a(S'3 days, 22:29:23'
p1208
Ve^(-100/0.1)*(100/0.1)
p1209
tp1210
asg9
V2015-11-01 19:56:25
p1211
ssVaurodrig
p1212
(dp1213
S'part3_correct_attempt'
p1214
(lp1215
S'16:39:29'
p1216
aVe^(-90*(1/900)) * (90*(1/900))^2/2!
p1217
asS'part3_incorrect_attempt'
p1218
(lp1219
(S'16:38:20'
p1220
Ve^(-90*(1/900)) * 90*(1/900)^2/2!
p1221
tp1222
asg9
V2015-11-06 05:00:32
p1223
ssVzhz159
p1224
(dp1225
S'part3_correct_attempt'
p1226
(lp1227
S'0:00:18'
p1228
aV0.00452418
p1229
asS'part3_incorrect_attempt'
p1230
(lp1231
(S'0:00:00'
p1232
V0.00492418
p1233
tp1234
asg9
V2015-11-05 22:59:39
p1235
ssVyil035
p1236
(dp1237
S'part3_correct_attempt'
p1238
(lp1239
S'19:27:54'
p1240
aV0.000150806
p1241
asS'part3_incorrect_attempt'
p1242
(lp1243
(S'19:10:17'
p1244
V0.000147419
p1245
tp1246
asg9
V2015-11-04 00:20:27
p1247
ssVlywong
p1248
(dp1249
S'part3_correct_attempt'
p1250
(lp1251
S'0:25:31'
p1252
aVe^(-100/1000)*((100/1000)^1)
p1253
asS'part3_incorrect_attempt'
p1254
(lp1255
(S'0:03:18'
p1256
Ve^((-1/1000))*((1/1000)/1!)
p1257
tp1258
a(S'0:03:38'
p1259
V(e^((-1/1000)))*((1/1000)/1!)
p1260
tp1261
a(S'0:03:50'
p1262
V(e^((-1/1000)))*(1/1000)
p1263
tp1264
asg9
V2015-11-04 18:39:36
p1265
ssVjix029
p1266
(dp1267
S'part3_correct_attempt'
p1268
(lp1269
S'0:04:24'
p1270
aVe^-.1*.1
p1271
asS'part3_incorrect_attempt'
p1272
(lp1273
(S'0:00:00'
p1274
Ve^.1*.1
p1275
tp1276
asg9
V2015-11-01 08:04:15
p1277
ssVglcohen
p1278
(dp1279
S'part3_correct_attempt'
p1280
(lp1281
S'0:06:10'
p1282
aVe^(-.1) * ((0.1^3)/(3!))
p1283
asS'part3_incorrect_attempt'
p1284
(lp1285
(S'0:02:46'
p1286
V1-e^(-0.1*3)
p1287
tp1288
asg9
V2015-11-03 16:28:12
p1289
ssVacvuong
p1290
(dp1291
S'part3_correct_attempt'
p1292
(lp1293
S'0:19:41'
p1294
aV(e^(-120/1200))*(120/1200)^2/2
p1295
asS'part3_incorrect_attempt'
p1296
(lp1297
(S'0:15:40'
p1298
V(e^(2/1200))(2/1200)^2/2
p1299
tp1300
a(S'0:15:57'
p1301
V(e^(-2/1200))(2/1200)^2/2
p1302
tp1303
a(S'0:16:06'
p1304
V(e^(-1/1200))(1/1200)^2/2
p1305
tp1306
a(S'0:19:16'
p1307
V(e^(-240/1200))*(240/1200)^2/2
p1308
tp1309
asg9
V2015-11-04 23:44:30
p1310
ssVd6he
p1311
(dp1312
S'part3_correct_attempt'
p1313
(lp1314
S'0:04:43'
p1315
aVe^(-1/10)*(1/100)/2
p1316
asS'part3_incorrect_attempt'
p1317
(lp1318
(S'0:04:03'
p1319
Ve^(-1/10)*(1/10)/2
p1320
tp1321
a(S'0:04:17'
p1322
Ve^(-1/100)*(1/10)/2
p1323
tp1324
asg9
V2015-11-05 03:05:31
p1325
ssVpvl001
p1326
(dp1327
S'part3_correct_attempt'
p1328
(lp1329
S'0:19:42'
p1330
aVe^(-80/800) * (80/800)^3 / 3!
p1331
asS'part3_incorrect_attempt'
p1332
(lp1333
(S'0:19:19'
p1334
Ve^(-80/800) * 80*3 / 3!
p1335
tp1336
a(S'0:19:34'
p1337
Ve^(-80/800) * (80/800)*3 / 3!
p1338
tp1339
asg9
V2015-11-02 18:27:43
p1340
ssVjcj006
p1341
(dp1342
S'part3_correct_attempt'
p1343
(lp1344
S'0:25:17'
p1345
aVe^(-.1)(.1)^2/2
p1346
asS'part3_incorrect_attempt'
p1347
(lp1348
(S'0:17:24'
p1349
Ve^(-.1)90*(1/900)^2/2
p1350
tp1351
asg9
V2015-11-04 04:47:21
p1352
ssVjeqin
p1353
(dp1354
S'part3_correct_attempt'
p1355
(lp1356
S'0:40:26'
p1357
aVe^(-0.1)(0.1^2/2)
p1358
asS'part3_incorrect_attempt'
p1359
(lp1360
(S'0:37:39'
p1361
Ve^-2(2/1)
p1362
tp1363
asg9
V2015-11-05 08:26:32
p1364
ssVjnatale
p1365
(dp1366
S'part3_correct_attempt'
p1367
(lp1368
S'0:04:32'
p1369
aVe^(-100/1000) * ((100/1000)^3)/3!
p1370
asS'part3_incorrect_attempt'
p1371
(lp1372
(S'0:03:48'
p1373
Ve^(-100/1000) * (100/1000)^(3/3!)
p1374
tp1375
asg9
V2015-11-04 08:20:00
p1376
ssVjblynch
p1377
(dp1378
S'part3_correct_attempt'
p1379
(lp1380
S'0:11:49'
p1381
aV(e^(-80/800)(80/800)^1)/1!
p1382
asS'part3_incorrect_attempt'
p1383
(lp1384
(S'0:11:07'
p1385
V(e^(-1/800)(1/800)^1)/1!
p1386
tp1387
asg9
V2015-11-04 19:20:30
p1388
ssVnnh002
p1389
(dp1390
S'part3_correct_attempt'
p1391
(lp1392
S'0:35:25'
p1393
aV(e^(-80/800)(80/800)^3)/6
p1394
asS'part3_incorrect_attempt'
p1395
(lp1396
(S'0:29:03'
p1397
V(e^(-80*C(80,3)(1/800)^3*(799/800)^77)*(80*C(80,3)(1/800)^3*(799/800)^77)^3)/6
p1398
tp1399
asg9
V2015-11-05 03:13:55
p1400
ssVsyc078
p1401
(dp1402
S'part3_correct_attempt'
p1403
(lp1404
S'0:18:19'
p1405
aV(((1/10)^3)(e^(-1/10)))/3!
p1406
asS'part3_incorrect_attempt'
p1407
(lp1408
(S'0:09:05'
p1409
VC(80, 3)*(1-0.1)^(80-3)(0.1^3)
p1410
tp1411
a(S'0:09:15'
p1412
VC(80, 3)*(1-0.1)^(80-2)(0.1^2)
p1413
tp1414
a(S'0:17:16'
p1415
V1/10
p1416
tp1417
asg9
V2015-11-05 03:31:28
p1418
ssVaakumar
p1419
(dp1420
S'part3_correct_attempt'
p1421
(lp1422
S'0:35:12'
p1423
aV(1/10)*e^(-1/10)
p1424
asS'part3_incorrect_attempt'
p1425
(lp1426
(S'0:29:09'
p1427
V(1/900)*e^(-1/900)
p1428
tp1429
asg9
V2015-11-05 02:09:44
p1430
ssVkew017
p1431
(dp1432
S'part3_correct_attempt'
p1433
(lp1434
S'0:04:37'
p1435
aV(e^-(1/10))(((1/10)^3)/3!)
p1436
asS'part3_incorrect_attempt'
p1437
(lp1438
(S'0:04:19'
p1439
V(e^(1/10))(((1/10)^3)/3!)
p1440
tp1441
asg9
V2015-11-05 21:18:51
p1442
ssVq3wen
p1443
(dp1444
S'part3_correct_attempt'
p1445
(lp1446
S'0:01:18'
p1447
aV0.00015079
p1448
asS'part3_incorrect_attempt'
p1449
(lp1450
(S'0:00:00'
p1451
V0.15079
p1452
tp1453
asg9
V2015-11-04 20:41:52
p1454
ssVarvenega
p1455
(dp1456
S'part3_correct_attempt'
p1457
(lp1458
S'1 day, 16:03:55'
p1459
aV((1/10)^2)*(e^(-1/10))/2
p1460
asS'part3_incorrect_attempt'
p1461
(lp1462
(S'1 day, 16:01:36'
p1463
V((1/10)^2)/(e^(-1/10))/2
p1464
tp1465
asg9
V2015-11-05 00:04:56
p1466
ssVazkong
p1467
(dp1468
S'part3_correct_attempt'
p1469
(lp1470
S'0:57:36'
p1471
aVe^(-1/10)(1/10)
p1472
asS'part3_incorrect_attempt'
p1473
(lp1474
(S'0:57:15'
p1475
Ve^(-1/1000)(1/1000)
p1476
tp1477
asg9
V2015-11-06 18:40:36
p1478
ssVyhhan
p1479
(dp1480
S'part3_incorrect_attempt'
p1481
(lp1482
(S'0:08:00'
p1483
V.004
p1484
tp1485
a(S'0:08:05'
p1486
V.0045
p1487
tp1488
a(S'0:08:11'
p1489
V.005
p1490
tp1491
a(S'0:08:22'
p1492
V.00449
p1493
tp1494
a(S'0:08:27'
p1495
V.00449102
p1496
tp1497
a(S'0:08:43'
p1498
V.003
p1499
tp1500
a(S'0:08:50'
p1501
V.005
p1502
tp1503
asg9
V2015-11-06 23:34:33
p1504
ssVk4ma
p1505
(dp1506
S'part3_incorrect_attempt'
p1507
(lp1508
(S'0:14:15'
p1509
Ve^(3/1100)*(3/1100)^3/3!
p1510
tp1511
a(S'0:15:13'
p1512
Ve^(330/1100)*(330/1100)^3/3!
p1513
tp1514
a(S'0:16:02'
p1515
Ve^(-3/1100)*(3/1100)^3/3!
p1516
tp1517
a(S'0:16:33'
p1518
Ve^(-330/1100)*(330/1100)^3/3!
p1519
tp1520
a(S'0:19:08'
p1521
Ve^(-3/110)*(3/110)^3/3!
p1522
tp1523
a(S'0:19:42'
p1524
Ve^(-1/1100)*(1/1100)^3/3!
p1525
tp1526
a(S'0:20:30'
p1527
Ve^(-3/1100)*(3/1100)^3/3!
p1528
tp1529
asg9
V2015-11-06 20:38:12
p1530
ssVralhadda
p1531
(dp1532
S'part3_correct_attempt'
p1533
(lp1534
S'4:28:01'
p1535
aV0.09055
p1536
asS'part3_incorrect_attempt'
p1537
(lp1538
(S'4:14:56'
p1539
V0.99532
p1540
tp1541
a(S'4:17:43'
p1542
V1.90015
p1543
tp1544
asg9
V2015-10-31 19:49:11
p1545
ssVcagatep
p1546
(dp1547
S'part3_correct_attempt'
p1548
(lp1549
S'0:23:53'
p1550
aV.1 * e^-.1
p1551
asS'part3_incorrect_attempt'
p1552
(lp1553
(S'0:10:31'
p1554
V((1/1200)^120 * e^(-1/1200))/120!
p1555
tp1556
a(S'0:15:12'
p1557
V1/1200 * e^(-1/1200)
p1558
tp1559
asg9
V2015-11-05 06:29:19
p1560
ssVytc012
p1561
(dp1562
S'part3_correct_attempt'
p1563
(lp1564
S'10:53:22'
p1565
aV(e^(-120/1200))(120/1200)^2/2
p1566
asS'part3_incorrect_attempt'
p1567
(lp1568
(S'0:02:17'
p1569
Ve^(-0.2)*(0.2)
p1570
tp1571
a(S'0:02:41'
p1572
Ve^(-120/1200)*(120/1200)
p1573
tp1574
a(S'0:03:11'
p1575
V2*e^(-120/1200)*(120/1200)
p1576
tp1577
a(S'1:05:58'
p1578
Ve^(-0.1)*(0.1)
p1579
tp1580
a(S'1:06:03'
p1581
V2e^(-0.1)*(0.1)
p1582
tp1583
a(S'1:06:16'
p1584
Ve^(-0.2)*(0.2)
p1585
tp1586
a(S'1:06:28'
p1587
Ve^(-240/1200)*(240/1200)
p1588
tp1589
a(S'1:06:48'
p1590
Ve^(-480/1200)*(480/1200)
p1591
tp1592
a(S'10:41:06'
p1593
VQ(120/1200C(120,2)((1/1200)^2)(1-1/1200)^118)
p1594
tp1595
a(S'10:41:23'
p1596
V(120/1200C(120,2)((1/1200)^2)(1-1/1200)^118)
p1597
tp1598
a(S'10:41:50'
p1599
V0.1C(120,2)((1/1200)^2)(1-1/1200)^118
p1600
tp1601
a(S'10:41:55'
p1602
V0.1/C(120,2)((1/1200)^2)(1-1/1200)^118
p1603
tp1604
a(S'10:44:40'
p1605
V120/1200C(120,2)((1/1200)^2)(1-1/1200)^118
p1606
tp1607
a(S'10:44:49'
p1608
V(120/1200)C(120,2)((1/1200)^2)(1-1/1200)^118
p1609
tp1610
a(S'10:47:04'
p1611
V0.004
p1612
tp1613
a(S'10:47:07'
p1614
V0.005
p1615
tp1616
a(S'10:48:33'
p1617
V0.0043
p1618
tp1619
a(S'10:48:37'
p1620
V0.0042
p1621
tp1622
a(S'10:48:41'
p1623
V0.0041
p1624
tp1625
a(S'10:53:10'
p1626
V(e^-120/1200)(120/1200)^2/2
p1627
tp1628
asg9
V2015-11-05 21:56:59
p1629
ssVasp025
p1630
(dp1631
S'part3_correct_attempt'
p1632
(lp1633
S'0:27:29'
p1634
aVe^(-1/10)*[(1/10)^2/2!]
p1635
asS'part3_incorrect_attempt'
p1636
(lp1637
(S'0:26:40'
p1638
Ve^(-1/1200)*[(1/1200)^2/2!]
p1639
tp1640
asg9
V2015-11-06 19:22:16
p1641
ssVt2shin
p1642
(dp1643
S'part3_correct_attempt'
p1644
(lp1645
S'0:23:27'
p1646
aV(1/2)e^(-120/1200)*(120/1200)^2
p1647
asS'part3_incorrect_attempt'
p1648
(lp1649
(S'0:19:37'
p1650
V(1/2)e^(-2)
p1651
tp1652
a(S'0:21:59'
p1653
V(1/2)e^(-2*(120/1200))
p1654
tp1655
a(S'0:22:20'
p1656
V(1/2)e^(-2)*(120/1200)
p1657
tp1658
a(S'0:22:32'
p1659
V(1/2)e^(-2)*(1200/120)
p1660
tp1661
a(S'0:22:49'
p1662
V(1/2)e^(-2)*(1200/120)^2
p1663
tp1664
a(S'0:22:58'
p1665
V(1/2)e^(-2)*(120/1200)^2
p1666
tp1667
asg9
V2015-11-04 04:25:47
p1668
ssVvsamant
p1669
(dp1670
S'part3_correct_attempt'
p1671
(lp1672
S'3 days, 4:16:00'
p1673
aVe^(-110/1100)((110/1100)^2/2!)
p1674
asS'part3_incorrect_attempt'
p1675
(lp1676
(S'3 days, 4:13:01'
p1677
Ve^(-110/1100)((2)^2/2!)
p1678
tp1679
asg9
V2015-11-01 23:24:05
p1680
ssVrohan
p1681
(dp1682
S'part3_incorrect_attempt'
p1683
(lp1684
(S'0:03:12'
p1685
V(2/90)(1-2/90)^89
p1686
tp1687
a(S'0:03:45'
p1688
V(2/900)(1-2/900)^89
p1689
tp1690
a(S'0:41:09'
p1691
V2/900
p1692
tp1693
a(S'0:41:19'
p1694
V2/90
p1695
tp1696
a(S'0:41:43'
p1697
V180/900
p1698
tp1699
a(S'1:53:55'
p1700
V(4005(1/900)^2(1-1/900)^88)90
p1701
tp1702
a(S'1:54:15'
p1703
V(4005(1/900)^2(1-1/900)^88)(90/900)
p1704
tp1705
a(S'1:54:41'
p1706
V90e^(-4005(1/900)^2(1-1/900)^88)
p1707
tp1708
a(S'1:54:47'
p1709
V900e^(-4005(1/900)^2(1-1/900)^88)
p1710
tp1711
asg9
V2015-11-06 22:53:02
p1712
ssVk5law
p1713
(dp1714
S'part3_correct_attempt'
p1715
(lp1716
S'1:33:14'
p1717
aVe^(-.1)*(.1)^(1)
p1718
asS'part3_incorrect_attempt'
p1719
(lp1720
(S'0:14:08'
p1721
V10*[e^(-[1200*(1/10)])*[[1200*(1/10)]^1/2]]
p1722
tp1723
asg9
V2015-11-04 07:28:36
p1724
ssVamquinte
p1725
(dp1726
S'part3_correct_attempt'
p1727
(lp1728
S'0:03:36'
p1729
aV.00452
p1730
asS'part3_incorrect_attempt'
p1731
(lp1732
(S'0:00:00'
p1733
V4.950E-5
p1734
tp1735
a(S'0:00:19'
p1736
V.00000495
p1737
tp1738
a(S'0:00:27'
p1739
V.0000495
p1740
tp1741
a(S'0:01:04'
p1742
V.0000004995
p1743
tp1744
asg9
V2015-11-05 06:21:30
p1745
ssVgsrandha
p1746
(dp1747
S'part3_correct_attempt'
p1748
(lp1749
S'5:53:27'
p1750
aV(e^-.1) * ((.1)^2/2)
p1751
asS'part3_incorrect_attempt'
p1752
(lp1753
(S'-1 day, 23:59:50'
p1754
V1/900
p1755
tp1756
a(S'0:00:00'
p1757
V1/900 * 90
p1758
tp1759
asg9
V2015-11-05 00:43:37
p1760
ssVbmilton
p1761
(dp1762
S'part3_correct_attempt'
p1763
(lp1764
S'2 days, 2:57:06'
p1765
aVe^(-90/900) * (90/900)^2/2!
p1766
asS'part3_incorrect_attempt'
p1767
(lp1768
(S'2 days, 2:56:14'
p1769
Ve^(-1/900) * (1/900)^90/90!
p1770
tp1771
asg9
V2015-11-04 19:38:41
p1772
ssVcfgutier
p1773
(dp1774
S'part3_correct_attempt'
p1775
(lp1776
S'10:06:15'
p1777
aV(((90/900)^3)*(e^(-90/900)))/3!
p1778
asS'part3_incorrect_attempt'
p1779
(lp1780
(S'0:40:51'
p1781
V(((1/900)^3)*(e^(-1/900)))/3!
p1782
tp1783
asg9
V2015-11-06 07:51:41
p1784
ssVdkostins
p1785
(dp1786
S'part3_correct_attempt'
p1787
(lp1788
S'0:32:15'
p1789
aV((e^-.1 )*(80/800)^2)/2
p1790
asS'part3_incorrect_attempt'
p1791
(lp1792
(S'0:20:05'
p1793
V(e^(-1/800))* (1/800)^2
p1794
tp1795
a(S'0:20:34'
p1796
V((e^(-1/800))* (1/800)^2 )/2!
p1797
tp1798
a(S'0:25:12'
p1799
V(e^(-80/800))*(80*(1/800)^2)
p1800
tp1801
a(S'0:25:34'
p1802
V((e^(-80/800))*(80*(1/800)^2))/2!
p1803
tp1804
a(S'0:31:33'
p1805
V(e^-.1 *80)*(1/800)^2
p1806
tp1807
a(S'0:31:48'
p1808
V((e^-.1 *80)*(1/800)^2)/2
p1809
tp1810
asg9
V2015-11-03 21:28:25
p1811
ssVagarango
p1812
(dp1813
S'part3_correct_attempt'
p1814
(lp1815
S'0:18:32'
p1816
aV0.00015080623
p1817
asS'part3_incorrect_attempt'
p1818
(lp1819
(S'0:08:15'
p1820
V0.00452418709
p1821
tp1822
a(S'0:08:46'
p1823
V0.00452418709/10
p1824
tp1825
a(S'0:08:51'
p1826
V0.0045
p1827
tp1828
a(S'0:08:57'
p1829
V0.0045/10
p1830
tp1831
a(S'0:10:24'
p1832
V0.00452418709
p1833
tp1834
a(S'0:10:35'
p1835
V0.0452418709
p1836
tp1837
a(S'0:17:58'
p1838
V0.00452418709
p1839
tp1840
asg9
V2015-11-05 03:32:38
p1841
ssVv3doan
p1842
(dp1843
S'part3_correct_attempt'
p1844
(lp1845
S'1 day, 19:20:59'
p1846
aVe^(-.1) * (.1)^3 / 3!
p1847
asS'part3_incorrect_attempt'
p1848
(lp1849
(S'1 day, 19:14:23'
p1850
Ve^(-1/1200) * (1/1200)^3 / 3!
p1851
tp1852
a(S'1 day, 19:14:45'
p1853
Ve^(.1) * (.1)^3 / 3!
p1854
tp1855
a(S'1 day, 19:15:59'
p1856
Ve^(.1) * (.1)^3 / 3!
p1857
tp1858
a(S'1 day, 19:18:24'
p1859
Ve^(.1) * (.1)^120 / 3!
p1860
tp1861
a(S'1 day, 19:18:31'
p1862
Ve^(.1) * (.1)^120 / 120!
p1863
tp1864
a(S'1 day, 19:18:40'
p1865
Ve^(.1) * (.1)^3 / 3!
p1866
tp1867
asg9
V2015-11-05 04:58:39
p1868
ssVjcl084
p1869
(dp1870
S'part3_correct_attempt'
p1871
(lp1872
S'0:00:55'
p1873
aVe^(-.1)(.1)^2 /2!
p1874
asS'part3_incorrect_attempt'
p1875
(lp1876
(S'0:00:00'
p1877
Ve^-.1(.1)*2 /2!
p1878
tp1879
a(S'0:00:20'
p1880
Ve^(-.1(.1)*2) /2!
p1881
tp1882
asg9
V2015-11-02 20:00:56
p1883
ssVjdeon
p1884
(dp1885
S'part3_correct_attempt'
p1886
(lp1887
S'0:18:47'
p1888
aV(e^-0.1)*(.1^3/6)
p1889
asS'part3_incorrect_attempt'
p1890
(lp1891
(S'0:11:43'
p1892
V5.249*10^-10
p1893
tp1894
asg9
V2015-11-04 22:54:56
p1895
ssVmcatozzi
p1896
(dp1897
S'part3_correct_attempt'
p1898
(lp1899
S'0:03:54'
p1900
aV(e^(-1/10))*(((1/10)^2)/2)
p1901
asS'part3_incorrect_attempt'
p1902
(lp1903
(S'0:02:46'
p1904
V(e^(-1/100))*(((1/100)^2)/2)
p1905
tp1906
asg9
V2015-11-03 18:56:21
p1907
ssVacs008
p1908
(dp1909
S'part3_correct_attempt'
p1910
(lp1911
S'0:38:32'
p1912
aV(e^-0.1)*(0.1^3)/6
p1913
asS'part3_incorrect_attempt'
p1914
(lp1915
(S'0:25:16'
p1916
V(1/2)e^(-110/1100)*(110/1100)^3
p1917
tp1918
a(S'0:25:24'
p1919
V(1/3)e^(-110/1100)*(110/1100)^3
p1920
tp1921
a(S'0:25:37'
p1922
V(1/2)e^(-110/1100)*(110/1100)^2
p1923
tp1924
a(S'0:25:45'
p1925
V(1/2)e^(-110/1100)*(110/1100)^3
p1926
tp1927
a(S'0:27:48'
p1928
V(1/2)e^(-110/1100)*(110/1100)^2
p1929
tp1930
a(S'0:30:38'
p1931
V(1/110)^3/6/e^(-0.1)
p1932
tp1933
a(S'0:30:53'
p1934
V(1/110)^3/6*1/e^(-0.1)
p1935
tp1936
a(S'0:36:52'
p1937
V(e^-3)*(3^3)/6
p1938
tp1939
a(S'0:37:48'
p1940
V(e^-3)*(3^2)/6
p1941
tp1942
a(S'0:37:54'
p1943
V(e^-3)*(3^3)/6
p1944
tp1945
asg9
V2015-11-04 04:24:45
p1946
ssVdtea
p1947
(dp1948
S'part3_correct_attempt'
p1949
(lp1950
S'0:00:34'
p1951
aVe^(-.1)*(.1^2/2!)
p1952
asS'part3_incorrect_attempt'
p1953
(lp1954
(S'0:00:29'
p1955
Ve^(.1)*(.1^2/2!)
p1956
tp1957
asg9
V2015-11-07 00:15:25
p1958
ssVlahawkin
p1959
(dp1960
S'part3_correct_attempt'
p1961
(lp1962
S'0:13:40'
p1963
aVe^(-1/10)(((1/10)^2)/2)
p1964
asS'part3_incorrect_attempt'
p1965
(lp1966
(S'0:13:21'
p1967
Ve^(-1/1000)(((1/10)^2)/2)
p1968
tp1969
asg9
V2015-11-04 04:30:58
p1970
ssVahh002
p1971
(dp1972
S'part3_correct_attempt'
p1973
(lp1974
S'0:01:36'
p1975
aVe^(-120 / 1200)*(120 / 1200)^(3) / 3!
p1976
asS'part3_incorrect_attempt'
p1977
(lp1978
(S'0:00:00'
p1979
Ve^(-1)*1^(3) / 3!
p1980
tp1981
asg9
V2015-11-04 11:52:56
p1982
ssVaordookh
p1983
(dp1984
S'part3_correct_attempt'
p1985
(lp1986
S'0:00:19'
p1987
aV(e^-(.1))*(.1)^3/3!
p1988
asS'part3_incorrect_attempt'
p1989
(lp1990
(S'-1 day, 23:58:45'
p1991
V(e^-(1/1100))*(1/1100)^3/3!
p1992
tp1993
asg9
V2015-11-04 21:49:27
p1994
ssVr2fisher
p1995
(dp1996
S'part3_correct_attempt'
p1997
(lp1998
S'0:01:09'
p1999
aV(.1^3*e^(-.1))/3!
p2000
asS'part3_incorrect_attempt'
p2001
(lp2002
(S'0:01:01'
p2003
V(.1^3*e^(-.1))3!
p2004
tp2005
asg9
V2015-11-06 03:48:22
p2006
ssVvasharma
p2007
(dp2008
S'part3_correct_attempt'
p2009
(lp2010
S'0:02:33'
p2011
aVe^(-100/1000)*((100/1000)^2)/2!
p2012
asS'part3_incorrect_attempt'
p2013
(lp2014
(S'0:02:06'
p2015
Ve^(-0.001)*(0.001^2)/2!
p2016
tp2017
a(S'0:02:21'
p2018
Ve^(-100/1000)*(100/1000^2)/2!
p2019
tp2020
asg9
V2015-11-04 18:42:07
p2021
ssVxweng
p2022
(dp2023
S'part3_correct_attempt'
p2024
(lp2025
S'0:01:14'
p2026
aVe^-0.1*0.1^1/1
p2027
asS'part3_incorrect_attempt'
p2028
(lp2029
(S'-1 day, 23:59:44'
p2030
V1/1200
p2031
tp2032
asg9
V2015-11-05 23:32:03
p2033
ssVc3chung
p2034
(dp2035
S'part3_correct_attempt'
p2036
(lp2037
S'0:05:12'
p2038
aVe^(-80/800)(80/800)^3/3!
p2039
asS'part3_incorrect_attempt'
p2040
(lp2041
(S'0:01:19'
p2042
Ve^(-1/800)(1/800)^3/3!
p2043
tp2044
a(S'0:02:13'
p2045
Ve^(-C(80,3)(1/800)^3(1-(1/800))^77)(C(80,3)(1/800)^3(1-(1/800))^77)^3/3!
p2046
tp2047
a(S'0:04:52'
p2048
Ve^(-80)80^3/3!
p2049
tp2050
asg9
V2015-11-06 10:38:07
p2051
ssVajvanega
p2052
(dp2053
S'part3_correct_attempt'
p2054
(lp2055
S'16:40:45'
p2056
aV((e^(-.1))*(.1^3))/3!
p2057
asS'part3_incorrect_attempt'
p2058
(lp2059
(S'16:40:16'
p2060
V((e^(-1/1100))*(.1^3))/3!
p2061
tp2062
asg9
V2015-11-05 01:44:44
p2063
ssVzhw110
p2064
(dp2065
S'part3_correct_attempt'
p2066
(lp2067
S'0:03:30'
p2068
aVe^(-0.1)*0.1^(3)/6
p2069
asS'part3_incorrect_attempt'
p2070
(lp2071
(S'0:00:00'
p2072
Ve^(-3)/6
p2073
tp2074
asg9
V2015-11-06 00:32:10
p2075
ssVsthapa
p2076
(dp2077
S'part3_correct_attempt'
p2078
(lp2079
S'0:03:27'
p2080
aVe^(-.1)*(.1)^2/2!
p2081
asS'part3_incorrect_attempt'
p2082
(lp2083
(S'0:02:45'
p2084
Ve^(-.2)*(.2)^2/2!
p2085
tp2086
a(S'0:02:59'
p2087
Ve^(-.1)*(.2)^2/2!
p2088
tp2089
asg9
V2015-11-06 23:51:50
p2090
ssVmjethani
p2091
(dp2092
S'part3_correct_attempt'
p2093
(lp2094
S'0:03:31'
p2095
aV((1/10)^1)(e^(-(1/10)))/1!
p2096
asS'part3_incorrect_attempt'
p2097
(lp2098
(S'0:02:52'
p2099
V((1/10)^3)(e^(-(1/10))/1!)
p2100
tp2101
a(S'0:03:11'
p2102
V((1/10)^3)(e^(-(1/10)))/1!
p2103
tp2104
asg9
V2015-11-06 21:14:27
p2105
ssVkosung
p2106
(dp2107
S'part3_correct_attempt'
p2108
(lp2109
S'0:03:31'
p2110
aV0.0905
p2111
asS'part3_incorrect_attempt'
p2112
(lp2113
(S'0:02:53'
p2114
V0.09
p2115
tp2116
asg9
V2015-11-05 07:53:55
p2117
sssV2
p2118
(dp2119
Vgthorn
p2120
(dp2121
S'part2_correct_attempt'
p2122
(lp2123
S'1 day, 12:33:17'
p2124
aV4950 * (1/1000)^2 * (1 - 1/1000)^98
p2125
asg9
V2015-11-02 07:21:29
p2126
sS'part2_incorrect_attempt'
p2127
(lp2128
(S'0:04:09'
p2129
VC(100, 2)(0.1)^2 * (1 - 0.1)^98
p2130
tp2131
assVv4zhang
p2132
(dp2133
S'part2_correct_attempt'
p2134
(lp2135
S'20:55:45'
p2136
aVC(90, 1) * ((1/900)^1) * (1-(1/900))^(90-1)
p2137
asg9
V2015-11-05 09:37:54
p2138
sS'part2_incorrect_attempt'
p2139
(lp2140
(S'0:03:04'
p2141
V0.1/1
p2142
tp2143
a(S'0:04:01'
p2144
VC(90, 1)
p2145
tp2146
a(S'0:04:10'
p2147
V1/90
p2148
tp2149
a(S'20:50:27'
p2150
V1/900
p2151
tp2152
assVkew060
p2153
(dp2154
S'part2_correct_attempt'
p2155
(lp2156
S'2 days, 21:28:49'
p2157
aV(100!/(2!98!))(1/1000)^2(1-(1/1000))^98 
p2158
asg9
g680
sS'part2_incorrect_attempt'
p2159
(lp2160
(S'0:00:00'
p2161
V0.0045
p2162
tp2163
a(S'1 day, 23:25:35'
p2164
V0.0016
p2165
tp2166
a(S'2 days, 21:25:19'
p2167
V100*0.9*0.1
p2168
tp2169
assVkbielawi
p2170
(dp2171
S'part2_correct_attempt'
p2172
(lp2173
S'2 days, 4:40:33'
p2174
aV C(80, 1)*(1/800)^1 * (1 - 1/800)^(80 - 1)
p2175
asg9
V2015-11-03 20:53:20
p2176
sS'part2_incorrect_attempt'
p2177
(lp2178
(S'0:00:35'
p2179
V1/800
p2180
tp2181
a(S'2 days, 4:08:31'
p2182
V0.3874
p2183
tp2184
a(S'2 days, 4:15:11'
p2185
VC(1,1)*(1/8000)*(1-1/8000)^0
p2186
tp2187
a(S'2 days, 4:15:56'
p2188
V1/8000
p2189
tp2190
a(S'2 days, 4:16:06'
p2191
V1/800
p2192
tp2193
a(S'2 days, 4:17:26'
p2194
V799/800
p2195
tp2196
a(S'2 days, 4:17:58'
p2197
V7999/8000
p2198
tp2199
a(S'2 days, 4:38:52'
p2200
V1/800
p2201
tp2202
assVjguanzho
p2203
(dp2204
S'part2_correct_attempt'
p2205
(lp2206
S'1 day, 4:14:41'
p2207
aVC(100, 2)*(0.001)**2*(0.999)**98
p2208
asg9
g956
sS'part2_incorrect_attempt'
p2209
(lp2210
(S'1 day, 2:10:14'
p2211
VC(200,100)*(1/10)**200*(1-(1/10))**100
p2212
tp2213
assValakamsa
p2214
(dp2215
S'part2_correct_attempt'
p2216
(lp2217
S'0:08:31'
p2218
aVC(100,1)*.001^1*(1-.001)^99
p2219
asg9
V2015-11-04 18:01:41
p2220
sS'part2_incorrect_attempt'
p2221
(lp2222
(S'-3 days, 23:18:24'
p2223
VC(100,100)*.001^100
p2224
tp2225
a(S'0:01:58'
p2226
VC(100,100)*.1^100
p2227
tp2228
a(S'0:03:45'
p2229
VC(100,99)*.1^99*.9
p2230
tp2231
a(S'0:04:55'
p2232
VC(100,99)*.001^99*(1-.001)
p2233
tp2234
a(S'0:05:21'
p2235
VC(100,100)*.001^100*(1-.001)
p2236
tp2237
assVdcgriffi
p2238
(dp2239
S'part2_correct_attempt'
p2240
(lp2241
S'0:08:00'
p2242
aV((80!)/(3!*77!))*((.1/80)^3)*(1-(.1/80))^77
p2243
asg9
V2015-11-06 23:21:49
p2244
sS'part2_incorrect_attempt'
p2245
(lp2246
(S'0:00:00'
p2247
V.00375
p2248
tp2249
a(S'0:06:58'
p2250
V0.02462258568
p2251
tp2252
assVjjm019
p2253
(dp2254
S'part2_correct_attempt'
p2255
(lp2256
S'4:28:05'
p2257
aVC(100,2)(1/1000)^2*(1-1/1000)^(100-2)
p2258
asg9
V2015-11-04 23:23:25
p2259
sS'part2_incorrect_attempt'
p2260
(lp2261
(S'0:00:43'
p2262
Ve^-.1 (.1^2)
p2263
tp2264
a(S'0:02:07'
p2265
V.0045
p2266
tp2267
a(S'0:02:42'
p2268
V.1849
p2269
tp2270
assVmhale
p2271
(dp2272
S'part2_correct_attempt'
p2273
(lp2274
S'0:26:43'
p2275
aVC(120, 2) * [(0.00083333333)^2] * (1199/1200)^(118)
p2276
asg9
g728
sS'part2_incorrect_attempt'
p2277
(lp2278
(S'0:26:35'
p2279
VC(120, 2) * [(0.00083333333)^2] * (1199/1200)^(118)0.00449378498100453
p2280
tp2281
assVl5han
p2282
(dp2283
S'part2_correct_attempt'
p2284
(lp2285
S'12:15:51'
p2286
aVC(80,1)*(1/800)^1*(799/800)^79
p2287
asg9
V2015-11-06 06:59:15
p2288
sS'part2_incorrect_attempt'
p2289
(lp2290
(S'0:00:00'
p2291
VC(80,1)*(1-1/10)^9*(1/10)^1
p2292
tp2293
a(S'0:00:14'
p2294
VC(80,1)*(1-1/10)^79*(1/10)^1
p2295
tp2296
a(S'0:05:28'
p2297
VC(80,1)*(1/10)^79*(9/10)
p2298
tp2299
assVctgraves
p2300
(dp2301
S'part2_correct_attempt'
p2302
(lp2303
S'2 days, 20:21:08'
p2304
aVC(120, 3)*(1/1200)^3*(1-1/1200)^(117)
p2305
asg9
g758
sS'part2_incorrect_attempt'
p2306
(lp2307
(S'0:06:03'
p2308
VC(1200, 120)*(120/1200)^120*(1-120/1200)^(1200-120)
p2309
tp2310
a(S'0:06:57'
p2311
VC(1200, 120)*(120/1200)^120*(1-120/1200)^(1200-120)
p2312
tp2313
assVdkurli
p2314
(dp2315
S'part2_correct_attempt'
p2316
(lp2317
S'0:11:58'
p2318
aVC(120, 1)*(1/1200)*(1199/1200)^119
p2319
asg9
V2015-11-05 02:53:49
p2320
sS'part2_incorrect_attempt'
p2321
(lp2322
(S'0:05:11'
p2323
V.1
p2324
tp2325
a(S'0:07:17'
p2326
V.05
p2327
tp2328
assVj5phung
p2329
(dp2330
S'part2_correct_attempt'
p2331
(lp2332
S'10:53:39'
p2333
aVC(100,2)(1/1000)^2 (1-1/1000)^(100-2)
p2334
asg9
V2015-11-03 17:17:04
p2335
sS'part2_incorrect_attempt'
p2336
(lp2337
(S'0:03:54'
p2338
VC(10,2)(10^2) (1-10)^(2-10)
p2339
tp2340
assVanl114
p2341
(dp2342
S'part2_correct_attempt'
p2343
(lp2344
S'0:00:45'
p2345
aV100 * (1/1000) * (1 - (1/1000))^99
p2346
asg9
V2015-11-05 22:37:55
p2347
sS'part2_incorrect_attempt'
p2348
(lp2349
(S'0:00:00'
p2350
V100 * (1/1000) * (1 - (1/1000)^99)
p2351
tp2352
assVc4du
p2353
(dp2354
S'part2_correct_attempt'
p2355
(lp2356
S'0:07:48'
p2357
aVC(80,2)*(1-1/800)^78*(1/800)^2
p2358
asg9
g770
sS'part2_incorrect_attempt'
p2359
(lp2360
(S'0:01:42'
p2361
VC(80,2)*(1-0.1)^78*0.1^2/2^80
p2362
tp2363
assVr9jiang
p2364
(dp2365
S'part2_correct_attempt'
p2366
(lp2367
S'0:02:27'
p2368
aV0.0001457
p2369
asg9
g800
sS'part2_incorrect_attempt'
p2370
(lp2371
(S'0:00:00'
p2372
V0.0246
p2373
tp2374
assVrlhagen
p2375
(dp2376
S'part2_correct_attempt'
p2377
(lp2378
S'0:05:08'
p2379
aVC(90,2)* ( (1/900)^2) * ( (1-1/900)^(90-2))
p2380
asg9
V2015-10-31 17:03:49
p2381
sS'part2_incorrect_attempt'
p2382
(lp2383
(S'0:00:49'
p2384
VC(90,2)
p2385
tp2386
assVavasavad
p2387
(dp2388
g9
V2015-11-04 23:01:09
p2389
sS'part2_incorrect_attempt'
p2390
(lp2391
(S'0:03:23'
p2392
VC(91,1) * (1/91)^1 * (1-[1/91])^90
p2393
tp2394
a(S'0:03:44'
p2395
V1/91
p2396
tp2397
assVtcn013
p2398
(dp2399
S'part2_correct_attempt'
p2400
(lp2401
S'1 day, 20:56:50'
p2402
aVC(100,1)(1/1000)(999/1000)^99
p2403
asg9
g812
sS'part2_incorrect_attempt'
p2404
(lp2405
(S'0:06:36'
p2406
V(1/1000)^100
p2407
tp2408
a(S'0:10:32'
p2409
V1/10
p2410
tp2411
a(S'1 day, 7:50:26'
p2412
V.0905
p2413
tp2414
a(S'1 day, 7:51:21'
p2415
V.3697
p2416
tp2417
a(S'1 day, 7:56:04'
p2418
V1 .0905 .0905 .3679 .3697 .0005 .0004
p2419
tp2420
a(S'1 day, 7:56:40'
p2421
V.0905
p2422
tp2423
a(S'1 day, 20:27:25'
p2424
V120/1200
p2425
tp2426
a(S'1 day, 20:28:04'
p2427
V1/1200
p2428
tp2429
assVtstevens
p2430
(dp2431
S'part2_correct_attempt'
p2432
(lp2433
S'0:05:18'
p2434
aV0.0905697844958668
p2435
asg9
g827
sS'part2_incorrect_attempt'
p2436
(lp2437
(S'0:01:09'
p2438
V0.00990148353526726
p2439
tp2440
a(S'0:01:32'
p2441
V.1
p2442
tp2443
assVl8ngo
p2444
(dp2445
S'part2_correct_attempt'
p2446
(lp2447
S'2 days, 4:21:17'
p2448
aV[[1/800]^3]*[[799/800]^77]*80*79*78/6
p2449
asg9
g839
sS'part2_incorrect_attempt'
p2450
(lp2451
(S'0:16:09'
p2452
Ve^[-0.1]*[(0.1^3)/3!]
p2453
tp2454
a(S'1 day, 19:09:13'
p2455
V[0.1*3]*[0.9^77]*40*79*13
p2456
tp2457
a(S'1 day, 19:09:27'
p2458
V[0.1^3]*[0.9^77]*40*79*13
p2459
tp2460
a(S'1 day, 19:11:11'
p2461
V[0.1^3]*[0.9^77]*80*79*78/6
p2462
tp2463
a(S'1 day, 19:24:13'
p2464
V[0.1^77]*[0.9^3]*80*79*78/6
p2465
tp2466
a(S'1 day, 19:25:40'
p2467
V[0.1^3]*[0.9^[80-3]]*[80!/[3![80-3]!]]
p2468
tp2469
a(S'1 day, 22:19:04'
p2470
V[(3/80)^3]*[1-(3/80)^[80-3]]*[80!/[3![80-3]!]]
p2471
tp2472
a(S'1 day, 22:25:32'
p2473
V[0.5^3]*[0.5^77]*80*79*78/6
p2474
tp2475
a(S'2 days, 4:19:19'
p2476
V[0.9^3]*[0.1^77]*80*79*78/6
p2477
tp2478
assVdjk006
p2479
(dp2480
S'part2_correct_attempt'
p2481
(lp2482
S'1:04:50'
p2483
aV.1(1099/1100)^109
p2484
asg9
V2015-11-03 21:27:55
p2485
sS'part2_incorrect_attempt'
p2486
(lp2487
(S'0:12:13'
p2488
V.1(.9)^0
p2489
tp2490
assVdando
p2491
(dp2492
S'part2_correct_attempt'
p2493
(lp2494
S'3 days, 4:22:14'
p2495
aVC(120,1)(1/1200)(1 - 1/1200)^119
p2496
asg9
V2015-11-03 20:07:30
p2497
sS'part2_incorrect_attempt'
p2498
(lp2499
(S'0:00:00'
p2500
V.1
p2501
tp2502
a(S'0:00:34'
p2503
Ve^(-.1)
p2504
tp2505
a(S'0:00:52'
p2506
Ve^(-.1) * .1
p2507
tp2508
a(S'0:06:35'
p2509
Ve^(-.1 * 120) * .1
p2510
tp2511
assVdsriniva
p2512
(dp2513
S'part2_correct_attempt'
p2514
(lp2515
S'0:03:26'
p2516
aV(899/900)^88*(1/900)^2*4005
p2517
asg9
V2015-11-05 09:14:47
p2518
sS'part2_incorrect_attempt'
p2519
(lp2520
(S'0:01:57'
p2521
V(1/900)^88*(899/900)^2*404550
p2522
tp2523
assVchc286
p2524
(dp2525
S'part2_correct_attempt'
p2526
(lp2527
S'0:06:14'
p2528
aV(100*99/2)*((1/1000)^2)*((999/1000)^98)
p2529
asg9
V2015-11-01 01:14:47
p2530
sS'part2_incorrect_attempt'
p2531
(lp2532
(S'0:01:22'
p2533
V(e^(-0.1))*(0.1^2/2!)
p2534
tp2535
assVglcohen
p2536
(dp2537
S'part2_correct_attempt'
p2538
(lp2539
S'0:24:33'
p2540
aVC(80,3)((1/800)^3)((1-(1/800))^77)
p2541
asg9
g1289
sS'part2_incorrect_attempt'
p2542
(lp2543
(S'0:02:20'
p2544
Ve^(-0.1*3)
p2545
tp2546
a(S'0:02:26'
p2547
Ve^(0.1*3)
p2548
tp2549
a(S'0:02:38'
p2550
V1-e^(-0.1*3)
p2551
tp2552
a(S'0:06:42'
p2553
V1/.1
p2554
tp2555
a(S'0:08:22'
p2556
VC(80,3)
p2557
tp2558
assVsayao
p2559
(dp2560
S'part2_correct_attempt'
p2561
(lp2562
S'0:10:56'
p2563
aV0.090569784496
p2564
asg9
V2015-11-04 01:13:04
p2565
sS'part2_incorrect_attempt'
p2566
(lp2567
(S'0:02:54'
p2568
V.0905
p2569
tp2570
a(S'0:03:20'
p2571
V.1
p2572
tp2573
a(S'0:03:28'
p2574
V.0905
p2575
tp2576
a(S'0:04:17'
p2577
V.3697
p2578
tp2579
a(S'0:09:38'
p2580
V.9
p2581
tp2582
a(S'0:09:49'
p2583
V.09
p2584
tp2585
assVanvan
p2586
(dp2587
S'part2_correct_attempt'
p2588
(lp2589
S'8:36:50'
p2590
aV120 * (1/1200 )* (1199/1200)^119
p2591
asg9
V2015-11-05 08:16:24
p2592
sS'part2_incorrect_attempt'
p2593
(lp2594
(S'0:06:01'
p2595
V2000 * .1 * .9^1999
p2596
tp2597
a(S'0:07:07'
p2598
V120 * .1 * .9^199
p2599
tp2600
a(S'0:09:46'
p2601
Ve^-.1 * (.1^1) / 1! 
p2602
tp2603
assVcsl030
p2604
(dp2605
S'part2_correct_attempt'
p2606
(lp2607
S'0:17:17'
p2608
aVC(120,2) * (1/1200)^2 * (1- (1/1200))^118
p2609
asg9
V2015-11-05 04:35:45
p2610
sS'part2_incorrect_attempt'
p2611
(lp2612
(S'0:02:44'
p2613
Ve^-.1* .1^2/2!
p2614
tp2615
assVasp025
p2616
(dp2617
S'part2_correct_attempt'
p2618
(lp2619
S'0:21:06'
p2620
aVC(120,2)(1/1200)^2(1-(1/1200))^(120-2)
p2621
asg9
g1641
sS'part2_incorrect_attempt'
p2622
(lp2623
(S'0:15:20'
p2624
VC(1200,2)(120/1200)^2(1-(120/1200))^(1200-2)
p2625
tp2626
assVflhernan
p2627
(dp2628
S'part2_correct_attempt'
p2629
(lp2630
S'0:57:36'
p2631
aVC(80,2)*(1/800)^(2)*(1-1/800)^(80-2)
p2632
asg9
V2015-11-03 18:36:14
p2633
sS'part2_incorrect_attempt'
p2634
(lp2635
(S'0:02:14'
p2636
V(e^-.1 *.1^2/2!)
p2637
tp2638
a(S'0:07:09'
p2639
Ve^(.1)*e^(2-.1)
p2640
tp2641
a(S'0:07:20'
p2642
Ve^(2)*e^(2-.1)
p2643
tp2644
a(S'0:08:06'
p2645
Ve^(.1)+e^(2)
p2646
tp2647
a(S'0:09:04'
p2648
V.1/(2.1)
p2649
tp2650
a(S'0:11:02'
p2651
VC(80,.1/(2.1))
p2652
tp2653
a(S'0:14:44'
p2654
Ve^(-.1)(.1)^(2)/2
p2655
tp2656
a(S'0:15:49'
p2657
Ve^(-.1)(.1)^(2)/2!
p2658
tp2659
a(S'0:19:38'
p2660
Ve^(-.1)(.1)^(2)/2!*.1
p2661
tp2662
a(S'0:19:46'
p2663
Ve^(-.1)(.1)^(2)/2!
p2664
tp2665
a(S'0:28:27'
p2666
VC(800,2)*(.1)^(2)*(1-.1)^(800-2)
p2667
tp2668
assVc1wei
p2669
(dp2670
S'part2_correct_attempt'
p2671
(lp2672
S'0:03:11'
p2673
aV7140*(1/1200)^2*(1-(1/1200))^118
p2674
asg9
g905
sS'part2_incorrect_attempt'
p2675
(lp2676
(S'0:00:58'
p2677
V7140*(.1)
p2678
tp2679
a(S'0:01:11'
p2680
V7140*(1/1200)
p2681
tp2682
assVmasaro
p2683
(dp2684
S'part2_correct_attempt'
p2685
(lp2686
S'1:04:23'
p2687
aV110 * 1/1100 * (1-1/1100)^(109)
p2688
asg9
V2015-11-02 00:56:17
p2689
sS'part2_incorrect_attempt'
p2690
(lp2691
(S'0:02:02'
p2692
Ve^(-0.1)*[0.1]
p2693
tp2694
a(S'0:44:11'
p2695
V110*[110!/109! * 0.1 * (0.9)^(109)]
p2696
tp2697
assVstarinia
p2698
(dp2699
S'part2_correct_attempt'
p2700
(lp2701
S'1 day, 18:29:14'
p2702
aVC(80,3) * (1/800)^3 * (1 -1/800)^77
p2703
asg9
V2015-11-04 03:02:24
p2704
sS'part2_incorrect_attempt'
p2705
(lp2706
(S'18:36:06'
p2707
V(20*18)/3! * .9^18 * .1^3
p2708
tp2709
a(S'18:36:22'
p2710
V(20*18)/3! * .9^17 * .1^3
p2711
tp2712
a(S'18:36:33'
p2713
V(20*18)/3! * .9^77 * .1^3
p2714
tp2715
a(S'18:36:56'
p2716
V(80*77)/3! * .9^77 * .1^3
p2717
tp2718
a(S'18:59:55'
p2719
V(80*78)/3! * .9^77 * .1^3
p2720
tp2721
assVm4salaza
p2722
(dp2723
S'part2_correct_attempt'
p2724
(lp2725
S'0:25:14'
p2726
aVC(120,3)*(1/1200)^3*(1-1/1200)^(120-3)
p2727
asg9
V2015-11-04 04:50:24
p2728
sS'part2_incorrect_attempt'
p2729
(lp2730
(S'0:03:40'
p2731
V120/(3!*(120-3)!)
p2732
tp2733
assVm8woo
p2734
(dp2735
S'part2_correct_attempt'
p2736
(lp2737
S'0:05:29'
p2738
aVC(100,1)(1/1000)^1*(1-1/1000)^(100-1)
p2739
asg9
V2015-11-05 20:37:28
p2740
sS'part2_incorrect_attempt'
p2741
(lp2742
(S'0:02:20'
p2743
VC(100,1)(1/10)^1*(1-1/10)^(100-1)
p2744
tp2745
assVggaddi
p2746
(dp2747
S'part2_correct_attempt'
p2748
(lp2749
S'3 days, 22:20:33'
p2750
aVC(100,1)*(1/1000)^1*(1-1/1000)^99
p2751
asg9
g1211
sS'part2_incorrect_attempt'
p2752
(lp2753
(S'0:01:21'
p2754
V1/1000
p2755
tp2756
a(S'0:06:57'
p2757
V1/1000
p2758
tp2759
a(S'0:07:30'
p2760
V(1/1000)*100
p2761
tp2762
a(S'0:07:39'
p2763
V(1/1000)/100
p2764
tp2765
assVjhp077
p2766
(dp2767
S'part2_correct_attempt'
p2768
(lp2769
S'0:08:10'
p2770
aV(120*119) / (2) * (1/1200)^2 * (1199/1200)^118
p2771
asg9
V2015-11-05 12:48:32
p2772
sS'part2_incorrect_attempt'
p2773
(lp2774
(S'0:00:51'
p2775
Ve^(-0.1)*(0.1^(2) / 4)
p2776
tp2777
a(S'0:01:01'
p2778
Ve^(-0.1)*(0.1^(2) / 2)
p2779
tp2780
a(S'0:02:04'
p2781
V1/5
p2782
tp2783
a(S'0:05:18'
p2784
V1/100
p2785
tp2786
assVjit002
p2787
(dp2788
S'part2_correct_attempt'
p2789
(lp2790
S'1:31:27'
p2791
aV110*(1/1100)(1-1/1100)^(109)
p2792
asg9
V2015-11-05 02:14:10
p2793
sS'part2_incorrect_attempt'
p2794
(lp2795
(S'0:00:00'
p2796
V1/1100*110
p2797
tp2798
a(S'1:14:48'
p2799
V0.1*0.9^9*10
p2800
tp2801
a(S'1:17:52'
p2802
VC(1100,110)*0.1^110*0.9^(1100-110)
p2803
tp2804
a(S'1:24:01'
p2805
V(1/1100)^110
p2806
tp2807
assVdruble
p2808
(dp2809
S'part2_correct_attempt'
p2810
(lp2811
S'-1 day, 23:57:05'
p2812
aVC(80,1) * (1/800)^1 * (1-(1/800))^79
p2813
asg9
V2015-11-04 05:01:53
p2814
sS'part2_incorrect_attempt'
p2815
(lp2816
(S'-1 day, 23:34:16'
p2817
V(1/800) * (1 - (1/800))
p2818
tp2819
a(S'-1 day, 23:56:49'
p2820
VC(80,1) * (1/800)^1 * (1-(1/800)^79)
p2821
tp2822
assVh4tu
p2823
(dp2824
S'part2_correct_attempt'
p2825
(lp2826
S'0:03:07'
p2827
aV(1/1200)^1*120*(1-1/1200)^119
p2828
asg9
V2015-11-05 05:23:25
p2829
sS'part2_incorrect_attempt'
p2830
(lp2831
(S'0:00:56'
p2832
V(1/1200)^119*(1-1/1200)^1
p2833
tp2834
assVjag028
p2835
(dp2836
S'part2_correct_attempt'
p2837
(lp2838
S'0:33:31'
p2839
aVC(90,2)(1/900)^2(1-(1/900))^88
p2840
asg9
g998
sS'part2_incorrect_attempt'
p2841
(lp2842
(S'0:04:15'
p2843
V.1*2
p2844
tp2845
assVlguintu
p2846
(dp2847
S'part2_correct_attempt'
p2848
(lp2849
S'0:02:07'
p2850
aVC(100,3)*(1/1000)^3*(1-1/1000)^97
p2851
asg9
V2015-11-03 04:13:39
p2852
sS'part2_incorrect_attempt'
p2853
(lp2854
(S'0:01:03'
p2855
VC(100,3)
p2856
tp2857
assVc1sorian
p2858
(dp2859
S'part2_correct_attempt'
p2860
(lp2861
S'0:14:50'
p2862
aV(100!/(98!2!))(.001^2)(.999^98)
p2863
asg9
V2015-11-04 22:35:18
p2864
sS'part2_incorrect_attempt'
p2865
(lp2866
(S'0:04:54'
p2867
V5!/(2!3!)
p2868
tp2869
assVatorr
p2870
(dp2871
S'part2_correct_attempt'
p2872
(lp2873
S'4:37:51'
p2874
aVC(90,1) * (1/900) * (1-(1/900))^(90-1)
p2875
asg9
V2015-11-05 19:40:52
p2876
sS'part2_incorrect_attempt'
p2877
(lp2878
(S'0:03:00'
p2879
V1/10
p2880
tp2881
a(S'0:03:29'
p2882
Ve^(-1/10) * (1/10)
p2883
tp2884
a(S'1:21:28'
p2885
V0.9/(90 * [1/90] * [89/90])
p2886
tp2887
a(S'4:02:09'
p2888
V(1 - 0.1)/((90 * 0.1 * 0.9)^0.5)
p2889
tp2890
a(S'4:03:19'
p2891
V(1 - 0.1)/((90 * (1/9000) * (8999/9000))^0.5)
p2892
tp2893
a(S'4:05:08'
p2894
V(1 - 0.1)/((90 * (1/90) * (89/90))^0.5)
p2895
tp2896
a(S'4:12:21'
p2897
V(1 - 0.1)/((90 * (1/9000) * (8999/9000))^0.5)
p2898
tp2899
a(S'4:12:56'
p2900
V(1 - 0.1)/((90 * (1/9) * (8/9))^0.5)
p2901
tp2902
a(S'4:36:30'
p2903
VC(90,1) * (0.9)
p2904
tp2905
assVskarimik
p2906
(dp2907
S'part2_correct_attempt'
p2908
(lp2909
S'0:53:58'
p2910
aVC(90,2)((1/900)^2)(899/900)^88
p2911
asg9
V2015-10-31 21:51:39
p2912
sS'part2_incorrect_attempt'
p2913
(lp2914
(S'0:10:28'
p2915
VC(90,2)((1/10)^2)
p2916
tp2917
a(S'0:36:08'
p2918
Ve^(-1/10)((1/10)^2)/2
p2919
tp2920
a(S'0:43:58'
p2921
VC(90,2)
p2922
tp2923
assVanislam
p2924
(dp2925
S'part2_correct_attempt'
p2926
(lp2927
S'0:06:43'
p2928
aVC(110,1)*(1/1100)*(1-1/1100)^109
p2929
asg9
V2015-11-05 23:22:09
p2930
sS'part2_incorrect_attempt'
p2931
(lp2932
(S'0:05:24'
p2933
V110*(1/1100)*(1-(1/1100)^109)
p2934
tp2935
assVkrau
p2936
(dp2937
S'part2_correct_attempt'
p2938
(lp2939
S'7:23:36'
p2940
aVC(90,2)*(1/900)^2*(899/900)^88
p2941
asg9
g1094
sS'part2_incorrect_attempt'
p2942
(lp2943
(S'0:00:26'
p2944
V2/.1
p2945
tp2946
a(S'0:00:34'
p2947
V.1/2
p2948
tp2949
a(S'0:45:03'
p2950
V90!/(2!88!)
p2951
tp2952
a(S'0:45:16'
p2953
V90!/(2!88!)/90!
p2954
tp2955
a(S'0:46:08'
p2956
V90!/(2!88!)*.1
p2957
tp2958
a(S'0:47:42'
p2959
V2/.1
p2960
tp2961
a(S'7:13:14'
p2962
V(e^-2)*(2^1)/(1!)
p2963
tp2964
a(S'7:15:09'
p2965
V.1/20
p2966
tp2967
a(S'7:15:13'
p2968
V.1/2
p2969
tp2970
a(S'7:17:18'
p2971
V90/1800
p2972
tp2973
a(S'7:20:13'
p2974
VC(90,2)
p2975
tp2976
a(S'7:20:18'
p2977
VC(90,2)*.1
p2978
tp2979
assVkthui
p2980
(dp2981
S'part2_correct_attempt'
p2982
(lp2983
S'0:23:37'
p2984
aV90(1/900)(1-1/900)^89
p2985
asg9
V2015-11-06 01:49:10
p2986
sS'part2_incorrect_attempt'
p2987
(lp2988
(S'0:05:55'
p2989
V1/10
p2990
tp2991
a(S'0:09:03'
p2992
V1/100
p2993
tp2994
a(S'0:15:29'
p2995
V1/10
p2996
tp2997
assVcrmirand
p2998
(dp2999
S'part2_correct_attempt'
p3000
(lp3001
S'1:02:01'
p3002
aVC(90,1)*(1/900)*(1-1/900)^89
p3003
asg9
V2015-11-03 05:04:43
p3004
sS'part2_incorrect_attempt'
p3005
(lp3006
(S'0:05:06'
p3007
VC(90, 89) * .1^(89)*(.9)
p3008
tp3009
a(S'0:07:20'
p3010
VC(90,90)*.1^90
p3011
tp3012
a(S'0:07:28'
p3013
VC(90,90)*.9^90
p3014
tp3015
a(S'0:11:08'
p3016
VC(90,89)*(1/900)^89*(1-1/900)
p3017
tp3018
assVbeyounge
p3019
(dp3020
S'part2_correct_attempt'
p3021
(lp3022
S'6 days, 0:19:18'
p3023
aVC(90,1) * ((1/900) ^ 1) * ((1-(1/900)) ^89)
p3024
asg9
V2015-10-30 05:07:56
p3025
sS'part2_incorrect_attempt'
p3026
(lp3027
(S'0:08:56'
p3028
VC(1,1) * (0.1 ^ 1) * (0.9 ^ 0)
p3029
tp3030
a(S'0:11:55'
p3031
VC(10,1) * (0.1 ^ 1) * (0.9 ^ 9)
p3032
tp3033
a(S'0:12:33'
p3034
VC(10,9) * (0.1 ^ 9) * (0.9 ^ 1)
p3035
tp3036
a(S'18:30:51'
p3037
V1- C(90,1) * (0.1^1) * (0.9 ^ 89)
p3038
tp3039
a(S'18:31:12'
p3040
VC(90,1) * (0.1^89) * (0.9 ^ 1)
p3041
tp3042
a(S'18:32:37'
p3043
VC(900, 90) * (0.1^90) * (0.9^810)
p3044
tp3045
a(S'18:34:07'
p3046
VC(1,1) * (0.1^1) * (0.9^0)
p3047
tp3048
a(S'18:34:28'
p3049
VC(1,1) * (0.1^0) * (0.9^1)
p3050
tp3051
a(S'18:39:56'
p3052
VC(1,1) * (0.1^1) * (0.9^0)
p3053
tp3054
a(S'18:49:44'
p3055
VC(9,1) * (0.1^1) * (0.9^8)
p3056
tp3057
a(S'18:54:28'
p3058
VC(900,90) * (0.1^90) * (0.9^810)
p3059
tp3060
a(S'6 days, 0:12:44'
p3061
VC(90,1) * (1^89) * (0^1)
p3062
tp3063
assVpsable
p3064
(dp3065
g9
V2015-11-05 23:43:15
p3066
sS'part2_incorrect_attempt'
p3067
(lp3068
(S'0:03:01'
p3069
V.000150806
p3070
tp3071
a(S'0:03:50'
p3072
V.740818
p3073
tp3074
a(S'0:10:00'
p3075
V.0027418
p3076
tp3077
assVjic212
p3078
(dp3079
S'part2_correct_attempt'
p3080
(lp3081
S'0:16:26'
p3082
aV((1/900))^2*(1-(1/900))^88*C(90,2)
p3083
asg9
V2015-11-05 03:32:05
p3084
sS'part2_incorrect_attempt'
p3085
(lp3086
(S'0:07:11'
p3087
V((1/900)^2)*((899/900)^2)*C(90,2)
p3088
tp3089
a(S'0:07:24'
p3090
V((1/900)^88)*((899/900)^2)*C(90,2)
p3091
tp3092
a(S'0:09:20'
p3093
V((90/900)^88)*(1-(90/900)^2)*C(90,2)
p3094
tp3095
a(S'0:10:04'
p3096
V((90/900)^2)*(1-(90/900))^2*C(90,2)
p3097
tp3098
a(S'0:10:35'
p3099
V((90/900))^2*(1-(90/900))^88*C(90,2)
p3100
tp3101
assVb3hwang
p3102
(dp3103
S'part2_correct_attempt'
p3104
(lp3105
S'2:30:55'
p3106
aVC(100,2)(0.001)^2*(1-0.001)^(100-2)
p3107
asg9
g980
sS'part2_incorrect_attempt'
p3108
(lp3109
(S'2:29:56'
p3110
VC(100,2)(0.001)^2*(1-100/1000)^(100-2)
p3111
tp3112
assVjhw015
p3113
(dp3114
S'part2_correct_attempt'
p3115
(lp3116
S'2 days, 15:37:57'
p3117
aVC(90,2)((1-1/900)^88)((1/900)^2)
p3118
asg9
V2015-11-04 02:26:09
p3119
sS'part2_incorrect_attempt'
p3120
(lp3121
(S'18:45:00'
p3122
V1/90
p3123
tp3124
a(S'18:45:54'
p3125
V1/2
p3126
tp3127
a(S'2 days, 15:35:51'
p3128
VC(90,2)(1-(1/90)^88)((1/90)^2)
p3129
tp3130
a(S'2 days, 15:36:47'
p3131
VC(90,2)((1-1/90^88))((1/90)^2)
p3132
tp3133
assVt1tran
p3134
(dp3135
S'part2_correct_attempt'
p3136
(lp3137
S'0:27:56'
p3138
aVC(110,3)1/1100^3(1-1/1100)^(110-3)
p3139
asg9
V2015-10-31 05:26:15
p3140
sS'part2_incorrect_attempt'
p3141
(lp3142
(S'0:00:00'
p3143
Ve^(-110/1100)(110/1100)^(3)/3!
p3144
tp3145
a(S'0:00:43'
p3146
V110e^(-110/1100)(110/1100)^(3)/3!
p3147
tp3148
a(S'0:01:54'
p3149
Ve^(-110/1100)(110/1100)^(3)/3!
p3150
tp3151
a(S'0:02:25'
p3152
Ve^(-1100/110)(1100/110)^(3)/3!
p3153
tp3154
a(S'0:03:35'
p3155
V110/1100/3
p3156
tp3157
a(S'0:03:55'
p3158
V3*110/1100
p3159
tp3160
a(S'0:04:46'
p3161
V(110/1100)^3
p3162
tp3163
a(S'0:24:06'
p3164
Ve^(-110/1100)(110/1100)^(3)/3!
p3165
tp3166
a(S'0:24:50'
p3167
Ve^(-110/1100)((110/1100)^(3)/3!)
p3168
tp3169
assVdsmonaha
p3170
(dp3171
S'part2_correct_attempt'
p3172
(lp3173
S'2 days, 2:57:02'
p3174
aV.004494
p3175
asg9
g1154
sS'part2_incorrect_attempt'
p3176
(lp3177
(S'2 days, 2:37:16'
p3178
V.99985
p3179
tp3180
a(S'2 days, 2:37:51'
p3181
V.999849
p3182
tp3183
a(S'2 days, 2:56:35'
p3184
V.003168
p3185
tp3186
assVkrkelkar
p3187
(dp3188
S'part2_correct_attempt'
p3189
(lp3190
S'0:10:46'
p3191
aVC(90,1)*(1/900)^1*(1-1/900)^(90-1)
p3192
asg9
V2015-10-31 20:02:00
p3193
sS'part2_incorrect_attempt'
p3194
(lp3195
(S'0:00:00'
p3196
V(1/900)(90/1)
p3197
tp3198
a(S'0:05:43'
p3199
V(10!)/(1!*9!)*(.1**1)*(.9**9)
p3200
tp3201
assVjel075
p3202
(dp3203
S'part2_correct_attempt'
p3204
(lp3205
S'1:50:14'
p3206
aVC(90,1)*(0.1/90)^1*(1-(0.1/90))^(90-1)
p3207
asg9
g1178
sS'part2_incorrect_attempt'
p3208
(lp3209
(S'0:00:00'
p3210
V1/10
p3211
tp3212
a(S'0:04:22'
p3213
V0.1^10(1-0.1)^(10-1)
p3214
tp3215
a(S'0:06:40'
p3216
V0.1^90(1-0.1)^(900-90)
p3217
tp3218
a(S'0:11:39'
p3219
VC(10,1)*(0.1^1)*(1-0.1)^(10-1)
p3220
tp3221
a(S'0:20:33'
p3222
VC(1,1)*(0.1^1)*(1-0.1)^(0)
p3223
tp3224
a(S'1:26:31'
p3225
VC(10,2)*(0.1^2)*(1-0.1)^(10-2)
p3226
tp3227
assVytc012
p3228
(dp3229
S'part2_correct_attempt'
p3230
(lp3231
S'10:40:30'
p3232
aVC(120,2)((1/1200)^2)(1-1/1200)^118
p3233
asg9
g1629
sS'part2_incorrect_attempt'
p3234
(lp3235
(S'0:01:26'
p3236
V120!/119!*(2/1200) *(1-(2/1200))^119
p3237
tp3238
assVedescobe
p3239
(dp3240
S'part2_correct_attempt'
p3241
(lp3242
S'0:43:45'
p3243
aV0.004491015994358754
p3244
asg9
V2015-11-01 05:55:31
p3245
sS'part2_incorrect_attempt'
p3246
(lp3247
(S'0:09:02'
p3248
Ve^(-.1).1^2/2!
p3249
tp3250
a(S'0:24:35'
p3251
V0.0006854569858065749
p3252
tp3253
a(S'0:27:08'
p3254
V0.00004906136658083414
p3255
tp3256
a(S'0:27:42'
p3257
V0.004906136658083414
p3258
tp3259
a(S'0:38:02'
p3260
V.0044
p3261
tp3262
a(S'0:41:42'
p3263
V0.0006854569858065749
p3264
tp3265
assVkosung
p3266
(dp3267
S'part2_correct_attempt'
p3268
(lp3269
S'17:13:59'
p3270
aVC(120,1)(1/1200)*(1-1/1200)^119
p3271
asg9
g2117
sS'part2_incorrect_attempt'
p3272
(lp3273
(S'0:13:43'
p3274
V0.1
p3275
tp3276
a(S'14:07:18'
p3277
VC(10,1)0.1*(0.9)^9
p3278
tp3279
a(S'14:10:32'
p3280
VC(10,1)(1/1200)*(1-1/1200)^9
p3281
tp3282
a(S'17:13:49'
p3283
VC(120,1)(1/1200)*(1-1/1200)^199
p3284
tp3285
assVetemlock
p3286
(dp3287
g9
V2015-11-03 21:15:30
p3288
sS'part2_incorrect_attempt'
p3289
(lp3290
(S'0:10:34'
p3291
V2/10
p3292
tp3293
a(S'0:11:11'
p3294
VC(110,2)/10
p3295
tp3296
a(S'0:14:06'
p3297
VC(1100,2)*[(1/10)^2]*(0.9)^1098
p3298
tp3299
a(S'0:15:26'
p3300
VC(1100,20)*[(1/10)^20]*(0.9)^1080
p3301
tp3302
a(S'0:18:53'
p3303
VC(110,55)*[(1/10)^55]*(0.9)^55
p3304
tp3305
assVakg009
p3306
(dp3307
S'part2_correct_attempt'
p3308
(lp3309
S'4:03:15'
p3310
aVC(120,2)*(1/1200)^2*(1-1/1200)^118
p3311
asg9
g968
sS'part2_incorrect_attempt'
p3312
(lp3313
(S'3:27:47'
p3314
VC(120,1)*(1/10)*(1-1/10)^119
p3315
tp3316
a(S'3:28:48'
p3317
VC(1200,1)*(1/10)*(1-1/10)^1119
p3318
tp3319
a(S'3:29:05'
p3320
VC(1200,1)*(1/10)*(1-1/10)^1199
p3321
tp3322
a(S'3:50:15'
p3323
VC(120,1)*(1/10)*(1-1/10)^119
p3324
tp3325
a(S'3:55:06'
p3326
VC(10,1)*(1/10)*(1-1/10)^9
p3327
tp3328
a(S'3:56:00'
p3329
VC(1200,1)*(1/10)*(1-1/10)^1199
p3330
tp3331
a(S'3:56:27'
p3332
VC(120,1)*(1/10)*(1-1/10)^119
p3333
tp3334
a(S'4:02:38'
p3335
VC(1200,20)*(1/10)^20*(1-1/10)^1180
p3336
tp3337
assVsmohiman
p3338
(dp3339
S'part2_correct_attempt'
p3340
(lp3341
S'0:38:36'
p3342
aVC(110,3)*(1/1100)^3*(1099/1100)^107
p3343
asg9
V2015-11-02 01:08:36
p3344
sS'part2_incorrect_attempt'
p3345
(lp3346
(S'0:03:12'
p3347
V3/10
p3348
tp3349
a(S'0:12:00'
p3350
V1/10
p3351
tp3352
a(S'0:16:21'
p3353
VP(110,3)(1/1100)^3*(1099/1100)^107
p3354
tp3355
a(S'0:20:27'
p3356
V3/110
p3357
tp3358
a(S'0:35:01'
p3359
Ve^-(1/10)*((1/10)^3/3!)
p3360
tp3361
assVv4sharma
p3362
(dp3363
S'part2_correct_attempt'
p3364
(lp3365
S'2 days, 17:52:08'
p3366
aVC(120,2)(1/1200)^2(1-1/1200)^(120-2)
p3367
asg9
V2015-11-04 02:34:37
p3368
sS'part2_incorrect_attempt'
p3369
(lp3370
(S'0:02:31'
p3371
V(e^-2)((1/10)^2)/(2!)
p3372
tp3373
a(S'0:03:01'
p3374
V(e^-(1/10))((1/10)^2)/(2!)
p3375
tp3376
a(S'2 days, 17:50:46'
p3377
VC(120,2)(1/1200)^2
p3378
tp3379
assVqfu
p3380
(dp3381
S'part2_correct_attempt'
p3382
(lp3383
S'1 day, 2:00:37'
p3384
aVC(80,3)*(1/800)^3*(799/800)^77
p3385
asg9
V2015-11-04 01:28:47
p3386
sS'part2_incorrect_attempt'
p3387
(lp3388
(S'0:00:19'
p3389
V(1/10)^3*(9/10)^77*C(80,3)
p3390
tp3391
a(S'0:05:44'
p3392
V(1/10)^3*(9/10)^77*P(80,3)
p3393
tp3394
a(S'0:06:00'
p3395
V(1/10)^3
p3396
tp3397
a(S'0:06:10'
p3398
V(1/10)^3*C(80,3)
p3399
tp3400
a(S'0:09:25'
p3401
V(1/10)^1*(9/10)^2*C(3,1)
p3402
tp3403
a(S'0:10:03'
p3404
V3/10
p3405
tp3406
a(S'1 day, 1:50:25'
p3407
V0.1^3
p3408
tp3409
a(S'1 day, 1:54:13'
p3410
VC(800,3)*(0.1)^3*(0.9)^797
p3411
tp3412
a(S'1 day, 1:55:30'
p3413
VC(10,3)*(0.1)^3*(0.9)^7
p3414
tp3415
a(S'1 day, 1:56:21'
p3416
VC(10,1)*(0.1)*(0.9)^9*3
p3417
tp3418
a(S'1 day, 1:56:28'
p3419
VC(10,1)*(0.1)*(0.9)^9
p3420
tp3421
assVyjshin
p3422
(dp3423
S'part2_correct_attempt'
p3424
(lp3425
S'16:43:20'
p3426
aVC(100,2)(1/1000)^2(1-1/1000)^98
p3427
asg9
V2015-11-06 07:01:18
p3428
sS'part2_incorrect_attempt'
p3429
(lp3430
(S'0:00:52'
p3431
V((e^-.1)(.1)^2)/2
p3432
tp3433
assVrohan
p3434
(dp3435
S'part2_correct_attempt'
p3436
(lp3437
S'1:51:51'
p3438
aV4005(1/900)^2(1-1/900)^88
p3439
asg9
g1712
sS'part2_incorrect_attempt'
p3440
(lp3441
(S'0:01:18'
p3442
V180/900
p3443
tp3444
a(S'0:03:53'
p3445
V(2/900)(1-2/900)^89
p3446
tp3447
a(S'0:05:32'
p3448
VC(900,2)(2/900)(1-2/900)^89
p3449
tp3450
a(S'0:08:26'
p3451
VC(900,2)(2/900)(1-2/900)^898
p3452
tp3453
a(S'0:09:49'
p3454
VC(900,2)(2/900)^2(1-2/900)^898
p3455
tp3456
a(S'0:11:12'
p3457
VC(900,2)(90/900)^2(1-90/900)^898
p3458
tp3459
a(S'0:14:55'
p3460
V404550(90/900)^2(1-90/900)^898
p3461
tp3462
a(S'0:15:10'
p3463
V404550(2/900)^2(1-2/900)^898
p3464
tp3465
a(S'0:16:03'
p3466
V404550(2/90)^2(1-2/90)^898
p3467
tp3468
a(S'1:46:51'
p3469
VC(90,2)
p3470
tp3471
assVdcastlem
p3472
(dp3473
S'part2_correct_attempt'
p3474
(lp3475
S'15:32:58'
p3476
aVC(100,2)*(1/1000)^2*(1-1/1000)^(100-2)
p3477
asg9
V2015-11-02 06:18:32
p3478
sS'part2_incorrect_attempt'
p3479
(lp3480
(S'0:01:49'
p3481
Ve^-.1*(.1^2/2!)
p3482
tp3483
a(S'0:05:50'
p3484
V.3660
p3485
tp3486
a(S'0:06:29'
p3487
V.1849
p3488
tp3489
a(S'0:06:40'
p3490
V.0045
p3491
tp3492
a(S'0:06:55'
p3493
V.0022
p3494
tp3495
a(S'0:07:14'
p3496
V.1849
p3497
tp3498
a(S'0:08:20'
p3499
V.1839
p3500
tp3501
a(S'0:09:02'
p3502
V.0002
p3503
tp3504
a(S'0:09:20'
p3505
V.0045
p3506
tp3507
a(S'13:11:20'
p3508
V.0046
p3509
tp3510
a(S'13:11:25'
p3511
V.0047
p3512
tp3513
a(S'13:11:30'
p3514
V.0048
p3515
tp3516
a(S'13:11:38'
p3517
V.0045
p3518
tp3519
a(S'13:19:23'
p3520
VC(100,2)
p3521
tp3522
a(S'13:33:11'
p3523
V100*1/1000
p3524
tp3525
a(S'13:33:24'
p3526
V100*(1/1000)
p3527
tp3528
a(S'13:33:35'
p3529
V2*(1/1000)
p3530
tp3531
a(S'13:37:04'
p3532
V.0316
p3533
tp3534
a(S'13:37:10'
p3535
V.031622
p3536
tp3537
a(S'13:38:58'
p3538
V.999
p3539
tp3540
a(S'13:39:04'
p3541
V.99900
p3542
tp3543
a(S'13:45:33'
p3544
V.04472
p3545
tp3546
a(S'13:45:45'
p3547
V.0447213
p3548
tp3549
assVbkoli
p3550
(dp3551
S'part2_correct_attempt'
p3552
(lp3553
S'1:20:43'
p3554
aVC(100,3)(0.001)^3 (1-1/1000)^(100-3)
p3555
asg9
V2015-11-05 20:01:56
p3556
sS'part2_incorrect_attempt'
p3557
(lp3558
(S'0:03:43'
p3559
V.1
p3560
tp3561
a(S'0:04:54'
p3562
V.001
p3563
tp3564
a(S'0:05:52'
p3565
V1/1000
p3566
tp3567
a(S'0:10:09'
p3568
V1/30
p3569
tp3570
a(S'1:00:11'
p3571
V1-(e^(-1/10)(1/10)^3/(3!))
p3572
tp3573
a(S'1:00:51'
p3574
V1 - e^(-0.1* 3)
p3575
tp3576
assVhsc052
p3577
(dp3578
S'part2_correct_attempt'
p3579
(lp3580
S'1 day, 10:14:58'
p3581
aVC(100,1)*(1/1000)^1*(1-(1/1000))^(100-1)
p3582
asg9
V2015-11-05 08:42:02
p3583
sS'part2_incorrect_attempt'
p3584
(lp3585
(S'0:00:43'
p3586
VC(10,1)*(1/10)*(1-(1/10))^(10-1)
p3587
tp3588
a(S'0:04:13'
p3589
VC(10,1)*(1/10)^1*(1-(1/10))^(10-1)
p3590
tp3591
a(S'0:10:18'
p3592
VC(100,99)*(1/10)^99*(1-(1/10))^(100-99)
p3593
tp3594
assVdac064
p3595
(dp3596
S'part2_correct_attempt'
p3597
(lp3598
S'0:12:51'
p3599
aVC(110,1)*((1/1100)^1(1-1/1100)^(109))
p3600
asg9
V2015-11-05 11:13:56
p3601
sS'part2_incorrect_attempt'
p3602
(lp3603
(S'0:04:59'
p3604
VC(110,1)*((110/1100)^1(1-110/1100)^(109))
p3605
tp3606
a(S'0:06:51'
p3607
VC(110,1)*((1/10)^1(1-1/10)^(109))
p3608
tp3609
a(S'0:08:28'
p3610
VC(110,1)*((1/10)^1(1-1/10)^(109))
p3611
tp3612
a(S'0:10:55'
p3613
VC(10,1)*((1/10)^1(1-1/10)^(9))
p3614
tp3615
assVyil035
p3616
(dp3617
S'part2_correct_attempt'
p3618
(lp3619
S'19:07:27'
p3620
aV0.000147419
p3621
asg9
g1247
sS'part2_incorrect_attempt'
p3622
(lp3623
(S'18:34:03'
p3624
V0.1/3
p3625
tp3626
a(S'18:37:03'
p3627
V0.1/(3600)
p3628
tp3629
a(S'18:38:27'
p3630
V0.1/360
p3631
tp3632
a(S'18:46:01'
p3633
V0.1^3
p3634
tp3635
a(S'18:56:37'
p3636
V243/1000
p3637
tp3638
a(S'19:00:07'
p3639
V0.001244
p3640
tp3641
a(S'19:04:19'
p3642
V0.0074642
p3643
tp3644
assVwmiao
p3645
(dp3646
S'part2_correct_attempt'
p3647
(lp3648
S'0:37:22'
p3649
aV110*(1/1100)*(1-1/1100)^109
p3650
asg9
V2015-11-04 20:07:08
p3651
sS'part2_incorrect_attempt'
p3652
(lp3653
(S'0:33:04'
p3654
V1100*0.1*(1-0.1)^1099
p3655
tp3656
assVctroncos
p3657
(dp3658
S'part2_correct_attempt'
p3659
(lp3660
S'1 day, 14:27:20'
p3661
aVC(100,3)* ( (1/1000)^3) * ( (1-1/1000)^(100-3) )
p3662
asg9
V2015-11-04 02:10:29
p3663
sS'part2_incorrect_attempt'
p3664
(lp3665
(S'0:01:56'
p3666
VC(10,1)* ( (1/100)^1) * ( (1-1/100)^(10-1) )
p3667
tp3668
a(S'0:03:54'
p3669
VC(3,1)* ( (1/100)^1) * ( (1-1/100)^(3-1) )
p3670
tp3671
assVlywong
p3672
(dp3673
S'part2_correct_attempt'
p3674
(lp3675
S'0:24:32'
p3676
aVC(100,1)((1000)^-1)*(1-(1/1000))^99
p3677
asg9
g1265
sS'part2_incorrect_attempt'
p3678
(lp3679
(S'0:14:45'
p3680
V(100/1000)
p3681
tp3682
a(S'0:20:19'
p3683
V(11)((1/1100)^2)(1-(1/1100))^(108)
p3684
tp3685
a(S'0:20:37'
p3686
VC(100,1)((1/1100)^2)(1-(1/1100))^(108)
p3687
tp3688
a(S'0:23:41'
p3689
VC(100,1)((1000)^3)*(1-(1/1000))^99
p3690
tp3691
a(S'0:24:18'
p3692
VC(100,1)((1000)^1)*(1-(1/1000))^99
p3693
tp3694
assVabasu
p3695
(dp3696
S'part2_correct_attempt'
p3697
(lp3698
S'5:33:41'
p3699
aV0.000146295601145606
p3700
asg9
g857
sS'part2_incorrect_attempt'
p3701
(lp3702
(S'0:09:35'
p3703
V0.1(3)
p3704
tp3705
a(S'5:30:12'
p3706
V0.0122761520554573
p3707
tp3708
a(S'5:33:00'
p3709
V(e^(-1/900))((1/900)^3/3!)
p3710
tp3711
a(S'5:33:17'
p3712
V(e^(-0.1))((0.1)^3/3!)
p3713
tp3714
assVacvuong
p3715
(dp3716
S'part2_correct_attempt'
p3717
(lp3718
S'0:09:28'
p3719
aVC(120,2)(1/1200)^2*(1199/1200)^118
p3720
asg9
g1310
sS'part2_incorrect_attempt'
p3721
(lp3722
(S'0:00:00'
p3723
V240/1200
p3724
tp3725
a(S'0:01:55'
p3726
V7140/(1200^2)
p3727
tp3728
a(S'0:03:18'
p3729
V120/(1200^2)
p3730
tp3731
assVd6he
p3732
(dp3733
S'part2_correct_attempt'
p3734
(lp3735
S'0:17:56'
p3736
aV99*50*(1/1000)^2*(1-1/1000)^98
p3737
asg9
g1325
sS'part2_incorrect_attempt'
p3738
(lp3739
(S'0:04:03'
p3740
Ve^(-1/10)*(1/10)/2
p3741
tp3742
a(S'0:04:17'
p3743
Ve^(-1/10)*(1/100)/2
p3744
tp3745
assVsachadal
p3746
(dp3747
S'part2_correct_attempt'
p3748
(lp3749
S'0:24:38'
p3750
aVC(90,1)*(1/900)*(899/900)^(89)
p3751
asg9
V2015-11-05 19:25:44
p3752
sS'part2_incorrect_attempt'
p3753
(lp3754
(S'0:10:54'
p3755
VC(90,1)(1/10)^(1)*(9/10)^(89)
p3756
tp3757
assVawollner
p3758
(dp3759
S'part2_correct_attempt'
p3760
(lp3761
S'0:16:17'
p3762
aVC(110,3)*(1/1100)^3*(1- 1/1100)^107
p3763
asg9
V2015-11-06 22:38:05
p3764
sS'part2_incorrect_attempt'
p3765
(lp3766
(S'0:06:38'
p3767
VC(110,2).1
p3768
tp3769
a(S'0:08:57'
p3770
V.3
p3771
tp3772
a(S'0:12:57'
p3773
VP(110,3)*(.1)^3*(.9)^117
p3774
tp3775
assVdlt009
p3776
(dp3777
S'part2_correct_attempt'
p3778
(lp3779
S'0:21:25'
p3780
aVC(110,3)*[(1/1100)^3][(1099/1100)^(110-3)]
p3781
asg9
V2015-11-05 07:01:13
p3782
sS'part2_incorrect_attempt'
p3783
(lp3784
(S'-1 day, 23:00:49'
p3785
V(1100 1)*[(1/1100)](1/1100)^(1100-1)
p3786
tp3787
a(S'0:02:38'
p3788
VC(110,1/1100)*[(1/1100)^110]*[(1/1100)^(110-(1/1100))]
p3789
tp3790
assVmbl003
p3791
(dp3792
S'part2_correct_attempt'
p3793
(lp3794
S'0:09:58'
p3795
aVC(120,2)*(1/1200^2)*(1-1/1200)^(120-2)
p3796
asg9
V2015-11-05 20:37:43
p3797
sS'part2_incorrect_attempt'
p3798
(lp3799
(S'0:00:00'
p3800
Ve^(-120/1200) * (((120/1200)^0)/0!)
p3801
tp3802
a(S'0:00:08'
p3803
Ve^(-120/1200) * (((120/1200)^2)/2!)
p3804
tp3805
a(S'0:01:16'
p3806
V(((120/1200)^2)/2!)
p3807
tp3808
a(S'0:01:28'
p3809
Ve^(-120/1200)
p3810
tp3811
assVagoldsht
p3812
(dp3813
S'part2_correct_attempt'
p3814
(lp3815
S'0:30:18'
p3816
aVC(120,1)*(((1/1200)^1*(1-1/1200)^(120-1)))
p3817
asg9
V2015-11-04 04:44:55
p3818
sS'part2_incorrect_attempt'
p3819
(lp3820
(S'0:08:09'
p3821
VC(120,1)*((1/1200)^1*(1-1/200)^1)
p3822
tp3823
a(S'0:08:28'
p3824
VC(120,1)*(((1/1200)^1*(1-1/200)^1))
p3825
tp3826
a(S'0:09:26'
p3827
VC(120,1)*(((1/1200)^1*(1-1/200)^(120-1)))
p3828
tp3829
assVn2patil
p3830
(dp3831
S'part2_correct_attempt'
p3832
(lp3833
S'1 day, 21:22:31'
p3834
aVC(90,1)*((1-(1/900))^(90-1))(1/900)
p3835
asg9
V2015-11-03 06:26:41
p3836
sS'part2_incorrect_attempt'
p3837
(lp3838
(S'0:08:59'
p3839
V.001
p3840
tp3841
a(S'1 day, 21:11:08'
p3842
V.000762
p3843
tp3844
a(S'1 day, 21:12:01'
p3845
VC(50,1)((1-.1)^(90-1))(.1)
p3846
tp3847
a(S'1 day, 21:12:26'
p3848
VC(90,1)((1-.1)^(90-1))(.1)
p3849
tp3850
a(S'1 day, 21:15:27'
p3851
VC(90,1)*((1-.1)^(90-1))(.1)
p3852
tp3853
assVbakang
p3854
(dp3855
S'part2_correct_attempt'
p3856
(lp3857
S'0:33:38'
p3858
aVC(90,1)*(899/900)^89*(1/900)
p3859
asg9
V2015-11-05 07:58:41
p3860
sS'part2_incorrect_attempt'
p3861
(lp3862
(S'0:22:25'
p3863
V(9/10)^89*(1/10)
p3864
tp3865
a(S'0:23:08'
p3866
V(899/900)^89*(1/900)
p3867
tp3868
a(S'0:25:57'
p3869
V1/10
p3870
tp3871
a(S'0:27:44'
p3872
V1/1000
p3873
tp3874
a(S'0:30:17'
p3875
V(9/10)^89*(1/10)
p3876
tp3877
a(S'0:30:29'
p3878
V(9/10)*(1/10)
p3879
tp3880
a(S'0:31:02'
p3881
V(899/900)^89*(1/900)
p3882
tp3883
a(S'0:31:45'
p3884
V(9/10)^9*(1/10)
p3885
tp3886
a(S'0:32:57'
p3887
V10*(9/10)^9*(1/10)
p3888
tp3889
assVksmurlo
p3890
(dp3891
S'part2_correct_attempt'
p3892
(lp3893
S'0:18:27'
p3894
aVC(80,3)((1/800)^3)((1-1/800)^77)
p3895
asg9
V2015-11-05 05:44:28
p3896
sS'part2_incorrect_attempt'
p3897
(lp3898
(S'0:01:44'
p3899
V(e^-.1)(.1^3/(3!))
p3900
tp3901
assVttimmons
p3902
(dp3903
S'part2_correct_attempt'
p3904
(lp3905
S'4:33:56'
p3906
aVC(120,3)(1/1200)^[3]*(1-1/1200)^[120-3]
p3907
asg9
V2015-11-03 18:15:45
p3908
sS'part2_incorrect_attempt'
p3909
(lp3910
(S'0:02:37'
p3911
VC(1200,120)*1^(120)*(1-1)^(1200-120)
p3912
tp3913
assVjnatale
p3914
(dp3915
S'part2_correct_attempt'
p3916
(lp3917
S'0:04:50'
p3918
aVC(100,3)*(1/1000)^3 * (1-(1/1000))^(100-3)
p3919
asg9
g1376
sS'part2_incorrect_attempt'
p3920
(lp3921
(S'0:00:46'
p3922
V(1/1000)^3
p3923
tp3924
assVtol003
p3925
(dp3926
S'part2_correct_attempt'
p3927
(lp3928
S'0:29:04'
p3929
aVC(100,2)*(1/1000)^2*(1-(1/1000))^(100-2)
p3930
asg9
V2015-11-03 19:02:31
p3931
sS'part2_incorrect_attempt'
p3932
(lp3933
(S'0:09:40'
p3934
V1/10
p3935
tp3936
assVskodigal
p3937
(dp3938
S'part2_correct_attempt'
p3939
(lp3940
S'0:23:04'
p3941
aVC(120,1)(1/1200)^1(1-1/1200)^119
p3942
asg9
V2015-11-05 08:41:07
p3943
sS'part2_incorrect_attempt'
p3944
(lp3945
(S'0:18:39'
p3946
VC(120,1)(120/1200)^1(1-120/1200)
p3947
tp3948
assVaakumar
p3949
(dp3950
S'part2_correct_attempt'
p3951
(lp3952
S'0:16:55'
p3953
aV0.0905793549884187
p3954
asg9
g1430
sS'part2_incorrect_attempt'
p3955
(lp3956
(S'0:02:16'
p3957
VC(90,1)
p3958
tp3959
a(S'0:16:40'
p3960
V.09057
p3961
tp3962
assVhachrist
p3963
(dp3964
S'part2_correct_attempt'
p3965
(lp3966
S'1 day, 14:27:13'
p3967
aV100!/99! * (1/1000) * (1-(1/1000))^(99)
p3968
asg9
V2015-11-02 06:46:07
p3969
sS'part2_incorrect_attempt'
p3970
(lp3971
(S'0:00:00'
p3972
V1/0.1
p3973
tp3974
a(S'0:00:05'
p3975
V0.1
p3976
tp3977
a(S'1 day, 13:19:25'
p3978
V100!/99! * (1-1)^(1)
p3979
tp3980
assVyeh013
p3981
(dp3982
S'part2_correct_attempt'
p3983
(lp3984
S'1 day, 21:45:22'
p3985
aV0.1*(1-1/900)^89
p3986
asg9
V2015-11-03 08:08:13
p3987
sS'part2_incorrect_attempt'
p3988
(lp3989
(S'0:00:39'
p3990
V1/10
p3991
tp3992
a(S'0:00:43'
p3993
V1/100
p3994
tp3995
a(S'0:01:14'
p3996
V1/900
p3997
tp3998
a(S'0:04:32'
p3999
V1-e^(-0.1)
p4000
tp4001
a(S'0:04:43'
p4002
V0.09
p4003
tp4004
a(S'0:04:47'
p4005
V0.01
p4006
tp4007
a(S'1 day, 19:12:14'
p4008
V0.1
p4009
tp4010
a(S'1 day, 19:12:49'
p4011
V1-0.1
p4012
tp4013
a(S'1 day, 19:13:13'
p4014
V(1-0.1)*90
p4015
tp4016
assVedcole
p4017
(dp4018
S'part2_correct_attempt'
p4019
(lp4020
S'0:13:04'
p4021
aVC(110,2)*(1/1100)^2*(1-(1/1100))^(110-2)
p4022
asg9
V2015-11-06 22:40:20
p4023
sS'part2_incorrect_attempt'
p4024
(lp4025
(S'0:05:06'
p4026
Ve^(-.1)*(.1^2)/2!
p4027
tp4028
assVksrijong
p4029
(dp4030
S'part2_correct_attempt'
p4031
(lp4032
S'0:05:08'
p4033
aVC(80,2)(1/800)^2(799/800)^78
p4034
asg9
V2015-11-04 22:39:09
p4035
sS'part2_incorrect_attempt'
p4036
(lp4037
(S'0:00:43'
p4038
V(e^(-1/10))((1/10)^2)/(2)
p4039
tp4040
assVazkong
p4041
(dp4042
S'part2_correct_attempt'
p4043
(lp4044
S'0:56:42'
p4045
aVC(100, 1)(1/1000)(1-1/1000)^99
p4046
asg9
g1478
sS'part2_incorrect_attempt'
p4047
(lp4048
(S'0:31:29'
p4049
Ve^(-1/10)(1/10)
p4050
tp4051
a(S'0:40:03'
p4052
Ve^(-1/1000)(1/1000)
p4053
tp4054
a(S'0:40:17'
p4055
Ve^(-1000)(1000)
p4056
tp4057
assVvolim
p4058
(dp4059
S'part2_correct_attempt'
p4060
(lp4061
S'0:24:30'
p4062
aV(C(100, 3))*(.001^3)*((1-.001)^(100-3))
p4063
asg9
V2015-11-04 22:47:36
p4064
sS'part2_incorrect_attempt'
p4065
(lp4066
(S'0:02:18'
p4067
V.1/3
p4068
tp4069
a(S'0:11:08'
p4070
V.3
p4071
tp4072
a(S'0:11:17'
p4073
V.03
p4074
tp4075
a(S'0:20:53'
p4076
V(C(100, 3))
p4077
tp4078
a(S'0:21:16'
p4079
V(.1^3)
p4080
tp4081
assVk4ma
p4082
(dp4083
S'part2_correct_attempt'
p4084
(lp4085
S'0:10:49'
p4086
aVC(110,3)*(1/1100)^3*(1-(1/1100))^107
p4087
asg9
g1530
sS'part2_incorrect_attempt'
p4088
(lp4089
(S'0:04:43'
p4090
VC(1100,1)*(110/1100)^1*(1-.1)^1099
p4091
tp4092
a(S'0:06:42'
p4093
VC(1100,3)*(3/1100)^1*(1-(3/1100))^1097
p4094
tp4095
assVralhadda
p4096
(dp4097
S'part2_correct_attempt'
p4098
(lp4099
S'4:28:51'
p4100
aV0.09055543
p4101
asg9
g1545
sS'part2_incorrect_attempt'
p4102
(lp4103
(S'4:14:47'
p4104
V0.99532
p4105
tp4106
a(S'4:15:28'
p4107
V0.090483
p4108
tp4109
a(S'4:28:01'
p4110
V0.09055
p4111
tp4112
assVcagatep
p4113
(dp4114
S'part2_correct_attempt'
p4115
(lp4116
S'0:05:11'
p4117
aVC(120, 119) * (1199/1200)^119 * (1/1200)^1
p4118
asg9
g1560
sS'part2_incorrect_attempt'
p4119
(lp4120
(S'0:00:16'
p4121
V.1
p4122
tp4123
a(S'0:02:59'
p4124
VC(120, 119) * .9^119 * .1^1
p4125
tp4126
assVhmnaing
p4127
(dp4128
S'part2_correct_attempt'
p4129
(lp4130
S'0:15:30'
p4131
aVC(90, 3) * (900)^(-3) * (1- (1/900))^(90-3)
p4132
asg9
g1193
sS'part2_incorrect_attempt'
p4133
(lp4134
(S'0:05:41'
p4135
V3*90/900
p4136
tp4137
a(S'0:06:09'
p4138
V90/900/3
p4139
tp4140
assVklala
p4141
(dp4142
S'part2_correct_attempt'
p4143
(lp4144
S'2:42:12'
p4145
aVC(80, 1)*(1/800)*((1-(1/800))^79)
p4146
asg9
V2015-11-05 03:34:56
p4147
sS'part2_incorrect_attempt'
p4148
(lp4149
(S'0:01:20'
p4150
V(9/10)^79
p4151
tp4152
a(S'0:03:53'
p4153
VC(80,1)*(1-(.9))^(79)*(1/10)^1
p4154
tp4155
a(S'0:04:10'
p4156
VC(80,1)*(1-(.1))^(79)*(1/10)^1
p4157
tp4158
assVcprafull
p4159
(dp4160
S'part2_correct_attempt'
p4161
(lp4162
S'2 days, 0:09:46'
p4163
aVC(110,2)(1/1100)^2 * (1 - 1/1100)^(110-2)
p4164
asg9
g1070
sS'part2_incorrect_attempt'
p4165
(lp4166
(S'0:03:00'
p4167
VC(1500,2)
p4168
tp4169
a(S'0:04:16'
p4170
VC(1100,2)*((110/1100)^2) * ((1100-110)/1100)^(1100-2)
p4171
tp4172
a(S'0:04:54'
p4173
VC(1100,2)*((110/1100)^2) * ((1100-110)/1100)^(1100-2)
p4174
tp4175
a(S'0:07:10'
p4176
VC(1500, 2) * ((1/500)^2) * (499/500)^(1500-2)
p4177
tp4178
a(S'0:08:07'
p4179
V(C(1500, 2) * ((1/500)^2) * (499/500)^(1500-2)) + (C(1500,1) * ((1/500)^1) * (499/500)^(1500-1))
p4180
tp4181
a(S'0:08:57'
p4182
V(C(1500, 2) * ((1/500)^2) * (499/500)^(1500-2)) + (C(1500,1) * ((1/500)^1) * (499/500)^(1500-1)) + (C(1500,0) * ((1/500)^0) * (499/500)^(1500))
p4183
tp4184
a(S'0:10:24'
p4185
V(C(1100, 2) * ((0.1)^2) * (0.99)^(1100-2)) + (C(1100,1) * ((0.1)^1) * (0.99)^(1100-1)) + (C(1100,0) * ((0.1)^0) * (0.99)^(1100))
p4186
tp4187
a(S'0:11:05'
p4188
V(C(1100, 2) * ((0.1)^2) * (0.99)^(1100-2))
p4189
tp4190
a(S'0:12:05'
p4191
V(C(1100, 2) * ((0.1)^2) * (0.9)^(1100-2))
p4192
tp4193
assVdlgoldbe
p4194
(dp4195
S'part2_correct_attempt'
p4196
(lp4197
S'2:48:11'
p4198
aVC(110,3)*((1/1100)^3)*((1-(1/1100))^(110-3))
p4199
asg9
V2015-11-05 02:41:26
p4200
sS'part2_incorrect_attempt'
p4201
(lp4202
(S'0:02:03'
p4203
V(e^(-(110/1100)))*(((110/1100)^(3))3!)
p4204
tp4205
a(S'0:02:19'
p4206
V(e^(-(110/1100)))*(((110/1100)^(3))/3!)
p4207
tp4208
a(S'2:42:38'
p4209
VC(110,3)
p4210
tp4211
a(S'2:43:40'
p4212
V(110!)/(3!*(110-3)!)
p4213
tp4214
assVyig015
p4215
(dp4216
S'part2_correct_attempt'
p4217
(lp4218
S'0:09:45'
p4219
aV110*109*108/6*(1/1100)^3*(1-1/1100)^107
p4220
asg9
V2015-11-05 10:18:59
p4221
sS'part2_incorrect_attempt'
p4222
(lp4223
(S'0:00:00'
p4224
V0.1^3
p4225
tp4226
a(S'0:04:20'
p4227
V5.89160247*10^-3
p4228
tp4229
assVjfalcone
p4230
(dp4231
S'part2_correct_attempt'
p4232
(lp4233
S'0:39:16'
p4234
aVC(120,3) * (1/1200)^3 * (1- (1/1200))^117
p4235
asg9
V2015-11-04 04:45:33
p4236
sS'part2_incorrect_attempt'
p4237
(lp4238
(S'0:00:29'
p4239
V.1/3
p4240
tp4241
a(S'0:08:31'
p4242
V0.00124403491316148
p4243
tp4244
a(S'0:11:56'
p4245
V(e^-.1)(.1^3)/6
p4246
tp4247
a(S'0:15:58'
p4248
V0.00124403491316148
p4249
tp4250
a(S'0:18:58'
p4251
V0.001
p4252
tp4253
a(S'0:19:02'
p4254
V0.002
p4255
tp4256
a(S'0:19:11'
p4257
V0.0002
p4258
tp4259
a(S'0:19:15'
p4260
V0.0001
p4261
tp4262
a(S'0:36:51'
p4263
V0.00124403491316148
p4264
tp4265
assVt2shin
p4266
(dp4267
S'part2_correct_attempt'
p4268
(lp4269
S'0:16:29'
p4270
aV7140*(1/1200)^2*(1199/1200)^(120-2)
p4271
asg9
g1668
sS'part2_incorrect_attempt'
p4272
(lp4273
(S'0:07:48'
p4274
V719400*(1/120)^2*(119/120)^(1200-2)
p4275
tp4276
assVvsamant
p4277
(dp4278
S'part2_correct_attempt'
p4279
(lp4280
S'3 days, 4:23:44'
p4281
aVC(110,2)*(1/1100)^2*(1-1/1100)^(110-2)
p4282
asg9
g1680
sS'part2_incorrect_attempt'
p4283
(lp4284
(S'3 days, 4:17:50'
p4285
V(110/1100)^2
p4286
tp4287
assVfichoi
p4288
(dp4289
S'part2_correct_attempt'
p4290
(lp4291
S'4:37:04'
p4292
aVC(110,3) * (1/1100)^3 * (1-(1/1100))^(110-3)
p4293
asg9
V2015-11-03 22:56:02
p4294
sS'part2_incorrect_attempt'
p4295
(lp4296
(S'0:14:16'
p4297
VC(110,3) 
p4298
tp4299
a(S'4:21:08'
p4300
VC(10,3) * 0.1^3 * (1-0.1)^(10-3)
p4301
tp4302
a(S'4:22:48'
p4303
VC(1100,3) * 0.1^3 * (1-0.1)^(1100-3)
p4304
tp4305
assVqtluong
p4306
(dp4307
S'part2_correct_attempt'
p4308
(lp4309
S'0:13:40'
p4310
aVC(90,2)(.1/90)^2(1-.1/90)^(90-2)
p4311
asg9
V2015-11-04 05:58:40
p4312
sS'part2_incorrect_attempt'
p4313
(lp4314
(S'0:02:11'
p4315
V(.1^2)(.9^98)
p4316
tp4317
assVany027
p4318
(dp4319
S'part2_correct_attempt'
p4320
(lp4321
S'0:27:55'
p4322
aVC(110, 1) * (1/1100)^1 * (1-(1/1100))^(110-1)
p4323
asg9
V2015-11-01 19:37:23
p4324
sS'part2_incorrect_attempt'
p4325
(lp4326
(S'0:02:58'
p4327
V.0905
p4328
tp4329
a(S'0:03:20'
p4330
V.3697
p4331
tp4332
a(S'0:08:08'
p4333
V(1100 * 110(1/1100) ) - (1- 0.1)
p4334
tp4335
a(S'0:09:23'
p4336
V.0004
p4337
tp4338
a(S'0:16:46'
p4339
VC(1100, 110) * (0.1)^110 * (0.9)^1100
p4340
tp4341
a(S'0:17:12'
p4342
VC(1100, 110) * (0.1)^1100 * (0.9)^110
p4343
tp4344
a(S'0:17:58'
p4345
VC(110, 1) * (0.1)^110 * (0.9)^1
p4346
tp4347
a(S'0:18:22'
p4348
VC(110, 1) * (0.1)^1 * (0.9)^110
p4349
tp4350
assVvsosnovs
p4351
(dp4352
g9
V2015-11-05 20:39:43
p4353
sS'part2_incorrect_attempt'
p4354
(lp4355
(S'0:00:32'
p4356
VC(80,1)
p4357
tp4358
a(S'0:00:39'
p4359
VC(800,80)
p4360
tp4361
a(S'0:01:12'
p4362
V.1
p4363
tp4364
a(S'0:02:12'
p4365
V.1^1
p4366
tp4367
a(S'0:03:05'
p4368
V80/800
p4369
tp4370
a(S'0:03:23'
p4371
V.1*80/800
p4372
tp4373
a(S'0:04:13'
p4374
VC(80,1)/800
p4375
tp4376
a(S'0:04:18'
p4377
VC(80,1)
p4378
tp4379
a(S'0:04:26'
p4380
VC(80,1*.1)
p4381
tp4382
a(S'0:04:39'
p4383
VC(80,1)*.1
p4384
tp4385
a(S'1:04:20'
p4386
VC(800,80)
p4387
tp4388
a(S'1:04:28'
p4389
VC(800,80)/800
p4390
tp4391
a(S'1:04:36'
p4392
V.1*C(800,80)/800
p4393
tp4394
a(S'1:07:08'
p4395
VC(80,1)*.1*(1-.1)
p4396
tp4397
a(S'1:07:21'
p4398
VC(80,1)*.1*(.99)
p4399
tp4400
a(S'1:07:34'
p4401
VC(80,1)*.1
p4402
tp4403
a(S'1:09:47'
p4404
VC(80,1)*.1*1/800
p4405
tp4406
a(S'1:10:02'
p4407
VC(80,1)*.1*.99
p4408
tp4409
a(S'1:10:09'
p4410
VC(80,1)*.1*.9
p4411
tp4412
a(S'1:10:20'
p4413
VC(80,1)*.1*.9/100
p4414
tp4415
a(S'1:10:32'
p4416
VC(80,1)
p4417
tp4418
a(S'1:11:32'
p4419
VC(80,1)*.1*(80^.1)
p4420
tp4421
a(S'1:11:46'
p4422
VC(80,1)*.1*(80*.1)
p4423
tp4424
a(S'1:11:56'
p4425
V8/80
p4426
tp4427
a(S'1 day, 3:05:49'
p4428
VC(800,1)*.1*.99
p4429
tp4430
a(S'1 day, 3:05:56'
p4431
VC(800,1)*.1*.9
p4432
tp4433
a(S'1 day, 3:06:04'
p4434
V1/C(800,1)*.1*.9
p4435
tp4436
a(S'1 day, 3:06:32'
p4437
VC(800,1)*.1*.9^720
p4438
tp4439
assVk5law
p4440
(dp4441
S'part2_correct_attempt'
p4442
(lp4443
S'1:43:05'
p4444
aV(120!/(1!119!))*((1/1200)^1)*((1-1/1200)^(120-1))
p4445
asg9
g1724
sS'part2_incorrect_attempt'
p4446
(lp4447
(S'0:17:13'
p4448
V[10!/(1!9!)]*[.1^(1)]*[(1-.1)^(10-1)]
p4449
tp4450
a(S'1:34:39'
p4451
VC(5,3)
p4452
tp4453
assVs2chaudh
p4454
(dp4455
S'part2_correct_attempt'
p4456
(lp4457
S'1 day, 2:21:20'
p4458
aVC(80,2)* ( (1/800)^2) * ( (1-1/800)^(80-2) )
p4459
asg9
V2015-11-05 03:32:09
p4460
sS'part2_incorrect_attempt'
p4461
(lp4462
(S'0:06:01'
p4463
V1/100
p4464
tp4465
a(S'0:06:47'
p4466
VC(80,2)
p4467
tp4468
a(S'0:07:35'
p4469
VC(80,2)*(1-.1)^82
p4470
tp4471
assVjmiclat
p4472
(dp4473
S'part2_correct_attempt'
p4474
(lp4475
S'0:08:49'
p4476
aV(100*99*98/(3*2))*(1/1000)^3*(1-(1/1000))^97
p4477
asg9
V2015-11-06 09:18:57
p4478
sS'part2_incorrect_attempt'
p4479
(lp4480
(S'0:02:46'
p4481
V(100*99*98/3*2)*(100/1000)^3*(1-(100/1000)^97)
p4482
tp4483
assVgsrandha
p4484
(dp4485
S'part2_correct_attempt'
p4486
(lp4487
S'9:19:03'
p4488
aV0.00448362768959885
p4489
asg9
g1760
sS'part2_incorrect_attempt'
p4490
(lp4491
(S'-1 day, 23:59:50'
p4492
V1/900
p4493
tp4494
a(S'0:00:00'
p4495
V1/900 * 90
p4496
tp4497
a(S'0:00:48'
p4498
Ve^(1/900) * (e^90/90!)
p4499
tp4500
a(S'5:53:20'
p4501
V(e^-.1) * ((.1)^2/2)
p4502
tp4503
a(S'5:54:42'
p4504
V(e^-.1) 
p4505
tp4506
a(S'6:01:25'
p4507
V0.044285440151
p4508
tp4509
a(S'6:03:09'
p4510
V0.003766546653378966
p4511
tp4512
a(S'6:09:11'
p4513
V0.1937102445
p4514
tp4515
a(S'6:13:34'
p4516
V0.165386343289122
p4517
tp4518
assVbmilton
p4519
(dp4520
S'part2_correct_attempt'
p4521
(lp4522
S'2 days, 2:55:34'
p4523
aVC(90,2) * (1/900)^2 * (899/900)^88
p4524
asg9
g1772
sS'part2_incorrect_attempt'
p4525
(lp4526
(S'0:02:36'
p4527
V(e^-.1)*(.1^2/2!)
p4528
tp4529
a(S'0:03:54'
p4530
VC(90,2)*(1/900)
p4531
tp4532
a(S'0:04:52'
p4533
VC(90,2)*(1/900)*82*899/900
p4534
tp4535
a(S'0:05:01'
p4536
VC(90,2)*(1/900)*82*(899/900)
p4537
tp4538
a(S'0:05:28'
p4539
V(1/900)^2
p4540
tp4541
assVjhc010
p4542
(dp4543
S'part2_correct_attempt'
p4544
(lp4545
S'0:07:11'
p4546
aVC(120,3)*(0.00083333333)^3*(1-0.00083333333)^117
p4547
asg9
V2015-11-06 10:18:44
p4548
sS'part2_incorrect_attempt'
p4549
(lp4550
(S'0:02:54'
p4551
V1/30
p4552
tp4553
a(S'0:04:11'
p4554
V0.00015
p4555
tp4556
a(S'0:04:19'
p4557
V0.000150806
p4558
tp4559
a(S'0:04:24'
p4560
V0.0001
p4561
tp4562
a(S'0:04:28'
p4563
V0.0002
p4564
tp4565
a(S'0:04:34'
p4566
V0.0001508
p4567
tp4568
assVcfgutier
p4569
(dp4570
S'part2_correct_attempt'
p4571
(lp4572
S'0:36:48'
p4573
aVC(90,3)((1/900)^3)* ((1-(1/900))^87)
p4574
asg9
g1784
sS'part2_incorrect_attempt'
p4575
(lp4576
(S'0:35:56'
p4577
VC(90,3)
p4578
tp4579
assVdkostins
p4580
(dp4581
S'part2_correct_attempt'
p4582
(lp4583
S'0:17:54'
p4584
aV80!/(2!(80-2)!)*(1/800)^2*(1-1/800)^(80-2)
p4585
asg9
g1811
sS'part2_incorrect_attempt'
p4586
(lp4587
(S'0:11:06'
p4588
V800!
p4589
tp4590
a(S'0:16:20'
p4591
V80!/(2!(80-2)!)
p4592
tp4593
a(S'0:16:52'
p4594
V80!/(2!(80-2)!)*(1/800)^2
p4595
tp4596
assVagarango
p4597
(dp4598
S'part2_correct_attempt'
p4599
(lp4600
S'13:21:59'
p4601
aV82160*{(1/800)^3}*((799/800)^(80-3))
p4602
asg9
g1841
sS'part2_incorrect_attempt'
p4603
(lp4604
(S'0:02:55'
p4605
V1/30
p4606
tp4607
a(S'0:03:39'
p4608
V(1/10)^3
p4609
tp4610
a(S'0:06:23'
p4611
V82160*(1/10)
p4612
tp4613
a(S'0:06:35'
p4614
V82160*(1/10)^3
p4615
tp4616
assVtwsalim
p4617
(dp4618
S'part2_correct_attempt'
p4619
(lp4620
S'0:18:19'
p4621
aVP(100,1)*(1/1000)*(1-1/1000)^99
p4622
asg9
V2015-11-04 02:50:59
p4623
sS'part2_incorrect_attempt'
p4624
(lp4625
(S'0:00:00'
p4626
Ve^(-0.1)(0.1)
p4627
tp4628
a(S'0:13:27'
p4629
V.0004
p4630
tp4631
a(S'0:13:38'
p4632
V.3697
p4633
tp4634
assVachinn
p4635
(dp4636
S'part2_correct_attempt'
p4637
(lp4638
S'2:29:53'
p4639
aVC(80,2)*((1/800)^2)*((799/800)^78)
p4640
asg9
V2015-11-03 20:51:03
p4641
sS'part2_incorrect_attempt'
p4642
(lp4643
(S'0:04:09'
p4644
V1/100
p4645
tp4646
a(S'0:14:30'
p4647
VC(10,2)*(0.1^2)*(0.9^8)
p4648
tp4649
assVjap009
p4650
(dp4651
S'part2_correct_attempt'
p4652
(lp4653
S'0:15:29'
p4654
aVC(110,1)*((1/1100)^1)*((1-1/1100)^109)
p4655
asg9
V2015-11-05 18:26:43
p4656
sS'part2_incorrect_attempt'
p4657
(lp4658
(S'0:04:49'
p4659
VC(110,110)
p4660
tp4661
a(S'0:05:27'
p4662
V(.1^110)(.9^0)
p4663
tp4664
a(S'0:08:16'
p4665
VC(110,1)
p4666
tp4667
a(S'0:10:02'
p4668
V(.1^1)
p4669
tp4670
assVjdeon
p4671
(dp4672
S'part2_correct_attempt'
p4673
(lp4674
S'0:16:21'
p4675
aVC(120,3)*((.1/120)^3)*(1-.1/120)^117
p4676
asg9
g1895
sS'part2_incorrect_attempt'
p4677
(lp4678
(S'0:04:07'
p4679
V.000000004
p4680
tp4681
a(S'0:11:54'
p4682
V5.249*10^-10
p4683
tp4684
a(S'0:13:04'
p4685
V.1/120
p4686
tp4687
a(S'0:14:18'
p4688
V(.1/120)^3
p4689
tp4690
assVmcatozzi
p4691
(dp4692
S'part2_correct_attempt'
p4693
(lp4694
S'0:37:46'
p4695
aV(C(100,2)*((.001^2)*((999/1000)^98)))
p4696
asg9
g1907
sS'part2_incorrect_attempt'
p4697
(lp4698
(S'0:08:49'
p4699
VC(1000,2)*((.1^2)*(.9^998))
p4700
tp4701
a(S'0:14:05'
p4702
VC(100,2)*((.1^2)*(.9^98))
p4703
tp4704
a(S'0:18:43'
p4705
V1-(C(100,2)*((.1^2)*(.9^98)))
p4706
tp4707
a(S'0:37:30'
p4708
V(C(100,20)*((.001^2)*((999/1000)^98)))
p4709
tp4710
assVaurodrig
p4711
(dp4712
S'part2_correct_attempt'
p4713
(lp4714
S'16:36:34'
p4715
aVC(90,2)*(1/900)^2*(1-(1/900))^(90-2)
p4716
asg9
g1223
sS'part2_incorrect_attempt'
p4717
(lp4718
(S'-1 day, 23:54:52'
p4719
V1/900*2
p4720
tp4721
a(S'0:00:24'
p4722
V90/900*2
p4723
tp4724
a(S'16:29:25'
p4725
VC(900,2)
p4726
tp4727
a(S'16:29:47'
p4728
VC(90,2)
p4729
tp4730
assVacs008
p4731
(dp4732
S'part2_correct_attempt'
p4733
(lp4734
S'0:15:02'
p4735
aV215820*(1/1100)^3*(1099/1100)^107
p4736
asg9
g1946
sS'part2_incorrect_attempt'
p4737
(lp4738
(S'0:10:01'
p4739
V221228700*(1/110)^3*(109/110)^(1100-3)
p4740
tp4741
assVdpereira
p4742
(dp4743
S'part2_correct_attempt'
p4744
(lp4745
S'0:04:44'
p4746
aVC(120,1) * (1/1200) * (1199/1200)^119
p4747
asg9
V2015-10-30 21:37:06
p4748
sS'part2_incorrect_attempt'
p4749
(lp4750
(S'0:01:43'
p4751
V.1
p4752
tp4753
assVhmshah
p4754
(dp4755
S'part2_correct_attempt'
p4756
(lp4757
S'1 day, 12:49:29'
p4758
aVC(100,2)(.001)^2(1-.001)^98
p4759
asg9
V2015-11-05 09:28:50
p4760
sS'part2_incorrect_attempt'
p4761
(lp4762
(S'0:01:25'
p4763
V(e ^-.1 *(.1)^2)/2!
p4764
tp4765
a(S'0:03:22'
p4766
V.0045
p4767
tp4768
a(S'1:07:36'
p4769
V0.00162319659868591
p4770
tp4771
a(S'18:43:37'
p4772
V0.0016232
p4773
tp4774
a(S'1 day, 12:42:54'
p4775
VC(100,1)(.1)(1-.1)^99
p4776
tp4777
assVhaliew
p4778
(dp4779
S'part2_correct_attempt'
p4780
(lp4781
S'0:18:34'
p4782
aVC(90,1)(1/900)(1-(1/900))^89
p4783
asg9
V2015-11-06 23:15:46
p4784
sS'part2_incorrect_attempt'
p4785
(lp4786
(S'-1 day, 23:27:03'
p4787
VC(90,90)(1/900)^90
p4788
tp4789
assVlahawkin
p4790
(dp4791
S'part2_correct_attempt'
p4792
(lp4793
S'0:10:40'
p4794
aV(100!/(98!*2!))((1/1000)^2)((1-(1/1000))^(100-2))
p4795
asg9
g1970
sS'part2_incorrect_attempt'
p4796
(lp4797
(S'23:17:31'
p4798
V(100!/(98!*2!))(1/10)^2(1-.1)(98)
p4799
tp4800
assVw4shin
p4801
(dp4802
S'part2_correct_attempt'
p4803
(lp4804
S'0:09:05'
p4805
aVC(90,1)*(1/900)*(899/900)^(90-1)
p4806
asg9
V2015-11-06 22:25:45
p4807
sS'part2_incorrect_attempt'
p4808
(lp4809
(S'-1 day, 23:59:54'
p4810
Ve^(-1/900)*((1/900))
p4811
tp4812
a(S'0:00:07'
p4813
Ve^(-90/900)*((90/900))
p4814
tp4815
a(S'0:05:47'
p4816
V1/900
p4817
tp4818
assVz2tan
p4819
(dp4820
S'part2_correct_attempt'
p4821
(lp4822
S'0:06:32'
p4823
aVC(80,3)*(1/800)^3*(799/800)^77
p4824
asg9
V2015-11-02 05:09:15
p4825
sS'part2_incorrect_attempt'
p4826
(lp4827
(S'0:00:54'
p4828
Ve^(-0.1)*0.1^3/3!
p4829
tp4830
a(S'0:01:25'
p4831
Ve^(-0.1)*(0.1^3)/3!
p4832
tp4833
a(S'0:01:40'
p4834
V0.001
p4835
tp4836
a(S'0:02:17'
p4837
Ve^(-0.1)*(0.1^3)/3!
p4838
tp4839
assVkquong
p4840
(dp4841
S'part2_correct_attempt'
p4842
(lp4843
S'3:53:06'
p4844
aV(110!/(3!*(110-3)!))((1/1100)^3)*((1-1/1100)^(110-3) )
p4845
asg9
V2015-11-02 00:08:11
p4846
sS'part2_incorrect_attempt'
p4847
(lp4848
(S'3:20:15'
p4849
V3/10
p4850
tp4851
a(S'3:40:39'
p4852
V(e^(-1/10) * (1/10)^3)/3!
p4853
tp4854
assVkgrozav
p4855
(dp4856
S'part2_correct_attempt'
p4857
(lp4858
S'0:40:54'
p4859
aV1.4674467*10^-4
p4860
asg9
V2015-11-05 06:54:27
p4861
sS'part2_incorrect_attempt'
p4862
(lp4863
(S'0:01:24'
p4864
V3/10
p4865
tp4866
a(S'0:25:12'
p4867
V0.0058916025
p4868
tp4869
a(S'0:26:18'
p4870
V0.000058916025
p4871
tp4872
a(S'0:26:24'
p4873
V0.58916025
p4874
tp4875
a(S'0:39:31'
p4876
V1.5080623* 10^-4
p4877
tp4878
assVxweng
p4879
(dp4880
S'part2_correct_attempt'
p4881
(lp4882
S'0:29:33'
p4883
aVC(120,1)*(1/1200)^1*(1199/1200)^119
p4884
asg9
g2033
sS'part2_incorrect_attempt'
p4885
(lp4886
(S'-1 day, 23:59:44'
p4887
V1/1200
p4888
tp4889
a(S'0:00:44'
p4890
Ve^-0.1*0.1^1/1
p4891
tp4892
a(S'0:02:52'
p4893
V.0004
p4894
tp4895
a(S'0:03:00'
p4896
V.0005
p4897
tp4898
a(S'0:03:13'
p4899
V0.0905
p4900
tp4901
a(S'0:03:41'
p4902
V0.3679
p4903
tp4904
a(S'0:04:47'
p4905
V0.3697
p4906
tp4907
a(S'0:08:19'
p4908
V C(120,1)0.1*0.9^119
p4909
tp4910
a(S'0:09:38'
p4911
V0.0905
p4912
tp4913
a(S'0:12:40'
p4914
VC(120,1)0.9*0.1^119
p4915
tp4916
a(S'0:13:16'
p4917
VC(120,119)0.9*0.1^119
p4918
tp4919
a(S'0:13:42'
p4920
V0.1
p4921
tp4922
a(S'0:13:49'
p4923
V0.9
p4924
tp4925
a(S'0:15:20'
p4926
VC(120,1)0.1^119/1200
p4927
tp4928
a(S'0:29:16'
p4929
VC(120,1)0.1^119/1200C(120,1)*(1/1200)^1*(1199/1200)^119
p4930
tp4931
assVyypan
p4932
(dp4933
S'part2_correct_attempt'
p4934
(lp4935
S'0:12:17'
p4936
aVC(110,1)*(1/1100)*(1099/1100)^109
p4937
asg9
V2015-11-02 23:56:35
p4938
sS'part2_incorrect_attempt'
p4939
(lp4940
(S'0:07:55'
p4941
V(1/1100)^110
p4942
tp4943
a(S'0:09:49'
p4944
V(1-1/1100)^110
p4945
tp4946
assVajvanega
p4947
(dp4948
S'part2_correct_attempt'
p4949
(lp4950
S'2:04:12'
p4951
aVC(110,3)(1-(1/1100))^(107)*(1/1100)^3
p4952
asg9
g2063
sS'part2_incorrect_attempt'
p4953
(lp4954
(S'1:55:22'
p4955
VC(120,3)*(1-(.1))^(107)*(.1)^2
p4956
tp4957
a(S'1:55:35'
p4958
V(1-(.1))^(107)*(.1)^2
p4959
tp4960
a(S'1:55:59'
p4961
VC(110,3)(1-(.1))^(107)*(.1)^2
p4962
tp4963
a(S'1:57:02'
p4964
VC(110,3)(1-(.1))^(107)*(.1)^3
p4965
tp4966
assVmtrafeca
p4967
(dp4968
S'part2_correct_attempt'
p4969
(lp4970
S'0:42:46'
p4971
aVC(90,1)((1/900)^1)*(899/900)^89
p4972
asg9
V2015-11-02 01:02:47
p4973
sS'part2_incorrect_attempt'
p4974
(lp4975
(S'0:09:05'
p4976
V0.0904837
p4977
tp4978
a(S'0:09:16'
p4979
V.010
p4980
tp4981
a(S'0:13:44'
p4982
V.011
p4983
tp4984
a(S'0:21:41'
p4985
VC(90,1)*(.1^89)*.9^1
p4986
tp4987
a(S'0:22:57'
p4988
VC(90,1)*(.1^90)*.9^0
p4989
tp4990
a(S'0:24:33'
p4991
VC(90,1)(.1^1)*.9^89
p4992
tp4993
a(S'0:31:35'
p4994
VC(900,1)(.1^1)*.9^899
p4995
tp4996
a(S'0:32:10'
p4997
VC(90,1)(.9^1)*.1^89
p4998
tp4999
a(S'0:33:47'
p5000
VC(90,1)((1/900)^1)*(899)^89
p5001
tp5002
a(S'0:42:12'
p5003
VC(90,1)((1/900)^1)*(1/899)^89
p5004
tp5005
assVmjethani
p5006
(dp5007
S'part2_correct_attempt'
p5008
(lp5009
S'0:01:38'
p5010
aVC(90,1)*((1-(1/900))^(90-1))(1/900)^1
p5011
asg9
g2105
sS'part2_incorrect_attempt'
p5012
(lp5013
(S'0:01:24'
p5014
VC(90,1)*((1-(1/900))^(90-1))(1/900)^3
p5015
tp5016
assVsyc078
p5017
(dp5018
S'part2_correct_attempt'
p5019
(lp5020
S'0:16:57'
p5021
aVC(80, 3)*(1-(1/800))^(80-3)((1/800)^3)
p5022
asg9
g1418
sS'part2_incorrect_attempt'
p5023
(lp5024
(S'0:07:32'
p5025
VC(80, 3)*(1-0.1)^(80-2)
p5026
tp5027
assVj2phung
p5028
(dp5029
S'part2_correct_attempt'
p5030
(lp5031
S'3:50:27'
p5032
aV(9900/2)*(1/1000)^(2)*(1-(1/1000))^(98)
p5033
asg9
V2015-11-03 19:35:26
p5034
sS'part2_incorrect_attempt'
p5035
(lp5036
(S'0:01:53'
p5037
V(100/1000)2
p5038
tp5039
a(S'0:02:45'
p5040
V2/100
p5041
tp5042
asss.