(dp0
V1
p1
(dp2
Vgthorn
p3
(dp4
S'part1_correct_attempt'
p5
(lp6
S'10:44:44'
p7
aVe^(-11/7)
p8
asS'first_attempt'
p9
V2015-11-05 07:43:20
p10
sS'part1_incorrect_attempt'
p11
(lp12
(S'0:00:00'
p13
V(1/7)*e^(-(1/7 * 11))
p14
tp15
a(S'0:00:00'
p16
V1-e^(-11/7)
p17
tp18
assVphodgson
p19
(dp20
g9
V2015-11-07 01:00:47
p21
sS'part1_incorrect_attempt'
p22
(lp23
(S'0:00:00'
p24
V(1/6.5)e^(-12/6.5)
p25
tp26
assVv4zhang
p27
(dp28
S'part1_correct_attempt'
p29
(lp30
S'21:34:16'
p31
aV1-(1-e^(-11/7))
p32
asg9
V2015-11-05 08:52:27
p33
sS'part1_incorrect_attempt'
p34
(lp35
(S'0:00:00'
p36
V(e^-7)[(7^11)/7!]
p37
tp38
a(S'0:09:16'
p39
V7/11
p40
tp41
a(S'0:19:37'
p42
V1/11
p43
tp44
a(S'0:22:37'
p45
V1-(e^(-11/7))
p46
tp47
a(S'0:22:43'
p48
V1-(e^(-7/11))
p49
tp50
a(S'0:23:13'
p51
V1-(e^(-11/7))
p52
tp53
a(S'0:24:11'
p54
V1-(e^(-7*11))
p55
tp56
a(S'0:26:01'
p57
V1-(e^(-(1/7)*11))
p58
tp59
a(S'0:35:13'
p60
V1-[e^(-77)]
p61
tp62
a(S'0:00:00'
p63
V1-[e^(-11*4)]
p64
tp65
a(S'0:00:00'
p66
V1-e^(-7*11)
p67
tp68
a(S'0:00:59'
p69
V1-e^(-7*4)
p70
tp71
assVkbielawi
p72
(dp73
S'part1_correct_attempt'
p74
(lp75
S'0:02:43'
p76
aVe^(-0.2*9)
p77
asg9
V2015-11-03 20:50:10
p78
sS'part1_incorrect_attempt'
p79
(lp80
(S'0:00:00'
p81
V2/5
p82
tp83
a(S'0:00:11'
p84
V5/9
p85
tp86
assVjguanzho
p87
(dp88
S'part1_correct_attempt'
p89
(lp90
S'1 day, 18:46:53'
p91
aVe**-(9/5)
p92
asg9
V2015-11-04 03:57:30
p93
sS'part1_incorrect_attempt'
p94
(lp95
(S'0:00:00'
p96
Ve**(-5)*5**9 / 9!
p97
tp98
a(S'0:00:00'
p99
V5*e**(-5*9)
p100
tp101
a(S'0:00:05'
p102
V5*e**(-5*4)
p103
tp104
a(S'0:01:16'
p105
V5*e**(-9)
p106
tp107
a(S'0:02:24'
p108
V5**9*e**5/9!
p109
tp110
a(S'0:02:32'
p111
V5**4*e**5/4!
p112
tp113
a(S'0:00:00'
p114
V1-5*e**-(9*5)
p115
tp116
a(S'0:00:00'
p117
V5*e**-45
p118
tp119
a(S'0:00:36'
p120
V(1/5)*e**-(1/45)
p121
tp122
a(S'0:00:45'
p123
V1-(1/5)*e**-(1/45)
p124
tp125
a(S'0:01:01'
p126
V(1/5)*e**-(1/9)
p127
tp128
a(S'0:01:05'
p129
V(1/5)*e**-(1/20)
p130
tp131
a(S'0:07:10'
p132
V(1/5)*e**-(9/5)
p133
tp134
a(S'0:00:00'
p135
V(1/5)*e**-(5/9)
p136
tp137
a(S'0:00:00'
p138
V100*e**-(1/45)
p139
tp140
a(S'0:00:00'
p141
V.2/e**(1/45)
p142
tp143
a(S'0:00:14'
p144
V.2/e**(9/5)
p145
tp146
a(S'0:00:25'
p147
V.2/e**(5/9)
p148
tp149
a(S'0:00:32'
p150
V.2/e**(45)
p151
tp152
assValakamsa
p153
(dp154
S'part1_correct_attempt'
p155
(lp156
S'0:00:32'
p157
aV1- (1- e^((-1/6.5)*10))
p158
asg9
V2015-11-02 17:10:32
p159
sS'part1_incorrect_attempt'
p160
(lp161
(S'0:00:00'
p162
V(1/6.5)e^((1/6.5)*10)
p163
tp164
a(S'0:00:23'
p165
V1- e^((-1/6.5)*10)
p166
tp167
assVdcgriffi
p168
(dp169
S'part1_correct_attempt'
p170
(lp171
S'0:03:21'
p172
aVe^(-9/7)
p173
asg9
V2015-11-06 23:40:18
p174
sS'part1_incorrect_attempt'
p175
(lp176
(S'0:00:00'
p177
V1-e^(-7*9)
p178
tp179
a(S'0:02:31'
p180
V1-e^(-9/7)
p181
tp182
assVjjm019
p183
(dp184
S'part1_correct_attempt'
p185
(lp186
S'0:01:11'
p187
aVe^(-10/5.5)
p188
asg9
V2015-11-04 23:19:02
p189
sS'part1_incorrect_attempt'
p190
(lp191
(S'0:00:00'
p192
V1 - e^(-10/5.5)
p193
tp194
assVmhale
p195
(dp196
S'part1_correct_attempt'
p197
(lp198
S'0:14:32'
p199
aV[e^(-1/6 * 11)]
p200
asg9
V2015-11-05 19:24:48
p201
sS'part1_incorrect_attempt'
p202
(lp203
(S'0:00:00'
p204
Ve^(-6) * (6)^11 / 39916800
p205
tp206
a(S'0:01:55'
p207
V1 - e^(-6 * 11)
p208
tp209
a(S'0:02:07'
p210
V1 - e^(-0.6 * 11)
p211
tp212
a(S'0:03:17'
p213
V1 - e^(-6 * 11)
p214
tp215
a(S'0:03:30'
p216
V11e^(-6 * 11)
p217
tp218
a(S'0:00:00'
p219
V1 - [e^(-1/6 * 11)]
p220
tp221
assVcfgutier
p222
(dp223
S'part1_correct_attempt'
p224
(lp225
S'6:24:48'
p226
aVe^(-11/5.5)
p227
asg9
V2015-11-06 01:31:52
p228
sS'part1_incorrect_attempt'
p229
(lp230
(S'0:00:00'
p231
V0.01426
p232
tp233
a(S'0:01:29'
p234
V0.010988
p235
tp236
a(S'0:00:00'
p237
V.9999
p238
tp239
assVctgraves
p240
(dp241
S'part1_correct_attempt'
p242
(lp243
S'0:04:45'
p244
aV1-(1-(e^(-1/6*10)))
p245
asg9
V2015-11-03 04:59:15
p246
sS'part1_incorrect_attempt'
p247
(lp248
(S'0:00:00'
p249
V6*e^(-6*10)
p250
tp251
a(S'0:01:15'
p252
V1/6*(e^-1/6*10)
p253
tp254
a(S'0:01:28'
p255
V1/6*(e^(-1/6*10))
p256
tp257
assVjmiclat
p258
(dp259
S'part1_correct_attempt'
p260
(lp261
S'0:28:32'
p262
aV1-[1-[e^-(10/6.5)]]
p263
asg9
V2015-11-06 08:48:12
p264
sS'part1_incorrect_attempt'
p265
(lp266
(S'0:00:00'
p267
V1/6.5
p268
tp269
a(S'0:00:17'
p270
V10/6.5
p271
tp272
a(S'0:26:05'
p273
V1-6.5/10
p274
tp275
a(S'0:26:35'
p276
V1/6.5*e^-(10/6.5)
p277
tp278
a(S'0:27:12'
p279
V1-[1/6.5*e^-(10/6.5)]
p280
tp281
a(S'0:28:15'
p282
V1-[e^-(10/6.5)]
p283
tp284
assVv3doan
p285
(dp286
S'part1_correct_attempt'
p287
(lp288
S'0:01:35'
p289
aVe^(-10/6)
p290
asg9
V2015-11-07 00:00:21
p291
sS'part1_incorrect_attempt'
p292
(lp293
(S'0:00:00'
p294
V1 - e^(-6/10)
p295
tp296
a(S'0:00:15'
p297
V(1 - e^(-10/10))/(1 - e^(-6/10))
p298
tp299
a(S'0:00:26'
p300
V(1 - e^(-6/10))/(1 - e^(-10/10))
p301
tp302
a(S'0:00:44'
p303
V(1 - e^(-10/6))
p304
tp305
assVj5phung
p306
(dp307
S'part1_correct_attempt'
p308
(lp309
S'0:02:09'
p310
aVe^-(12*(1/6))
p311
asg9
V2015-11-03 17:13:01
p312
sS'part1_incorrect_attempt'
p313
(lp314
(S'0:00:00'
p315
V1-e^-(6/12)
p316
tp317
assVjyc018
p318
(dp319
S'part1_correct_attempt'
p320
(lp321
S'0:09:41'
p322
aVe^(-10/6.5)
p323
asg9
V2015-11-01 01:02:52
p324
sS'part1_incorrect_attempt'
p325
(lp326
(S'0:00:00'
p327
V6.5^3.5*e^-6.5/6
p328
tp329
a(S'0:04:20'
p330
V1 - e^(-6.5/10)
p331
tp332
a(S'0:04:28'
p333
V1 - e^(-10/6.5)
p334
tp335
a(S'0:07:20'
p336
V( 1 - e^(-10/6.5))*100
p337
tp338
a(S'0:07:47'
p339
V1 - e^(-10/6.5)
p340
tp341
a(S'0:08:07'
p342
V1 - e^(-10*6.5)
p343
tp344
assVvqt004
p345
(dp346
S'part1_correct_attempt'
p347
(lp348
S'1 day, 7:09:26'
p349
aVe^(-9*0.2)
p350
asg9
V2015-11-01 20:24:49
p351
sS'part1_incorrect_attempt'
p352
(lp353
(S'0:00:00'
p354
V1-e^(-5/9)
p355
tp356
a(S'0:00:10'
p357
V1-e^(-9/5)
p358
tp359
a(S'0:00:00'
p360
V(1-e^(-9/5))*100
p361
tp362
assVr9jiang
p363
(dp364
S'part1_correct_attempt'
p365
(lp366
S'0:02:23'
p367
aV0.2077
p368
asg9
V2015-11-02 01:43:00
p369
sS'part1_incorrect_attempt'
p370
(lp371
(S'0:00:00'
p372
V0.5647
p373
tp374
assVrlhagen
p375
(dp376
S'part1_correct_attempt'
p377
(lp378
S'0:02:40'
p379
aVe^(-1/6.5*9)
p380
asg9
V2015-10-31 16:59:59
p381
sS'part1_incorrect_attempt'
p382
(lp383
(S'0:00:00'
p384
V6.5/9
p385
tp386
assVbtn023
p387
(dp388
S'part1_correct_attempt'
p389
(lp390
S'7:55:20'
p391
aVe^(-(9/6))
p392
asg9
V2015-11-06 10:29:53
p393
sS'part1_incorrect_attempt'
p394
(lp395
(S'0:00:00'
p396
Ve^(-6)*(6^9)/9!
p397
tp398
a(S'0:00:25'
p399
V1-e^(-6)*(6^9)/9!
p400
tp401
a(S'0:02:45'
p402
V1-e^(-6)*(6^9)/9!-e^(-6)*(6^8)/8! - e^(-6)*(6^7)/7! - e^(-6)*(6^6)/6! - e^(-6)*(6^5)/5! - e^(-6)*(6^4)/4! - e^(-6)*(6^3)/3! - e^(-6)*(6^2)/2!- e^(-6)*(6^1)/1!-e^(-6)*(6^0)/0!
p403
tp404
assVdgunawan
p405
(dp406
S'part1_correct_attempt'
p407
(lp408
S'2:24:59'
p409
aV1/e^(11/6)
p410
asg9
V2015-11-05 07:08:43
p411
sS'part1_incorrect_attempt'
p412
(lp413
(S'0:00:00'
p414
V1-(1/e^(11/6))
p415
tp416
a(S'0:03:02'
p417
V[1-(1/e^(11/6))] * 100
p418
tp419
a(S'0:03:12'
p420
V[1-(1/e^(11/6))]
p421
tp422
a(S'0:00:00'
p423
V1/[1-(1/e^(11/6))]
p424
tp425
a(S'0:00:11'
p426
V[1-(1/e^(11/6))]/100
p427
tp428
a(S'0:02:31'
p429
V[1-(1/e^(11*6))]/100
p430
tp431
a(S'0:02:37'
p432
V[1-(1/e^(11*6))]
p433
tp434
a(S'0:02:51'
p435
V[1-(1/e^(5))]
p436
tp437
a(S'0:00:00'
p438
V[1-(1/e^(11))]
p439
tp440
a(S'0:00:34'
p441
V[1-(1/e^(11/6))]
p442
tp443
assVssamudra
p444
(dp445
S'part1_correct_attempt'
p446
(lp447
S'0:16:37'
p448
aV0.2504
p449
asg9
V2015-11-05 05:57:05
p450
sS'part1_incorrect_attempt'
p451
(lp452
(S'0:00:00'
p453
V0.999
p454
tp455
a(S'0:00:44'
p456
V0.1226
p457
tp458
a(S'0:01:34'
p459
V0.877384
p460
tp461
a(S'0:01:45'
p462
V0.1226159
p463
tp464
a(S'0:00:00'
p465
V0.1128
p466
tp467
assVmpanelo
p468
(dp469
S'part1_correct_attempt'
p470
(lp471
S'0:03:48'
p472
aVe^(-11/6.5)
p473
asg9
V2015-11-03 23:43:32
p474
sS'part1_incorrect_attempt'
p475
(lp476
(S'0:00:00'
p477
V6.5/e^-(6.5*11)
p478
tp479
assVaggouw
p480
(dp481
S'part1_correct_attempt'
p482
(lp483
S'0:01:35'
p484
aVe^(-10*(1/6))
p485
asg9
V2015-11-04 09:05:34
p486
sS'part1_incorrect_attempt'
p487
(lp488
(S'0:00:00'
p489
V1 - e^(-10/6)
p490
tp491
a(S'0:01:20'
p492
V1 - e^(-10/(1/6))
p493
tp494
assVtcn013
p495
(dp496
S'part1_correct_attempt'
p497
(lp498
S'0:04:43'
p499
aVe^(-9*(1/5.5))
p500
asg9
V2015-11-04 01:45:53
p501
sS'part1_incorrect_attempt'
p502
(lp503
(S'0:00:00'
p504
V1 - e^(-5.5 * 9)
p505
tp506
assVtcuddy
p507
(dp508
S'part1_correct_attempt'
p509
(lp510
S'0:23:56'
p511
aVe**(-9/5.5)
p512
asg9
V2015-11-01 18:44:29
p513
sS'part1_incorrect_attempt'
p514
(lp515
(S'0:00:00'
p516
V5.5(9)/(e**5.5)
p517
tp518
a(S'0:06:27'
p519
V5.5(e**(5.5(9)))
p520
tp521
a(S'0:06:39'
p522
V5.5(e**(-5.5(9)))
p523
tp524
a(S'0:09:18'
p525
V5.5(e**((1/5.5)(9)))
p526
tp527
a(S'0:10:12'
p528
V5.5(60)(e**((1/(60*5.5)(9*60))))
p529
tp530
a(S'0:12:09'
p531
V5.5e**(9/5.5)
p532
tp533
a(S'0:15:34'
p534
V1-e**(-9/5.5)
p535
tp536
assVl8ngo
p537
(dp538
S'part1_correct_attempt'
p539
(lp540
S'4:24:54'
p541
aVe^[(-[1/6.5])*11]
p542
asg9
V2015-11-03 19:49:12
p543
sS'part1_incorrect_attempt'
p544
(lp545
(S'0:00:00'
p546
V6.5*11
p547
tp548
a(S'0:00:00'
p549
V1-e^[(-6.5)*11]
p550
tp551
assVdjk006
p552
(dp553
S'part1_correct_attempt'
p554
(lp555
S'0:03:15'
p556
aV1-(1-e^((-1/7)(10)))
p557
asg9
V2015-11-03 21:23:45
p558
sS'part1_incorrect_attempt'
p559
(lp560
(S'0:00:00'
p561
V1-e^(-7(10))
p562
tp563
a(S'0:00:14'
p564
V1-e^((-1/7)(10))
p565
tp566
assVdando
p567
(dp568
S'part1_correct_attempt'
p569
(lp570
S'3 days, 7:16:23'
p571
aVe^(-10/7)
p572
asg9
V2015-11-03 17:19:00
p573
sS'part1_incorrect_attempt'
p574
(lp575
(S'0:00:00'
p576
Ve^(-7) * ((7^3)/3!)
p577
tp578
a(S'0:00:39'
p579
Ve^(-7) * ((7^10)/10!)
p580
tp581
a(S'0:01:02'
p582
Ve^(-10) * ((10^7)/7!)
p583
tp584
a(S'0:01:35'
p585
V1 - e^(-7 * 10)
p586
tp587
a(S'0:02:11'
p588
V1 - (e^(-7) * ((7^10)/10!))
p589
tp590
a(S'0:02:25'
p591
V1 - (e^(-7) * ((7^3)/3!))
p592
tp593
a(S'0:00:00'
p594
V1 - e^(-1 * 3)
p595
tp596
a(S'0:00:18'
p597
V1 - e^(-1 * 3)
p598
tp599
a(S'0:00:00'
p600
V1 - e^((-1/7)10)
p601
tp602
a(S'0:00:52'
p603
V1 - e^(-10/7)
p604
tp605
assVdsriniva
p606
(dp607
S'part1_correct_attempt'
p608
(lp609
S'2:59:51'
p610
aVe^(-1/5.5*12)
p611
asg9
V2015-11-05 17:09:32
p612
sS'part1_incorrect_attempt'
p613
(lp614
(S'0:00:00'
p615
V1-e^(-5.5*12)
p616
tp617
assVchc286
p618
(dp619
S'part1_correct_attempt'
p620
(lp621
S'0:19:19'
p622
aV1-(1-e^(-10/5.5))
p623
asg9
V2015-11-01 00:51:01
p624
sS'part1_incorrect_attempt'
p625
(lp626
(S'0:00:00'
p627
V1-((1/5.5)*e^(-10/5.5))
p628
tp629
a(S'0:00:23'
p630
V(1/5.5)*e^(-10/5.5)
p631
tp632
a(S'0:05:52'
p633
V(e^(-5.5))*((5.5^10)/10!)
p634
tp635
a(S'0:06:38'
p636
V100*(e^(-5.5))*((5.5^10)/10!)
p637
tp638
a(S'0:07:17'
p639
V(1/5.5)*e^(-10/5.5)
p640
tp641
a(S'0:07:20'
p642
V100*(e^(-5.5))*((5.5^10)/10!)
p643
tp644
a(S'0:07:39'
p645
V0.0295128*100
p646
tp647
a(S'0:10:00'
p648
V(1/5.5)*e^(-10/5.5)
p649
tp650
assVsayao
p651
(dp652
S'part1_correct_attempt'
p653
(lp654
S'0:01:34'
p655
aVe^(-12*(1/6.5))
p656
asg9
V2015-11-04 01:10:36
p657
sS'part1_incorrect_attempt'
p658
(lp659
(S'0:00:00'
p660
V1-e^(-12/6.5)
p661
tp662
a(S'0:01:16'
p663
V1-e^(-12*(1/6.5))
p664
tp665
assVanvan
p666
(dp667
S'part1_correct_attempt'
p668
(lp669
S'1 day, 7:42:21'
p670
aVe^(-12 * (1/7) )
p671
asg9
V2015-11-05 08:11:20
p672
sS'part1_incorrect_attempt'
p673
(lp674
(S'0:00:00'
p675
V(e^-7)(7^11) / 11!
p676
tp677
a(S'0:00:00'
p678
V(e^-7)(7^12) / 12! - (e^-7)(7^11) / 11! - (e^-7)(7^10) / 10! - (e^-7)(7^9) / 9! - (e^-7)(7^8) / 8! - (e^-7)(7^7) / 7! - (e^-7)(7^6) / 6! - (e^-7)(7^5) / 5! - (e^-7)(7^4) / 4! - (e^-7)(7^3) / 3! - (e^-7)(7^2) / 2! - (e^-7)(7^1) / 1! - (e^-7)(7^0) / 0!
p679
tp680
a(S'0:00:00'
p681
V(e^-7)(7^12) / 12!
p682
tp683
a(S'0:06:30'
p684
V1 - [(e^-7)(7^12)] / 12!
p685
tp686
a(S'0:08:51'
p687
V1 - e^(-12 * 1/6)
p688
tp689
a(S'0:09:10'
p690
V1 - e^(-12 * (1/6) )
p691
tp692
a(S'0:09:19'
p693
V1 - e^(-12 * (1/7) )
p694
tp695
assVasp025
p696
(dp697
S'part1_correct_attempt'
p698
(lp699
S'0:05:11'
p700
aVe^(-10*1/6)
p701
asg9
V2015-11-06 19:12:54
p702
sS'part1_incorrect_attempt'
p703
(lp704
(S'0:00:00'
p705
V1-e^(-10/6)
p706
tp707
a(S'0:00:45'
p708
V81.11
p709
tp710
a(S'0:03:13'
p711
V1-e^(-10*6)
p712
tp713
a(S'0:00:00'
p714
V1-e^(-10*1/6)
p715
tp716
assVclao
p717
(dp718
S'part1_correct_attempt'
p719
(lp720
S'0:19:12'
p721
aVe^(-9/7)
p722
asg9
V2015-11-04 03:28:31
p723
sS'part1_incorrect_attempt'
p724
(lp725
(S'0:00:00'
p726
V1-e^(-9/7)
p727
tp728
assVflhernan
p729
(dp730
S'part1_correct_attempt'
p731
(lp732
S'0:09:55'
p733
aVe^(-12/6)
p734
asg9
V2015-11-03 18:25:13
p735
sS'part1_incorrect_attempt'
p736
(lp737
(S'0:00:00'
p738
Ve^(-6)/e^(-12)
p739
tp740
a(S'0:01:29'
p741
V1-(e^-6 *6^12/12!)
p742
tp743
a(S'0:07:38'
p744
Ve^(-6 )/ e^(12)
p745
tp746
a(S'0:07:41'
p747
Ve^(-6 )/ e^(-12)
p748
tp749
a(S'0:07:52'
p750
Ve^(-12)/e^(-6 )
p751
tp752
a(S'0:08:22'
p753
V1-(e^-6 *6^12/12!)
p754
tp755
assVc1wei
p756
(dp757
S'part1_correct_attempt'
p758
(lp759
S'0:02:03'
p760
aV1-(1-e^(-11*0.2))
p761
asg9
V2015-11-04 06:31:27
p762
sS'part1_incorrect_attempt'
p763
(lp764
(S'0:00:00'
p765
V1-(1-(e^(-5*11)))
p766
tp767
a(S'0:00:09'
p768
V(1-(e^(-5*11)))
p769
tp770
a(S'0:00:18'
p771
V1-(1-(e^(-5*10)))
p772
tp773
a(S'0:00:50'
p774
V(1-(e^(-5*10)))
p775
tp776
a(S'0:00:56'
p777
V(1-(e^(-5*11)))
p778
tp779
a(S'0:01:01'
p780
V1-(1-(e^(-5*11)))
p781
tp782
a(S'0:01:53'
p783
V1-e^(-10*0.2)
p784
tp785
assVmasaro
p786
(dp787
S'part1_correct_attempt'
p788
(lp789
S'0:00:09'
p790
aVe^(-9/5.5)
p791
asg9
V2015-11-02 00:44:19
p792
sS'part1_incorrect_attempt'
p793
(lp794
(S'0:00:00'
p795
V1-e^(-9/5.5)
p796
tp797
assVmitopete
p798
(dp799
S'part1_correct_attempt'
p800
(lp801
S'0:06:21'
p802
aVe^(-11/7)
p803
asg9
V2015-11-04 04:09:03
p804
sS'part1_incorrect_attempt'
p805
(lp806
(S'0:00:00'
p807
V1-e^(-12/7)
p808
tp809
a(S'0:03:38'
p810
V1-e^(-11/7)
p811
tp812
assVstarinia
p813
(dp814
S'part1_correct_attempt'
p815
(lp816
S'0:01:46'
p817
aVe^(-12/5.5)
p818
asg9
V2015-11-04 02:59:29
p819
sS'part1_incorrect_attempt'
p820
(lp821
(S'0:00:00'
p822
V1 - e^(-12/5.5)
p823
tp824
a(S'0:01:07'
p825
V(1 - e^(-12))/5.5
p826
tp827
assVm4salaza
p828
(dp829
S'part1_correct_attempt'
p830
(lp831
S'0:01:47'
p832
aVe^(-(1/5.5)*9)
p833
asg9
V2015-11-04 04:44:22
p834
sS'part1_incorrect_attempt'
p835
(lp836
(S'0:00:00'
p837
Ve^(-(1/5.5))*((1/5.5)^3/(9!))
p838
tp839
a(S'0:00:12'
p840
Ve^(-(1/5.5))*((1/5.5)^9/(9!))
p841
tp842
a(S'0:00:28'
p843
Ve^(-(5.5))*((5.5)^9/(9!))
p844
tp845
assVyos017
p846
(dp847
S'part1_correct_attempt'
p848
(lp849
S'0:09:30'
p850
aVe^(-1* (1/7) * 12)
p851
asg9
V2015-11-06 11:31:14
p852
sS'part1_incorrect_attempt'
p853
(lp854
(S'0:00:00'
p855
V5/7
p856
tp857
a(S'0:02:38'
p858
V1/7 * e^(-1* 1/7 * 12)
p859
tp860
a(S'0:03:28'
p861
V1/7 * e^(-1* (1/7) * 12)
p862
tp863
a(S'0:04:37'
p864
V1 - [1/7 * e^(-1* (1/7) * 12)]
p865
tp866
a(S'0:08:08'
p867
V[7 * e^(-1* (7) * 12)]
p868
tp869
a(S'0:09:09'
p870
V1 - e^(-1* (1/7) * 12)
p871
tp872
assVm8woo
p873
(dp874
S'part1_correct_attempt'
p875
(lp876
S'0:01:39'
p877
aVe^(-12/6.5)
p878
asg9
V2015-11-05 20:33:24
p879
sS'part1_incorrect_attempt'
p880
(lp881
(S'0:00:00'
p882
V1-e^(12*-6.5)
p883
tp884
a(S'0:00:09'
p885
V1-e^(12*-1/6.5)
p886
tp887
assVggaddi
p888
(dp889
S'part1_correct_attempt'
p890
(lp891
S'3 days, 23:23:37'
p892
aVe^(-11/5.5)
p893
asg9
V2015-11-01 19:49:09
p894
sS'part1_incorrect_attempt'
p895
(lp896
(S'0:00:00'
p897
V1/2
p898
tp899
a(S'0:00:11'
p900
V1/4
p901
tp902
a(S'0:05:13'
p903
V1/8
p904
tp905
a(S'0:05:19'
p906
V1/16
p907
tp908
assVjhp077
p909
(dp910
S'part1_correct_attempt'
p911
(lp912
S'0:07:24'
p913
aVe^(-2)
p914
asg9
V2015-11-05 12:35:40
p915
sS'part1_incorrect_attempt'
p916
(lp917
(S'0:00:00'
p918
V1-e^(-72)
p919
tp920
assVjit002
p921
(dp922
S'part1_correct_attempt'
p923
(lp924
S'0:07:44'
p925
aV1-(1-e^(-11/6.5))
p926
asg9
V2015-11-05 03:05:48
p927
sS'part1_incorrect_attempt'
p928
(lp929
(S'0:00:00'
p930
V1-e^(-6.5*11)
p931
tp932
a(S'0:06:48'
p933
V1-(1-e^(-6.5*11))
p934
tp935
assVdruble
p936
(dp937
S'part1_correct_attempt'
p938
(lp939
S'19:28:40'
p940
aVe^(-10/7)
p941
asg9
V2015-11-04 04:20:04
p942
sS'part1_incorrect_attempt'
p943
(lp944
(S'0:00:00'
p945
V1 - (1 - e^(-7*11))
p946
tp947
a(S'0:00:00'
p948
V(1 - e^(-7*11))
p949
tp950
a(S'0:03:26'
p951
V(1/7) * e^(-(1/7)*10)
p952
tp953
a(S'0:00:00'
p954
V7 * e^(-7*10)
p955
tp956
a(S'0:06:28'
p957
V(1/7) * e^((1/7)*10)
p958
tp959
a(S'0:07:43'
p960
V(1/7) * e^(-(1/7)*10)
p961
tp962
a(S'0:08:04'
p963
V1 - ((1/7) * e^(-(1/7)*10))
p964
tp965
a(S'0:09:24'
p966
V1-e^(-(1/7)*10)
p967
tp968
a(S'0:11:08'
p969
Ve^(-(1/7)) * ((1/7)^10) / 10!
p970
tp971
a(S'0:12:18'
p972
V1 - (1 - e^(-(1/7)*11))
p973
tp974
a(S'0:12:43'
p975
V(1 - e^(-(1/7)*11))
p976
tp977
a(S'0:13:40'
p978
V1 - (1 - e^(-(1/7)*11))
p979
tp980
a(S'0:00:00'
p981
V7 /10
p982
tp983
a(S'0:02:34'
p984
V1/7
p985
tp986
a(S'0:05:16'
p987
V(1/7) * e^(-(1/7)*10)
p988
tp989
a(S'0:05:40'
p990
V100 * (1/7) * e^(-(1/7)*10)
p991
tp992
a(S'0:05:54'
p993
V10 * (1/7) * e^(-(1/7)*10)
p994
tp995
a(S'0:06:11'
p996
V1- (1/7) * e^(-(1/7)*10)
p997
tp998
a(S'0:07:29'
p999
V(1/7) * e^(-(1/7)*11)
p1000
tp1001
a(S'0:10:24'
p1002
V1 - e^(-10/7)
p1003
tp1004
a(S'0:11:13'
p1005
V1 - e^(-11/7)
p1006
tp1007
assVh4tu
p1008
(dp1009
S'part1_correct_attempt'
p1010
(lp1011
S'0:01:19'
p1012
aVe^(-2)
p1013
asg9
V2015-11-05 05:18:40
p1014
sS'part1_incorrect_attempt'
p1015
(lp1016
(S'0:00:00'
p1017
Ve^(-2)*2
p1018
tp1019
a(S'0:00:24'
p1020
V0.5
p1021
tp1022
assVjag028
p1023
(dp1024
S'part1_correct_attempt'
p1025
(lp1026
S'0:36:47'
p1027
aVe^((-1/6)*10)
p1028
asg9
V2015-11-02 20:54:24
p1029
sS'part1_incorrect_attempt'
p1030
(lp1031
(S'0:00:00'
p1032
V1-e^(-6*10)
p1033
tp1034
a(S'0:00:33'
p1035
V1-([e^(-6*10)]/(10!))
p1036
tp1037
a(S'0:04:32'
p1038
V1-([e^(-6)6^10]/(10!))
p1039
tp1040
a(S'0:04:43'
p1041
V([e^(-6)6^10]/(10!))
p1042
tp1043
assVccn001
p1044
(dp1045
S'part1_correct_attempt'
p1046
(lp1047
S'1 day, 3:35:58'
p1048
aV1-(1-e^((-1/6)(10)))
p1049
asg9
V2015-11-05 17:57:57
p1050
sS'part1_incorrect_attempt'
p1051
(lp1052
(S'0:00:00'
p1053
Ve^(-6)((6^10)/(10!))
p1054
tp1055
a(S'0:06:36'
p1056
V(e^(-6*10))/(e^(-6*6))
p1057
tp1058
a(S'0:00:00'
p1059
V(10e^(-6*10))/(6e^(-6*6))
p1060
tp1061
a(S'0:00:20'
p1062
V(6e^(-6*10))
p1063
tp1064
a(S'0:01:03'
p1065
V((1/6)e^(-(1/6)*10))
p1066
tp1067
a(S'0:00:00'
p1068
V1-(1-e^((1/6)(10)))
p1069
tp1070
assVlguintu
p1071
(dp1072
S'part1_correct_attempt'
p1073
(lp1074
S'0:01:07'
p1075
aV(e^-(9/6))
p1076
asg9
V2015-11-03 04:11:46
p1077
sS'part1_incorrect_attempt'
p1078
(lp1079
(S'0:00:00'
p1080
V1-(e^-6*(1+6+6/2!+6/3!+6/4!+6/5!+6/6!+6/7!+6/8!+6/9!))
p1081
tp1082
a(S'0:01:00'
p1083
V1-(e^-(9/6))
p1084
tp1085
assVc1sorian
p1086
(dp1087
S'part1_correct_attempt'
p1088
(lp1089
S'0:04:54'
p1090
aVe^(-11/5)
p1091
asg9
V2015-11-04 22:29:23
p1092
sS'part1_incorrect_attempt'
p1093
(lp1094
(S'0:00:00'
p1095
V1-(1-(e^(-5*11)))
p1096
tp1097
a(S'0:02:16'
p1098
V(e^-5)((5^11)/(11!))
p1099
tp1100
assVatorr
p1101
(dp1102
S'part1_correct_attempt'
p1103
(lp1104
S'0:51:18'
p1105
aVe^(-9/5.5)
p1106
asg9
V2015-11-05 19:36:55
p1107
sS'part1_incorrect_attempt'
p1108
(lp1109
(S'0:00:00'
p1110
V1 - e^(-5.5 * 9)
p1111
tp1112
a(S'0:01:20'
p1113
V(e^-5.5) * [(5.5^9)/9!]
p1114
tp1115
a(S'0:00:00'
p1116
V1 - e^(-5.5 * 9)
p1117
tp1118
a(S'0:00:00'
p1119
V1 - e^(-9/5.5)
p1120
tp1121
a(S'0:00:15'
p1122
V1 - e^(-9 * 5.5)
p1123
tp1124
a(S'0:00:43'
p1125
V1 - e^(-12/5.5)
p1126
tp1127
a(S'0:01:24'
p1128
V1 - e^(-5.5/12)
p1129
tp1130
a(S'0:01:55'
p1131
V1 - e^(-9/5.5)
p1132
tp1133
a(S'0:02:01'
p1134
V1 - e^(-9 * 5.5)
p1135
tp1136
assVcprafull
p1137
(dp1138
S'part1_correct_attempt'
p1139
(lp1140
S'0:00:34'
p1141
aV1 - (1 - e^(-12/5.5))
p1142
asg9
V2015-11-04 02:51:51
p1143
sS'part1_incorrect_attempt'
p1144
(lp1145
(S'0:00:00'
p1146
V1 - e^(-12/5.5)
p1147
tp1148
assVsachadal
p1149
(dp1150
S'part1_correct_attempt'
p1151
(lp1152
S'0:20:21'
p1153
aVe^(-(10)/5)
p1154
asg9
V2015-11-05 19:03:20
p1155
sS'part1_incorrect_attempt'
p1156
(lp1157
(S'0:00:00'
p1158
Ve^(-5)((5^10)/10!)
p1159
tp1160
a(S'0:00:42'
p1161
Ve^(-1/5)(((1/5)^10)/10!)
p1162
tp1163
a(S'0:00:00'
p1164
Ve^(-5)*((5^10)/(10!))
p1165
tp1166
a(S'0:04:01'
p1167
Ve^(-5)((5^10)/10!)
p1168
tp1169
a(S'0:05:54'
p1170
Ve^(-1/5)(((1/5)^10)/10!)
p1171
tp1172
a(S'0:07:23'
p1173
V(1/5)e^(-(1/5)*10)
p1174
tp1175
a(S'0:07:45'
p1176
V(5)e^(-(5)*10)
p1177
tp1178
a(S'0:08:13'
p1179
V1-e^(-(1/5)*10)
p1180
tp1181
a(S'0:08:21'
p1182
V1-e^(-(5)*10)
p1183
tp1184
a(S'0:11:46'
p1185
V1-e^(-(10)/5)
p1186
tp1187
assVkrau
p1188
(dp1189
S'part1_correct_attempt'
p1190
(lp1191
S'0:00:57'
p1192
aV(e^(-12/5.5))
p1193
asg9
V2015-11-04 20:39:44
p1194
sS'part1_incorrect_attempt'
p1195
(lp1196
(S'0:00:00'
p1197
V1-(e^((-5.5/12)*9))
p1198
tp1199
a(S'0:00:50'
p1200
V1-(e^(-12/5.5))
p1201
tp1202
assVkthui
p1203
(dp1204
S'part1_correct_attempt'
p1205
(lp1206
S'0:18:49'
p1207
aV1-(1-e^(-(1/5.5)*10))
p1208
asg9
V2015-11-06 01:16:21
p1209
sS'part1_incorrect_attempt'
p1210
(lp1211
(S'0:00:00'
p1212
V5.5e^(-5.5*10)
p1213
tp1214
a(S'0:08:58'
p1215
V(1/5.5)e^(-(1/5.5)*10)
p1216
tp1217
a(S'0:09:11'
p1218
V(1/5.5)e^(-(1/5.5)*(1/10))
p1219
tp1220
a(S'0:09:41'
p1221
V1/5.5
p1222
tp1223
a(S'0:15:11'
p1224
V5.5e^(-5.5*10)
p1225
tp1226
a(S'0:15:18'
p1227
V1-e^(-5.5*10)
p1228
tp1229
a(S'0:00:00'
p1230
V1-e^(-(1/5.5)*10)
p1231
tp1232
assVcrmirand
p1233
(dp1234
S'part1_correct_attempt'
p1235
(lp1236
S'0:07:05'
p1237
aVe^(1/-5.5*11)
p1238
asg9
V2015-11-03 04:56:11
p1239
sS'part1_incorrect_attempt'
p1240
(lp1241
(S'0:00:00'
p1242
V5.5e^(-5.5*11)
p1243
tp1244
a(S'0:02:55'
p1245
V5.5*e^(-5.5*11)
p1246
tp1247
a(S'0:00:00'
p1248
V1/5.5*e^(1/-5.5*11)
p1249
tp1250
a(S'0:01:57'
p1251
V1-1/5.5*e^(1/-5.5*11)
p1252
tp1253
a(S'0:02:19'
p1254
V1-e^(1/-5.5*11)
p1255
tp1256
assVbeyounge
p1257
(dp1258
S'part1_correct_attempt'
p1259
(lp1260
S'0:03:38'
p1261
aVe ^ (-12/7)
p1262
asg9
V2015-10-30 23:30:48
p1263
sS'part1_incorrect_attempt'
p1264
(lp1265
(S'0:00:00'
p1266
V(e^(7)) / (e^(12))
p1267
tp1268
a(S'0:00:41'
p1269
V(e^(12 * -0.5)) / (e^(7 * -0.5))
p1270
tp1271
a(S'0:01:05'
p1272
V(e^(12 * -0.5)) / (e^(7 * -0.5)) / 2
p1273
tp1274
assVl5han
p1275
(dp1276
S'part1_correct_attempt'
p1277
(lp1278
S'15:13:25'
p1279
aVe^(-(1/5.5)*11)
p1280
asg9
V2015-11-06 06:50:40
p1281
sS'part1_incorrect_attempt'
p1282
(lp1283
(S'0:00:00'
p1284
V1-e^(-11/5.5)
p1285
tp1286
assVjic212
p1287
(dp1288
S'part1_correct_attempt'
p1289
(lp1290
S'0:00:12'
p1291
aVe^((-1/7)*9)
p1292
asg9
V2015-11-06 23:03:55
p1293
sS'part1_incorrect_attempt'
p1294
(lp1295
(S'0:00:00'
p1296
Ve^(-1/7)*9
p1297
tp1298
assVtpmach
p1299
(dp1300
S'part1_correct_attempt'
p1301
(lp1302
S'1 day, 2:39:26'
p1303
aVe^((-1/5.5)*9)
p1304
asg9
V2015-11-04 23:30:27
p1305
sS'part1_incorrect_attempt'
p1306
(lp1307
(S'0:00:00'
p1308
V5.5/9
p1309
tp1310
a(S'0:00:10'
p1311
V9/5.5
p1312
tp1313
a(S'0:01:01'
p1314
V5.5*e^(-5.5*9)
p1315
tp1316
a(S'0:00:00'
p1317
Ve^(-5.5/60)*(5.5/60)^9/(9!)
p1318
tp1319
a(S'0:00:56'
p1320
Ve^(-5.5)*(5.5)^9/(9!)
p1321
tp1322
a(S'0:01:03'
p1323
V1-e^(-5.5)*(5.5)^9/(9!)
p1324
tp1325
a(S'0:02:21'
p1326
Ve^(-5.5)*(5.5)^9/(9!)
p1327
tp1328
a(S'0:02:35'
p1329
Ve^(-5.5/9)*(5.5/9)^9/(9!)
p1330
tp1331
a(S'0:03:10'
p1332
Ve^(-9/5.5)*(9/5.5)^9/(9!)
p1333
tp1334
a(S'0:03:17'
p1335
V1-e^(-9/5.5)*(9/5.5)^9/(9!)
p1336
tp1337
a(S'0:00:00'
p1338
Ve^(-60*5.5)*(60*5.5)^9/(9!)
p1339
tp1340
a(S'0:03:04'
p1341
V(60*5.5)e^(-60*5.5*9)
p1342
tp1343
a(S'0:04:17'
p1344
V(5.5/60)e^((-5.5/60)*9)
p1345
tp1346
a(S'0:00:00'
p1347
V(1/5.5)e^((-1/5)*9)
p1348
tp1349
a(S'0:00:10'
p1350
V(1/5.5)e^((-1/5.5)*9)
p1351
tp1352
assVhak014
p1353
(dp1354
S'part1_correct_attempt'
p1355
(lp1356
S'0:02:54'
p1357
aVe^(-10/5.5)
p1358
asg9
V2015-11-04 23:32:41
p1359
sS'part1_incorrect_attempt'
p1360
(lp1361
(S'0:00:00'
p1362
V1-e^(-10/5.5)
p1363
tp1364
a(S'0:00:17'
p1365
V1-e^(-10*5.5)
p1366
tp1367
assVdwzhang
p1368
(dp1369
S'part1_correct_attempt'
p1370
(lp1371
S'2 days, 0:41:06'
p1372
aVe^(-9/6)
p1373
asg9
V2015-11-04 20:42:23
p1374
sS'part1_incorrect_attempt'
p1375
(lp1376
(S'0:00:00'
p1377
V1 - e^(-9/6)
p1378
tp1379
assVrraiyyan
p1380
(dp1381
S'part1_correct_attempt'
p1382
(lp1383
S'0:02:51'
p1384
aVe^(-0.2*10)
p1385
asg9
V2015-11-06 20:54:28
p1386
sS'part1_incorrect_attempt'
p1387
(lp1388
(S'0:00:00'
p1389
V1 - e^(-5 * 10)
p1390
tp1391
a(S'0:00:43'
p1392
Ve^(-5) * (5^10)/10!
p1393
tp1394
a(S'0:02:05'
p1395
Ve^(-0.2) * (0.2^10)/10!
p1396
tp1397
assVjhw015
p1398
(dp1399
S'part1_correct_attempt'
p1400
(lp1401
S'0:01:07'
p1402
aV(e ^(-9/7))
p1403
asg9
V2015-11-04 02:14:04
p1404
sS'part1_incorrect_attempt'
p1405
(lp1406
(S'0:00:00'
p1407
V1 - e ^ (-9/7)
p1408
tp1409
a(S'0:00:34'
p1410
V1 - (e ^(-9/7))
p1411
tp1412
assVt1tran
p1413
(dp1414
S'part1_correct_attempt'
p1415
(lp1416
S'0:04:59'
p1417
aV1-(1-e^(-9/6))
p1418
asg9
V2015-10-31 05:05:06
p1419
sS'part1_incorrect_attempt'
p1420
(lp1421
(S'0:00:00'
p1422
V(1-(1-e^(-0.3*6)))/(1-(1-e^(-0.3*9)))
p1423
tp1424
a(S'0:01:19'
p1425
V6/9
p1426
tp1427
a(S'0:03:29'
p1428
V1-e^(-6/9)
p1429
tp1430
a(S'0:03:36'
p1431
V1-e^(-9/6)
p1432
tp1433
assVdsmonaha
p1434
(dp1435
S'part1_correct_attempt'
p1436
(lp1437
S'0:02:46'
p1438
aVe^(-11/6.5)
p1439
asg9
V2015-11-02 16:11:52
p1440
sS'part1_incorrect_attempt'
p1441
(lp1442
(S'0:00:00'
p1443
V1-e^(-11/6.5)
p1444
tp1445
assVthwan
p1446
(dp1447
S'part1_correct_attempt'
p1448
(lp1449
S'0:06:58'
p1450
aVe^(-9/6.5)
p1451
asg9
V2015-11-06 19:10:45
p1452
sS'part1_incorrect_attempt'
p1453
(lp1454
(S'0:00:00'
p1455
V1-e^(-6.5*9)
p1456
tp1457
a(S'0:00:00'
p1458
V1-(1-e^(-6.5*9))
p1459
tp1460
assVz3meng
p1461
(dp1462
S'part1_correct_attempt'
p1463
(lp1464
S'9:54:56'
p1465
aVe^(-1/5.5*10)
p1466
asg9
V2015-11-05 07:05:46
p1467
sS'part1_incorrect_attempt'
p1468
(lp1469
(S'0:00:00'
p1470
V5.5*e^(-55)
p1471
tp1472
a(S'0:00:04'
p1473
V1-5.5*e^(-55)
p1474
tp1475
a(S'0:00:11'
p1476
V5.5*e^(-55)
p1477
tp1478
a(S'0:01:04'
p1479
Ve^(-5.5)*5.5^10/(10!)
p1480
tp1481
assVkrkelkar
p1482
(dp1483
S'part1_correct_attempt'
p1484
(lp1485
S'0:06:48'
p1486
aVe^(-11/6.5)
p1487
asg9
V2015-10-31 19:46:50
p1488
sS'part1_incorrect_attempt'
p1489
(lp1490
(S'0:00:00'
p1491
V1-e^(-6.5 * 11)
p1492
tp1493
a(S'0:00:07'
p1494
V1-e^(-6.5 * 10)
p1495
tp1496
a(S'0:00:51'
p1497
V1 - (1-e^(-6.5 * 11))
p1498
tp1499
assVakalathi
p1500
(dp1501
S'part1_correct_attempt'
p1502
(lp1503
S'1 day, 17:00:04'
p1504
aV(e^(-10/7))
p1505
asg9
V2015-11-04 05:56:06
p1506
sS'part1_incorrect_attempt'
p1507
(lp1508
(S'0:00:00'
p1509
V1 -(e^(-10 * (1/7)))
p1510
tp1511
a(S'0:00:07'
p1512
V1 -(e^(-10 * (7)))
p1513
tp1514
a(S'0:00:00'
p1515
V1 -(e^(-10/7))
p1516
tp1517
assVkosung
p1518
(dp1519
S'part1_correct_attempt'
p1520
(lp1521
S'15:43:54'
p1522
aVe^(-1/5.5*12)
p1523
asg9
V2015-11-05 07:23:52
p1524
sS'part1_incorrect_attempt'
p1525
(lp1526
(S'0:00:00'
p1527
V0.004
p1528
tp1529
a(S'0:00:00'
p1530
V2.17*10^-29
p1531
tp1532
a(S'0:00:00'
p1533
V1.5
p1534
tp1535
a(S'0:00:13'
p1536
V11.28
p1537
tp1538
assVetemlock
p1539
(dp1540
S'part1_correct_attempt'
p1541
(lp1542
S'0:13:53'
p1543
aVe^(-0.2*12)
p1544
asg9
V2015-11-02 21:31:32
p1545
sS'part1_incorrect_attempt'
p1546
(lp1547
(S'0:00:00'
p1548
V5e^(-5*12)
p1549
tp1550
a(S'0:01:36'
p1551
V0.2e^(-0.2*12)
p1552
tp1553
a(S'0:13:29'
p1554
V0.2e^(-0.2*12)
p1555
tp1556
assVakg009
p1557
(dp1558
S'part1_correct_attempt'
p1559
(lp1560
S'3:24:05'
p1561
aVe^(-11/7)
p1562
asg9
V2015-11-06 18:18:25
p1563
sS'part1_incorrect_attempt'
p1564
(lp1565
(S'0:00:00'
p1566
V4/11
p1567
tp1568
a(S'0:00:10'
p1569
V4/7
p1570
tp1571
a(S'0:00:00'
p1572
V7/44
p1573
tp1574
a(S'0:04:41'
p1575
V4/77
p1576
tp1577
a(S'0:00:00'
p1578
V1/e^(4/7)
p1579
tp1580
a(S'0:00:00'
p1581
V1-e^(-77)
p1582
tp1583
assVmuy002
p1584
(dp1585
S'part1_correct_attempt'
p1586
(lp1587
S'0:00:48'
p1588
aVe^(-9*0.2)
p1589
asg9
V2015-11-06 05:41:56
p1590
sS'part1_incorrect_attempt'
p1591
(lp1592
(S'0:00:00'
p1593
V1-e^(-9/5)
p1594
tp1595
assVjtfrankl
p1596
(dp1597
S'part1_correct_attempt'
p1598
(lp1599
S'0:00:33'
p1600
aVe^(-10 / 7)
p1601
asg9
V2015-11-06 18:06:27
p1602
sS'part1_incorrect_attempt'
p1603
(lp1604
(S'0:00:00'
p1605
V1 - e^(-7 * 10)
p1606
tp1607
assVdan029
p1608
(dp1609
S'part1_correct_attempt'
p1610
(lp1611
S'1 day, 8:20:10'
p1612
aVe^-2
p1613
asg9
V2015-11-04 02:27:11
p1614
sS'part1_incorrect_attempt'
p1615
(lp1616
(S'0:00:00'
p1617
V1/12
p1618
tp1619
a(S'0:03:07'
p1620
V1/720
p1621
tp1622
a(S'0:03:18'
p1623
V1/360
p1624
tp1625
a(S'0:06:53'
p1626
V1-e^-(2/360)
p1627
tp1628
a(S'0:10:44'
p1629
V1/360/2
p1630
tp1631
a(S'0:11:05'
p1632
V1/360/720
p1633
tp1634
assVeshung
p1635
(dp1636
S'part1_correct_attempt'
p1637
(lp1638
S'0:08:17'
p1639
aVe^(-3/2)
p1640
asg9
V2015-11-05 22:40:02
p1641
sS'part1_incorrect_attempt'
p1642
(lp1643
(S'0:00:00'
p1644
V(1/6)*e^(-3/2)
p1645
tp1646
assVv4sharma
p1647
(dp1648
S'part1_correct_attempt'
p1649
(lp1650
S'3 days, 3:39:45'
p1651
aVe^(-9/5)
p1652
asg9
V2015-10-31 22:49:18
p1653
sS'part1_incorrect_attempt'
p1654
(lp1655
(S'0:00:00'
p1656
V1 - e^(-1 * 5 * 9)
p1657
tp1658
a(S'0:00:00'
p1659
V1/e^(45)
p1660
tp1661
a(S'0:00:00'
p1662
V1 - 1/e^45
p1663
tp1664
a(S'0:04:55'
p1665
V1 - e^(-9/5)
p1666
tp1667
a(S'0:05:16'
p1668
V83.4701
p1669
tp1670
assVralhadda
p1671
(dp1672
S'part1_correct_attempt'
p1673
(lp1674
S'0:01:58'
p1675
aVe^(-12/7)
p1676
asg9
V2015-10-31 19:39:14
p1677
sS'part1_incorrect_attempt'
p1678
(lp1679
(S'0:00:00'
p1680
V1-e^(-7*12)
p1681
tp1682
a(S'0:00:08'
p1683
V1-e^(-7/12)
p1684
tp1685
a(S'0:00:19'
p1686
V1-e^(-12/7)
p1687
tp1688
a(S'0:00:31'
p1689
V1-e^(-12*7)
p1690
tp1691
a(S'0:01:23'
p1692
V1-e^(-12/7)
p1693
tp1694
assVyjshin
p1695
(dp1696
S'part1_correct_attempt'
p1697
(lp1698
S'0:02:01'
p1699
aVe^(-11/5)
p1700
asg9
V2015-11-06 06:58:19
p1701
sS'part1_incorrect_attempt'
p1702
(lp1703
(S'0:00:00'
p1704
V1-e^(-11/5)
p1705
tp1706
assVrohan
p1707
(dp1708
S'part1_correct_attempt'
p1709
(lp1710
S'0:03:39'
p1711
aVe^((-1/5)*11)
p1712
asg9
V2015-11-06 22:48:39
p1713
sS'part1_incorrect_attempt'
p1714
(lp1715
(S'0:00:00'
p1716
Ve^(-1/11)/e^(-1/5)
p1717
tp1718
a(S'0:00:09'
p1719
Ve^(-1/5)/e^(-1/11)
p1720
tp1721
a(S'0:03:11'
p1722
V1-e^((-1/5)*11)
p1723
tp1724
a(S'0:03:19'
p1725
V1-e^((-1/11)*5)
p1726
tp1727
assVbkoli
p1728
(dp1729
S'part1_correct_attempt'
p1730
(lp1731
S'0:06:14'
p1732
aVe^(-9*0.2)
p1733
asg9
V2015-11-05 19:52:30
p1734
sS'part1_incorrect_attempt'
p1735
(lp1736
(S'0:00:00'
p1737
V1 - e^(-9/5)
p1738
tp1739
a(S'0:01:01'
p1740
V1 - e^(-5 * 9)
p1741
tp1742
assVhsc052
p1743
(dp1744
S'part1_correct_attempt'
p1745
(lp1746
S'1 day, 10:49:09'
p1747
aVe^((1/-7)*11)
p1748
asg9
V2015-11-05 08:05:18
p1749
sS'part1_incorrect_attempt'
p1750
(lp1751
(S'0:00:00'
p1752
V7*e^(-7*11)
p1753
tp1754
a(S'0:00:00'
p1755
V3.625140919*10^(-34)
p1756
tp1757
a(S'0:00:59'
p1758
V1/e^(-7*11)
p1759
tp1760
a(S'0:00:00'
p1761
V1/7
p1762
tp1763
a(S'0:00:05'
p1764
V1/7^2
p1765
tp1766
a(S'0:02:19'
p1767
V1-e^(-7*11)
p1768
tp1769
a(S'0:00:00'
p1770
V1-e^((1/-7)*11)
p1771
tp1772
assVxil109
p1773
(dp1774
S'part1_correct_attempt'
p1775
(lp1776
S'0:01:46'
p1777
aVe^(-12/5)
p1778
asg9
V2015-11-05 03:03:33
p1779
sS'part1_incorrect_attempt'
p1780
(lp1781
(S'0:00:00'
p1782
V1-e^(-12/5)
p1783
tp1784
assVdac064
p1785
(dp1786
S'part1_correct_attempt'
p1787
(lp1788
S'0:16:11'
p1789
aV1-(1-e^((-1/300) * 540))
p1790
asg9
V2015-11-05 10:33:45
p1791
sS'part1_incorrect_attempt'
p1792
(lp1793
(S'0:00:00'
p1794
V.1
p1795
tp1796
a(S'0:15:55'
p1797
V1-(1-e^((1/300) * 540))
p1798
tp1799
assVzhz159
p1800
(dp1801
S'part1_correct_attempt'
p1802
(lp1803
S'1:38:04'
p1804
aV0.239651
p1805
asg9
V2015-11-05 22:47:37
p1806
sS'part1_incorrect_attempt'
p1807
(lp1808
(S'0:00:00'
p1809
V0.0709833
p1810
tp1811
a(S'0:00:18'
p1812
V0.070983268
p1813
tp1814
assVyil035
p1815
(dp1816
S'part1_correct_attempt'
p1817
(lp1818
S'0:13:08'
p1819
aV0.1353353
p1820
asg9
V2015-11-04 20:06:12
p1821
sS'part1_incorrect_attempt'
p1822
(lp1823
(S'0:00:00'
p1824
V5.5^2/11^2
p1825
tp1826
a(S'0:00:21'
p1827
V11^2/5.5^2
p1828
tp1829
a(S'0:00:00'
p1830
V1/2
p1831
tp1832
a(S'0:06:57'
p1833
V0.8646647
p1834
tp1835
assVwmiao
p1836
(dp1837
S'part1_correct_attempt'
p1838
(lp1839
S'0:18:23'
p1840
aVe^(-12/6)
p1841
asg9
V2015-11-04 20:02:21
p1842
sS'part1_incorrect_attempt'
p1843
(lp1844
(S'0:00:00'
p1845
V0.5
p1846
tp1847
a(S'0:02:36'
p1848
V6*e^(-6*12)
p1849
tp1850
assVhaw081
p1851
(dp1852
S'part1_correct_attempt'
p1853
(lp1854
S'1 day, 20:38:33'
p1855
aVe^(-12/6)
p1856
asg9
V2015-11-01 04:08:11
p1857
sS'part1_incorrect_attempt'
p1858
(lp1859
(S'0:00:00'
p1860
V1/6(e^(-(1/6)(12)))
p1861
tp1862
a(S'0:01:45'
p1863
V1/6(e^(-(1/6))(1/6)^12/12!)
p1864
tp1865
a(S'0:02:06'
p1866
V1-(e^(-(1/6))(1/6)^12/12!)
p1867
tp1868
a(S'0:11:14'
p1869
V1-(e^(-(2))(2)^12/12!)
p1870
tp1871
a(S'0:13:12'
p1872
V1-(e^(-(6))(6)^12/12!)
p1873
tp1874
a(S'0:15:09'
p1875
V(e^(-(6))(6)^12/12!)
p1876
tp1877
a(S'0:17:05'
p1878
V(e^(-(1/6))(1/6)^1/12/(1/12!))
p1879
tp1880
a(S'0:17:17'
p1881
V(e^(-(1/6))(1/6)^(1/12)/(1/12!))
p1882
tp1883
a(S'0:00:00'
p1884
V(1-1/6)^12(1/6)
p1885
tp1886
a(S'0:00:11'
p1887
V(1-1/6)(1/6)^12
p1888
tp1889
a(S'0:01:04'
p1890
V(1-1/6)^2(1/6)
p1891
tp1892
a(S'0:00:00'
p1893
V1 - e^(-12/6)
p1894
tp1895
assVlpettit
p1896
(dp1897
S'part1_correct_attempt'
p1898
(lp1899
S'1:09:48'
p1900
aVe^(-10/6)
p1901
asg9
V2015-11-06 21:10:21
p1902
sS'part1_incorrect_attempt'
p1903
(lp1904
(S'0:00:00'
p1905
V(e^-6)(6^10)/10!
p1906
tp1907
a(S'0:00:26'
p1908
V(e^-6)(6^10)100/10!
p1909
tp1910
a(S'0:00:00'
p1911
V(e^-1/6)((1/6)^10)/10!
p1912
tp1913
a(S'0:00:26'
p1914
V(e^(-1/6))((1/6)^10)/10!
p1915
tp1916
a(S'0:04:55'
p1917
V(e^(-6))((6)^10)/10!
p1918
tp1919
a(S'0:07:11'
p1920
V1 - e^(-10/6)
p1921
tp1922
a(S'0:07:17'
p1923
V1 - e^(-11/6)
p1924
tp1925
assVb3hwang
p1926
(dp1927
S'part1_correct_attempt'
p1928
(lp1929
S'0:03:18'
p1930
aV1/e^(12/6.5)
p1931
asg9
V2015-11-05 09:32:50
p1932
sS'part1_incorrect_attempt'
p1933
(lp1934
(S'0:00:00'
p1935
V1 - e^(-12/6.5)
p1936
tp1937
a(S'0:00:00'
p1938
V1 - 1/e^(12/6.5)
p1939
tp1940
a(S'0:00:24'
p1941
V1 - 1/e^(6.5/12)
p1942
tp1943
assVlywong
p1944
(dp1945
S'part1_correct_attempt'
p1946
(lp1947
S'0:03:20'
p1948
aV1-(1-e^(-(1/7)*9))
p1949
asg9
V2015-11-04 18:38:05
p1950
sS'part1_incorrect_attempt'
p1951
(lp1952
(S'0:00:00'
p1953
V1-(1-e^(-7*9))
p1954
tp1955
assVjix029
p1956
(dp1957
S'part1_correct_attempt'
p1958
(lp1959
S'0:05:13'
p1960
aVe^(-12/5)
p1961
asg9
V2015-11-01 07:52:50
p1962
sS'part1_incorrect_attempt'
p1963
(lp1964
(S'0:00:00'
p1965
V5e^(-60)
p1966
tp1967
a(S'0:02:16'
p1968
V1/5e^(-12/5)
p1969
tp1970
assVkebao
p1971
(dp1972
S'part1_correct_attempt'
p1973
(lp1974
S'1:19:36'
p1975
aVe^(-9/6.5)
p1976
asg9
V2015-11-05 20:03:14
p1977
sS'part1_incorrect_attempt'
p1978
(lp1979
(S'0:00:00'
p1980
V0.25
p1981
tp1982
assVglcohen
p1983
(dp1984
S'part1_correct_attempt'
p1985
(lp1986
S'0:03:07'
p1987
aVe^((-1/6)*12)
p1988
asg9
V2015-11-03 16:23:49
p1989
sS'part1_incorrect_attempt'
p1990
(lp1991
(S'0:00:00'
p1992
V1-e^(-6*12)
p1993
tp1994
a(S'0:01:39'
p1995
V1-e^(-6/12)
p1996
tp1997
a(S'0:02:10'
p1998
V1-e^(-2)
p1999
tp2000
assVachava
p2001
(dp2002
S'part1_correct_attempt'
p2003
(lp2004
S'0:02:59'
p2005
aV(e^(-9/6))
p2006
asg9
V2015-11-05 23:10:33
p2007
sS'part1_incorrect_attempt'
p2008
(lp2009
(S'0:00:00'
p2010
V1-((e^-6)) * (6^9) /(9!)
p2011
tp2012
a(S'0:01:31'
p2013
V1-(e^(-9/6))
p2014
tp2015
assVthk002
p2016
(dp2017
S'part1_correct_attempt'
p2018
(lp2019
S'2 days, 9:43:09'
p2020
aVe^(-9/6.5)
p2021
asg9
V2015-11-03 09:27:42
p2022
sS'part1_incorrect_attempt'
p2023
(lp2024
(S'0:00:00'
p2025
V1 - e^(-9/6.5)
p2026
tp2027
a(S'0:42:30'
p2028
V1-e^(-0.154*9)
p2029
tp2030
a(S'0:00:00'
p2031
Ve^(-1.3846153846153846153846153846154)e^(9/6.5)
p2032
tp2033
assVpvl001
p2034
(dp2035
S'part1_correct_attempt'
p2036
(lp2037
S'0:35:53'
p2038
aVe^(-10/6)
p2039
asg9
V2015-11-02 17:51:23
p2040
sS'part1_incorrect_attempt'
p2041
(lp2042
(S'0:00:00'
p2043
Ve^(-6) * 6^10 / 10!
p2044
tp2045
a(S'0:00:15'
p2046
V1 - e^(-6) * 6^10 / 10!
p2047
tp2048
a(S'0:07:26'
p2049
V1 - e^(-10*(6/10))
p2050
tp2051
a(S'0:08:08'
p2052
V1 - e^(-10/6)
p2053
tp2054
a(S'0:10:57'
p2055
V1 - (e^(-6) * 6^10 / 10!)
p2056
tp2057
assVjcj006
p2058
(dp2059
S'part1_correct_attempt'
p2060
(lp2061
S'0:01:28'
p2062
aVe^(-.2 * 9)
p2063
asg9
V2015-11-04 04:30:26
p2064
sS'part1_incorrect_attempt'
p2065
(lp2066
(S'0:00:00'
p2067
V1 - e^(-.2 * 9)
p2068
tp2069
assVdlt009
p2070
(dp2071
S'part1_correct_attempt'
p2072
(lp2073
S'0:04:34'
p2074
aV1-[1-e^(-11/7)]
p2075
asg9
V2015-11-05 04:05:37
p2076
sS'part1_incorrect_attempt'
p2077
(lp2078
(S'0:00:00'
p2079
V1-e^(-11/7)
p2080
tp2081
a(S'0:00:35'
p2082
V1-e^(-7/11)
p2083
tp2084
assVmbl003
p2085
(dp2086
S'part1_correct_attempt'
p2087
(lp2088
S'0:01:08'
p2089
aVe^(-11/7)
p2090
asg9
V2015-11-05 20:29:15
p2091
sS'part1_incorrect_attempt'
p2092
(lp2093
(S'0:00:00'
p2094
V1-e^(-11/7)
p2095
tp2096
assVn2patil
p2097
(dp2098
S'part1_correct_attempt'
p2099
(lp2100
S'0:00:10'
p2101
aV1-(1-e^(-11/5))
p2102
asg9
V2015-11-03 06:15:06
p2103
sS'part1_incorrect_attempt'
p2104
(lp2105
(S'0:00:00'
p2106
V1-e^(-11/5)
p2107
tp2108
assVbakang
p2109
(dp2110
S'part1_correct_attempt'
p2111
(lp2112
S'1 day, 13:16:38'
p2113
aVe^((-1/5.5)*9)
p2114
asg9
V2015-11-05 07:18:44
p2115
sS'part1_incorrect_attempt'
p2116
(lp2117
(S'0:00:00'
p2118
Ve^(-5.5)*((5.5^9)/(9!))
p2119
tp2120
a(S'0:00:00'
p2121
V5.5/9
p2122
tp2123
a(S'0:00:00'
p2124
V1-(e^(-5.5)*((1+((5.5^2)/2!))+((5.5^3)/3!)))
p2125
tp2126
a(S'0:00:00'
p2127
V1-(e^(-5.5)*((1+((5.5^2)/2!))+((5.5^3)/3!)+((5.5^4)/4!)))
p2128
tp2129
a(S'0:00:21'
p2130
V1-(e^(-5.5)*((1+((5.5^2)/2!))+((5.5^3)/3!)+((5.5^4)/4!)+((5.5^5)/5!)))
p2131
tp2132
a(S'0:01:19'
p2133
V1-(e^(-5.5)*((1+((5.5^2)/2!))+((5.5^3)/3!)+((5.5^4)/4!)+((5.5^5)/5!)+((5.5^6)/6!)+((5.5^7)/7!)+((5.5^8)/8!)+((5.5^9)/9!)))
p2134
tp2135
a(S'0:00:00'
p2136
Ve^(-5.5)*((5.5^9)/(9!))
p2137
tp2138
a(S'0:00:09'
p2139
Ve^(-5.5)*((5.5^9)/(9!))*100
p2140
tp2141
a(S'0:00:44'
p2142
V5.5/9
p2143
tp2144
a(S'0:00:49'
p2145
V5.5/9*100
p2146
tp2147
a(S'0:00:00'
p2148
Ve^(-11)*(11^18/18!)
p2149
tp2150
a(S'0:00:28'
p2151
Ve^(-18)*(18^11/11!)
p2152
tp2153
a(S'0:00:00'
p2154
V1-(e^(-5.5)*((1+((5.5^2)/2!))+((5.5^3)/3!)+((5.5^4)/4!)+((5.5^5)/5!)+((5.5^6)/6!)+((5.5^7)/7!)+((5.5^8)/8!)+((5.5^9)/9!)))
p2155
tp2156
a(S'0:00:37'
p2157
V(1-(e^(-5.5)*((1+((5.5^2)/2!))+((5.5^3)/3!)+((5.5^4)/4!)+((5.5^5)/5!)+((5.5^6)/6!)+((5.5^7)/7!)+((5.5^8)/8!)+((5.5^9)/9!))))*100
p2158
tp2159
a(S'0:02:01'
p2160
V1-(e^(-5.5)*((1+5.5+((5.5^2)/2!))+((5.5^3)/3!)+((5.5^4)/4!)+((5.5^5)/5!)+((5.5^6)/6!)+((5.5^7)/7!)+((5.5^8)/8!)+((5.5^9)/9!)))
p2161
tp2162
a(S'0:05:13'
p2163
V1-(e^(-5.5)*((5.5+((5.5^2)/2!))+((5.5^3)/3!)+((5.5^4)/4!)+((5.5^5)/5!)+((5.5^6)/6!)+((5.5^7)/7!)+((5.5^8)/8!)+((5.5^9)/9!)))
p2164
tp2165
a(S'0:06:13'
p2166
V1-(e^(-5.5)*((1+5.5+((5.5^2)/2!))+((5.5^3)/3!)+((5.5^4)/4!)+((5.5^5)/5!)+((5.5^6)/6!)+((5.5^7)/7!)+((5.5^8)/8!)+((5.5^9)/9!)))
p2167
tp2168
a(S'0:00:00'
p2169
Ve^(-5.5)*(5.5^9)/(9!)
p2170
tp2171
a(S'0:01:10'
p2172
Ve^(-55)*(55^90)/(90!)
p2173
tp2174
a(S'0:00:00'
p2175
V1-(e^(-5.5)*((5.5^9)/(9!)))
p2176
tp2177
a(S'0:01:56'
p2178
Ve^(-5.5)*((5.5^9)/(9!))
p2179
tp2180
a(S'0:03:33'
p2181
V1 - e^(-5.5* 9)
p2182
tp2183
a(S'0:05:35'
p2184
V1-e^(-5.5)*((5.5^9)/(9!))
p2185
tp2186
a(S'0:05:51'
p2187
Ve^(-5.5)*((5.5^9)/(9!))
p2188
tp2189
a(S'0:00:00'
p2190
Ve^(-11)*((11^18)/(18!))
p2191
tp2192
a(S'0:00:29'
p2193
Ve^(-5.5)*((5.5^9)/(9!))
p2194
tp2195
assVttimmons
p2196
(dp2197
S'part1_correct_attempt'
p2198
(lp2199
S'0:34:42'
p2200
aVe^[-(1/5.5)*11]
p2201
asg9
V2015-11-03 22:34:15
p2202
sS'part1_incorrect_attempt'
p2203
(lp2204
(S'0:00:00'
p2205
V5.5
p2206
tp2207
a(S'0:00:32'
p2208
V5.5*[5.5*e^(-5.5*11)]
p2209
tp2210
a(S'0:00:46'
p2211
V5.5*e^(-5.5*11)
p2212
tp2213
a(S'0:01:00'
p2214
V5.5*e^(-5.5)
p2215
tp2216
a(S'0:00:00'
p2217
V(5.5^2)*e^[-5.5*11]
p2218
tp2219
a(S'0:00:00'
p2220
V5.5*11
p2221
tp2222
a(S'0:00:10'
p2223
V5.5/11
p2224
tp2225
a(S'0:00:16'
p2226
V11/5.5
p2227
tp2228
a(S'0:02:05'
p2229
V(1/5.5)^2*(e^[-(1/5.5)*11])
p2230
tp2231
a(S'0:00:00'
p2232
V[1/5.5]/[11]
p2233
tp2234
a(S'0:04:23'
p2235
V100*(1/5.5)^2*e^[-(1/5.5)*11]
p2236
tp2237
a(S'0:04:31'
p2238
V1000*(1/5.5)^2*e^[-(1/5.5)*11]
p2239
tp2240
a(S'0:04:36'
p2241
V10000*(1/5.5)^2*e^[-(1/5.5)*11]
p2242
tp2243
a(S'0:04:48'
p2244
V1/(1/5.5)^2*e^[-(1/5.5)*11]
p2245
tp2246
a(S'0:04:56'
p2247
V1/[(1/5.5)^2*e^[-(1/5.5)*11]]
p2248
tp2249
a(S'0:05:02'
p2250
V(1/5.5)^2*e^[-(1/5.5)*11]
p2251
tp2252
a(S'0:06:03'
p2253
V100*(5.5)^2*e^[-(5.5)*11]
p2254
tp2255
a(S'0:07:37'
p2256
V100*e^[-(5.5)*11]
p2257
tp2258
assVjblynch
p2259
(dp2260
S'part1_correct_attempt'
p2261
(lp2262
S'0:08:13'
p2263
aV.25042
p2264
asg9
V2015-11-04 07:35:42
p2265
sS'part1_incorrect_attempt'
p2266
(lp2267
(S'0:00:00'
p2268
V6.5e^(-6.5*9)
p2269
tp2270
a(S'0:03:14'
p2271
V(1/6.5)e^((-1/6.5)*9)
p2272
tp2273
assVnnh002
p2274
(dp2275
S'part1_correct_attempt'
p2276
(lp2277
S'0:12:47'
p2278
aVe^((-1/6.5)*12)
p2279
asg9
V2015-11-05 02:56:53
p2280
sS'part1_incorrect_attempt'
p2281
(lp2282
(S'0:00:00'
p2283
V(1/6.5)*e^(-(1/6.5)*12)
p2284
tp2285
assVtol003
p2286
(dp2287
S'part1_correct_attempt'
p2288
(lp2289
S'0:05:58'
p2290
aVe^(-12/6.5)
p2291
asg9
V2015-11-03 18:49:36
p2292
sS'part1_incorrect_attempt'
p2293
(lp2294
(S'0:00:00'
p2295
Ve^(-6.5)*[((6.5)^12)/12!]
p2296
tp2297
a(S'0:00:39'
p2298
V1-e^(-6.5)*[((6.5)^12)/12!]
p2299
tp2300
assVskodigal
p2301
(dp2302
S'part1_correct_attempt'
p2303
(lp2304
S'0:05:39'
p2305
aVe^(-1/5.5 *12)
p2306
asg9
V2015-11-05 07:21:04
p2307
sS'part1_incorrect_attempt'
p2308
(lp2309
(S'0:00:00'
p2310
V5.5e^(5.5 *12)
p2311
tp2312
a(S'0:00:00'
p2313
V1-e^(-12/5.5)
p2314
tp2315
assVaakumar
p2316
(dp2317
S'part1_correct_attempt'
p2318
(lp2319
S'0:08:17'
p2320
aVe^(-9/6)
p2321
asg9
V2015-11-05 02:00:25
p2322
sS'part1_incorrect_attempt'
p2323
(lp2324
(S'0:00:00'
p2325
V(e^-9)/(e^-6)
p2326
tp2327
a(S'0:00:59'
p2328
V(e^-6)/(e^-9)
p2329
tp2330
a(S'0:02:02'
p2331
V(e^-9)/(e^-6)
p2332
tp2333
a(S'0:04:33'
p2334
V1-e^-(6*9)
p2335
tp2336
a(S'0:07:44'
p2337
V1-e^(-6/9)
p2338
tp2339
a(S'0:07:59'
p2340
V1-e^(-9/6)
p2341
tp2342
assVhachrist
p2343
(dp2344
S'part1_correct_attempt'
p2345
(lp2346
S'0:01:57'
p2347
aV1-(1 - e^(-12/5))
p2348
asg9
V2015-11-02 06:43:07
p2349
sS'part1_incorrect_attempt'
p2350
(lp2351
(S'0:00:00'
p2352
V1 - e^(-5/12)
p2353
tp2354
a(S'0:00:26'
p2355
V1 - e^(-5.5/12)
p2356
tp2357
a(S'0:01:15'
p2358
V1 - e^(-12/5)
p2359
tp2360
a(S'0:01:22'
p2361
V1 - e^(-12/5.5)
p2362
tp2363
assVq3wen
p2364
(dp2365
S'part1_correct_attempt'
p2366
(lp2367
S'0:22:44'
p2368
aVe^(-9/7)
p2369
asg9
V2015-11-04 19:57:53
p2370
sS'part1_incorrect_attempt'
p2371
(lp2372
(S'0:00:00'
p2373
V7/9
p2374
tp2375
a(S'0:00:08'
p2376
V9/7
p2377
tp2378
a(S'0:00:00'
p2379
V2/9
p2380
tp2381
assVyeh013
p2382
(dp2383
S'part1_correct_attempt'
p2384
(lp2385
S'1 day, 18:54:58'
p2386
aV(e^(-11/6.5))
p2387
asg9
V2015-11-03 07:58:46
p2388
sS'part1_incorrect_attempt'
p2389
(lp2390
(S'0:00:00'
p2391
V1-e^(-42.25)
p2392
tp2393
a(S'0:07:34'
p2394
V(11*e^(-11))/(6.5*e^(-6.5))
p2395
tp2396
a(S'0:07:50'
p2397
V(e^(-11))/(e^(-6.5))
p2398
tp2399
a(S'0:07:56'
p2400
V(1-e^(-11))/(e^(-6.5))
p2401
tp2402
a(S'0:08:02'
p2403
V1-(e^(-11))/(e^(-6.5))
p2404
tp2405
a(S'0:08:10'
p2406
V(e^(-11))/(e^(-6.5))
p2407
tp2408
a(S'0:08:31'
p2409
V1-e^(-4.5)
p2410
tp2411
a(S'0:00:00'
p2412
V(1-6.5/11)^((11/6.5)-1)
p2413
tp2414
a(S'0:01:37'
p2415
V(1-1/11)^((11/6.5)-1)
p2416
tp2417
a(S'0:01:47'
p2418
V1-(1-1/11)^((11/6.5)-1)
p2419
tp2420
assVdtea
p2421
(dp2422
g9
V2015-11-07 00:12:16
p2423
sS'part1_incorrect_attempt'
p2424
(lp2425
(S'0:00:00'
p2426
Ve^(-5)*(5^11/11!)
p2427
tp2428
a(S'0:02:22'
p2429
V1-e^(-(5/60)*(11/60))
p2430
tp2431
a(S'0:02:40'
p2432
V1-e^(-(5/60)*(11/60))
p2433
tp2434
a(S'0:00:00'
p2435
V1-e^(-(5/60)*(11/60))
p2436
tp2437
assVyhhan
p2438
(dp2439
S'part1_correct_attempt'
p2440
(lp2441
S'1:08:11'
p2442
aVe^(-(1/6)*12)
p2443
asg9
V2015-11-06 23:32:25
p2444
sS'part1_incorrect_attempt'
p2445
(lp2446
(S'0:00:00'
p2447
V.2
p2448
tp2449
a(S'0:00:00'
p2450
V.1
p2451
tp2452
assVlahawkin
p2453
(dp2454
S'part1_correct_attempt'
p2455
(lp2456
S'1 day, 1:30:23'
p2457
aVe^(-9/6)
p2458
asg9
V2015-11-04 17:17:53
p2459
sS'part1_incorrect_attempt'
p2460
(lp2461
(S'0:00:00'
p2462
V1/2
p2463
tp2464
a(S'0:00:45'
p2465
Ve^(-6)(6^9/9!)
p2466
tp2467
assVasetters
p2468
(dp2469
S'part1_correct_attempt'
p2470
(lp2471
S'0:00:58'
p2472
aV1-(1-(e^(-(1/5.5)*12)))
p2473
asg9
V2015-11-05 19:46:40
p2474
sS'part1_incorrect_attempt'
p2475
(lp2476
(S'0:00:00'
p2477
V1-(1-(e^(-5.5*12)))
p2478
tp2479
assVarvenega
p2480
(dp2481
S'part1_correct_attempt'
p2482
(lp2483
S'0:00:55'
p2484
aVe^(-12/5)
p2485
asg9
V2015-11-04 23:57:09
p2486
sS'part1_incorrect_attempt'
p2487
(lp2488
(S'0:00:00'
p2489
V1 - e^(-12/5)
p2490
tp2491
a(S'0:00:37'
p2492
V1 - (e^(-12/5))
p2493
tp2494
assVtdurrer
p2495
(dp2496
S'part1_correct_attempt'
p2497
(lp2498
S'0:32:33'
p2499
aV.1128
p2500
asg9
V2015-11-06 00:20:57
p2501
sS'part1_incorrect_attempt'
p2502
(lp2503
(S'0:00:00'
p2504
V1-e^(-12/5.5)
p2505
tp2506
assVr2fisher
p2507
(dp2508
g9
V2015-11-06 03:27:14
p2509
sS'part1_incorrect_attempt'
p2510
(lp2511
(S'0:00:00'
p2512
V1/2
p2513
tp2514
a(S'0:03:34'
p2515
V1/4
p2516
tp2517
a(S'0:08:12'
p2518
Ve^(-12/6)/6
p2519
tp2520
a(S'0:09:48'
p2521
Ve^(-12*6)*6
p2522
tp2523
a(S'0:09:56'
p2524
Ve^(-12/6)/6
p2525
tp2526
a(S'0:15:58'
p2527
V1- e^(-12/6)/6
p2528
tp2529
a(S'0:16:05'
p2530
Ve^(-12/6)/6
p2531
tp2532
assVvolim
p2533
(dp2534
S'part1_correct_attempt'
p2535
(lp2536
S'0:01:14'
p2537
aVe^(-12/5.5)
p2538
asg9
V2015-11-04 22:44:57
p2539
sS'part1_incorrect_attempt'
p2540
(lp2541
(S'0:00:00'
p2542
V1-e^(-12/5.5)
p2543
tp2544
a(S'0:00:33'
p2545
V1-e^(-12*5.5)
p2546
tp2547
a(S'0:00:39'
p2548
V1-e^(-12/5.5)
p2549
tp2550
assVrbdoming
p2551
(dp2552
S'part1_correct_attempt'
p2553
(lp2554
S'0:02:31'
p2555
aVe^(-9*0.2)
p2556
asg9
V2015-11-05 18:13:59
p2557
sS'part1_incorrect_attempt'
p2558
(lp2559
(S'0:00:00'
p2560
V1 - e^(-9/5)
p2561
tp2562
a(S'0:01:48'
p2563
V1 - e^(-9*0.2)
p2564
tp2565
assVk4ma
p2566
(dp2567
S'part1_correct_attempt'
p2568
(lp2569
S'0:08:56'
p2570
aVe^(-11/5)
p2571
asg9
V2015-11-06 20:17:37
p2572
sS'part1_incorrect_attempt'
p2573
(lp2574
(S'0:00:00'
p2575
V1-e^(-11/5)
p2576
tp2577
a(S'0:00:38'
p2578
V1-e^(-11*5)
p2579
tp2580
assVaurodrig
p2581
(dp2582
S'part1_correct_attempt'
p2583
(lp2584
S'0:47:44'
p2585
aVe^(-1/6*11)
p2586
asg9
V2015-11-06 04:41:50
p2587
sS'part1_incorrect_attempt'
p2588
(lp2589
(S'0:00:00'
p2590
V1-e^(-11/6)
p2591
tp2592
a(S'0:00:48'
p2593
V1-e^(-5/6)
p2594
tp2595
a(S'0:02:37'
p2596
V1-e^(-12/6)
p2597
tp2598
a(S'0:04:39'
p2599
V1-e^(-49/6)
p2600
tp2601
assVcagatep
p2602
(dp2603
S'part1_correct_attempt'
p2604
(lp2605
S'0:11:10'
p2606
aV1 - (1 - e^(-(1/5.5)10))
p2607
asg9
V2015-11-05 06:17:06
p2608
sS'part1_incorrect_attempt'
p2609
(lp2610
(S'0:00:00'
p2611
V1 - (1-e^(-5.5 * 10))
p2612
tp2613
a(S'0:01:22'
p2614
V1 - e^(-5.5 * 10)
p2615
tp2616
a(S'0:02:33'
p2617
V(5.5^10 * e^(-5.5))/(10!)
p2618
tp2619
a(S'0:00:00'
p2620
V1 - e^(-10)
p2621
tp2622
a(S'0:00:14'
p2623
V1 - (1 - e^(-10))
p2624
tp2625
assVytc012
p2626
(dp2627
S'part1_correct_attempt'
p2628
(lp2629
S'0:00:25'
p2630
aV1-(1 - e^(-9/6.5))
p2631
asg9
V2015-11-05 21:56:10
p2632
sS'part1_incorrect_attempt'
p2633
(lp2634
(S'0:00:00'
p2635
V1-(1 - e^(-6.5/9))
p2636
tp2637
a(S'0:00:06'
p2638
V(1 - e^(-6.5/9))
p2639
tp2640
assVtjke
p2641
(dp2642
S'part1_correct_attempt'
p2643
(lp2644
S'1 day, 21:55:32'
p2645
aV1-(1-e^(-9/6.5))
p2646
asg9
V2015-11-04 20:41:33
p2647
sS'part1_incorrect_attempt'
p2648
(lp2649
(S'0:00:00'
p2650
V1 - e^(-9/6.5)
p2651
tp2652
a(S'0:00:00'
p2653
V1 - e^(-6.5/9)
p2654
tp2655
a(S'0:00:08'
p2656
V1 - e^(-9/6.5)
p2657
tp2658
a(S'0:00:00'
p2659
V1-e^(-9/6.5)
p2660
tp2661
assVklala
p2662
(dp2663
S'part1_correct_attempt'
p2664
(lp2665
S'0:01:46'
p2666
aVe^(-10/7)
p2667
asg9
V2015-11-05 07:33:32
p2668
sS'part1_incorrect_attempt'
p2669
(lp2670
(S'0:00:00'
p2671
V1 - e^(-10/7)
p2672
tp2673
assVb1yao
p2674
(dp2675
S'part1_correct_attempt'
p2676
(lp2677
S'1:49:29'
p2678
aVe^(-9*0.2)
p2679
asg9
V2015-11-03 06:40:27
p2680
sS'part1_incorrect_attempt'
p2681
(lp2682
(S'0:00:00'
p2683
V1-e^(-45)
p2684
tp2685
a(S'0:11:57'
p2686
V1-e^(-5)*5^9/9!
p2687
tp2688
a(S'0:12:40'
p2689
V1-e^(-5)*5^10/10!
p2690
tp2691
a(S'0:16:59'
p2692
V1-e^(-5)*(5^1/1+5^2/2!+5^3/3!+5^4/4!+5^5/5!+5^6/6!+5^7/7!+5^8/8!+5^9/9!)
p2693
tp2694
a(S'0:17:17'
p2695
V1-e^(-5)*(5^1/1+5^2/2!+5^3/3!+5^4/4!+5^5/5!+5^6/6!+5^7/7!+5^8/8!+5^9/9!+5^10/10!)
p2696
tp2697
assVyig015
p2698
(dp2699
S'part1_correct_attempt'
p2700
(lp2701
S'23:55:15'
p2702
aV1-(1-e^(-1/5*11))
p2703
asg9
V2015-11-05 10:10:57
p2704
sS'part1_incorrect_attempt'
p2705
(lp2706
(S'0:00:00'
p2707
V8.242176685*10^(-3)
p2708
tp2709
a(S'0:03:21'
p2710
V5*e^(-55)
p2711
tp2712
a(S'0:00:00'
p2713
V1-5*e^(-55)
p2714
tp2715
a(S'0:00:27'
p2716
V1-(1-5*e^(-55))
p2717
tp2718
a(S'0:03:11'
p2719
Ve^(-5)*5^11/11!
p2720
tp2721
a(S'0:14:44'
p2722
Ve^(-5)*5^11
p2723
tp2724
a(S'0:15:23'
p2725
V5/11
p2726
tp2727
a(S'0:16:41'
p2728
V5*e^(-55)
p2729
tp2730
a(S'0:00:00'
p2731
V1-(1-e^(-5*11))
p2732
tp2733
assVt2shin
p2734
(dp2735
S'part1_correct_attempt'
p2736
(lp2737
S'0:01:17'
p2738
aVe^(-11/5)
p2739
asg9
V2015-11-04 04:19:00
p2740
sS'part1_incorrect_attempt'
p2741
(lp2742
(S'0:00:00'
p2743
V1-e^(-12/5)
p2744
tp2745
a(S'0:00:00'
p2746
V1-e^(-11/5)
p2747
tp2748
assVvsamant
p2749
(dp2750
S'part1_correct_attempt'
p2751
(lp2752
S'0:02:50'
p2753
aV(e^(-(1/7)*11))
p2754
asg9
V2015-11-01 23:14:31
p2755
sS'part1_incorrect_attempt'
p2756
(lp2757
(S'0:00:00'
p2758
V(1/7)(e^(-(1/7)*11))
p2759
tp2760
assVfichoi
p2761
(dp2762
S'part1_correct_attempt'
p2763
(lp2764
S'5:30:02'
p2765
aVe^(-12/6.5)
p2766
asg9
V2015-11-03 22:37:22
p2767
sS'part1_incorrect_attempt'
p2768
(lp2769
(S'0:00:00'
p2770
V6.5e^(-6.5 * 12)
p2771
tp2772
a(S'0:00:00'
p2773
V6.5 * e^(-6.5 * 12)
p2774
tp2775
a(S'0:00:00'
p2776
V1 - (1 - e^(6.5/60 * 12/60))
p2777
tp2778
a(S'0:00:22'
p2779
V1 - (1 - e^((-6.5/60) * (12/60)))
p2780
tp2781
a(S'0:00:00'
p2782
Ve^(-6.5) * (6.5^12)/(12!)
p2783
tp2784
a(S'0:00:16'
p2785
Ve^(-6.5) * (6.5^12)/(12!)*100
p2786
tp2787
a(S'0:00:52'
p2788
V1/(e^(-6.5) * (6.5^12)/(12!))
p2789
tp2790
a(S'0:00:00'
p2791
V1 - 1/(e^(6.5) * (6.5^12)/(12!))
p2792
tp2793
a(S'0:00:09'
p2794
V1/(e^(6.5) * (6.5^12)/(12!))
p2795
tp2796
a(S'0:03:15'
p2797
V1 - e^(-12/6.5)
p2798
tp2799
a(S'0:03:51'
p2800
V1 - e^(-12/6.5)
p2801
tp2802
a(S'0:04:02'
p2803
V(1 - e^(-12/6.5))*100
p2804
tp2805
a(S'0:04:27'
p2806
V(1 - e^(-6.5/12))*100
p2807
tp2808
a(S'0:04:33'
p2809
V1 - e^(-6.5/12)
p2810
tp2811
assVqtluong
p2812
(dp2813
S'part1_correct_attempt'
p2814
(lp2815
S'1 day, 17:05:16'
p2816
aVe^(-(1/6) * 9)
p2817
asg9
V2015-11-04 05:52:47
p2818
sS'part1_incorrect_attempt'
p2819
(lp2820
(S'0:00:00'
p2821
V1-e^((-6)(9))
p2822
tp2823
a(S'0:00:13'
p2824
V1-e^((-6)(9))
p2825
tp2826
a(S'0:00:39'
p2827
V1-e^((-.1)(.15))
p2828
tp2829
a(S'0:00:00'
p2830
V1-e^((-1/6)(9))
p2831
tp2832
a(S'0:00:00'
p2833
V(1/6)e^(-(1/6)(9))
p2834
tp2835
assVspw006
p2836
(dp2837
S'part1_correct_attempt'
p2838
(lp2839
S'0:01:00'
p2840
aVe^(-10*(1/6.5))
p2841
asg9
V2015-11-04 00:33:23
p2842
sS'part1_incorrect_attempt'
p2843
(lp2844
(S'0:00:00'
p2845
V1-e^(-10/6)
p2846
tp2847
a(S'0:00:08'
p2848
V1-e^(-10/6.5)
p2849
tp2850
assVany027
p2851
(dp2852
S'part1_correct_attempt'
p2853
(lp2854
S'0:01:38'
p2855
aVe^(-10*(1/7))
p2856
asg9
V2015-11-01 19:31:50
p2857
sS'part1_incorrect_attempt'
p2858
(lp2859
(S'0:00:00'
p2860
V1 - e^(-0.7*10)
p2861
tp2862
a(S'0:00:23'
p2863
V1 - e^(-10/7)
p2864
tp2865
a(S'0:00:48'
p2866
V1 - e^(-10*7)
p2867
tp2868
a(S'0:00:56'
p2869
V1 - e^(-7*10)
p2870
tp2871
a(S'0:01:16'
p2872
V1 - e^(-10*(1/7))
p2873
tp2874
assVrwthomps
p2875
(dp2876
S'part1_correct_attempt'
p2877
(lp2878
S'0:02:06'
p2879
aVe^(-12 * (1/6))
p2880
asg9
V2015-11-06 16:49:01
p2881
sS'part1_incorrect_attempt'
p2882
(lp2883
(S'0:00:00'
p2884
V1 - e^(-12/6)
p2885
tp2886
assVvsosnovs
p2887
(dp2888
S'part1_correct_attempt'
p2889
(lp2890
S'0:00:06'
p2891
aVe^(-11/5.5)
p2892
asg9
V2015-11-05 20:37:21
p2893
sS'part1_incorrect_attempt'
p2894
(lp2895
(S'0:00:00'
p2896
V1-e^(-11/5.5)
p2897
tp2898
assVk5law
p2899
(dp2900
S'part1_correct_attempt'
p2901
(lp2902
S'0:01:37'
p2903
aV1-[1-e^(-9/6)]
p2904
asg9
V2015-11-04 07:20:04
p2905
sS'part1_incorrect_attempt'
p2906
(lp2907
(S'0:00:00'
p2908
V1-e^(-6/9)
p2909
tp2910
assVp4kumar
p2911
(dp2912
S'part1_correct_attempt'
p2913
(lp2914
S'0:03:29'
p2915
aVe^(-11/6)
p2916
asg9
V2015-11-05 23:52:25
p2917
sS'part1_incorrect_attempt'
p2918
(lp2919
(S'0:00:00'
p2920
V0.840120254
p2921
tp2922
a(S'0:03:18'
p2923
V0.110803158
p2924
tp2925
assVamquinte
p2926
(dp2927
S'part1_correct_attempt'
p2928
(lp2929
S'1 day, 17:18:25'
p2930
aV.184
p2931
asg9
V2015-11-05 06:15:01
p2932
sS'part1_incorrect_attempt'
p2933
(lp2934
(S'0:00:00'
p2935
V.03387
p2936
tp2937
a(S'0:01:26'
p2938
V.06684
p2939
tp2940
a(S'0:00:00'
p2941
V.0339
p2942
tp2943
a(S'0:00:00'
p2944
V.8159
p2945
tp2946
assVj6quach
p2947
(dp2948
S'part1_correct_attempt'
p2949
(lp2950
S'0:13:39'
p2951
aVe^((-1/6)*11)
p2952
asg9
V2015-11-05 12:54:54
p2953
sS'part1_incorrect_attempt'
p2954
(lp2955
(S'0:00:00'
p2956
V6/11
p2957
tp2958
a(S'0:01:01'
p2959
V6e^(-6*11)
p2960
tp2961
a(S'0:10:37'
p2962
V(1/6)e^((-1/6)*11)
p2963
tp2964
assVgsrandha
p2965
(dp2966
S'part1_correct_attempt'
p2967
(lp2968
S'0:00:57'
p2969
aVe^(-10*.166666)
p2970
asg9
V2015-11-05 00:40:48
p2971
sS'part1_incorrect_attempt'
p2972
(lp2973
(S'0:00:00'
p2974
V0.1128
p2975
tp2976
assVbmilton
p2977
(dp2978
S'part1_correct_attempt'
p2979
(lp2980
S'2 days, 3:11:02'
p2981
aVe^(-9/6)
p2982
asg9
V2015-11-04 19:20:35
p2983
sS'part1_incorrect_attempt'
p2984
(lp2985
(S'0:00:00'
p2986
V6/9
p2987
tp2988
a(S'0:00:00'
p2989
V1/6 * (e^(-(1/6 * 9)))
p2990
tp2991
a(S'0:00:44'
p2992
V1/6
p2993
tp2994
a(S'0:01:25'
p2995
V1 - (1-e^(9/6))
p2996
tp2997
assVjhc010
p2998
(dp2999
S'part1_correct_attempt'
p3000
(lp3001
S'0:19:05'
p3002
aVe^(-(1/7)*(11))
p3003
asg9
V2015-11-06 09:58:43
p3004
sS'part1_incorrect_attempt'
p3005
(lp3006
(S'0:00:00'
p3007
V7e^(-7*11)
p3008
tp3009
a(S'0:01:12'
p3010
V7e^(7*11)
p3011
tp3012
a(S'0:01:22'
p3013
V7e^(-11)
p3014
tp3015
a(S'0:01:29'
p3016
V7e^(-7*11)
p3017
tp3018
a(S'0:03:01'
p3019
V(1/7)e^(-(1/7)*11)
p3020
tp3021
a(S'0:00:00'
p3022
V(7)e^(-7*11)
p3023
tp3024
a(S'0:03:01'
p3025
V(1/7)e^(-(1/7)*11)
p3026
tp3027
a(S'0:03:06'
p3028
V(1/7)*e^(-(1/7)*11)
p3029
tp3030
a(S'0:03:35'
p3031
V1-(1/7)*e^(-(1/7)*11)
p3032
tp3033
a(S'0:03:56'
p3034
V(1/7)*e^(-(1/7)*11)
p3035
tp3036
a(S'0:04:08'
p3037
V(1/7)*e^(-(1/7)*11)/2
p3038
tp3039
a(S'0:04:13'
p3040
V(1/7)*e^(-(1/7)*11)
p3041
tp3042
a(S'0:05:26'
p3043
V(1/420)*e^(-(1/420)*660)
p3044
tp3045
a(S'0:05:44'
p3046
V(1/7)*e^(-(1/7)*11)
p3047
tp3048
a(S'0:06:00'
p3049
V(1/7)*e^(-(1/7)*11)*2
p3050
tp3051
a(S'0:06:04'
p3052
V(1/7)*e^(-(1/7)*11)
p3053
tp3054
a(S'0:10:02'
p3055
V(1/7)*e^(-(1/7)*(1/11))
p3056
tp3057
a(S'0:10:18'
p3058
V(7)*e^(-(7)*(1/11))
p3059
tp3060
a(S'0:10:26'
p3061
V(1/7)*e^(-(1/7)*(1/11))
p3062
tp3063
assVrsmurlo
p3064
(dp3065
S'part1_correct_attempt'
p3066
(lp3067
S'0:00:51'
p3068
aVe^((-1/5.5)*9)
p3069
asg9
V2015-11-05 16:01:54
p3070
sS'part1_incorrect_attempt'
p3071
(lp3072
(S'0:00:00'
p3073
V1-e^(-5.5*9)
p3074
tp3075
assVdkostins
p3076
(dp3077
S'part1_correct_attempt'
p3078
(lp3079
S'0:00:16'
p3080
aV1-(1-e^(-11/7))
p3081
asg9
V2015-11-03 06:35:47
p3082
sS'part1_incorrect_attempt'
p3083
(lp3084
(S'0:00:00'
p3085
V1-e^(-11/7)
p3086
tp3087
assVtwsalim
p3088
(dp3089
S'part1_correct_attempt'
p3090
(lp3091
S'0:17:01'
p3092
aV0.1108
p3093
asg9
V2015-11-04 01:49:59
p3094
sS'part1_incorrect_attempt'
p3095
(lp3096
(S'0:00:00'
p3097
V5*e^(-5*11)
p3098
tp3099
assVs6deng
p3100
(dp3101
S'part1_correct_attempt'
p3102
(lp3103
S'0:07:54'
p3104
aV(e^(-11/6))
p3105
asg9
V2015-11-05 06:43:13
p3106
sS'part1_incorrect_attempt'
p3107
(lp3108
(S'0:00:00'
p3109
V1-e^(-11/6)
p3110
tp3111
assVachinn
p3112
(dp3113
S'part1_correct_attempt'
p3114
(lp3115
S'11:37:47'
p3116
aVe^(-10*(1/7))
p3117
asg9
V2015-11-03 20:47:24
p3118
sS'part1_incorrect_attempt'
p3119
(lp3120
(S'0:00:00'
p3121
V((e^-7)*(7^10))/(10!)
p3122
tp3123
a(S'0:00:29'
p3124
V100*(((e^-7)*(7^10))/(10!))
p3125
tp3126
a(S'0:00:00'
p3127
V((e^-7)*(7^10))/(10!)
p3128
tp3129
a(S'0:00:00'
p3130
V((e^-10)*(10^7))/(7!)
p3131
tp3132
assVjcl084
p3133
(dp3134
S'part1_correct_attempt'
p3135
(lp3136
S'0:03:04'
p3137
aVe^(-11/5.5)
p3138
asg9
V2015-11-02 19:35:51
p3139
sS'part1_incorrect_attempt'
p3140
(lp3141
(S'0:00:00'
p3142
V1 - e^(-11/5.5)
p3143
tp3144
assVaalhaida
p3145
(dp3146
S'part1_correct_attempt'
p3147
(lp3148
S'0:01:33'
p3149
aVe^(-11/7)
p3150
asg9
V2015-11-05 08:51:43
p3151
sS'part1_incorrect_attempt'
p3152
(lp3153
(S'0:00:00'
p3154
V1 - e^(-11/7)
p3155
tp3156
assVjdeon
p3157
(dp3158
S'part1_correct_attempt'
p3159
(lp3160
S'20:44:30'
p3161
aVe^((-1/5.5)*9)
p3162
asg9
V2015-11-04 22:40:37
p3163
sS'part1_incorrect_attempt'
p3164
(lp3165
(S'0:00:00'
p3166
V.0354
p3167
tp3168
assVhah008
p3169
(dp3170
S'part1_correct_attempt'
p3171
(lp3172
S'0:01:13'
p3173
aVe^(-11*0.16666)
p3174
asg9
V2015-11-05 22:42:26
p3175
sS'part1_incorrect_attempt'
p3176
(lp3177
(S'0:00:00'
p3178
V1-e^(-11/6)
p3179
tp3180
a(S'0:00:44'
p3181
V1-e^(-11/0.16666)
p3182
tp3183
assVmcatozzi
p3184
(dp3185
S'part1_correct_attempt'
p3186
(lp3187
S'0:01:35'
p3188
aV(e^(-9/6.5))
p3189
asg9
V2015-11-03 18:53:26
p3190
sS'part1_incorrect_attempt'
p3191
(lp3192
(S'0:00:00'
p3193
V1-(e^(-9/6.5))
p3194
tp3195
assVacs008
p3196
(dp3197
S'part1_correct_attempt'
p3198
(lp3199
S'0:01:24'
p3200
aVe^(-11/6.5)
p3201
asg9
V2015-11-04 04:19:19
p3202
sS'part1_incorrect_attempt'
p3203
(lp3204
(S'0:00:00'
p3205
V1-(1-e^(-6.5*11))
p3206
tp3207
a(S'0:00:00'
p3208
V1-e^(-6.5*11)
p3209
tp3210
assVhaliew
p3211
(dp3212
S'part1_correct_attempt'
p3213
(lp3214
S'0:13:01'
p3215
aV1-(1-e^(-11/5.5))
p3216
asg9
V2015-11-05 07:19:28
p3217
sS'part1_incorrect_attempt'
p3218
(lp3219
(S'0:00:00'
p3220
V1-e^(-11/5.5)
p3221
tp3222
a(S'0:00:00'
p3223
V11/5.5
p3224
tp3225
a(S'0:00:00'
p3226
V2e^(-2*11)
p3227
tp3228
a(S'0:00:00'
p3229
V1-e^(-11*5.5)
p3230
tp3231
a(S'0:00:15'
p3232
V1-e^(-11*(1/5.5))
p3233
tp3234
a(S'0:01:02'
p3235
V(1/5.5)e^(-(1/5.5)11)
p3236
tp3237
assVdaw023
p3238
(dp3239
S'part1_correct_attempt'
p3240
(lp3241
S'0:01:26'
p3242
aVe^(-12*(1/6.5))
p3243
asg9
V2015-11-03 07:42:55
p3244
sS'part1_incorrect_attempt'
p3245
(lp3246
(S'0:00:00'
p3247
V1-(e^(-6.5/12))
p3248
tp3249
a(S'0:00:13'
p3250
V1-(e^(-12/6.5))
p3251
tp3252
assVw4shin
p3253
(dp3254
S'part1_correct_attempt'
p3255
(lp3256
S'0:06:16'
p3257
aVe^(-12/6)
p3258
asg9
V2015-11-06 22:06:05
p3259
sS'part1_incorrect_attempt'
p3260
(lp3261
(S'0:00:00'
p3262
V6*(e^(-6*12))
p3263
tp3264
a(S'0:03:15'
p3265
V1/6
p3266
tp3267
assVahh002
p3268
(dp3269
S'part1_correct_attempt'
p3270
(lp3271
S'12:03:32'
p3272
aVe^(-11/5.5)
p3273
asg9
V2015-11-04 11:29:34
p3274
sS'part1_incorrect_attempt'
p3275
(lp3276
(S'0:00:00'
p3277
V1 - (1 - e^(-5.5 * 11))
p3278
tp3279
a(S'0:01:08'
p3280
V5.5e^(-5.5*11)
p3281
tp3282
a(S'0:15:15'
p3283
V1 - (1 - e^(-5.5*11))
p3284
tp3285
assVaordookh
p3286
(dp3287
S'part1_correct_attempt'
p3288
(lp3289
S'0:04:03'
p3290
aVe^(-.2*10)
p3291
asg9
V2015-11-04 21:24:14
p3292
sS'part1_incorrect_attempt'
p3293
(lp3294
(S'0:00:00'
p3295
V(e^-5)*(5^10)/10!
p3296
tp3297
a(S'0:01:24'
p3298
V(e^-.2)*(.2^10)/10!
p3299
tp3300
a(S'0:03:18'
p3301
V1-e^(-.2*10)
p3302
tp3303
assVkquong
p3304
(dp3305
S'part1_correct_attempt'
p3306
(lp3307
S'0:03:08'
p3308
aVe^(-10/6)
p3309
asg9
V2015-11-02 00:03:31
p3310
sS'part1_incorrect_attempt'
p3311
(lp3312
(S'0:00:00'
p3313
V(1/e^10 + 1/e^6) /2
p3314
tp3315
a(S'0:01:37'
p3316
V1 - e^(-10/6)
p3317
tp3318
a(S'0:02:59'
p3319
V1 - e^(-6/10)
p3320
tp3321
assVvasharma
p3322
(dp3323
S'part1_correct_attempt'
p3324
(lp3325
S'0:04:06'
p3326
aV1-(1-e^(-(1/5.5)*10))
p3327
asg9
V2015-11-04 18:37:07
p3328
sS'part1_incorrect_attempt'
p3329
(lp3330
(S'0:00:00'
p3331
V1-(1-e^(-5.5*10))
p3332
tp3333
a(S'0:00:00'
p3334
V1-(1-e^(-(5.5/10)*10))
p3335
tp3336
assVkgrozav
p3337
(dp3338
S'part1_correct_attempt'
p3339
(lp3340
S'0:19:31'
p3341
aV0.13533528
p3342
asg9
V2015-11-05 06:31:42
p3343
sS'part1_incorrect_attempt'
p3344
(lp3345
(S'0:00:00'
p3346
V1/2
p3347
tp3348
a(S'0:02:10'
p3349
V1/4
p3350
tp3351
a(S'0:07:16'
p3352
V1/12
p3353
tp3354
a(S'0:07:22'
p3355
V1/6
p3356
tp3357
a(S'0:10:00'
p3358
V0.8646636
p3359
tp3360
a(S'0:11:22'
p3361
V.1145588
p3362
tp3363
a(S'0:00:00'
p3364
V0.301194
p3365
tp3366
a(S'0:00:13'
p3367
V0.3011942119
p3368
tp3369
assVxweng
p3370
(dp3371
S'part1_correct_attempt'
p3372
(lp3373
S'0:00:54'
p3374
aVe^(-12/5.5)
p3375
asg9
V2015-11-05 23:27:51
p3376
sS'part1_incorrect_attempt'
p3377
(lp3378
(S'0:00:00'
p3379
V1-e^(-5.5*12)
p3380
tp3381
a(S'0:00:28'
p3382
V1-e^(-12/5.5)
p3383
tp3384
assVc3chung
p3385
(dp3386
S'part1_correct_attempt'
p3387
(lp3388
S'0:00:45'
p3389
aVe^(-10/7)
p3390
asg9
V2015-11-06 07:03:57
p3391
sS'part1_incorrect_attempt'
p3392
(lp3393
(S'0:00:00'
p3394
V1 - e^(-10/7)
p3395
tp3396
assVajvanega
p3397
(dp3398
S'part1_correct_attempt'
p3399
(lp3400
S'23:59:42'
p3401
aVe^(-9/6.5)
p3402
asg9
V2015-11-05 01:37:08
p3403
sS'part1_incorrect_attempt'
p3404
(lp3405
(S'0:00:00'
p3406
V1-((e^(-9/6.5)))
p3407
tp3408
assVzig006
p3409
(dp3410
S'part1_correct_attempt'
p3411
(lp3412
S'3:40:31'
p3413
aV0.1598797
p3414
asg9
V2015-11-01 20:03:03
p3415
sS'part1_incorrect_attempt'
p3416
(lp3417
(S'0:00:00'
p3418
V0.0225289
p3419
tp3420
a(S'0:00:00'
p3421
V0.3161336
p3422
tp3423
a(S'0:00:00'
p3424
V0.0266466
p3425
tp3426
assVzhw110
p3427
(dp3428
S'part1_correct_attempt'
p3429
(lp3430
S'1 day, 3:41:28'
p3431
aVe^(-(11/6))
p3432
asg9
V2015-11-05 20:50:56
p3433
sS'part1_incorrect_attempt'
p3434
(lp3435
(S'0:00:00'
p3436
Ve^(-11)*(6^11)/(11!)
p3437
tp3438
a(S'0:05:46'
p3439
Ve^(-6)*(6^11)/(11!)
p3440
tp3441
a(S'0:00:00'
p3442
V1-e^(-(1/11)(1/6))
p3443
tp3444
a(S'0:01:02'
p3445
V1-e^(-(11/6))
p3446
tp3447
a(S'0:01:16'
p3448
V1-e^(-(6/11))
p3449
tp3450
assVmtrafeca
p3451
(dp3452
S'part1_correct_attempt'
p3453
(lp3454
S'0:05:06'
p3455
aVe^(-(9/6))
p3456
asg9
V2015-11-01 23:54:46
p3457
sS'part1_incorrect_attempt'
p3458
(lp3459
(S'0:00:00'
p3460
V1-e^(-9/6)
p3461
tp3462
a(S'0:00:12'
p3463
V1-e^(-(9/6))
p3464
tp3465
a(S'0:00:39'
p3466
V1-e^(-(6/9))
p3467
tp3468
a(S'0:04:42'
p3469
V1-e^(-(12/5.5))
p3470
tp3471
assVmjethani
p3472
(dp3473
S'part1_correct_attempt'
p3474
(lp3475
S'0:03:27'
p3476
aVe^(-12/6.5)
p3477
asg9
V2015-11-06 01:34:34
p3478
sS'part1_incorrect_attempt'
p3479
(lp3480
(S'0:00:00'
p3481
V1-e^(-12/6.5)
p3482
tp3483
assVsyc078
p3484
(dp3485
S'part1_correct_attempt'
p3486
(lp3487
S'22:09:30'
p3488
aVe^(-9/5)
p3489
asg9
V2015-11-05 03:26:39
p3490
sS'part1_incorrect_attempt'
p3491
(lp3492
(S'0:00:00'
p3493
V0.8
p3494
tp3495
a(S'0:00:23'
p3496
V((9-5)^2)/5
p3497
tp3498
a(S'0:00:00'
p3499
V0.2
p3500
tp3501
a(S'0:00:05'
p3502
V0.15
p3503
tp3504
a(S'0:00:15'
p3505
V0.11
p3506
tp3507
a(S'0:00:18'
p3508
V0.01
p3509
tp3510
a(S'0:00:21'
p3511
V0.02
p3512
tp3513
a(S'0:00:25'
p3514
V0.03
p3515
tp3516
a(S'0:00:00'
p3517
V1-e^(-9/5)
p3518
tp3519
assVwhcombs
p3520
(dp3521
S'part1_correct_attempt'
p3522
(lp3523
S'0:00:42'
p3524
aV1-(1-e^((-1/6)*9))
p3525
asg9
V2015-11-04 18:41:50
p3526
sS'part1_incorrect_attempt'
p3527
(lp3528
(S'0:00:00'
p3529
V1-(1-e^(1/6)*9)
p3530
tp3531
a(S'0:00:07'
p3532
V1-(1-e^(-1/6)*9)
p3533
tp3534
assVj2phung
p3535
(dp3536
S'part1_correct_attempt'
p3537
(lp3538
S'1:07:34'
p3539
aVe^(-9/7)
p3540
asg9
V2015-11-03 19:13:32
p3541
sS'part1_incorrect_attempt'
p3542
(lp3543
(S'0:00:00'
p3544
V1 - e^(-9/7)
p3545
tp3546
a(S'0:00:28'
p3547
V1 - e^(-7/9)
p3548
tp3549
a(S'0:09:57'
p3550
V1 - e^(-5.5/12)
p3551
tp3552
asss.