(dp0
V1
p1
ccollections
defaultdict
p2
(c__builtin__
list
p3
tp4
Rp5
S'Digits'
p6
(lp7
(V(-2+0)/2
p8
V0
p9
tp10
a(V(-2+1)/2
p11
V0
p12
tp13
a(V(-1+5)/2
p14
V0
p15
tp16
a(V(-1+2)/2
p17
V1
p18
tp19
a(V(-2+0)/2
p20
V0
p21
tp22
a(V(-2+3)/2
p23
V1
p24
tp25
a(V(-3+1)/2
p26
V0
p27
tp28
a(V(-2+0)/2
p29
V0
p30
tp31
a(V(-1+5)/2
p32
V5
p33
tp34
a(g32
V0
p35
tp36
a(V(-1+3)/2
p37
V0
p38
tp39
a(g37
V2
p40
tp41
a(g23
V0
p42
tp43
a(V(-2+3)/2
p44
V0
p45
tp46
a(V(-3+-1)/2
p47
V0
p48
tp49
a(V(-2+4)/2
p50
V0
p51
tp52
a(V(-1+4)/2
p53
V0
p54
tp55
a(V(-3+-1)/2
p56
V0
p57
tp58
a(V(-2+1)/2
p59
V0
p60
tp61
a(V(-2+1)/2
p62
V0
p63
tp64
a(V(-1+5)/2
p65
V0
p66
tp67
a(V(-3+1)/2
p68
V0
p69
tp70
a(V(-1+2)/2
p71
V5
p72
tp73
a(V(-1+5)/2
p74
V0
p75
tp76
a(V(-3+3)/2
p77
V1500
p78
tp79
a(V(-1+4)/2
p80
V1
p81
tp82
a(V(-1+2)/2
p83
V0
p84
tp85
a(V(-3+2)/2
p86
V0
p87
tp88
a(V(-3+1)/2
p89
V0
p90
tp91
a(g83
V1
p92
tp93
a(g83
V2
p94
tp95
a(g83
V0
p96
tp97
a(V(-3+1)/2
p98
V0
p99
tp100
a(V(-3+2)/2
p101
V0
p102
tp103
a(V(-1+4)/2
p104
V0
p105
tp106
a(V(-2+0)/2
p107
V0
p108
tp109
a(V(-3+-1)/2
p110
V0
p111
tp112
a(V(-1+4)/2
p113
V0
p114
tp115
a(V(-2+0)/2
p116
V0
p117
tp118
a(V(-2+4)/2
p119
V0
p120
tp121
a(V(-1+3)/2
p122
V2
p123
tp124
a(V(-3+2)/2
p125
V0
p126
tp127
a(V(-2+4)/2
p128
V2
p129
tp130
a(V(-3+0)/2
p131
V0
p132
tp133
a(V(-1+5)/2
p134
V0
p135
tp136
a(V(-1+3)/2
p137
V0
p138
tp139
a(V(-3+0)/2
p140
V0
p141
tp142
a(g140
V0
p143
tp144
a(V(-3+0)/2
p145
V0
p146
tp147
a(V(-1+5)/2
p148
V0
p149
tp150
a(V(-1+1)/2
p151
V1
p152
tp153
a(V(-3+0)/2
p154
V0
p155
tp156
a(V(-3+-1)/2
p157
V0
p158
tp159
a(V(-2+3)/2
p160
V1
p161
tp162
a(g160
V1
p163
tp164
a(V(-1+3)/2
p165
V0
p166
tp167
a(V(-3+-1)/2
p168
V0
p169
tp170
a(V(-3+2)/2
p171
V0
p172
tp173
a(V(-2+1)/2
p174
V0
p175
tp176
a(g168
V0
p177
tp178
a(g168
V0
p179
tp180
a(V(-3+0)/2
p181
V0
p182
tp183
a(V(-3+1)/2
p184
V0
p185
tp186
a(V(-3+2)/2
p187
V0
p188
tp189
a(V(-1+4)/2
p190
V2
p191
tp192
a(g190
V0
p193
tp194
a(V(-1+5)/2
p195
V0
p196
tp197
a(g195
V360
p198
tp199
a(V(-1+2)/2
p200
V2500
p201
tp202
a(g200
V0
p203
tp204
a(g195
V5
p205
tp206
a(V(-3+0)/2
p207
V0
p208
tp209
a(V(-1+4)/2
p210
V4
p211
tp212
a(g210
V210
p213
tp214
a(g210
V5
p215
tp216
a(g195
V0
p217
tp218
a(g210
V0
p219
tp220
a(g210
V3
p221
tp222
a(g210
V2
p223
tp224
a(V(-2+1)/2
p225
V0
p226
tp227
a(V(-1+2)/2
p228
V0
p229
tp230
a(g225
V0
p231
tp232
a(V(-3+2)/2
p233
V0
p234
tp235
a(g195
V1
p236
tp237
asS"['R.0.0']"
p238
(lp239
(V(-1+2)/2
p240
V(-1+1)/2
p241
(lp242
(S'R.0.0'
p243
F-1.0
V-1
p244
V-1
p245
tp246
aVmroknich
p247
(lp248
(V$n1
p249
V410
p250
tp251
a(V$lambda
p252
V0.3
p253
tp254
a(V$n2
p255
V360
p256
tp257
a(V$b
p258
V2
p259
tp260
a(V$a
p261
V-1
p262
tp263
aV2015-11-01 21:47:33
p264
tp265
asS"['R.1']"
p266
(lp267
(g80
V7/2
p268
(lp269
(S'R.1'
p270
F2.0
V2
p271
g271
tp272
aVmtrafeca
p273
(lp274
(V$n1
p275
V240
p276
tp277
a(V$lambda
p278
V0.8
p279
tp280
a(V$n2
p281
V250
p282
tp283
a(V$b
p284
V4
p285
tp286
a(V$a
p287
V-1
p288
tp289
aV2015-11-05 21:58:08
p290
tp291
a(g80
V7/2
p292
(lp293
(S'R.1'
p294
F2.0
g271
g271
tp295
aVmtrafeca
p296
g274
V2015-11-05 22:06:16
p297
tp298
a(V(-3+-1)/2
p299
V(1-3)/2
p300
(lp301
(S'R.1'
p302
F2.0
g271
g271
tp303
aVkvass
p304
(lp305
(V$n1
p306
V310
p307
tp308
a(V$lambda
p309
V0.6
p310
tp311
a(V$n2
p312
V500
p313
tp314
a(V$b
p315
V-1
p316
tp317
a(V$a
p318
V-3
p319
tp320
aV2015-11-06 23:12:58
p321
tp322
a(g195
V360/2
p323
(lp324
(S'R.1'
p325
F2.0
g271
g271
tp326
aVasp025
p327
(lp328
(V$n1
p329
V360
p330
tp331
a(V$lambda
p332
V0.7
p333
tp334
a(V$n2
p335
V170
p336
tp337
a(V$b
p338
V5
p339
tp340
a(V$a
p341
V-1
p342
tp343
aV2015-11-07 00:30:45
p344
tp345
asS"['R.0.0', 'R.1']"
p346
(lp347
(g299
V(-3+1)/2
p348
(lp349
(S'R.0.0'
p350
F-3.0
V-3
p351
V-3
p352
tp353
a(S'R.1'
p354
F2.0
g271
g271
tp355
aVkvass
p356
g305
V2015-11-06 23:13:33
p357
tp358
asS'Wrong_Sign'
p359
(lp360
(V(-2+1)/2
p361
V.4
p362
tp363
a(g20
V1
p364
tp365
a(g23
V-.04
p366
tp367
a(g23
V-.045
p368
tp369
a(g23
V-.05
p370
tp371
a(g23
V-.03
p372
tp373
a(g23
V-.06
p374
tp375
a(V(-2+1)/2
p376
V3/2
p377
tp378
a(g23
V-.07
p379
tp380
a(g23
V-.04
p381
tp382
a(V(-3+1)/2
p383
V-1-sqrt(24)
p384
tp385
a(g32
V-1
p386
tp387
a(V(-3+-1)/2
p388
V(-2-1)/2
p389
tp390
a(g29
V1/2
p391
tp392
a(g23
V-.01
p393
tp394
a(g47
V2.5
p395
tp396
a(g47
V2.5
p397
tp398
a(g47
V2.5
p399
tp400
a(g65
V-1
p401
tp402
a(V(-2+3)/2
p403
V-2
p404
tp405
a(g74
V-1
p406
tp407
a(g383
V430/4
p408
tp409
a(g383
V2*430/4
p410
tp411
a(g17
V-.5
p412
tp413
a(g29
V1
p414
tp415
a(V(-1+3)/2
p416
V-1
p417
tp418
a(g62
V1
p419
tp420
a(g62
V.5
p421
tp422
a(g62
V5
p423
tp424
a(g86
V1/4
p425
tp426
a(g171
V3
p427
tp428
a(V(-1+5)/2
p429
V-1/2
p430
tp431
a(V(-2+4)/2
p432
V-2
p433
tp434
a(g432
V-1
p435
tp436
a(V(-2+0)/2
p437
V150
p438
tp439
a(g116
V-2-sqrt(3)
p440
tp441
a(g157
V490
p442
tp443
a(V(-2+0)/2
p444
V1
p445
tp446
a(V(-1+2)/2
p447
V-1
p448
tp449
a(g110
V2
p450
tp451
a(g113
V-1
p452
tp453
a(g116
V480
p454
tp455
a(g116
V8
p456
tp457
a(g116
V0.2
p458
tp459
a(g116
V0.003
p460
tp461
a(g116
V0.0000001
p462
tp463
a(g116
V0.002
p464
tp465
a(g116
V0.001
p466
tp467
a(g116
V0.00005
p468
tp469
a(g116
V0.0455
p470
tp471
a(g116
V0.00005
p472
tp473
a(V(-3+1)/2
p474
V2/2
p475
tp476
a(g128
V-0.25
p477
tp478
a(g128
V-0.50
p479
tp480
a(g125
V0.5
p481
tp482
a(V(-3+2)/2
p483
V1.5
p484
tp485
a(g134
V-1
p486
tp487
a(g140
V3
p488
tp489
a(g145
V0.2
p490
tp491
a(g145
V1.25
p492
tp493
a(g154
V3/2
p494
tp495
a(g140
V1/3
p496
tp497
a(g140
Vsqrt(3^2/12)
p498
tp499
a(g154
V2.5
p500
tp501
a(g154
V10.0
p502
tp503
a(V(-3+2)/2
p504
V1.11
p505
tp506
a(g160
V-2
p507
tp508
a(g116
V1.97
p509
tp510
a(V(-1+4)/2
p511
V-1
p512
tp513
a(g116
V1
p514
tp515
a(g116
V2
p516
tp517
a(g116
V3
p518
tp519
a(V(-3+-1)/2
p520
V1/0.5
p521
tp522
a(V(-3+-1)/2
p523
V1/1
p524
tp525
a(g523
V4
p526
tp527
a(g523
V2
p528
tp529
a(V(-3+-1)/2
p530
V2500
p531
tp532
a(g168
V1
p533
tp534
a(g168
V2
p535
tp536
a(g168
V3
p537
tp538
a(g168
V4
p539
tp540
a(g168
V5
p541
tp542
a(g168
V6
p543
tp544
a(g168
V7
p545
tp546
a(g168
V8
p547
tp548
a(g168
V9
p549
tp550
a(g168
V10
p551
tp552
a(g174
V1
p553
tp554
a(g174
V2
p555
tp556
a(g174
V1.5
p557
tp558
a(g168
V0.03
p559
tp560
a(g174
V3
p561
tp562
a(g174
V100
p563
tp564
a(g181
V1
p565
tp566
a(g299
V(-1+3)/2
p567
tp568
a(g187
V1
p569
tp570
a(g187
V5
p571
tp572
a(V(-3+-1)/2
p573
V1
p574
tp575
a(g195
V-1
p576
tp577
a(V(-3+0)/2
p578
V3/2
p579
tp580
a(g195
V-360
p581
tp582
a(g195
V-1
p583
tp584
a(g210
V-1
p585
tp586
a(g195
V-3
p587
tp588
a(V(-3+1)/2
p589
V4/2
p590
tp591
a(g589
V3/2
p592
tp593
a(g210
V-1
p594
tp595
a(g225
V1
p596
tp597
a(g233
V1
p598
tp599
asS'Fraction'
p600
(lp601
(V(-2+2)/2
p602
V0.01
p603
tp604
a(V(-2+4)/2
p605
V1.01
p606
tp607
a(V(-3+3)/2
p608
V.01
p609
tp610
a(g14
V.5
p611
tp612
a(g14
V.2
p613
tp614
a(g14
V.3
p615
tp616
a(g14
V.25
p617
tp618
a(g20
V1/-2
p619
tp620
a(V(-2+0)/2
p621
V-(1/2)*12^(1/2)
p622
tp623
a(g383
V-5.90
p624
tp625
a(V(-3+1)/2
p626
V-.2
p627
tp628
a(V(-2+0)/2
p629
V-.1
p630
tp631
a(g65
V1.5
p632
tp633
a(g65
V3.25
p634
tp635
a(g65
V1.8
p636
tp637
a(g65
V1.7
p638
tp639
a(g65
V1.6
p640
tp641
a(V(-2+4)/2
p642
V1.5
p643
tp644
a(g642
V1.425
p645
tp646
a(g74
V2.5
p647
tp648
a(V(-2+2)/2
p649
V.5
p650
tp651
a(V(-3+3)/2
p652
V.012
p653
tp654
a(g652
V.01
p655
tp656
a(g652
V.02
p657
tp658
a(g652
V.01
p659
tp660
a(g652
V.011
p661
tp662
a(V(-1+5)/2
p663
V0.4
p664
tp665
a(V(-1+5)/2
p666
V1.99
p667
tp668
a(g116
V-sqrt(3)
p669
tp670
a(g122
V2.7
p671
tp672
a(g151
V-sqrt(3)
p673
tp674
a(g128
V0.25
p675
tp676
a(g128
V0.50
p677
tp678
a(g128
V0.75
p679
tp680
a(g128
V1.25
p681
tp682
a(g128
V0.25
p683
tp684
a(g137
V0.75
p685
tp686
a(g137
V0.69
p687
tp688
a(g137
V0.50
p689
tp690
a(g137
V0.61
p691
tp692
a(g137
V0.62
p693
tp694
a(g116
V-2.5
p695
tp696
a(V(-3+3)/2
p697
V0 + sqrt(3*(1/2*36))
p698
tp699
a(g523
V-1/2
p700
tp701
a(V(-1+1)/2
p702
V0.5
p703
tp704
a(g702
V0.1
p705
tp706
a(g702
V0.2
p707
tp708
a(g702
V0.3
p709
tp710
a(g702
V0.4
p711
tp712
a(g702
V0.6
p713
tp714
a(g702
V0.7
p715
tp716
a(g702
V0.8
p717
tp718
a(g702
V0.01
p719
tp720
a(g530
V-1.73
p721
tp722
asS"['R.0.1']"
p723
(lp724
(g80
V(-1+-1+4)/2
p725
(lp726
(S'R.0.1'
p727
F4.0
V4
p728
g728
tp729
aVmtrafeca
p730
g274
V2015-11-05 22:02:47
p731
tp732
a(g80
V(-1+-1+4)/240
p733
(lp734
(S'R.0.1'
p735
F4.0
g728
g728
tp736
aVmtrafeca
p737
g274
V2015-11-05 22:03:00
p738
tp739
assV3
p740
g2
(g3
tp741
Rp742
g6
(lp743
(V1/0.1
p744
V0
p745
tp746
a(g744
V2
p747
tp748
a(g744
V3
p749
tp750
a(g744
V4
p751
tp752
a(V1/0.1
p753
V1
p754
tp755
a(V1/0.4
p756
V1
p757
tp758
a(V1/0.3
p759
V0
p760
tp761
a(V1/0.7
p762
V1
p763
tp764
a(V1/0.8
p765
V0
p766
tp767
a(g765
V1
p768
tp769
a(V1/0.1
p770
V8
p771
tp772
a(V1/0.3
p773
V10
p774
tp775
a(V1/0.8
p776
V0
p777
tp778
a(V1/0.3
p779
V0
p780
tp781
a(V1/0.3
p782
V10
p783
tp784
a(V1/0.8
p785
V0
p786
tp787
a(V1/0.8
p788
V0
p789
tp790
a(g785
V1
p791
tp792
a(V1/0.9
p793
V0
p794
tp795
a(V1/0.3
p796
V0
p797
tp798
a(V1/0.2
p799
V0
p800
tp801
a(V1/0.4
p802
V0
p803
tp804
a(V1/0.8
p805
V0
p806
tp807
a(V1/0.8
p808
V10
p809
tp810
a(g793
V1
p811
tp812
a(g793
V3
p813
tp814
a(V1/0.3
p815
V0
p816
tp817
a(V1/0.2
p818
V4
p819
tp820
a(g815
V5
p821
tp822
a(V1/0.9
p823
V1
p824
tp825
a(g799
V1
p826
tp827
a(g799
V2
p828
tp829
a(V1/0.2
p830
V0
p831
tp832
a(V1/0.1
p833
V0
p834
tp835
a(g833
V1
p836
tp837
a(g833
V0
p838
tp839
a(g823
V1
p840
tp841
a(V1/0.7
p842
V1
p843
tp844
a(V1/0.5
p845
V0
p846
tp847
a(V1/0.9
p848
V0
p849
tp850
a(V1/0.8
p851
V12
p852
tp853
a(g851
V10
p854
tp855
a(V1/0.3
p856
V10
p857
tp858
a(V1/0.6
p859
V10
p860
tp861
a(V1/0.4
p862
V0
p863
tp864
a(g862
V10
p865
tp866
a(V1/0.1
p867
V0
p868
tp869
a(V1/0.3
p870
V10
p871
tp872
a(V1/0.9
p873
V10
p874
tp875
a(V1/0.4
p876
V0
p877
tp878
a(V1/0.5
p879
V5
p880
tp881
a(V1/0.3
p882
V0
p883
tp884
a(V1/0.5
p885
V0
p886
tp887
a(V1/0.5
p888
V0
p889
tp890
a(g888
V1
p891
tp892
a(V1/0.7
p893
V0
p894
tp895
a(g888
V0
p896
tp897
a(g893
V1
p898
tp899
asS"['R.0']"
p900
(lp901
(V1/0.4
p902
V1/.2
p903
(lp904
(S'R.0'
p905
F1.0
V1
p906
g906
tp907
aVjfalcone
p908
(lp909
(V$n1
p910
V170
p911
tp912
a(V$lambda
p913
V0.4
p914
tp915
a(V$n2
p916
V430
p917
tp918
a(V$b
p919
V0
p920
tp921
a(V$a
p922
V-3
p923
tp924
aV2015-11-05 06:11:19
p925
tp926
a(g802
V1/0.16
p927
(lp928
(S'R.0'
p929
F1.0
g906
g906
tp930
aVhkhodada
p931
(lp932
(V$n1
p933
V110
p934
tp935
a(V$lambda
p936
V0.4
p937
tp938
a(V$n2
p939
V250
p940
tp941
a(V$b
p942
V2
p943
tp944
a(V$a
p945
V-2
p946
tp947
aV2015-11-05 23:41:05
p948
tp949
asS"['R.1']"
p950
(lp951
(g859
V10/0.6
p952
(lp953
(S'R.1'
p954
F0.6
V0.6
p955
V0.6
p956
tp957
aVjag028
p958
(lp959
(V$n1
p960
V290
p961
tp962
a(V$lambda
p963
V0.6
p964
tp965
a(V$n2
p966
V380
p967
tp968
a(V$b
p969
V0
p970
tp971
a(V$a
p972
V-3
p973
tp974
aV2015-11-06 17:43:04
p975
tp976
a(V1/0.3
p977
V110*.3
p978
(lp979
(S'R.1'
p980
F0.3
V0.3
p981
V.3
p982
tp983
aVvsamant
p984
(lp985
(V$n1
p986
V350
p987
tp988
a(V$lambda
p989
V0.3
p990
tp991
a(V$n2
p992
V110
p993
tp994
a(V$b
p995
V0
p996
tp997
a(V$a
p998
V-3
p999
tp1000
aV2015-11-06 19:24:48
p1001
tp1002
asg359
(lp1003
(g744
V-1
p1004
tp1005
a(g765
V.5(-2+0)
p1006
tp1007
a(g765
V-1
p1008
tp1009
a(g977
V-.3
p1010
tp1011
a(g815
V-2
p1012
tp1013
a(g815
V-1
p1014
tp1015
a(V1/0.6
p1016
V-1.65
p1017
tp1018
a(g1016
V-1.60
p1019
tp1020
a(g1016
V-1.65
p1021
tp1022
a(g977
V-110*.3
p1023
tp1024
a(V1/0.6
p1025
V-.5
p1026
tp1027
a(g867
V-4
p1028
tp1029
a(V1/0.8
p1030
V-1.0
p1031
tp1032
asg600
(lp1033
(V1/0.1
p1034
V.1
p1035
tp1036
a(g799
V1.75
p1037
tp1038
a(g818
V4.95
p1039
tp1040
a(g818
V4.93
p1041
tp1042
a(g818
V4.94
p1043
tp1044
a(g818
V4.92
p1045
tp1046
a(g818
V4.91
p1047
tp1048
a(g818
V4.90
p1049
tp1050
a(g818
V4.8
p1051
tp1052
a(V1/0.2
p1053
V4.5
p1054
tp1055
a(g1053
V4.9
p1056
tp1057
a(g799
V.5
p1058
tp1059
a(V1/0.1
p1060
V1.43
p1061
tp1062
a(V1/0.2
p1063
V.5
p1064
tp1065
a(V1/0.5
p1066
V0.5
p1067
tp1068
a(V1/0.5
p1069
V1/(440((0.5)^2))
p1070
tp1071
a(g1069
V1/((0.5)*440)
p1072
tp1073
a(g1069
V1/((0.5^2)*440)
p1074
tp1075
a(g1069
Vsqrt(1/((0.5^2)*440))
p1076
tp1077
a(g1069
Vsqrt(1/((0.5)*440))
p1078
tp1079
a(V1/0.5
p1080
V1/380
p1081
tp1082
a(V1/0.2
p1083
V1.66
p1084
tp1085
assV2
p1086
g2
(g3
tp1087
Rp1088
g6
(lp1089
(Vsqrt((2--2)^2/12/130)
p1090
V1
p1091
tp1092
a(g1090
V0
p1093
tp1094
a(g1090
V2
p1095
tp1096
a(g1090
V1
p1097
tp1098
a(g1090
V3
p1099
tp1100
a(g1090
V4
p1101
tp1102
a(g1090
V3
p1103
tp1104
a(Vsqrt((3--1)^2/12/260)
p1105
V1
p1106
tp1107
a(Vsqrt((2--2)^2/12/100)
p1108
V1
p1109
tp1110
a(Vsqrt((3--2)^2/12/340)
p1111
V340
p1112
tp1113
a(Vsqrt((0--2)^2/12/380)
p1114
V1
p1115
tp1116
a(Vsqrt((3--1)^2/12/370)
p1117
V1
p1118
tp1119
a(Vsqrt((3--3)^2/12/250)
p1120
V1
p1121
tp1122
a(g1120
V3
p1123
tp1124
a(g1120
V0
p1125
tp1126
a(Vsqrt((1--2)^2/12/110)
p1127
V1
p1128
tp1129
a(Vsqrt((5--1)^2/12/300)
p1130
V1
p1131
tp1132
a(Vsqrt((1--2)^2/12/210)
p1133
V1
p1134
tp1135
a(Vsqrt((2--1)^2/12/480)
p1136
V1
p1137
tp1138
a(Vsqrt((0--2)^2/12/140)
p1139
V1
p1140
tp1141
a(g1139
V0
p1142
tp1143
a(Vsqrt((3--2)^2/12/440)
p1144
V1
p1145
tp1146
a(Vsqrt((1--3)^2/12/360)
p1147
V1
p1148
tp1149
a(Vsqrt((1--1)^2/12/210)
p1150
V1
p1151
tp1152
a(Vsqrt((0--2)^2/12/370)
p1153
V1
p1154
tp1155
a(Vsqrt((1--3)^2/12/430)
p1156
V1
p1157
tp1158
a(g1156
V2
p1159
tp1160
a(g1156
V1
p1161
tp1162
a(Vsqrt((1--3)^2/12/420)
p1163
V1
p1164
tp1165
a(Vsqrt((0--2)^2/12/430)
p1166
V0
p1167
tp1168
a(Vsqrt((0--3)^2/12/350)
p1169
V2
p1170
tp1171
a(g1169
V3
p1172
tp1173
a(g1169
V1
p1174
tp1175
a(Vsqrt((-1--3)^2/12/400)
p1176
V1
p1177
tp1178
a(g1169
V0
p1179
tp1180
a(g1176
V3
p1181
tp1182
a(g1169
V350
p1183
tp1184
a(Vsqrt((5--1)^2/12/460)
p1185
V5
p1186
tp1187
a(g1185
V1
p1188
tp1189
a(g1185
V1
p1190
tp1191
a(Vsqrt((1--1)^2/12/130)
p1192
V0
p1193
tp1194
a(g1192
V1
p1195
tp1196
a(Vsqrt((2--2)^2/12/320)
p1197
V1
p1198
tp1199
a(Vsqrt((3--2)^2/12/140)
p1200
V1
p1201
tp1202
a(g1200
V35
p1203
tp1204
a(Vsqrt((-1--3)^2/12/150)
p1205
V1
p1206
tp1207
a(Vsqrt((4--2)^2/12/300)
p1208
V1
p1209
tp1210
a(g1176
V1
p1211
tp1212
a(g1176
V2
p1213
tp1214
a(g1176
V3
p1215
tp1216
a(Vsqrt((4--1)^2/12/330)
p1217
V1
p1218
tp1219
a(Vsqrt((-1--3)^2/12/290)
p1220
V1
p1221
tp1222
a(Vsqrt((0--2)^2/12/240)
p1223
V60
p1224
tp1225
a(Vsqrt((3--3)^2/12/370)
p1226
V1
p1227
tp1228
a(g1226
V0
p1229
tp1230
a(g1226
V2
p1231
tp1232
a(Vsqrt((3--3)^2/12/210)
p1233
V0
p1234
tp1235
a(Vsqrt((1--2)^2/12/420)
p1236
V1
p1237
tp1238
a(Vsqrt((1--2)^2/12/390)
p1239
V0
p1240
tp1241
a(Vsqrt((5--1)^2/12/370)
p1242
V5
p1243
tp1244
a(g1242
V1
p1245
tp1246
a(Vsqrt((3--2)^2/12/340)
p1247
V3
p1248
tp1249
a(Vsqrt((3--2)^2/12/110)
p1250
V0
p1251
tp1252
a(Vsqrt((1--3)^2/12/460)
p1253
V1
p1254
tp1255
a(Vsqrt((2--2)^2/12/110)
p1256
V1
p1257
tp1258
a(g1256
V4
p1259
tp1260
a(Vsqrt((0--3)^2/12/210)
p1261
V1
p1262
tp1263
a(Vsqrt((3--3)^2/12/160)
p1264
V1
p1265
tp1266
a(Vsqrt((0--3)^2/12/450)
p1267
V1
p1268
tp1269
a(g1267
V4
p1270
tp1271
a(Vsqrt((1--1)^2/12/200)
p1272
V4
p1273
tp1274
a(g1272
V3
p1275
tp1276
a(Vsqrt((5--1)^2/12/100)
p1277
V5
p1278
tp1279
a(g1156
V2
p1280
tp1281
a(g1277
V1
p1282
tp1283
a(Vsqrt((4--2)^2/12/130)
p1284
V0
p1285
tp1286
a(g1277
V250
p1287
tp1288
a(g1153
V0
p1289
tp1290
a(Vsqrt((3--1)^2/12/230)
p1291
V3
p1292
tp1293
a(g1153
V1
p1294
tp1295
a(g1153
V2
p1296
tp1297
a(Vsqrt((5--1)^2/12/170)
p1298
V1
p1299
tp1300
a(g1298
V2
p1301
tp1302
a(g1298
V0
p1303
tp1304
a(g1298
V1
p1305
tp1306
a(g1298
V3
p1307
tp1308
a(g1298
V4
p1309
tp1310
a(g1298
V5
p1311
tp1312
a(g1298
V2
p1313
tp1314
a(g1239
V1
p1315
tp1316
a(g1239
V5
p1317
tp1318
a(g1239
V9
p1319
tp1320
a(g1239
V1
p1321
tp1322
a(Vsqrt((2--2)^2/12/430)
p1323
V1
p1324
tp1325
a(g1323
V4
p1326
tp1327
a(Vsqrt((2--3)^2/12/370)
p1328
V2
p1329
tp1330
a(g1323
V0
p1331
tp1332
a(g1323
V7
p1333
tp1334
a(Vsqrt((1--3)^2/12/440)
p1335
V1
p1336
tp1337
a(g1200
V70
p1338
tp1339
a(Vsqrt((4--2)^2/12/260)
p1340
V4
p1341
tp1342
a(Vsqrt((1--1)^2/12/240)
p1343
V1
p1344
tp1345
a(g1256
V1
p1346
tp1347
a(g1343
V3
p1348
tp1349
a(g1200
V0
p1350
tp1351
a(Vsqrt((1--3)^2/12/400)
p1352
V0
p1353
tp1354
a(g1352
V1
p1355
tp1356
a(g1352
V0
p1357
tp1358
a(g1352
V0
p1359
tp1360
a(g1352
V0
p1361
tp1362
a(g1352
V1
p1363
tp1364
a(g1352
V0
p1365
tp1366
a(Vsqrt((0--2)^2/12/480)
p1367
V0
p1368
tp1369
a(Vsqrt((-1--3)^2/12/490)
p1370
V1
p1371
tp1372
a(Vsqrt((3--3)^2/12/280)
p1373
V1
p1374
tp1375
a(g1370
V0
p1376
tp1377
a(g1373
V0
p1378
tp1379
a(g1370
V490
p1380
tp1381
a(Vsqrt((2--3)^2/12/340)
p1382
V1
p1383
tp1384
a(g1382
V0
p1385
tp1386
a(g1382
V1
p1387
tp1388
a(g1239
V1
p1389
tp1390
a(Vsqrt((4--1)^2/12/140)
p1391
V1
p1392
tp1393
a(g1298
V2
p1394
tp1395
a(g1298
V1
p1396
tp1397
a(g1298
V14
p1398
tp1399
a(g1298
V6
p1400
tp1401
a(g1298
V12
p1402
tp1403
a(g1298
V1
p1404
tp1405
a(Vsqrt((2--1)^2/12/410)
p1406
V2
p1407
tp1408
a(Vsqrt((0--2)^2/12/240)
p1409
V1
p1410
tp1411
a(Vsqrt((4--1)^2/12/140)
p1412
V4
p1413
tp1414
a(Vsqrt((3--3)^2/12/480)
p1415
V1
p1416
tp1417
a(g1415
V50
p1418
tp1419
a(g1415
V3
p1420
tp1421
a(Vsqrt((1--1)^2/12/350)
p1422
V1
p1423
tp1424
a(g1367
V4
p1425
tp1426
a(Vsqrt((4--2)^2/12/450)
p1427
V1
p1428
tp1429
a(Vsqrt((3--1)^2/12/290)
p1430
V2
p1431
tp1432
a(Vsqrt((1--1)^2/12/170)
p1433
V1
p1434
tp1435
a(g1433
V5
p1436
tp1437
a(g1433
V20
p1438
tp1439
a(Vsqrt((2--3)^2/12/220)
p1440
V1
p1441
tp1442
a(Vsqrt((4--2)^2/12/300)
p1443
V2
p1444
tp1445
a(Vsqrt((0--3)^2/12/470)
p1446
V1
p1447
tp1448
a(Vsqrt((2--3)^2/12/340)
p1449
V2
p1450
tp1451
a(Vsqrt((5--1)^2/12/410)
p1452
V1
p1453
tp1454
a(g1452
V5
p1455
tp1456
a(g1452
V2
p1457
tp1458
a(g1446
V6
p1459
tp1460
a(g1446
V0
p1461
tp1462
a(Vsqrt((0--3)^2/12/230)
p1463
V0
p1464
tp1465
a(g1463
V1
p1466
tp1467
a(Vsqrt((3--1)^2/12/200)
p1468
V1
p1469
tp1470
a(Vsqrt((0--3)^2/12/470)
p1471
V2
p1472
tp1473
a(g1471
V10
p1474
tp1475
a(g1471
V90
p1476
tp1477
a(g1433
V30
p1478
tp1479
a(Vsqrt((5--1)^2/12/400)
p1480
V1
p1481
tp1482
a(g1433
V1
p1483
tp1484
a(g1468
V1
p1485
tp1486
a(Vsqrt((2--2)^2/12/350)
p1487
V1
p1488
tp1489
a(g1169
V10
p1490
tp1491
a(g1169
V100
p1492
tp1493
a(g1169
V5
p1494
tp1495
a(g1169
V2
p1496
tp1497
a(g1169
V2
p1498
tp1499
a(g1169
V3
p1500
tp1501
a(g1169
V4
p1502
tp1503
a(g1169
V5
p1504
tp1505
a(g1169
V6
p1506
tp1507
a(Vsqrt((3--3)^2/12/350)
p1508
V3
p1509
tp1510
a(g1239
V0
p1511
tp1512
a(Vsqrt((2--3)^2/12/450)
p1513
V2
p1514
tp1515
a(Vsqrt((3--2)^2/12/220)
p1516
V2
p1517
tp1518
a(Vsqrt((4--1)^2/12/130)
p1519
V1
p1520
tp1521
a(g1343
V240
p1522
tp1523
a(g1343
V1
p1524
tp1525
a(g1343
V2
p1526
tp1527
a(g1343
V1
p1528
tp1529
a(Vsqrt((5--1)^2/12/270)
p1530
V1
p1531
tp1532
a(g1530
V2
p1533
tp1534
a(g1530
V3
p1535
tp1536
a(g1530
V4
p1537
tp1538
a(g1530
V5
p1539
tp1540
a(Vsqrt((-1--3)^2/12/490)
p1541
V20
p1542
tp1543
a(Vsqrt((1--2)^2/12/330)
p1544
V0
p1545
tp1546
a(g1544
V1
p1547
tp1548
a(g1544
V1
p1549
tp1550
a(g1544
V20
p1551
tp1552
a(Vsqrt((1--3)^2/12/120)
p1553
V1
p1554
tp1555
a(g1553
V0
p1556
tp1557
a(Vsqrt((1--3)^2/12/300)
p1558
V1
p1559
tp1560
a(Vsqrt((2--3)^2/12/320)
p1561
V2
p1562
tp1563
a(g1561
V5
p1564
tp1565
a(g1561
V1
p1566
tp1567
a(Vsqrt((0--2)^2/12/150)
p1568
V0
p1569
tp1570
a(Vsqrt((4--1)^2/12/100)
p1571
V1
p1572
tp1573
a(Vsqrt((5--1)^2/12/360)
p1574
V5
p1575
tp1576
a(Vsqrt((2--2)^2/12/360)
p1577
V2
p1578
tp1579
a(Vsqrt((2--1)^2/12/130)
p1580
V50
p1581
tp1582
a(g1577
V360
p1583
tp1584
a(Vsqrt((0--3)^2/12/120)
p1585
V1
p1586
tp1587
a(Vsqrt((2--2)^2/12/340)
p1588
V1
p1589
tp1590
a(g1574
V3
p1591
tp1592
a(g1574
V1
p1593
tp1594
a(g1574
V1
p1595
tp1596
a(Vsqrt((1--2)^2/12/440)
p1597
V1
p1598
tp1599
a(Vsqrt((4--1)^2/12/320)
p1600
V1
p1601
tp1602
a(Vsqrt((2--1)^2/12/460)
p1603
V1
p1604
tp1605
a(g1597
V0
p1606
tp1607
a(Vsqrt((2--3)^2/12/190)
p1608
V1
p1609
tp1610
asS"['R.0.0']"
p1611
(lp1612
(Vsqrt((1--1)^2/12/420)
p1613
V((((1-(-1))^2)/12)^(1/2))/420
p1614
(lp1615
(S'R.0.0'
p1616
F0.3333333333333333
V(1--1)^2/12
p1617
V((1-(-1))^2)/12
p1618
tp1619
aVeyhu
p1620
(lp1621
(V$n1
p1622
V420
p1623
tp1624
a(V$lambda
p1625
V0.1
p1626
tp1627
a(V$n2
p1628
V440
p1629
tp1630
a(V$b
p1631
V1
p1632
tp1633
a(V$a
p1634
V-1
p1635
tp1636
aV2015-10-30 08:47:35
p1637
tp1638
a(Vsqrt((1--2)^2/12/490)
p1639
Vsqrt(((1/12)(1+2)^2))/490
p1640
(lp1641
(S'R.0.0'
p1642
F0.75
V(1--2)^2/12
p1643
V(1/12)(1+2)^2
p1644
tp1645
aVm4salaza
p1646
(lp1647
(V$n1
p1648
V490
p1649
tp1650
a(V$lambda
p1651
V0.2
p1652
tp1653
a(V$n2
p1654
V330
p1655
tp1656
a(V$b
p1657
V1
p1658
tp1659
a(V$a
p1660
V-2
p1661
tp1662
aV2015-11-05 05:57:40
p1663
tp1664
a(Vsqrt((1--3)^2/12/160)
p1665
Vsqrt(4^2/12)/160
p1666
(lp1667
(S'R.0.0'
p1668
F1.3333333333333333
V(1--3)^2/12
p1669
V4^2/12
p1670
tp1671
aVs2chaudh
p1672
(lp1673
(V$n1
p1674
V160
p1675
tp1676
a(V$lambda
p1677
V0.5
p1678
tp1679
a(V$n2
p1680
V350
p1681
tp1682
a(V$b
p1683
V1
p1684
tp1685
a(V$a
p1686
V-3
p1687
tp1688
aV2015-11-06 06:38:36
p1689
tp1690
a(Vsqrt((4--2)^2/12/480)
p1691
V(sqrt((1/12)((4-(-2))^2)))/480
p1692
(lp1693
(S'R.0.0'
p1694
F3.0
V(4--2)^2/12
p1695
V(1/12)((4-(-2))^2)
p1696
tp1697
aVsyc078
p1698
(lp1699
(V$n1
p1700
V480
p1701
tp1702
a(V$lambda
p1703
V0.9
p1704
tp1705
a(V$n2
p1706
V350
p1707
tp1708
a(V$b
p1709
V4
p1710
tp1711
a(V$a
p1712
V-2
p1713
tp1714
aV2015-11-06 17:35:27
p1715
tp1716
a(Vsqrt((3--2)^2/12/410)
p1717
Vsqrt((3+2)^2/12) / 410
p1718
(lp1719
(S'R.0.0'
p1720
F2.0833333333333335
V(3--2)^2/12
p1721
V(3+2)^2/12
p1722
tp1723
aVhah008
p1724
(lp1725
(V$n1
p1726
V410
p1727
tp1728
a(V$lambda
p1729
V0.9
p1730
tp1731
a(V$n2
p1732
V360
p1733
tp1734
a(V$b
p1735
V3
p1736
tp1737
a(V$a
p1738
V-2
p1739
tp1740
aV2015-11-06 23:45:23
p1741
tp1742
a(Vsqrt((2--2)^2/12/230)
p1743
Vsqrt(16/12) / 230
p1744
(lp1745
(S'R.0.0'
p1746
F1.3333333333333333
V(2--2)^2/12
p1747
V16/12
p1748
tp1749
aVaurodrig
p1750
(lp1751
(V$n1
p1752
V230
p1753
tp1754
a(V$lambda
p1755
V0.9
p1756
tp1757
a(V$n2
p1758
V370
p1759
tp1760
a(V$b
p1761
V2
p1762
tp1763
a(V$a
p1764
V-2
p1765
tp1766
aV2015-11-07 00:19:34
p1767
tp1768
a(g1743
Vsqrt(16/12) / 230
p1769
(lp1770
(S'R.0.0'
p1771
F1.3333333333333333
V(2--2)^2/12
p1772
V16/12
p1773
tp1774
aVaurodrig
p1775
g1751
V2015-11-07 00:34:36
p1776
tp1777
a(Vsqrt((0--3)^2/12/100)
p1778
Vsqrt(((1.5*6)/12)/180)
p1779
(lp1780
(S'R.0.0'
p1781
F0.75
V(0--3)^2/12
p1782
V(1.5*6)/12
p1783
tp1784
aVsthapa
p1785
(lp1786
(V$n1
p1787
V100
p1788
tp1789
a(V$lambda
p1790
V0.1
p1791
tp1792
a(V$n2
p1793
V180
p1794
tp1795
a(V$b
p1796
V0
p1797
tp1798
a(V$a
p1799
V-3
p1800
tp1801
aV2015-11-07 00:42:00
p1802
tp1803
asS"['R.0.0.0.1', 'R.0.0.1', 'R.0.1']"
p1804
(lp1805
(Vsqrt((1--1)^2/12/210)
p1806
Vsqrt((-1-1)^2 /12* 210)
p1807
(lp1808
(S'R.0.0.0.1'
p1809
F2.0
g271
g271
tp1810
a(S'R.0.0.1'
p1811
F12.0
V12
p1812
V12
p1813
tp1814
a(S'R.0.1'
p1815
F210.0
V210
p1816
V210
p1817
tp1818
aVhmnaing
p1819
(lp1820
(V$n1
p1821
V210
p1822
tp1823
a(V$lambda
p1824
V0.5
p1825
tp1826
a(V$n2
p1827
V390
p1828
tp1829
a(V$b
p1830
V1
p1831
tp1832
a(V$a
p1833
V-1
p1834
tp1835
aV2015-11-06 17:39:42
p1836
tp1837
a(Vsqrt((0--3)^2/12/480)
p1838
Vsqrt((6**2/12)/480)
p1839
(lp1840
(S'R.0.0.0.1'
p1841
F2.0
g271
g271
tp1842
a(S'R.0.0.1'
p1843
F12.0
V12
p1844
V12
p1845
tp1846
a(S'R.0.1'
p1847
F480.0
V480
p1848
V480
p1849
tp1850
aVdis003
p1851
(lp1852
(V$n1
p1853
V480
p1854
tp1855
a(V$lambda
p1856
V0.8
p1857
tp1858
a(V$n2
p1859
V380
p1860
tp1861
a(V$b
p1862
V0
p1863
tp1864
a(V$a
p1865
V-3
p1866
tp1867
aV2015-11-06 23:03:13
p1868
tp1869
asS"['R.0.0.0', 'R.0.1']"
p1870
(lp1871
(Vsqrt((5--1)^2/12/190)
p1872
Vsqrt((36/10)/190)
p1873
(lp1874
(S'R.0.0.0'
p1875
F36.0
V(5--1)^2
p1876
V36
p1877
tp1878
a(S'R.0.1'
p1879
F190.0
V190
p1880
V190
p1881
tp1882
aVaadhakal
p1883
(lp1884
(V$n1
p1885
V190
p1886
tp1887
a(V$lambda
p1888
V0.9
p1889
tp1890
a(V$n2
p1891
V360
p1892
tp1893
a(V$b
p1894
V5
p1895
tp1896
a(V$a
p1897
V-1
p1898
tp1899
aV2015-11-05 22:57:17
p1900
tp1901
a(g1838
Vsqrt((3**2/6)/480)
p1902
(lp1903
(S'R.0.0.0'
p1904
F9.0
V(0--3)^2
p1905
V3**2
p1906
tp1907
a(S'R.0.1'
p1908
F480.0
V480
p1909
V480
p1910
tp1911
aVdis003
p1912
g1852
V2015-11-06 23:04:56
p1913
tp1914
asg359
(lp1915
(g1090
V-1
p1916
tp1917
a(g1139
V1/-2
p1918
tp1919
a(g1139
V-2
p1920
tp1921
a(g1139
V.5(-2+0)
p1922
tp1923
a(g1139
V-1
p1924
tp1925
a(g1176
V-1
p1926
tp1927
a(g1185
V-1
p1928
tp1929
a(g1176
V-.03
p1930
tp1931
a(g1176
V-(3/100)
p1932
tp1933
a(g1176
V-.0296
p1934
tp1935
a(g1176
V-.02
p1936
tp1937
a(g1176
V-.03
p1938
tp1939
a(Vsqrt((1--2)^2/12/370)
p1940
V(-2+1)/2 *370
p1941
tp1942
a(g1156
V-0.05
p1943
tp1944
a(g1239
V-.5
p1945
tp1946
a(g1352
V-1
p1947
tp1948
a(g1367
V-2+sqrt(3)
p1949
tp1950
a(g1239
V-.5
p1951
tp1952
a(g1422
V-0.03
p1953
tp1954
a(g1422
V-0.031
p1955
tp1956
a(g1443
V-0.25
p1957
tp1958
a(g1443
V-0.50
p1959
tp1960
a(g1440
V-0.1
p1961
tp1962
a(g1440
V-0.2
p1963
tp1964
a(g1440
V-0.15
p1965
tp1966
a(g1449
V-0.5
p1967
tp1968
a(g1446
V-2
p1969
tp1970
a(g1446
V-0.5
p1971
tp1972
a(g1446
V-0.04
p1973
tp1974
a(g1446
V-0.05
p1975
tp1976
a(g1446
V-0.3
p1977
tp1978
a(g1446
V-0.2
p1979
tp1980
a(g1446
V-0.03
p1981
tp1982
a(g1446
V-0.02
p1983
tp1984
a(g1446
V-0.040
p1985
tp1986
a(g1446
V-0.041
p1987
tp1988
a(g1446
V-0.042
p1989
tp1990
a(g1446
V-0.039
p1991
tp1992
a(g1446
V-0.038
p1993
tp1994
a(Vsqrt((0--3)^2/12/290)
p1995
V-2
p1996
tp1997
a(g1463
V-1/3
p1998
tp1999
a(g1370
V-0.25
p2000
tp2001
a(g1463
V-.15
p2002
tp2003
a(g1239
V-.05
p2004
tp2005
a(g1239
V-.04
p2006
tp2007
a(g1239
V-.045
p2008
tp2009
a(g1239
V-.043
p2010
tp2011
a(g1513
V-0.07
p2012
tp2013
a(g1513
V-0.06
p2014
tp2015
a(g1513
V-0.1
p2016
tp2017
a(Vsqrt((3--3)^2/12/200)
p2018
V-sqrt(3*(1/2*36))
p2019
tp2020
a(g2018
V-sqrt(3*(1/12*36))
p2021
tp2022
a(g2018
V200*-sqrt(3*(1/12*36))
p2023
tp2024
a(g2018
V-sqrt(3*(1/12*36*200))
p2025
tp2026
a(g1568
V-.05
p2027
tp2028
a(g1568
V-.0461
p2029
tp2030
a(g1568
V-0.472
p2031
tp2032
a(g1568
V-0.5
p2033
tp2034
a(g1568
V-0.4
p2035
tp2036
a(g1568
V-0.42
p2037
tp2038
a(g1568
V-0.43
p2039
tp2040
a(g1568
V-0.44
p2041
tp2042
a(g1568
V-0.39
p2043
tp2044
a(g1568
V-0.45
p2045
tp2046
a(Vsqrt((2--2)^2/12/160)
p2047
V-1
p2048
tp2049
asS"['R.0.0.1']"
p2050
(lp2051
(g1111
V(340/12(3+2)^2)^(1/2)
p2052
(lp2053
(S'R.0.0.1'
p2054
F12.0
V12
p2055
V12
p2056
tp2057
aVlguintu
p2058
(lp2059
(V$n1
p2060
V340
p2061
tp2062
a(V$lambda
p2063
V0.1
p2064
tp2065
a(V$n2
p2066
V440
p2067
tp2068
a(V$b
p2069
V3
p2070
tp2071
a(V$a
p2072
V-2
p2073
tp2074
aV2015-11-03 06:15:43
p2075
tp2076
a(g1111
V(340/12*(3+2)^2)^(1/2)
p2077
(lp2078
(S'R.0.0.1'
p2079
F12.0
V12
p2080
V12
p2081
tp2082
aVlguintu
p2083
g2059
V2015-11-03 06:18:51
p2084
tp2085
a(g1111
V(1/12*(5/2)^2)(340^(1/2))
p2086
(lp2087
(S'R.0.0.1'
p2088
F12.0
V12
p2089
V12
p2090
tp2091
aVlguintu
p2092
g2059
V2015-11-03 07:13:45
p2093
tp2094
a(g1111
V(1/12*(5/2)^2)/(340^(1/2))
p2095
(lp2096
(S'R.0.0.1'
p2097
F12.0
V12
p2098
V12
p2099
tp2100
aVlguintu
p2101
g2059
V2015-11-03 07:14:02
p2102
tp2103
a(g1111
V(1/12*(5/2)^2)/340
p2104
(lp2105
(S'R.0.0.1'
p2106
F12.0
V12
p2107
V12
p2108
tp2109
aVlguintu
p2110
g2059
V2015-11-03 07:14:31
p2111
tp2112
a(g1111
V(340/12*(5/2)^2)^(1/2)
p2113
(lp2114
(S'R.0.0.1'
p2115
F12.0
V12
p2116
V12
p2117
tp2118
aVlguintu
p2119
g2059
V2015-11-03 07:14:57
p2120
tp2121
a(Vsqrt((-1--3)^2/12/490)
p2122
Vsqrt(1/12(1+3)^2/490)
p2123
(lp2124
(S'R.0.0.1'
p2125
F12.0
V12
p2126
V12
p2127
tp2128
aVnhn018
p2129
(lp2130
(V$n1
p2131
V490
p2132
tp2133
a(V$lambda
p2134
V0.4
p2135
tp2136
a(V$n2
p2137
V280
p2138
tp2139
a(V$b
p2140
V-1
p2141
tp2142
a(V$a
p2143
V-3
p2144
tp2145
aV2015-11-05 06:09:48
p2146
tp2147
a(g1480
Vsqrt((1/12)(5-(-1))^2)
p2148
(lp2149
(S'R.0.0.1'
p2150
F12.0
V12
p2151
V12
p2152
tp2153
aVajvanega
p2154
(lp2155
(V$n1
p2156
V400
p2157
tp2158
a(V$lambda
p2159
V0.5
p2160
tp2161
a(V$n2
p2162
V440
p2163
tp2164
a(V$b
p2165
V5
p2166
tp2167
a(V$a
p2168
V-1
p2169
tp2170
aV2015-11-06 17:28:22
p2171
tp2172
a(g1691
Vsqrt((1/12)((4+2)^2))
p2173
(lp2174
(S'R.0.0.1'
p2175
F12.0
V12
p2176
V12
p2177
tp2178
aVsyc078
p2179
g1699
V2015-11-06 17:28:40
p2180
tp2181
a(g1480
Vsqrt((1/12)(5+(-1))^2)
p2182
(lp2183
(S'R.0.0.1'
p2184
F12.0
V12
p2185
V12
p2186
tp2187
aVajvanega
p2188
g2155
V2015-11-06 17:28:56
p2189
tp2190
a(g1691
Vsqrt((1/12)((4-(-2))^2))
p2191
(lp2192
(S'R.0.0.1'
p2193
F12.0
V12
p2194
V12
p2195
tp2196
aVsyc078
p2197
g1699
V2015-11-06 17:29:22
p2198
tp2199
a(Vsqrt((3--3)^2/12/380)
p2200
V1/12*(3-(-3))^2*sqrt(380)
p2201
(lp2202
(S'R.0.0.1'
p2203
F12.0
V12
p2204
V12
p2205
tp2206
aVtjke
p2207
(lp2208
(V$n1
p2209
V380
p2210
tp2211
a(V$lambda
p2212
V0.8
p2213
tp2214
a(V$n2
p2215
V180
p2216
tp2217
a(V$b
p2218
V3
p2219
tp2220
a(V$a
p2221
V-3
p2222
tp2223
aV2015-11-06 18:04:05
p2224
tp2225
a(g2200
Vsqrt(1/12*(3-(-3))^2)
p2226
(lp2227
(S'R.0.0.1'
p2228
F12.0
V12
p2229
V12
p2230
tp2231
aVtjke
p2232
g2208
V2015-11-06 18:09:54
p2233
tp2234
a(g1468
V[(1/12 * [(3 - (-1))^0.5])]^0.5
p2235
(lp2236
(S'R.0.0.1'
p2237
F12.0
V12
p2238
V12
p2239
tp2240
aVyos017
p2241
(lp2242
(V$n1
p2243
V200
p2244
tp2245
a(V$lambda
p2246
V0.5
p2247
tp2248
a(V$n2
p2249
V270
p2250
tp2251
a(V$b
p2252
V3
p2253
tp2254
a(V$a
p2255
V-1
p2256
tp2257
aV2015-11-06 19:10:03
p2258
tp2259
a(g1468
V[(1/12 * [(3 - (-1))^2])]^0.5
p2260
(lp2261
(S'R.0.0.1'
p2262
F12.0
V12
p2263
V12
p2264
tp2265
aVyos017
p2266
g2242
V2015-11-06 19:10:43
p2267
tp2268
a(g1778
Vsqrt((36/12)/180)
p2269
(lp2270
(S'R.0.0.1'
p2271
F12.0
V12
p2272
V12
p2273
tp2274
aVsthapa
p2275
g1786
V2015-11-07 00:20:39
p2276
tp2277
asS"['R.0.0.0.0.0']"
p2278
(lp2279
(g1717
Vsqrt((3+2)^1/6) / 410
p2280
(lp2281
(S'R.0.0.0.0.0'
p2282
F3.0
V3
p2283
g2283
tp2284
aVhah008
p2285
g1725
V2015-11-06 23:45:11
p2286
tp2287
asS"['R.0.1']"
p2288
(lp2289
(Vsqrt((0--3)^2/12/500)
p2290
Vsqrt((3)^(2/12)/500)
p2291
(lp2292
(S'R.0.1'
p2293
F500.0
V500
p2294
V500
p2295
tp2296
aVjcl084
p2297
(lp2298
(V$n1
p2299
V500
p2300
tp2301
a(V$lambda
p2302
V0.8
p2303
tp2304
a(V$n2
p2305
V410
p2306
tp2307
a(V$b
p2308
V0
p2309
tp2310
a(V$a
p2311
V-3
p2312
tp2313
aV2015-11-02 20:35:48
p2314
tp2315
a(Vsqrt((4--2)^2/12/350)
p2316
Vsqrt((6^(2/12))/350)
p2317
(lp2318
(S'R.0.1'
p2319
F350.0
V350
p2320
V350
p2321
tp2322
aVspw006
p2323
(lp2324
(V$n1
p2325
V350
p2326
tp2327
a(V$lambda
p2328
V0.9
p2329
tp2330
a(V$n2
p2331
V190
p2332
tp2333
a(V$b
p2334
V4
p2335
tp2336
a(V$a
p2337
V-2
p2338
tp2339
aV2015-11-04 03:57:19
p2340
tp2341
a(Vsqrt((3--1)^2/12/220)
p2342
Vsqrt(4/220)
p2343
(lp2344
(S'R.0.1'
p2345
F220.0
V220
p2346
V220
p2347
tp2348
aVjnatale
p2349
(lp2350
(V$n1
p2351
V220
p2352
tp2353
a(V$lambda
p2354
V0.8
p2355
tp2356
a(V$n2
p2357
V320
p2358
tp2359
a(V$b
p2360
V3
p2361
tp2362
a(V$a
p2363
V-1
p2364
tp2365
aV2015-11-05 01:13:13
p2366
tp2367
a(g2342
Vsqrt(4^2/220)
p2368
(lp2369
(S'R.0.1'
p2370
F220.0
V220
p2371
V220
p2372
tp2373
aVjnatale
p2374
g2350
V2015-11-05 01:14:55
p2375
tp2376
a(g1323
V0.25*430/7
p2377
(lp2378
(S'R.0.1'
p2379
F430.0
V430
p2380
V430
p2381
tp2382
aVyil035
p2383
(lp2384
(V$n1
p2385
V430
p2386
tp2387
a(V$lambda
p2388
V0.2
p2389
tp2390
a(V$n2
p2391
V250
p2392
tp2393
a(V$b
p2394
V2
p2395
tp2396
a(V$a
p2397
V-2
p2398
tp2399
aV2015-11-05 23:01:42
p2400
tp2401
a(g1256
Vsqrt(1/110)
p2402
(lp2403
(S'R.0.1'
p2404
F110.0
V110
p2405
V110
p2406
tp2407
aVhkhodada
p2408
g932
V2015-11-05 23:14:32
p2409
tp2410
a(Vsqrt((1--1)^2/12/210)
p2411
V((2^(1/6))/210)^(1/2)
p2412
(lp2413
(S'R.0.1'
p2414
F210.0
V210
p2415
V210
p2416
tp2417
aVanislam
p2418
(lp2419
(V$n1
p2420
V210
p2421
tp2422
a(V$lambda
p2423
V0.5
p2424
tp2425
a(V$n2
p2426
V480
p2427
tp2428
a(V$b
p2429
V1
p2430
tp2431
a(V$a
p2432
V-1
p2433
tp2434
aV2015-11-05 23:55:16
p2435
tp2436
a(Vsqrt((3--2)^2/12/320)
p2437
Vsqrt(5^(2/12)/320)
p2438
(lp2439
(S'R.0.1'
p2440
F320.0
V320
p2441
V320
p2442
tp2443
aVsghouse
p2444
(lp2445
(V$n1
p2446
V320
p2447
tp2448
a(V$lambda
p2449
V0.8
p2450
tp2451
a(V$n2
p2452
V480
p2453
tp2454
a(V$b
p2455
V3
p2456
tp2457
a(V$a
p2458
V-2
p2459
tp2460
aV2015-11-06 03:11:56
p2461
tp2462
a(Vsqrt((-1--3)^2/12/310)
p2463
Vsqrt(4/310)
p2464
(lp2465
(S'R.0.1'
p2466
F310.0
V310
p2467
V310
p2468
tp2469
aVdcastlem
p2470
(lp2471
(V$n1
p2472
V310
p2473
tp2474
a(V$lambda
p2475
V0.6
p2476
tp2477
a(V$n2
p2478
V240
p2479
tp2480
a(V$b
p2481
V-1
p2482
tp2483
a(V$a
p2484
V-3
p2485
tp2486
aV2015-11-06 04:15:53
p2487
tp2488
a(Vsqrt((3--2)^2/12/370)
p2489
V(1/370) * ((1/12(-2-3)2))
p2490
(lp2491
(S'R.0.1'
p2492
F370.0
V370
p2493
V370
p2494
tp2495
aVjhw015
p2496
(lp2497
(V$n1
p2498
V370
p2499
tp2500
a(V$lambda
p2501
V0.5
p2502
tp2503
a(V$n2
p2504
V380
p2505
tp2506
a(V$b
p2507
V3
p2508
tp2509
a(V$a
p2510
V-2
p2511
tp2512
aV2015-11-06 18:08:32
p2513
tp2514
a(g2489
V(1/370) * (1/12(-2-3)2)
p2515
(lp2516
(S'R.0.1'
p2517
F370.0
V370
p2518
V370
p2519
tp2520
aVjhw015
p2521
g2497
V2015-11-06 18:08:41
p2522
tp2523
a(g2489
V(1/370) * (1/12(-2-3)^2)
p2524
(lp2525
(S'R.0.1'
p2526
F370.0
V370
p2527
V370
p2528
tp2529
aVjhw015
p2530
g2497
V2015-11-06 18:08:52
p2531
tp2532
a(g1169
V(9/350)^(1/2)
p2533
(lp2534
(S'R.0.1'
p2535
F350.0
V350
p2536
V350
p2537
tp2538
aVvsamant
p2539
g985
V2015-11-06 19:21:35
p2540
tp2541
a(g1717
Vsqrt(((3+2)^(2/12)) / 410)
p2542
(lp2543
(S'R.0.1'
p2544
F410.0
V410
p2545
V410
p2546
tp2547
aVhah008
p2548
g1725
V2015-11-06 23:46:37
p2549
tp2550
a(g1717
Vsqrt(((3+2)**(2/12)) / 410)
p2551
(lp2552
(S'R.0.1'
p2553
F410.0
V410
p2554
V410
p2555
tp2556
aVhah008
p2557
g1725
V2015-11-06 23:47:14
p2558
tp2559
asS"['R.0.0.1', 'R.0.1']"
p2560
(lp2561
(Vsqrt((4--1)^2/12/240)
p2562
Vsqrt((5/12)/240)
p2563
(lp2564
(S'R.0.0.1'
p2565
F12.0
V12
p2566
V12
p2567
tp2568
a(S'R.0.1'
p2569
F240.0
V240
p2570
V240
p2571
tp2572
aVmtrafeca
p2573
g274
V2015-11-05 22:09:18
p2574
tp2575
a(Vsqrt((-1--3)^2/12/170)
p2576
Vsqrt(25/12/170)
p2577
(lp2578
(S'R.0.0.1'
p2579
F12.0
V12
p2580
V12
p2581
tp2582
a(S'R.0.1'
p2583
F170.0
V170
p2584
V170
p2585
tp2586
aVbpandayk
p2587
(lp2588
(V$n1
p2589
V170
p2590
tp2591
a(V$lambda
p2592
V0.2
p2593
tp2594
a(V$n2
p2595
V130
p2596
tp2597
a(V$b
p2598
V-1
p2599
tp2600
a(V$a
p2601
V-3
p2602
tp2603
aV2015-11-06 21:39:16
p2604
tp2605
a(g1778
Vsqrt((36/12)/100)
p2606
(lp2607
(S'R.0.0.1'
p2608
F12.0
V12
p2609
V12
p2610
tp2611
a(S'R.0.1'
p2612
F100.0
V100
p2613
V100
p2614
tp2615
aVsthapa
p2616
g1786
V2015-11-07 00:14:51
p2617
tp2618
a(g1778
Vsqrt((18/12)/100)
p2619
(lp2620
(S'R.0.0.1'
p2621
F12.0
V12
p2622
V12
p2623
tp2624
a(S'R.0.1'
p2625
F100.0
V100
p2626
V100
p2627
tp2628
aVsthapa
p2629
g1786
V2015-11-07 00:18:17
p2630
tp2631
a(g1778
Vsqrt((36/12)/100)
p2632
(lp2633
(S'R.0.0.1'
p2634
F12.0
V12
p2635
V12
p2636
tp2637
a(S'R.0.1'
p2638
F100.0
V100
p2639
V100
p2640
tp2641
aVsthapa
p2642
g1786
V2015-11-07 00:20:10
p2643
tp2644
a(Vsqrt((1--3)^2/12/330)
p2645
Vsqrt((36/12)/330)
p2646
(lp2647
(S'R.0.0.1'
p2648
F12.0
V12
p2649
V12
p2650
tp2651
a(S'R.0.1'
p2652
F330.0
V330
p2653
V330
p2654
tp2655
aVagian
p2656
(lp2657
(V$n1
p2658
V330
p2659
tp2660
a(V$lambda
p2661
V0.7
p2662
tp2663
a(V$n2
p2664
V330
p2665
tp2666
a(V$b
p2667
V1
p2668
tp2669
a(V$a
p2670
V-3
p2671
tp2672
aV2015-11-07 00:39:29
p2673
tp2674
asS"['R']"
p2675
(lp2676
(g2122
Vsqrt(1/12(-1-3)^2/490)
p2677
(lp2678
(S'R'
p2679
F0.03912303982179758
g2122
g2677
tp2680
aVnhn018
p2681
g2130
V2015-11-05 06:10:42
p2682
tp2683
assV4
p2684
g2
(g3
tp2685
Rp2686
g6
(lp2687
(Vsqrt(1/(0.1^2)/240)
p2688
V1
p2689
tp2690
a(g2688
V0
p2691
tp2692
a(g2688
V2
p2693
tp2694
a(g2688
V3
p2695
tp2696
a(g2688
V4
p2697
tp2698
a(Vsqrt(1/(0.1^2)/440)
p2699
V440
p2700
tp2701
a(Vsqrt(1/(0.4^2)/150)
p2702
V2
p2703
tp2704
a(Vsqrt(1/(0.1^2)/110)
p2705
V1
p2706
tp2707
a(Vsqrt(1/(0.7^2)/100)
p2708
V1
p2709
tp2710
a(Vsqrt(1/(0.8^2)/200)
p2711
V1
p2712
tp2713
a(g2711
V0
p2714
tp2715
a(Vsqrt(1/(0.4^2)/460)
p2716
V5
p2717
tp2718
a(Vsqrt(1/(0.1^2)/110)
p2719
V1
p2720
tp2721
a(Vsqrt(1/(0.2^2)/100)
p2722
V0
p2723
tp2724
a(g2722
V1
p2725
tp2726
a(Vsqrt(1/(0.8^2)/380)
p2727
V1
p2728
tp2729
a(Vsqrt(1/(0.8^2)/420)
p2730
V0
p2731
tp2732
a(g2730
V1
p2733
tp2734
a(Vsqrt(1/(0.9^2)/260)
p2735
V1
p2736
tp2737
a(Vsqrt(1/(0.3^2)/110)
p2738
V1
p2739
tp2740
a(Vsqrt(1/(0.2^2)/450)
p2741
V0
p2742
tp2743
a(Vsqrt(1/(0.8^2)/460)
p2744
V5
p2745
tp2746
a(g2744
V1
p2747
tp2748
a(Vsqrt(1/(0.8^2)/190)
p2749
V1
p2750
tp2751
a(Vsqrt(1/(0.3^2)/110)
p2752
V2
p2753
tp2754
a(g2752
V1
p2755
tp2756
a(Vsqrt(1/(0.1^2)/280)
p2757
V100
p2758
tp2759
a(g2757
V1
p2760
tp2761
a(Vsqrt(1/(0.9^2)/100)
p2762
V1
p2763
tp2764
a(g2741
V1
p2765
tp2766
a(g2741
V2
p2767
tp2768
a(g2741
V5
p2769
tp2770
a(Vsqrt(1/(0.2^2)/250)
p2771
V1
p2772
tp2773
a(Vsqrt(1/(0.1^2)/210)
p2774
V0
p2775
tp2776
a(g2774
V1
p2777
tp2778
a(g2774
V0
p2779
tp2780
a(Vsqrt(1/(0.7^2)/140)
p2781
V0
p2782
tp2783
a(Vsqrt(1/(0.1^2)/320)
p2784
V2
p2785
tp2786
a(Vsqrt(1/(0.8^2)/500)
p2787
V0
p2788
tp2789
a(Vsqrt(1/(0.5^2)/270)
p2790
V4
p2791
tp2792
a(g2790
V16
p2793
tp2794
a(g2790
V16
p2795
tp2796
a(g2790
V2
p2797
tp2798
a(Vsqrt(1/(0.3^2)/110)
p2799
V2
p2800
tp2801
a(Vsqrt(1/(0.1^2)/190)
p2802
V1
p2803
tp2804
a(Vsqrt(1/(0.5^2)/220)
p2805
V0
p2806
tp2807
a(Vsqrt(1/(0.5^2)/430)
p2808
V1
p2809
tp2810
a(Vsqrt(1/(0.7^2)/170)
p2811
V170
p2812
tp2813
a(g2808
V0
p2814
tp2815
a(g2811
V1
p2816
tp2817
asS"['R.0.0']"
p2818
(lp2819
(Vsqrt(1/(0.1^2)/440)
p2820
V((1/(0.1^2))^(1/2))/440
p2821
(lp2822
(S'R.0.0'
p2823
F99.99999999999999
V1/(0.1^2)
p2824
V1/(0.1^2)
p2825
tp2826
aVeyhu
p2827
g1621
V2015-10-30 08:47:35
p2828
tp2829
a(g2699
V((.1)^(-2))^(1/2)/440
p2830
(lp2831
(S'R.0.0'
p2832
F99.99999999999999
V1/(0.1^2)
p2833
V(.1)^(-2)
p2834
tp2835
aVlguintu
p2836
g2059
V2015-11-03 07:25:54
p2837
tp2838
a(Vsqrt(1/(0.9^2)/190)
p2839
Vsqrt((1/0.81)/350)
p2840
(lp2841
(S'R.0.0'
p2842
F1.2345679012345678
V1/(0.9^2)
p2843
V1/0.81
p2844
tp2845
aVspw006
p2846
g2324
V2015-11-04 03:58:53
p2847
tp2848
a(g2839
Vsqrt((1/0.9)^2/350)
p2849
(lp2850
(S'R.0.0'
p2851
F1.2345679012345678
V1/(0.9^2)
p2852
V(1/0.9)^2
p2853
tp2854
aVspw006
p2855
g2324
V2015-11-04 03:59:36
p2856
tp2857
a(Vsqrt(1/(0.9^2)/460)
p2858
Vsqrt(1/.81)/460
p2859
(lp2860
(S'R.0.0'
p2861
F1.2345679012345678
V1/(0.9^2)
p2862
V1/.81)
p2863
tp2864
aVabjara
p2865
(lp2866
(V$n1
p2867
V220
p2868
tp2869
a(V$lambda
p2870
V0.9
p2871
tp2872
a(V$n2
p2873
V460
p2874
tp2875
a(V$b
p2876
V2
p2877
tp2878
a(V$a
p2879
V-1
p2880
tp2881
aV2015-11-04 06:46:22
p2882
tp2883
a(Vsqrt(1/(0.8^2)/250)
p2884
V(sqrt(1/.8^2))/250
p2885
(lp2886
(S'R.0.0'
p2887
F1.5624999999999998
V1/(0.8^2)
p2888
V1/.8^2
p2889
tp2890
aVmtrafeca
p2891
g274
V2015-11-05 22:07:49
p2892
tp2893
asS"['R.0.0.0', 'R.0.0.1.1', 'R.0.1']"
p2894
(lp2895
(Vsqrt(1/(0.9^2)/240)
p2896
Vsqrt((1/1.9^2)/240)
p2897
(lp2898
(S'R.0.0.0'
p2899
F1.0
g906
g906
tp2900
a(S'R.0.0.1.1'
p2901
F2.0
g271
g271
tp2902
a(S'R.0.1'
p2903
F240.0
V240
p2904
V240
p2905
tp2906
aVlalacson
p2907
(lp2908
(V$n1
p2909
V210
p2910
tp2911
a(V$lambda
p2912
V0.9
p2913
tp2914
a(V$n2
p2915
V240
p2916
tp2917
a(V$b
p2918
V3
p2919
tp2920
a(V$a
p2921
V-3
p2922
tp2923
aV2015-11-05 09:03:04
p2924
tp2925
a(g2774
Vsqrt((1/10^2)/210)
p2926
(lp2927
(S'R.0.0.0'
p2928
F1.0
g906
g906
tp2929
a(S'R.0.0.1.1'
p2930
F2.0
g271
g271
tp2931
a(S'R.0.1'
p2932
F210.0
V210
p2933
V210
p2934
tp2935
aVvasharma
p2936
(lp2937
(V$n1
p2938
V400
p2939
tp2940
a(V$lambda
p2941
V0.1
p2942
tp2943
a(V$n2
p2944
V210
p2945
tp2946
a(V$b
p2947
V1
p2948
tp2949
a(V$a
p2950
V-3
p2951
tp2952
aV2015-11-06 00:01:16
p2953
tp2954
asS"['R.0.0.0']"
p2955
(lp2956
(g2858
Vsqrt(1/.18)/460
p2957
(lp2958
(S'R.0.0.0'
p2959
F1.0
g906
g906
tp2960
aVabjara
p2961
g2866
V2015-11-04 06:46:07
p2962
tp2963
asS"['R.0']"
p2964
(lp2965
(Vsqrt(1/(0.5^2)/480)
p2966
V(1/120)^1/2
p2967
(lp2968
(S'R.0'
p2969
F0.008333333333333333
V1/(0.5^2)/480
p2970
V(1/120)^1
p2971
tp2972
aVanislam
p2973
g2419
V2015-11-05 23:56:32
p2974
tp2975
asg359
(lp2976
(g2688
V-1
p2977
tp2978
a(g2711
V.5(-2+0)
p2979
tp2980
a(g2711
V-1
p2981
tp2982
a(g2722
V-.5
p2983
tp2984
a(Vsqrt(1/(0.2^2)/500)
p2985
V-.23
p2986
tp2987
a(g2985
V-.24
p2988
tp2989
a(g2985
V-.235
p2990
tp2991
a(g2985
V-.2356
p2992
tp2993
a(g2985
V-.233
p2994
tp2995
a(g2985
V-.232
p2996
tp2997
a(g2722
V-1
p2998
tp2999
a(g2722
V-.2
p3000
tp3001
a(g2722
V-.5
p3002
tp3003
a(g2727
V-.06
p3004
tp3005
a(g2752
V-.32
p3006
tp3007
a(g2741
V((.2*450)/450)-5/1.75
p3008
tp3009
a(g2741
V(((.2*450)/450)-5)/1.75
p3010
tp3011
a(g2774
V-.7
p3012
tp3013
a(g2774
V-.68
p3014
tp3015
a(g2774
V-.71
p3016
tp3017
a(g2774
V-sqrt((1/10^2)/210)
p3018
tp3019
a(g2741
V-5
p3020
tp3021
a(Vsqrt(1/(0.7^2)/480)
p3022
V-.05
p3023
tp3024
a(g3022
V-.06
p3025
tp3026
a(g3022
V-.065
p3027
tp3028
a(g3022
V-.064
p3029
tp3030
a(g3022
V-.063
p3031
tp3032
a(g3022
V-.07
p3033
tp3034
a(g3022
V-.06
p3035
tp3036
a(Vsqrt(1/(0.1^2)/490)
p3037
V-0.47
p3038
tp3039
a(Vsqrt(1/(0.5^2)/320)
p3040
V-.094
p3041
tp3042
a(g2741
V-.24
p3043
tp3044
a(Vsqrt(1/(0.9^2)/270)
p3045
V-0.065
p3046
tp3047
a(g3045
V-0.062
p3048
tp3049
a(g3045
V-0.06
p3050
tp3051
a(Vsqrt(1/(0.7^2)/280)
p3052
V-0.075
p3053
tp3054
asS"['R.0.1']"
p3055
(lp3056
(g2774
Vsqrt((10)/210)
p3057
(lp3058
(S'R.0.1'
p3059
F210.0
V210
p3060
V210
p3061
tp3062
aVvasharma
p3063
g2937
V2015-11-05 23:50:56
p3064
tp3065
a(g2774
Vsqrt(10/210)
p3066
(lp3067
(S'R.0.1'
p3068
F210.0
V210
p3069
V210
p3070
tp3071
aVvasharma
p3072
g2937
V2015-11-05 23:52:01
p3073
tp3074
a(g2774
Vsqrt((10^-2)/210)
p3075
(lp3076
(S'R.0.1'
p3077
F210.0
V210
p3078
V210
p3079
tp3080
aVvasharma
p3081
g2937
V2015-11-05 23:52:36
p3082
tp3083
a(g2774
Vsqrt((10^-1)/210)
p3084
(lp3085
(S'R.0.1'
p3086
F210.0
V210
p3087
V210
p3088
tp3089
aVvasharma
p3090
g2937
V2015-11-05 23:52:59
p3091
tp3092
a(Vsqrt(1/(0.2^2)/130)
p3093
Vsqrt((1/.2)^5/130)
p3094
(lp3095
(S'R.0.1'
p3096
F130.0
V130
p3097
V130
p3098
tp3099
aVbkoli
p3100
(lp3101
(V$n1
p3102
V310
p3103
tp3104
a(V$lambda
p3105
V0.2
p3106
tp3107
a(V$n2
p3108
V130
p3109
tp3110
a(V$b
p3111
V2
p3112
tp3113
a(V$a
p3114
V-3
p3115
tp3116
aV2015-11-06 01:04:49
p3117
tp3118
a(Vsqrt(1/(0.2^2)/330)
p3119
Vsqrt((0.2^2)/12/330)
p3120
(lp3121
(S'R.0.1'
p3122
F330.0
V330
p3123
V330
p3124
tp3125
aVt2li
p3126
(lp3127
(V$n1
p3128
V410
p3129
tp3130
a(V$lambda
p3131
V0.2
p3132
tp3133
a(V$n2
p3134
V330
p3135
tp3136
a(V$b
p3137
V0
p3138
tp3139
a(V$a
p3140
V-2
p3141
tp3142
aV2015-11-06 03:40:54
p3143
tp3144
a(g3119
Vsqrt((0.2^2)/330)
p3145
(lp3146
(S'R.0.1'
p3147
F330.0
V330
p3148
V330
p3149
tp3150
aVt2li
p3151
g3127
V2015-11-06 03:41:19
p3152
tp3153
a(Vsqrt(1/(0.9^2)/370)
p3154
Vsqrt((10.9**2) / 370)
p3155
(lp3156
(S'R.0.1'
p3157
F370.0
V370
p3158
V370
p3159
tp3160
aVaurodrig
p3161
g1751
V2015-11-07 00:21:30
p3162
tp3163
ass.