(dp0
V1
p1
(dp2
Vv4zhang
p3
(dp4
S'part1_correct_attempt'
p5
(lp6
S'0:05:42'
p7
aV0.5
p8
asS'first_attempt'
p9
V2015-11-05 11:00:02
p10
sS'part1_incorrect_attempt'
p11
(lp12
(S'0:00:00'
p13
V100*0.5
p14
tp15
a(S'0:01:37'
p16
V[(100*101)/2]*100
p17
tp18
assVlguintu
p19
(dp20
S'part1_correct_attempt'
p21
(lp22
S'0:00:48'
p23
aV1/2
p24
asg9
V2015-11-03 04:17:09
p25
sS'part1_incorrect_attempt'
p26
(lp27
(S'0:00:00'
p28
V(100+101)/4
p29
tp30
assVppanourg
p31
(dp32
S'part1_correct_attempt'
p33
(lp34
S'0:07:22'
p35
aV.5
p36
asg9
V2015-11-06 08:17:03
p37
sS'part1_incorrect_attempt'
p38
(lp39
(S'0:00:00'
p40
V100*.5
p41
tp42
a(S'0:00:16'
p43
V100/.5
p44
tp45
assVasp025
p46
(dp47
S'part1_correct_attempt'
p48
(lp49
S'0:00:16'
p50
aV1*0.5
p51
asg9
V2015-11-06 19:55:25
p52
sS'part1_incorrect_attempt'
p53
(lp54
(S'0:00:00'
p55
V100*0.5
p56
tp57
assVj5phung
p58
(dp59
S'part1_correct_attempt'
p60
(lp61
S'0:01:24'
p62
aV0.5
p63
asg9
V2015-11-04 04:16:43
p64
sS'part1_incorrect_attempt'
p65
(lp66
(S'0:00:00'
p67
V100/0.5
p68
tp69
assVjcl084
p70
(dp71
S'part1_correct_attempt'
p72
(lp73
S'0:01:24'
p74
aV0.5
p75
asg9
V2015-11-02 20:07:11
p76
sS'part1_incorrect_attempt'
p77
(lp78
(S'0:00:00'
p79
V(1/6)(1+2+3+4+5+6)
p80
tp81
assVskodigal
p82
(dp83
S'part1_correct_attempt'
p84
(lp85
S'0:02:05'
p86
aV.5
p87
asg9
V2015-11-05 09:08:31
p88
sS'part1_incorrect_attempt'
p89
(lp90
(S'0:00:00'
p91
V.5*100 + .5*100
p92
tp93
a(S'0:01:05'
p94
V.5*100
p95
tp96
assVrraiyyan
p97
(dp98
S'part1_correct_attempt'
p99
(lp100
S'0:00:38'
p101
aV0.5
p102
asg9
V2015-11-06 21:17:36
p103
sS'part1_incorrect_attempt'
p104
(lp105
(S'0:00:00'
p106
VC(101,2) * 1/(2^100)
p107
tp108
assVjhw015
p109
(dp110
S'part1_correct_attempt'
p111
(lp112
S'0:02:09'
p113
aV0.5
p114
asg9
V2015-11-04 19:35:06
p115
sS'part1_incorrect_attempt'
p116
(lp117
(S'0:00:00'
p118
V(0.5 + 1)
p119
tp120
assVt1tran
p121
(dp122
S'part1_correct_attempt'
p123
(lp124
S'3 days, 3:02:44'
p125
aV1(.5)+00(1-.5)
p126
asg9
V2015-10-31 05:58:58
p127
sS'part1_incorrect_attempt'
p128
(lp129
(S'0:00:00'
p130
V100*.5
p131
tp132
assVkrkelkar
p133
(dp134
S'part1_correct_attempt'
p135
(lp136
S'0:00:46'
p137
aV1 * 0.5
p138
asg9
V2015-10-31 20:47:19
p139
sS'part1_incorrect_attempt'
p140
(lp141
(S'0:00:00'
p142
V100 * 0.5
p143
tp144
assVtcuddy
p145
(dp146
S'part1_correct_attempt'
p147
(lp148
S'1 day, 22:22:08'
p149
aV.5
p150
asg9
V2015-11-01 19:24:34
p151
sS'part1_incorrect_attempt'
p152
(lp153
(S'0:00:00'
p154
V100(.5)
p155
tp156
a(S'0:55:53'
p157
V100(1/(2**100))
p158
tp159
a(S'0:56:35'
p160
V100((1/2)**100)
p161
tp162
assVhaliew
p163
(dp164
S'part1_correct_attempt'
p165
(lp166
S'0:03:39'
p167
aV.5
p168
asg9
V2015-11-06 22:49:24
p169
sS'part1_incorrect_attempt'
p170
(lp171
(S'0:00:00'
p172
V.5(100)
p173
tp174
assVanvan
p175
(dp176
S'part1_correct_attempt'
p177
(lp178
S'2:03:02'
p179
aV.5
p180
asg9
V2015-11-05 16:34:33
p181
sS'part1_incorrect_attempt'
p182
(lp183
(S'0:00:00'
p184
V100! / (50! 50!) * .5^50 * .5^50
p185
tp186
a(S'0:23:51'
p187
V100! / (50!50!) * (1/2)^50(1/2)^50
p188
tp189
assVarvenega
p190
(dp191
S'part1_correct_attempt'
p192
(lp193
S'1 day, 23:18:46'
p194
aV.5
p195
asg9
V2015-11-05 00:15:27
p196
sS'part1_incorrect_attempt'
p197
(lp198
(S'0:00:00'
p199
V.5 * 100
p200
tp201
a(S'0:05:12'
p202
V(100*101)/4
p203
tp204
assVflhernan
p205
(dp206
S'part1_correct_attempt'
p207
(lp208
S'0:01:54'
p209
aV.5
p210
asg9
V2015-11-03 19:14:36
p211
sS'part1_incorrect_attempt'
p212
(lp213
(S'0:00:00'
p214
V100*.5
p215
tp216
a(S'0:00:11'
p217
V100*.5 + 100*.5
p218
tp219
a(S'0:01:27'
p220
V.5 +.5
p221
tp222
a(S'0:01:45'
p223
V.5 +2*.5
p224
tp225
assVlahawkin
p226
(dp227
S'part1_correct_attempt'
p228
(lp229
S'1 day, 14:04:36'
p230
aV.5(1)
p231
asg9
V2015-11-04 04:45:48
p232
sS'part1_incorrect_attempt'
p233
(lp234
(S'0:00:00'
p235
V.5(100)
p236
tp237
assVc1wei
p238
(dp239
S'part1_correct_attempt'
p240
(lp241
S'0:01:50'
p242
aV.5
p243
asg9
V2015-11-04 06:40:32
p244
sS'part1_incorrect_attempt'
p245
(lp246
(S'0:00:00'
p247
V100*.5
p248
tp249
assVcsl030
p250
(dp251
S'part1_correct_attempt'
p252
(lp253
S'0:00:07'
p254
aV.5
p255
asg9
V2015-11-05 04:54:09
p256
sS'part1_incorrect_attempt'
p257
(lp258
(S'0:00:00'
p259
V1.5
p260
tp261
assVaurodrig
p262
(dp263
S'part1_correct_attempt'
p264
(lp265
S'0:00:24'
p266
aV1/2 * (1)
p267
asg9
V2015-11-06 22:25:09
p268
sS'part1_incorrect_attempt'
p269
(lp270
(S'0:00:00'
p271
V1/6 * (1+2+3+4+5+6)
p272
tp273
a(S'0:00:08'
p274
V1/2 * (1+2+3+4+5+6)
p275
tp276
assVvasharma
p277
(dp278
S'part1_correct_attempt'
p279
(lp280
S'0:01:04'
p281
aV.5
p282
asg9
V2015-11-04 18:44:56
p283
sS'part1_incorrect_attempt'
p284
(lp285
(S'0:00:00'
p286
V.5*100
p287
tp288
assVajvanega
p289
(dp290
S'part1_correct_attempt'
p291
(lp292
S'0:00:31'
p293
aV.5
p294
asg9
V2015-11-05 02:29:47
p295
sS'part1_incorrect_attempt'
p296
(lp297
(S'0:00:00'
p298
V3.5
p299
tp300
assVtjke
p301
(dp302
S'part1_correct_attempt'
p303
(lp304
S'0:00:07'
p305
aV0.5
p306
asg9
V2015-11-04 20:53:46
p307
sS'part1_incorrect_attempt'
p308
(lp309
(S'0:00:00'
p310
V100*0.5
p311
tp312
assVsthapa
p313
(dp314
S'part1_correct_attempt'
p315
(lp316
S'0:00:28'
p317
aV1/2
p318
asg9
V2015-11-06 23:55:54
p319
sS'part1_incorrect_attempt'
p320
(lp321
(S'0:00:00'
p322
V(1-2*1/2+1/3-2*1/4+1/5)*1
p323
tp324
assVcprafull
p325
(dp326
S'part1_correct_attempt'
p327
(lp328
S'0:00:30'
p329
aV0.5
p330
asg9
V2015-11-05 05:19:13
p331
sS'part1_incorrect_attempt'
p332
(lp333
(S'0:00:00'
p334
V3.5
p335
tp336
a(S'0:00:08'
p337
V3.5*100
p338
tp339
asssV3
p340
(dp341
Vdlt009
p342
(dp343
S'part3_correct_attempt'
p344
(lp345
S'0:13:59'
p346
aV0
p347
asS'part3_incorrect_attempt'
p348
(lp349
(S'-1 day, 23:59:35'
p350
V(1/0.5)-(3/0.5)
p351
tp352
a(S'0:01:29'
p353
V0.5-(0.5+2*0.5)
p354
tp355
asg9
V2015-11-05 07:36:02
p356
ssVaurodrig
p357
(dp358
S'part3_correct_attempt'
p359
(lp360
S'0:06:33'
p361
aV0
p362
asS'part3_incorrect_attempt'
p363
(lp364
(S'0:06:25'
p365
V-2
p366
tp367
asg9
V2015-11-06 22:25:33
p368
ssVgsrandha
p369
(dp370
S'part3_correct_attempt'
p371
(lp372
S'0:33:40'
p373
aV0
p374
asS'part3_incorrect_attempt'
p375
(lp376
(S'0:31:43'
p377
V.5-1.5
p378
tp379
asg9
V2015-11-05 07:24:37
p380
ssVhkhodada
p381
(dp382
S'part3_correct_attempt'
p383
(lp384
S'2 days, 8:48:22'
p385
aV0
p386
asS'part3_incorrect_attempt'
p387
(lp388
(S'0:10:25'
p389
V-1
p390
tp391
asg9
V2015-10-31 15:40:08
p392
ssVajabasa
p393
(dp394
S'part3_correct_attempt'
p395
(lp396
S'0:12:57'
p397
aV0
p398
asS'part3_incorrect_attempt'
p399
(lp400
(S'0:09:20'
p401
V.5-(1.5)
p402
tp403
asg9
V2015-11-05 09:04:18
p404
ssVabjara
p405
(dp406
S'part3_correct_attempt'
p407
(lp408
S'0:14:27'
p409
aV0
p410
asS'part3_incorrect_attempt'
p411
(lp412
(S'0:07:46'
p413
V-1
p414
tp415
asg9
V2015-11-04 01:27:47
p416
sssV2
p417
(dp418
Vgthorn
p419
(dp420
S'part2_correct_attempt'
p421
(lp422
S'1 day, 12:34:08'
p423
aV0.25
p424
asS'part1_correct_attempt'
p425
(lp426
S'0:00:00'
p427
aV0.5
p428
asg9
V2015-11-02 07:26:59
p429
sS'part2_incorrect_attempt'
p430
(lp431
(S'1 day, 12:31:32'
p432
V0.5
p433
tp434
assVphodgson
p435
(dp436
S'part2_correct_attempt'
p437
(lp438
S'0:00:08'
p439
aV.25
p440
asS'part1_correct_attempt'
p441
(lp442
S'0:00:00'
p443
aV.5
p444
asg9
V2015-11-05 06:02:34
p445
sS'part2_incorrect_attempt'
p446
(lp447
(S'0:00:00'
p448
V.5
p449
tp450
assVkthui
p451
(dp452
S'part2_correct_attempt'
p453
(lp454
S'0:08:27'
p455
aV0.25
p456
asS'part1_correct_attempt'
p457
(lp458
S'0:00:00'
p459
aV0.5
p460
asg9
V2015-11-06 02:15:58
p461
sS'part2_incorrect_attempt'
p462
(lp463
(S'0:08:22'
p464
V0.25/2
p465
tp466
assVjyc018
p467
(dp468
S'part2_correct_attempt'
p469
(lp470
S'0:01:12'
p471
aV0.5*0.5
p472
asS'part1_correct_attempt'
p473
(lp474
S'0:00:00'
p475
aV0.5
p476
asg9
V2015-11-01 01:25:42
p477
sS'part2_incorrect_attempt'
p478
(lp479
(S'0:00:05'
p480
V0.5
p481
tp482
a(S'0:01:02'
p483
V1/0.5/0.5
p484
tp485
assVlpettit
p486
(dp487
S'part2_correct_attempt'
p488
(lp489
S'0:11:02'
p490
aV(2*.5*.5)/2
p491
asS'part1_correct_attempt'
p492
(lp493
S'0:00:00'
p494
aV.5
p495
asg9
V2015-11-06 23:23:57
p496
sS'part2_incorrect_attempt'
p497
(lp498
(S'0:00:15'
p499
V.5
p500
tp501
a(S'0:09:45'
p502
V.5
p503
tp504
assVjfalcone
p505
(dp506
S'part2_correct_attempt'
p507
(lp508
S'23:55:11'
p509
aV(1/2)*.5
p510
asS'part1_correct_attempt'
p511
(lp512
S'0:00:00'
p513
aV.5
p514
asg9
V2015-11-04 05:25:50
p515
sS'part2_incorrect_attempt'
p516
(lp517
(S'0:00:21'
p518
V.5
p519
tp520
assVccn001
p521
(dp522
S'part2_correct_attempt'
p523
(lp524
S'7:29:01'
p525
aV(0.5)^2
p526
asS'part1_correct_attempt'
p527
(lp528
S'0:00:00'
p529
aV(0(.5)+1(.5))
p530
asg9
V2015-11-03 09:09:46
p531
sS'part2_incorrect_attempt'
p532
(lp533
(S'0:00:00'
p534
V0.5
p535
tp536
assVmasaro
p537
(dp538
S'part2_correct_attempt'
p539
(lp540
S'0:14:46'
p541
aV0.25
p542
asS'part1_correct_attempt'
p543
(lp544
S'0:00:00'
p545
aV0.5
p546
asg9
V2015-11-02 15:53:21
p547
sS'part2_incorrect_attempt'
p548
(lp549
(S'0:14:36'
p550
V0.5
p551
tp552
assVquwong
p553
(dp554
S'part2_correct_attempt'
p555
(lp556
S'2:14:37'
p557
aV1^2*0.5 - (0.5)^2
p558
asS'part1_correct_attempt'
p559
(lp560
S'0:00:00'
p561
aV0.5
p562
asg9
V2015-11-03 18:30:27
p563
sS'part2_incorrect_attempt'
p564
(lp565
(S'2:13:26'
p566
V1*2^0.5 - (0.5)^2
p567
tp568
assVhkhodada
p569
(dp570
S'part2_correct_attempt'
p571
(lp572
S'0:03:53'
p573
aV0.25
p574
asS'part1_correct_attempt'
p575
(lp576
S'0:00:00'
p577
aV.5
p578
asg9
g392
sS'part2_incorrect_attempt'
p579
(lp580
(S'0:00:00'
p581
V0.5
p582
tp583
assVyjshin
p584
(dp585
S'part2_correct_attempt'
p586
(lp587
S'0:09:39'
p588
aV.5^2
p589
asS'part1_correct_attempt'
p590
(lp591
S'0:00:00'
p592
aV0.5
p593
asg9
V2015-11-06 22:57:48
p594
sS'part2_incorrect_attempt'
p595
(lp596
(S'0:06:43'
p597
V0.5
p598
tp599
assVkbielawi
p600
(dp601
S'part2_correct_attempt'
p602
(lp603
S'23:11:51'
p604
aV.25
p605
asS'part1_correct_attempt'
p606
(lp607
S'0:00:00'
p608
aV.5
p609
asg9
V2015-11-03 20:55:13
p610
sS'part2_incorrect_attempt'
p611
(lp612
(S'0:00:00'
p613
V.5
p614
tp615
assVglcohen
p616
(dp617
S'part2_correct_attempt'
p618
(lp619
S'0:05:58'
p620
aV0.25
p621
asS'part1_correct_attempt'
p622
(lp623
S'0:00:00'
p624
aV0.5
p625
asg9
V2015-11-03 16:48:17
p626
sS'part2_incorrect_attempt'
p627
(lp628
(S'0:00:00'
p629
V0.5
p630
tp631
assVc1sorian
p632
(dp633
S'part2_correct_attempt'
p634
(lp635
S'0:02:35'
p636
aV.25
p637
asS'part1_correct_attempt'
p638
(lp639
S'0:00:00'
p640
aV.5
p641
asg9
V2015-11-04 23:20:51
p642
sS'part2_incorrect_attempt'
p643
(lp644
(S'0:00:15'
p645
V.5
p646
tp647
assVrohan
p648
(dp649
S'part2_correct_attempt'
p650
(lp651
S'0:11:42'
p652
aV.5-.5^2
p653
asS'part1_correct_attempt'
p654
(lp655
S'0:00:00'
p656
aV.5
p657
asg9
V2015-11-06 23:40:02
p658
sS'part2_incorrect_attempt'
p659
(lp660
(S'0:11:10'
p661
V.5
p662
tp663
assVspw006
p664
(dp665
S'part2_correct_attempt'
p666
(lp667
S'2:16:55'
p668
aV0.5 - 0.25
p669
asS'part1_correct_attempt'
p670
(lp671
S'0:00:00'
p672
aV0.5
p673
asg9
V2015-11-04 00:39:13
p674
sS'part2_incorrect_attempt'
p675
(lp676
(S'0:00:00'
p677
V0.5
p678
tp679
assVb1yao
p680
(dp681
S'part2_correct_attempt'
p682
(lp683
S'0:02:32'
p684
aV0.25
p685
asS'part1_correct_attempt'
p686
(lp687
S'0:00:00'
p688
aV0.5
p689
asg9
V2015-11-03 07:08:58
p690
sS'part2_incorrect_attempt'
p691
(lp692
(S'0:01:28'
p693
V0.5
p694
tp695
assVdcrume
p696
(dp697
S'part2_correct_attempt'
p698
(lp699
S'0:30:54'
p700
aV.5*.5/1
p701
asS'part1_correct_attempt'
p702
(lp703
S'0:00:00'
p704
aV.5
p705
asg9
V2015-11-06 19:09:00
p706
sS'part2_incorrect_attempt'
p707
(lp708
(S'0:00:00'
p709
V(.5*.5/100)^.5
p710
tp711
a(S'0:00:59'
p712
V(.5*.5/100)
p713
tp714
a(S'0:09:59'
p715
V.5^(2)/100
p716
tp717
a(S'0:18:40'
p718
V.5*.5*100
p719
tp720
assVkrau
p721
(dp722
S'part2_correct_attempt'
p723
(lp724
S'0:04:37'
p725
aV.25
p726
asS'part1_correct_attempt'
p727
(lp728
S'0:00:00'
p729
aV.5
p730
asg9
V2015-11-04 19:46:04
p731
sS'part2_incorrect_attempt'
p732
(lp733
(S'0:00:00'
p734
V.5
p735
tp736
assVmhale
p737
(dp738
S'part2_correct_attempt'
p739
(lp740
S'0:02:42'
p741
aV0.25
p742
asS'part1_correct_attempt'
p743
(lp744
S'0:00:00'
p745
aV0.5
p746
asg9
V2015-11-05 20:08:27
p747
sS'part2_incorrect_attempt'
p748
(lp749
(S'0:02:31'
p750
V0.5
p751
tp752
assVthk002
p753
(dp754
S'part2_correct_attempt'
p755
(lp756
S'0:07:39'
p757
aV1/4
p758
asS'part1_correct_attempt'
p759
(lp760
S'0:00:00'
p761
aV1/2
p762
asg9
V2015-11-03 23:06:16
p763
sS'part2_incorrect_attempt'
p764
(lp765
(S'0:04:53'
p766
V.5-0
p767
tp768
assVawollner
p769
(dp770
S'part2_correct_attempt'
p771
(lp772
S'0:12:45'
p773
aV.25
p774
asS'part1_correct_attempt'
p775
(lp776
S'0:00:00'
p777
aV.5
p778
asg9
V2015-11-06 22:55:15
p779
sS'part2_incorrect_attempt'
p780
(lp781
(S'0:02:25'
p782
V.25/2
p783
tp784
assVsachadal
p785
(dp786
S'part2_correct_attempt'
p787
(lp788
S'0:06:17'
p789
aV0.25
p790
asS'part1_correct_attempt'
p791
(lp792
S'0:00:00'
p793
aV0.5
p794
asg9
V2015-11-05 19:54:30
p795
sS'part2_incorrect_attempt'
p796
(lp797
(S'0:03:05'
p798
V0.5
p799
tp800
assVctgraves
p801
(dp802
S'part2_correct_attempt'
p803
(lp804
S'0:00:34'
p805
aV0.25
p806
asS'part1_correct_attempt'
p807
(lp808
S'0:00:00'
p809
aV0.5
p810
asg9
V2015-11-03 05:16:32
p811
sS'part2_incorrect_attempt'
p812
(lp813
(S'0:00:21'
p814
V100(0.25)
p815
tp816
assVt2li
p817
(dp818
S'part2_correct_attempt'
p819
(lp820
S'0:00:10'
p821
aV0.5*0.5
p822
asS'part1_correct_attempt'
p823
(lp824
S'0:00:00'
p825
aV0.5
p826
asg9
V2015-11-06 01:28:07
p827
sS'part2_incorrect_attempt'
p828
(lp829
(S'0:00:00'
p830
V0.5
p831
tp832
assVjdeon
p833
(dp834
S'part2_correct_attempt'
p835
(lp836
S'0:00:38'
p837
aV.25
p838
asS'part1_correct_attempt'
p839
(lp840
S'0:00:00'
p841
aV.5
p842
asg9
V2015-11-04 23:14:31
p843
sS'part2_incorrect_attempt'
p844
(lp845
(S'0:00:20'
p846
V.5
p847
tp848
assVdlt009
p849
(dp850
S'part2_correct_attempt'
p851
(lp852
S'0:13:28'
p853
aV0.5-0.25
p854
asS'part1_correct_attempt'
p855
(lp856
S'0:00:00'
p857
aV0.5
p858
asg9
g356
sS'part2_incorrect_attempt'
p859
(lp860
(S'0:03:34'
p861
V0.5
p862
tp863
assVpsable
p864
(dp865
S'part2_correct_attempt'
p866
(lp867
S'0:04:28'
p868
aV.25
p869
asS'part1_correct_attempt'
p870
(lp871
S'0:00:00'
p872
aV.5
p873
asg9
V2015-11-06 00:05:06
p874
sS'part2_incorrect_attempt'
p875
(lp876
(S'0:03:14'
p877
V.5
p878
tp879
assVp4kumar
p880
(dp881
S'part2_correct_attempt'
p882
(lp883
S'0:01:04'
p884
aV0.25
p885
asS'part1_correct_attempt'
p886
(lp887
S'0:00:00'
p888
aV0.5
p889
asg9
V2015-11-05 23:59:56
p890
sS'part2_incorrect_attempt'
p891
(lp892
(S'0:00:18'
p893
V0.5
p894
tp895
assVb3hwang
p896
(dp897
S'part2_correct_attempt'
p898
(lp899
S'0:00:38'
p900
aV.25
p901
asS'part1_correct_attempt'
p902
(lp903
S'0:00:00'
p904
aV.5
p905
asg9
V2015-11-05 08:38:09
p906
sS'part2_incorrect_attempt'
p907
(lp908
(S'0:00:28'
p909
V.5
p910
tp911
assVtpmach
p912
(dp913
S'part2_correct_attempt'
p914
(lp915
S'5 days, 1:01:26'
p916
aV0.5^2
p917
asS'part1_correct_attempt'
p918
(lp919
S'0:00:00'
p920
aV0.5
p921
asg9
V2015-10-30 21:47:51
p922
sS'part2_incorrect_attempt'
p923
(lp924
(S'4 days, 2:19:18'
p925
V0.5
p926
tp927
assVsyc078
p928
(dp929
S'part2_correct_attempt'
p930
(lp931
S'22:15:02'
p932
aV0.25
p933
asS'part1_correct_attempt'
p934
(lp935
S'0:00:00'
p936
aV0.5
p937
asg9
V2015-11-05 03:28:26
p938
sS'part2_incorrect_attempt'
p939
(lp940
(S'22:13:12'
p941
V0.5
p942
tp943
assVhaw081
p944
(dp945
S'part2_correct_attempt'
p946
(lp947
S'0:00:36'
p948
aV1(0.5)(0.5)
p949
asS'part1_correct_attempt'
p950
(lp951
S'0:00:00'
p952
aV0.5
p953
asg9
V2015-11-01 05:01:44
p954
sS'part2_incorrect_attempt'
p955
(lp956
(S'0:00:28'
p957
V1(0.5)(1.5)
p958
tp959
assVbmilton
p960
(dp961
S'part2_correct_attempt'
p962
(lp963
S'0:03:11'
p964
aV.5 - .25
p965
asS'part1_correct_attempt'
p966
(lp967
S'0:00:00'
p968
aV.5
p969
asg9
V2015-11-04 19:46:12
p970
sS'part2_incorrect_attempt'
p971
(lp972
(S'0:00:25'
p973
V(1-.5)/.25
p974
tp975
a(S'0:01:04'
p976
V.5/.25
p977
tp978
assVdcgriffi
p979
(dp980
S'part2_correct_attempt'
p981
(lp982
S'0:03:07'
p983
aV1/4
p984
asS'part1_correct_attempt'
p985
(lp986
S'0:00:00'
p987
aV.5
p988
asg9
V2015-11-06 23:44:39
p989
sS'part2_incorrect_attempt'
p990
(lp991
(S'0:00:00'
p992
V.5
p993
tp994
assVlywong
p995
(dp996
S'part2_correct_attempt'
p997
(lp998
S'0:05:46'
p999
aV((1-0.5)^2+ (-0.5)^2)/2
p1000
asS'part1_correct_attempt'
p1001
(lp1002
S'0:00:00'
p1003
aV0.5
p1004
asg9
V2015-11-04 19:08:27
p1005
sS'part2_incorrect_attempt'
p1006
(lp1007
(S'0:00:37'
p1008
V(0.5)^(1/2)
p1009
tp1010
a(S'0:04:17'
p1011
V(1-0.5)^2+ (-0.5)^2
p1012
tp1013
assVk4ma
p1014
(dp1015
S'part2_correct_attempt'
p1016
(lp1017
S'0:06:42'
p1018
aV.5(1-.5)
p1019
asS'part1_correct_attempt'
p1020
(lp1021
S'0:00:00'
p1022
aV.5
p1023
asg9
V2015-11-06 21:00:56
p1024
sS'part2_incorrect_attempt'
p1025
(lp1026
(S'0:02:57'
p1027
V.5
p1028
tp1029
assVrlhagen
p1030
(dp1031
S'part2_correct_attempt'
p1032
(lp1033
S'0:07:54'
p1034
aV0.5/2
p1035
asS'part1_correct_attempt'
p1036
(lp1037
S'0:00:00'
p1038
aV0.5
p1039
asg9
V2015-10-31 17:11:50
p1040
sS'part2_incorrect_attempt'
p1041
(lp1042
(S'0:00:10'
p1043
V0.5
p1044
tp1045
a(S'0:07:24'
p1046
V0.5
p1047
tp1048
assVbtn023
p1049
(dp1050
S'part2_correct_attempt'
p1051
(lp1052
S'0:02:29'
p1053
aV2*.5*(1-.5)^2
p1054
asS'part1_correct_attempt'
p1055
(lp1056
S'0:00:00'
p1057
aV.5
p1058
asg9
V2015-11-06 10:42:56
p1059
sS'part2_incorrect_attempt'
p1060
(lp1061
(S'0:00:00'
p1062
V.5
p1063
tp1064
a(S'0:01:47'
p1065
V.5*(1-.5)^2
p1066
tp1067
assVavasavad
p1068
(dp1069
S'part2_correct_attempt'
p1070
(lp1071
S'0:32:18'
p1072
aV1/4
p1073
asS'part1_correct_attempt'
p1074
(lp1075
S'0:00:00'
p1076
aV1/2
p1077
asg9
V2015-11-04 23:06:05
p1078
sS'part2_incorrect_attempt'
p1079
(lp1080
(S'0:03:21'
p1081
V1/2 - 0.5
p1082
tp1083
assVnnh002
p1084
(dp1085
S'part2_correct_attempt'
p1086
(lp1087
S'0:00:20'
p1088
aV(1-0.5)^2*0.5+(0-0.5)^2*0.5
p1089
asS'part1_correct_attempt'
p1090
(lp1091
S'0:00:00'
p1092
aV0.5
p1093
asg9
V2015-11-05 03:58:12
p1094
sS'part2_incorrect_attempt'
p1095
(lp1096
(S'0:00:00'
p1097
V(1-0.5)^2+(0-0.5)^2
p1098
tp1099
assVvsosnovs
p1100
(dp1101
S'part2_correct_attempt'
p1102
(lp1103
S'0:02:11'
p1104
aV.5-.25
p1105
asS'part1_correct_attempt'
p1106
(lp1107
S'0:00:00'
p1108
aV.5
p1109
asg9
V2015-11-05 20:50:05
p1110
sS'part2_incorrect_attempt'
p1111
(lp1112
(S'0:02:03'
p1113
V.5
p1114
tp1115
assVtwsalim
p1116
(dp1117
S'part2_correct_attempt'
p1118
(lp1119
S'1:01:15'
p1120
aV0.25
p1121
asS'part1_correct_attempt'
p1122
(lp1123
S'0:00:00'
p1124
aV0.5
p1125
asg9
V2015-11-04 03:30:14
p1126
sS'part2_incorrect_attempt'
p1127
(lp1128
(S'0:01:49'
p1129
V0.5
p1130
tp1131
assVjap009
p1132
(dp1133
S'part2_correct_attempt'
p1134
(lp1135
S'0:01:34'
p1136
aV.25
p1137
asS'part1_correct_attempt'
p1138
(lp1139
S'0:00:00'
p1140
aV.5
p1141
asg9
V2015-11-05 21:00:35
p1142
sS'part2_incorrect_attempt'
p1143
(lp1144
(S'0:00:00'
p1145
V.5
p1146
tp1147
assVppanourg
p1148
(dp1149
S'part2_correct_attempt'
p1150
(lp1151
S'0:09:48'
p1152
aV.25
p1153
asS'part1_correct_attempt'
p1154
(lp1155
S'0:00:00'
p1156
ag36
asg9
V2015-11-06 08:24:25
p1157
sS'part2_incorrect_attempt'
p1158
(lp1159
(S'0:00:26'
p1160
V.5
p1161
tp1162
assVjcl084
p1163
(dp1164
S'part2_correct_attempt'
p1165
(lp1166
S'0:00:46'
p1167
aV0.5^2
p1168
asS'part1_correct_attempt'
p1169
(lp1170
S'0:00:00'
p1171
ag75
asg9
V2015-11-02 20:08:35
p1172
sS'part2_incorrect_attempt'
p1173
(lp1174
(S'0:00:41'
p1175
V0.5^2 - 0.5^2
p1176
tp1177
assVrraiyyan
p1178
(dp1179
S'part2_correct_attempt'
p1180
(lp1181
S'0:00:26'
p1182
aV0.25
p1183
asS'part1_correct_attempt'
p1184
(lp1185
S'0:00:00'
p1186
ag102
asg9
V2015-11-06 21:18:14
p1187
sS'part2_incorrect_attempt'
p1188
(lp1189
(S'0:00:20'
p1190
V0.5
p1191
tp1192
assVhachrist
p1193
(dp1194
S'part2_correct_attempt'
p1195
(lp1196
S'0:23:34'
p1197
aV0.5 - 0.5^2
p1198
asS'part1_correct_attempt'
p1199
(lp1200
S'0:00:00'
p1201
aV0.5
p1202
asg9
V2015-11-03 20:13:34
p1203
sS'part2_incorrect_attempt'
p1204
(lp1205
(S'0:23:08'
p1206
V0.5 - 0.5
p1207
tp1208
assVmpanelo
p1209
(dp1210
S'part2_correct_attempt'
p1211
(lp1212
S'0:01:02'
p1213
aV0.25
p1214
asS'part1_correct_attempt'
p1215
(lp1216
S'0:00:00'
p1217
aV0.5
p1218
asg9
V2015-11-01 23:13:44
p1219
sS'part2_incorrect_attempt'
p1220
(lp1221
(S'0:00:00'
p1222
V0.125
p1223
tp1224
assVv4zhang
p1225
(dp1226
S'part2_correct_attempt'
p1227
(lp1228
S'0:01:09'
p1229
aV0.5-(0.5^2)
p1230
asS'part1_correct_attempt'
p1231
(lp1232
S'0:00:00'
p1233
ag8
asg9
V2015-11-05 11:05:44
p1234
sS'part2_incorrect_attempt'
p1235
(lp1236
(S'0:00:49'
p1237
V0.5
p1238
tp1239
assVdsmonaha
p1240
(dp1241
S'part2_correct_attempt'
p1242
(lp1243
S'0:15:28'
p1244
aV.25
p1245
asS'part1_correct_attempt'
p1246
(lp1247
S'0:00:00'
p1248
aV.5
p1249
asg9
V2015-11-02 16:47:16
p1250
sS'part2_incorrect_attempt'
p1251
(lp1252
(S'0:08:03'
p1253
V(1-.5)/(.5)^2
p1254
tp1255
a(S'0:13:18'
p1256
V.5
p1257
tp1258
assVazkong
p1259
(dp1260
S'part2_correct_attempt'
p1261
(lp1262
S'1:09:18'
p1263
aV0.25
p1264
asS'part1_correct_attempt'
p1265
(lp1266
S'0:00:00'
p1267
aV0.5
p1268
asg9
V2015-11-06 19:40:48
p1269
sS'part2_incorrect_attempt'
p1270
(lp1271
(S'0:04:04'
p1272
V0.5/0.5^2
p1273
tp1274
a(S'0:16:51'
p1275
V0.5
p1276
tp1277
assVtstevens
p1278
(dp1279
S'part2_correct_attempt'
p1280
(lp1281
S'0:12:46'
p1282
aV.25
p1283
asS'part1_correct_attempt'
p1284
(lp1285
S'0:00:00'
p1286
aV.5
p1287
asg9
V2015-11-06 11:34:10
p1288
sS'part2_incorrect_attempt'
p1289
(lp1290
(S'0:00:08'
p1291
V.5
p1292
tp1293
a(S'0:09:02'
p1294
V1.5
p1295
tp1296
a(S'0:10:15'
p1297
V.5/.25
p1298
tp1299
assVpthsu
p1300
(dp1301
S'part2_correct_attempt'
p1302
(lp1303
S'0:05:51'
p1304
aV1/4
p1305
asS'part1_correct_attempt'
p1306
(lp1307
S'0:00:00'
p1308
aV0.5
p1309
asg9
V2015-10-31 03:31:32
p1310
sS'part2_incorrect_attempt'
p1311
(lp1312
(S'0:00:23'
p1313
V.5
p1314
tp1315
assVyhhan
p1316
(dp1317
S'part1_correct_attempt'
p1318
(lp1319
S'0:00:00'
p1320
aV.5
p1321
asg9
V2015-11-06 23:44:23
p1322
sS'part2_incorrect_attempt'
p1323
(lp1324
(S'0:00:00'
p1325
V.5
p1326
tp1327
assVdtea
p1328
(dp1329
S'part1_correct_attempt'
p1330
(lp1331
S'0:00:00'
p1332
aV.5
p1333
asg9
V2015-11-07 00:16:24
p1334
sS'part2_incorrect_attempt'
p1335
(lp1336
(S'0:00:44'
p1337
V.5
p1338
tp1339
a(S'0:37:06'
p1340
V(1/12)(.5-.5)^2
p1341
tp1342
a(S'0:37:20'
p1343
V(1/12)(.5)^2
p1344
tp1345
a(S'0:40:50'
p1346
V(1-.5)/.5^2
p1347
tp1348
a(S'0:41:27'
p1349
V(1-.5)/.5^2
p1350
tp1351
assVsmall
p1352
(dp1353
S'part2_correct_attempt'
p1354
(lp1355
S'3:12:00'
p1356
aV0.25
p1357
asS'part1_correct_attempt'
p1358
(lp1359
S'0:00:00'
p1360
aV0.5
p1361
asg9
V2015-11-05 23:36:40
p1362
sS'part2_incorrect_attempt'
p1363
(lp1364
(S'3:09:02'
p1365
V0.025
p1366
tp1367
assVa2ahmed
p1368
(dp1369
S'part2_correct_attempt'
p1370
(lp1371
S'0:00:59'
p1372
aV0.25
p1373
asS'part1_correct_attempt'
p1374
(lp1375
S'0:00:00'
p1376
aV0.5
p1377
asg9
V2015-11-07 00:29:33
p1378
sS'part2_incorrect_attempt'
p1379
(lp1380
(S'0:00:43'
p1381
V0.5
p1382
tp1383
assVc1wei
p1384
(dp1385
S'part2_correct_attempt'
p1386
(lp1387
S'0:02:10'
p1388
aV.25
p1389
asS'part1_correct_attempt'
p1390
(lp1391
S'0:00:00'
p1392
ag243
asg9
V2015-11-04 06:42:22
p1393
sS'part2_incorrect_attempt'
p1394
(lp1395
(S'0:00:25'
p1396
V.5
p1397
tp1398
assVchc286
p1399
(dp1400
S'part2_correct_attempt'
p1401
(lp1402
S'0:01:49'
p1403
aV0.5*(1-0.5)^2+0.5*(0-0.5)^2
p1404
asS'part1_correct_attempt'
p1405
(lp1406
S'0:00:00'
p1407
aV1*0.5+0
p1408
asg9
V2015-11-01 01:22:52
p1409
sS'part2_incorrect_attempt'
p1410
(lp1411
(S'0:01:01'
p1412
V0.5*(0.5-0.5)^2+0.5*(0-0.5)^2
p1413
tp1414
assVsayao
p1415
(dp1416
S'part2_correct_attempt'
p1417
(lp1418
S'0:06:55'
p1419
aV.5*.5
p1420
asS'part1_correct_attempt'
p1421
(lp1422
S'0:00:00'
p1423
aV.5
p1424
asg9
V2015-11-04 01:24:54
p1425
sS'part2_incorrect_attempt'
p1426
(lp1427
(S'0:00:18'
p1428
V.5
p1429
tp1430
assVanvan
p1431
(dp1432
S'part2_correct_attempt'
p1433
(lp1434
S'0:01:33'
p1435
aV.5^2
p1436
asS'part1_correct_attempt'
p1437
(lp1438
S'0:00:00'
p1439
ag180
asg9
V2015-11-05 18:37:35
p1440
sS'part2_incorrect_attempt'
p1441
(lp1442
(S'0:00:56'
p1443
V49.5^2
p1444
tp1445
assVhmshah
p1446
(dp1447
S'part2_correct_attempt'
p1448
(lp1449
S'18:46:22'
p1450
aV(0 - .5)^2
p1451
asS'part1_correct_attempt'
p1452
(lp1453
S'0:00:00'
p1454
aV.5
p1455
asg9
V2015-11-05 09:34:38
p1456
sS'part2_incorrect_attempt'
p1457
(lp1458
(S'0:00:11'
p1459
V.5
p1460
tp1461
a(S'18:46:11'
p1462
V(.5 - .5)^2
p1463
tp1464
assVjtfrankl
p1465
(dp1466
S'part2_correct_attempt'
p1467
(lp1468
S'0:02:16'
p1469
aV.25
p1470
asS'part1_correct_attempt'
p1471
(lp1472
S'0:00:00'
p1473
aV.5
p1474
asg9
V2015-11-06 18:24:55
p1475
sS'part2_incorrect_attempt'
p1476
(lp1477
(S'0:00:30'
p1478
V.5
p1479
tp1480
assVtdurrer
p1481
(dp1482
S'part2_correct_attempt'
p1483
(lp1484
S'0:00:14'
p1485
aV.25
p1486
asS'part1_correct_attempt'
p1487
(lp1488
S'0:00:00'
p1489
aV.5
p1490
asg9
V2015-11-06 03:30:34
p1491
sS'part2_incorrect_attempt'
p1492
(lp1493
(S'0:00:00'
p1494
V.5
p1495
tp1496
assVcstringh
p1497
(dp1498
S'part2_correct_attempt'
p1499
(lp1500
S'0:15:41'
p1501
aV0.25
p1502
asS'part1_correct_attempt'
p1503
(lp1504
S'0:00:00'
p1505
aV0.5
p1506
asg9
V2015-11-04 06:26:19
p1507
sS'part2_incorrect_attempt'
p1508
(lp1509
(S'0:00:00'
p1510
V0.5
p1511
tp1512
assVxweng
p1513
(dp1514
S'part2_correct_attempt'
p1515
(lp1516
S'0:00:49'
p1517
aV0.25
p1518
asS'part1_correct_attempt'
p1519
(lp1520
S'0:00:00'
p1521
aV0.5
p1522
asg9
V2015-11-06 00:01:52
p1523
sS'part2_incorrect_attempt'
p1524
(lp1525
(S'0:00:27'
p1526
V0.5
p1527
tp1528
assVv4sharma
p1529
(dp1530
S'part2_correct_attempt'
p1531
(lp1532
S'1 day, 19:12:12'
p1533
aV0.25
p1534
asS'part1_correct_attempt'
p1535
(lp1536
S'0:00:00'
p1537
aV0.5
p1538
asg9
V2015-11-04 02:39:57
p1539
sS'part2_incorrect_attempt'
p1540
(lp1541
(S'0:00:12'
p1542
V0.5
p1543
tp1544
a(S'0:02:17'
p1545
V0.5/0.25
p1546
tp1547
assVkquong
p1548
(dp1549
S'part2_correct_attempt'
p1550
(lp1551
S'0:05:59'
p1552
aV.25
p1553
asS'part1_correct_attempt'
p1554
(lp1555
S'0:00:00'
p1556
aV.5
p1557
asg9
V2015-11-02 04:08:58
p1558
sS'part2_incorrect_attempt'
p1559
(lp1560
(S'0:00:00'
p1561
V.5
p1562
tp1563
assVvasharma
p1564
(dp1565
S'part2_correct_attempt'
p1566
(lp1567
S'0:00:50'
p1568
aV.5*.5
p1569
asS'part1_correct_attempt'
p1570
(lp1571
S'0:00:00'
p1572
ag282
asg9
V2015-11-04 18:46:00
p1573
sS'part2_incorrect_attempt'
p1574
(lp1575
(S'0:00:13'
p1576
V.5
p1577
tp1578
assVkosung
p1579
(dp1580
S'part2_correct_attempt'
p1581
(lp1582
S'0:15:33'
p1583
aV0.25
p1584
asS'part1_correct_attempt'
p1585
(lp1586
S'0:00:00'
p1587
aV0.5
p1588
asg9
V2015-11-05 08:26:55
p1589
sS'part2_incorrect_attempt'
p1590
(lp1591
(S'0:00:00'
p1592
V0.5
p1593
tp1594
a(S'0:14:48'
p1595
V0.5
p1596
tp1597
assVbkoli
p1598
(dp1599
S'part2_correct_attempt'
p1600
(lp1601
S'0:15:06'
p1602
aV0.5(0.5)
p1603
asS'part1_correct_attempt'
p1604
(lp1605
S'0:00:00'
p1606
aV0.5
p1607
asg9
V2015-11-05 21:23:15
p1608
sS'part2_incorrect_attempt'
p1609
(lp1610
(S'0:02:02'
p1611
V(1-0.5)/(0.5^2)
p1612
tp1613
a(S'0:08:31'
p1614
V0.5
p1615
tp1616
assVrbdoming
p1617
(dp1618
S'part2_correct_attempt'
p1619
(lp1620
S'0:03:02'
p1621
aV0.5-(0.5)^2
p1622
asS'part1_correct_attempt'
p1623
(lp1624
S'0:00:00'
p1625
aV0.5
p1626
asg9
V2015-11-05 18:49:18
p1627
sS'part2_incorrect_attempt'
p1628
(lp1629
(S'0:00:00'
p1630
V0.5
p1631
tp1632
assVxil109
p1633
(dp1634
S'part2_correct_attempt'
p1635
(lp1636
S'0:09:21'
p1637
aV0.5-0.5^2
p1638
asS'part1_correct_attempt'
p1639
(lp1640
S'0:00:00'
p1641
aV0.5
p1642
asg9
V2015-11-05 03:20:50
p1643
sS'part2_incorrect_attempt'
p1644
(lp1645
(S'0:08:18'
p1646
V0.5
p1647
tp1648
assVdac064
p1649
(dp1650
S'part2_correct_attempt'
p1651
(lp1652
S'0:06:20'
p1653
aV1/4
p1654
asS'part1_correct_attempt'
p1655
(lp1656
S'0:00:00'
p1657
aV.5
p1658
asg9
V2015-11-05 08:56:16
p1659
sS'part2_incorrect_attempt'
p1660
(lp1661
(S'0:02:52'
p1662
V.5
p1663
tp1664
assVajvanega
p1665
(dp1666
S'part2_correct_attempt'
p1667
(lp1668
S'16:20:04'
p1669
aV1/4
p1670
asS'part1_correct_attempt'
p1671
(lp1672
S'0:00:00'
p1673
ag294
asg9
V2015-11-05 02:30:18
p1674
sS'part2_incorrect_attempt'
p1675
(lp1676
(S'16:02:11'
p1677
V.5
p1678
tp1679
assVzhw110
p1680
(dp1681
S'part2_correct_attempt'
p1682
(lp1683
S'23:42:51'
p1684
aV0.5^2
p1685
asS'part1_correct_attempt'
p1686
(lp1687
S'0:00:00'
p1688
aV0.5
p1689
asg9
V2015-11-06 00:40:42
p1690
sS'part2_incorrect_attempt'
p1691
(lp1692
(S'0:00:00'
p1693
V0.5
p1694
tp1695
a(S'23:40:20'
p1696
V0.5
p1697
tp1698
a(S'23:42:15'
p1699
V0.5^2+0.5^2
p1700
tp1701
assVcagatep
p1702
(dp1703
S'part2_correct_attempt'
p1704
(lp1705
S'0:01:45'
p1706
aV.25
p1707
asS'part1_correct_attempt'
p1708
(lp1709
S'0:00:00'
p1710
aV.5
p1711
asg9
V2015-11-05 06:53:46
p1712
sS'part2_incorrect_attempt'
p1713
(lp1714
(S'0:00:27'
p1715
V.5
p1716
tp1717
assVhmnaing
p1718
(dp1719
S'part2_correct_attempt'
p1720
(lp1721
S'0:08:10'
p1722
aV(0.5)-(0.5)^2
p1723
asS'part1_correct_attempt'
p1724
(lp1725
S'0:00:00'
p1726
aV0.5*1
p1727
asg9
V2015-11-04 19:10:30
p1728
sS'part2_incorrect_attempt'
p1729
(lp1730
(S'0:02:28'
p1731
V(0.5^2)-(0.5)^2
p1732
tp1733
a(S'0:04:25'
p1734
V(0.5^2)-(0.5)^2
p1735
tp1736
assVhaliew
p1737
(dp1738
S'part2_correct_attempt'
p1739
(lp1740
S'0:10:19'
p1741
aV.25
p1742
asS'part1_correct_attempt'
p1743
(lp1744
S'0:00:00'
p1745
ag168
asg9
V2015-11-06 22:53:03
p1746
sS'part2_incorrect_attempt'
p1747
(lp1748
(S'0:01:56'
p1749
V.25/100
p1750
tp1751
a(S'0:09:39'
p1752
V.5^2(100)
p1753
tp1754
assVj2phung
p1755
(dp1756
S'part2_correct_attempt'
p1757
(lp1758
S'0:04:47'
p1759
aV1/(2^(2))
p1760
asS'part1_correct_attempt'
p1761
(lp1762
S'0:00:00'
p1763
aV0.5
p1764
asg9
V2015-11-03 22:43:26
p1765
sS'part2_incorrect_attempt'
p1766
(lp1767
(S'0:00:37'
p1768
V0.5
p1769
tp1770
assVwmiao
p1771
(dp1772
S'part2_correct_attempt'
p1773
(lp1774
S'0:00:25'
p1775
aV0.5*(1-0.5)
p1776
asS'part1_correct_attempt'
p1777
(lp1778
S'0:00:00'
p1779
aV0.5
p1780
asg9
V2015-11-04 20:14:51
p1781
sS'part2_incorrect_attempt'
p1782
(lp1783
(S'0:00:00'
p1784
V0.5
p1785
tp1786
assVkgrozav
p1787
(dp1788
S'part2_correct_attempt'
p1789
(lp1790
S'0:07:12'
p1791
aV0.25
p1792
asS'part1_correct_attempt'
p1793
(lp1794
S'0:00:00'
p1795
aV0.5
p1796
asg9
V2015-11-05 07:35:53
p1797
sS'part2_incorrect_attempt'
p1798
(lp1799
(S'0:00:00'
p1800
V0.5
p1801
tp1802
assVjhp077
p1803
(dp1804
S'part2_correct_attempt'
p1805
(lp1806
S'0:03:24'
p1807
aV0.25
p1808
asS'part1_correct_attempt'
p1809
(lp1810
S'0:00:00'
p1811
aV0.5
p1812
asg9
V2015-11-05 13:06:29
p1813
sS'part2_incorrect_attempt'
p1814
(lp1815
(S'0:01:26'
p1816
V0.5
p1817
tp1818
assVany027
p1819
(dp1820
S'part2_correct_attempt'
p1821
(lp1822
S'0:01:59'
p1823
aV(0.5 ^2 + 0.5 ^ 2 )/ 2
p1824
asS'part1_correct_attempt'
p1825
(lp1826
S'0:00:00'
p1827
aV(0.5)
p1828
asg9
V2015-11-01 20:11:07
p1829
sS'part2_incorrect_attempt'
p1830
(lp1831
(S'0:00:39'
p1832
V0.5
p1833
tp1834
a(S'0:01:17'
p1835
V(0.5 ^ 2 )/ 2
p1836
tp1837
asssV5
p1838
(dp1839
Vdlt009
p1840
(dp1841
S'part5_correct_attempt'
p1842
(lp1843
S'0:02:20'
p1844
aV(0.5)-2*(1)+(1.5)
p1845
asS'part5_incorrect_attempt'
p1846
(lp1847
(S'-1 day, 23:59:35'
p1848
V(1/0.5)-2*(3/0.5)+(6/0.5)
p1849
tp1850
asg9
g356
ssVj6quach
p1851
(dp1852
S'part5_correct_attempt'
p1853
(lp1854
S'1:57:48'
p1855
aV0
p1856
asS'part5_incorrect_attempt'
p1857
(lp1858
(S'0:11:32'
p1859
V1/2 -1 + 3/2
p1860
tp1861
asg9
V2015-11-05 11:32:25
p1862
ssVgsrandha
p1863
(dp1864
S'part5_correct_attempt'
p1865
(lp1866
S'0:34:44'
p1867
aV0
p1868
asS'part5_incorrect_attempt'
p1869
(lp1870
(S'0:34:28'
p1871
V4 * .5
p1872
tp1873
asg9
g380
ssVhaw081
p1874
(dp1875
S'part5_correct_attempt'
p1876
(lp1877
S'0:14:59'
p1878
aV0.5-0.5*2+0.5
p1879
asS'part5_incorrect_attempt'
p1880
(lp1881
(S'0:14:48'
p1882
V0.5-05*2+0.5
p1883
tp1884
asg9
g954
ssVz3meng
p1885
(dp1886
S'part5_correct_attempt'
p1887
(lp1888
S'0:05:24'
p1889
aV0
p1890
asS'part5_incorrect_attempt'
p1891
(lp1892
(S'0:00:00'
p1893
V-1
p1894
tp1895
asg9
V2015-11-05 07:50:27
p1896
ssVvasharma
p1897
(dp1898
S'part5_correct_attempt'
p1899
(lp1900
S'0:02:53'
p1901
aV.5-2*.5+.5
p1902
asS'part5_incorrect_attempt'
p1903
(lp1904
(S'0:02:43'
p1905
V.5+2*.5+.5
p1906
tp1907
asg9
g1573
ssVajabasa
p1908
(dp1909
S'part5_correct_attempt'
p1910
(lp1911
S'9:03:37'
p1912
aV.5-2*.5+(.5)
p1913
asS'part5_incorrect_attempt'
p1914
(lp1915
(S'8:59:35'
p1916
V.5-2*.5+1.5
p1917
tp1918
a(S'9:00:37'
p1919
V.5-2*.5+(.5+.5+3*.5)
p1920
tp1921
asg9
g404
ssVbakang
p1922
(dp1923
S'part5_correct_attempt'
p1924
(lp1925
S'0:04:18'
p1926
aV0
p1927
asS'part5_incorrect_attempt'
p1928
(lp1929
(S'0:03:59'
p1930
V-1
p1931
tp1932
asg9
V2015-11-05 08:35:46
p1933
sssV4
p1934
(dp1935
Vdruble
p1936
(dp1937
S'part4_correct_attempt'
p1938
(lp1939
S'0:07:40'
p1940
aV0.25 + 0.25
p1941
asS'part2_correct_attempt'
p1942
(lp1943
S'0:00:00'
p1944
aV0.5 * (1 - 0.5)
p1945
asS'part4_incorrect_attempt'
p1946
(lp1947
(S'0:03:37'
p1948
V0.25 - 0.25
p1949
tp1950
asg9
V2015-11-04 05:09:50
p1951
ssVdlgoldbe
p1952
(dp1953
S'part4_correct_attempt'
p1954
(lp1955
S'0:21:47'
p1956
aV(0.25)-((-1^2)*0.25)
p1957
asS'part2_correct_attempt'
p1958
(lp1959
S'0:01:05'
p1960
aV0.5*(1-0.5)
p1961
asS'part4_incorrect_attempt'
p1962
(lp1963
(S'0:21:14'
p1964
V(0.25)+((-1^2)*0.25)
p1965
tp1966
asg9
V2015-11-05 05:38:38
p1967
ssVlpettit
p1968
(dp1969
S'part4_correct_attempt'
p1970
(lp1971
S'0:12:39'
p1972
aV1/2
p1973
asS'part2_correct_attempt'
p1974
(lp1975
S'0:11:02'
p1976
ag491
asS'part4_incorrect_attempt'
p1977
(lp1978
(S'0:12:24'
p1979
V1/2 + 1/2
p1980
tp1981
asg9
g496
ssVrwthomps
p1982
(dp1983
S'part4_correct_attempt'
p1984
(lp1985
S'3:10:48'
p1986
aV0.5
p1987
asS'part2_correct_attempt'
p1988
(lp1989
S'0:00:00'
p1990
aV0.5 * 0.5
p1991
asS'part4_incorrect_attempt'
p1992
(lp1993
(S'3:01:11'
p1994
V(1 - 0.5)/0.5^2 + (-1)^2 * (1 - (1 - 0.5)^(2 - 1) * 0.5)/0.5^2
p1995
tp1996
a(S'3:01:59'
p1997
V0.5 + 2 * 0.5 * 0.5
p1998
tp1999
a(S'3:03:46'
p2000
V0.5 * 0.5 + 2 * 0.5 * 0.5
p2001
tp2002
asg9
V2015-11-06 18:18:48
p2003
ssVkbielawi
p2004
(dp2005
S'part4_correct_attempt'
p2006
(lp2007
S'2 days, 0:16:12'
p2008
aV0.5
p2009
asS'part2_correct_attempt'
p2010
(lp2011
S'23:11:51'
p2012
ag605
asS'part4_incorrect_attempt'
p2013
(lp2014
(S'23:24:16'
p2015
V0.125
p2016
tp2017
a(S'23:24:40'
p2018
V0.25
p2019
tp2020
a(S'23:34:38'
p2021
V0.1
p2022
tp2023
asg9
g610
ssVglcohen
p2024
(dp2025
S'part4_correct_attempt'
p2026
(lp2027
S'3:57:57'
p2028
aV0.5
p2029
asS'part2_correct_attempt'
p2030
(lp2031
S'0:05:58'
p2032
ag621
asS'part4_incorrect_attempt'
p2033
(lp2034
(S'0:07:15'
p2035
V0.25
p2036
tp2037
a(S'3:56:29'
p2038
V0.1875
p2039
tp2040
asg9
g626
ssVfichoi
p2041
(dp2042
S'part4_correct_attempt'
p2043
(lp2044
S'0:14:06'
p2045
aV0.5
p2046
asS'part2_correct_attempt'
p2047
(lp2048
S'0:00:00'
p2049
aV0.25
p2050
asS'part4_incorrect_attempt'
p2051
(lp2052
(S'0:04:46'
p2053
V4.5
p2054
tp2055
a(S'0:05:23'
p2056
V2.5
p2057
tp2058
asg9
V2015-11-04 04:32:30
p2059
ssVatorr
p2060
(dp2061
S'part4_correct_attempt'
p2062
(lp2063
S'0:03:16'
p2064
aV0.5
p2065
asS'part2_correct_attempt'
p2066
(lp2067
S'0:01:37'
p2068
aV0.25
p2069
asS'part4_incorrect_attempt'
p2070
(lp2071
(S'0:02:35'
p2072
V0.25
p2073
tp2074
asg9
V2015-11-05 19:48:49
p2075
ssVspw006
p2076
(dp2077
S'part4_correct_attempt'
p2078
(lp2079
S'3:08:40'
p2080
aV0.5
p2081
asS'part2_correct_attempt'
p2082
(lp2083
S'2:16:55'
p2084
ag669
asS'part4_incorrect_attempt'
p2085
(lp2086
(S'2:22:32'
p2087
V0.25
p2088
tp2089
asg9
g674
ssVany027
p2090
(dp2091
S'part4_correct_attempt'
p2092
(lp2093
S'0:13:41'
p2094
aV0.5
p2095
asS'part2_correct_attempt'
p2096
(lp2097
S'0:01:59'
p2098
ag1824
asS'part4_incorrect_attempt'
p2099
(lp2100
(S'0:10:36'
p2101
V((0.5 ^2 + 0.5 ^ 2 )/ 2) - ((0.5 ^2 + 0.5 ^ 2 )/ 2)
p2102
tp2103
a(S'0:12:18'
p2104
V((0.5 ^2 + 0.5 ^ 2 )/ 4 ) - ((0.5 ^2 + 0.5 ^ 2 )/ 4)
p2105
tp2106
asg9
g1829
ssVdcrume
p2107
(dp2108
S'part4_correct_attempt'
p2109
(lp2110
S'0:48:43'
p2111
aV.5*.5/1 + .5*.5/1
p2112
asS'part2_correct_attempt'
p2113
(lp2114
S'0:30:54'
p2115
ag701
asS'part4_incorrect_attempt'
p2116
(lp2117
(S'0:37:04'
p2118
V.5*(1-.5)/1 - .5*(1-.5)/2
p2119
tp2120
a(S'0:37:49'
p2121
V.5*(1-.5)/2 - .5*(1-.5)/2
p2122
tp2123
asg9
g706
ssVmhale
p2124
(dp2125
S'part4_correct_attempt'
p2126
(lp2127
S'0:05:38'
p2128
aV0.5
p2129
asS'part2_correct_attempt'
p2130
(lp2131
S'0:02:42'
p2132
ag742
asS'part4_incorrect_attempt'
p2133
(lp2134
(S'0:04:13'
p2135
V0.25
p2136
tp2137
asg9
g747
ssVawollner
p2138
(dp2139
S'part4_correct_attempt'
p2140
(lp2141
S'0:21:00'
p2142
aV.5
p2143
asS'part2_correct_attempt'
p2144
(lp2145
S'0:12:45'
p2146
ag774
asS'part4_incorrect_attempt'
p2147
(lp2148
(S'0:18:19'
p2149
V.25
p2150
tp2151
asg9
g779
ssVkthui
p2152
(dp2153
S'part4_correct_attempt'
p2154
(lp2155
S'5:14:15'
p2156
aV0.5
p2157
asS'part2_correct_attempt'
p2158
(lp2159
S'0:08:27'
p2160
ag456
asS'part4_incorrect_attempt'
p2161
(lp2162
(S'5:14:09'
p2163
V0.25
p2164
tp2165
asg9
g461
ssVjcj006
p2166
(dp2167
S'part4_correct_attempt'
p2168
(lp2169
S'0:14:04'
p2170
aV.5
p2171
asS'part2_correct_attempt'
p2172
(lp2173
S'0:06:28'
p2174
aV.25
p2175
asS'part4_incorrect_attempt'
p2176
(lp2177
(S'0:12:29'
p2178
V1.25
p2179
tp2180
a(S'0:13:41'
p2181
V0.75
p2182
tp2183
asg9
V2015-11-04 05:17:58
p2184
ssVc3chung
p2185
(dp2186
S'part4_correct_attempt'
p2187
(lp2188
S'0:02:28'
p2189
aV0.5
p2190
asS'part2_correct_attempt'
p2191
(lp2192
S'0:01:11'
p2193
aV0.25
p2194
asS'part4_incorrect_attempt'
p2195
(lp2196
(S'0:02:05'
p2197
V0.25
p2198
tp2199
asg9
V2015-11-06 10:47:12
p2200
ssVw4shin
p2201
(dp2202
S'part4_correct_attempt'
p2203
(lp2204
S'0:19:00'
p2205
aV0.5
p2206
asS'part2_correct_attempt'
p2207
(lp2208
S'0:10:20'
p2209
aV0.25
p2210
asS'part4_incorrect_attempt'
p2211
(lp2212
(S'0:10:20'
p2213
V0.25
p2214
tp2215
asg9
V2015-11-06 22:40:03
p2216
ssVtpmach
p2217
(dp2218
S'part4_correct_attempt'
p2219
(lp2220
S'5 days, 1:06:39'
p2221
aV0.25+(-1)^2*(0.25)
p2222
asS'part2_correct_attempt'
p2223
(lp2224
S'5 days, 1:01:26'
p2225
ag917
asS'part4_incorrect_attempt'
p2226
(lp2227
(S'5 days, 1:05:32'
p2228
V0.25
p2229
tp2230
a(S'5 days, 1:06:21'
p2231
V0.25+(-1)^2*(0.5)
p2232
tp2233
asg9
g922
ssVhaw081
p2234
(dp2235
S'part4_correct_attempt'
p2236
(lp2237
S'0:03:00'
p2238
aV2(0.5)(0.5)
p2239
asS'part2_correct_attempt'
p2240
(lp2241
S'0:00:36'
p2242
ag949
asS'part4_incorrect_attempt'
p2243
(lp2244
(S'0:02:14'
p2245
V0.025-0.025
p2246
tp2247
a(S'0:02:34'
p2248
V0.025+0.025
p2249
tp2250
asg9
g954
ssVvqt004
p2251
(dp2252
S'part4_correct_attempt'
p2253
(lp2254
S'19:53:26'
p2255
aV0.5
p2256
asS'part2_correct_attempt'
p2257
(lp2258
S'0:00:00'
p2259
aV0.25
p2260
asS'part4_incorrect_attempt'
p2261
(lp2262
(S'0:00:43'
p2263
V0.25
p2264
tp2265
asg9
V2015-11-04 07:33:15
p2266
ssVk4ma
p2267
(dp2268
S'part4_correct_attempt'
p2269
(lp2270
S'0:20:33'
p2271
aV.5(1-.5)-[(-1^2)*.25]
p2272
asS'part2_correct_attempt'
p2273
(lp2274
S'0:06:42'
p2275
ag1019
asS'part4_incorrect_attempt'
p2276
(lp2277
(S'0:13:35'
p2278
V.5(1-.5)+[(-1^2)*.25]
p2279
tp2280
asg9
g1024
ssVrlhagen
p2281
(dp2282
S'part4_correct_attempt'
p2283
(lp2284
S'0:12:19'
p2285
aV(0/2)+1/2
p2286
asS'part2_correct_attempt'
p2287
(lp2288
S'0:07:54'
p2289
ag1035
asS'part4_incorrect_attempt'
p2290
(lp2291
(S'0:10:48'
p2292
V(-1/2)+1/2
p2293
tp2294
asg9
g1040
ssVagarango
p2295
(dp2296
S'part4_correct_attempt'
p2297
(lp2298
S'0:19:00'
p2299
aV0.25+0.25
p2300
asS'part2_correct_attempt'
p2301
(lp2302
S'0:10:00'
p2303
aV0.25
p2304
asS'part4_incorrect_attempt'
p2305
(lp2306
(S'0:10:25'
p2307
V0.25
p2308
tp2309
asg9
V2015-11-05 23:41:15
p2310
ssVnnh002
p2311
(dp2312
S'part4_correct_attempt'
p2313
(lp2314
S'0:28:54'
p2315
aV(1-0.5)^2*0.5+(0-0.5)^2*0.5+(1-0.5)^2*0.5+(0-0.5)^2*0.5
p2316
asS'part2_correct_attempt'
p2317
(lp2318
S'0:00:20'
p2319
ag1089
asS'part4_incorrect_attempt'
p2320
(lp2321
(S'0:27:02'
p2322
V2*(1-0.5)^2*0.5+(0-0.5)^2*0.5
p2323
tp2324
a(S'0:27:55'
p2325
V(-1-0.5)^2*0.5+(0-0.5)^2*0.5
p2326
tp2327
asg9
g1094
ssVctgraves
p2328
(dp2329
S'part4_correct_attempt'
p2330
(lp2331
S'0:02:12'
p2332
aV0.5
p2333
asS'part2_correct_attempt'
p2334
(lp2335
S'0:00:34'
p2336
ag806
asS'part4_incorrect_attempt'
p2337
(lp2338
(S'0:02:06'
p2339
V0.25
p2340
tp2341
asg9
g811
ssVppanourg
p2342
(dp2343
S'part4_correct_attempt'
p2344
(lp2345
S'0:16:53'
p2346
aV.5
p2347
asS'part2_correct_attempt'
p2348
(lp2349
S'0:09:48'
p2350
ag1153
asS'part4_incorrect_attempt'
p2351
(lp2352
(S'0:14:14'
p2353
V.25
p2354
tp2355
asg9
g1157
ssVrraiyyan
p2356
(dp2357
S'part4_correct_attempt'
p2358
(lp2359
S'0:01:52'
p2360
aV0.5
p2361
asS'part2_correct_attempt'
p2362
(lp2363
S'0:00:26'
p2364
ag1183
asS'part4_incorrect_attempt'
p2365
(lp2366
(S'0:01:28'
p2367
V0.25
p2368
tp2369
asg9
g1187
ssVhachrist
p2370
(dp2371
S'part4_correct_attempt'
p2372
(lp2373
S'0:31:42'
p2374
aV0.5
p2375
asS'part2_correct_attempt'
p2376
(lp2377
S'0:23:34'
p2378
ag1198
asS'part4_incorrect_attempt'
p2379
(lp2380
(S'0:24:12'
p2381
V0 
p2382
tp2383
a(S'0:31:37'
p2384
V0.25
p2385
tp2386
asg9
g1203
ssVhmshah
p2387
(dp2388
S'part4_correct_attempt'
p2389
(lp2390
S'18:48:14'
p2391
aV(0 - .5)^2 + (0 - .5)^2
p2392
asS'part2_correct_attempt'
p2393
(lp2394
S'18:46:22'
p2395
ag1451
asS'part4_incorrect_attempt'
p2396
(lp2397
(S'18:47:16'
p2398
V(0 - .5)^2 - (0 - .5)^2
p2399
tp2400
asg9
g1456
ssVyeh013
p2401
(dp2402
S'part4_correct_attempt'
p2403
(lp2404
S'0:02:57'
p2405
aV0.5
p2406
asS'part2_correct_attempt'
p2407
(lp2408
S'0:00:00'
p2409
aV0.25
p2410
asS'part4_incorrect_attempt'
p2411
(lp2412
(S'0:02:42'
p2413
V0.25
p2414
tp2415
asg9
V2015-11-04 07:18:53
p2416
ssVdjk006
p2417
(dp2418
S'part4_correct_attempt'
p2419
(lp2420
S'1:37:07'
p2421
aV.5
p2422
asS'part2_correct_attempt'
p2423
(lp2424
S'0:00:00'
p2425
aV.25
p2426
asS'part4_incorrect_attempt'
p2427
(lp2428
(S'0:01:00'
p2429
V.25
p2430
tp2431
a(S'0:02:42'
p2432
V.1
p2433
tp2434
a(S'0:03:10'
p2435
V.5/4
p2436
tp2437
a(S'0:30:58'
p2438
V5/4
p2439
tp2440
a(S'0:31:07'
p2441
V.5/4
p2442
tp2443
a(S'0:39:36'
p2444
V.5/3
p2445
tp2446
asg9
V2015-11-03 22:37:00
p2447
ssVmcatozzi
p2448
(dp2449
S'part4_correct_attempt'
p2450
(lp2451
S'0:05:31'
p2452
aV.5
p2453
asS'part2_correct_attempt'
p2454
(lp2455
S'0:03:48'
p2456
aV.5^2
p2457
asS'part4_incorrect_attempt'
p2458
(lp2459
(S'0:05:27'
p2460
V.25
p2461
tp2462
asg9
V2015-11-03 19:16:19
p2463
ssVchc286
p2464
(dp2465
S'part4_correct_attempt'
p2466
(lp2467
S'0:04:21'
p2468
aV0.25+0.25
p2469
asS'part2_correct_attempt'
p2470
(lp2471
S'0:01:49'
p2472
ag1404
asS'part4_incorrect_attempt'
p2473
(lp2474
(S'0:03:58'
p2475
V0.25-0.25
p2476
tp2477
asg9
g1409
ssVabasu
p2478
(dp2479
S'part4_correct_attempt'
p2480
(lp2481
S'0:16:43'
p2482
aV0.5
p2483
asS'part2_correct_attempt'
p2484
(lp2485
S'0:02:15'
p2486
aV0.25
p2487
asS'part4_incorrect_attempt'
p2488
(lp2489
(S'0:03:27'
p2490
V0.25
p2491
tp2492
asg9
V2015-11-05 02:12:18
p2493
ssVetemlock
p2494
(dp2495
S'part4_correct_attempt'
p2496
(lp2497
S'2 days, 2:55:17'
p2498
aV1/2
p2499
asS'part2_correct_attempt'
p2500
(lp2501
S'0:00:00'
p2502
aV0.25
p2503
asS'part4_incorrect_attempt'
p2504
(lp2505
(S'2:30:10'
p2506
V1/2 - 1/8
p2507
tp2508
a(S'2:40:57'
p2509
V1/4 - 1/16
p2510
tp2511
a(S'2:41:07'
p2512
V1/4 - 1/8
p2513
tp2514
a(S'2:41:15'
p2515
V1/4 - 1/4
p2516
tp2517
asg9
V2015-11-03 21:40:24
p2518
ssVacs008
p2519
(dp2520
S'part4_correct_attempt'
p2521
(lp2522
S'0:08:25'
p2523
aV0.5^2*2
p2524
asS'part2_correct_attempt'
p2525
(lp2526
S'0:00:48'
p2527
aV0.5^2
p2528
asS'part4_incorrect_attempt'
p2529
(lp2530
(S'0:04:25'
p2531
V0.25
p2532
tp2533
a(S'0:05:02'
p2534
V0.15
p2535
tp2536
asg9
V2015-11-04 05:07:00
p2537
ssVacvuong
p2538
(dp2539
S'part4_correct_attempt'
p2540
(lp2541
S'0:15:39'
p2542
aV2*0.5^2
p2543
asS'part2_correct_attempt'
p2544
(lp2545
S'0:00:00'
p2546
aV0.5^2
p2547
asS'part4_incorrect_attempt'
p2548
(lp2549
(S'0:02:35'
p2550
V0.5^2 - 0.25*0.5
p2551
tp2552
asg9
V2015-11-05 00:14:39
p2553
ssVlahawkin
p2554
(dp2555
S'part4_correct_attempt'
p2556
(lp2557
S'0:36:23'
p2558
aV(.25)+(.25)
p2559
asS'part2_correct_attempt'
p2560
(lp2561
S'0:35:41'
p2562
aV(.5*.5)
p2563
asS'part4_incorrect_attempt'
p2564
(lp2565
(S'0:36:14'
p2566
V(.25)+(0)
p2567
tp2568
asg9
V2015-11-05 18:50:24
p2569
ssVedcole
p2570
(dp2571
S'part4_correct_attempt'
p2572
(lp2573
S'0:01:23'
p2574
aV.5
p2575
asS'part2_correct_attempt'
p2576
(lp2577
S'0:00:00'
p2578
aV.25
p2579
asS'part4_incorrect_attempt'
p2580
(lp2581
(S'0:00:46'
p2582
V.25
p2583
tp2584
asg9
V2015-11-06 23:12:52
p2585
ssVvasharma
p2586
(dp2587
S'part4_correct_attempt'
p2588
(lp2589
S'0:13:05'
p2590
aV(.5*.5)+(.5*.5)
p2591
asS'part2_correct_attempt'
p2592
(lp2593
S'0:00:50'
p2594
ag1569
asS'part4_incorrect_attempt'
p2595
(lp2596
(S'0:01:31'
p2597
V.5+.5
p2598
tp2599
asg9
g1573
ssVbkoli
p2600
(dp2601
S'part4_correct_attempt'
p2602
(lp2603
S'0:25:35'
p2604
aV(0.5(0.5))+(0.5(0.5))
p2605
asS'part2_correct_attempt'
p2606
(lp2607
S'0:15:06'
p2608
ag1603
asS'part4_incorrect_attempt'
p2609
(lp2610
(S'0:21:42'
p2611
V(0.5(0.5))-(0.5(0.5))
p2612
tp2613
asg9
g1608
ssVyypan
p2614
(dp2615
S'part4_correct_attempt'
p2616
(lp2617
S'0:07:14'
p2618
aV0.5-0.5^2+0.5-0.5^2
p2619
asS'part2_correct_attempt'
p2620
(lp2621
S'0:02:28'
p2622
aV0.5-0.5^2
p2623
asS'part4_incorrect_attempt'
p2624
(lp2625
(S'0:05:15'
p2626
V(0.5-0.5^2)-(0.5-0.5^2)
p2627
tp2628
a(S'0:05:59'
p2629
V(0.5-0.5^2)-(0.5-0.5^2)^2
p2630
tp2631
asg9
V2015-11-03 00:09:22
p2632
ssVxil109
p2633
(dp2634
S'part4_correct_attempt'
p2635
(lp2636
S'0:27:47'
p2637
aV1/2
p2638
asS'part2_correct_attempt'
p2639
(lp2640
S'0:09:21'
p2641
ag1638
asS'part4_incorrect_attempt'
p2642
(lp2643
(S'0:26:32'
p2644
V3/4
p2645
tp2646
asg9
g1643
ssVv3doan
p2647
(dp2648
S'part4_correct_attempt'
p2649
(lp2650
S'0:02:04'
p2651
aV.5
p2652
asS'part2_correct_attempt'
p2653
(lp2654
S'0:00:05'
p2655
aV.25
p2656
asS'part4_incorrect_attempt'
p2657
(lp2658
(S'0:00:28'
p2659
V.25
p2660
tp2661
asg9
V2015-11-07 00:21:47
p2662
ssVcagatep
p2663
(dp2664
S'part4_correct_attempt'
p2665
(lp2666
S'0:04:32'
p2667
aV.5
p2668
asS'part2_correct_attempt'
p2669
(lp2670
S'0:01:45'
p2671
ag1707
asS'part4_incorrect_attempt'
p2672
(lp2673
(S'0:02:01'
p2674
V.25
p2675
tp2676
a(S'0:03:10'
p2677
V.5/4
p2678
tp2679
a(S'0:03:52'
p2680
V(.5^2 + 1.5^2)/4
p2681
tp2682
asg9
g1712
ssVm8woo
p2683
(dp2684
S'part4_correct_attempt'
p2685
(lp2686
S'0:01:38'
p2687
aV0.5
p2688
asS'part2_correct_attempt'
p2689
(lp2690
S'0:00:00'
p2691
aV0.25
p2692
asS'part4_incorrect_attempt'
p2693
(lp2694
(S'0:01:30'
p2695
V0.25
p2696
tp2697
asg9
V2015-11-05 20:48:48
p2698
ssVtjke
p2699
(dp2700
S'part4_correct_attempt'
p2701
(lp2702
S'0:05:20'
p2703
aV0.5*1^2 - 0.5^2 + [0.5*(-1)^2 - (0.5*-1)^2]
p2704
asS'part2_correct_attempt'
p2705
(lp2706
S'0:00:48'
p2707
aV0.5*1^2 - 0.5^2
p2708
asS'part4_incorrect_attempt'
p2709
(lp2710
(S'0:02:10'
p2711
V0.5*1^2 - 0.5^2 - [0.5*0^2 - 0^2]
p2712
tp2713
a(S'0:03:14'
p2714
V0.5*1^2 - 0.5^2 - [0.5*1^2 - 0.5^2]
p2715
tp2716
asg9
V2015-11-04 20:53:53
p2717
ssVj2phung
p2718
(dp2719
S'part4_correct_attempt'
p2720
(lp2721
S'1 day, 9:42:43'
p2722
aV1/2
p2723
asS'part2_correct_attempt'
p2724
(lp2725
S'0:04:47'
p2726
ag1760
asS'part4_incorrect_attempt'
p2727
(lp2728
(S'1 day, 9:30:16'
p2729
V.25
p2730
tp2731
asg9
g1765
ssVkgrozav
p2732
(dp2733
S'part4_correct_attempt'
p2734
(lp2735
S'12:09:00'
p2736
aV0.5
p2737
asS'part2_correct_attempt'
p2738
(lp2739
S'0:07:12'
p2740
ag1792
asS'part4_incorrect_attempt'
p2741
(lp2742
(S'11:42:55'
p2743
V2.5
p2744
tp2745
a(S'11:47:02'
p2746
V0.25
p2747
tp2748
a(S'11:56:38'
p2749
V0.25
p2750
tp2751
asg9
g1797
ssVcprafull
p2752
(dp2753
S'part4_correct_attempt'
p2754
(lp2755
S'3:20:47'
p2756
aV0.5
p2757
asS'part2_correct_attempt'
p2758
(lp2759
S'0:05:12'
p2760
aV0.5 - (0.5^2)
p2761
asS'part4_incorrect_attempt'
p2762
(lp2763
(S'0:34:08'
p2764
V0.25
p2765
tp2766
asg9
V2015-11-05 05:19:43
p2767
sssV7
p2768
(dp2769
Vb3hwang
p2770
(dp2771
g9
g906
sS'part7_correct_attempt'
p2772
(lp2773
S'0:09:32'
p2774
aV0
p2775
asS'part7_incorrect_attempt'
p2776
(lp2777
(S'0:09:18'
p2778
V.5(84-1)84/2
p2779
tp2780
assVm4salaza
p2781
(dp2782
g9
V2015-11-04 05:22:55
p2783
sS'part7_correct_attempt'
p2784
(lp2785
S'0:03:04'
p2786
aV0
p2787
asS'part7_incorrect_attempt'
p2788
(lp2789
(S'0:02:31'
p2790
V.5*80
p2791
tp2792
a(S'0:02:44'
p2793
V.5*78
p2794
tp2795
assVc1sorian
p2796
(dp2797
g9
g642
sS'part7_correct_attempt'
p2798
(lp2799
S'0:59:02'
p2800
aV0
p2801
asS'part7_incorrect_attempt'
p2802
(lp2803
(S'0:58:30'
p2804
V.5*98
p2805
tp2806
assVajabasa
p2807
(dp2808
g9
g404
sS'part7_correct_attempt'
p2809
(lp2810
S'12:38:32'
p2811
aV0
p2812
asS'part7_incorrect_attempt'
p2813
(lp2814
(S'12:36:52'
p2815
V.5*82
p2816
tp2817
assVdjk006
p2818
(dp2819
g9
g2447
sS'part7_correct_attempt'
p2820
(lp2821
S'1:42:16'
p2822
aV0
p2823
asS'part7_incorrect_attempt'
p2824
(lp2825
(S'1:40:56'
p2826
V86*.5
p2827
tp2828
a(S'1:41:05'
p2829
V84*.5
p2830
tp2831
assVavasavad
p2832
(dp2833
g9
g1078
sS'part7_incorrect_attempt'
p2834
(lp2835
(S'0:47:32'
p2836
V-82
p2837
tp2838
a(S'0:48:11'
p2839
V[(41/2)*82] - [(41/2)*84]
p2840
tp2841
a(S'10:49:42'
p2842
V82/2
p2843
tp2844
assVc3chung
p2845
(dp2846
g9
g2200
sS'part7_correct_attempt'
p2847
(lp2848
S'0:07:25'
p2849
aV0
p2850
asS'part7_incorrect_attempt'
p2851
(lp2852
(S'0:06:35'
p2853
V86*0.5
p2854
tp2855
asssV6
p2856
(dp2857
Vgthorn
p2858
(dp2859
S'part5_correct_attempt'
p2860
(lp2861
S'1 day, 12:33:11'
p2862
aV0
p2863
asS'part6_incorrect_attempt'
p2864
(lp2865
(S'1 day, 12:34:50'
p2866
V0.25
p2867
tp2868
asg9
g429
sS'part6_correct_attempt'
p2869
(lp2870
S'1 day, 12:36:16'
p2871
aV1.5
p2872
assVapokhare
p2873
(dp2874
S'part5_correct_attempt'
p2875
(lp2876
S'0:01:24'
p2877
aV0
p2878
asS'part6_incorrect_attempt'
p2879
(lp2880
(S'0:01:24'
p2881
V0.15
p2882
tp2883
asg9
V2015-11-05 21:35:02
p2884
sS'part6_correct_attempt'
p2885
(lp2886
S'0:01:48'
p2887
aV1.5
p2888
assVkbielawi
p2889
(dp2890
S'part5_correct_attempt'
p2891
(lp2892
S'23:30:29'
p2893
aV0
p2894
asS'part6_incorrect_attempt'
p2895
(lp2896
(S'2 days, 0:19:32'
p2897
V3.5
p2898
tp2899
asg9
g610
sS'part6_correct_attempt'
p2900
(lp2901
S'2 days, 0:23:00'
p2902
aV1.5
p2903
assVhaw081
p2904
(dp2905
S'part5_correct_attempt'
p2906
(lp2907
S'0:14:59'
p2908
ag1879
asS'part6_incorrect_attempt'
p2909
(lp2910
(S'0:15:49'
p2911
V0.5+4*0.5+0.5
p2912
tp2913
a(S'0:16:21'
p2914
V0.5-4*0.5+3*0.5
p2915
tp2916
a(S'2:41:23'
p2917
V0.25-2*0.25+0.25
p2918
tp2919
asg9
g954
sS'part6_correct_attempt'
p2920
(lp2921
S'2:41:37'
p2922
aV0.25+4*0.25+0.25
p2923
assVr9jiang
p2924
(dp2925
S'part5_correct_attempt'
p2926
(lp2927
S'0:00:00'
p2928
aV0
p2929
asS'part6_incorrect_attempt'
p2930
(lp2931
(S'0:02:32'
p2932
V0.5
p2933
tp2934
asg9
V2015-11-02 02:16:42
p2935
sS'part6_correct_attempt'
p2936
(lp2937
S'0:03:34'
p2938
aV1.5
p2939
assVrlhagen
p2940
(dp2941
S'part5_correct_attempt'
p2942
(lp2943
S'0:42:12'
p2944
aV(0+1-2-1+1+2-1+0)/8
p2945
asS'part6_incorrect_attempt'
p2946
(lp2947
(S'0:48:08'
p2948
V35/12+2
p2949
tp2950
a(S'1:01:17'
p2951
V0.5
p2952
tp2953
asg9
g1040
sS'part6_correct_attempt'
p2954
(lp2955
S'1:37:47'
p2956
aV6/4
p2957
assVbtn023
p2958
(dp2959
S'part5_correct_attempt'
p2960
(lp2961
S'0:04:10'
p2962
aV.5-2*.5+.5
p2963
asS'part6_incorrect_attempt'
p2964
(lp2965
(S'0:04:10'
p2966
V4*2*.5*(1-.5)^2
p2967
tp2968
asg9
g1059
sS'part6_correct_attempt'
p2969
(lp2970
S'0:05:17'
p2971
aV2*2*.5*(1-.5)^2+4*2*.5*(1-.5)^2
p2972
assVtcn013
p2973
(dp2974
S'part5_correct_attempt'
p2975
(lp2976
S'0:03:08'
p2977
aV0
p2978
asS'part6_incorrect_attempt'
p2979
(lp2980
(S'0:04:06'
p2981
V.75
p2982
tp2983
a(S'0:05:48'
p2984
V2.5
p2985
tp2986
asg9
V2015-11-04 02:11:53
p2987
sS'part6_correct_attempt'
p2988
(lp2989
S'0:10:51'
p2990
aV1.5
p2991
assVtstevens
p2992
(dp2993
S'part5_correct_attempt'
p2994
(lp2995
S'0:02:35'
p2996
aV0
p2997
asS'part6_incorrect_attempt'
p2998
(lp2999
(S'0:07:55'
p3000
V.5
p3001
tp3002
a(S'0:13:22'
p3003
V.25
p3004
tp3005
a(S'0:13:29'
p3006
V.75
p3007
tp3008
a(S'0:16:53'
p3009
V.75
p3010
tp3011
a(S'0:16:59'
p3012
V4/3
p3013
tp3014
a(S'0:17:06'
p3015
V2/3
p3016
tp3017
asg9
g1288
sS'part6_correct_attempt'
p3018
(lp3019
S'0:18:11'
p3020
aV1.5
p3021
assVl8ngo
p3022
(dp3023
S'part5_correct_attempt'
p3024
(lp3025
S'4 days, 8:42:33'
p3026
aV1/2-2*1/2+1/2
p3027
asS'part6_incorrect_attempt'
p3028
(lp3029
(S'4 days, 8:43:37'
p3030
V[1/2 - 1/4]+2*[1/2-1/4]+[1/2-1/4]
p3031
tp3032
asg9
V2015-10-30 16:12:29
p3033
sS'part6_correct_attempt'
p3034
(lp3035
S'4 days, 8:45:25'
p3036
aV[1/2 - 1/4]+4*[1/2-1/4]+[1/2-1/4]
p3037
assVdando
p3038
(dp3039
S'part5_correct_attempt'
p3040
(lp3041
S'0:00:00'
p3042
aV0
p3043
asS'part6_incorrect_attempt'
p3044
(lp3045
(S'0:01:58'
p3046
V2.5
p3047
tp3048
asg9
V2015-11-03 20:18:15
p3049
sS'part6_correct_attempt'
p3050
(lp3051
S'0:02:40'
p3052
aV1.5
p3053
assVglcohen
p3054
(dp3055
S'part5_correct_attempt'
p3056
(lp3057
S'0:00:42'
p3058
aV0
p3059
asS'part6_incorrect_attempt'
p3060
(lp3061
(S'0:07:15'
p3062
V0.25
p3063
tp3064
a(S'3:56:29'
p3065
V0.1875
p3066
tp3067
a(S'3:56:40'
p3068
V1-0.1875
p3069
tp3070
a(S'3:59:43'
p3071
V2.8888888888889
p3072
tp3073
asg9
g626
sS'part6_correct_attempt'
p3074
(lp3075
S'4:02:38'
p3076
aV0.25+1+0.25
p3077
assVsayao
p3078
(dp3079
S'part5_correct_attempt'
p3080
(lp3081
S'0:03:35'
p3082
aV0
p3083
asS'part6_incorrect_attempt'
p3084
(lp3085
(S'0:07:49'
p3086
V.25*.25 
p3087
tp3088
a(S'0:08:06'
p3089
V4*.25
p3090
tp3091
a(S'0:08:32'
p3092
V.25+1
p3093
tp3094
asg9
g1425
sS'part6_correct_attempt'
p3095
(lp3096
S'0:08:37'
p3097
aV1.5
p3098
assVksrijong
p3099
(dp3100
S'part5_correct_attempt'
p3101
(lp3102
S'0:03:10'
p3103
aV0
p3104
asS'part6_incorrect_attempt'
p3105
(lp3106
(S'0:08:08'
p3107
V3*(0.5^2)
p3108
tp3109
a(S'0:09:02'
p3110
V0.5^2
p3111
tp3112
a(S'0:14:13'
p3113
V4*(0.5)^2
p3114
tp3115
asg9
V2015-11-04 22:50:25
p3116
sS'part6_correct_attempt'
p3117
(lp3118
S'0:15:02'
p3119
aV(0.5)^2+(0.5)^2 + 1
p3120
assVachava
p3121
(dp3122
S'part5_correct_attempt'
p3123
(lp3124
S'0:16:03'
p3125
aV0.5 - 1 + 0.5
p3126
asS'part6_incorrect_attempt'
p3127
(lp3128
(S'0:17:37'
p3129
V4*0.5
p3130
tp3131
a(S'0:37:07'
p3132
V100*0.5(0.5)
p3133
tp3134
asg9
V2015-11-06 07:02:10
p3135
sS'part6_correct_attempt'
p3136
(lp3137
S'0:40:31'
p3138
aV0.25+((2^2)*0.25) + 0.25
p3139
assVflhernan
p3140
(dp3141
S'part5_correct_attempt'
p3142
(lp3143
S'0:04:56'
p3144
aV0
p3145
asS'part6_incorrect_attempt'
p3146
(lp3147
(S'0:05:40'
p3148
V.5^2 + 2^2*.5 + .5^2
p3149
tp3150
asg9
V2015-11-03 19:16:30
p3151
sS'part6_correct_attempt'
p3152
(lp3153
S'0:06:01'
p3154
aV.5^2 + 2^2*.5^2 + .5^2
p3155
assVmitopete
p3156
(dp3157
S'part5_correct_attempt'
p3158
(lp3159
S'0:03:35'
p3160
aV0
p3161
asS'part6_incorrect_attempt'
p3162
(lp3163
(S'0:03:35'
p3164
V(1/2)^2 + (1/2)^2
p3165
tp3166
asg9
V2015-11-04 04:43:38
p3167
sS'part6_correct_attempt'
p3168
(lp3169
S'0:04:59'
p3170
aV(1/2)^2 + 2^2(1/2)^2 + (1/2)^2
p3171
assVyos017
p3172
(dp3173
S'part5_correct_attempt'
p3174
(lp3175
S'2:01:50'
p3176
aV0
p3177
asS'part6_incorrect_attempt'
p3178
(lp3179
(S'2:02:45'
p3180
V4*[0.5 - (0.5)^2]
p3181
tp3182
asg9
V2015-11-06 06:07:41
p3183
sS'part6_correct_attempt'
p3184
(lp3185
S'2:03:21'
p3186
aV6*[0.5 - (0.5)^2]
p3187
assVm8woo
p3188
(dp3189
S'part5_correct_attempt'
p3190
(lp3191
S'0:09:00'
p3192
aV0
p3193
asS'part6_incorrect_attempt'
p3194
(lp3195
(S'0:09:09'
p3196
V0.5
p3197
tp3198
asg9
g2698
sS'part6_correct_attempt'
p3199
(lp3200
S'0:09:22'
p3201
aV1.5
p3202
assVggaddi
p3203
(dp3204
S'part5_correct_attempt'
p3205
(lp3206
S'0:11:45'
p3207
aV0
p3208
asS'part6_incorrect_attempt'
p3209
(lp3210
(S'0:13:08'
p3211
V0.75
p3212
tp3213
a(S'0:14:36'
p3214
V0.25*3
p3215
tp3216
asg9
V2015-11-01 20:47:48
p3217
sS'part6_correct_attempt'
p3218
(lp3219
S'0:26:10'
p3220
aV0.25*6
p3221
assVjit002
p3222
(dp3223
S'part5_correct_attempt'
p3224
(lp3225
S'0:00:00'
p3226
aV0
p3227
asS'part6_incorrect_attempt'
p3228
(lp3229
(S'0:09:23'
p3230
V0.5
p3231
tp3232
asg9
V2015-11-05 01:51:15
p3233
sS'part6_correct_attempt'
p3234
(lp3235
S'0:12:16'
p3236
aV1.5
p3237
assVdruble
p3238
(dp3239
S'part5_correct_attempt'
p3240
(lp3241
S'0:03:37'
p3242
aV0.5 - 2*0.5 + 0.5
p3243
asS'part6_incorrect_attempt'
p3244
(lp3245
(S'0:04:56'
p3246
V-1*(0.25 - 2^2*0.25 + 0.25)
p3247
tp3248
asg9
g1951
sS'part6_correct_attempt'
p3249
(lp3250
S'0:07:40'
p3251
aV0.25 + 2^2*0.25 + 0.25
p3252
assVb3hwang
p3253
(dp3254
S'part5_correct_attempt'
p3255
(lp3256
S'0:01:31'
p3257
aV.5-1+.5
p3258
asS'part6_incorrect_attempt'
p3259
(lp3260
(S'0:05:58'
p3261
V(.5^2) + 2^2 + (.5)^2
p3262
tp3263
asg9
g906
sS'part6_correct_attempt'
p3264
(lp3265
S'0:08:18'
p3266
aV((.5^2) + 2^2 + (.5)^2)/3
p3267
assVjag028
p3268
(dp3269
S'part5_correct_attempt'
p3270
(lp3271
S'0:12:18'
p3272
aV.5-2(.5)+.5
p3273
asS'part6_incorrect_attempt'
p3274
(lp3275
(S'0:13:17'
p3276
V1^2(.5)
p3277
tp3278
a(S'0:13:26'
p3279
V(.5)
p3280
tp3281
asg9
V2015-11-02 22:21:20
p3282
sS'part6_correct_attempt'
p3283
(lp3284
S'0:19:12'
p3285
aV(.5)^2+(-2)^2(.5)^2+(.5)^2
p3286
assVlguintu
p3287
(dp3288
S'part5_correct_attempt'
p3289
(lp3290
S'0:01:03'
p3291
aV0
p3292
asS'part6_incorrect_attempt'
p3293
(lp3294
(S'0:01:29'
p3295
V1/4+2/4+1/4
p3296
tp3297
a(S'0:01:39'
p3298
V1/4-2/4+1/4
p3299
tp3300
asg9
V2015-11-03 04:17:57
p3301
sS'part6_correct_attempt'
p3302
(lp3303
S'0:02:00'
p3304
aV1/4+2^2/4+1/4
p3305
assVabjara
p3306
(dp3307
S'part5_correct_attempt'
p3308
(lp3309
S'0:20:58'
p3310
aV0
p3311
asS'part6_incorrect_attempt'
p3312
(lp3313
(S'0:20:58'
p3314
V9*.5
p3315
tp3316
a(S'0:22:18'
p3317
V.5
p3318
tp3319
a(S'0:22:36'
p3320
V4*.5
p3321
tp3322
a(S'0:24:00'
p3323
V.5
p3324
tp3325
a(S'0:24:10'
p3326
V.25
p3327
tp3328
a(S'0:24:18'
p3329
V.75
p3330
tp3331
a(S'0:29:26'
p3332
V.25/3
p3333
tp3334
a(S'0:29:31'
p3335
V.25/2
p3336
tp3337
asg9
g416
sS'part6_correct_attempt'
p3338
(lp3339
S'0:33:28'
p3340
aV1.5
p3341
assVkrau
p3342
(dp3343
S'part5_correct_attempt'
p3344
(lp3345
S'0:00:40'
p3346
aV0
p3347
asS'part6_incorrect_attempt'
p3348
(lp3349
(S'0:06:44'
p3350
V.75
p3351
tp3352
asg9
g731
sS'part6_correct_attempt'
p3353
(lp3354
S'0:07:25'
p3355
aV.25 + .25 + 4*.25
p3356
assVcrmirand
p3357
(dp3358
S'part5_correct_attempt'
p3359
(lp3360
S'0:03:14'
p3361
aV0
p3362
asS'part6_incorrect_attempt'
p3363
(lp3364
(S'0:03:32'
p3365
V.5
p3366
tp3367
a(S'0:04:34'
p3368
V.5
p3369
tp3370
asg9
V2015-11-03 05:16:13
p3371
sS'part6_correct_attempt'
p3372
(lp3373
S'0:05:06'
p3374
aV1.5
p3375
assVbeyounge
p3376
(dp3377
S'part5_correct_attempt'
p3378
(lp3379
S'0:00:00'
p3380
aV0
p3381
asS'part6_incorrect_attempt'
p3382
(lp3383
(S'0:21:20'
p3384
V0.5
p3385
tp3386
a(S'0:23:28'
p3387
V0.5^2
p3388
tp3389
asg9
V2015-10-30 05:23:18
p3390
sS'part6_correct_attempt'
p3391
(lp3392
S'0:26:50'
p3393
aV1.50
p3394
assVhak014
p3395
(dp3396
S'part5_correct_attempt'
p3397
(lp3398
S'0:11:31'
p3399
aV0
p3400
asS'part6_incorrect_attempt'
p3401
(lp3402
(S'0:12:57'
p3403
V9*0.25
p3404
tp3405
a(S'0:13:04'
p3406
V4*0.25
p3407
tp3408
a(S'0:13:10'
p3409
V1*0.25
p3410
tp3411
a(S'0:13:16'
p3412
V0*0.25
p3413
tp3414
asg9
V2015-11-04 23:48:14
p3415
ssVk4ma
p3416
(dp3417
S'part5_correct_attempt'
p3418
(lp3419
S'0:19:44'
p3420
aV0
p3421
asS'part6_incorrect_attempt'
p3422
(lp3423
(S'0:20:49'
p3424
V2^2*.25
p3425
tp3426
asg9
g1024
sS'part6_correct_attempt'
p3427
(lp3428
S'0:21:45'
p3429
aV.25-[(-1^2)*(2^2*.25)]+.25
p3430
assVrraiyyan
p3431
(dp3432
S'part5_correct_attempt'
p3433
(lp3434
S'0:55:22'
p3435
aV0
p3436
asS'part6_incorrect_attempt'
p3437
(lp3438
(S'0:55:29'
p3439
V0.5
p3440
tp3441
a(S'0:55:54'
p3442
V0.75
p3443
tp3444
a(S'1:01:14'
p3445
V0.25-0.25+(3/8)^2
p3446
tp3447
a(S'1:04:17'
p3448
V(1^2)*(1/2)+(2^2)*(1/4)+(3^2)*(1/8)
p3449
tp3450
a(S'1:14:25'
p3451
V0.5
p3452
tp3453
a(S'1:16:06'
p3454
V0.25
p3455
tp3456
a(S'1:17:57'
p3457
V1.25
p3458
tp3459
a(S'1:23:47'
p3460
V1+4+9
p3461
tp3462
a(S'1:36:42'
p3463
V(1^2)*(1/2)-2*(2^2)*(1/4)+(4^2)*(1/8)
p3464
tp3465
a(S'1:39:59'
p3466
V4.5
p3467
tp3468
a(S'1:41:33'
p3469
V9*0.25
p3470
tp3471
asg9
g1187
sS'part6_correct_attempt'
p3472
(lp3473
S'1:43:45'
p3474
aV1.5
p3475
assVr1gu
p3476
(dp3477
S'part5_correct_attempt'
p3478
(lp3479
S'-1 day, 23:58:36'
p3480
aV0
p3481
asS'part6_incorrect_attempt'
p3482
(lp3483
(S'-1 day, 23:58:36'
p3484
V35/3
p3485
tp3486
asg9
V2015-11-05 12:03:18
p3487
sS'part6_correct_attempt'
p3488
(lp3489
S'0:01:43'
p3490
aV0.25+1+0.25
p3491
assVdsmonaha
p3492
(dp3493
S'part5_correct_attempt'
p3494
(lp3495
S'0:22:25'
p3496
aV0
p3497
asS'part6_incorrect_attempt'
p3498
(lp3499
(S'4 days, 4:17:15'
p3500
V1.25
p3501
tp3502
asg9
g1250
sS'part6_correct_attempt'
p3503
(lp3504
S'4 days, 4:18:47'
p3505
aV1.5
p3506
assVedescobe
p3507
(dp3508
S'part5_correct_attempt'
p3509
(lp3510
S'0:08:50'
p3511
aV0
p3512
asS'part6_incorrect_attempt'
p3513
(lp3514
(S'0:09:34'
p3515
V.75
p3516
tp3517
asg9
V2015-11-01 06:42:32
p3518
sS'part6_correct_attempt'
p3519
(lp3520
S'0:10:09'
p3521
aV.25*6
p3522
assVw4shin
p3523
(dp3524
S'part5_correct_attempt'
p3525
(lp3526
S'0:10:20'
p3527
aV0
p3528
asS'part6_incorrect_attempt'
p3529
(lp3530
(S'0:21:49'
p3531
V0.75
p3532
tp3533
a(S'0:34:12'
p3534
V0.25
p3535
tp3536
a(S'0:35:24'
p3537
V0.5
p3538
tp3539
asg9
g2216
sS'part6_correct_attempt'
p3540
(lp3541
S'0:38:43'
p3542
aV1.5
p3543
assVetemlock
p3544
(dp3545
S'part5_correct_attempt'
p3546
(lp3547
S'2:28:06'
p3548
aV-1/2 + 1/2
p3549
asS'part6_incorrect_attempt'
p3550
(lp3551
(S'2 days, 2:56:09'
p3552
V2.5
p3553
tp3554
asg9
g2518
sS'part6_correct_attempt'
p3555
(lp3556
S'2 days, 2:56:18'
p3557
aV1.5
p3558
assVjtfrankl
p3559
(dp3560
S'part5_correct_attempt'
p3561
(lp3562
S'0:04:44'
p3563
aV0
p3564
asS'part6_incorrect_attempt'
p3565
(lp3566
(S'0:04:44'
p3567
V.25
p3568
tp3569
asg9
g1475
sS'part6_correct_attempt'
p3570
(lp3571
S'0:05:57'
p3572
aV.25+1+.25
p3573
assVaurodrig
p3574
(dp3575
S'part5_correct_attempt'
p3576
(lp3577
S'0:14:40'
p3578
aV0
p3579
asS'part6_incorrect_attempt'
p3580
(lp3581
(S'0:20:33'
p3582
V1/4 + 2*(1/4) + 1/4
p3583
tp3584
a(S'0:22:03'
p3585
V4/4
p3586
tp3587
a(S'0:26:56'
p3588
V1/4 + 2*(1/4) + 1/4
p3589
tp3590
a(S'0:27:05'
p3591
V1/4 - 2*(1/4) + 1/4
p3592
tp3593
a(S'0:27:15'
p3594
V1/4 + 2*(1/4) + 1/4
p3595
tp3596
a(S'0:33:43'
p3597
V(1/4)^2 + (2^2)*((1/4)^2) + (1/4)^2
p3598
tp3599
asg9
g368
sS'part6_correct_attempt'
p3600
(lp3601
S'0:38:49'
p3602
aV(1/2)^2 + (2^2)((1/2)^2) + (1/2)^2
p3603
assVyjshin
p3604
(dp3605
S'part5_correct_attempt'
p3606
(lp3607
S'0:02:42'
p3608
aV0
p3609
asS'part6_incorrect_attempt'
p3610
(lp3611
(S'0:10:33'
p3612
V.5^2
p3613
tp3614
asg9
g594
sS'part6_correct_attempt'
p3615
(lp3616
S'0:13:18'
p3617
aV.5^2+2^2*.5^2+.5^2
p3618
assVxil109
p3619
(dp3620
S'part5_correct_attempt'
p3621
(lp3622
S'0:21:58'
p3623
aV0
p3624
asS'part6_incorrect_attempt'
p3625
(lp3626
(S'0:31:40'
p3627
V1/2
p3628
tp3629
asg9
g1643
sS'part6_correct_attempt'
p3630
(lp3631
S'0:36:50'
p3632
aV0.25+4*0.25+0.25
p3633
assVdac064
p3634
(dp3635
S'part5_correct_attempt'
p3636
(lp3637
S'0:08:54'
p3638
aV0
p3639
asS'part6_incorrect_attempt'
p3640
(lp3641
(S'0:09:18'
p3642
V1/2
p3643
tp3644
asg9
g1659
sS'part6_correct_attempt'
p3645
(lp3646
S'0:10:47'
p3647
aV1.5
p3648
assVlpettit
p3649
(dp3650
S'part5_correct_attempt'
p3651
(lp3652
S'0:02:21'
p3653
aV0
p3654
asS'part6_incorrect_attempt'
p3655
(lp3656
(S'0:17:05'
p3657
V2/3
p3658
tp3659
a(S'0:17:55'
p3660
V.75
p3661
tp3662
a(S'0:21:58'
p3663
V1/2
p3664
tp3665
a(S'0:22:15'
p3666
V1/3
p3667
tp3668
a(S'0:23:57'
p3669
V4/3
p3670
tp3671
asg9
g496
sS'part6_correct_attempt'
p3672
(lp3673
S'0:24:51'
p3674
aV12/8
p3675
assVkebao
p3676
(dp3677
S'part5_correct_attempt'
p3678
(lp3679
S'0:00:46'
p3680
aV0
p3681
asS'part6_incorrect_attempt'
p3682
(lp3683
(S'0:00:46'
p3684
V1/2
p3685
tp3686
asg9
V2015-11-05 21:26:19
p3687
sS'part6_correct_attempt'
p3688
(lp3689
S'0:01:38'
p3690
aV6/4
p3691
assVabasu
p3692
(dp3693
S'part5_correct_attempt'
p3694
(lp3695
S'0:11:13'
p3696
aV0
p3697
asS'part6_incorrect_attempt'
p3698
(lp3699
(S'0:16:59'
p3700
V0.75
p3701
tp3702
asg9
g2493
sS'part6_correct_attempt'
p3703
(lp3704
S'0:37:20'
p3705
aV1.5
p3706
assVacvuong
p3707
(dp3708
S'part5_correct_attempt'
p3709
(lp3710
S'0:15:39'
p3711
aV0
p3712
asS'part6_incorrect_attempt'
p3713
(lp3714
(S'0:15:39'
p3715
V7*(.5^2)
p3716
tp3717
asg9
g2553
sS'part6_correct_attempt'
p3718
(lp3719
S'0:16:01'
p3720
aV6*(.5^2)
p3721
assVd6he
p3722
(dp3723
S'part5_correct_attempt'
p3724
(lp3725
S'3:07:14'
p3726
aV0
p3727
asS'part6_incorrect_attempt'
p3728
(lp3729
(S'3:07:14'
p3730
V1.25
p3731
tp3732
asg9
V2015-11-05 03:24:20
p3733
sS'part6_correct_attempt'
p3734
(lp3735
S'3:09:19'
p3736
aV0.5+4(0.25)
p3737
assVawollner
p3738
(dp3739
S'part5_correct_attempt'
p3740
(lp3741
S'0:21:31'
p3742
aV.5-1+.5
p3743
asS'part6_incorrect_attempt'
p3744
(lp3745
(S'0:24:32'
p3746
V.25 - .5 + .25
p3747
tp3748
a(S'0:28:16'
p3749
V.25 - .25 + .25
p3750
tp3751
asg9
g779
sS'part6_correct_attempt'
p3752
(lp3753
S'0:30:36'
p3754
aV1.5
p3755
assVpvl001
p3756
(dp3757
S'part5_correct_attempt'
p3758
(lp3759
S'0:11:21'
p3760
aV0
p3761
asS'part6_incorrect_attempt'
p3762
(lp3763
(S'0:12:22'
p3764
V.5
p3765
tp3766
a(S'0:13:10'
p3767
V2.5
p3768
tp3769
asg9
V2015-11-03 15:27:52
p3770
sS'part6_correct_attempt'
p3771
(lp3772
S'0:13:36'
p3773
aV1.5
p3774
assVjcj006
p3775
(dp3776
S'part5_correct_attempt'
p3777
(lp3778
S'0:00:00'
p3779
aV0
p3780
asS'part6_incorrect_attempt'
p3781
(lp3782
(S'0:14:34'
p3783
V.75
p3784
tp3785
asg9
g2184
sS'part6_correct_attempt'
p3786
(lp3787
S'0:16:36'
p3788
aV1.5
p3789
assVdlt009
p3790
(dp3791
S'part5_correct_attempt'
p3792
(lp3793
S'0:02:20'
p3794
ag1845
asS'part6_incorrect_attempt'
p3795
(lp3796
(S'0:03:34'
p3797
V(0.5)-2*(1)+(1.5)
p3798
tp3799
a(S'0:17:00'
p3800
V0.5-1+1.5
p3801
tp3802
asg9
g356
sS'part6_correct_attempt'
p3803
(lp3804
S'0:20:39'
p3805
aV0.25+4*0.25+0.25
p3806
assVmbl003
p3807
(dp3808
S'part5_correct_attempt'
p3809
(lp3810
S'0:02:41'
p3811
aV0
p3812
asS'part6_incorrect_attempt'
p3813
(lp3814
(S'0:03:04'
p3815
V1/2
p3816
tp3817
a(S'0:03:39'
p3818
V1/4-2/4+1/4
p3819
tp3820
asg9
V2015-11-05 20:49:05
p3821
sS'part6_correct_attempt'
p3822
(lp3823
S'0:05:38'
p3824
aV1/4+(2^2(1/4))+1/4
p3825
assVjfalcone
p3826
(dp3827
S'part5_correct_attempt'
p3828
(lp3829
S'23:57:15'
p3830
aV0
p3831
asS'part6_incorrect_attempt'
p3832
(lp3833
(S'23:57:15'
p3834
V4 * (1/2)*.5
p3835
tp3836
a(S'23:58:40'
p3837
V4*.5
p3838
tp3839
a(S'23:59:51'
p3840
V4 * .5 * .5
p3841
tp3842
asg9
g515
sS'part6_correct_attempt'
p3843
(lp3844
S'1 day, 0:00:08'
p3845
aV4 * .5 * .5 + .5 * .5 + .5 * .5
p3846
assVn2patil
p3847
(dp3848
S'part5_correct_attempt'
p3849
(lp3850
S'0:49:49'
p3851
aV.5-(2*.5)+.5
p3852
asS'part6_incorrect_attempt'
p3853
(lp3854
(S'0:57:58'
p3855
V(.25)-(2*(.25))+.25
p3856
tp3857
asg9
V2015-11-04 02:51:17
p3858
sS'part6_correct_attempt'
p3859
(lp3860
S'0:58:44'
p3861
aV(.25)+(4*(.25))+.25
p3862
assVksmurlo
p3863
(dp3864
S'part5_correct_attempt'
p3865
(lp3866
S'0:04:36'
p3867
aV.5-1+.5
p3868
asS'part6_incorrect_attempt'
p3869
(lp3870
(S'0:05:15'
p3871
V[(.5)^2+(1)^2+(.5)^2]/3
p3872
tp3873
a(S'0:06:13'
p3874
V[((2/3)-.5)^2+((2/3)-1)^2+((2/3)-.5)^2]/3
p3875
tp3876
a(S'0:07:05'
p3877
V[((2/3)-.5)^2+((2/3)-(-1))^2+((2/3)-.5)^2]/3
p3878
tp3879
a(S'0:08:06'
p3880
V[((0)-.5)^2+((0)-(-1))^2+((0)-.5)^2]/3
p3881
tp3882
asg9
V2015-11-05 06:04:45
p3883
sS'part6_correct_attempt'
p3884
(lp3885
S'0:14:21'
p3886
aV(.25)+(4*.25)+(.25)
p3887
assVttimmons
p3888
(dp3889
S'part5_correct_attempt'
p3890
(lp3891
S'0:23:29'
p3892
aV0.5-2(0.5)+0.5
p3893
asS'part6_incorrect_attempt'
p3894
(lp3895
(S'0:23:41'
p3896
V0.5
p3897
tp3898
asg9
V2015-11-01 17:17:08
p3899
sS'part6_correct_attempt'
p3900
(lp3901
S'10:30:46'
p3902
aV0.25+((-2)^2)*(0.25)+(0.25)
p3903
assVjnatale
p3904
(dp3905
S'part5_correct_attempt'
p3906
(lp3907
S'0:18:48'
p3908
aV0
p3909
asS'part6_incorrect_attempt'
p3910
(lp3911
(S'0:35:00'
p3912
V3/0.5
p3913
tp3914
asg9
V2015-11-04 07:34:29
p3915
sS'part6_correct_attempt'
p3916
(lp3917
S'17:16:49'
p3918
aV3/2
p3919
assVhachrist
p3920
(dp3921
S'part5_correct_attempt'
p3922
(lp3923
S'0:11:47'
p3924
aV0
p3925
asS'part6_incorrect_attempt'
p3926
(lp3927
(S'0:31:51'
p3928
V0.5
p3929
tp3930
a(S'21:23:32'
p3931
V0.25 + 2 + 0.5
p3932
tp3933
a(S'21:23:39'
p3934
V0.25 + 2 + 0.25
p3935
tp3936
asg9
g1203
sS'part6_correct_attempt'
p3937
(lp3938
S'21:41:15'
p3939
aV0.25 + 4(0.25) + 0.25
p3940
assVcsl030
p3941
(dp3942
S'part5_correct_attempt'
p3943
(lp3944
S'0:09:27'
p3945
aV0
p3946
asS'part6_incorrect_attempt'
p3947
(lp3948
(S'0:11:22'
p3949
V.5
p3950
tp3951
asg9
V2015-11-05 04:54:16
p3952
ssVatorr
p3953
(dp3954
S'part5_correct_attempt'
p3955
(lp3956
S'0:04:43'
p3957
aV0
p3958
asS'part6_incorrect_attempt'
p3959
(lp3960
(S'0:05:36'
p3961
V0.75
p3962
tp3963
a(S'0:06:10'
p3964
V0.5
p3965
tp3966
a(S'0:15:27'
p3967
V0.5
p3968
tp3969
a(S'1:01:36'
p3970
V0.25 + 2 * 0.25  + 0.25
p3971
tp3972
asg9
g2075
sS'part6_correct_attempt'
p3973
(lp3974
S'1:03:32'
p3975
aV0.25 + 4 * 0.25 + 0.25
p3976
assVralhadda
p3977
(dp3978
S'part5_correct_attempt'
p3979
(lp3980
S'0:22:29'
p3981
aV0
p3982
asS'part6_incorrect_attempt'
p3983
(lp3984
(S'0:24:39'
p3985
V0-0
p3986
tp3987
a(S'0:26:27'
p3988
V-0
p3989
tp3990
a(S'0:26:44'
p3991
V0.5
p3992
tp3993
a(S'0:26:52'
p3994
V0.25
p3995
tp3996
a(S'4:28:35'
p3997
V0.5
p3998
tp3999
asg9
V2015-10-31 20:03:47
p4000
sS'part6_correct_attempt'
p4001
(lp4002
S'4:57:20'
p4003
aV1.5
p4004
assVhmnaing
p4005
(dp4006
S'part5_correct_attempt'
p4007
(lp4008
S'0:00:00'
p4009
aV(0.5*1)- 2(0.5*2) + (0.5*3)
p4010
asS'part6_incorrect_attempt'
p4011
(lp4012
(S'0:09:54'
p4013
V(0.5)-(0.5)^2 + 4 * (0.5)-(0.5)^2 + (0.5)-(0.5)^2
p4014
tp4015
asg9
g1728
sS'part6_correct_attempt'
p4016
(lp4017
S'0:11:32'
p4018
aV(0.5)-(0.5)^2 + 4 * ((0.5)-(0.5)^2) + (0.5)-(0.5)^2
p4019
assVtjke
p4020
(dp4021
S'part5_correct_attempt'
p4022
(lp4023
S'0:05:51'
p4024
aV0.5*(1-2*1+1)
p4025
asS'part6_incorrect_attempt'
p4026
(lp4027
(S'0:08:43'
p4028
V[0.5*1^2 - (0.5*1)^2] + [0.5*1^2 - (0.5*1)^2] + (2)^2*[0.5*-1^2 - (0.5*-1)^2]
p4029
tp4030
asg9
g2717
sS'part6_correct_attempt'
p4031
(lp4032
S'0:09:42'
p4033
aV[0.5*1^2 - (0.5*1)^2] + [0.5*1^2 - (0.5*1)^2] + (2)^2*[0.5*1^2 - (0.5*1)^2]
p4034
assVmasaro
p4035
(dp4036
S'part5_correct_attempt'
p4037
(lp4038
S'0:02:29'
p4039
aV0
p4040
asS'part6_incorrect_attempt'
p4041
(lp4042
(S'0:15:10'
p4043
V0.5
p4044
tp4045
a(S'0:15:36'
p4046
V0.25
p4047
tp4048
a(S'0:21:56'
p4049
V0.5
p4050
tp4051
a(S'2:29:57'
p4052
V6.25
p4053
tp4054
asg9
g547
sS'part6_correct_attempt'
p4055
(lp4056
S'2:30:14'
p4057
aV1.5
p4058
assVdlgoldbe
p4059
(dp4060
S'part5_correct_attempt'
p4061
(lp4062
S'0:04:18'
p4063
aV0
p4064
asS'part6_incorrect_attempt'
p4065
(lp4066
(S'0:04:56'
p4067
V0.25-(2*0.25)+0.25
p4068
tp4069
a(S'0:15:05'
p4070
V0.25*2+((-1^2)*0.25)
p4071
tp4072
a(S'0:22:29'
p4073
V0.25-((-1^2)*0.25)+0.25
p4074
tp4075
asg9
g1967
sS'part6_correct_attempt'
p4076
(lp4077
S'0:22:36'
p4078
aV0.25-((-2^2)*0.25)+0.25
p4079
assVagoldsht
p4080
(dp4081
S'part5_correct_attempt'
p4082
(lp4083
S'0:07:51'
p4084
aV0
p4085
asS'part6_incorrect_attempt'
p4086
(lp4087
(S'0:07:51'
p4088
V1/2*.5 - .5 + 1/2*.5
p4089
tp4090
asg9
V2015-11-04 05:16:55
p4091
sS'part6_correct_attempt'
p4092
(lp4093
S'14:28:30'
p4094
aV4*1/2*.5+1/2*.5+1/2*.5
p4095
assVppanourg
p4096
(dp4097
S'part5_correct_attempt'
p4098
(lp4099
S'10:32:58'
p4100
aV0
p4101
asS'part6_incorrect_attempt'
p4102
(lp4103
(S'10:45:07'
p4104
V1.25
p4105
tp4106
asg9
g1157
sS'part6_correct_attempt'
p4107
(lp4108
S'10:47:24'
p4109
aV1.5
p4110
assVrohan
p4111
(dp4112
S'part5_correct_attempt'
p4113
(lp4114
S'0:18:52'
p4115
aV0
p4116
asS'part6_incorrect_attempt'
p4117
(lp4118
(S'0:20:15'
p4119
V(.5-.5^2)-(2(.5-.5^2))+(.5-.5^2)
p4120
tp4121
asg9
g658
sS'part6_correct_attempt'
p4122
(lp4123
S'0:20:55'
p4124
aV(.5-.5^2)+(4(.5-.5^2))+(.5-.5^2)
p4125
assVany027
p4126
(dp4127
S'part5_correct_attempt'
p4128
(lp4129
S'0:15:23'
p4130
aV(0.5) - 2*(0.5) + 0.5
p4131
asS'part6_incorrect_attempt'
p4132
(lp4133
(S'0:16:12'
p4134
V0.75
p4135
tp4136
a(S'0:16:17'
p4137
V0.5
p4138
tp4139
a(S'0:17:07'
p4140
V((0.5)^2)*0.5
p4141
tp4142
asg9
g1829
sS'part6_correct_attempt'
p4143
(lp4144
S'0:18:16'
p4145
aV0.25+((2)^2)*0.25 + 0.25
p4146
assVrwthomps
p4147
(dp4148
S'part5_correct_attempt'
p4149
(lp4150
S'0:09:36'
p4151
aV0.5 - 2 * 0.5 + 0.5
p4152
asS'part6_incorrect_attempt'
p4153
(lp4154
(S'3:11:05'
p4155
V0.5
p4156
tp4157
a(S'3:11:13'
p4158
V0.75
p4159
tp4160
a(S'3:11:21'
p4161
V0.25
p4162
tp4163
asg9
g2003
sS'part6_correct_attempt'
p4164
(lp4165
S'3:12:38'
p4166
aV(0.5 * 0.5) + (-2)^2(0.25) + (0.25)
p4167
assVvsosnovs
p4168
(dp4169
S'part5_correct_attempt'
p4170
(lp4171
S'0:10:41'
p4172
aV0
p4173
asS'part6_incorrect_attempt'
p4174
(lp4175
(S'0:10:41'
p4176
V.5^2
p4177
tp4178
a(S'0:11:08'
p4179
V.5
p4180
tp4181
a(S'0:19:49'
p4182
V.75
p4183
tp4184
asg9
g1110
sS'part6_correct_attempt'
p4185
(lp4186
S'0:20:56'
p4187
aV1.5
p4188
assVp4kumar
p4189
(dp4190
S'part5_correct_attempt'
p4191
(lp4192
S'0:01:57'
p4193
aV0
p4194
asS'part6_incorrect_attempt'
p4195
(lp4196
(S'0:03:17'
p4197
V0.25 - 2 * 0.25 + 0.25
p4198
tp4199
a(S'0:03:26'
p4200
V 4 * 0.25
p4201
tp4202
asg9
g890
sS'part6_correct_attempt'
p4203
(lp4204
S'0:05:05'
p4205
aV0.25 + 4 * 0.25 + 0.25
p4206
assVsyc078
p4207
(dp4208
S'part5_correct_attempt'
p4209
(lp4210
S'22:11:46'
p4211
aV0
p4212
asS'part6_incorrect_attempt'
p4213
(lp4214
(S'22:13:23'
p4215
V0.5
p4216
tp4217
a(S'22:18:32'
p4218
V(100^2)0.5
p4219
tp4220
a(S'22:22:07'
p4221
V0.5
p4222
tp4223
a(S'1 day, 14:58:08'
p4224
V0.5 + (((-2)^2)(0.5)) + 0.5
p4225
tp4226
asg9
g938
sS'part6_correct_attempt'
p4227
(lp4228
S'1 day, 17:11:35'
p4229
aV0.25 + (((-2)^2)(0.25)) + 0.25
p4230
assVjhc010
p4231
(dp4232
S'part5_correct_attempt'
p4233
(lp4234
S'0:02:30'
p4235
aV0
p4236
asS'part6_incorrect_attempt'
p4237
(lp4238
(S'0:03:49'
p4239
V4.5
p4240
tp4241
asg9
V2015-11-06 10:26:35
p4242
sS'part6_correct_attempt'
p4243
(lp4244
S'0:04:00'
p4245
aV1.5
p4246
assVdkostins
p4247
(dp4248
S'part5_correct_attempt'
p4249
(lp4250
S'0:09:16'
p4251
aV0
p4252
asS'part6_incorrect_attempt'
p4253
(lp4254
(S'0:13:34'
p4255
V4/4
p4256
tp4257
asg9
V2015-11-03 22:02:58
p4258
sS'part6_correct_attempt'
p4259
(lp4260
S'0:13:51'
p4261
aV6/4
p4262
assVtwsalim
p4263
(dp4264
S'part5_correct_attempt'
p4265
(lp4266
S'0:34:49'
p4267
aV0
p4268
asS'part6_incorrect_attempt'
p4269
(lp4270
(S'0:54:35'
p4271
V0.75
p4272
tp4273
asg9
g1126
sS'part6_correct_attempt'
p4274
(lp4275
S'1:01:15'
p4276
aV1.5
p4277
assVachinn
p4278
(dp4279
S'part5_correct_attempt'
p4280
(lp4281
S'0:01:53'
p4282
aV0
p4283
asS'part6_incorrect_attempt'
p4284
(lp4285
(S'0:02:04'
p4286
V0.5
p4287
tp4288
asg9
V2015-11-03 21:11:57
p4289
sS'part6_correct_attempt'
p4290
(lp4291
S'0:04:36'
p4292
aV1.5
p4293
assVjap009
p4294
(dp4295
S'part5_correct_attempt'
p4296
(lp4297
S'0:19:39'
p4298
aV0
p4299
asS'part6_incorrect_attempt'
p4300
(lp4301
(S'0:20:54'
p4302
V.25+2+.25
p4303
tp4304
asg9
g1142
sS'part6_correct_attempt'
p4305
(lp4306
S'0:21:31'
p4307
aV.25+1+.25
p4308
assVjcl084
p4309
(dp4310
S'part5_correct_attempt'
p4311
(lp4312
S'0:02:46'
p4313
aV0
p4314
asS'part6_incorrect_attempt'
p4315
(lp4316
(S'0:03:39'
p4317
V0.5^2 + 2*(0.5^2) + 0.5^2
p4318
tp4319
asg9
g1172
sS'part6_correct_attempt'
p4320
(lp4321
S'0:03:52'
p4322
aV0.5^2 + 2^2*(0.5^2) + 0.5^2
p4323
assVajabasa
p4324
(dp4325
S'part5_correct_attempt'
p4326
(lp4327
S'9:03:37'
p4328
ag1913
asS'part6_incorrect_attempt'
p4329
(lp4330
(S'9:07:18'
p4331
V(.25+4*.25+.5)
p4332
tp4333
asg9
g404
sS'part6_correct_attempt'
p4334
(lp4335
S'9:50:18'
p4336
aV(.25+4*.25+(.25))
p4337
assVgsrandha
p4338
(dp4339
S'part5_correct_attempt'
p4340
(lp4341
S'0:34:44'
p4342
ag1868
asS'part6_incorrect_attempt'
p4343
(lp4344
(S'0:36:21'
p4345
V.25 +  .5 + .25
p4346
tp4347
a(S'0:36:46'
p4348
V.25 + 2 *.25+ .25
p4349
tp4350
a(S'0:37:09'
p4351
V4(.25 + .25+ .25)
p4352
tp4353
asg9
g380
sS'part6_correct_attempt'
p4354
(lp4355
S'0:37:47'
p4356
aV1.5
p4357
assVhmshah
p4358
(dp4359
S'part5_correct_attempt'
p4360
(lp4361
S'18:42:25'
p4362
aV0
p4363
asS'part6_incorrect_attempt'
p4364
(lp4365
(S'18:48:38'
p4366
V4((0 - .5)^2)
p4367
tp4368
asg9
g1456
sS'part6_correct_attempt'
p4369
(lp4370
S'18:49:03'
p4371
aV(0 - .5)^2 + (4*(0 - .5)^2) + (0 - .5)^2
p4372
assVlahawkin
p4373
(dp4374
S'part5_correct_attempt'
p4375
(lp4376
S'0:02:52'
p4377
aV.5-2(.5)+(.5)
p4378
asS'part6_incorrect_attempt'
p4379
(lp4380
(S'0:43:56'
p4381
V(((.25)+(4*.25)+(.25))^2)/3
p4382
tp4383
asg9
g2569
sS'part6_correct_attempt'
p4384
(lp4385
S'0:44:13'
p4386
aV((.25)+(4*.25)+(.25))
p4387
assVz2tan
p4388
(dp4389
S'part5_correct_attempt'
p4390
(lp4391
S'0:04:36'
p4392
aV0
p4393
asS'part6_incorrect_attempt'
p4394
(lp4395
(S'0:04:42'
p4396
V0.5
p4397
tp4398
asg9
V2015-11-02 05:18:51
p4399
sS'part6_correct_attempt'
p4400
(lp4401
S'0:05:33'
p4402
aV1.5
p4403
assVkquong
p4404
(dp4405
S'part5_correct_attempt'
p4406
(lp4407
S'0:20:02'
p4408
aV0
p4409
asS'part6_incorrect_attempt'
p4410
(lp4411
(S'0:20:18'
p4412
V.5
p4413
tp4414
a(S'0:20:30'
p4415
V.25
p4416
tp4417
asg9
g1558
sS'part6_correct_attempt'
p4418
(lp4419
S'0:37:38'
p4420
aV1.5
p4421
assVyypan
p4422
(dp4423
S'part5_correct_attempt'
p4424
(lp4425
S'0:08:40'
p4426
aV0.5-2*0.5+0.5
p4427
asS'part6_incorrect_attempt'
p4428
(lp4429
(S'0:09:26'
p4430
V0.5-0.5^2-2*(0.5-0.5^2)+0.5-0.5^2
p4431
tp4432
a(S'0:09:36'
p4433
V0.5-0.5^2+2*(0.5-0.5^2)+0.5-0.5^2
p4434
tp4435
asg9
g2632
sS'part6_correct_attempt'
p4436
(lp4437
S'0:09:52'
p4438
aV0.5-0.5^2+4*(0.5-0.5^2)+0.5-0.5^2
p4439
assVajvanega
p4440
(dp4441
S'part5_correct_attempt'
p4442
(lp4443
S'16:15:25'
p4444
aV0
p4445
asS'part6_incorrect_attempt'
p4446
(lp4447
(S'23:20:11'
p4448
V.5
p4449
tp4450
asg9
g1674
sS'part6_correct_attempt'
p4451
(lp4452
S'1 day, 16:52:31'
p4453
aV1.5
p4454
assVzhw110
p4455
(dp4456
S'part5_correct_attempt'
p4457
(lp4458
S'0:00:00'
p4459
aV0
p4460
asS'part6_incorrect_attempt'
p4461
(lp4462
(S'23:38:08'
p4463
V1/3
p4464
tp4465
a(S'23:43:27'
p4466
V4*(0.5^2)
p4467
tp4468
a(S'23:53:15'
p4469
V4*(0.5^2)+2
p4470
tp4471
a(S'23:56:42'
p4472
V2*(0.5^2)+0.25*0.25
p4473
tp4474
a(S'23:57:04'
p4475
V3*(0.5^2)
p4476
tp4477
asg9
g1690
sS'part6_correct_attempt'
p4478
(lp4479
S'23:57:36'
p4480
aV6*(0.5^2)
p4481
assVmtrafeca
p4482
(dp4483
S'part5_correct_attempt'
p4484
(lp4485
S'0:10:21'
p4486
aV0
p4487
asS'part6_incorrect_attempt'
p4488
(lp4489
(S'0:10:58'
p4490
V(.2+1+.25)/3
p4491
tp4492
a(S'0:11:05'
p4493
V(.25+1+.25)/3
p4494
tp4495
a(S'0:11:18'
p4496
V(.25+.5+.25)/3
p4497
tp4498
a(S'0:11:44'
p4499
V(.25-.5+.25)/3
p4500
tp4501
a(S'0:15:34'
p4502
V(.25+2+.25)/3
p4503
tp4504
a(S'0:16:35'
p4505
V1/3
p4506
tp4507
a(S'0:16:58'
p4508
V.25/3
p4509
tp4510
a(S'0:17:10'
p4511
V.5/3
p4512
tp4513
a(S'0:17:50'
p4514
V4/3
p4515
tp4516
a(S'0:32:14'
p4517
V2/3
p4518
tp4519
a(S'0:34:09'
p4520
V.75
p4521
tp4522
a(S'2:04:59'
p4523
V.25
p4524
tp4525
a(S'2:05:35'
p4526
V.5
p4527
tp4528
a(S'2:08:22'
p4529
V.25^2
p4530
tp4531
asg9
V2015-11-02 00:15:44
p4532
sS'part6_correct_attempt'
p4533
(lp4534
S'2 days, 23:33:10'
p4535
aV6/4
p4536
assVmjethani
p4537
(dp4538
S'part5_correct_attempt'
p4539
(lp4540
S'0:00:00'
p4541
aV0
p4542
asS'part6_incorrect_attempt'
p4543
(lp4544
(S'0:02:59'
p4545
V1/3
p4546
tp4547
a(S'0:03:11'
p4548
V2/3
p4549
tp4550
a(S'19:08:22'
p4551
V(0.5) + ((4)0.5) + 0.5
p4552
tp4553
a(S'19:09:37'
p4554
V(0.25) + ((4)0.25) + 0.5
p4555
tp4556
asg9
V2015-11-06 01:43:43
p4557
sS'part6_correct_attempt'
p4558
(lp4559
S'19:09:46'
p4560
aV(0.25) + ((4)0.25) + 0.25
p4561
assVkosung
p4562
(dp4563
S'part5_correct_attempt'
p4564
(lp4565
S'0:00:49'
p4566
aV0
p4567
asS'part6_incorrect_attempt'
p4568
(lp4569
(S'0:04:43'
p4570
V0.5
p4571
tp4572
asg9
g1589
sS'part6_correct_attempt'
p4573
(lp4574
S'0:39:23'
p4575
aV1.5
p4576
assVj2phung
p4577
(dp4578
S'part5_correct_attempt'
p4579
(lp4580
S'1 day, 9:25:27'
p4581
aV0
p4582
asS'part6_incorrect_attempt'
p4583
(lp4584
(S'1 day, 9:45:01'
p4585
V1/2
p4586
tp4587
asg9
g1765
sS'part6_correct_attempt'
p4588
(lp4589
S'1 day, 10:20:42'
p4590
aV6/4
p4591
asssV8
p4592
(dp4593
Vb3hwang
p4594
(dp4595
S'part8_incorrect_attempt'
p4596
(lp4597
(S'0:09:55'
p4598
V(.5*84)^2
p4599
tp4600
asg9
g906
sS'part7_correct_attempt'
p4601
(lp4602
S'0:09:32'
p4603
ag2775
asS'part8_correct_attempt'
p4604
(lp4605
S'0:10:20'
p4606
aV84*(.5)^2
p4607
assVapokhare
p4608
(dp4609
S'part8_incorrect_attempt'
p4610
(lp4611
(S'0:01:24'
p4612
V2.25
p4613
tp4614
asg9
g2884
sS'part7_correct_attempt'
p4615
(lp4616
S'0:01:24'
p4617
aV0
p4618
asS'part8_correct_attempt'
p4619
(lp4620
S'0:01:48'
p4621
aV22.5
p4622
assVv4zhang
p4623
(dp4624
S'part8_incorrect_attempt'
p4625
(lp4626
(S'0:11:48'
p4627
V0.25*[(80*81)/2]
p4628
tp4629
a(S'0:13:39'
p4630
V(20*21)/2
p4631
tp4632
a(S'19:37:40'
p4633
V[((80*81*161)/6)-((80*81)/2)]*0.5
p4634
tp4635
asg9
g1234
sS'part7_correct_attempt'
p4636
(lp4637
S'0:10:21'
p4638
aV0
p4639
asS'part8_correct_attempt'
p4640
(lp4641
S'19:45:00'
p4642
aV0.25*80
p4643
assVlywong
p4644
(dp4645
S'part8_incorrect_attempt'
p4646
(lp4647
(S'0:09:18'
p4648
V0.25(95)
p4649
tp4650
asg9
g1005
sS'part7_correct_attempt'
p4651
(lp4652
S'0:09:05'
p4653
aV0
p4654
asS'part8_correct_attempt'
p4655
(lp4656
S'0:09:23'
p4657
aV0.25(94)
p4658
assVdsmonaha
p4659
(dp4660
S'part8_incorrect_attempt'
p4661
(lp4662
(S'4 days, 4:21:01'
p4663
V(.25)^82
p4664
tp4665
asg9
g1250
sS'part7_correct_attempt'
p4666
(lp4667
S'4 days, 4:21:01'
p4668
aV0
p4669
asS'part8_correct_attempt'
p4670
(lp4671
S'4 days, 4:21:51'
p4672
aV(.25)*82
p4673
assVhkhodada
p4674
(dp4675
S'part8_incorrect_attempt'
p4676
(lp4677
(S'2 days, 8:49:22'
p4678
V0.25*96
p4679
tp4680
asg9
g392
sS'part7_correct_attempt'
p4681
(lp4682
S'2 days, 8:48:22'
p4683
aV0
p4684
asS'part8_correct_attempt'
p4685
(lp4686
S'2 days, 8:49:52'
p4687
aV0.25*92
p4688
assVglcohen
p4689
(dp4690
S'part8_incorrect_attempt'
p4691
(lp4692
(S'0:07:15'
p4693
V0.25
p4694
tp4695
a(S'3:56:29'
p4696
V0.1875
p4697
tp4698
a(S'3:56:40'
p4699
V1-0.1875
p4700
tp4701
a(S'4:03:00'
p4702
V0.25
p4703
tp4704
a(S'4:03:05'
p4705
V0.5
p4706
tp4707
asg9
g626
sS'part7_correct_attempt'
p4708
(lp4709
S'0:00:42'
p4710
aV0
p4711
asS'part8_correct_attempt'
p4712
(lp4713
S'4:05:06'
p4714
aV23.5
p4715
assVachava
p4716
(dp4717
S'part8_incorrect_attempt'
p4718
(lp4719
(S'0:18:51'
p4720
V0.5*88
p4721
tp4722
asg9
g3135
sS'part7_correct_attempt'
p4723
(lp4724
S'0:18:14'
p4725
aV0
p4726
asS'part8_correct_attempt'
p4727
(lp4728
S'0:21:05'
p4729
aV0.5*(44)
p4730
assVatorr
p4731
(dp4732
S'part8_incorrect_attempt'
p4733
(lp4734
(S'1:04:17'
p4735
V0.25
p4736
tp4737
asg9
g2075
sS'part7_correct_attempt'
p4738
(lp4739
S'0:05:55'
p4740
aV0
p4741
asS'part8_correct_attempt'
p4742
(lp4743
S'1:06:32'
p4744
aV(0.25) * 98
p4745
assVmasaro
p4746
(dp4747
S'part8_incorrect_attempt'
p4748
(lp4749
(S'0:15:10'
p4750
V0.5
p4751
tp4752
a(S'0:16:06'
p4753
V0.25
p4754
tp4755
a(S'1 day, 6:04:48'
p4756
V0.25
p4757
tp4758
a(S'1 day, 6:04:53'
p4759
V0.5
p4760
tp4761
asg9
g547
sS'part7_correct_attempt'
p4762
(lp4763
S'0:02:29'
p4764
aV0
p4765
asS'part8_correct_attempt'
p4766
(lp4767
S'1 day, 6:48:37'
p4768
aV0.25*94
p4769
assVrwthomps
p4770
(dp4771
S'part8_incorrect_attempt'
p4772
(lp4773
(S'3:11:30'
p4774
V0.5
p4775
tp4776
a(S'3:11:35'
p4777
V0.25
p4778
tp4779
a(S'3:13:00'
p4780
V(0.25) * 43
p4781
tp4782
asg9
g2003
sS'part7_correct_attempt'
p4783
(lp4784
S'3:07:51'
p4785
aV0
p4786
asS'part8_correct_attempt'
p4787
(lp4788
S'3:15:28'
p4789
aV(0.25) * 86
p4790
assVm8woo
p4791
(dp4792
S'part8_incorrect_attempt'
p4793
(lp4794
(S'0:10:16'
p4795
V0.5*94
p4796
tp4797
a(S'0:10:22'
p4798
V0.5*100
p4799
tp4800
asg9
g2698
sS'part7_correct_attempt'
p4801
(lp4802
S'0:09:52'
p4803
aV0
p4804
asS'part8_correct_attempt'
p4805
(lp4806
S'0:10:47'
p4807
aV0.25*94
p4808
assVmhale
p4809
(dp4810
S'part8_incorrect_attempt'
p4811
(lp4812
(S'0:10:09'
p4813
V0.5
p4814
tp4815
a(S'0:10:39'
p4816
V86^2(0.5)
p4817
tp4818
a(S'0:11:05'
p4819
V43^2(0.5)
p4820
tp4821
a(S'0:11:45'
p4822
V0.5 * 86
p4823
tp4824
asg9
g747
sS'part7_correct_attempt'
p4825
(lp4826
S'0:09:18'
p4827
aV0
p4828
asS'part8_correct_attempt'
p4829
(lp4830
S'0:11:58'
p4831
aV0.5 * 43
p4832
assVawollner
p4833
(dp4834
S'part8_incorrect_attempt'
p4835
(lp4836
(S'0:32:08'
p4837
V.5*88
p4838
tp4839
asg9
g779
sS'part7_correct_attempt'
p4840
(lp4841
S'0:32:08'
p4842
aV0
p4843
asS'part8_correct_attempt'
p4844
(lp4845
S'0:32:21'
p4846
aV.25*88
p4847
assVdcrume
p4848
(dp4849
S'part8_incorrect_attempt'
p4850
(lp4851
(S'1:06:03'
p4852
V0.5*92
p4853
tp4854
asg9
g706
sS'part7_correct_attempt'
p4855
(lp4856
S'1:00:29'
p4857
aV0
p4858
asS'part8_correct_attempt'
p4859
(lp4860
S'1:08:37'
p4861
aV0.5*.5*92
p4862
assVvsosnovs
p4863
(dp4864
S'part8_incorrect_attempt'
p4865
(lp4866
(S'0:12:03'
p4867
V.0
p4868
tp4869
a(S'0:12:08'
p4870
V.5
p4871
tp4872
a(S'0:12:13'
p4873
V.25
p4874
tp4875
a(S'0:22:50'
p4876
V37.5
p4877
tp4878
a(S'0:23:05'
p4879
V1.5
p4880
tp4881
a(S'0:23:11'
p4882
V1.5*5
p4883
tp4884
a(S'0:23:18'
p4885
V1.5*10
p4886
tp4887
a(S'0:23:25'
p4888
V1.5*20
p4889
tp4890
a(S'0:23:31'
p4891
V1.5*25
p4892
tp4893
a(S'0:23:57'
p4894
V1.5*.5
p4895
tp4896
a(S'0:34:02'
p4897
V.5+.25+1.5
p4898
tp4899
a(S'0:39:03'
p4900
V2.5
p4901
tp4902
a(S'0:39:08'
p4903
V2.25
p4904
tp4905
a(S'0:40:03'
p4906
V.5+1.5
p4907
tp4908
a(S'1:17:54'
p4909
V.5^2-.25^2
p4910
tp4911
a(S'1 day, 2:48:48'
p4912
V1.5+.5+.25
p4913
tp4914
a(S'1 day, 2:48:59'
p4915
V1.5+.5
p4916
tp4917
a(S'1 day, 2:49:16'
p4918
V47(1.5+.5)
p4919
tp4920
a(S'1 day, 2:49:22'
p4921
V49(1.5+.5)
p4922
tp4923
asg9
g1110
sS'part7_correct_attempt'
p4924
(lp4925
S'0:11:38'
p4926
aV0
p4927
assVskarimik
p4928
(dp4929
S'part8_incorrect_attempt'
p4930
(lp4931
(S'0:43:21'
p4932
V1/2
p4933
tp4934
asg9
V2015-11-01 00:41:23
p4935
sS'part7_correct_attempt'
p4936
(lp4937
S'0:43:21'
p4938
aV0
p4939
asS'part8_correct_attempt'
p4940
(lp4941
S'2:00:17'
p4942
aV47/2
p4943
assVn2patil
p4944
(dp4945
S'part8_incorrect_attempt'
p4946
(lp4947
(S'0:59:17'
p4948
V100(.25)
p4949
tp4950
asg9
g3858
sS'part7_correct_attempt'
p4951
(lp4952
S'0:59:17'
p4953
aV0
p4954
asS'part8_correct_attempt'
p4955
(lp4956
S'0:59:51'
p4957
aV90(.25)
p4958
assVarvenega
p4959
(dp4960
S'part8_incorrect_attempt'
p4961
(lp4962
(S'0:00:00'
p4963
V46*.5
p4964
tp4965
asg9
V2015-11-06 23:34:13
p4966
sS'part7_correct_attempt'
p4967
(lp4968
S'0:00:00'
p4969
aV0
p4970
asS'part8_correct_attempt'
p4971
(lp4972
S'0:00:27'
p4973
aV42*.5
p4974
assVgsrandha
p4975
(dp4976
S'part8_incorrect_attempt'
p4977
(lp4978
(S'0:38:10'
p4979
V1.5 * 27
p4980
tp4981
asg9
g380
sS'part7_correct_attempt'
p4982
(lp4983
S'0:37:57'
p4984
aV0
p4985
asS'part8_correct_attempt'
p4986
(lp4987
S'0:38:45'
p4988
aV82*(1/4)
p4989
assVavasavad
p4990
(dp4991
S'part8_incorrect_attempt'
p4992
(lp4993
(S'0:50:43'
p4994
V(83*82)/8
p4995
tp4996
asg9
g1078
ssVjcl084
p4997
(dp4998
S'part8_incorrect_attempt'
p4999
(lp5000
(S'0:04:39'
p5001
V100*(0.5^2)
p5002
tp5003
a(S'0:04:57'
p5004
V100^2*(0.5^2)
p5005
tp5006
asg9
g1172
sS'part7_correct_attempt'
p5007
(lp5008
S'0:04:39'
p5009
aV0
p5010
asS'part8_correct_attempt'
p5011
(lp5012
S'0:05:08'
p5013
aV82*(0.5^2)
p5014
assVskodigal
p5015
(dp5016
S'part8_incorrect_attempt'
p5017
(lp5018
(S'19:15:49'
p5019
V.5*88
p5020
tp5021
asg9
V2015-11-05 09:10:36
p5022
sS'part7_correct_attempt'
p5023
(lp5024
S'19:15:00'
p5025
aV0
p5026
asS'part8_correct_attempt'
p5027
(lp5028
S'19:16:17'
p5029
aV.25*88
p5030
assVkew017
p5031
(dp5032
S'part8_incorrect_attempt'
p5033
(lp5034
(S'0:09:06'
p5035
V1/(2*86)
p5036
tp5037
a(S'0:09:17'
p5038
V1/(4*86)
p5039
tp5040
asg9
V2015-11-05 21:33:59
p5041
sS'part7_correct_attempt'
p5042
(lp5043
S'0:09:06'
p5044
aV0
p5045
asS'part8_correct_attempt'
p5046
(lp5047
S'0:09:30'
p5048
aV86/(4)
p5049
assVkbielawi
p5050
(dp5051
S'part8_incorrect_attempt'
p5052
(lp5053
(S'2 days, 0:23:28'
p5054
V0.25
p5055
tp5056
asg9
g610
sS'part7_correct_attempt'
p5057
(lp5058
S'23:37:06'
p5059
aV0
p5060
asS'part8_correct_attempt'
p5061
(lp5062
S'2 days, 0:23:51'
p5063
aV0.25*94
p5064
assVtstevens
p5065
(dp5066
S'part8_incorrect_attempt'
p5067
(lp5068
(S'0:07:55'
p5069
V.5
p5070
tp5071
a(S'0:13:22'
p5072
V.25
p5073
tp5074
a(S'0:13:29'
p5075
V.75
p5076
tp5077
asg9
g1288
sS'part7_correct_attempt'
p5078
(lp5079
S'0:02:46'
p5080
aV0
p5081
asS'part8_correct_attempt'
p5082
(lp5083
S'0:18:38'
p5084
aV22.5
p5085
assVbpandayk
p5086
(dp5087
S'part8_incorrect_attempt'
p5088
(lp5089
(S'0:00:00'
p5090
V100*(0.5(0.5))
p5091
tp5092
asg9
V2015-11-06 21:27:20
p5093
sS'part7_correct_attempt'
p5094
(lp5095
S'0:00:00'
p5096
aV0
p5097
asS'part8_correct_attempt'
p5098
(lp5099
S'0:00:22'
p5100
aV98*(0.5(0.5))
p5101
assVsghouse
p5102
(dp5103
S'part8_incorrect_attempt'
p5104
(lp5105
(S'0:18:41'
p5106
V.5*90
p5107
tp5108
asg9
V2015-11-03 21:24:01
p5109
sS'part7_correct_attempt'
p5110
(lp5111
S'0:18:41'
p5112
aV0
p5113
asS'part8_correct_attempt'
p5114
(lp5115
S'0:18:54'
p5116
aV.25*90
p5117
assVlguintu
p5118
(dp5119
S'part8_incorrect_attempt'
p5120
(lp5121
(S'0:02:39'
p5122
V(94+95)/(2*4)
p5123
tp5124
asg9
g3301
sS'part7_correct_attempt'
p5125
(lp5126
S'0:02:11'
p5127
aV0
p5128
asS'part8_correct_attempt'
p5129
(lp5130
S'0:03:18'
p5131
aV94/4
p5132
assVacs008
p5133
(dp5134
S'part8_incorrect_attempt'
p5135
(lp5136
(S'0:09:35'
p5137
V0.5
p5138
tp5139
a(S'0:09:51'
p5140
V1.5
p5141
tp5142
a(S'0:10:16'
p5143
V0.25
p5144
tp5145
a(S'0:10:22'
p5146
V0.75
p5147
tp5148
a(S'0:10:29'
p5149
V1.75
p5150
tp5151
a(S'0:10:37'
p5152
V2.25
p5153
tp5154
asg9
g2537
sS'part7_correct_attempt'
p5155
(lp5156
S'0:08:11'
p5157
aV0
p5158
asS'part8_correct_attempt'
p5159
(lp5160
S'0:10:59'
p5161
aV0.5^2*90
p5162
assVasp025
p5163
(dp5164
S'part8_incorrect_attempt'
p5165
(lp5166
(S'0:36:28'
p5167
V[100*(0.5)^2*(96-1)^2]^(1/2)
p5168
tp5169
a(S'0:37:54'
p5170
V[100*(0.5)^2*(96-1)^2]
p5171
tp5172
a(S'0:39:20'
p5173
V[100*(0.5)*(96-1)^2]
p5174
tp5175
a(S'0:52:33'
p5176
V[96*(0.5)*(0.5)^2]
p5177
tp5178
a(S'1:00:05'
p5179
V[100*((0.5)-(0.5)^2)]
p5180
tp5181
asg9
V2015-11-06 19:55:41
p5182
sS'part7_correct_attempt'
p5183
(lp5184
S'0:32:44'
p5185
aV0
p5186
asS'part8_correct_attempt'
p5187
(lp5188
S'1:01:20'
p5189
aV[96*((0.5)-(0.5)^2)]
p5190
assVmuy002
p5191
(dp5192
S'part8_incorrect_attempt'
p5193
(lp5194
(S'0:04:32'
p5195
V.5*50
p5196
tp5197
asg9
V2015-11-06 00:02:46
p5198
sS'part7_correct_attempt'
p5199
(lp5200
S'0:04:32'
p5201
aV0
p5202
asS'part8_correct_attempt'
p5203
(lp5204
S'0:04:47'
p5205
aV.5*45
p5206
assVhaliew
p5207
(dp5208
S'part8_incorrect_attempt'
p5209
(lp5210
(S'0:13:06'
p5211
V.5
p5212
tp5213
a(S'1:27:50'
p5214
V.5
p5215
tp5216
a(S'1:27:56'
p5217
V.25
p5218
tp5219
asg9
g1746
sS'part7_correct_attempt'
p5220
(lp5221
S'0:12:28'
p5222
aV0
p5223
asS'part8_correct_attempt'
p5224
(lp5225
S'1:28:55'
p5226
aV.5(94/2)
p5227
assVtdurrer
p5228
(dp5229
S'part8_incorrect_attempt'
p5230
(lp5231
(S'1:10:17'
p5232
V((82)^2)(.25)
p5233
tp5234
asg9
g1491
sS'part7_correct_attempt'
p5235
(lp5236
S'1:09:25'
p5237
aV0
p5238
asS'part8_correct_attempt'
p5239
(lp5240
S'1:11:07'
p5241
aV(82)(.25)
p5242
assVeshung
p5243
(dp5244
S'part8_incorrect_attempt'
p5245
(lp5246
(S'0:03:07'
p5247
V45.5
p5248
tp5249
a(S'0:03:28'
p5250
V40.5
p5251
tp5252
a(S'0:05:20'
p5253
V430.5
p5254
tp5255
a(S'0:06:48'
p5256
V15.5
p5257
tp5258
asg9
V2015-11-05 22:57:38
p5259
sS'part7_correct_attempt'
p5260
(lp5261
S'0:03:07'
p5262
aV0
p5263
asS'part8_correct_attempt'
p5264
(lp5265
S'0:08:12'
p5266
aV20.5
p5267
assVaurodrig
p5268
(dp5269
S'part8_incorrect_attempt'
p5270
(lp5271
(S'0:20:33'
p5272
V100*(1/4)
p5273
tp5274
asg9
g368
sS'part7_correct_attempt'
p5275
(lp5276
S'0:20:33'
p5277
aV0
p5278
asS'part8_correct_attempt'
p5279
(lp5280
S'0:21:52'
p5281
aV90*(1/4)
p5282
assVm4salaza
p5283
(dp5284
S'part8_incorrect_attempt'
p5285
(lp5286
(S'23:59:33'
p5287
V86*1/2*5
p5288
tp5289
asg9
g2783
sS'part7_correct_attempt'
p5290
(lp5291
S'0:03:04'
p5292
ag2787
asS'part8_correct_attempt'
p5293
(lp5294
S'1 day, 0:00:18'
p5295
aV86*1/2*.5
p5296
assVytc012
p5297
(dp5298
S'part8_incorrect_attempt'
p5299
(lp5300
(S'0:00:00'
p5301
V0.25*86
p5302
tp5303
asg9
V2015-11-05 22:01:35
p5304
sS'part7_correct_attempt'
p5305
(lp5306
S'0:00:00'
p5307
aV0
p5308
asS'part8_correct_attempt'
p5309
(lp5310
S'0:00:10'
p5311
aV0.25*98
p5312
assVxweng
p5313
(dp5314
S'part8_incorrect_attempt'
p5315
(lp5316
(S'0:04:28'
p5317
V2^1000.25
p5318
tp5319
a(S'0:04:34'
p5320
V2^100*0.25
p5321
tp5322
asg9
g1523
sS'part7_correct_attempt'
p5323
(lp5324
S'0:04:02'
p5325
aV0
p5326
asS'part8_correct_attempt'
p5327
(lp5328
S'0:04:52'
p5329
aV100*0.25
p5330
assVany027
p5331
(dp5332
S'part8_incorrect_attempt'
p5333
(lp5334
(S'0:18:52'
p5335
V0.5
p5336
tp5337
a(S'0:19:06'
p5338
V0.25
p5339
tp5340
a(S'0:19:31'
p5341
V0.5
p5342
tp5343
asg9
g1829
sS'part7_correct_attempt'
p5344
(lp5345
S'0:18:43'
p5346
aV0
p5347
asS'part8_correct_attempt'
p5348
(lp5349
S'0:19:42'
p5350
aV0.25 * 90
p5351
assVhmnaing
p5352
(dp5353
S'part8_incorrect_attempt'
p5354
(lp5355
(S'0:12:05'
p5356
V0.25
p5357
tp5358
a(S'0:12:38'
p5359
V82/2* (0.25)
p5360
tp5361
asg9
g1728
sS'part7_correct_attempt'
p5362
(lp5363
S'0:10:55'
p5364
aV0
p5365
asS'part8_correct_attempt'
p5366
(lp5367
S'0:13:44'
p5368
aV((0.5)-(0.5)^2 )* 82
p5369
assVtjke
p5370
(dp5371
S'part8_incorrect_attempt'
p5372
(lp5373
(S'0:10:17'
p5374
V[0.5*0^2 - (0.5*0)^2]
p5375
tp5376
a(S'0:11:25'
p5377
V86/2*[[0.5*1^2 - (0.5*1)^2] + [0.5*-1^2 - (0.5*-1)^2]]
p5378
tp5379
a(S'0:11:38'
p5380
V[[0.5*1^2 - (0.5*1)^2] + [0.5*-1^2 - (0.5*-1)^2]]
p5381
tp5382
a(S'0:13:27'
p5383
V86^2*[0.5*1^2 - (0.5*1)^2]
p5384
tp5385
a(S'0:13:41'
p5386
V(86/2)^2*[0.5*1^2 - (0.5*1)^2]
p5387
tp5388
a(S'0:14:06'
p5389
V0.5
p5390
tp5391
asg9
g2717
sS'part7_correct_attempt'
p5392
(lp5393
S'0:10:17'
p5394
aV0.5*0
p5395
asS'part8_correct_attempt'
p5396
(lp5397
S'0:14:28'
p5398
aV86/2*0.5
p5399
assVmtrafeca
p5400
(dp5401
S'part8_incorrect_attempt'
p5402
(lp5403
(S'0:18:46'
p5404
V.5
p5405
tp5406
a(S'0:23:48'
p5407
V1/2
p5408
tp5409
a(S'0:23:57'
p5410
V.25
p5411
tp5412
a(S'0:24:08'
p5413
V1/86
p5414
tp5415
a(S'0:24:23'
p5416
V.5/86
p5417
tp5418
a(S'0:24:29'
p5419
V.25/86
p5420
tp5421
a(S'0:24:41'
p5422
V.25*86/86
p5423
tp5424
a(S'2:05:08'
p5425
V.25
p5426
tp5427
a(S'2:05:35'
p5428
V.5
p5429
tp5430
a(S'2:08:14'
p5431
V.25^2
p5432
tp5433
asg9
g4532
sS'part7_correct_attempt'
p5434
(lp5435
S'0:18:29'
p5436
aV0
p5437
asS'part8_correct_attempt'
p5438
(lp5439
S'2 days, 23:43:15'
p5440
aV86/4
p5441
assVkgrozav
p5442
(dp5443
S'part8_incorrect_attempt'
p5444
(lp5445
(S'12:24:31'
p5446
V.25*100
p5447
tp5448
asg9
g1797
sS'part7_correct_attempt'
p5449
(lp5450
S'12:24:31'
p5451
aV0
p5452
asS'part8_correct_attempt'
p5453
(lp5454
S'12:24:41'
p5455
aV.25*88
p5456
assVjit002
p5457
(dp5458
S'part8_incorrect_attempt'
p5459
(lp5460
(S'0:09:23'
p5461
V0.25
p5462
tp5463
asg9
g3233
sS'part7_correct_attempt'
p5464
(lp5465
S'0:00:00'
p5466
aV0
p5467
asS'part8_correct_attempt'
p5468
(lp5469
S'0:12:03'
p5470
aV0.25*82
p5471
asss.