(dp0
V1
p1
(dp2
Vkbielawi
p3
(dp4
S'part1_correct_attempt'
p5
(lp6
S'1 day, 4:14:18'
p7
aV(5/1+5/2+5/3+5/4+5/5)
p8
asS'first_attempt'
p9
V2015-11-04 20:36:01
p10
sS'part1_incorrect_attempt'
p11
(lp12
(S'0:00:00'
p13
V5/3
p14
tp15
a(S'0:00:00'
p16
V7/35
p17
tp18
a(S'0:00:39'
p19
V7/9
p20
tp21
a(S'0:00:00'
p22
V(5 + 5/2 +5/3+5/4+1)/5
p23
tp24
a(S'0:00:00'
p25
V(5/1+5/2+5/3+5/4+5/5)/5
p26
tp27
assVssamudra
p28
(dp29
S'part1_correct_attempt'
p30
(lp31
S'0:01:40'
p32
aV1/5 + 1/4 + 1/3 + 1/2 + 1
p33
asg9
V2015-11-05 06:15:19
p34
sS'part1_incorrect_attempt'
p35
(lp36
(S'0:00:00'
p37
V7/(25)
p38
tp39
assVjjm019
p40
(dp41
S'part1_correct_attempt'
p42
(lp43
S'3:17:53'
p44
aV[(3/1)+(3/2)+(3/3)+(3/4)+(3/5)]
p45
asg9
V2015-11-04 23:29:51
p46
sS'part1_incorrect_attempt'
p47
(lp48
(S'0:00:00'
p49
V3/5
p50
tp51
a(S'0:00:00'
p52
V[(3/1)+(3/2)+(3/3)+(3/4)+(3/5)]/5
p53
tp54
assVmhale
p55
(dp56
S'part1_correct_attempt'
p57
(lp58
S'0:01:03'
p59
aV1 + 1/2 + 1/3 + 1/4 + 1/5
p60
asg9
V2015-11-05 20:21:09
p61
sS'part1_incorrect_attempt'
p62
(lp63
(S'0:00:00'
p64
V(1 + 1/2 + 1/3 + 1/4 + 1/5) / 5
p65
tp66
a(S'0:00:35'
p67
V15 / 5
p68
tp69
assVnhn018
p70
(dp71
S'part1_correct_attempt'
p72
(lp73
S'14:19:04'
p74
aV2+2/2+2/3+2/4+2/5
p75
asg9
V2015-11-05 05:49:28
p76
sS'part1_incorrect_attempt'
p77
(lp78
(S'0:00:00'
p79
V2/5
p80
tp81
assVj5phung
p82
(dp83
S'part1_correct_attempt'
p84
(lp85
S'0:02:08'
p86
aV(3+3/2+3/3+3/4+3/5)
p87
asg9
V2015-11-04 04:47:43
p88
sS'part1_incorrect_attempt'
p89
(lp90
(S'0:00:00'
p91
V1/5
p92
tp93
assVjyc018
p94
(dp95
S'part1_correct_attempt'
p96
(lp97
S'0:06:51'
p98
aV(4+2+4/3+1+4/5)
p99
asg9
V2015-11-04 18:43:05
p100
sS'part1_incorrect_attempt'
p101
(lp102
(S'0:00:00'
p103
V(4+2+4/3+1+4/5)/5
p104
tp105
assVvqt004
p106
(dp107
S'part1_correct_attempt'
p108
(lp109
S'0:07:49'
p110
aV(4+2+4/3+1+4/5)
p111
asg9
V2015-11-06 05:33:12
p112
sS'part1_incorrect_attempt'
p113
(lp114
(S'0:00:00'
p115
V(4+2+4/3+1+4/5)/5
p116
tp117
a(S'0:02:13'
p118
V(4/5)*(1+2+3+4+5)/5
p119
tp120
a(S'0:06:06'
p121
V(4+2+4/3+1+4/5)/5
p122
tp123
assVmnrahman
p124
(dp125
S'part1_correct_attempt'
p126
(lp127
S'0:01:43'
p128
aV(1+1/2+1/3+1/4+1/5)*2
p129
asg9
V2015-11-06 23:58:37
p130
sS'part1_incorrect_attempt'
p131
(lp132
(S'0:00:00'
p133
V(1+1/2+1/3+1/4+1/5)*1
p134
tp135
assVr9jiang
p136
(dp137
S'part1_correct_attempt'
p138
(lp139
S'0:13:07'
p140
aV5+5/2+5/3+5/4+5/5
p141
asg9
V2015-11-02 02:34:25
p142
sS'part1_incorrect_attempt'
p143
(lp144
(S'0:00:00'
p145
V137/60
p146
tp147
a(S'0:11:13'
p148
V1+1/2+1/3+1/4+1/5
p149
tp150
assVdgunawan
p151
(dp152
S'part1_correct_attempt'
p153
(lp154
S'0:02:35'
p155
aV1 + 1/2 + 1/3 + 1/4 + 1/5 
p156
asg9
V2015-11-05 08:36:34
p157
sS'part1_incorrect_attempt'
p158
(lp159
(S'0:00:00'
p160
V5* (2*(2^(1/2)))
p161
tp162
assVtcn013
p163
(dp164
S'part1_correct_attempt'
p165
(lp166
S'3:03:54'
p167
aV4+2+4/3+1+.8
p168
asg9
V2015-11-04 02:25:03
p169
sS'part1_incorrect_attempt'
p170
(lp171
(S'0:00:00'
p172
V.8
p173
tp174
assVtstevens
p175
(dp176
S'part1_correct_attempt'
p177
(lp178
S'0:01:37'
p179
aV4+2+1+4/3+.8
p180
asg9
V2015-11-06 11:53:34
p181
sS'part1_incorrect_attempt'
p182
(lp183
(S'0:00:00'
p184
V4/5
p185
tp186
a(S'0:00:42'
p187
V(4+2+4/3+1+.8)/5
p188
tp189
a(S'0:01:22'
p190
V4/25
p191
tp192
assVl8ngo
p193
(dp194
S'part1_correct_attempt'
p195
(lp196
S'0:03:52'
p197
aV2+2/2+2/3+2/4+2/5
p198
asg9
V2015-10-30 16:27:14
p199
sS'part1_incorrect_attempt'
p200
(lp201
(S'0:00:00'
p202
V2/5
p203
tp204
a(S'0:00:59'
p205
V2+2/2+2/3+2/4+2/3
p206
tp207
assVdjk006
p208
(dp209
S'part1_correct_attempt'
p210
(lp211
S'0:03:46'
p212
aV2/1+2/2+2/3+2/4+2/5
p213
asg9
V2015-11-04 00:21:56
p214
sS'part1_incorrect_attempt'
p215
(lp216
(S'0:00:00'
p217
V(2/1+2/2+2/3+2/4+2/5)/5
p218
tp219
a(S'0:03:08'
p220
V2/5
p221
tp222
assVdsriniva
p223
(dp224
S'part1_correct_attempt'
p225
(lp226
S'0:00:17'
p227
aV(5+5/2+5/3+5/4+1)
p228
asg9
V2015-11-05 09:25:10
p229
sS'part1_incorrect_attempt'
p230
(lp231
(S'0:00:00'
p232
V(5+5/2+5/3+5/4+1)/5
p233
tp234
assVsayao
p235
(dp236
S'part1_correct_attempt'
p237
(lp238
S'0:03:14'
p239
aV(3+3/2+1+3/4+3/5)
p240
asg9
V2015-11-04 01:35:01
p241
sS'part1_incorrect_attempt'
p242
(lp243
(S'0:00:00'
p244
V(3+3/2+1+3/4+3/5)/5
p245
tp246
a(S'0:01:58'
p247
V3/4
p248
tp249
a(S'0:02:36'
p250
V(3+3/2+1+3/4+3/5)/5
p251
tp252
a(S'0:02:59'
p253
V(3+3/2+1+3/4+3/5)/3
p254
tp255
assVanvan
p256
(dp257
S'part1_correct_attempt'
p258
(lp259
S'0:08:35'
p260
aV2 + 1 + 2/3 + 1/2 + 2/5
p261
asg9
V2015-11-05 15:57:18
p262
sS'part1_incorrect_attempt'
p263
(lp264
(S'0:00:00'
p265
V(2 + 1 + 2/3 + 1/2 + 2/5) / 5
p266
tp267
assVcsl030
p268
(dp269
S'part1_correct_attempt'
p270
(lp271
S'0:01:54'
p272
aV(3/1 + 3/2 + 3/3 + 3/4 + 3/5)
p273
asg9
V2015-11-06 00:13:28
p274
sS'part1_incorrect_attempt'
p275
(lp276
(S'0:00:00'
p277
V(3/1 + 3/2 + 3/3 + 3/4 + 3/5)/5
p278
tp279
assVc1wei
p280
(dp281
S'part1_correct_attempt'
p282
(lp283
S'0:02:07'
p284
aV(3+(3/2)+1+3/4+3/5)
p285
asg9
V2015-11-04 06:48:33
p286
sS'part1_incorrect_attempt'
p287
(lp288
(S'0:00:00'
p289
V3/5
p290
tp291
a(S'0:00:38'
p292
V(3+(3/2)+1+3/4+3/5)/5
p293
tp294
assVany027
p295
(dp296
S'part1_correct_attempt'
p297
(lp298
S'0:00:07'
p299
aV(4 + 2 + 4/3 + 1 + 4/5 )
p300
asg9
V2015-11-01 20:31:59
p301
sS'part1_incorrect_attempt'
p302
(lp303
(S'0:00:00'
p304
V(4 + 2 + 4/3 + 1 + 4/5 ) / 5
p305
tp306
assVm8woo
p307
(dp308
S'part1_correct_attempt'
p309
(lp310
S'0:01:00'
p311
aV[3/1 + 3/2 + 3/3 + 3/4 + 3/5]
p312
asg9
V2015-11-05 21:02:09
p313
sS'part1_incorrect_attempt'
p314
(lp315
(S'0:00:00'
p316
V[3/1 + 3/2 + 3/3 + 3/4 + 3/5]/5
p317
tp318
assVggaddi
p319
(dp320
S'part1_correct_attempt'
p321
(lp322
S'0:00:56'
p323
aV(1+1/2+1/3+1/4+1/5)
p324
asg9
V2015-11-01 21:08:49
p325
sS'part1_incorrect_attempt'
p326
(lp327
(S'0:00:00'
p328
V1/5
p329
tp330
a(S'0:00:49'
p331
V(1+1/2+1/3+1/4+1/5)/5
p332
tp333
assVjit002
p334
(dp335
S'part1_correct_attempt'
p336
(lp337
S'0:09:02'
p338
aV5+2.5+5/3+5/4+1
p339
asg9
V2015-11-05 03:52:36
p340
sS'part1_incorrect_attempt'
p341
(lp342
(S'0:00:00'
p343
V(5+2.5+5/3+5/4+1)/5
p344
tp345
assVb3hwang
p346
(dp347
S'part1_correct_attempt'
p348
(lp349
S'0:00:59'
p350
aV(4/1) + 4/2 + 4/3 + 4/4 + 4/5
p351
asg9
V2015-11-05 08:49:28
p352
sS'part1_incorrect_attempt'
p353
(lp354
(S'0:00:00'
p355
V4/5
p356
tp357
assVquwong
p358
(dp359
S'part1_correct_attempt'
p360
(lp361
S'4 days, 19:20:44'
p362
aV5(1 + 1/2 + 1/3 + 1/4 + 1/5)
p363
asg9
V2015-10-30 01:45:05
p364
sS'part1_incorrect_attempt'
p365
(lp366
(S'0:00:00'
p367
V2.2833
p368
tp369
assVlguintu
p370
(dp371
S'part1_correct_attempt'
p372
(lp373
S'0:00:22'
p374
aV(3+3/2+3/3+3/4+3/5)
p375
asg9
V2015-11-03 04:48:21
p376
sS'part1_incorrect_attempt'
p377
(lp378
(S'0:00:00'
p379
V3+3/2+3/3+3/5+3/4+3/6
p380
tp381
assVc1sorian
p382
(dp383
S'part1_correct_attempt'
p384
(lp385
S'0:14:24'
p386
aV((3/1)+(3/2)+(3/3)+(3/4)+(3/5))
p387
asg9
V2015-11-05 00:24:33
p388
sS'part1_incorrect_attempt'
p389
(lp390
(S'0:00:00'
p391
V(3*(1+.5+(1/3)+.25+.2))/5
p392
tp393
a(S'0:00:31'
p394
V(3+1.5+1+.75+.6)/5
p395
tp396
a(S'0:06:18'
p397
V(3+1.5+1+.75+.6)/5
p398
tp399
a(S'0:12:14'
p400
V((3/1)+(3/2)+(3/3)+(3/4)+(3/5))/5
p401
tp402
assVasp025
p403
(dp404
S'part1_correct_attempt'
p405
(lp406
S'2 days, 23:36:04'
p407
aV(2)+(1)+(2/3)+(2/4)+(2/5)
p408
asg9
V2015-11-03 21:27:22
p409
sS'part1_incorrect_attempt'
p410
(lp411
(S'0:00:00'
p412
V2/5
p413
tp414
a(S'0:00:00'
p415
V4.56
p416
tp417
assVkrau
p418
(dp419
S'part1_correct_attempt'
p420
(lp421
S'6:35:23'
p422
aV1+1/2+1/3+1/4+1/5
p423
asg9
V2015-11-04 20:33:16
p424
sS'part1_incorrect_attempt'
p425
(lp426
(S'0:00:00'
p427
V(1/1+1/2+1/3+1/4+1/5) / 5
p428
tp429
a(S'0:00:00'
p430
V8/1+8/4+8/9+8/16+8/25
p431
tp432
assVkthui
p433
(dp434
S'part1_correct_attempt'
p435
(lp436
S'0:03:28'
p437
aV4+2+4/3+1+4/5
p438
asg9
V2015-11-06 07:49:41
p439
sS'part1_incorrect_attempt'
p440
(lp441
(S'0:00:00'
p442
V(4+2+4/3+1+4/5)/5
p443
tp444
assVpsable
p445
(dp446
S'part1_correct_attempt'
p447
(lp448
S'0:03:19'
p449
aV137/60
p450
asg9
V2015-11-06 00:20:20
p451
sS'part1_incorrect_attempt'
p452
(lp453
(S'0:00:00'
p454
V137/300
p455
tp456
assVdwzhang
p457
(dp458
S'part1_correct_attempt'
p459
(lp460
S'0:00:12'
p461
aV3/1 + 3/2 + 3/3 + 3/4 + 3/5
p462
asg9
V2015-11-04 20:59:32
p463
sS'part1_incorrect_attempt'
p464
(lp465
(S'0:00:00'
p466
V(3 + 3/2 + 1 + 3/4 + 3/5)/5
p467
tp468
assVrraiyyan
p469
(dp470
S'part1_correct_attempt'
p471
(lp472
S'0:11:10'
p473
aV5*(1+1/2+1/3+1/4+1/5)
p474
asg9
V2015-11-06 23:09:50
p475
sS'part1_incorrect_attempt'
p476
(lp477
(S'0:00:00'
p478
V1/5
p479
tp480
a(S'0:00:00'
p481
V1/25+2/25+3/25+4/25+1/5
p482
tp483
a(S'0:00:36'
p484
V1+1/2+1/3+1/4+1/5
p485
tp486
a(S'0:01:07'
p487
V1+2*1/2+3*1/3+4*1/4+5*1/5
p488
tp489
a(S'0:01:50'
p490
V(1+1/2+1/3+1/4+1/5) / 5
p491
tp492
a(S'0:02:01'
p493
V1+1/2+1/3+1/4+1/5
p494
tp495
a(S'0:03:40'
p496
V1/2+1/4+1/9+1/16+1/25
p497
tp498
a(S'0:05:41'
p499
V(1+1/2+1/3+1/4+1/5)/5
p500
tp501
assVr1gu
p502
(dp503
S'part1_correct_attempt'
p504
(lp505
S'0:04:31'
p506
aV5+5/2+5/4+5/3+1
p507
asg9
V2015-11-05 12:06:08
p508
sS'part1_incorrect_attempt'
p509
(lp510
(S'0:00:00'
p511
V9/25
p512
tp513
assVt1tran
p514
(dp515
S'part1_correct_attempt'
p516
(lp517
S'0:11:24'
p518
aV(4/1+4/2+4/3+4/4+4/5)
p519
asg9
V2015-11-03 18:03:30
p520
sS'part1_incorrect_attempt'
p521
(lp522
(S'0:00:00'
p523
V(4/1+4/2+4/3+4/4+4/5)/5
p524
tp525
a(S'0:07:09'
p526
V4/5
p527
tp528
assVdsmonaha
p529
(dp530
S'part1_correct_attempt'
p531
(lp532
S'0:00:43'
p533
aV137/12
p534
asg9
V2015-11-02 17:22:58
p535
sS'part1_incorrect_attempt'
p536
(lp537
(S'0:00:00'
p538
V137/60
p539
tp540
assVcprafull
p541
(dp542
S'part1_correct_attempt'
p543
(lp544
S'0:02:34'
p545
aV5 + 5/2 + 5/3 + 5/4 + 1
p546
asg9
V2015-11-05 08:46:01
p547
sS'part1_incorrect_attempt'
p548
(lp549
(S'0:00:00'
p550
V(5 + 5/2 + 5/3 + 5/4 + 1)/5
p551
tp552
a(S'0:00:45'
p553
V(1 + 2 + 3 + 4 + 5)/5
p554
tp555
assVakg009
p556
(dp557
S'part1_correct_attempt'
p558
(lp559
S'0:01:31'
p560
aV(1+1/2+1/3+1/4+1/5)
p561
asg9
V2015-11-06 20:59:25
p562
sS'part1_incorrect_attempt'
p563
(lp564
(S'0:00:00'
p565
V(1+1/2+1/3+1/4+1/5)/5
p566
tp567
assVmuy002
p568
(dp569
S'part1_correct_attempt'
p570
(lp571
S'0:01:34'
p572
aV(4+4/2+4/3+4/4+4/5)
p573
asg9
V2015-11-06 00:09:19
p574
sS'part1_incorrect_attempt'
p575
(lp576
(S'0:00:00'
p577
V(4+4/2+4/3+4/4+4/5)/5
p578
tp579
assVjtfrankl
p580
(dp581
S'part1_correct_attempt'
p582
(lp583
S'0:05:40'
p584
aV(1+.5+1/3+1/4+.2)
p585
asg9
V2015-11-06 18:35:12
p586
sS'part1_incorrect_attempt'
p587
(lp588
(S'0:00:00'
p589
V(1+.5+1/3+1/4+.2)/5
p590
tp591
assVdan029
p592
(dp593
S'part1_correct_attempt'
p594
(lp595
S'0:00:19'
p596
aV137/60
p597
asg9
V2015-11-05 09:09:40
p598
sS'part1_incorrect_attempt'
p599
(lp600
(S'0:00:00'
p601
V77/60/5
p602
tp603
a(S'0:00:13'
p604
V137/60/5
p605
tp606
assVrbdoming
p607
(dp608
S'part1_correct_attempt'
p609
(lp610
S'0:01:00'
p611
aV(5 + 5/2 + 5/3 +5/4 +1)
p612
asg9
V2015-11-05 19:02:04
p613
sS'part1_incorrect_attempt'
p614
(lp615
(S'0:00:00'
p616
V25/15
p617
tp618
a(S'0:00:44'
p619
V(5 + 5/2 + 5/3 +5/4 +1)/5
p620
tp621
assVralhadda
p622
(dp623
S'part1_correct_attempt'
p624
(lp625
S'0:02:50'
p626
aV2.283333
p627
asg9
V2015-10-31 20:32:11
p628
sS'part1_incorrect_attempt'
p629
(lp630
(S'0:00:00'
p631
V1/5
p632
tp633
a(S'0:01:39'
p634
V1/5
p635
tp636
a(S'0:01:55'
p637
V10/25
p638
tp639
assVyjshin
p640
(dp641
S'part1_correct_attempt'
p642
(lp643
S'0:00:29'
p644
aV4/5+4/4+4/3+4/2+4/1
p645
asg9
V2015-11-06 23:12:25
p646
sS'part1_incorrect_attempt'
p647
(lp648
(S'0:00:00'
p649
V4/5
p650
tp651
assVbkoli
p652
(dp653
S'part1_correct_attempt'
p654
(lp655
S'0:03:48'
p656
aV(2/1+2/2+2/3+2/4+2/5)
p657
asg9
V2015-11-05 22:43:04
p658
sS'part1_incorrect_attempt'
p659
(lp660
(S'0:00:00'
p661
V(2/1+2/2+2/3+2/4+2/5)/5
p662
tp663
assVhsc052
p664
(dp665
S'part1_correct_attempt'
p666
(lp667
S'0:00:18'
p668
aV1/1+1/2+1/3+1/4+1/5
p669
asg9
V2015-11-05 09:16:09
p670
sS'part1_incorrect_attempt'
p671
(lp672
(S'0:00:00'
p673
V49/20
p674
tp675
assVxil109
p676
(dp677
S'part1_correct_attempt'
p678
(lp679
S'0:24:05'
p680
aV2+1+2/3+2/4+2/5
p681
asg9
V2015-11-05 03:36:35
p682
sS'part1_incorrect_attempt'
p683
(lp684
(S'0:00:00'
p685
V0.2
p686
tp687
a(S'0:00:16'
p688
V0.4
p689
tp690
a(S'0:00:52'
p691
V0.08
p692
tp693
assVv3doan
p694
(dp695
S'part1_correct_attempt'
p696
(lp697
S'1 day, 18:58:49'
p698
aV( 1 + 1/2 + 1/3 + 1/4 + 1/5)
p699
asg9
V2015-11-05 05:29:24
p700
sS'part1_incorrect_attempt'
p701
(lp702
(S'0:00:00'
p703
V( 1 + 1/2 + 1/3 + 1/4 + 1/5) / 5
p704
tp705
a(S'0:00:26'
p706
V1/5
p707
tp708
a(S'0:00:00'
p709
V( 1 + 1/2 + 1/3 + 1/4 + 1/5) / 5
p710
tp711
assVyil035
p712
(dp713
S'part1_correct_attempt'
p714
(lp715
S'0:00:33'
p716
aV1.82666667*5
p717
asg9
V2015-11-04 00:43:02
p718
sS'part1_incorrect_attempt'
p719
(lp720
(S'0:00:00'
p721
V1.82666667
p722
tp723
assVwmiao
p724
(dp725
S'part1_correct_attempt'
p726
(lp727
S'0:00:14'
p728
aV(1/1+1/2+1/3+1/4+1/5)
p729
asg9
V2015-11-04 20:26:55
p730
sS'part1_incorrect_attempt'
p731
(lp732
(S'0:00:00'
p733
V(1/1+1/2+1/3+1/4+1/5)/5
p734
tp735
assVk3tan
p736
(dp737
S'part1_correct_attempt'
p738
(lp739
S'0:00:26'
p740
aV(7+(4/3)+(4/5))
p741
asg9
V2015-11-04 01:49:32
p742
sS'part1_incorrect_attempt'
p743
(lp744
(S'0:00:00'
p745
V(7+(4/3)+(4/5))/5
p746
tp747
assVlywong
p748
(dp749
S'part1_correct_attempt'
p750
(lp751
S'0:01:48'
p752
aV3+(2/3)+(1/2)+(2/5)
p753
asg9
V2015-11-04 07:22:57
p754
sS'part1_incorrect_attempt'
p755
(lp756
(S'0:00:00'
p757
V2/5
p758
tp759
assVhkhodada
p760
(dp761
S'part1_correct_attempt'
p762
(lp763
S'2 days, 7:43:17'
p764
aV4+4/2+4/3+4/4+4/5
p765
asg9
V2015-10-31 16:49:04
p766
sS'part1_incorrect_attempt'
p767
(lp768
(S'0:00:00'
p769
V5269/360
p770
tp771
a(S'0:08:00'
p772
V5269/360
p773
tp774
a(S'3:26:56'
p775
V121/15
p776
tp777
assVabasu
p778
(dp779
S'part1_correct_attempt'
p780
(lp781
S'0:01:11'
p782
aV6.85
p783
asg9
V2015-11-05 02:55:33
p784
sS'part1_incorrect_attempt'
p785
(lp786
(S'0:00:00'
p787
V1.37
p788
tp789
a(S'0:00:09'
p790
V6.35
p791
tp792
assVd6he
p793
(dp794
S'part1_correct_attempt'
p795
(lp796
S'4:22:44'
p797
aV3/1+3/2+1+3/4+3/5
p798
asg9
V2015-11-05 02:13:09
p799
sS'part1_incorrect_attempt'
p800
(lp801
(S'0:00:00'
p802
V1.37
p803
tp804
assVawollner
p805
(dp806
S'part1_correct_attempt'
p807
(lp808
S'0:00:51'
p809
aV2+1+2/3+1/2+ 2/5
p810
asg9
V2015-11-06 23:29:48
p811
sS'part1_incorrect_attempt'
p812
(lp813
(S'0:00:00'
p814
V10/15
p815
tp816
assVdcrume
p817
(dp818
S'part1_correct_attempt'
p819
(lp820
S'0:00:41'
p821
aV3/1 + 3/2 + 3/3 +3/4 + 3/5
p822
asg9
V2015-11-06 20:29:43
p823
sS'part1_incorrect_attempt'
p824
(lp825
(S'0:00:00'
p826
V3/5
p827
tp828
assVmrchin
p829
(dp830
S'part1_correct_attempt'
p831
(lp832
S'0:00:25'
p833
aV3*(1+(1/2)+(1/3)+(1/4)+(1/5))
p834
asg9
V2015-11-06 19:50:05
p835
sS'part1_incorrect_attempt'
p836
(lp837
(S'0:00:00'
p838
V3*(2/3/4/5/5)
p839
tp840
assVmbl003
p841
(dp842
S'part1_correct_attempt'
p843
(lp844
S'0:04:55'
p845
aV1/1+1/2+1/3+1/4+1/5
p846
asg9
V2015-11-05 20:55:42
p847
sS'part1_incorrect_attempt'
p848
(lp849
(S'0:00:00'
p850
V1/5
p851
tp852
a(S'0:00:45'
p853
V7/1+7/4+7/9+7/16+7/25
p854
tp855
a(S'0:01:02'
p856
V7/1+7/4+7/9+7/16+7/25
p857
tp858
a(S'0:01:26'
p859
V7/1+7/4+7/9+7/16+7/25
p860
tp861
a(S'0:01:32'
p862
V7/1+7/4+7/9+7/16+7/25
p863
tp864
a(S'0:01:51'
p865
V7/1+7/4+7/9+7/16+7/25
p866
tp867
a(S'0:02:05'
p868
V7/1+7/4+7/9+7/16+7/25
p869
tp870
assVjfalcone
p871
(dp872
S'part1_correct_attempt'
p873
(lp874
S'0:01:47'
p875
aV1 + (1/2) + (1/3) + (1/4) + (1/5)
p876
asg9
V2015-11-05 05:27:40
p877
sS'part1_incorrect_attempt'
p878
(lp879
(S'0:00:00'
p880
V1/5
p881
tp882
a(S'0:00:29'
p883
V[1 + (1/2) + (1/3) + (1/4) + (1/5)]/5
p884
tp885
assVjeqin
p886
(dp887
S'part1_correct_attempt'
p888
(lp889
S'0:00:10'
p890
aV(1 + 1/2 + 1/3 + 1/4 + 1/5)
p891
asg9
V2015-11-05 10:00:34
p892
sS'part1_incorrect_attempt'
p893
(lp894
(S'0:00:00'
p895
V(1 + 1/2 + 1/3 + 1/4 + 1/5)/5
p896
tp897
assVjnatale
p898
(dp899
S'part1_correct_attempt'
p900
(lp901
S'0:10:13'
p902
aV2*(1/1 + 1/2 + 1/3 + 1/4 + 1/5)
p903
asg9
V2015-11-04 08:33:21
p904
sS'part1_incorrect_attempt'
p905
(lp906
(S'0:00:00'
p907
V2/5
p908
tp909
a(S'0:03:32'
p910
V2/1 + 2/2 + 2/3 + 2/3 + 2/4 + 2/5
p911
tp912
assVnnh002
p913
(dp914
S'part1_correct_attempt'
p915
(lp916
S'0:23:15'
p917
aV(2+1+.5+(2/3)+(2/5))
p918
asg9
V2015-11-05 04:31:46
p919
sS'part1_incorrect_attempt'
p920
(lp921
(S'0:00:00'
p922
V2/5
p923
tp924
a(S'0:02:34'
p925
V(2+1+.5+(2/3)+(2/5))/5
p926
tp927
assVbeerye28
p928
(dp929
S'part1_correct_attempt'
p930
(lp931
S'0:02:16'
p932
aV3 * ((1) + (1/2) + (1/3) + (1/4) + (1/5))
p933
asg9
V2015-11-03 06:30:37
p934
sS'part1_incorrect_attempt'
p935
(lp936
(S'0:00:00'
p937
V(3 + (3/2) + 1 + (3/4) + (3/5))/5
p938
tp939
assVagian
p940
(dp941
S'part1_correct_attempt'
p942
(lp943
S'0:01:11'
p944
aV(1+1/2+1/3+1/4+1/5)*2
p945
asg9
V2015-11-07 00:22:35
p946
sS'part1_incorrect_attempt'
p947
(lp948
(S'0:00:00'
p949
V(1+1/2+1/3+1/4+1/5)*1
p950
tp951
a(S'0:01:02'
p952
V(1+1/2+1/3+1/4+1/5)*7
p953
tp954
a(S'0:01:07'
p955
V(1+1/2+1/3+1/4+1/5)*72
p956
tp957
assVaakumar
p958
(dp959
S'part1_correct_attempt'
p960
(lp961
S'0:01:48'
p962
aV2+1+2/3+2/4+2/5
p963
asg9
V2015-11-05 03:06:10
p964
sS'part1_incorrect_attempt'
p965
(lp966
(S'0:00:00'
p967
V3+37/30
p968
tp969
assVkew017
p970
(dp971
S'part1_correct_attempt'
p972
(lp973
S'0:04:43'
p974
aV4+2+4/3+1+4/5
p975
asg9
V2015-11-05 22:44:19
p976
sS'part1_incorrect_attempt'
p977
(lp978
(S'0:00:00'
p979
V4/5
p980
tp981
assVyeh013
p982
(dp983
S'part1_correct_attempt'
p984
(lp985
S'20:06:00'
p986
aV137/15
p987
asg9
V2015-11-04 07:25:53
p988
sS'part1_incorrect_attempt'
p989
(lp990
(S'0:00:00'
p991
V284/150
p992
tp993
a(S'0:03:56'
p994
V4/15
p995
tp996
assVdtea
p997
(dp998
S'part1_correct_attempt'
p999
(lp1000
S'0:00:52'
p1001
aV(4/1+4/2+4/3+4/4+4/5)
p1002
asg9
V2015-11-07 00:17:45
p1003
sS'part1_incorrect_attempt'
p1004
(lp1005
(S'0:00:00'
p1006
V(4/1+4/2+4/3+4/4+4/5)/5
p1007
tp1008
assVksrijong
p1009
(dp1010
S'part1_correct_attempt'
p1011
(lp1012
S'0:00:50'
p1013
aV4+2+4/3+1+4/5
p1014
asg9
V2015-11-04 23:09:16
p1015
sS'part1_incorrect_attempt'
p1016
(lp1017
(S'0:00:00'
p1018
V(4/5)(4/6)/(2)
p1019
tp1020
assVazkong
p1021
(dp1022
S'part1_correct_attempt'
p1023
(lp1024
S'2:04:23'
p1025
aV5+5/2+5/3+5/4+5/5
p1026
asg9
V2015-11-06 20:04:08
p1027
sS'part1_incorrect_attempt'
p1028
(lp1029
(S'0:00:00'
p1030
V6+6/4+6/9+6/16+6/25
p1031
tp1032
a(S'0:00:38'
p1033
V6+6/4+6/9+6/16+6/25
p1034
tp1035
a(S'0:00:00'
p1036
V6+6/4+6/9+6/16+6/25
p1037
tp1038
a(S'0:00:31'
p1039
V6+6/4+6/9+6/16+6/25
p1040
tp1041
a(S'0:00:45'
p1042
V6+6/4+6/9+6/16+6/25
p1043
tp1044
a(S'0:03:30'
p1045
V1+1/2+1/3+1/4+1/5
p1046
tp1047
assVyhhan
p1048
(dp1049
S'part1_correct_attempt'
p1050
(lp1051
S'0:01:20'
p1052
aV5+5/2+5/3+5/4+1
p1053
asg9
V2015-11-06 23:48:50
p1054
sS'part1_incorrect_attempt'
p1055
(lp1056
(S'0:00:00'
p1057
V(5+5/2+5/3+5/4+1)/5
p1058
tp1059
assVvolim
p1060
(dp1061
S'part1_correct_attempt'
p1062
(lp1063
S'0:00:14'
p1064
aV(1+(1/2)+(1/3)+(1/4)+(1/5))
p1065
asg9
V2015-11-04 23:23:54
p1066
sS'part1_incorrect_attempt'
p1067
(lp1068
(S'0:00:00'
p1069
V(1+(1/2)+(1/3)+(1/4)+(1/5))/5
p1070
tp1071
assVaurodrig
p1072
(dp1073
S'part1_correct_attempt'
p1074
(lp1075
S'0:14:12'
p1076
aV1 + 1/2+1/3+1/4+1/5
p1077
asg9
V2015-11-06 22:55:26
p1078
sS'part1_incorrect_attempt'
p1079
(lp1080
(S'0:00:00'
p1081
V(1+1/2+1/3+1/4+1/5)/5
p1082
tp1083
a(S'0:00:00'
p1084
V1/5
p1085
tp1086
assVcagatep
p1087
(dp1088
S'part1_correct_attempt'
p1089
(lp1090
S'0:00:26'
p1091
aV(1 + 1/2 + 1/3 + 1/4 + 1/5)
p1092
asg9
V2015-11-05 07:30:04
p1093
sS'part1_incorrect_attempt'
p1094
(lp1095
(S'0:00:00'
p1096
V(1 + 1/2 + 1/3 + 1/4 + 1/5)/5
p1097
tp1098
assVskarimik
p1099
(dp1100
S'part1_correct_attempt'
p1101
(lp1102
S'0:07:01'
p1103
aV5+5/2+5/3+5/4+1
p1104
asg9
V2015-11-01 18:23:56
p1105
sS'part1_incorrect_attempt'
p1106
(lp1107
(S'0:00:00'
p1108
V7+7/4+7/9+7/16+7/25
p1109
tp1110
a(S'0:01:16'
p1111
V7+7/4+7/9+7/16+7/25
p1112
tp1113
a(S'0:03:14'
p1114
V7+7/4+7/9+7/16+7/25
p1115
tp1116
a(S'0:03:29'
p1117
V7+7/4+7/9+7/16+7/25
p1118
tp1119
assVdmn009
p1120
(dp1121
S'part1_correct_attempt'
p1122
(lp1123
S'0:00:56'
p1124
aV9.133333
p1125
asg9
V2015-11-05 03:32:21
p1126
sS'part1_incorrect_attempt'
p1127
(lp1128
(S'0:00:00'
p1129
V1.13333
p1130
tp1131
assVkquong
p1132
(dp1133
S'part1_correct_attempt'
p1134
(lp1135
S'0:23:20'
p1136
aV(4 + 2 + 4/3 + 1 + 4/5)
p1137
asg9
V2015-11-02 04:52:54
p1138
sS'part1_incorrect_attempt'
p1139
(lp1140
(S'0:00:00'
p1141
V(4 + 2 + 4/3 + 1 + 4/5)/5
p1142
tp1143
a(S'0:01:18'
p1144
V4/5
p1145
tp1146
a(S'0:23:10'
p1147
V(4 + 2 + 4/3 + 1 + 4/5)/5
p1148
tp1149
assVagoldsht
p1150
(dp1151
S'part1_correct_attempt'
p1152
(lp1153
S'0:06:13'
p1154
aV(1/1+1/2+1/3+1/4+1/5)
p1155
asg9
V2015-11-04 19:46:32
p1156
sS'part1_incorrect_attempt'
p1157
(lp1158
(S'0:00:00'
p1159
V1/5
p1160
tp1161
assVrohan
p1162
(dp1163
S'part1_correct_attempt'
p1164
(lp1165
S'0:01:42'
p1166
aV3+3/2+3/3+3/4+3/5
p1167
asg9
V2015-11-07 00:03:46
p1168
sS'part1_incorrect_attempt'
p1169
(lp1170
(S'0:00:00'
p1171
V3/5
p1172
tp1173
a(S'0:00:36'
p1174
V45/5
p1175
tp1176
assVspw006
p1177
(dp1178
S'part1_correct_attempt'
p1179
(lp1180
S'0:01:41'
p1181
aV(5 + 5/2 + 5/3 + 5/4 + 1)
p1182
asg9
V2015-11-04 02:40:13
p1183
sS'part1_incorrect_attempt'
p1184
(lp1185
(S'0:00:00'
p1186
V5 + 4 + 3 + 2 + 1
p1187
tp1188
a(S'0:00:09'
p1189
V(5 + 4 + 3 + 2 + 1)/5
p1190
tp1191
a(S'0:01:17'
p1192
V(5 + 5/2 + 5/3 + 5/2 + 1)/5
p1193
tp1194
a(S'0:01:22'
p1195
V(5 + 5/2 + 5/3 + 5/2 + 1)
p1196
tp1197
assVmasaro
p1198
(dp1199
S'part1_correct_attempt'
p1200
(lp1201
S'21:41:15'
p1202
aV1+1/2+1/3+1/4+1/5
p1203
asg9
V2015-11-03 23:08:39
p1204
sS'part1_incorrect_attempt'
p1205
(lp1206
(S'0:00:00'
p1207
V2.8333
p1208
tp1209
a(S'0:06:14'
p1210
V2.8333/5
p1211
tp1212
a(S'0:00:00'
p1213
V6/1+6/4+6/9+6/16+6/25
p1214
tp1215
a(S'0:02:23'
p1216
V(1+1/2+1/3+1/4+1/5)/5
p1217
tp1218
a(S'0:00:00'
p1219
V(1+1/2+1/3+1/4+1/5)*1/5
p1220
tp1221
a(S'0:00:00'
p1222
V(15)/5
p1223
tp1224
assVrwthomps
p1225
(dp1226
S'part1_correct_attempt'
p1227
(lp1228
S'0:00:12'
p1229
aV(5/1 + 5/2 + 5/3 + 5/4 + 5/5)
p1230
asg9
V2015-11-06 21:36:09
p1231
sS'part1_incorrect_attempt'
p1232
(lp1233
(S'0:00:00'
p1234
V(5/1 + 5/2 + 5/3 + 5/4 + 5/5)/5
p1235
tp1236
assVpcdo
p1237
(dp1238
S'part1_correct_attempt'
p1239
(lp1240
S'0:00:43'
p1241
aV3*(1+1/2+1/3+1/4+1/5)
p1242
asg9
V2015-11-02 18:48:58
p1243
sS'part1_incorrect_attempt'
p1244
(lp1245
(S'0:00:00'
p1246
V(1+1/2+1/3+1/4+1/5)
p1247
tp1248
assVvsosnovs
p1249
(dp1250
g9
V2015-11-05 21:15:09
p1251
sS'part1_incorrect_attempt'
p1252
(lp1253
(S'0:00:00'
p1254
V(1+2+3+4+5)/5
p1255
tp1256
a(S'0:00:00'
p1257
V.5
p1258
tp1259
a(S'0:00:00'
p1260
V2.5
p1261
tp1262
a(S'0:00:00'
p1263
V(1+.5+1/3+1/4+1/5)/5
p1264
tp1265
assVk5law
p1266
(dp1267
S'part1_correct_attempt'
p1268
(lp1269
S'0:00:22'
p1270
aV[(5/1)+(5/2)+(5/3)+(5/4)+(5/5)]
p1271
asg9
V2015-11-04 07:58:48
p1272
sS'part1_incorrect_attempt'
p1273
(lp1274
(S'0:00:00'
p1275
V[(5/1)+(5/2)+(5/3)+(5/4)+(5/5)]/5
p1276
tp1277
assVp4kumar
p1278
(dp1279
S'part1_correct_attempt'
p1280
(lp1281
S'0:00:07'
p1282
aV(3/1 + 3/2 + 3/3 + 3/4 + 3/5)
p1283
asg9
V2015-11-06 00:06:16
p1284
sS'part1_incorrect_attempt'
p1285
(lp1286
(S'0:00:00'
p1287
V(3/1 + 3/2 + 3/3 + 3/4 + 3/5)/5
p1288
tp1289
assVjmiclat
p1290
(dp1291
S'part1_correct_attempt'
p1292
(lp1293
S'0:28:19'
p1294
aV2/1+2/2+2/3+2/4+2/5
p1295
asg9
V2015-11-06 09:01:17
p1296
sS'part1_incorrect_attempt'
p1297
(lp1298
(S'0:00:00'
p1299
V2/5
p1300
tp1301
assVsyc078
p1302
(dp1303
S'part1_correct_attempt'
p1304
(lp1305
S'1:05:37'
p1306
aV1+(1/2)+(1/3)+(1/4)+(1/5)
p1307
asg9
V2015-11-05 03:29:15
p1308
sS'part1_incorrect_attempt'
p1309
(lp1310
(S'0:00:00'
p1311
V1/5
p1312
tp1313
a(S'0:00:00'
p1314
V1+2+3+4+5
p1315
tp1316
assVcfgutier
p1317
(dp1318
S'part1_correct_attempt'
p1319
(lp1320
S'0:00:24'
p1321
aV137/15
p1322
asg9
V2015-11-06 18:22:54
p1323
sS'part1_incorrect_attempt'
p1324
(lp1325
(S'0:00:00'
p1326
V137/75
p1327
tp1328
assVpnquach
p1329
(dp1330
S'part1_correct_attempt'
p1331
(lp1332
S'0:01:10'
p1333
aV1.5 + 1/3 + 1/4 + 1/5
p1334
asg9
V2015-11-06 05:40:27
p1335
sS'part1_incorrect_attempt'
p1336
(lp1337
(S'0:00:00'
p1338
V(1.5 + 1/3 + 1/4 + 1/5)/5
p1339
tp1340
assVagarango
p1341
(dp1342
S'part1_correct_attempt'
p1343
(lp1344
S'0:01:42'
p1345
aV(1/1)+(1/2)+(1/3)+(1/4)+(1/5)
p1346
asg9
V2015-11-05 23:53:43
p1347
sS'part1_incorrect_attempt'
p1348
(lp1349
(S'0:00:00'
p1350
V1/5
p1351
tp1352
a(S'0:00:31'
p1353
V3/5
p1354
tp1355
assVs6deng
p1356
(dp1357
S'part1_correct_attempt'
p1358
(lp1359
S'0:01:14'
p1360
aV(3/1)+(3/2)+(3/3)+(3/4)+(3/5)
p1361
asg9
V2015-11-05 07:24:12
p1362
sS'part1_incorrect_attempt'
p1363
(lp1364
(S'0:00:00'
p1365
V3/15
p1366
tp1367
a(S'0:01:08'
p1368
V(3/1)+(3/1)+(3/3)+(3/4)+(3/5)
p1369
tp1370
assVachinn
p1371
(dp1372
S'part1_correct_attempt'
p1373
(lp1374
S'0:01:10'
p1375
aV(7+(4/3)+(4/5))
p1376
asg9
V2015-11-03 21:20:02
p1377
sS'part1_incorrect_attempt'
p1378
(lp1379
(S'0:00:00'
p1380
V(7+(4/3)+(4/5))/5
p1381
tp1382
assVjcl084
p1383
(dp1384
S'part1_correct_attempt'
p1385
(lp1386
S'0:58:38'
p1387
aV4*(1+1/2+1/3+1/4+1/5)
p1388
asg9
V2015-11-02 19:41:43
p1389
sS'part1_incorrect_attempt'
p1390
(lp1391
(S'0:00:00'
p1392
V4/5
p1393
tp1394
a(S'0:01:52'
p1395
V(4/1 + 4/2 + 4/3 +4/4 + 4/5)/5
p1396
tp1397
assVaalhaida
p1398
(dp1399
S'part1_correct_attempt'
p1400
(lp1401
S'0:00:15'
p1402
aV3/1 + 3/2 + 3/3 + 3/4 + 3/5
p1403
asg9
V2015-11-05 23:43:21
p1404
sS'part1_incorrect_attempt'
p1405
(lp1406
(S'0:00:00'
p1407
V3/1 + 3/2 + 3/4 + 3/5
p1408
tp1409
assVjdeon
p1410
(dp1411
S'part1_correct_attempt'
p1412
(lp1413
S'0:00:12'
p1414
aV(1+1/2+1/3+1/4+1/5)
p1415
asg9
V2015-11-04 23:19:51
p1416
sS'part1_incorrect_attempt'
p1417
(lp1418
(S'0:00:00'
p1419
V(1+1/2+1/3+1/4+1/5)/5
p1420
tp1421
assVb1yao
p1422
(dp1423
S'part1_correct_attempt'
p1424
(lp1425
S'1 day, 11:05:59'
p1426
aV(3+3/2+3/3+3/4+3/5)
p1427
asg9
V2015-11-03 08:08:42
p1428
sS'part1_incorrect_attempt'
p1429
(lp1430
(S'0:00:00'
p1431
V(1+1/2+1/3+1/4+1/5)*3/5
p1432
tp1433
a(S'0:01:01'
p1434
V(3+3/2+3/3+3/4+3/5)/5
p1435
tp1436
assVajabasa
p1437
(dp1438
S'part1_correct_attempt'
p1439
(lp1440
S'0:03:08'
p1441
aV(1/1+1/2+1/3+1/4+1/5)
p1442
asg9
V2015-11-05 21:44:30
p1443
sS'part1_incorrect_attempt'
p1444
(lp1445
(S'0:00:00'
p1446
V(1/1+1/2+1/3+1/4+1/5)/5
p1447
tp1448
assVmcatozzi
p1449
(dp1450
S'part1_correct_attempt'
p1451
(lp1452
S'0:02:10'
p1453
aV(2+1+(2/3)+(2/4)+(2/5))
p1454
asg9
V2015-11-03 19:28:10
p1455
sS'part1_incorrect_attempt'
p1456
(lp1457
(S'0:00:00'
p1458
V(2+1+(2/3)+(2/4)+(2/5))/5
p1459
tp1460
a(S'0:00:26'
p1461
V2/5
p1462
tp1463
a(S'0:00:42'
p1464
V(2+1+(2/3)+(2/4)+(2/5))/5
p1465
tp1466
a(S'0:01:42'
p1467
V(2+1+(2/3)+(2/4)+(2/5))/15
p1468
tp1469
assVhmshah
p1470
(dp1471
S'part1_correct_attempt'
p1472
(lp1473
S'0:00:42'
p1474
aV2 + 1 + 2/3 + 2/4 + 2/5
p1475
asg9
V2015-11-05 09:40:18
p1476
sS'part1_incorrect_attempt'
p1477
(lp1478
(S'0:00:00'
p1479
V6/25
p1480
tp1481
assVhaliew
p1482
(dp1483
S'part1_correct_attempt'
p1484
(lp1485
S'1:13:45'
p1486
aV(2/1)+(2/2)+(2/3)+(2/4)+(2/5)
p1487
asg9
V2015-11-06 23:08:56
p1488
sS'part1_incorrect_attempt'
p1489
(lp1490
(S'0:00:00'
p1491
V((2/1)+(2/2)+(2/3)+(2/4)+(2/5))/5
p1492
tp1493
assVsthapa
p1494
(dp1495
S'part1_correct_attempt'
p1496
(lp1497
S'0:00:28'
p1498
aV(1+1/2+1/3+1/4+1/5)*3
p1499
asg9
V2015-11-06 23:59:10
p1500
sS'part1_incorrect_attempt'
p1501
(lp1502
(S'0:00:00'
p1503
V(1+1/2+1/3+1/4+1/5)*1
p1504
tp1505
assVedcole
p1506
(dp1507
S'part1_correct_attempt'
p1508
(lp1509
S'0:05:35'
p1510
aV3+(3/2)+3/3+3/4+3/5
p1511
asg9
V2015-11-06 23:34:39
p1512
sS'part1_incorrect_attempt'
p1513
(lp1514
(S'0:00:00'
p1515
V3/5
p1516
tp1517
a(S'0:00:18'
p1518
V3/(1+2+3+4+5)
p1519
tp1520
a(S'0:00:39'
p1521
V15/(1+2+3+4+5)
p1522
tp1523
a(S'0:01:20'
p1524
V1+(3/2)+3/3+3/4+3/5
p1525
tp1526
assVaordookh
p1527
(dp1528
S'part1_correct_attempt'
p1529
(lp1530
S'0:06:41'
p1531
aV(4/1)+(4/2)+(4/3)+(4/4)+(4/5)
p1532
asg9
V2015-11-04 22:07:09
p1533
sS'part1_incorrect_attempt'
p1534
(lp1535
(S'0:00:00'
p1536
V4/5
p1537
tp1538
a(S'0:05:36'
p1539
V(4/1)+(4/2)+(4/3)+(4/4)+(5/4)
p1540
tp1541
assVyig015
p1542
(dp1543
S'part1_correct_attempt'
p1544
(lp1545
S'0:00:35'
p1546
aV6.85
p1547
asg9
V2015-11-05 10:40:36
p1548
sS'part1_incorrect_attempt'
p1549
(lp1550
(S'0:00:00'
p1551
V1.37
p1552
tp1553
assVxweng
p1554
(dp1555
S'part1_correct_attempt'
p1556
(lp1557
S'0:00:34'
p1558
aV(11*12+5)/12
p1559
asg9
V2015-11-06 00:07:59
p1560
sS'part1_incorrect_attempt'
p1561
(lp1562
(S'0:00:00'
p1563
V11*5/12
p1564
tp1565
a(S'0:00:00'
p1566
V11*12+5/12
p1567
tp1568
assVyypan
p1569
(dp1570
S'part1_correct_attempt'
p1571
(lp1572
S'0:00:47'
p1573
aV(5/1+5/2+5/3+5/4+5/5)
p1574
asg9
V2015-11-03 00:25:03
p1575
sS'part1_incorrect_attempt'
p1576
(lp1577
(S'0:00:00'
p1578
V(1+2+3+4+5)/5
p1579
tp1580
a(S'0:00:38'
p1581
V(5/1+5/2+5/3+5/4+5/5)/5
p1582
tp1583
assVzig006
p1584
(dp1585
S'part1_correct_attempt'
p1586
(lp1587
S'0:00:42'
p1588
aV137/30
p1589
asg9
V2015-11-01 20:17:01
p1590
sS'part1_incorrect_attempt'
p1591
(lp1592
(S'0:00:00'
p1593
V137/150
p1594
tp1595
assVmtrafeca
p1596
(dp1597
S'part1_correct_attempt'
p1598
(lp1599
S'2 days, 22:30:20'
p1600
aV1+1/2+1/3+1/4+1/5
p1601
asg9
V2015-11-02 01:49:53
p1602
sS'part1_incorrect_attempt'
p1603
(lp1604
(S'0:00:00'
p1605
V6^.5
p1606
tp1607
a(S'0:00:22'
p1608
V1/6
p1609
tp1610
a(S'0:00:30'
p1611
V1/5
p1612
tp1613
a(S'0:05:12'
p1614
V35/7
p1615
tp1616
a(S'0:06:23'
p1617
V(1+1/2+1/3+1/4+1/5)/5
p1618
tp1619
a(S'0:07:07'
p1620
V(1+2+3+4+5)/5
p1621
tp1622
a(S'0:19:13'
p1623
V6/5
p1624
tp1625
a(S'0:19:28'
p1626
V1/5
p1627
tp1628
assVgsrandha
p1629
(dp1630
S'part1_correct_attempt'
p1631
(lp1632
S'0:05:51'
p1633
aV3/1 + 3/2 + 1+ 3/4 + 3/5
p1634
asg9
V2015-11-05 08:03:56
p1635
sS'part1_incorrect_attempt'
p1636
(lp1637
(S'0:00:00'
p1638
V(3 + 1.5 + 1 + .75 + .6)/5
p1639
tp1640
a(S'0:05:15'
p1641
V10/1 + 10/4 + 10/9 + 10/16 + 10/25
p1642
tp1643
assVj2phung
p1644
(dp1645
S'part1_correct_attempt'
p1646
(lp1647
S'0:27:35'
p1648
aV(2/1+2/2+2/3+2/4+2/5)
p1649
asg9
V2015-11-05 08:54:49
p1650
sS'part1_incorrect_attempt'
p1651
(lp1652
(S'0:00:00'
p1653
V2/5
p1654
tp1655
a(S'0:00:47'
p1656
V(2/1+2/2+2/3+2/4+2/5)/5
p1657
tp1658
asssV3
p1659
(dp1660
Vgthorn
p1661
(dp1662
S'part3_correct_attempt'
p1663
(lp1664
S'0:01:31'
p1665
aV3/1-3/2+1-3/4+3/5
p1666
asS'part3_incorrect_attempt'
p1667
(lp1668
(S'0:01:13'
p1669
V2-3/2-3/4+3/5
p1670
tp1671
asg9
V2015-11-05 06:52:54
p1672
ssVh4tu
p1673
(dp1674
S'part3_correct_attempt'
p1675
(lp1676
S'0:01:52'
p1677
aV4-2+4/3-1+4/5
p1678
asS'part3_incorrect_attempt'
p1679
(lp1680
(S'0:01:32'
p1681
V4+2+4/3+1+4/5
p1682
tp1683
asg9
V2015-11-06 23:23:42
p1684
ssVapokhare
p1685
(dp1686
S'part3_correct_attempt'
p1687
(lp1688
S'0:01:37'
p1689
aV(1-1/2+1/3-1/4+1/5)*3
p1690
asS'part3_incorrect_attempt'
p1691
(lp1692
(S'0:00:54'
p1693
V(1-1/4+1/9-1/16+1/25)*3
p1694
tp1695
asg9
V2015-11-05 21:40:12
p1696
ssVagoldsht
p1697
(dp1698
S'part3_correct_attempt'
p1699
(lp1700
S'0:04:16'
p1701
aV(1/1-1/2+1/3-1/4+1/5)
p1702
asS'part3_incorrect_attempt'
p1703
(lp1704
(S'0:03:53'
p1705
V(1/1+1/2+1/3-1/4+1/5)
p1706
tp1707
asg9
V2015-11-04 19:52:45
p1708
ssVctroncos
p1709
(dp1710
S'part3_correct_attempt'
p1711
(lp1712
S'0:01:19'
p1713
aV4*(1-1/2+1/3-1/4+1/5)
p1714
asS'part3_incorrect_attempt'
p1715
(lp1716
(S'0:00:45'
p1717
V8*(1-1/2+1/3-1/4)
p1718
tp1719
asg9
V2015-11-05 16:54:27
p1720
ssVt2shin
p1721
(dp1722
S'part3_correct_attempt'
p1723
(lp1724
S'0:02:03'
p1725
aV4-2+(4/3)-1+(4/5)
p1726
asS'part3_incorrect_attempt'
p1727
(lp1728
(S'0:01:50'
p1729
V4+2+(4/3)+1+(4/5)
p1730
tp1731
asg9
V2015-11-04 05:19:40
p1732
ssVquwong
p1733
(dp1734
S'part3_correct_attempt'
p1735
(lp1736
S'-1 day, 23:57:34'
p1737
aV5(1 - 1/2 + 1/3 - 1/4 + 1/5)
p1738
asS'part3_incorrect_attempt'
p1739
(lp1740
(S'-5 days, 4:39:16'
p1741
V0.78333
p1742
tp1743
asg9
V2015-11-03 21:05:49
p1744
ssVhkhodada
p1745
(dp1746
S'part3_correct_attempt'
p1747
(lp1748
S'0:00:00'
p1749
aV4-4/2+4/3-4/4+4/5
p1750
asS'part3_incorrect_attempt'
p1751
(lp1752
(S'-3 days, 16:24:43'
p1753
V3019/360
p1754
tp1755
asg9
V2015-11-03 00:32:21
p1756
ssVssamudra
p1757
(dp1758
S'part3_correct_attempt'
p1759
(lp1760
S'0:05:12'
p1761
aV1/5 - 1/4 + 1/3 - 1/2 + 1
p1762
asS'part3_incorrect_attempt'
p1763
(lp1764
(S'0:05:00'
p1765
V1/5 + 1/4 + 1/3 + 1/2 + 1
p1766
tp1767
asg9
V2015-11-05 06:16:59
p1768
ssVskarimik
p1769
(dp1770
S'part3_correct_attempt'
p1771
(lp1772
S'0:06:15'
p1773
aV5-5/2+5/3-5/4+1
p1774
asS'part3_incorrect_attempt'
p1775
(lp1776
(S'-1 day, 23:54:15'
p1777
V7-7/4+7/9-7/16+7/25
p1778
tp1779
a(S'-1 day, 23:56:13'
p1780
V7+7/4+7/9+7/16+7/25
p1781
tp1782
a(S'-1 day, 23:56:28'
p1783
V7+7/4+7/9+7/16+7/25
p1784
tp1785
asg9
V2015-11-01 18:30:57
p1786
ssVsachadal
p1787
(dp1788
S'part3_correct_attempt'
p1789
(lp1790
S'0:00:37'
p1791
aV(1/1)-(1/2)+(1/3)-(1/4)+(1/5)
p1792
asS'part3_incorrect_attempt'
p1793
(lp1794
(S'0:00:18'
p1795
V(1/1)+(1/2)+(1/3)+(1/4)+(1/5)
p1796
tp1797
asg9
V2015-11-05 20:07:32
p1798
ssVkrau
p1799
(dp1800
S'part3_correct_attempt'
p1801
(lp1802
S'0:00:22'
p1803
aV1-1/2+1/3-1/4+1/5
p1804
asS'part3_incorrect_attempt'
p1805
(lp1806
(S'-1 day, 17:24:37'
p1807
V(1/1-1/2+1/3-1/4+1/5) / 5
p1808
tp1809
asg9
V2015-11-05 03:08:39
p1810
ssVdcrume
p1811
(dp1812
S'part3_correct_attempt'
p1813
(lp1814
S'0:03:45'
p1815
aV3/1 - 3/2 + 3/3 - 3/4 + 3/5
p1816
asS'part3_incorrect_attempt'
p1817
(lp1818
(S'0:01:52'
p1819
V3/1 - 3/3 + 3/3 - 3/4 + 3/5
p1820
tp1821
asg9
V2015-11-06 20:30:24
p1822
ssValhung
p1823
(dp1824
S'part3_correct_attempt'
p1825
(lp1826
S'0:00:24'
p1827
aV1/1-1/2+1/3-1/4+1/5
p1828
asS'part3_incorrect_attempt'
p1829
(lp1830
(S'0:00:00'
p1831
V1/1-1/2+1/3+1/4+1/5
p1832
tp1833
asg9
V2015-11-06 23:25:00
p1834
ssVmbl003
p1835
(dp1836
S'part3_correct_attempt'
p1837
(lp1838
S'0:00:17'
p1839
aV1/1-1/2+1/3-1/4+1/5
p1840
asS'part3_incorrect_attempt'
p1841
(lp1842
(S'-1 day, 23:56:07'
p1843
V7/1-7/4+7/9-7/16+7/25
p1844
tp1845
a(S'-1 day, 23:56:31'
p1846
V7/1+7/4+7/9+7/16+7/25
p1847
tp1848
a(S'-1 day, 23:56:37'
p1849
V7/1+7/4+7/9+7/16+7/25
p1850
tp1851
a(S'-1 day, 23:56:56'
p1852
V7/1+7/4+7/9+7/16+7/25
p1853
tp1854
a(S'-1 day, 23:57:10'
p1855
V7/1+7/4+7/9+7/16+7/25
p1856
tp1857
a(S'0:00:06'
p1858
V1/1+1/2+1/3+1/4+1/5
p1859
tp1860
asg9
V2015-11-05 21:00:37
p1861
ssVjfalcone
p1862
(dp1863
S'part3_correct_attempt'
p1864
(lp1865
S'0:01:46'
p1866
aV1 - (1/2) + (1/3) - (1/4) + (1/5)
p1867
asS'part3_incorrect_attempt'
p1868
(lp1869
(S'0:01:01'
p1870
V1 + (1/2) + (1/3) + (1/4) + (1/5)
p1871
tp1872
asg9
V2015-11-05 05:29:27
p1873
ssVj5phung
p1874
(dp1875
S'part3_correct_attempt'
p1876
(lp1877
S'0:01:59'
p1878
aV(3-3/2+3/3-3/4+3/5)
p1879
asS'part3_incorrect_attempt'
p1880
(lp1881
(S'-1 day, 23:57:52'
p1882
V1/5
p1883
tp1884
asg9
V2015-11-04 04:49:51
p1885
ssVtpmach
p1886
(dp1887
S'part3_correct_attempt'
p1888
(lp1889
S'0:01:53'
p1890
aV3+(-1)(3/2)+3/3+(-1)(3/4)+3/5
p1891
asS'part3_incorrect_attempt'
p1892
(lp1893
(S'0:01:32'
p1894
V3+(-1)^2*(3/2)+3/3+(-1)^2*(3/4)+3/5
p1895
tp1896
asg9
V2015-10-30 21:50:06
p1897
ssVgsrandha
p1898
(dp1899
S'part3_correct_attempt'
p1900
(lp1901
S'0:00:20'
p1902
aV3/1 - 3/2 + 1- 3/4 + 3/5
p1903
asS'part3_incorrect_attempt'
p1904
(lp1905
(S'0:00:09'
p1906
V3/1 + 3/2 + 1+ 3/4 + 3/5
p1907
tp1908
asg9
V2015-11-05 08:09:47
p1909
ssVjeqin
p1910
(dp1911
S'part3_correct_attempt'
p1912
(lp1913
S'0:01:40'
p1914
aV(1 - 1/2 + 1/3 - 1/4 + 1/5)
p1915
asS'part3_incorrect_attempt'
p1916
(lp1917
(S'0:01:22'
p1918
V(1 + 1/2 + 1/3 + 1/4 + 1/5)
p1919
tp1920
asg9
V2015-11-05 10:00:44
p1921
ssVr9jiang
p1922
(dp1923
S'part3_correct_attempt'
p1924
(lp1925
S'0:00:00'
p1926
aV5-5/2+5/3-5/4+5/5
p1927
asS'part3_incorrect_attempt'
p1928
(lp1929
(S'-1 day, 23:46:53'
p1930
V0.7833
p1931
tp1932
a(S'-1 day, 23:58:06'
p1933
V1-1/2+1/3-1/4+1/5
p1934
tp1935
asg9
V2015-11-02 02:47:32
p1936
ssVnnh002
p1937
(dp1938
S'part3_correct_attempt'
p1939
(lp1940
S'0:00:59'
p1941
aV(2-1-.5+(2/3)+(2/5))
p1942
asS'part3_incorrect_attempt'
p1943
(lp1944
(S'-1 day, 23:36:45'
p1945
V2/5
p1946
tp1947
a(S'-1 day, 23:39:19'
p1948
V(2-1-.5+(2/3)+(2/5))/5
p1949
tp1950
asg9
V2015-11-05 04:55:01
p1951
ssVr1gu
p1952
(dp1953
S'part3_correct_attempt'
p1954
(lp1955
S'0:01:04'
p1956
aV5-5/2-5/4+5/3+1
p1957
asS'part3_incorrect_attempt'
p1958
(lp1959
(S'0:00:10'
p1960
V5+5/2+5/4+5/3+1
p1961
tp1962
asg9
V2015-11-05 12:10:39
p1963
ssVkbielawi
p1964
(dp1965
S'part3_correct_attempt'
p1966
(lp1967
S'0:00:30'
p1968
aV(5/1-5/2+5/3-5/4+5/5)
p1969
asS'part3_incorrect_attempt'
p1970
(lp1971
(S'0:00:19'
p1972
V(5/1+5/2+5/3+5/4+5/5)
p1973
tp1974
asg9
V2015-11-06 00:50:19
p1975
ssVzhw110
p1976
(dp1977
S'part3_correct_attempt'
p1978
(lp1979
S'23:27:35'
p1980
aV4-2+4/3-1+4/5
p1981
asS'part3_incorrect_attempt'
p1982
(lp1983
(S'0:00:00'
p1984
V4-2+4/3/1+4/5
p1985
tp1986
asg9
V2015-11-06 01:00:43
p1987
ssVpthsu
p1988
(dp1989
S'part3_correct_attempt'
p1990
(lp1991
S'0:00:08'
p1992
aV3*(1-1/2+1/3-1/4+1/5)
p1993
asS'part3_incorrect_attempt'
p1994
(lp1995
(S'0:00:00'
p1996
V(1-1/2+1/3-1/4+1/5)
p1997
tp1998
asg9
V2015-10-31 03:39:30
p1999
ssVkrkelkar
p2000
(dp2001
S'part3_correct_attempt'
p2002
(lp2003
S'0:00:33'
p2004
aV5 - 5/2 + 5/3 - 5/4 + 5/5
p2005
asS'part3_incorrect_attempt'
p2006
(lp2007
(S'0:00:00'
p2008
V5 + 5/2 + 5/3 + 5/4 + 5/5
p2009
tp2010
asg9
V2015-10-31 20:55:06
p2011
ssVaurodrig
p2012
(dp2013
S'part3_correct_attempt'
p2014
(lp2015
S'0:11:15'
p2016
aV1 - 1/2 + 1/3 - 1/4 + 1/5
p2017
asS'part3_incorrect_attempt'
p2018
(lp2019
(S'0:10:22'
p2020
V1 + 1/2 + 1/3 + 1/4 + 1/5
p2021
tp2022
asg9
V2015-11-06 23:09:38
p2023
ssVanvan
p2024
(dp2025
S'part3_correct_attempt'
p2026
(lp2027
S'0:00:45'
p2028
aV2 - 1 + 2/3- 1/2 + 2/5
p2029
asS'part3_incorrect_attempt'
p2030
(lp2031
(S'0:00:35'
p2032
V2 - 1 + 2/3 + 1/2 + 2/5
p2033
tp2034
asg9
V2015-11-05 16:05:53
p2035
ssVc1sorian
p2036
(dp2037
S'part3_correct_attempt'
p2038
(lp2039
S'-1 day, 23:59:03'
p2040
aV((3/1)-(3/2)+(3/3)-(3/4)+(3/5))
p2041
asS'part3_incorrect_attempt'
p2042
(lp2043
(S'-1 day, 23:55:08'
p2044
V(3-1.5+1-.75+6)/5
p2045
tp2046
a(S'-1 day, 23:58:24'
p2047
V(3-1.5+1-.75+6)
p2048
tp2049
asg9
V2015-11-05 00:38:57
p2050
ssVjtfrankl
p2051
(dp2052
S'part3_correct_attempt'
p2053
(lp2054
S'0:00:07'
p2055
aV(1-.5+1/3-1/4+.2)
p2056
asS'part3_incorrect_attempt'
p2057
(lp2058
(S'-1 day, 23:54:20'
p2059
V(1-.5+1/3-1/4+.2)/5
p2060
tp2061
asg9
V2015-11-06 18:40:52
p2062
ssVtdurrer
p2063
(dp2064
S'part3_correct_attempt'
p2065
(lp2066
S'0:00:34'
p2067
aV(5/1)-(5/2)+(5/3)-(5/4)+(5/5)
p2068
asS'part3_incorrect_attempt'
p2069
(lp2070
(S'0:00:00'
p2071
V(5/1)-(5/2)+(5/3)+(5/4)+(5/5)
p2072
tp2073
asg9
V2015-11-06 05:04:36
p2074
ssVazkong
p2075
(dp2076
S'part3_correct_attempt'
p2077
(lp2078
S'0:00:18'
p2079
aV5-5/2+5/3-5/4+5/5
p2080
asS'part3_incorrect_attempt'
p2081
(lp2082
(S'-1 day, 21:56:15'
p2083
V6-6/4+6/9-6/16+6/25
p2084
tp2085
a(S'-1 day, 23:56:05'
p2086
V6-6/4+6/9-6/16+6/25
p2087
tp2088
a(S'-1 day, 23:56:36'
p2089
V6+6/4+6/9+6/16+6/25
p2090
tp2091
a(S'-1 day, 23:56:50'
p2092
V6+6/4+6/9+6/16+6/25
p2093
tp2094
asg9
V2015-11-06 22:08:31
p2095
ssVaordookh
p2096
(dp2097
S'part3_correct_attempt'
p2098
(lp2099
S'0:00:00'
p2100
aV(4/1)-(4/2)+(4/3)-(4/4)+(4/5)
p2101
asS'part3_incorrect_attempt'
p2102
(lp2103
(S'-1 day, 23:53:19'
p2104
V4/1
p2105
tp2106
a(S'-1 day, 23:58:55'
p2107
V(4/1)-(4/2)+(4/3)-(4/4)+(5/4)
p2108
tp2109
asg9
V2015-11-04 22:13:50
p2110
ssVajvanega
p2111
(dp2112
S'part3_correct_attempt'
p2113
(lp2114
S'0:05:29'
p2115
aV4-2+(4/3)-1+(4/5)
p2116
asS'part3_incorrect_attempt'
p2117
(lp2118
(S'0:05:20'
p2119
V4-2-(4/3)-1+(4/5)
p2120
tp2121
asg9
V2015-11-05 02:57:39
p2122
ssVralhadda
p2123
(dp2124
S'part3_correct_attempt'
p2125
(lp2126
S'4:38:43'
p2127
aV0.78333
p2128
asS'part3_incorrect_attempt'
p2129
(lp2130
(S'4:05:07'
p2131
V0.1024
p2132
tp2133
asg9
V2015-10-31 20:35:01
p2134
ssVyil035
p2135
(dp2136
S'part3_correct_attempt'
p2137
(lp2138
S'0:00:00'
p2139
aV47/15
p2140
asS'part3_incorrect_attempt'
p2141
(lp2142
(S'-1 day, 23:59:27'
p2143
V47/75
p2144
tp2145
asg9
V2015-11-04 00:43:35
p2146
ssVm8woo
p2147
(dp2148
S'part3_correct_attempt'
p2149
(lp2150
S'0:00:00'
p2151
aV[3/1 - 3/2 + 3/3 - 3/4 + 3/5]
p2152
asS'part3_incorrect_attempt'
p2153
(lp2154
(S'-1 day, 23:59:00'
p2155
V[3/1 - 3/2 + 3/3 - 3/4 + 3/5]/5
p2156
tp2157
asg9
V2015-11-05 21:03:09
p2158
ssVmtrafeca
p2159
(dp2160
S'part3_correct_attempt'
p2161
(lp2162
S'0:03:38'
p2163
aV1-1/2+1/3-1/4+1/5
p2164
asS'part3_incorrect_attempt'
p2165
(lp2166
(S'-3 days, 1:38:56'
p2167
V1/2
p2168
tp2169
asg9
V2015-11-05 00:20:13
p2170
ssVwmiao
p2171
(dp2172
S'part3_correct_attempt'
p2173
(lp2174
S'0:00:00'
p2175
aV(1/1-1/2+1/3-1/4+1/5)
p2176
asS'part3_incorrect_attempt'
p2177
(lp2178
(S'-1 day, 23:59:46'
p2179
V(1/1-1/2+1/3-1/4+1/5)/5
p2180
tp2181
asg9
V2015-11-04 20:27:09
p2182
ssVpnquach
p2183
(dp2184
S'part3_correct_attempt'
p2185
(lp2186
S'0:00:00'
p2187
aV1 - 1/2 + 1/3 - 1/4 + 1/5
p2188
asS'part3_incorrect_attempt'
p2189
(lp2190
(S'-1 day, 23:58:50'
p2191
V(1 - 1/2 + 1/3 - 1/4 + 1/5)/5
p2192
tp2193
asg9
V2015-11-06 05:41:37
p2194
ssVjit002
p2195
(dp2196
S'part3_correct_attempt'
p2197
(lp2198
S'0:00:00'
p2199
aV5-2.5+5/3-5/4+1
p2200
asS'part3_incorrect_attempt'
p2201
(lp2202
(S'-1 day, 23:50:58'
p2203
V(5-2.5+5/3-5/4+1)/5
p2204
tp2205
asg9
V2015-11-05 04:01:38
p2206
sssV2
p2207
(dp2208
Vb3hwang
p2209
(dp2210
S'part2_correct_attempt'
p2211
(lp2212
S'0:05:18'
p2213
aV((9/1)+ (9/2^2) + (9/3^2) + (9/4^2) + (9/5^2))
p2214
asS'part1_correct_attempt'
p2215
(lp2216
S'0:00:00'
p2217
ag351
asg9
V2015-11-05 08:50:27
p2218
sS'part2_incorrect_attempt'
p2219
(lp2220
(S'0:00:30'
p2221
V(4/1)^2 + (4/2)^2 + (4/3)^2 + (4/4)^2 + (4/5)^2
p2222
tp2223
a(S'0:00:40'
p2224
V((4/1)^2 + (4/2)^2 + (4/3)^2 + (4/4)^2 + (4/5)^2)/5
p2225
tp2226
a(S'0:04:43'
p2227
V((9/1)+ (9/2^2) + (9/3^2) + (4/4^2) + (4/5^2))/5
p2228
tp2229
a(S'0:05:09'
p2230
V((9/1)+ (9/2^2) + (9/3^2) + (9/4^2) + (9/5^2))/5
p2231
tp2232
assVapokhare
p2233
(dp2234
S'part2_correct_attempt'
p2235
(lp2236
S'0:00:54'
p2237
aV(1+1/4+1/9+1/16+1/25)*6
p2238
asS'part1_correct_attempt'
p2239
(lp2240
S'0:00:00'
p2241
aV(1+1/2+1/3+1/4+1/5)*3
p2242
asg9
g1696
sS'part2_incorrect_attempt'
p2243
(lp2244
(S'0:00:00'
p2245
V(1+1/2+1/3+1/4+1/5)*6
p2246
tp2247
assVachava
p2248
(dp2249
S'part2_correct_attempt'
p2250
(lp2251
S'0:31:45'
p2252
aV8+(8/4)+(8/9)+(8/16)+(8/25)
p2253
asS'part1_correct_attempt'
p2254
(lp2255
S'0:00:00'
p2256
aV3+(3/2)+(1)+(3/4)+(3/5)
p2257
asg9
V2015-11-06 07:27:32
p2258
sS'part2_incorrect_attempt'
p2259
(lp2260
(S'0:01:09'
p2261
V8+(8/2)+(8/9)+(8/16)+(8/25)
p2262
tp2263
assVmhale
p2264
(dp2265
S'part2_correct_attempt'
p2266
(lp2267
S'0:00:30'
p2268
aV6 + 6/4 + 6/9 + 6/16 + 6/25
p2269
asS'part1_correct_attempt'
p2270
(lp2271
S'0:00:00'
p2272
ag60
asg9
V2015-11-05 20:22:12
p2273
sS'part2_incorrect_attempt'
p2274
(lp2275
(S'0:00:20'
p2276
V6 + 6/2 + 6/9 + 6/16 + 6/25
p2277
tp2278
assVk5law
p2279
(dp2280
S'part2_correct_attempt'
p2281
(lp2282
S'0:09:26'
p2283
aV(7/((1)^2))+(7/((2)^2))+(7/((3)^2))+(7/((4)^2))+(7/((5)^2))
p2284
asS'part1_correct_attempt'
p2285
(lp2286
S'0:00:00'
p2287
ag1271
asg9
V2015-11-04 07:59:10
p2288
sS'part2_incorrect_attempt'
p2289
(lp2290
(S'0:00:12'
p2291
V[(5/1)+(5/2)+(5/3)+(5/4)+(5/5)]^2
p2292
tp2293
a(S'0:04:33'
p2294
V[((5/1)-(11.4167))^2]+[((5/2)-(11.4167))^2]+[((5/3)-(11.4167))^2]+[((5/4)-(11.4167))^2]+[((5/5)-(11.4167))^2]
p2295
tp2296
a(S'0:04:56'
p2297
V[[((5/1)-(11.4167))^2]+[((5/2)-(11.4167))^2]+[((5/3)-(11.4167))^2]+[((5/4)-(11.4167))^2]+[((5/5)-(11.4167))^2]]/5
p2298
tp2299
assVdan029
p2300
(dp2301
S'part2_correct_attempt'
p2302
(lp2303
S'0:02:23'
p2304
aV6+6/4+6/9+6/16+6/25
p2305
asS'part1_correct_attempt'
p2306
(lp2307
S'0:00:00'
p2308
ag597
asg9
V2015-11-05 09:09:59
p2309
sS'part2_incorrect_attempt'
p2310
(lp2311
(S'0:01:46'
p2312
V.2641
p2313
tp2314
assVjeqin
p2315
(dp2316
S'part2_correct_attempt'
p2317
(lp2318
S'0:01:06'
p2319
aV8*(1+1/4+1/9+1/16+1/25)
p2320
asS'part1_correct_attempt'
p2321
(lp2322
S'0:00:00'
p2323
ag891
asg9
g1921
sS'part2_incorrect_attempt'
p2324
(lp2325
(S'0:00:33'
p2326
V1 + 8/4 + 8/9 + 8/16 + 8/25
p2327
tp2328
assVagarango
p2329
(dp2330
S'part2_correct_attempt'
p2331
(lp2332
S'0:00:53'
p2333
aV(7/1)+(7/4)+(7/9)+(7/16)+(7/25)
p2334
asS'part1_correct_attempt'
p2335
(lp2336
S'0:00:00'
p2337
ag1346
asg9
V2015-11-05 23:55:25
p2338
sS'part2_incorrect_attempt'
p2339
(lp2340
(S'0:00:38'
p2341
V(1/1)+(1/4)+(1/9)+(1/16)+(1/25)
p2342
tp2343
assVavasavad
p2344
(dp2345
S'part2_correct_attempt'
p2346
(lp2347
S'0:00:39'
p2348
aV10 + 10/4 + 10/9 + 10/16 + 10/25
p2349
asS'part1_correct_attempt'
p2350
(lp2351
S'0:00:00'
p2352
aV5 + 5/2 + 5/3 + 5/4 + 1
p2353
asg9
V2015-11-04 23:13:33
p2354
sS'part2_incorrect_attempt'
p2355
(lp2356
(S'0:00:31'
p2357
V10 + 10/2 + 10/9 + 10/16 + 10/25
p2358
tp2359
assVbtn023
p2360
(dp2361
S'part2_correct_attempt'
p2362
(lp2363
S'0:02:13'
p2364
aV8/1+8/4+8/9+8/16+8/25
p2365
asS'part1_correct_attempt'
p2366
(lp2367
S'0:00:00'
p2368
aV1/5+1/4+1/3+1/2+1/1
p2369
asg9
V2015-11-06 10:51:15
p2370
sS'part2_incorrect_attempt'
p2371
(lp2372
(S'0:01:03'
p2373
V8/1+8/4+8/8+8/16+8/32
p2374
tp2375
assVyil035
p2376
(dp2377
S'part2_correct_attempt'
p2378
(lp2379
S'0:03:11'
p2380
aV5269/450
p2381
asS'part1_correct_attempt'
p2382
(lp2383
S'0:00:00'
p2384
ag717
asg9
g2146
sS'part2_incorrect_attempt'
p2385
(lp2386
(S'0:02:10'
p2387
V6169/450
p2388
tp2389
assVdwzhang
p2390
(dp2391
S'part2_correct_attempt'
p2392
(lp2393
S'0:00:31'
p2394
aV7/1 + 7/4 + 7/9 + 7/16 + 7/25
p2395
asS'part1_correct_attempt'
p2396
(lp2397
S'0:00:00'
p2398
ag462
asg9
V2015-11-04 20:59:44
p2399
sS'part2_incorrect_attempt'
p2400
(lp2401
(S'0:00:15'
p2402
V7/1 + 7/2 + 7/3 + 7/4 + 7/5
p2403
tp2404
assVagian
p2405
(dp2406
S'part2_correct_attempt'
p2407
(lp2408
S'0:00:37'
p2409
aV(1+1/4+1/9+1/16+1/25)*10
p2410
asS'part1_correct_attempt'
p2411
(lp2412
S'0:00:00'
p2413
ag945
asg9
V2015-11-07 00:23:46
p2414
sS'part2_incorrect_attempt'
p2415
(lp2416
(S'0:00:15'
p2417
V(1+1/2+1/3+1/4+1/5)*10
p2418
tp2419
assVdgunawan
p2420
(dp2421
S'part2_correct_attempt'
p2422
(lp2423
S'0:01:31'
p2424
aV(8/1^2) + (8/2^2) + (8/3^2) + (8/4^2) + (8/5^2)
p2425
asS'part1_correct_attempt'
p2426
(lp2427
S'0:00:00'
p2428
ag156
asg9
V2015-11-05 08:39:09
p2429
sS'part2_incorrect_attempt'
p2430
(lp2431
(S'0:00:00'
p2432
V(1/1^2) + (1/2^2) + (1/3^2) + (1/4^2) + (1/5^2)
p2433
tp2434
assVdsmonaha
p2435
(dp2436
S'part2_correct_attempt'
p2437
(lp2438
S'0:04:43'
p2439
aV5269/600
p2440
asS'part1_correct_attempt'
p2441
(lp2442
S'0:00:00'
p2443
ag534
asg9
V2015-11-02 17:23:41
p2444
sS'part2_incorrect_attempt'
p2445
(lp2446
(S'0:01:49'
p2447
V3019/600
p2448
tp2449
assVakalathi
p2450
(dp2451
S'part2_correct_attempt'
p2452
(lp2453
S'0:02:21'
p2454
aV7 + 7/4 + 7/9 + 7/16 + 7/25
p2455
asS'part1_correct_attempt'
p2456
(lp2457
S'0:00:00'
p2458
aV4/1 + 4/2 + 4/3 + 4/4 + 4/5
p2459
asg9
V2015-11-04 06:24:24
p2460
sS'part2_incorrect_attempt'
p2461
(lp2462
(S'0:00:17'
p2463
V7/1 + 7/2 + 7/3 + 7/4 + 7/5
p2464
tp2465
a(S'0:00:57'
p2466
V7 + 7/14 + 7/21 + 7/28 + 7/35
p2467
tp2468
assVc1wei
p2469
(dp2470
S'part2_correct_attempt'
p2471
(lp2472
S'0:00:48'
p2473
aV6/1+6/4+6/9+6/16+6/25
p2474
asS'part1_correct_attempt'
p2475
(lp2476
S'0:00:00'
p2477
ag285
asg9
V2015-11-04 06:50:40
p2478
sS'part2_incorrect_attempt'
p2479
(lp2480
(S'0:00:00'
p2481
V6/1+6/2+6/3+6/4+6/5
p2482
tp2483
assVcsl030
p2484
(dp2485
S'part1_correct_attempt'
p2486
(lp2487
S'0:00:00'
p2488
ag273
asg9
V2015-11-06 00:15:22
p2489
sS'part2_incorrect_attempt'
p2490
(lp2491
(S'0:00:40'
p2492
V6/1^2 + 6/2^2 + 6/3^2 + 6/4^4 + 6/5^2
p2493
tp2494
a(S'0:02:54'
p2495
V(6/1^2 - 6.85)^2 + (6/2^2- 6.85)^2  + (6/3^- 6.85)^2 + (6/4^4- 6.85)^2  + (6/5^2- 6.85)^2
p2496
tp2497
a(S'0:03:29'
p2498
V(6/1^2 - 6.85)^2 + (6/2^2- 6.85)^2 + (6/3^2- 6.85)^2 + (6/4^4- 6.85)^2 + (6/5^2- 6.85)^2
p2499
tp2500
a(S'0:05:29'
p2501
V((6/1^2 - 6.85)^2 + (6/2^2- 6.85)^2 + (6/3^2- 6.85)^2 + (6/4^4- 6.85)^2 + (6/5^2- 6.85)^2) / 5
p2502
tp2503
assVeshung
p2504
(dp2505
S'part2_correct_attempt'
p2506
(lp2507
S'0:00:09'
p2508
aV7+(7/4)+(7/9)+(7/16)+(7/25)
p2509
asS'part1_correct_attempt'
p2510
(lp2511
S'0:00:00'
p2512
aV1+0.5+0.25+(1/3)+0.2
p2513
asg9
V2015-11-05 23:07:39
p2514
sS'part2_incorrect_attempt'
p2515
(lp2516
(S'0:00:00'
p2517
V7+3.5+(7/9)+(7/16)+(7/25)
p2518
tp2519
assVralhadda
p2520
(dp2521
S'part2_correct_attempt'
p2522
(lp2523
S'0:03:56'
p2524
aV14.63611
p2525
asS'part1_correct_attempt'
p2526
(lp2527
S'0:00:00'
p2528
ag627
asg9
g2134
sS'part2_incorrect_attempt'
p2529
(lp2530
(S'0:01:04'
p2531
V1.91805
p2532
tp2533
a(S'0:01:39'
p2534
V0.0444444
p2535
tp2536
assVyjshin
p2537
(dp2538
S'part2_correct_attempt'
p2539
(lp2540
S'0:04:15'
p2541
aV(8/1)+(8/4)+(8/9)+(8/16)+(8/25)
p2542
asS'part1_correct_attempt'
p2543
(lp2544
S'0:00:00'
p2545
ag645
asg9
V2015-11-06 23:12:54
p2546
sS'part2_incorrect_attempt'
p2547
(lp2548
(S'0:00:34'
p2549
V(4/5)^2+(1)+(4/3)^2+(4/2)^2+(4/1)^2
p2550
tp2551
a(S'0:00:50'
p2552
V(4/5+4/4+4/3+4/2+4/1)^2
p2553
tp2554
a(S'0:01:33'
p2555
V(4/5)^2+(4/4)^2+(4/3)^2+(4/2)^2+(4/1)^2
p2556
tp2557
a(S'0:02:34'
p2558
V(4/5-4/4)^2+(1-4/3)^2+(4/3-4/2)^2+(4/2-4/1)^2
p2559
tp2560
a(S'0:02:59'
p2561
V(4/5-4/4)^2+(1-4/3)^2+(4/3-4/2)^2+(4/2-4/1)^2+4^2
p2562
tp2563
assVvasharma
p2564
(dp2565
S'part2_correct_attempt'
p2566
(lp2567
S'0:03:41'
p2568
aV8/1+8/4+8/9+8/16+8/25
p2569
asS'part1_correct_attempt'
p2570
(lp2571
S'0:00:00'
p2572
aV3/1+3/2+3/3+3/4+3/5
p2573
asg9
V2015-11-04 18:56:53
p2574
sS'part2_incorrect_attempt'
p2575
(lp2576
(S'0:03:18'
p2577
V8/1+8/4+8/16+8/32+8/64
p2578
tp2579
assVaurodrig
p2580
(dp2581
S'part2_correct_attempt'
p2582
(lp2583
S'0:12:57'
p2584
aV10/(1^2) + 10/((2)^2) + 10/((3)^2) + 10/((4)^2) + 10/((5)^2)
p2585
asS'part1_correct_attempt'
p2586
(lp2587
S'0:00:00'
p2588
ag1077
asg9
g2023
sS'part2_incorrect_attempt'
p2589
(lp2590
(S'0:03:28'
p2591
V2.83^2
p2592
tp2593
assVcagatep
p2594
(dp2595
S'part2_correct_attempt'
p2596
(lp2597
S'0:00:39'
p2598
aV(8 + 2 + 8/9 + 1/2 + 8/25)
p2599
asS'part1_correct_attempt'
p2600
(lp2601
S'0:00:00'
p2602
ag1092
asg9
V2015-11-05 07:30:30
p2603
sS'part2_incorrect_attempt'
p2604
(lp2605
(S'0:00:12'
p2606
V(8 + 2 + 1 + 1/2 + 1/4)/5
p2607
tp2608
assVm8woo
p2609
(dp2610
S'part2_correct_attempt'
p2611
(lp2612
S'0:00:47'
p2613
aV[10/1 + 10/4 + 10/9 + 10/16 + 10/25]
p2614
asS'part1_correct_attempt'
p2615
(lp2616
S'0:00:00'
p2617
ag312
asg9
g2158
sS'part2_incorrect_attempt'
p2618
(lp2619
(S'0:00:00'
p2620
V[3/1 + 3/4 + 3/9 + 3/16 + 3/25]
p2621
tp2622
asssV5
p2623
(dp2624
Vb3hwang
p2625
(dp2626
S'part5_correct_attempt'
p2627
(lp2628
S'0:11:08'
p2629
aV4 - 8/2 + 4/3 - 8/4 + 4/5
p2630
asS'part5_incorrect_attempt'
p2631
(lp2632
(S'0:07:51'
p2633
V4 - 8/2 + 4/3 - 8/4 + 8/5
p2634
tp2635
asg9
g2218
ssVlpettit
p2636
(dp2637
S'part5_correct_attempt'
p2638
(lp2639
S'0:54:18'
p2640
aV1 - 1 +1/3 - 1/2 + 1/5
p2641
asS'part5_incorrect_attempt'
p2642
(lp2643
(S'0:53:55'
p2644
V7 - 1 +1/3 - 1/2 + 1/5
p2645
tp2646
asg9
V2015-11-07 00:02:46
p2647
ssVjfalcone
p2648
(dp2649
S'part5_correct_attempt'
p2650
(lp2651
S'0:01:46'
p2652
aV1 - (2/2) + (1/3) - (2/4) + (1/5)
p2653
asS'part5_incorrect_attempt'
p2654
(lp2655
(S'0:01:01'
p2656
V1 + (1/2) + (1/3) + (1/4) + (1/5)
p2657
tp2658
asg9
g1873
ssVquwong
p2659
(dp2660
S'part5_correct_attempt'
p2661
(lp2662
S'0:00:00'
p2663
aV5(1 - 2/2 + 1/3 - 2/4 + 1/5)
p2664
asS'part5_incorrect_attempt'
p2665
(lp2666
(S'-5 days, 4:39:16'
p2667
V0.0333333
p2668
tp2669
asg9
g1744
ssVhkhodada
p2670
(dp2671
S'part5_correct_attempt'
p2672
(lp2673
S'0:03:27'
p2674
aV4-4+4/3-2+4/5
p2675
asS'part5_incorrect_attempt'
p2676
(lp2677
(S'-3 days, 16:24:43'
p2678
V1894/360
p2679
tp2680
asg9
g1756
ssVeyhu
p2681
(dp2682
S'part5_correct_attempt'
p2683
(lp2684
S'0:00:17'
p2685
aV(4/1)-(2*(4/2))+(4/3)-(2*(4/4))+(4/5)
p2686
asS'part5_incorrect_attempt'
p2687
(lp2688
(S'0:00:00'
p2689
V(4/1)+(2*(4/2))+(4/3)+(2*(4/4))+(4/5)
p2690
tp2691
asg9
V2015-10-30 08:25:58
p2692
ssVc1sorian
p2693
(dp2694
S'part5_correct_attempt'
p2695
(lp2696
S'0:00:13'
p2697
aV((3/1)-(6/2)+(3/3)-(6/4)+(3/5))
p2698
asS'part5_incorrect_attempt'
p2699
(lp2700
(S'0:00:00'
p2701
V((3/1)-(3/2)+(3/3)-(3/4)+(3/5))
p2702
tp2703
asg9
g2050
ssVabjara
p2704
(dp2705
S'part5_correct_attempt'
p2706
(lp2707
S'0:02:53'
p2708
aV5 - 5 + 5/3 - 10/4 + 1
p2709
asS'part5_incorrect_attempt'
p2710
(lp2711
(S'0:01:18'
p2712
V5 + 5 + 5/3 - 10/3 + 1
p2713
tp2714
a(S'0:02:07'
p2715
V5 + 5 + 5/3 - 10/4 + 1
p2716
tp2717
asg9
V2015-11-04 02:09:05
p2718
ssVkrau
p2719
(dp2720
S'part5_correct_attempt'
p2721
(lp2722
S'0:00:40'
p2723
aV1-2/2+1/3-2/4+1/5
p2724
asS'part5_incorrect_attempt'
p2725
(lp2726
(S'-1 day, 17:24:37'
p2727
V(1/1-2*1/2+1/3-2*1/4+1/5) / 5
p2728
tp2729
asg9
g1810
ssVcrmirand
p2730
(dp2731
S'part5_correct_attempt'
p2732
(lp2733
S'0:02:22'
p2734
aV2 - 2 + 2/3 - 1 + 2/5
p2735
asS'part5_incorrect_attempt'
p2736
(lp2737
(S'0:01:53'
p2738
V2 - 2 + 1 - 1 + 2/5
p2739
tp2740
asg9
V2015-11-03 05:23:32
p2741
ssVjdeon
p2742
(dp2743
S'part5_correct_attempt'
p2744
(lp2745
S'0:02:00'
p2746
aV(1-2/2+1/3-2/4+1/5)
p2747
asS'part5_incorrect_attempt'
p2748
(lp2749
(S'0:01:48'
p2750
V(1+2/2+1/3+2/4+1/5)
p2751
tp2752
asg9
V2015-11-04 23:20:03
p2753
ssVmbl003
p2754
(dp2755
S'part5_correct_attempt'
p2756
(lp2757
S'0:00:32'
p2758
aV1/1-2/2+1/3-2/4+1/5
p2759
asS'part5_incorrect_attempt'
p2760
(lp2761
(S'-1 day, 23:56:37'
p2762
V7/1+7/4+7/9+7/16+7/25
p2763
tp2764
a(S'-1 day, 23:56:56'
p2765
V7/1+7*2/4+7/9+7*2/16+7/25
p2766
tp2767
a(S'-1 day, 23:57:10'
p2768
V7/1+7*2^2/4+7/9+7*2^2/16+7/25
p2769
tp2770
asg9
g1861
ssVj5phung
p2771
(dp2772
S'part5_correct_attempt'
p2773
(lp2774
S'0:01:59'
p2775
aV(3-3+3/3-3/2+3/5)
p2776
asS'part5_incorrect_attempt'
p2777
(lp2778
(S'-1 day, 23:57:52'
p2779
V1/7
p2780
tp2781
asg9
g1885
ssVn2patil
p2782
(dp2783
S'part5_correct_attempt'
p2784
(lp2785
S'0:46:59'
p2786
aV4-4+4/3-2+4/5
p2787
asS'part5_incorrect_attempt'
p2788
(lp2789
(S'0:29:31'
p2790
V.133
p2791
tp2792
a(S'0:41:45'
p2793
V3.633
p2794
tp2795
asg9
V2015-11-05 00:58:59
p2796
ssVgsrandha
p2797
(dp2798
S'part5_correct_attempt'
p2799
(lp2800
S'0:00:40'
p2801
aV3/1 - 3 + 1 - 3/2 + 3/5
p2802
asS'part5_incorrect_attempt'
p2803
(lp2804
(S'0:00:09'
p2805
V3/1 + 3/2 + 1+ 3/4 + 3/5
p2806
tp2807
asg9
g1909
ssVr9jiang
p2808
(dp2809
S'part5_correct_attempt'
p2810
(lp2811
S'0:00:00'
p2812
aV5-10/2+5/3-10/4+5/5
p2813
asS'part5_incorrect_attempt'
p2814
(lp2815
(S'-1 day, 23:46:53'
p2816
V1/30
p2817
tp2818
a(S'-1 day, 23:58:06'
p2819
V1-2/2+1/3-2/4+1/5
p2820
tp2821
asg9
g1936
ssVbeerye28
p2822
(dp2823
S'part5_incorrect_attempt'
p2824
(lp2825
(S'0:01:25'
p2826
V8*(1 + (1/9) + (1/25)) + 8*4*((1/4) + (1/16))
p2827
tp2828
asg9
V2015-11-03 06:32:53
p2829
ssVtwsalim
p2830
(dp2831
S'part5_correct_attempt'
p2832
(lp2833
S'0:05:04'
p2834
aV1/30
p2835
asS'part5_incorrect_attempt'
p2836
(lp2837
(S'0:00:00'
p2838
V139/120
p2839
tp2840
asg9
V2015-11-06 01:32:11
p2841
ssVagian
p2842
(dp2843
S'part5_correct_attempt'
p2844
(lp2845
S'0:02:15'
p2846
aV(1-2*1/2+1/3-2*1/4+1/5)*2
p2847
asS'part5_incorrect_attempt'
p2848
(lp2849
(S'0:01:58'
p2850
V(1-1/2+1/3-1/4+1/5)*2
p2851
tp2852
asg9
g2414
ssVppanourg
p2853
(dp2854
S'part5_correct_attempt'
p2855
(lp2856
S'0:02:55'
p2857
aV2/1 - 4/2 + 2/3 - 4/4 + 2/5
p2858
asS'part5_incorrect_attempt'
p2859
(lp2860
(S'0:02:39'
p2861
V2/1 - 2/2 + 2/3 - 2/4 + 2/5
p2862
tp2863
asg9
V2015-11-06 22:23:49
p2864
ssVdgunawan
p2865
(dp2866
S'part5_correct_attempt'
p2867
(lp2868
S'0:00:41'
p2869
aV1 - 2/2 + 1/3 - 2/4 + 1/5 
p2870
asS'part5_incorrect_attempt'
p2871
(lp2872
(S'0:00:00'
p2873
V1 - 1/2 + 1/3 - 1/4 + 1/5 
p2874
tp2875
asg9
g2429
ssVaakumar
p2876
(dp2877
S'part5_correct_attempt'
p2878
(lp2879
S'0:02:46'
p2880
aV2-2+2/3-1+2/5
p2881
asS'part5_incorrect_attempt'
p2882
(lp2883
(S'0:01:56'
p2884
V2-2+2/3+8/4+2/5
p2885
tp2886
asg9
V2015-11-05 03:07:58
p2887
ssVr1gu
p2888
(dp2889
S'part5_correct_attempt'
p2890
(lp2891
S'0:01:04'
p2892
aV5-10/2-10/4+5/3+1
p2893
asS'part5_incorrect_attempt'
p2894
(lp2895
(S'0:00:10'
p2896
V9/25+9/16+9/9+9/4+9
p2897
tp2898
asg9
g1963
ssValhung
p2899
(dp2900
S'part5_correct_attempt'
p2901
(lp2902
S'0:00:24'
p2903
aV1/1-(2*1/2)+1/3-(2*1/4)+1/5
p2904
asS'part5_incorrect_attempt'
p2905
(lp2906
(S'0:00:00'
p2907
V1/1-(2*1/2)+1/3+(2*1/4)+1/5
p2908
tp2909
asg9
g1834
ssVtcn013
p2910
(dp2911
S'part5_correct_attempt'
p2912
(lp2913
S'0:02:27'
p2914
aV4-4+4/3-2+.8
p2915
asS'part5_incorrect_attempt'
p2916
(lp2917
(S'0:02:10'
p2918
V4/3+2+.8
p2919
tp2920
asg9
V2015-11-04 05:28:57
p2921
ssVdtea
p2922
(dp2923
S'part5_correct_attempt'
p2924
(lp2925
S'0:41:40'
p2926
aV4/1-4/2*2+4/3-4/4*2+4/5
p2927
asS'part5_incorrect_attempt'
p2928
(lp2929
(S'0:41:18'
p2930
V4/1-4/2^2+4/3-4/4^2+4/5
p2931
tp2932
asg9
V2015-11-07 00:18:37
p2933
ssVytc012
p2934
(dp2935
S'part5_correct_attempt'
p2936
(lp2937
S'0:01:41'
p2938
aV2-2+2/3-4/4+2/5
p2939
asS'part5_incorrect_attempt'
p2940
(lp2941
(S'0:01:23'
p2942
V2-1+4/3-4/4+2/5
p2943
tp2944
asg9
V2015-11-05 22:02:52
p2945
ssVpnquach
p2946
(dp2947
S'part5_correct_attempt'
p2948
(lp2949
S'0:00:00'
p2950
aV1 - (2*1/2) + 1/3 - (2*1/4) + 1/5
p2951
asS'part5_incorrect_attempt'
p2952
(lp2953
(S'-1 day, 23:58:50'
p2954
V(1 - (2*1/2) + 1/3 - (2*1/4) + 1/5)/5
p2955
tp2956
asg9
g2194
ssVacs008
p2957
(dp2958
S'part5_correct_attempt'
p2959
(lp2960
S'0:01:58'
p2961
aV3-3+3/3-3/2+3/5
p2962
asS'part5_incorrect_attempt'
p2963
(lp2964
(S'0:01:46'
p2965
V3-2*3/2+3/3+3/2+3/5
p2966
tp2967
asg9
V2015-11-04 05:20:16
p2968
ssVssamudra
p2969
(dp2970
S'part5_correct_attempt'
p2971
(lp2972
S'0:05:29'
p2973
aV1/5 - 2/4 + 1/3 - 2/2 + 1
p2974
asS'part5_incorrect_attempt'
p2975
(lp2976
(S'0:05:00'
p2977
V1/5 + 1/4 + 1/3 + 1/2 + 1
p2978
tp2979
asg9
g1768
ssVjtfrankl
p2980
(dp2981
S'part5_correct_attempt'
p2982
(lp2983
S'0:00:07'
p2984
aV(1-2*.5+1/3-2*1/4+.2)
p2985
asS'part5_incorrect_attempt'
p2986
(lp2987
(S'-1 day, 23:54:20'
p2988
V(1-2*.5+1/3-2*1/4+.2)/5
p2989
tp2990
asg9
g2062
ssVazkong
p2991
(dp2992
S'part5_correct_attempt'
p2993
(lp2994
S'0:00:32'
p2995
aV5-5+5/3-5/2+5/5
p2996
asS'part5_incorrect_attempt'
p2997
(lp2998
(S'-1 day, 21:56:15'
p2999
V6-2*6/4+6/9-2*6/16+6/25
p3000
tp3001
a(S'-1 day, 23:56:05'
p3002
V6-2*6/4+6/9-2*6/16+6/25
p3003
tp3004
a(S'-1 day, 23:56:36'
p3005
V6-2*6/4+6/9-2*6/16+6/25
p3006
tp3007
a(S'-1 day, 23:56:50'
p3008
V6+4*6/4+6/9+4*6/16+6/25
p3009
tp3010
asg9
g2095
ssVaordookh
p3011
(dp3012
S'part5_correct_attempt'
p3013
(lp3014
S'0:00:00'
p3015
aV(4/1)-(8/2)+(4/3)-(8/4)+(4/5)
p3016
asS'part5_incorrect_attempt'
p3017
(lp3018
(S'-1 day, 23:58:55'
p3019
V(4/1)-(8/2)+(4/3)-(8/4)+(5/4)
p3020
tp3021
asg9
g2110
ssVyhhan
p3022
(dp3023
S'part5_correct_attempt'
p3024
(lp3025
S'0:01:51'
p3026
aV5-5+5/3-5/2+1
p3027
asS'part5_incorrect_attempt'
p3028
(lp3029
(S'0:00:59'
p3030
V9+9/2+1-9/8+9/25
p3031
tp3032
a(S'0:01:25'
p3033
V9+9/4+1-9/16+9/25
p3034
tp3035
asg9
V2015-11-06 23:50:10
p3036
ssVrohan
p3037
(dp3038
S'part5_correct_attempt'
p3039
(lp3040
S'0:02:38'
p3041
aV3-3+3/3-3/2+3/5
p3042
asS'part5_incorrect_attempt'
p3043
(lp3044
(S'0:01:37'
p3045
V3+12/2+1+12/4+3/5
p3046
tp3047
asg9
V2015-11-07 00:05:28
p3048
ssVdac064
p3049
(dp3050
S'part5_correct_attempt'
p3051
(lp3052
S'0:02:21'
p3053
aV4-4+4/3-2+4/5
p3054
asS'part5_incorrect_attempt'
p3055
(lp3056
(S'0:02:00'
p3057
V9/1 + 9/2 + 9/9 + 9/8 + 9/25
p3058
tp3059
asg9
V2015-11-05 09:10:26
p3060
ssVyil035
p3061
(dp3062
S'part5_correct_attempt'
p3063
(lp3064
S'0:02:10'
p3065
aV2/15
p3066
asS'part5_incorrect_attempt'
p3067
(lp3068
(S'-1 day, 23:59:27'
p3069
V2/75
p3070
tp3071
a(S'0:00:00'
p3072
V7.5
p3073
tp3074
asg9
g2146
ssVm8woo
p3075
(dp3076
S'part5_correct_attempt'
p3077
(lp3078
S'0:00:00'
p3079
aV[3/1 - 2*3/2 + 3/3 - 2*3/4 + 3/5]
p3080
asS'part5_incorrect_attempt'
p3081
(lp3082
(S'-1 day, 23:59:00'
p3083
V[3/1 - 2*3/2 + 3/3 - 2*3/4 + 3/5]/7
p3084
tp3085
asg9
g2158
ssVwmiao
p3086
(dp3087
S'part5_correct_attempt'
p3088
(lp3089
S'0:00:00'
p3090
aV(1/1-2*1/2+1/3-2*1/4+1/5)
p3091
asS'part5_incorrect_attempt'
p3092
(lp3093
(S'-1 day, 23:59:46'
p3094
V(1/1-2*1/2+1/3-2*1/4+1/5)/5
p3095
tp3096
asg9
g2182
ssVkgrozav
p3097
(dp3098
S'part5_correct_attempt'
p3099
(lp3100
S'0:28:44'
p3101
aV0.03333333
p3102
asS'part5_incorrect_attempt'
p3103
(lp3104
(S'0:26:47'
p3105
V0.8333333
p3106
tp3107
a(S'0:26:57'
p3108
V0.08333333
p3109
tp3110
asg9
V2015-11-05 20:01:44
p3111
ssVjit002
p3112
(dp3113
S'part5_correct_attempt'
p3114
(lp3115
S'0:00:00'
p3116
aV5-2*2.5+5/3-2*5/4+1
p3117
asS'part5_incorrect_attempt'
p3118
(lp3119
(S'-1 day, 23:50:58'
p3120
V(5-2*2.5+5/3-2*5/4+1)/5
p3121
tp3122
asg9
g2206
sssV4
p3123
(dp3124
Vv4zhang
p3125
(dp3126
S'part4_correct_attempt'
p3127
(lp3128
S'0:01:17'
p3129
aV(10/1)+(10/4)+(10/9)+(10/16)+(10/25)
p3130
asS'part3_correct_attempt'
p3131
(lp3132
S'0:00:39'
p3133
aV(4/1)-(4/2)+(4/3)-(4/4)+(4/5)
p3134
asS'part4_incorrect_attempt'
p3135
(lp3136
(S'0:00:39'
p3137
V(10/1)-(10/4)+(10/9)-(10/16)+(10/25)
p3138
tp3139
asg9
V2015-11-05 11:27:02
p3140
ssVkew060
p3141
(dp3142
S'part4_correct_attempt'
p3143
(lp3144
S'1 day, 23:25:43'
p3145
aV8.78
p3146
asS'part3_correct_attempt'
p3147
(lp3148
S'0:00:00'
p3149
aV2.35
p3150
asS'part4_incorrect_attempt'
p3151
(lp3152
(S'0:00:00'
p3153
V5.0317
p3154
tp3155
a(S'0:00:31'
p3156
V3019/600
p3157
tp3158
asg9
V2015-11-03 02:11:02
p3159
ssVmhale
p3160
(dp3161
S'part4_correct_attempt'
p3162
(lp3163
S'0:01:27'
p3164
aV6 + 6/4 + 6/9 + 6/16 + 6/25
p3165
asS'part3_correct_attempt'
p3166
(lp3167
S'0:01:06'
p3168
aV1 - 1/2 + 1/3 - 1/4 + 1/5
p3169
asS'part4_incorrect_attempt'
p3170
(lp3171
(S'0:01:06'
p3172
V6 - 6/4 + 6/9 - 6/16 + 6/25
p3173
tp3174
asg9
g2273
ssVdkurli
p3175
(dp3176
S'part4_correct_attempt'
p3177
(lp3178
S'0:01:39'
p3179
aV7/1+7/4+7/9+7/16+7/25
p3180
asS'part3_correct_attempt'
p3181
(lp3182
S'0:01:09'
p3183
aV2-1+2/3-2/4+2/5
p3184
asS'part4_incorrect_attempt'
p3185
(lp3186
(S'0:01:09'
p3187
V7/1-7/4+7/9-7/16+7/25
p3188
tp3189
asg9
V2015-11-05 03:08:22
p3190
ssVj5phung
p3191
(dp3192
S'part4_correct_attempt'
p3193
(lp3194
S'0:02:23'
p3195
aV7/1+7/4+7/9+7/16+7/25
p3196
asS'part3_correct_attempt'
p3197
(lp3198
S'0:01:59'
p3199
ag1879
asS'part4_incorrect_attempt'
p3200
(lp3201
(S'0:01:59'
p3202
V7/1-7/4+7/9-7/16+7/25
p3203
tp3204
asg9
g1885
ssVhaw081
p3205
(dp3206
S'part4_correct_attempt'
p3207
(lp3208
S'0:01:58'
p3209
aV6+6/4+6/9+6/16+6/25
p3210
asS'part3_correct_attempt'
p3211
(lp3212
S'0:01:38'
p3213
aV2-1+2/3-2/4+2/5
p3214
asS'part4_incorrect_attempt'
p3215
(lp3216
(S'0:01:38'
p3217
V6-6/4+6/9-6/16+6/25
p3218
tp3219
asg9
V2015-11-01 22:25:00
p3220
ssVavasavad
p3221
(dp3222
S'part4_correct_attempt'
p3223
(lp3224
S'0:01:48'
p3225
aV10 + 10/4 + 10/9 + 10/16 + 10/25
p3226
asS'part3_correct_attempt'
p3227
(lp3228
S'0:01:11'
p3229
aV5 - 5/2 + 5/3 - 5/4 + 1
p3230
asS'part4_incorrect_attempt'
p3231
(lp3232
(S'0:01:11'
p3233
V10 - 10/4 + 10/9 - 10/16 + 10/25
p3234
tp3235
asg9
g2354
ssVdgunawan
p3236
(dp3237
S'part4_correct_attempt'
p3238
(lp3239
S'0:01:39'
p3240
aV(8/1^2) + (8/2^2) + (8/3^2) + (8/4^2) + (8/5^2)
p3241
asS'part3_correct_attempt'
p3242
(lp3243
S'0:00:00'
p3244
aV1 - 1/2 + 1/3 - 1/4 + 1/5 
p3245
asS'part4_incorrect_attempt'
p3246
(lp3247
(S'0:00:00'
p3248
V(1/1^2) + (1/2^2) + (1/3^2) + (1/4^2) + (1/5^2)
p3249
tp3250
a(S'0:00:41'
p3251
V(1/1^2) - (1/2^2) + (1/3^2) - (1/4^2) + (1/5^2)
p3252
tp3253
a(S'0:01:31'
p3254
V(8/1^2) - (8/2^2) + (8/3^2) - (8/4^2) + (8/5^2)
p3255
tp3256
asg9
g2429
ssVtstevens
p3257
(dp3258
S'part4_correct_attempt'
p3259
(lp3260
S'0:02:57'
p3261
aV6+1.5+2/3+3/8+6/25
p3262
asS'part3_correct_attempt'
p3263
(lp3264
S'0:00:37'
p3265
aV4-2+4/3-1+.8
p3266
asS'part4_incorrect_attempt'
p3267
(lp3268
(S'0:02:26'
p3269
V6-1.5+2/3-3/8+6/25
p3270
tp3271
asg9
V2015-11-06 11:55:11
p3272
ssVtcuddy
p3273
(dp3274
S'part4_correct_attempt'
p3275
(lp3276
S'1 day, 13:10:57'
p3277
aV10+(10/4)+(10/9)+(10/16)+(10/25)
p3278
asS'part3_correct_attempt'
p3279
(lp3280
S'0:05:38'
p3281
aV3-(3/2)+(3/3)-(3/4)+(3/5)
p3282
asS'part4_incorrect_attempt'
p3283
(lp3284
(S'0:06:21'
p3285
V10-(10/4)+(10/9)-(10/16)+(10/25)
p3286
tp3287
asg9
V2015-11-02 05:02:00
p3288
ssVl8ngo
p3289
(dp3290
S'part4_correct_attempt'
p3291
(lp3292
S'4 days, 8:28:44'
p3293
aV7+7/4+7/9+7/16+7/25
p3294
asS'part3_correct_attempt'
p3295
(lp3296
S'0:00:00'
p3297
aV2-1+2/3-2/4+2/5
p3298
asS'part4_incorrect_attempt'
p3299
(lp3300
(S'0:00:00'
p3301
V7-7/4+7/9-7/16+7/25
p3302
tp3303
asg9
V2015-10-30 16:31:06
p3304
ssVdando
p3305
(dp3306
S'part4_correct_attempt'
p3307
(lp3308
S'0:00:51'
p3309
aV9 + 9/4 + 1 + 9/16 + 9/25
p3310
asS'part3_correct_attempt'
p3311
(lp3312
S'0:00:00'
p3313
aV5 - 5/2 + 5/3 - 5/4 + 1
p3314
asS'part4_incorrect_attempt'
p3315
(lp3316
(S'0:00:00'
p3317
V9 - 9/4 + 1 - 9/16 + 9/25
p3318
tp3319
asg9
V2015-11-03 20:23:56
p3320
ssVdsriniva
p3321
(dp3322
S'part4_correct_attempt'
p3323
(lp3324
S'0:01:22'
p3325
aV9+9/4+1+9/16+9/25
p3326
asS'part3_correct_attempt'
p3327
(lp3328
S'0:01:06'
p3329
aV5-5/2+5/3-5/4+1
p3330
asS'part4_incorrect_attempt'
p3331
(lp3332
(S'0:01:06'
p3333
V9-9/4+1-9/16+9/25
p3334
tp3335
asg9
V2015-11-05 09:25:27
p3336
ssVsayao
p3337
(dp3338
S'part4_correct_attempt'
p3339
(lp3340
S'0:04:19'
p3341
aV9/1+9/4+9/9+9/16+9/25
p3342
asS'part3_correct_attempt'
p3343
(lp3344
S'0:01:01'
p3345
aV3-3/2+3/3-3/4+3/5
p3346
asS'part4_incorrect_attempt'
p3347
(lp3348
(S'0:01:01'
p3349
V9-9/4+9/9-9/16+9/25
p3350
tp3351
a(S'0:01:38'
p3352
V9/1-9/4+9/9-9/16+9/25
p3353
tp3354
asg9
V2015-11-04 01:38:15
p3355
ssVanvan
p3356
(dp3357
S'part4_correct_attempt'
p3358
(lp3359
S'0:01:34'
p3360
aV9 + 9/4 + 1 + 9/16 + 9/25
p3361
asS'part3_correct_attempt'
p3362
(lp3363
S'0:00:45'
p3364
ag2029
asS'part4_incorrect_attempt'
p3365
(lp3366
(S'0:01:17'
p3367
V9 - 9/4 + 1 - 9/16 + 9/25
p3368
tp3369
asg9
g2035
ssVflhernan
p3370
(dp3371
S'part4_correct_attempt'
p3372
(lp3373
S'0:02:55'
p3374
aV10 + 10/(2^2) + 10/(3^2) + 10/(4^2) + 10/(5^2)
p3375
asS'part3_correct_attempt'
p3376
(lp3377
S'0:02:17'
p3378
aV3/1 - 3/2 + 3/3 - 3/4 + 3/5
p3379
asS'part4_incorrect_attempt'
p3380
(lp3381
(S'0:02:37'
p3382
V10 - 10/(2^2) + 10/(3^2) - 10/(4^2) + 10/(5^2)
p3383
tp3384
asg9
V2015-11-03 19:34:53
p3385
ssVa2ahmed
p3386
(dp3387
S'part4_correct_attempt'
p3388
(lp3389
S'0:02:13'
p3390
aV36883/3600
p3391
asS'part3_correct_attempt'
p3392
(lp3393
S'0:01:45'
p3394
aV47/15
p3395
asS'part4_incorrect_attempt'
p3396
(lp3397
(S'0:01:45'
p3398
V22267/3600
p3399
tp3400
asg9
V2015-11-07 00:42:10
p3401
ssVstarinia
p3402
(dp3403
S'part4_correct_attempt'
p3404
(lp3405
S'0:00:48'
p3406
aV7 + 7/4 + 7/9 + 7/16 + 7/25
p3407
asS'part3_correct_attempt'
p3408
(lp3409
S'0:00:00'
p3410
aV5 - 5/2 + 5/3 - 5/4 + 1
p3411
asS'part4_incorrect_attempt'
p3412
(lp3413
(S'0:00:00'
p3414
V7 - 7/4 + 7/9 - 7/16 + 7/25
p3415
tp3416
a(S'0:00:26'
p3417
V7 + 7/4 - 7/9 + 7/16 - 7/25
p3418
tp3419
asg9
V2015-11-05 03:08:44
p3420
ssVm8woo
p3421
(dp3422
S'part4_correct_attempt'
p3423
(lp3424
S'0:00:47'
p3425
aV[10/1 + 10/4 + 10/9 + 10/16 + 10/25]
p3426
asS'part3_correct_attempt'
p3427
(lp3428
S'0:00:00'
p3429
ag2152
asS'part4_incorrect_attempt'
p3430
(lp3431
(S'0:00:00'
p3432
V[3/1 + 3/4 + 3/9 + 3/16 + 3/25]
p3433
tp3434
asg9
g2158
ssVakg009
p3435
(dp3436
S'part4_correct_attempt'
p3437
(lp3438
S'0:03:03'
p3439
aV(6/1+6/4+6/9+6/16+6/25)
p3440
asS'part3_correct_attempt'
p3441
(lp3442
S'0:00:52'
p3443
aV(1-1/2+1/3-1/4+1/5)
p3444
asS'part4_incorrect_attempt'
p3445
(lp3446
(S'0:01:08'
p3447
V6/1-6/4+6/9-6/16+6/25
p3448
tp3449
a(S'0:02:10'
p3450
V(6/1-6/4+6/9-6/16+6/25)
p3451
tp3452
asg9
V2015-11-06 21:00:56
p3453
ssVjag028
p3454
(dp3455
S'part4_correct_attempt'
p3456
(lp3457
S'0:07:06'
p3458
aV9+(-1)^2(9/4)+1+(-1)^2(9/16)+9/25
p3459
asS'part3_correct_attempt'
p3460
(lp3461
S'0:02:46'
p3462
aV2-1+2/3-2/4+2/5
p3463
asS'part4_incorrect_attempt'
p3464
(lp3465
(S'0:03:20'
p3466
V9-9/4+1-9/16+9/25
p3467
tp3468
asg9
V2015-11-02 22:57:47
p3469
ssVccn001
p3470
(dp3471
S'part4_correct_attempt'
p3472
(lp3473
S'0:00:50'
p3474
aV10+(10/4)+(10/9)+(10/16)+(10/25)
p3475
asS'part3_correct_attempt'
p3476
(lp3477
S'0:00:00'
p3478
aV(4-2+(4/3)-(4/4)+(4/5))
p3479
asS'part4_incorrect_attempt'
p3480
(lp3481
(S'0:00:00'
p3482
V10-(10/4)+(10/9)-(10/16)+(10/25)
p3483
tp3484
asg9
V2015-11-02 19:36:06
p3485
ssVabjara
p3486
(dp3487
S'part4_correct_attempt'
p3488
(lp3489
S'0:02:07'
p3490
aV6 + 6/4 + 6/9 + 6/16 + 6/25
p3491
asS'part3_correct_attempt'
p3492
(lp3493
S'0:01:18'
p3494
aV5 - 2.5 + 5/3 - 5/4 + 1
p3495
asS'part4_incorrect_attempt'
p3496
(lp3497
(S'0:01:18'
p3498
V6 - 6/4 + 6/9 - 6/16 + 6/25
p3499
tp3500
asg9
g2718
ssVcprafull
p3501
(dp3502
S'part4_correct_attempt'
p3503
(lp3504
S'0:05:54'
p3505
aV10/1 + 10/4 + 10/9 + 10/16 + 10/25
p3506
asS'part3_correct_attempt'
p3507
(lp3508
S'0:03:30'
p3509
aV5 - 5/2 + 5/3 - 5/4 + 1
p3510
asS'part4_incorrect_attempt'
p3511
(lp3512
(S'0:05:32'
p3513
V10/1 - 10/4 + 10/9 - 10/16 + 10/25
p3514
tp3515
asg9
V2015-11-05 08:48:35
p3516
ssVkrau
p3517
(dp3518
S'part4_correct_attempt'
p3519
(lp3520
S'0:02:00'
p3521
aV8/1+8/4+8/9+8/16+8/25
p3522
asS'part3_correct_attempt'
p3523
(lp3524
S'0:00:22'
p3525
ag1804
asS'part4_incorrect_attempt'
p3526
(lp3527
(S'0:00:22'
p3528
V8/1-8/4+8/9-8/16+8/25
p3529
tp3530
asg9
g1810
ssVpsable
p3531
(dp3532
S'part4_correct_attempt'
p3533
(lp3534
S'0:02:49'
p3535
aV36883/3600
p3536
asS'part3_correct_attempt'
p3537
(lp3538
S'0:01:28'
p3539
aV47/60
p3540
asS'part4_incorrect_attempt'
p3541
(lp3542
(S'0:02:04'
p3543
V21133/3600
p3544
tp3545
asg9
V2015-11-06 00:23:39
p3546
ssVtpmach
p3547
(dp3548
S'part4_correct_attempt'
p3549
(lp3550
S'0:03:23'
p3551
aV10/1+(-1)^2*(10/4)+10/9+(-1)^2*(10/16)+10/25
p3552
asS'part3_correct_attempt'
p3553
(lp3554
S'0:01:53'
p3555
ag1891
asS'part4_incorrect_attempt'
p3556
(lp3557
(S'0:02:16'
p3558
V10/1-10/4+10/9-10/16+10/25
p3559
tp3560
asg9
g1897
ssVdwzhang
p3561
(dp3562
S'part4_correct_attempt'
p3563
(lp3564
S'0:04:01'
p3565
aV7/1 + 7/4 + 7/9 + 7/16 + 7/25
p3566
asS'part3_correct_attempt'
p3567
(lp3568
S'0:02:23'
p3569
aV3/1 - 3/2 + 3/3 - 3/4 + 3/5
p3570
asS'part4_incorrect_attempt'
p3571
(lp3572
(S'0:02:23'
p3573
V7/1 - 7/4 + 7/9 - 7/16 + 7/25
p3574
tp3575
asg9
g2399
ssVdis003
p3576
(dp3577
S'part4_correct_attempt'
p3578
(lp3579
S'0:02:47'
p3580
aV8/1**2 + 8/2**2 + 8/3**2 + 8/4**2 + 8/5**2
p3581
asS'part3_correct_attempt'
p3582
(lp3583
S'0:02:13'
p3584
aV2/1 - 2/2 + 2/3 - 2/4 + 2/5
p3585
asS'part4_incorrect_attempt'
p3586
(lp3587
(S'0:02:13'
p3588
V8/1**2 - 8/2**2 + 8/3**2 - 8/4**2 + 8/5**2
p3589
tp3590
asg9
V2015-11-05 21:51:39
p3591
ssVrraiyyan
p3592
(dp3593
S'part4_correct_attempt'
p3594
(lp3595
S'0:08:30'
p3596
aV(8 + 8/4 + 8/9 + 8/16 + 8/25)
p3597
asS'part3_correct_attempt'
p3598
(lp3599
S'0:03:18'
p3600
aV5*(1-1/2+1/3-1/4+1/5)
p3601
asS'part4_incorrect_attempt'
p3602
(lp3603
(S'0:03:18'
p3604
V(8 - 8/4 + 8/9 - 8/16 + 8/25)
p3605
tp3606
a(S'0:07:16'
p3607
V(8 - 8/4 + 8/9 - 8/16 + 8/25)
p3608
tp3609
asg9
V2015-11-06 23:21:00
p3610
ssVjhw015
p3611
(dp3612
S'part4_correct_attempt'
p3613
(lp3614
S'0:04:10'
p3615
aV8 + (8/4) + (8/9) + (8/16) + (8/25)
p3616
asS'part3_correct_attempt'
p3617
(lp3618
S'0:02:31'
p3619
aV2 - 1 + (2/3) - (2/4) + (2/5)
p3620
asS'part4_incorrect_attempt'
p3621
(lp3622
(S'0:03:08'
p3623
V8 - (8/4) + (8/9) - (8/16) + (8/25)
p3624
tp3625
asg9
V2015-11-04 01:49:42
p3626
ssVt1tran
p3627
(dp3628
S'part4_correct_attempt'
p3629
(lp3630
S'0:31:20'
p3631
aV(6/1^2+6/2^2+6/3^2+6/4^2+6/5^2)
p3632
asS'part3_correct_attempt'
p3633
(lp3634
S'0:30:51'
p3635
aV(4/1-4/2+4/3-4/4+4/5)
p3636
asS'part4_incorrect_attempt'
p3637
(lp3638
(S'0:30:51'
p3639
V(6/1^2-6/2^2+6/3^2-6/4^2+6/5^2)
p3640
tp3641
asg9
V2015-11-03 18:14:54
p3642
ssVdsmonaha
p3643
(dp3644
S'part4_correct_attempt'
p3645
(lp3646
S'0:08:34'
p3647
aV5269/600
p3648
asS'part3_correct_attempt'
p3649
(lp3650
S'0:04:43'
p3651
aV47/12
p3652
asS'part4_incorrect_attempt'
p3653
(lp3654
(S'0:04:43'
p3655
V3019/600
p3656
tp3657
asg9
g2444
ssVhmnaing
p3658
(dp3659
S'part4_correct_attempt'
p3660
(lp3661
S'0:01:17'
p3662
aV(9/1)+(9/4)+ (9/9) + (9/16)+ (9/25)
p3663
asS'part3_correct_attempt'
p3664
(lp3665
S'0:00:48'
p3666
aV3- (3/2)+ (1)- (3/4)+ (3/5)
p3667
asS'part4_incorrect_attempt'
p3668
(lp3669
(S'0:00:48'
p3670
V(9/1)-(9/4)+ (9/9) - (9/16)+ (9/25)
p3671
tp3672
asg9
V2015-11-04 19:06:41
p3673
ssVedescobe
p3674
(dp3675
S'part4_correct_attempt'
p3676
(lp3677
S'0:39:13'
p3678
aV7+7/4+7/9+7/16+7/25
p3679
asS'part3_correct_attempt'
p3680
(lp3681
S'0:31:28'
p3682
aV5-5/2+5/3-5/4+1
p3683
asS'part4_incorrect_attempt'
p3684
(lp3685
(S'0:31:28'
p3686
V7-7/4+7/9-7/16+7/25
p3687
tp3688
asg9
V2015-11-01 09:11:23
p3689
ssVmuy002
p3690
(dp3691
S'part4_correct_attempt'
p3692
(lp3693
S'0:03:01'
p3694
aV10+10/4+10/9+10/16+10/25
p3695
asS'part3_correct_attempt'
p3696
(lp3697
S'0:02:39'
p3698
aV4-4/2+4/3-4/4+4/5
p3699
asS'part4_incorrect_attempt'
p3700
(lp3701
(S'0:02:39'
p3702
V10-10/4+10/9-10/16+10/25
p3703
tp3704
asg9
V2015-11-06 00:10:53
p3705
ssVcstringh
p3706
(dp3707
S'part4_correct_attempt'
p3708
(lp3709
S'0:10:26'
p3710
aV8*(1+1/4+1/9+1/16+1/25)
p3711
asS'part3_correct_attempt'
p3712
(lp3713
S'0:00:40'
p3714
aV5-(5/2)+5/3-5/4+1
p3715
asS'part4_incorrect_attempt'
p3716
(lp3717
(S'0:03:33'
p3718
V8-2+8/9-1/2+8/25
p3719
tp3720
asg9
V2015-11-04 06:44:53
p3721
ssVaurodrig
p3722
(dp3723
S'part4_correct_attempt'
p3724
(lp3725
S'0:17:25'
p3726
aV10/1 + 10/4 + 10/9 + 10/16 + 10/25
p3727
asS'part3_correct_attempt'
p3728
(lp3729
S'0:11:15'
p3730
ag2017
asS'part4_incorrect_attempt'
p3731
(lp3732
(S'0:13:40'
p3733
V10/(1^2) - 10/((2)^2) + 10/((3)^2) - 10/((4)^2) + 10/((5)^2)
p3734
tp3735
asg9
g2023
ssVdcastlem
p3736
(dp3737
S'part4_correct_attempt'
p3738
(lp3739
S'0:10:56'
p3740
aV6+6/4+6/9+6/16+6/25
p3741
asS'part3_correct_attempt'
p3742
(lp3743
S'0:03:33'
p3744
aV1-1/2+1/3-1/4+1/5
p3745
asS'part4_incorrect_attempt'
p3746
(lp3747
(S'0:04:10'
p3748
V6-6/4+6/9-6/16+6/25
p3749
tp3750
a(S'0:07:09'
p3751
V6-(6/4)+6/9-(6/16)+6/25
p3752
tp3753
a(S'0:07:56'
p3754
V6-6/4+6/9-6/16+6/25
p3755
tp3756
asg9
V2015-11-02 22:00:47
p3757
ssVbkoli
p3758
(dp3759
S'part4_correct_attempt'
p3760
(lp3761
S'0:02:19'
p3762
aV(6/1+6/4+6/9+6/16+6/25)
p3763
asS'part3_correct_attempt'
p3764
(lp3765
S'0:00:20'
p3766
aV(2/1-2/2+2/3-2/4+2/5)
p3767
asS'part4_incorrect_attempt'
p3768
(lp3769
(S'0:02:07'
p3770
V(6/1-6/4+6/9-6/16+6/25)
p3771
tp3772
asg9
V2015-11-05 22:46:52
p3773
ssVxil109
p3774
(dp3775
S'part4_correct_attempt'
p3776
(lp3777
S'0:03:03'
p3778
aV10/1+10/4+10/9+10/16+10/25
p3779
asS'part3_correct_attempt'
p3780
(lp3781
S'0:00:40'
p3782
aV2/1-2/2+2/3-2/4+2/5
p3783
asS'part4_incorrect_attempt'
p3784
(lp3785
(S'0:02:27'
p3786
V10/1-10/4+10/9-10/16+10/25
p3787
tp3788
asg9
V2015-11-05 04:00:40
p3789
ssVyil035
p3790
(dp3791
S'part4_correct_attempt'
p3792
(lp3793
S'0:03:11'
p3794
aV5269/450
p3795
asS'part3_correct_attempt'
p3796
(lp3797
S'0:00:00'
p3798
ag2140
asS'part4_incorrect_attempt'
p3799
(lp3800
(S'0:02:10'
p3801
V6169/450
p3802
tp3803
asg9
g2146
ssVk3tan
p3804
(dp3805
S'part4_correct_attempt'
p3806
(lp3807
S'0:03:28'
p3808
aV10 +10/4+10/9 + 10/16 + 10/25
p3809
asS'part3_correct_attempt'
p3810
(lp3811
S'0:02:08'
p3812
aV1+4/3+4/5
p3813
asS'part4_incorrect_attempt'
p3814
(lp3815
(S'0:02:41'
p3816
V10-10/4+10/9 - 10/16 + 10/25
p3817
tp3818
asg9
V2015-11-04 01:49:58
p3819
ssVjyc018
p3820
(dp3821
S'part4_correct_attempt'
p3822
(lp3823
S'0:01:58'
p3824
aV8+2+8/9+1/2+8/25
p3825
asS'part3_correct_attempt'
p3826
(lp3827
S'0:00:51'
p3828
aV4-2+4/3-1+4/5
p3829
asS'part4_incorrect_attempt'
p3830
(lp3831
(S'0:01:03'
p3832
V8-2+8/9-1/2+8/25
p3833
tp3834
a(S'0:01:51'
p3835
V4-2+4/3-1+4/5
p3836
tp3837
asg9
V2015-11-04 18:49:56
p3838
ssVlpettit
p3839
(dp3840
S'part4_correct_attempt'
p3841
(lp3842
S'0:05:22'
p3843
aV7 + 7/4 + 7/9 + 7/16 + 7/25
p3844
asS'part3_correct_attempt'
p3845
(lp3846
S'0:01:51'
p3847
aV1 - 1/2 + 1/3 -1/4 + 1/5
p3848
asS'part4_incorrect_attempt'
p3849
(lp3850
(S'0:01:51'
p3851
V7 - 7/4 + 7/9 - 7/16 + 7/25
p3852
tp3853
a(S'0:04:53'
p3854
V((7 - .783333)^2 + (.5- .783333)^2 + ((1/3)- .783333)^2 + (.25- .783333)^2 + ((1/5)- .783333)^2)/5
p3855
tp3856
asg9
g2647
ssVlywong
p3857
(dp3858
S'part4_correct_attempt'
p3859
(lp3860
S'0:03:18'
p3861
aV10+ (10/4)+(10/9)+(10/16)+(10/25)
p3862
asS'part3_correct_attempt'
p3863
(lp3864
S'0:00:55'
p3865
aV2 - 1 + (2/3) - (1/2) + (2/5)
p3866
asS'part4_incorrect_attempt'
p3867
(lp3868
(S'0:00:55'
p3869
V10-(10/4)+(10/9)-(10/16)+(10/25)
p3870
tp3871
asg9
V2015-11-04 07:24:45
p3872
ssVkebao
p3873
(dp3874
S'part4_correct_attempt'
p3875
(lp3876
S'0:01:35'
p3877
aV8+8/4+8/9+8/16+8/25
p3878
asS'part3_correct_attempt'
p3879
(lp3880
S'0:00:53'
p3881
aV2-2/2+2/3-2/4+2/5
p3882
asS'part4_incorrect_attempt'
p3883
(lp3884
(S'0:00:53'
p3885
V8-8/4+8/9-8/16+8/25
p3886
tp3887
asg9
V2015-11-05 21:34:22
p3888
ssVhkhodada
p3889
(dp3890
S'part4_correct_attempt'
p3891
(lp3892
S'0:02:03'
p3893
aV10+10/4+10/9+10/16+10/25
p3894
asS'part3_correct_attempt'
p3895
(lp3896
S'0:00:00'
p3897
ag1750
asS'part4_incorrect_attempt'
p3898
(lp3899
(S'0:01:01'
p3900
V10-10/2+10/3-10/4+10/5
p3901
tp3902
a(S'0:01:39'
p3903
V10+10/2+10/3+10/4+10/5
p3904
tp3905
asg9
g1756
ssVglcohen
p3906
(dp3907
S'part4_correct_attempt'
p3908
(lp3909
S'4:56:12'
p3910
aV(7/(1^2))+(7/(2^2))+(7/(3^2))+(7/(4^2))+(7/(5^2))
p3911
asS'part3_correct_attempt'
p3912
(lp3913
S'0:01:54'
p3914
aV(3/1)-(3/2)+(3/3)-(3/4)+(3/5)
p3915
asS'part4_incorrect_attempt'
p3916
(lp3917
(S'0:01:54'
p3918
V(7/(1^2))-(7/(2^2))+(7/(3^2))-(7/(4^2))+(7/(5^2))
p3919
tp3920
a(S'0:14:55'
p3921
V(7/(1^2))+(-(7/(2^2)))+(7/(3^2))+(-(7/(4^2)))+(7/(5^2))
p3922
tp3923
a(S'0:17:21'
p3924
V(7/(1^2))-(7/(2^2))+(7/(3^2))-(7/(4^2))+(7/(5^2))
p3925
tp3926
asg9
V2015-11-03 16:57:25
p3927
ssVachava
p3928
(dp3929
S'part4_correct_attempt'
p3930
(lp3931
S'0:32:32'
p3932
aV8+(8/4)+(8/9)+(8/16)+(8/25)
p3933
asS'part3_correct_attempt'
p3934
(lp3935
S'0:02:00'
p3936
aV3-(3/2)+(1)-(3/4)+(3/5)
p3937
asS'part4_incorrect_attempt'
p3938
(lp3939
(S'0:32:19'
p3940
V3-(3/2)+(1)-(3/4)+(3/5)
p3941
tp3942
asg9
g2258
ssVpvl001
p3943
(dp3944
S'part4_correct_attempt'
p3945
(lp3946
S'0:01:04'
p3947
aV9 + (9/4) + 1 + (9/16) + (9/25)
p3948
asS'part3_correct_attempt'
p3949
(lp3950
S'0:00:46'
p3951
aV2 - 1 + (2/3) - (2/4) + (2/5)
p3952
asS'part4_incorrect_attempt'
p3953
(lp3954
(S'0:00:46'
p3955
V9 - (9/4) + 1 - (9/16) + (9/25)
p3956
tp3957
asg9
V2015-11-03 18:19:03
p3958
ssVt2li
p3959
(dp3960
S'part4_correct_attempt'
p3961
(lp3962
S'0:04:15'
p3963
aV7+7/4+7/9+7/16+7/25
p3964
asS'part3_correct_attempt'
p3965
(lp3966
S'0:01:32'
p3967
aV4-2+4/3-1+4/5
p3968
asS'part4_incorrect_attempt'
p3969
(lp3970
(S'0:01:32'
p3971
V7-7/4+7/9-7/16+7/25
p3972
tp3973
asg9
V2015-11-06 02:40:30
p3974
ssVn2patil
p3975
(dp3976
S'part4_correct_attempt'
p3977
(lp3978
S'0:28:42'
p3979
aV10.245
p3980
asS'part3_correct_attempt'
p3981
(lp3982
S'0:24:24'
p3983
aV3.133
p3984
asS'part4_incorrect_attempt'
p3985
(lp3986
(S'0:27:11'
p3987
V5.87
p3988
tp3989
asg9
g2796
ssVttimmons
p3990
(dp3991
S'part4_correct_attempt'
p3992
(lp3993
S'0:00:17'
p3994
aV(6/1)+(6/4)+(6/9)+(6/16)+(6/25)
p3995
asS'part3_correct_attempt'
p3996
(lp3997
S'0:00:00'
p3998
aV5/1-5/2+5/3-5/4+1
p3999
asS'part4_incorrect_attempt'
p4000
(lp4001
(S'0:00:00'
p4002
V(6/1)-(6/4)+(6/9)-(6/16)+(6/25)
p4003
tp4004
asg9
V2015-11-02 03:51:12
p4005
ssVagian
p4006
(dp4007
S'part4_correct_attempt'
p4008
(lp4009
S'0:01:49'
p4010
aV(1+1/4+1/9+1/16+1/25)*10
p4011
asS'part3_correct_attempt'
p4012
(lp4013
S'0:01:14'
p4014
aV(1-1/2+1/3-1/4+1/5)*2
p4015
asS'part4_incorrect_attempt'
p4016
(lp4017
(S'0:01:30'
p4018
V(1-1/4+1/9-1/16+1/25)*10
p4019
tp4020
asg9
g2414
ssVaakumar
p4021
(dp4022
S'part4_correct_attempt'
p4023
(lp4024
S'0:01:31'
p4025
aV6+6/4+6/9+6/16+6/25
p4026
asS'part3_correct_attempt'
p4027
(lp4028
S'0:01:03'
p4029
aV2-1+2/3-2/4+2/5
p4030
asS'part4_incorrect_attempt'
p4031
(lp4032
(S'0:01:21'
p4033
V6-6/4+6/9-6/16+6/25
p4034
tp4035
asg9
g2887
ssVhachrist
p4036
(dp4037
S'part4_correct_attempt'
p4038
(lp4039
S'0:06:41'
p4040
aV7 + 7/4 + 7/9 + 7/16 + 7/25
p4041
asS'part3_correct_attempt'
p4042
(lp4043
S'0:00:58'
p4044
aV4 - 2 + 4/3 - 1 + 4/5
p4045
asS'part4_incorrect_attempt'
p4046
(lp4047
(S'0:01:49'
p4048
V7 - 7/4 + 7/9 - 7/16 + 7/25
p4049
tp4050
asg9
V2015-11-03 21:16:33
p4051
ssVkew017
p4052
(dp4053
S'part4_correct_attempt'
p4054
(lp4055
S'0:03:34'
p4056
aV7/1+7/4+7/9+7/16+7/25
p4057
asS'part3_correct_attempt'
p4058
(lp4059
S'0:02:56'
p4060
aV4-2+4/3-1+4/5
p4061
asS'part4_incorrect_attempt'
p4062
(lp4063
(S'0:02:56'
p4064
V7/1-7/4+7/9-7/16+7/25
p4065
tp4066
asg9
V2015-11-05 22:49:02
p4067
ssVq3wen
p4068
(dp4069
S'part4_correct_attempt'
p4070
(lp4071
S'0:01:01'
p4072
aV5269/400
p4073
asS'part3_correct_attempt'
p4074
(lp4075
S'0:00:00'
p4076
aV47/60
p4077
asS'part4_incorrect_attempt'
p4078
(lp4079
(S'0:00:00'
p4080
V7.5475
p4081
tp4082
asg9
V2015-11-04 21:07:59
p4083
ssVyeh013
p4084
(dp4085
S'part4_correct_attempt'
p4086
(lp4087
S'2:24:02'
p4088
aV7+7/4+7/9+7/16+7/25
p4089
asS'part3_correct_attempt'
p4090
(lp4091
S'2:23:34'
p4092
aV4-2+4/3-1+4/5
p4093
asS'part4_incorrect_attempt'
p4094
(lp4095
(S'2:23:49'
p4096
V7-7/4+7/9-7/16+7/25
p4097
tp4098
asg9
V2015-11-05 03:31:53
p4099
ssVhaliew
p4100
(dp4101
S'part4_correct_attempt'
p4102
(lp4103
S'0:04:42'
p4104
aV(6/1^2)+(6/2^2)+(6/3^2)+(6/4^2)+(6/5^2)
p4105
asS'part3_correct_attempt'
p4106
(lp4107
S'0:03:56'
p4108
aV(2/1)-(2/2)+(2/3)-(2/4)+(2/5)
p4109
asS'part4_incorrect_attempt'
p4110
(lp4111
(S'0:03:56'
p4112
V(6/1^2)-(6/2^2)+(6/3^2)-(6/4^2)+(6/5^2)
p4113
tp4114
asg9
V2015-11-07 00:22:41
p4115
ssVarvenega
p4116
(dp4117
S'part4_correct_attempt'
p4118
(lp4119
S'0:04:09'
p4120
aV(10/1^2) + (10/2^2) + (10/3^2) + (10/4^2) + (10/5^2)
p4121
asS'part3_correct_attempt'
p4122
(lp4123
S'0:02:42'
p4124
aV(2/1) - (2/2) + (2/3) - (2/4) + (2/5)
p4125
asS'part4_incorrect_attempt'
p4126
(lp4127
(S'0:02:42'
p4128
V(10/1^2) - (10/2^2) + (10/3^2) - (10/4^2) + (10/5^2)
p4129
tp4130
asg9
V2015-11-05 00:24:50
p4131
ssVksrijong
p4132
(dp4133
S'part4_correct_attempt'
p4134
(lp4135
S'0:02:03'
p4136
aV8/1+8/4+8/9+8/16+8/25
p4137
asS'part3_correct_attempt'
p4138
(lp4139
S'0:01:32'
p4140
aV4-2+4/3-1+4/5
p4141
asS'part4_incorrect_attempt'
p4142
(lp4143
(S'0:01:32'
p4144
V8/1-8/4+8/9-8/16+8/25
p4145
tp4146
asg9
V2015-11-04 23:10:06
p4147
ssVatorr
p4148
(dp4149
S'part4_correct_attempt'
p4150
(lp4151
S'0:01:54'
p4152
aV6 + (6/4) + (6/9) + (6/16) + (6/25)
p4153
asS'part3_correct_attempt'
p4154
(lp4155
S'0:01:05'
p4156
aV5 - (5/2) + (5/3) - (5/4) + 1
p4157
asS'part4_incorrect_attempt'
p4158
(lp4159
(S'0:01:05'
p4160
V6 - (6/4) + (6/9) - (6/16) + (6/25)
p4161
tp4162
a(S'0:01:27'
p4163
V6 - (6/4) + (6/9) + (6/16) + (6/25)
p4164
tp4165
a(S'0:01:36'
p4166
V6 - (6/4) + (6/9) - (6/16) + (6/25)
p4167
tp4168
asg9
V2015-11-05 20:05:29
p4169
ssVralhadda
p4170
(dp4171
S'part3_correct_attempt'
p4172
(lp4173
S'4:38:43'
p4174
ag2128
asS'part4_incorrect_attempt'
p4175
(lp4176
(S'4:40:16'
p4177
V8.38611
p4178
tp4179
asg9
g2134
ssVcagatep
p4180
(dp4181
S'part4_correct_attempt'
p4182
(lp4183
S'0:02:24'
p4184
aV(8 + 2 + 8/9 + 1/2 + 8/25)
p4185
asS'part3_correct_attempt'
p4186
(lp4187
S'0:01:54'
p4188
aV(1 - 1/2 + 1/3 - 1/4 + 1/5)
p4189
asS'part4_incorrect_attempt'
p4190
(lp4191
(S'0:01:54'
p4192
V(8 - 2 + 8/9 - 1/2 + 8/25)
p4193
tp4194
asg9
g2603
ssVytc012
p4195
(dp4196
S'part4_correct_attempt'
p4197
(lp4198
S'0:01:23'
p4199
aV8+2+8/9+8/16+8/25
p4200
asS'part3_correct_attempt'
p4201
(lp4202
S'0:00:44'
p4203
aV2-1+2/3-2/4+2/5
p4204
asS'part4_incorrect_attempt'
p4205
(lp4206
(S'0:00:56'
p4207
V8-2+8/9-8/16+8/25
p4208
tp4209
asg9
g2945
ssVdmn009
p4210
(dp4211
S'part4_correct_attempt'
p4212
(lp4213
S'0:29:34'
p4214
aV13.1725
p4215
asS'part3_correct_attempt'
p4216
(lp4217
S'0:24:28'
p4218
aV3.1333
p4219
asS'part4_incorrect_attempt'
p4220
(lp4221
(S'0:28:00'
p4222
V7.54
p4223
tp4224
a(S'0:28:06'
p4225
V7.5475
p4226
tp4227
asg9
V2015-11-05 03:33:17
p4228
ssVkquong
p4229
(dp4230
S'part4_correct_attempt'
p4231
(lp4232
S'0:06:28'
p4233
aV10 +10/4 + 10/9 + 10/16 + 10/25
p4234
asS'part3_correct_attempt'
p4235
(lp4236
S'0:06:00'
p4237
aV4 - 2 + 4/3 - 1 + 4/5
p4238
asS'part4_incorrect_attempt'
p4239
(lp4240
(S'0:06:00'
p4241
V10 - 10/4 + 10/9 - 10/16 + 10/25
p4242
tp4243
asg9
V2015-11-02 05:16:14
p4244
ssVppanourg
p4245
(dp4246
S'part4_correct_attempt'
p4247
(lp4248
S'0:02:13'
p4249
aV8/1 + 8/4 + 8/9 + 8/16 + 8/25
p4250
asS'part3_correct_attempt'
p4251
(lp4252
S'0:01:38'
p4253
aV2/1 - 2/2 + 2/3 - 2/4 + 2/5
p4254
asS'part4_incorrect_attempt'
p4255
(lp4256
(S'0:01:38'
p4257
V8/1 - 8/4 + 8/9 - 8/16 + 8/25
p4258
tp4259
asg9
g2864
ssVqtluong
p4260
(dp4261
S'part4_correct_attempt'
p4262
(lp4263
S'0:02:10'
p4264
aV6+6/4+6/9+6/16+6/25
p4265
asS'part3_correct_attempt'
p4266
(lp4267
S'0:01:15'
p4268
aV2/1-2/2+2/3-2/4+2/5
p4269
asS'part4_incorrect_attempt'
p4270
(lp4271
(S'0:01:15'
p4272
V2/1+2/2+2/3+2/4+2/5
p4273
tp4274
asg9
V2015-11-04 06:21:55
p4275
ssVspw006
p4276
(dp4277
S'part4_correct_attempt'
p4278
(lp4279
S'0:40:24'
p4280
aV(10/1 + 10/4 + 10/9 + 10/16 + 10/25)
p4281
asS'part3_correct_attempt'
p4282
(lp4283
S'0:00:45'
p4284
aV(5/1 - 5/2 + 5/3 - 5/4 + 5/5)
p4285
asS'part4_incorrect_attempt'
p4286
(lp4287
(S'0:01:50'
p4288
V(10/1 - 10/4 + 10/9 - 10/16 + 10/25)
p4289
tp4290
asg9
V2015-11-04 02:41:54
p4291
ssVany027
p4292
(dp4293
S'part4_correct_attempt'
p4294
(lp4295
S'0:02:02'
p4296
aV(10/1) + (10/4) + (10/9) + (10/16) + (10/25)
p4297
asS'part3_correct_attempt'
p4298
(lp4299
S'0:01:16'
p4300
aV(4/1) - ( 4/2) + (4/3) - (4/4) + (4/5)
p4301
asS'part4_incorrect_attempt'
p4302
(lp4303
(S'0:01:16'
p4304
V(10/1) - (10/4) + (10/9) - (10/16) + (10/25)
p4305
tp4306
a(S'0:01:47'
p4307
V(10/1) + (10/4) + (10/9) - (10/16) + (10/25)
p4308
tp4309
asg9
V2015-11-01 20:32:06
p4310
ssVpcdo
p4311
(dp4312
S'part4_correct_attempt'
p4313
(lp4314
S'0:01:47'
p4315
aV9*(1+1/4+1/9+1/16+1/25)
p4316
asS'part3_correct_attempt'
p4317
(lp4318
S'0:01:06'
p4319
aV3*(1-1/2+1/3-1/4+1/5)
p4320
asS'part4_incorrect_attempt'
p4321
(lp4322
(S'0:01:06'
p4323
V9*(1-1/2+1/3-1/4+1/5)
p4324
tp4325
asg9
V2015-11-02 18:49:41
p4326
ssVk5law
p4327
(dp4328
S'part4_correct_attempt'
p4329
(lp4330
S'0:13:43'
p4331
aV(7/((1)^2))+(7/((2)^2))+(7/((3)^2))+(7/((4)^2))+(7/((5)^2))
p4332
asS'part3_correct_attempt'
p4333
(lp4334
S'0:09:26'
p4335
aV[(5/1)-(5/2)+(5/3)-(5/4)+(5/5)]
p4336
asS'part4_incorrect_attempt'
p4337
(lp4338
(S'0:12:54'
p4339
V(7/((1)^2))-(7/((2)^2))+(7/((3)^2))-(7/((4)^2))+(7/((5)^2))
p4340
tp4341
asg9
g2288
ssVamquinte
p4342
(dp4343
S'part4_correct_attempt'
p4344
(lp4345
S'0:04:12'
p4346
aV10.245
p4347
asS'part3_correct_attempt'
p4348
(lp4349
S'0:00:58'
p4350
aV3.133333
p4351
asS'part4_incorrect_attempt'
p4352
(lp4353
(S'0:03:24'
p4354
V5.870
p4355
tp4356
asg9
V2015-11-06 23:12:40
p4357
ssVjmiclat
p4358
(dp4359
S'part4_correct_attempt'
p4360
(lp4361
S'0:00:53'
p4362
aV7/1+7/4+7/9+7/16+7/25
p4363
asS'part3_correct_attempt'
p4364
(lp4365
S'0:00:42'
p4366
aV2/1-2/2+2/3-2/4+2/5
p4367
asS'part4_incorrect_attempt'
p4368
(lp4369
(S'0:00:42'
p4370
V7/1-7/4+7/9-7/16+7/25
p4371
tp4372
asg9
V2015-11-06 09:29:36
p4373
ssVsyc078
p4374
(dp4375
S'part4_correct_attempt'
p4376
(lp4377
S'1 day, 16:03:30'
p4378
aV(7/1)+(7/4)+(7/9)+(7/16)+(7/25)
p4379
asS'part3_correct_attempt'
p4380
(lp4381
S'0:00:20'
p4382
aV1-(1/2)+(1/3)-(1/4)+(1/5)
p4383
asS'part4_incorrect_attempt'
p4384
(lp4385
(S'0:01:49'
p4386
V(7/1)-(7/4)+(7/9)-(7/16)+(7/25)
p4387
tp4388
asg9
V2015-11-05 04:34:52
p4389
ssVcfgutier
p4390
(dp4391
S'part4_correct_attempt'
p4392
(lp4393
S'1:27:03'
p4394
aV7 + 7/4 + 7/9 + 7/16 + 7/25
p4395
asS'part3_correct_attempt'
p4396
(lp4397
S'1:25:59'
p4398
aV4/1 - 4/2 + 4/3 - 4/4 + 4/5
p4399
asS'part4_incorrect_attempt'
p4400
(lp4401
(S'1:26:09'
p4402
V7 + 7/4 - 7/9 + 7/16 - 7/25
p4403
tp4404
a(S'1:26:46'
p4405
V7 - 7/4 + 7/9 - 7/16 + 7/25
p4406
tp4407
asg9
V2015-11-06 18:23:18
p4408
ssVagarango
p4409
(dp4410
S'part4_correct_attempt'
p4411
(lp4412
S'0:03:22'
p4413
aV(7/1)+(7/4)+(7/9)+(7/16)+(7/25)
p4414
asS'part3_correct_attempt'
p4415
(lp4416
S'0:01:33'
p4417
aV(1/1)-(1/2)+(1/3)-(1/4)+(1/5)
p4418
asS'part4_incorrect_attempt'
p4419
(lp4420
(S'0:02:03'
p4421
V(7/1)-(7/4)+(7/9)-(7/16)+(7/25)
p4422
tp4423
asg9
g2338
ssVs6deng
p4424
(dp4425
S'part4_correct_attempt'
p4426
(lp4427
S'0:00:39'
p4428
aV(6/1)+(6/4)+(6/9)+(6/16)+(6/25)
p4429
asS'part3_correct_attempt'
p4430
(lp4431
S'0:00:28'
p4432
aV(3/1)-(3/2)+(3/3)-(3/4)+(3/5)
p4433
asS'part4_incorrect_attempt'
p4434
(lp4435
(S'0:00:28'
p4436
V(6/1)-(6/4)+(6/9)-(6/16)+(6/25)
p4437
tp4438
asg9
V2015-11-05 07:25:26
p4439
ssVaalhaida
p4440
(dp4441
S'part3_correct_attempt'
p4442
(lp4443
S'0:02:01'
p4444
aV3/1 - 3/2 + 3/3 - 3/4 + 3/5
p4445
asS'part4_incorrect_attempt'
p4446
(lp4447
(S'0:02:01'
p4448
V7/1 - 7/2^2 + 7/3^2 - 7/4^2 + 7/5^2
p4449
tp4450
a(S'0:02:53'
p4451
V(7/1) - (7/2^2) + (7/3^2) - (7/4^2) + (7/5^2)
p4452
tp4453
asg9
V2015-11-05 23:43:36
p4454
ssVhah008
p4455
(dp4456
S'part4_correct_attempt'
p4457
(lp4458
S'0:02:41'
p4459
aV(1+1/4+1/9+1/16+1/25) * 9
p4460
asS'part3_correct_attempt'
p4461
(lp4462
S'0:01:57'
p4463
aV(1-1/2+1/3-1/4+1/5) * 5
p4464
asS'part4_incorrect_attempt'
p4465
(lp4466
(S'0:02:13'
p4467
V(1-1/4+1/9-1/16+1/25) * 9
p4468
tp4469
asg9
V2015-11-06 23:00:08
p4470
ssVhmshah
p4471
(dp4472
S'part4_correct_attempt'
p4473
(lp4474
S'0:01:40'
p4475
aV6 + 6/4 + 6/9+ 6/16+ 6/25
p4476
asS'part3_correct_attempt'
p4477
(lp4478
S'0:00:56'
p4479
aV2 - 1 + 2/3 - 2/4 + 2/5
p4480
asS'part4_incorrect_attempt'
p4481
(lp4482
(S'0:01:13'
p4483
V6 - 6/4 + 6/9- 6/16+ 6/25
p4484
tp4485
asg9
V2015-11-05 09:41:00
p4486
ssVdtea
p4487
(dp4488
S'part4_correct_attempt'
p4489
(lp4490
S'0:02:35'
p4491
aV(6/1+6/4+6/9+6/16+6/25)
p4492
asS'part3_correct_attempt'
p4493
(lp4494
S'0:00:46'
p4495
aV4/1-4/2+4/3-4/4+4/5
p4496
asS'part4_incorrect_attempt'
p4497
(lp4498
(S'0:01:19'
p4499
V(6/1-6/4+6/9-6/16+6/25)
p4500
tp4501
asg9
g2933
ssVlahawkin
p4502
(dp4503
S'part4_correct_attempt'
p4504
(lp4505
S'0:06:26'
p4506
aV(6/1)+(6/4)+(6/9)+(6/16)+(6/25)
p4507
asS'part3_correct_attempt'
p4508
(lp4509
S'0:02:03'
p4510
aV(4/1)-(4/2)+(4/3)-(4/4)+(4/5)
p4511
asS'part4_incorrect_attempt'
p4512
(lp4513
(S'0:02:03'
p4514
V(6/1)-(6/4)+(6/9)-(6/16)+(6/25)
p4515
tp4516
a(S'0:05:07'
p4517
V((6/1)-(6/4)+(6/9)-(6/16)+(6/25))/5
p4518
tp4519
a(S'0:05:18'
p4520
V((6/1)-(6/4)+(6/9)-(6/16)+(6/25))/25
p4521
tp4522
asg9
V2015-11-04 04:48:19
p4523
ssVedcole
p4524
(dp4525
S'part4_correct_attempt'
p4526
(lp4527
S'0:02:34'
p4528
aV8/1+8/4+8/9+8/16+8/25
p4529
asS'part3_correct_attempt'
p4530
(lp4531
S'0:01:02'
p4532
aV3-(3/2)+3/3-3/4+3/5
p4533
asS'part4_incorrect_attempt'
p4534
(lp4535
(S'0:01:20'
p4536
V8/1-8/4+8/9-8/16+8/25
p4537
tp4538
asg9
V2015-11-06 23:40:14
p4539
ssVyig015
p4540
(dp4541
S'part4_correct_attempt'
p4542
(lp4543
S'0:04:32'
p4544
aV5269/360
p4545
asS'part3_correct_attempt'
p4546
(lp4547
S'0:04:05'
p4548
aV47/20
p4549
asS'part4_incorrect_attempt'
p4550
(lp4551
(S'0:04:05'
p4552
V3019/360
p4553
tp4554
asg9
V2015-11-05 10:41:11
p4555
ssVc3chung
p4556
(dp4557
S'part4_correct_attempt'
p4558
(lp4559
S'0:03:26'
p4560
aV10+10/4+10/9+10/16+10/25
p4561
asS'part3_correct_attempt'
p4562
(lp4563
S'0:00:22'
p4564
aV2-1+2/3-1/2+2/5
p4565
asS'part4_incorrect_attempt'
p4566
(lp4567
(S'0:00:43'
p4568
V10-10/4+10/9-10/16+10/25
p4569
tp4570
asg9
V2015-11-06 10:56:06
p4571
ssVajvanega
p4572
(dp4573
S'part4_correct_attempt'
p4574
(lp4575
S'1 day, 17:28:43'
p4576
aV(8)+(8/4)+(8/9)+(8/16)+(8/25)
p4577
asS'part3_correct_attempt'
p4578
(lp4579
S'0:05:29'
p4580
ag2116
asS'part4_incorrect_attempt'
p4581
(lp4582
(S'0:08:09'
p4583
V(8)-(2)+(8/9)-(1/2)+(8/25)
p4584
tp4585
a(S'1 day, 17:24:58'
p4586
V(8)-(8/4)+(8/9)-(8/16)+(8/25)
p4587
tp4588
asg9
g2122
ssVmtrafeca
p4589
(dp4590
S'part4_correct_attempt'
p4591
(lp4592
S'0:04:59'
p4593
aV6+6/4+6/9+6/16+6/25
p4594
asS'part3_correct_attempt'
p4595
(lp4596
S'0:03:38'
p4597
ag2164
asS'part4_incorrect_attempt'
p4598
(lp4599
(S'0:03:54'
p4600
V6-6/4+6/9-6/16+6/25
p4601
tp4602
asg9
g2170
ssVmjethani
p4603
(dp4604
S'part4_correct_attempt'
p4605
(lp4606
S'1 day, 16:03:17'
p4607
aV(10) + (10/4) + ( 10/9) + (10/16) + (10/25)
p4608
asS'part3_correct_attempt'
p4609
(lp4610
S'0:01:49'
p4611
aV(5/1) - (5/2) + (5/3) - (5/4) + (5/5)
p4612
asS'part4_incorrect_attempt'
p4613
(lp4614
(S'0:02:21'
p4615
V(10/1) - (10/4) + (10/9) - (10/16) + (10/25)
p4616
tp4617
a(S'0:03:32'
p4618
V(10/25) - (10/16) + (10/9) - (10/4) + (10/1)
p4619
tp4620
asg9
V2015-11-05 04:35:33
p4621
ssVkgrozav
p4622
(dp4623
S'part4_correct_attempt'
p4624
(lp4625
S'0:17:40'
p4626
aV10.245277
p4627
asS'part3_correct_attempt'
p4628
(lp4629
S'0:03:11'
p4630
aV0.783333
p4631
asS'part4_incorrect_attempt'
p4632
(lp4633
(S'0:03:11'
p4634
V10.245277*5
p4635
tp4636
asg9
g3111
sssV6
p4637
(dp4638
Vdmn009
p4639
(dp4640
S'part5_correct_attempt'
p4641
(lp4642
S'0:31:21'
p4643
aV.13333
p4644
asS'part6_incorrect_attempt'
p4645
(lp4646
(S'0:32:19'
p4647
V14.86
p4648
tp4649
asg9
g4228
sS'part6_correct_attempt'
p4650
(lp4651
S'0:32:54'
p4652
aV21.61
p4653
assVh4tu
p4654
(dp4655
S'part5_correct_attempt'
p4656
(lp4657
S'0:02:44'
p4658
aV4-2*2+4/3-2*1+4/5
p4659
asS'part6_incorrect_attempt'
p4660
(lp4661
(S'0:02:44'
p4662
V10/1+10/4+10/9+10/16+10/25
p4663
tp4664
a(S'0:06:36'
p4665
V10/1+4*10/4+10/9+2*10/16+10/25
p4666
tp4667
asg9
g1684
sS'part6_correct_attempt'
p4668
(lp4669
S'0:06:43'
p4670
aV10/1+4*10/4+10/9+4*10/16+10/25
p4671
assVkew017
p4672
(dp4673
S'part5_correct_attempt'
p4674
(lp4675
S'0:04:17'
p4676
aV4-4+4/3-2+4/5
p4677
asS'part6_incorrect_attempt'
p4678
(lp4679
(S'0:04:17'
p4680
V7/1+7/4+7/9+7/16+7/25
p4681
tp4682
asg9
g4067
sS'part6_correct_attempt'
p4683
(lp4684
S'0:04:41'
p4685
aV7/1+7+7/9+7/4+7/25
p4686
assVhmshah
p4687
(dp4688
S'part5_correct_attempt'
p4689
(lp4690
S'0:02:20'
p4691
aV2 - 2*1 + 2/3 - 2*(2/4) + 2/5
p4692
asS'part6_incorrect_attempt'
p4693
(lp4694
(S'0:02:28'
p4695
V2 - 1 + 2/3 - 2/4 + 2/5
p4696
tp4697
a(S'0:02:42'
p4698
V6 + 6/4 + 6/9+ 6/16+ 6/25
p4699
tp4700
a(S'0:02:59'
p4701
V6 + 12/4 + 6/9+ 12/16+ 6/25
p4702
tp4703
a(S'0:03:29'
p4704
V6 - 12/4 + 6/9 - 12/16+ 6/25
p4705
tp4706
a(S'0:03:44'
p4707
V6 + 6/4 + 6/9+ 6/16+ 6/25
p4708
tp4709
asg9
g4486
ssVlpettit
p4710
(dp4711
S'part5_correct_attempt'
p4712
(lp4713
S'0:54:18'
p4714
ag2641
asS'part6_incorrect_attempt'
p4715
(lp4716
(S'0:54:45'
p4717
V7 + 7/4 + 7/9 + 7/16 + 7/25
p4718
tp4719
a(S'0:54:59'
p4720
V7 + 14/4 + 7/9 + 14/16 + 7/25
p4721
tp4722
a(S'0:56:16'
p4723
V7 + 7/4 + 7/4 + 7/9 + 7/16 + 7/16 + 7/25
p4724
tp4725
a(S'0:56:46'
p4726
V7 - 7/4 + 7/9 - 7/16 + 7/25
p4727
tp4728
asg9
g2647
ssVjfalcone
p4729
(dp4730
S'part5_correct_attempt'
p4731
(lp4732
S'0:01:46'
p4733
ag2653
asS'part6_incorrect_attempt'
p4734
(lp4735
(S'0:01:46'
p4736
V8 + (16/2^2) + (8/3^2) + (16/4^2) + (8/5^2)
p4737
tp4738
asg9
g1873
sS'part6_correct_attempt'
p4739
(lp4740
S'0:02:09'
p4741
aV8 + (32/2^2) + (8/3^2) + (32/4^2) + (8/5^2)
p4742
assVccn001
p4743
(dp4744
S'part5_correct_attempt'
p4745
(lp4746
S'0:00:00'
p4747
aV(4-(2)2+(4/3)-(8/4)+(4/5))
p4748
asS'part6_incorrect_attempt'
p4749
(lp4750
(S'0:00:00'
p4751
V10-(20/4)+(10/9)-(20/16)+(10/25)
p4752
tp4753
asg9
g3485
sS'part6_correct_attempt'
p4754
(lp4755
S'0:00:50'
p4756
aV10+(40/4)+(10/9)+(40/16)+(10/25)
p4757
assVt2shin
p4758
(dp4759
S'part5_correct_attempt'
p4760
(lp4761
S'0:02:35'
p4762
aV4-2(2)+(4/3)-2(1)+(4/5)
p4763
asS'part6_incorrect_attempt'
p4764
(lp4765
(S'0:05:32'
p4766
V4^2+4^2+(4/3)^2+2^2+(4/5)^2
p4767
tp4768
asg9
g1732
sS'part6_correct_attempt'
p4769
(lp4770
S'0:06:37'
p4771
aV8+4*2+(8/3^2)+4*(1/2)+(8/25)
p4772
assVvsamant
p4773
(dp4774
S'part5_correct_attempt'
p4775
(lp4776
S'0:01:36'
p4777
aV3-6/2+3/3-6/4+3/5
p4778
asS'part6_incorrect_attempt'
p4779
(lp4780
(S'0:01:36'
p4781
V10+40/4+40/9+10/16+10/25
p4782
tp4783
asg9
V2015-11-02 00:33:46
p4784
sS'part6_correct_attempt'
p4785
(lp4786
S'0:01:46'
p4787
aV10+40/4+10/9+40/16+10/25
p4788
assVkebao
p4789
(dp4790
S'part5_correct_attempt'
p4791
(lp4792
S'0:00:53'
p4793
aV2-4/2+2/3-4/4+2/5
p4794
asS'part6_incorrect_attempt'
p4795
(lp4796
(S'0:00:53'
p4797
V8-16/4+8/9-16/16+8/25
p4798
tp4799
a(S'0:01:35'
p4800
V8+16/4+8/9+16/16+8/25
p4801
tp4802
asg9
g3888
sS'part6_correct_attempt'
p4803
(lp4804
S'0:01:49'
p4805
aV8+32/4+8/9+32/16+8/25
p4806
assVglcohen
p4807
(dp4808
S'part5_correct_attempt'
p4809
(lp4810
S'0:03:02'
p4811
aV(3/1)-2(3/2)+(3/3)-2(3/4)+(3/5)
p4812
asS'part6_incorrect_attempt'
p4813
(lp4814
(S'0:12:25'
p4815
V11.9972772864
p4816
tp4817
a(S'4:56:23'
p4818
V(7/(1^2))+(7/(2^2))+(7/(3^2))+(7/(4^2))+(7/(5^2))
p4819
tp4820
asg9
g3927
sS'part6_correct_attempt'
p4821
(lp4822
S'4:56:46'
p4823
aV(7/(1^2))+4(7/(2^2))+(7/(3^2))+4(7/(4^2))+(7/(5^2))
p4824
assVjguanzho
p4825
(dp4826
S'part5_correct_attempt'
p4827
(lp4828
S'0:00:00'
p4829
aV3(1-1+1/3-1/2+1/5)
p4830
asS'part6_incorrect_attempt'
p4831
(lp4832
(S'0:00:00'
p4833
V7(1-1/2+1/9-1/8+1/25)
p4834
tp4835
asg9
V2015-11-03 17:56:24
p4836
sS'part6_correct_attempt'
p4837
(lp4838
S'3:12:24'
p4839
aV7(1+1+1/9+1/4+1/25)
p4840
assVabjara
p4841
(dp4842
S'part5_correct_attempt'
p4843
(lp4844
S'0:02:53'
p4845
ag2709
asS'part6_incorrect_attempt'
p4846
(lp4847
(S'0:04:28'
p4848
V6 + 3 + 6/9 + (12/16) + 6/25
p4849
tp4850
a(S'0:05:52'
p4851
V6 - 3 + (6/9) - (12/16) + 6/25
p4852
tp4853
a(S'0:06:03'
p4854
V6 + 3 + (6/9) + (12/16) + 6/25
p4855
tp4856
asg9
g2718
sS'part6_correct_attempt'
p4857
(lp4858
S'0:11:06'
p4859
aV6 + 4*6/4 + 6/9 + 4*6/16 + 6/25
p4860
assVspw006
p4861
(dp4862
S'part5_correct_attempt'
p4863
(lp4864
S'0:00:45'
p4865
aV(5/1 - 10/2 + 5/3 - 10/4 + 5/5)
p4866
asS'part6_incorrect_attempt'
p4867
(lp4868
(S'0:01:50'
p4869
V(10/1 - 20/4 + 10/9 - 20/16 + 10/25)
p4870
tp4871
a(S'0:40:29'
p4872
V(10/1 + 10/4 + 10/9 + 10/16 + 10/25)
p4873
tp4874
a(S'0:40:42'
p4875
V(10/1 + 20/4 + 10/9 + 20/16 + 10/25)
p4876
tp4877
a(S'0:41:27'
p4878
V(10/1 + 10/16 + 10/9 + 10/64 + 10/25)
p4879
tp4880
a(S'0:41:36'
p4881
V(10/1 + 10/4 + 10/9 + 10/16 + 10/25)
p4882
tp4883
a(S'0:42:06'
p4884
V(10/1 + 10/8 + 10/9 + 10/32 + 10/25)
p4885
tp4886
asg9
g4291
sS'part6_correct_attempt'
p4887
(lp4888
S'1:09:53'
p4889
aV(10/1 + 10/25 + 10/9 + 40/4 + 40/16)
p4890
assVrwthomps
p4891
(dp4892
S'part5_correct_attempt'
p4893
(lp4894
S'0:01:30'
p4895
aV(5/1 - (2)5/2 + 5/3 - (2)5/4 + 5/5)
p4896
asS'part6_incorrect_attempt'
p4897
(lp4898
(S'0:02:08'
p4899
V10/1^2  + (-2)^210/2^2 + 10/3^2 + (-2)^210/4^2 + 10/5^2
p4900
tp4901
asg9
V2015-11-06 21:36:21
p4902
sS'part6_correct_attempt'
p4903
(lp4904
S'0:02:28'
p4905
aV10/1^2 + (-2)^2 * 10/2^2 + 10/3^2 + (-2)^2 * 10/4^2 + 10/5^2
p4906
assVmhale
p4907
(dp4908
S'part5_correct_attempt'
p4909
(lp4910
S'0:01:47'
p4911
aV1 - 1 + 1/3 - 1/2 + 1/5
p4912
asS'part6_incorrect_attempt'
p4913
(lp4914
(S'0:01:47'
p4915
V6 + 6/4 + 6/9 + 6/16 + 6/25
p4916
tp4917
asg9
g2273
sS'part6_correct_attempt'
p4918
(lp4919
S'0:02:07'
p4920
aV6 + 6 + 6/9 + 6/4 + 6/25
p4921
assVachava
p4922
(dp4923
S'part5_correct_attempt'
p4924
(lp4925
S'0:02:50'
p4926
aV3-3+1-(3/2)+(3/5)
p4927
asS'part6_incorrect_attempt'
p4928
(lp4929
(S'0:33:02'
p4930
V8+(16*(8/4))+(8/9)+(16(8/16))+(8/25)
p4931
tp4932
asg9
g2258
sS'part6_correct_attempt'
p4933
(lp4934
S'0:34:16'
p4935
aV8+(4*(8/4))+(8/9)+(4(8/16))+(8/25)
p4936
assVchc286
p4937
(dp4938
S'part5_correct_attempt'
p4939
(lp4940
S'0:01:37'
p4941
aV5/1-2*(5/2)+5/3-2*(5/4)+5/5
p4942
asS'part6_incorrect_attempt'
p4943
(lp4944
(S'0:01:37'
p4945
V5/1+4*(5/2)+5/3+4*(5/4)+5/5
p4946
tp4947
asg9
V2015-11-01 01:54:36
p4948
sS'part6_correct_attempt'
p4949
(lp4950
S'0:02:16'
p4951
aV8/1+4*(8/4)+8/9+4*(8/16)+8/25
p4952
assVr1gu
p4953
(dp4954
S'part5_correct_attempt'
p4955
(lp4956
S'0:01:04'
p4957
ag2893
asS'part6_incorrect_attempt'
p4958
(lp4959
(S'0:01:33'
p4960
V9/25+18/16+9/9+18/4+9
p4961
tp4962
asg9
g1963
sS'part6_correct_attempt'
p4963
(lp4964
S'0:02:09'
p4965
aV9/25+36/16+9/9+36/4+9
p4966
assVt2li
p4967
(dp4968
S'part5_correct_attempt'
p4969
(lp4970
S'0:05:12'
p4971
aV4-4+4/3-2+4/5
p4972
asS'part6_incorrect_attempt'
p4973
(lp4974
(S'0:05:47'
p4975
V7+14/4+7/9+14/16+7/25
p4976
tp4977
a(S'0:05:55'
p4978
V7+7/4+7/9+7/16+7/25
p4979
tp4980
asg9
g3974
sS'part6_correct_attempt'
p4981
(lp4982
S'0:06:29'
p4983
aV7+28/4+7/9+28/16+7/25
p4984
assVjmmcalex
p4985
(dp4986
S'part5_correct_attempt'
p4987
(lp4988
S'0:00:00'
p4989
aV(4/1-4+4/3-4/2+4/5)
p4990
asS'part6_incorrect_attempt'
p4991
(lp4992
(S'0:01:10'
p4993
V(10/1+10/4+10/9+10/16+10/25)
p4994
tp4995
asg9
V2015-11-06 23:19:53
p4996
sS'part6_correct_attempt'
p4997
(lp4998
S'0:01:52'
p4999
aV(10/1+40/4+10/9+40/16+10/25)
p5000
assVk5law
p5001
(dp5002
S'part5_correct_attempt'
p5003
(lp5004
S'0:09:26'
p5005
aV[(5/1)-2(5/2)+(5/3)-2(5/4)+(5/5)]
p5006
asS'part6_incorrect_attempt'
p5007
(lp5008
(S'0:13:49'
p5009
V(7/((1)^2))+(7/((2)^2))+(7/((3)^2))+(7/((4)^2))+(7/((5)^2))
p5010
tp5011
asg9
g2288
sS'part6_correct_attempt'
p5012
(lp5013
S'1:20:50'
p5014
aV(7/((1)^2))+4(7/((2)^2))+(7/((3)^2))+4(7/((4)^2))+(7/((5)^2))
p5015
assVdkurli
p5016
(dp5017
S'part5_correct_attempt'
p5018
(lp5019
S'0:01:09'
p5020
aV2-2+2/3-4/4+2/5
p5021
asS'part6_incorrect_attempt'
p5022
(lp5023
(S'0:01:09'
p5024
V7/1-14/4+7/9-14/16+7/25
p5025
tp5026
a(S'0:01:47'
p5027
V7/1+14/4+7/9+14/16+7/25
p5028
tp5029
asg9
g3190
sS'part6_correct_attempt'
p5030
(lp5031
S'0:02:00'
p5032
aV7/1+28/4+7/9+28/16+7/25
p5033
assVavasavad
p5034
(dp5035
S'part5_correct_attempt'
p5036
(lp5037
S'0:02:08'
p5038
aV5 - 10/2 + 5/3 - 10/4 + 1
p5039
asS'part6_incorrect_attempt'
p5040
(lp5041
(S'0:02:08'
p5042
V10 + 10/4 + 10/9 + 10/16 + 10/25
p5043
tp5044
a(S'0:02:20'
p5045
V10 + 20/4 + 10/9 + 20/16 + 10/25
p5046
tp5047
a(S'0:02:36'
p5048
V10 - 20/4 + 10/9 - 20/16 + 10/25
p5049
tp5050
asg9
g2354
sS'part6_correct_attempt'
p5051
(lp5052
S'0:21:23'
p5053
aV10 + 40/4 + 10/9 + 40/16 + 10/25
p5054
assVamquinte
p5055
(dp5056
S'part5_correct_attempt'
p5057
(lp5058
S'0:01:44'
p5059
aV0.133333
p5060
asS'part6_incorrect_attempt'
p5061
(lp5062
(S'0:04:49'
p5063
V26.433
p5064
tp5065
asg9
g4357
sS'part6_correct_attempt'
p5066
(lp5067
S'0:05:25'
p5068
aV16.81
p5069
assVtpmach
p5070
(dp5071
S'part5_correct_attempt'
p5072
(lp5073
S'0:03:58'
p5074
aV3+(-2)(3/2)+3/3+(-2)(3/4)+3/5
p5075
asS'part6_incorrect_attempt'
p5076
(lp5077
(S'0:03:58'
p5078
V3+(-2)^2*(3/2)+3/3+(-2)^2*(3/4)+3/5
p5079
tp5080
a(S'0:04:18'
p5081
V3+(-1)^2*(3/2)+3/3+(-1)^2*(3/4)+3/5
p5082
tp5083
asg9
g1897
sS'part6_correct_attempt'
p5084
(lp5085
S'0:06:14'
p5086
aV10/1+(-2)^2*(10/4)+10/9+(-2)^2*(10/16)+10/25
p5087
assVsyc078
p5088
(dp5089
S'part5_correct_attempt'
p5090
(lp5091
S'0:00:20'
p5092
aV1-2(1/2)+(1/3)-2(1/4)+(1/5)
p5093
asS'part6_incorrect_attempt'
p5094
(lp5095
(S'1 day, 16:03:30'
p5096
V(7/1)+(7/4)+(7/9)+(7/16)+(7/25)
p5097
tp5098
asg9
g4389
sS'part6_correct_attempt'
p5099
(lp5100
S'1 day, 16:03:57'
p5101
aV(7/1)+4(7/4)+(7/9)+4(7/16)+(7/25)
p5102
assVjyc018
p5103
(dp5104
S'part5_correct_attempt'
p5105
(lp5106
S'0:01:29'
p5107
aV4-4+4/3-2+4/5
p5108
asS'part6_incorrect_attempt'
p5109
(lp5110
(S'0:02:19'
p5111
V8+4+8/9+1+8/25
p5112
tp5113
a(S'0:02:50'
p5114
V8+2+8/9+1/2+8/25
p5115
tp5116
a(S'0:05:17'
p5117
V4*(8+2+8/9+1/2+8/25)
p5118
tp5119
asg9
g3838
sS'part6_correct_attempt'
p5120
(lp5121
S'0:06:52'
p5122
aV8+2*4+8/9+1/2*4+8/25
p5123
assVacvuong
p5124
(dp5125
S'part5_correct_attempt'
p5126
(lp5127
S'0:03:32'
p5128
aV2 -2+2/3-1+2/5
p5129
asS'part6_incorrect_attempt'
p5130
(lp5131
(S'0:03:32'
p5132
V8+8+8/9+4+8/25
p5133
tp5134
asg9
V2015-11-05 00:32:37
p5135
sS'part6_correct_attempt'
p5136
(lp5137
S'0:05:07'
p5138
aV8+8+8/9+4*8/16+8/25
p5139
assVlywong
p5140
(dp5141
S'part5_correct_attempt'
p5142
(lp5143
S'0:01:43'
p5144
aV (2/3) - 1 + (2/5)
p5145
asS'part6_incorrect_attempt'
p5146
(lp5147
(S'0:02:08'
p5148
V10+ (10/4)+(10/9)+(10/16)+(10/25)
p5149
tp5150
a(S'0:03:25'
p5151
V10+ (10/4)+(10/9)+(10/16)+(10/25)
p5152
tp5153
a(S'0:03:36'
p5154
V10+ 2*(10/4)+(10/9)+2*(10/16)+(10/25)
p5155
tp5156
a(S'0:04:30'
p5157
V10+ (10/4)+(10/9)+(10/16)+(10/25)
p5158
tp5159
a(S'0:04:48'
p5160
V10+ 2*(10/4)+(10/9)+2*(10/16)+(10/25)
p5161
tp5162
a(S'0:05:31'
p5163
V10+ (10/4)^2+(10/9)+(10/16)^2+(10/25)
p5164
tp5165
asg9
g3872
sS'part6_correct_attempt'
p5166
(lp5167
S'11:43:06'
p5168
aV10+ 4(10/4)+(10/9)+4(10/16)+(10/25)
p5169
assVjnatale
p5170
(dp5171
S'part5_correct_attempt'
p5172
(lp5173
S'0:00:00'
p5174
aV2*(1/1 - 2/2 + 1/3 - 2/4 + 1/5)
p5175
asS'part6_incorrect_attempt'
p5176
(lp5177
(S'0:01:43'
p5178
V10*(1/1 + 1/4 + 1/9 + 1/16 + 1/25)
p5179
tp5180
a(S'0:01:53'
p5181
V10*(1/16 + 1/25)
p5182
tp5183
a(S'0:02:16'
p5184
V10*(1+ 1/9 + 1/25)
p5185
tp5186
a(S'0:02:21'
p5187
V10*(1/1+ 1/9 + 1/25)
p5188
tp5189
asg9
V2015-11-04 08:43:34
p5190
sS'part6_correct_attempt'
p5191
(lp5192
S'0:02:58'
p5193
aV10*(1/1 + 1/9 + 1/25) + 10*4*(1/4 + 1/16)
p5194
assVk4ma
p5195
(dp5196
S'part5_correct_attempt'
p5197
(lp5198
S'0:00:30'
p5199
aV1-2*.5+(1/3)-2(1/4)+(1/5)
p5200
asS'part6_incorrect_attempt'
p5201
(lp5202
(S'0:01:40'
p5203
V9+2*(9/2^2)+(9/3^2)+2*(9/4^2)+(9/5^2)
p5204
tp5205
asg9
V2015-11-06 21:26:38
p5206
sS'part6_correct_attempt'
p5207
(lp5208
S'0:02:12'
p5209
aV9+2^2*(9/2^2)+(9/3^2)+2^2*(9/4^2)+(9/5^2)
p5210
assVjic212
p5211
(dp5212
S'part5_correct_attempt'
p5213
(lp5214
S'0:02:13'
p5215
aV2-2*2/2+2/3-2*2/4+2/5
p5216
asS'part6_incorrect_attempt'
p5217
(lp5218
(S'0:02:13'
p5219
V7+7/4+7/9+7/16+7/25
p5220
tp5221
asg9
V2015-11-06 23:10:17
p5222
sS'part6_correct_attempt'
p5223
(lp5224
S'0:02:56'
p5225
aV7+(-2)^2*7/4+7/9+(-2)^2*7/16+7/25
p5226
assVagarango
p5227
(dp5228
S'part5_correct_attempt'
p5229
(lp5230
S'0:01:33'
p5231
aV(1/1)-(2)(1/2)+(1/3)-(2/4)+(1/5)
p5232
asS'part6_incorrect_attempt'
p5233
(lp5234
(S'0:02:03'
p5235
V(7/1)-(14/4)+(7/9)-(14/16)+(7/25)
p5236
tp5237
a(S'0:03:22'
p5238
V(7/1)+(14/4)+(7/9)+(14/16)+(7/25)
p5239
tp5240
asg9
g2338
sS'part6_correct_attempt'
p5241
(lp5242
S'0:04:03'
p5243
aV(7/1)+4(7/4)+(7/9)+4(7/16)+(7/25)
p5244
assVkew060
p5245
(dp5246
S'part5_correct_attempt'
p5247
(lp5248
S'0:00:00'
p5249
aV0.1
p5250
asS'part6_incorrect_attempt'
p5251
(lp5252
(S'0:00:21'
p5253
V89/150
p5254
tp5255
a(S'0:00:31'
p5256
V89/150
p5257
tp5258
a(S'1 day, 23:24:55'
p5259
V89/150
p5260
tp5261
a(S'1 day, 23:25:43'
p5262
V14.6
p5263
tp5264
asg9
g3159
sS'part6_correct_attempt'
p5265
(lp5266
S'1 day, 23:26:12'
p5267
aV6 + 4(6/4) + 6/9 + 4(6/16) + 6/25
p5268
assVachinn
p5269
(dp5270
S'part5_correct_attempt'
p5271
(lp5272
S'0:00:30'
p5273
aV4-4+(4/3)-2+(4/5)
p5274
asS'part6_incorrect_attempt'
p5275
(lp5276
(S'0:00:30'
p5277
V10+(10/4)+(10/9)+(10/16)+(10/25)
p5278
tp5279
asg9
V2015-11-03 21:21:12
p5280
sS'part6_correct_attempt'
p5281
(lp5282
S'0:00:52'
p5283
aV10+4(10/4)+(10/9)+4(10/16)+(10/25)
p5284
assVdwzhang
p5285
(dp5286
S'part5_correct_attempt'
p5287
(lp5288
S'0:05:10'
p5289
aV3/1 - 2*3/2 + 3/3 - 2*3/4 + 3/5
p5290
asS'part6_incorrect_attempt'
p5291
(lp5292
(S'0:05:10'
p5293
V7/1 + 2*7/4 + 7/9 + 2*7/16 + 7/25
p5294
tp5295
a(S'0:05:47'
p5296
V7/1 + 7/16 + 7/9 + 7/256 + 7/25
p5297
tp5298
asg9
g2399
sS'part6_correct_attempt'
p5299
(lp5300
S'2 days, 0:29:31'
p5301
aV7/1 + 7/9 + 7/25 + 28/4 + 28/16
p5302
assVdis003
p5303
(dp5304
S'part5_correct_attempt'
p5305
(lp5306
S'0:03:46'
p5307
aV2/1 - 2*(2/2) + 2/3 - 2(2/4) + 2/5
p5308
asS'part6_incorrect_attempt'
p5309
(lp5310
(S'0:04:04'
p5311
V8/1**2+8/2**2+8/3**2+8/4**2+8/5**2
p5312
tp5313
a(S'0:04:43'
p5314
V8/1**2 + 2* 8/2**2 + 8/3**2 + 2*8/4**2 + 8/5**2
p5315
tp5316
a(S'0:06:56'
p5317
V8/1**2+8/2**2+8/3**2+8/4**2+8/5**2
p5318
tp5319
a(S'1 day, 0:55:47'
p5320
V631/1125
p5321
tp5322
a(S'1 day, 0:58:11'
p5323
V6*(1+1/4+1/9+1/16+1/25)
p5324
tp5325
a(S'1 day, 0:58:32'
p5326
V8*(1+1/4+1/9+1/16+1/25)
p5327
tp5328
a(S'1 day, 1:02:56'
p5329
V8**(1+1/4+1/9+1/16+1/25)
p5330
tp5331
asg9
g3591
sS'part6_correct_attempt'
p5332
(lp5333
S'1 day, 1:16:25'
p5334
aV8*(1+1/9+1/25)+8*4*(1/4+1/16)
p5335
assVdgunawan
p5336
(dp5337
S'part5_correct_attempt'
p5338
(lp5339
S'0:00:41'
p5340
ag2870
asS'part6_incorrect_attempt'
p5341
(lp5342
(S'0:01:39'
p5343
V(8/1^2) + (8/2^2) + (8/3^2) + (8/4^2) + (8/5^2)
p5344
tp5345
asg9
g2429
sS'part6_correct_attempt'
p5346
(lp5347
S'0:01:50'
p5348
aV(8/1^2) + (4)(8/2^2) + (8/3^2) + (4)(8/4^2) + (8/5^2)
p5349
assVrraiyyan
p5350
(dp5351
S'part5_correct_attempt'
p5352
(lp5353
S'0:05:48'
p5354
aV5*(1-2/2+1/3-2/4+1/5)
p5355
asS'part6_incorrect_attempt'
p5356
(lp5357
(S'0:08:52'
p5358
V(8 + 16/4 + 8/9 + 16/16 + 8/25)
p5359
tp5360
a(S'0:09:42'
p5361
V(8 + 8/4 + 8/9 + 8/16 + 8/25)
p5362
tp5363
a(S'0:10:08'
p5364
V(8 + 2*8/4 + 8/9 + 2*8/16 + 8/25)
p5365
tp5366
a(S'0:10:17'
p5367
V(8 - 2*8/4 + 8/9 - 2*8/16 + 8/25)
p5368
tp5369
a(S'0:10:56'
p5370
V(1 + 2*1/4 + 1/9 + 2*1/16 + 1/25)*8
p5371
tp5372
a(S'0:11:19'
p5373
V(1 + 1/4 + 1/9 + 1/16 + 1/25)*8
p5374
tp5375
a(S'0:11:32'
p5376
V(1 + 2/4 + 1/9 + 2/16 + 1/25)*8
p5377
tp5378
a(S'0:12:56'
p5379
V(1 + 2/4 + 1/9 + 2/16 + 1/25)*8^2
p5380
tp5381
asg9
g3610
sS'part6_correct_attempt'
p5382
(lp5383
S'0:13:15'
p5384
aV(1 + 4/4 + 1/9 + 4/16 + 1/25)*8
p5385
assVhachrist
p5386
(dp5387
S'part5_correct_attempt'
p5388
(lp5389
S'0:01:49'
p5390
aV4 - 4 + 4/3 - 2 + 4/5
p5391
asS'part6_incorrect_attempt'
p5392
(lp5393
(S'0:01:49'
p5394
V7 - 14/4 + 7/9 - 14/16 + 7/25
p5395
tp5396
a(S'0:08:14'
p5397
V7 + 7/4 + 7/9 + 7/16 + 7/25
p5398
tp5399
a(S'0:08:34'
p5400
V7 + 14/4 + 7/9 + 14/16 + 7/25
p5401
tp5402
a(S'0:13:20'
p5403
V((1-0.133333)^2 + (2-0.133333)^2 + (3-0.133333)^2+(4-0.133333)^2+(5-0.133333)^2 )/4
p5404
tp5405
a(S'0:16:22'
p5406
V7 + 7/4 + 7/9 + 7/16 + 7/25
p5407
tp5408
a(S'0:31:34'
p5409
V7 - 7/4 + 7/9 - 7/16 + 7/25
p5410
tp5411
asg9
g4051
sS'part6_correct_attempt'
p5412
(lp5413
S'20:45:19'
p5414
aV7 + 28/4 + 7/9 + 28/16 + 7/25
p5415
assVjhw015
p5416
(dp5417
S'part5_correct_attempt'
p5418
(lp5419
S'0:05:30'
p5420
aV2 - 2 + (2/3) - 1 + (2/5)
p5421
asS'part6_incorrect_attempt'
p5422
(lp5423
(S'0:06:11'
p5424
V8 + 4 + (8/9) + 1 + (8/25)
p5425
tp5426
a(S'0:07:04'
p5427
V8 - 4 + (8/9) - 1 + (8/25)
p5428
tp5429
a(S'19:18:33'
p5430
V8+4+(8/9)+1+(8/25)
p5431
tp5432
asg9
g3626
sS'part6_correct_attempt'
p5433
(lp5434
S'19:19:09'
p5435
aV8 + 4(8/4) + (8/9) + 4(8/16) + (8/25)
p5436
assVdsmonaha
p5437
(dp5438
S'part5_correct_attempt'
p5439
(lp5440
S'0:08:34'
p5441
aV1/6
p5442
asS'part6_incorrect_attempt'
p5443
(lp5444
(S'0:08:43'
p5445
V5269/600
p5446
tp5447
a(S'0:09:53'
p5448
V3197/300
p5449
tp5450
a(S'0:12:19'
p5451
V5269/600
p5452
tp5453
a(S'0:15:27'
p5454
V518/75
p5455
tp5456
asg9
g2444
sS'part6_correct_attempt'
p5457
(lp5458
S'0:18:37'
p5459
aV2161/150
p5460
assVapokhare
p5461
(dp5462
S'part5_correct_attempt'
p5463
(lp5464
S'0:00:00'
p5465
aV(1/3-1/2+1/5)*3
p5466
asS'part6_incorrect_attempt'
p5467
(lp5468
(S'0:00:54'
p5469
V(1/3-1/2+1/5)*6
p5470
tp5471
a(S'0:02:37'
p5472
V(1-1/2+1/9-1/8+1/25)*6
p5473
tp5474
a(S'0:03:10'
p5475
V(1+1/2+1/9+1/8+1/25)*6
p5476
tp5477
asg9
g1696
sS'part6_correct_attempt'
p5478
(lp5479
S'0:04:07'
p5480
aV6*(1+1/9+ 1/25) + 24*(1/4+1/16)
p5481
assVq3wen
p5482
(dp5483
S'part5_correct_attempt'
p5484
(lp5485
S'0:00:00'
p5486
aV1/30
p5487
asS'part6_incorrect_attempt'
p5488
(lp5489
(S'0:00:00'
p5490
V4.735
p5491
tp5492
a(S'0:01:01'
p5493
V23.86
p5494
tp5495
asg9
g4083
sS'part6_correct_attempt'
p5496
(lp5497
S'0:01:38'
p5498
aV21.61
p5499
assVtstevens
p5500
(dp5501
S'part5_correct_attempt'
p5502
(lp5503
S'0:01:12'
p5504
aV4/3-2+.8
p5505
asS'part6_incorrect_attempt'
p5506
(lp5507
(S'0:03:21'
p5508
V6+3+2/3+6/8+6/25
p5509
tp5510
asg9
g3272
sS'part6_correct_attempt'
p5511
(lp5512
S'0:03:48'
p5513
aV6+6+2/3+12/8+6/25
p5514
assVzhw110
p5515
(dp5516
S'part5_correct_attempt'
p5517
(lp5518
S'0:00:00'
p5519
aV4-4+4/3-2+4/5
p5520
asS'part6_incorrect_attempt'
p5521
(lp5522
(S'0:00:00'
p5523
V10-20/4+10/9-20/16+10/25
p5524
tp5525
asg9
g1987
sS'part6_correct_attempt'
p5526
(lp5527
S'23:38:57'
p5528
aV10+40/4+10/9+40/16+10/25
p5529
assVl8ngo
p5530
(dp5531
S'part5_correct_attempt'
p5532
(lp5533
S'0:00:00'
p5534
aV2-2+2/3-2*2/4+2/5
p5535
asS'part6_incorrect_attempt'
p5536
(lp5537
(S'0:00:00'
p5538
V7-2*7/4+7/9-2*7/16+7/25
p5539
tp5540
asg9
g3304
sS'part6_correct_attempt'
p5541
(lp5542
S'4 days, 8:28:44'
p5543
aV7+4*7/4+7/9+4*7/16+7/25
p5544
assVakg009
p5545
(dp5546
S'part5_correct_attempt'
p5547
(lp5548
S'0:02:10'
p5549
aV(1-2*(1/2)+1/3-2*(1/4)+1/5)
p5550
asS'part6_incorrect_attempt'
p5551
(lp5552
(S'0:03:12'
p5553
V(6/1+6/4+6/9+6/16+6/25)
p5554
tp5555
a(S'0:03:26'
p5556
V(6/1+2*(6/4)+6/9+2*(6/16)+6/25)
p5557
tp5558
asg9
g3453
sS'part6_correct_attempt'
p5559
(lp5560
S'0:04:00'
p5561
aV(6/1+4*(6/4)+6/9+4*(6/16)+6/25)
p5562
assVm8woo
p5563
(dp5564
S'part5_correct_attempt'
p5565
(lp5566
S'0:00:00'
p5567
ag3080
asS'part6_incorrect_attempt'
p5568
(lp5569
(S'0:00:00'
p5570
V[3/1 + 4*3/4 + 3/9 + 4*3/16 + 3/25]
p5571
tp5572
asg9
g2158
sS'part6_correct_attempt'
p5573
(lp5574
S'0:00:47'
p5575
aV[10/1 + 4*10/4 + 10/9 + 4*10/16 + 10/25]
p5576
assVedescobe
p5577
(dp5578
S'part5_correct_attempt'
p5579
(lp5580
S'0:31:28'
p5581
aV5-5+5/3-5/2+1
p5582
asS'part6_incorrect_attempt'
p5583
(lp5584
(S'0:31:28'
p5585
V7-7/2+7/9-7/8+7/25
p5586
tp5587
a(S'0:39:13'
p5588
V7+7/4+7/9+7/16+7/25
p5589
tp5590
a(S'0:39:27'
p5591
V7+7/2+7/9+7/8+7/25
p5592
tp5593
asg9
g3689
sS'part6_correct_attempt'
p5594
(lp5595
S'0:40:07'
p5596
aV7+7+7/9+7/4+7/25
p5597
assVsayao
p5598
(dp5599
S'part5_correct_attempt'
p5600
(lp5601
S'0:02:38'
p5602
aV3-2*3/2+3/3-2*3/4+3/5
p5603
asS'part6_incorrect_attempt'
p5604
(lp5605
(S'0:03:27'
p5606
V9/1-2*9/4+9/9 - 2*9/16+9/25
p5607
tp5608
asg9
g3355
sS'part6_correct_attempt'
p5609
(lp5610
S'0:04:03'
p5611
aV9/1+4*9/4+9/9 + 4*9/16+9/25
p5612
assVanvan
p5613
(dp5614
S'part5_correct_attempt'
p5615
(lp5616
S'0:00:35'
p5617
aV2 - 2 + 2/3 - 1 + 2/5
p5618
asS'part6_incorrect_attempt'
p5619
(lp5620
(S'0:05:21'
p5621
V9 + 18/4 + 1 + 18/16 + 9/25
p5622
tp5623
a(S'0:05:43'
p5624
V9 + (9/4)^2 + 1 + (9/16)^2 + 9/25
p5625
tp5626
asg9
g2035
sS'part6_correct_attempt'
p5627
(lp5628
S'0:27:07'
p5629
aV9 + 4(9/4) + 1 + 4(9/16) + 9/25
p5630
assVsmohiman
p5631
(dp5632
S'part5_correct_attempt'
p5633
(lp5634
S'0:04:47'
p5635
aV3-3+3/3-3/2+3/5
p5636
asS'part6_incorrect_attempt'
p5637
(lp5638
(S'0:04:47'
p5639
V3+3+3/3+3/2+3/5
p5640
tp5641
a(S'0:07:13'
p5642
V10+10/2+10/9+10/8+10/25
p5643
tp5644
a(S'0:07:34'
p5645
V10+10/4+10/9+10/16+10/25
p5646
tp5647
asg9
V2015-11-02 02:16:48
p5648
sS'part6_correct_attempt'
p5649
(lp5650
S'0:08:53'
p5651
aV10+10+10/9+10/4+10/25
p5652
assVarvenega
p5653
(dp5654
S'part5_correct_attempt'
p5655
(lp5656
S'0:02:42'
p5657
aV(2/1) - 2*(2/2) + (2/3) - 2*(2/4) + (2/5)
p5658
asS'part6_incorrect_attempt'
p5659
(lp5660
(S'0:02:42'
p5661
V(10/1^2) - 2*(10/2^2) + (10/3^2) - 2*(10/4^2) + (10/5^2)
p5662
tp5663
a(S'0:04:09'
p5664
V(10/1^2) + 2*(10/2^2) + (10/3^2) + 2*(10/4^2) + (10/5^2)
p5665
tp5666
a(S'0:04:18'
p5667
V(10/1^2) + 2/(10/2^2) + (10/3^2) + 2/(10/4^2) + (10/5^2)
p5668
tp5669
a(S'1 day, 16:37:19'
p5670
V(10/1^2) + 2*(10/2^2) + (10/3^2) + 2*(10/4^2) + (10/5^2)
p5671
tp5672
asg9
g4131
sS'part6_correct_attempt'
p5673
(lp5674
S'1 day, 20:08:21'
p5675
aV(10/1^2) + (2^2)*(10/2^2) + (10/3^2) + (2^2)*(10/4^2) + (10/5^2)
p5676
assVdtea
p5677
(dp5678
S'part5_correct_attempt'
p5679
(lp5680
S'0:41:40'
p5681
ag2927
asS'part6_incorrect_attempt'
p5682
(lp5683
(S'0:41:40'
p5684
V(6/1-6/4^2+6/9-6/16^2+6/25)
p5685
tp5686
asg9
g2933
ssVlahawkin
p5687
(dp5688
S'part5_correct_attempt'
p5689
(lp5690
S'0:02:44'
p5691
aV(4/1)-2(4/2)+(4/3)-2(4/4)+(4/5)
p5692
asS'part6_incorrect_attempt'
p5693
(lp5694
(S'0:06:26'
p5695
V(6/1)+(6/4)/4+(6/9)+(6/16)/4+(6/25)
p5696
tp5697
a(S'0:06:36'
p5698
V(6/1)+(6/4)+(6/9)+(6/16)+(6/25)
p5699
tp5700
asg9
g4523
sS'part6_correct_attempt'
p5701
(lp5702
S'0:08:48'
p5703
aV(6/1)+(6/9)+(6/25) + 4(6/4)+4(6/16)
p5704
assVcstringh
p5705
(dp5706
S'part5_correct_attempt'
p5707
(lp5708
S'0:01:42'
p5709
aV5-(2(5/2))+5/3-(2(5/4))+1
p5710
asS'part6_incorrect_attempt'
p5711
(lp5712
(S'0:06:51'
p5713
V8-(2(2))+8/9-(2(1/2))+8/25
p5714
tp5715
asg9
g3721
sS'part6_correct_attempt'
p5716
(lp5717
S'0:09:58'
p5718
aV8*(1+1/9+1/25) +8*4*(1/4+1/16)
p5719
assVksrijong
p5720
(dp5721
S'part5_correct_attempt'
p5722
(lp5723
S'0:01:32'
p5724
aV4-4+4/3-2+4/5
p5725
asS'part6_incorrect_attempt'
p5726
(lp5727
(S'0:01:32'
p5728
V8/1-4+8/9-1+8/25
p5729
tp5730
a(S'0:02:03'
p5731
V8/1+4+8/9+1+8/25
p5732
tp5733
a(S'0:05:15'
p5734
V8/1+8/16+8/9+8/64+8/25
p5735
tp5736
a(S'0:05:33'
p5737
V8/1+8/4+8/9+8/16+8/25
p5738
tp5739
a(S'0:05:45'
p5740
V8/1+2*8/4+8/9+2*8/16+8/25
p5741
tp5742
a(S'2 days, 0:08:25'
p5743
V8/1+8/4+8/9+8/16+8/25
p5744
tp5745
a(S'2 days, 0:10:36'
p5746
V8/1+8/8+8/9+8/32+8/25
p5747
tp5748
asg9
g4147
sS'part6_correct_attempt'
p5749
(lp5750
S'2 days, 0:13:13'
p5751
aV8/1+4*8/4+8/9+4*8/16+8/25
p5752
assVedcole
p5753
(dp5754
S'part5_correct_attempt'
p5755
(lp5756
S'0:03:10'
p5757
aV3-2*(3/2)+3/3-2*(3/4)+3/5
p5758
asS'part6_incorrect_attempt'
p5759
(lp5760
(S'0:03:58'
p5761
V8/1+2*(8/4)+8/9+2*(8/16)+8/25
p5762
tp5763
asg9
g4539
sS'part6_correct_attempt'
p5764
(lp5765
S'0:04:08'
p5766
aV8/1+4*(8/4)+8/9+4*(8/16)+8/25
p5767
assVv4sharma
p5768
(dp5769
S'part5_correct_attempt'
p5770
(lp5771
S'0:03:07'
p5772
aV4(1 - 1 + 1/3 - 2/4 + 1/5)
p5773
asS'part6_incorrect_attempt'
p5774
(lp5775
(S'0:04:04'
p5776
V9(1 - 2/4 + 1/9 - 2/16 +1/25)
p5777
tp5778
a(S'23:26:58'
p5779
V9(1 + 2/4 + 1/9 + 2/16 +1/25)
p5780
tp5781
a(S'23:29:54'
p5782
V9(1 + 1/4 + 1/9 + 1/16 +1/25)
p5783
tp5784
asg9
V2015-11-04 20:39:34
p5785
sS'part6_correct_attempt'
p5786
(lp5787
S'1 day, 0:22:00'
p5788
aV9(1 + 4/4 + 1/9 + 4/16 +1/25)
p5789
assVralhadda
p5790
(dp5791
S'part5_correct_attempt'
p5792
(lp5793
S'0:09:59'
p5794
aV0.0333333
p5795
asS'part6_incorrect_attempt'
p5796
(lp5797
(S'0:11:45'
p5798
V(10/1)-(20/4)+(10/9)-(20/16)+(10/25)
p5799
tp5800
a(S'0:15:45'
p5801
V5.261111
p5802
tp5803
asg9
g2134
ssVagian
p5804
(dp5805
S'part5_correct_attempt'
p5806
(lp5807
S'0:02:15'
p5808
ag2847
asS'part6_incorrect_attempt'
p5809
(lp5810
(S'0:02:26'
p5811
V(1+1/9+1/25)+28*(1/4+1/16)*10
p5812
tp5813
asg9
g2414
sS'part6_correct_attempt'
p5814
(lp5815
S'0:04:47'
p5816
aV10*(1+1/9+1/25)+40*(1/4+1/16)
p5817
assVkquong
p5818
(dp5819
S'part5_correct_attempt'
p5820
(lp5821
S'0:07:24'
p5822
aV4 -4 + 4/3 - 2 + 4/5
p5823
asS'part6_incorrect_attempt'
p5824
(lp5825
(S'0:07:24'
p5826
V10 + 10/16 + 10/9 + 10/64 + 10/25
p5827
tp5828
a(S'0:07:45'
p5829
V10 + 10/2 + 10/9 + 10/8 + 10/25
p5830
tp5831
asg9
g4244
sS'part6_correct_attempt'
p5832
(lp5833
S'0:09:52'
p5834
aV10/1+ 4*10/4 + 10/9 + 4*10/16 + 10/25
p5835
assVrohan
p5836
(dp5837
S'part5_correct_attempt'
p5838
(lp5839
S'0:02:38'
p5840
ag3042
asS'part6_incorrect_attempt'
p5841
(lp5842
(S'0:03:12'
p5843
V3+6+3/3+3+3/5
p5844
tp5845
asg9
g3048
sS'part6_correct_attempt'
p5846
(lp5847
S'0:03:45'
p5848
aV8/1+8+8/9+8/4+8/25
p5849
assVytc012
p5850
(dp5851
S'part5_correct_attempt'
p5852
(lp5853
S'0:01:41'
p5854
ag2939
asS'part6_incorrect_attempt'
p5855
(lp5856
(S'0:02:00'
p5857
V8+4+8/9+16/16+8/25
p5858
tp5859
asg9
g2945
sS'part6_correct_attempt'
p5860
(lp5861
S'0:02:32'
p5862
aV8+8+8/9+32/16+8/25
p5863
assVatorr
p5864
(dp5865
S'part5_correct_attempt'
p5866
(lp5867
S'0:02:31'
p5868
aV5 - (5) + (5/3) - (5/2) + 1
p5869
asS'part6_incorrect_attempt'
p5870
(lp5871
(S'0:02:31'
p5872
V6 + (3) + (6/9) + (12/16) + (6/25)
p5873
tp5874
a(S'0:02:40'
p5875
V6 + (12) + (6/9) + (12/16) + (6/25)
p5876
tp5877
a(S'0:02:58'
p5878
V6 + (12/4) + (6/9) + (12/16) + (6/25)
p5879
tp5880
asg9
g4169
sS'part6_correct_attempt'
p5881
(lp5882
S'0:57:42'
p5883
aV6 + (24/4) + (6/9) + (24/16) + (6/25)
p5884
assVaordookh
p5885
(dp5886
S'part5_correct_attempt'
p5887
(lp5888
S'0:00:00'
p5889
ag3016
asS'part6_incorrect_attempt'
p5890
(lp5891
(S'0:00:55'
p5892
V8+(8/4)+(8/9)+(8/16)+(8/25)
p5893
tp5894
a(S'0:02:19'
p5895
V8+(8/4)+(8/9)+(8/16)+(8/25)+(8/4)+(8/16)
p5896
tp5897
asg9
g2110
sS'part6_correct_attempt'
p5898
(lp5899
S'1 day, 22:38:26'
p5900
aV8+(32/4)+(8/9)+(32/16)+(8/25)
p5901
assVyil035
p5902
(dp5903
S'part5_correct_attempt'
p5904
(lp5905
S'0:02:10'
p5906
ag3066
asS'part6_incorrect_attempt'
p5907
(lp5908
(S'0:02:10'
p5909
V6122/225
p5910
tp5911
asg9
g2146
sS'part6_correct_attempt'
p5912
(lp5913
S'0:03:11'
p5914
aV4322/225
p5915
assVsghouse
p5916
(dp5917
S'part5_correct_attempt'
p5918
(lp5919
S'0:40:10'
p5920
aV5 - 10/2 + 5/3 - 10/4 + 1
p5921
asS'part6_incorrect_attempt'
p5922
(lp5923
(S'0:40:10'
p5924
V10/1 + 20/4 + 10/9 + 20/16 + 10/25
p5925
tp5926
a(S'0:41:04'
p5927
V10/1 + 10/4 + 10/9 + 10/16 + 10/25
p5928
tp5929
a(S'0:42:14'
p5930
V(10/1 + 10/4 + 10/9 + 10/16 + 10/25) *4
p5931
tp5932
a(S'5:42:07'
p5933
V(10/1 + 20/4 + 10/9 + 20/16 + 10/25)
p5934
tp5935
a(S'1 day, 4:12:43'
p5936
V10/1 + 10/4 + 10/9 + 10/16 + 10/25
p5937
tp5938
asg9
V2015-11-04 20:46:39
p5939
sS'part6_correct_attempt'
p5940
(lp5941
S'1 day, 6:34:51'
p5942
aV10+10/9+10/25 +40/4+40/16
p5943
assVggaddi
p5944
(dp5945
S'part5_correct_attempt'
p5946
(lp5947
S'0:02:58'
p5948
aV1-1+1/3-1/2+1/5
p5949
asS'part6_incorrect_attempt'
p5950
(lp5951
(S'0:02:58'
p5952
V8/(1^2)+8/(2^2)+8/(3^2)+8/(4^2)+8/(5^2)
p5953
tp5954
a(S'0:03:13'
p5955
V8/(1^2)+2*8/(2^2)+8/(3^2)+2*8/(4^2)+8/(5^2)
p5956
tp5957
a(S'0:03:32'
p5958
V8/(1^2)+8/(2^2)/2+8/(3^2)+8/(4^2)/2+8/(5^2)
p5959
tp5960
asg9
V2015-11-01 21:09:45
p5961
sS'part6_correct_attempt'
p5962
(lp5963
S'0:03:52'
p5964
aV8/(1^2)+4*8/(2^2)+8/(3^2)+4*8/(4^2)+8/(5^2)
p5965
assVmtrafeca
p5966
(dp5967
S'part5_correct_attempt'
p5968
(lp5969
S'0:05:47'
p5970
aV1-2/2+1/3-2/4+1/5
p5971
asS'part6_incorrect_attempt'
p5972
(lp5973
(S'0:06:13'
p5974
V6+12/4+6/9+12/16+6/25
p5975
tp5976
asg9
g2170
sS'part6_correct_attempt'
p5977
(lp5978
S'0:12:02'
p5979
aV(6+6/9+6/25)+4(6/4+6/16)
p5980
assVmjethani
p5981
(dp5982
S'part5_correct_attempt'
p5983
(lp5984
S'0:02:52'
p5985
aV(5/1) - ((2)5/2) + (5/3) - ((2)5/4) + (5/5)
p5986
asS'part6_incorrect_attempt'
p5987
(lp5988
(S'0:03:32'
p5989
V(5/1) - ((2)5/2) + (5/3) - ((2)5/4) + (5/5)
p5990
tp5991
asg9
g4621
sS'part6_correct_attempt'
p5992
(lp5993
S'1 day, 16:03:17'
p5994
aV(10) + 4(10/4) + (10/9) + 4(10/16) + (10/25)
p5995
assVkgrozav
p5996
(dp5997
S'part5_correct_attempt'
p5998
(lp5999
S'0:28:44'
p6000
ag3102
asS'part6_incorrect_attempt'
p6001
(lp6002
(S'0:28:44'
p6003
V2.4011111
p6004
tp6005
asg9
g3111
sS'part6_correct_attempt'
p6006
(lp6007
S'0:29:06'
p6008
aV2.4011111*7
p6009
assVk3tan
p6010
(dp6011
S'part5_correct_attempt'
p6012
(lp6013
S'0:05:45'
p6014
aV4/3-2+4/5
p6015
asS'part6_incorrect_attempt'
p6016
(lp6017
(S'0:06:11'
p6018
V10 +10/2+10/9 + 10/8 + 10/25
p6019
tp6020
a(S'0:06:54'
p6021
V10 -10/2+10/9 - 10/8 + 10/25
p6022
tp6023
a(S'0:07:08'
p6024
V10 +10/4+10/9 + 10/16 + 10/25
p6025
tp6026
asg9
g3819
sS'part6_correct_attempt'
p6027
(lp6028
S'3:45:30'
p6029
aV10 +10+10/9 + 10/4 + 10/25
p6030
asss.