(dp0
V1
p1
(dp2
Vv4zhang
p3
(dp4
S'part1_correct_attempt'
p5
(lp6
S'0:00:54'
p7
aV0
p8
asS'first_attempt'
p9
V2015-11-06 07:32:30
p10
sS'part1_incorrect_attempt'
p11
(lp12
(S'0:00:00'
p13
V90*1/2
p14
tp15
assVt2shin
p16
(dp17
S'part1_correct_attempt'
p18
(lp19
S'0:00:59'
p20
aV0
p21
asg9
V2015-11-05 21:49:52
p22
sS'part1_incorrect_attempt'
p23
(lp24
(S'0:00:00'
p25
V100*0.5
p26
tp27
assVhaw081
p28
(dp29
S'part1_correct_attempt'
p30
(lp31
S'0:13:29'
p32
aV0
p33
asg9
V2015-11-03 02:09:24
p34
sS'part1_incorrect_attempt'
p35
(lp36
(S'0:00:00'
p37
V60*0.5
p38
tp39
assVk4ma
p40
(dp41
S'part1_correct_attempt'
p42
(lp43
S'0:00:18'
p44
aV0
p45
asg9
V2015-11-06 21:41:59
p46
sS'part1_incorrect_attempt'
p47
(lp48
(S'0:00:00'
p49
V50*.5
p50
tp51
assVany027
p52
(dp53
S'part1_correct_attempt'
p54
(lp55
S'0:00:50'
p56
aV0
p57
asg9
V2015-11-01 22:12:06
p58
sS'part1_incorrect_attempt'
p59
(lp60
(S'0:00:00'
p61
V((1+-.5) + (1+.5)) / 2
p62
tp63
assVpvl001
p64
(dp65
S'part1_correct_attempt'
p66
(lp67
S'0:00:11'
p68
aV0
p69
asg9
V2015-11-03 21:01:48
p70
sS'part1_incorrect_attempt'
p71
(lp72
(S'0:00:00'
p73
V(1 + 45)/2
p74
tp75
asssV3
p76
(dp77
Vbmilton
p78
(dp79
S'part3_correct_attempt'
p80
(lp81
S'0:03:14'
p82
aV0
p83
asS'part2_correct_attempt'
p84
(lp85
S'0:01:03'
p86
aVsqrt((1/12) * (1))
p87
asg9
V2015-11-06 22:46:04
p88
sS'part3_incorrect_attempt'
p89
(lp90
(S'0:02:23'
p91
V70 * (1/2)
p92
tp93
assVdlt009
p94
(dp95
S'part3_correct_attempt'
p96
(lp97
S'0:07:31'
p98
aV0
p99
asS'part2_correct_attempt'
p100
(lp101
S'0:05:02'
p102
aVsqrt[(1/12)]
p103
asg9
V2015-11-05 08:33:37
p104
sS'part3_incorrect_attempt'
p105
(lp106
(S'0:05:34'
p107
V(40)/2
p108
tp109
assVmbl003
p110
(dp111
S'part3_correct_attempt'
p112
(lp113
S'0:05:01'
p114
aV0
p115
asS'part2_correct_attempt'
p116
(lp117
S'0:01:05'
p118
aVsqrt((1/12)*(1)^2)
p119
asg9
V2015-11-06 20:33:10
p120
sS'part3_incorrect_attempt'
p121
(lp122
(S'0:04:51'
p123
V80/2
p124
tp125
assVj5phung
p126
(dp127
S'part3_correct_attempt'
p128
(lp129
S'0:14:34'
p130
aV0
p131
asS'part2_correct_attempt'
p132
(lp133
S'0:06:25'
p134
aVsqrt(1/12)
p135
asg9
V2015-11-04 21:17:03
p136
sS'part3_incorrect_attempt'
p137
(lp138
(S'0:09:29'
p139
V(80*81)/4
p140
tp141
a(S'0:13:56'
p142
V(80)/2
p143
tp144
asssV2
p145
(dp146
Vgthorn
p147
(dp148
S'part2_correct_attempt'
p149
(lp150
S'0:01:10'
p151
aVsqrt(1/12 * (.5 + .5)^2)
p152
asg9
V2015-11-05 07:13:41
p153
sS'part2_incorrect_attempt'
p154
(lp155
(S'0:00:15'
p156
V1/12
p157
tp158
assVphodgson
p159
(dp160
S'part2_correct_attempt'
p161
(lp162
S'0:00:56'
p163
aVsqrt(1/12)
p164
asg9
V2015-11-06 06:44:32
p165
sS'part2_incorrect_attempt'
p166
(lp167
(S'0:00:00'
p168
V1/12
p169
tp170
assVv4zhang
p171
(dp172
S'part2_correct_attempt'
p173
(lp174
S'0:02:05'
p175
aVsqrt(1/12)
p176
asg9
V2015-11-06 07:33:24
p177
sS'part2_incorrect_attempt'
p178
(lp179
(S'0:00:00'
p180
V[(.5--.5)^2]/12
p181
tp182
assVkew060
p183
(dp184
S'part2_correct_attempt'
p185
(lp186
S'2 days, 21:33:22'
p187
aV(1/12)^(1/2)
p188
asg9
V2015-11-03 02:12:39
p189
sS'part2_incorrect_attempt'
p190
(lp191
(S'0:00:00'
p192
V2.887
p193
tp194
a(S'0:00:28'
p195
V25/3 
p196
tp197
a(S'0:00:44'
p198
V187.655
p199
tp200
a(S'2 days, 19:20:20'
p201
V1/12
p202
tp203
assVkbielawi
p204
(dp205
S'part2_correct_attempt'
p206
(lp207
S'4:01:37'
p208
aVsqrt(1/12)
p209
asg9
V2015-11-05 21:37:38
p210
sS'part2_incorrect_attempt'
p211
(lp212
(S'0:01:04'
p213
V.5
p214
tp215
a(S'0:01:09'
p216
V.25
p217
tp218
a(S'3:00:14'
p219
V.5
p220
tp221
a(S'3:01:36'
p222
V1/12
p223
tp224
a(S'4:00:51'
p225
V1/1
p226
tp227
assVjguanzho
p228
(dp229
S'part2_correct_attempt'
p230
(lp231
S'0:19:20'
p232
aV(1/12)**0.5
p233
asg9
V2015-11-05 17:44:38
p234
sS'part2_incorrect_attempt'
p235
(lp236
(S'0:00:00'
p237
V1/12
p238
tp239
a(S'0:01:28'
p240
V(0.5*0.5*80)**0.5
p241
tp242
assValakamsa
p243
(dp244
S'part2_correct_attempt'
p245
(lp246
S'1 day, 23:50:40'
p247
aVsqrt(1/12)
p248
asg9
V2015-11-02 19:37:10
p249
sS'part2_incorrect_attempt'
p250
(lp251
(S'0:00:00'
p252
V1/12
p253
tp254
assVjjm019
p255
(dp256
S'part2_correct_attempt'
p257
(lp258
S'4:07:39'
p259
aVsqrt(1/12)
p260
asg9
V2015-11-04 23:39:31
p261
sS'part2_incorrect_attempt'
p262
(lp263
(S'3:57:34'
p264
V.5
p265
tp266
assVdkurli
p267
(dp268
S'part2_correct_attempt'
p269
(lp270
S'0:01:28'
p271
aVsqrt(1/12)
p272
asg9
V2015-11-05 03:29:36
p273
sS'part2_incorrect_attempt'
p274
(lp275
(S'0:00:19'
p276
V1/2
p277
tp278
a(S'0:00:28'
p279
V.25
p280
tp281
a(S'0:01:06'
p282
V1/12
p283
tp284
assVnhn018
p285
(dp286
S'part2_correct_attempt'
p287
(lp288
S'0:13:44'
p289
aV1/sqrt(12)
p290
asg9
V2015-11-05 05:47:59
p291
sS'part2_incorrect_attempt'
p292
(lp293
(S'0:13:00'
p294
V1/sqrt(1/2)
p295
tp296
assVj5phung
p297
(dp298
S'part2_correct_attempt'
p299
(lp300
S'0:06:25'
p301
ag135
asg9
g136
sS'part2_incorrect_attempt'
p302
(lp303
(S'0:02:03'
p304
V0.5
p305
tp306
a(S'0:04:36'
p307
Vsqrt((1/8)*(80*81)/2)
p308
tp309
assVvqt004
p310
(dp311
S'part2_correct_attempt'
p312
(lp313
S'0:06:03'
p314
aVsqrt(1/12)
p315
asg9
V2015-11-06 06:24:52
p316
sS'part2_incorrect_attempt'
p317
(lp318
(S'-1 day, 23:56:57'
p319
V1/12
p320
tp321
a(S'0:00:32'
p322
V1/12
p323
tp324
a(S'0:02:57'
p325
Vsqrt(0.5*90)
p326
tp327
assVmnrahman
p328
(dp329
S'part2_correct_attempt'
p330
(lp331
S'0:00:21'
p332
aVsqrt(1/12)
p333
asg9
V2015-11-07 00:05:33
p334
sS'part2_incorrect_attempt'
p335
(lp336
(S'0:00:00'
p337
V1/12
p338
tp339
assVbtn023
p340
(dp341
S'part2_correct_attempt'
p342
(lp343
S'7:04:33'
p344
aVsqrt(1/12(1)^2)
p345
asg9
V2015-11-06 11:22:14
p346
sS'part2_incorrect_attempt'
p347
(lp348
(S'0:02:51'
p349
V.5
p350
tp351
a(S'0:03:29'
p352
V2*.5*(-.5)^2
p353
tp354
a(S'0:04:29'
p355
V.5*(-.5)^2
p356
tp357
a(S'0:06:01'
p358
V1/8
p359
tp360
a(S'0:12:31'
p361
Vsqrt(1/12(.5)^2*2)
p362
tp363
a(S'0:12:47'
p364
Vsqrt(1/12(.5)^2)
p365
tp366
assVdgunawan
p367
(dp368
S'part2_correct_attempt'
p369
(lp370
S'15:18:43'
p371
aV(1/12)^(1/2)
p372
asg9
V2015-11-05 08:57:44
p373
sS'part2_incorrect_attempt'
p374
(lp375
(S'0:00:00'
p376
V((.5+.5)^2)/12
p377
tp378
a(S'0:01:07'
p379
V((.5-.5)^2)/12
p380
tp381
a(S'0:01:19'
p382
V((.5+.5)^2)/12
p383
tp384
a(S'0:01:43'
p385
V85*(((.5+.5)^2)/12)
p386
tp387
a(S'15:18:20'
p388
V(1/6)(1)
p389
tp390
assVmpanelo
p391
(dp392
S'part2_correct_attempt'
p393
(lp394
S'0:01:17'
p395
aVsqrt(1/12)
p396
asg9
V2015-11-05 23:02:59
p397
sS'part2_incorrect_attempt'
p398
(lp399
(S'0:00:00'
p400
V1/12
p401
tp402
assVtcn013
p403
(dp404
S'part2_correct_attempt'
p405
(lp406
S'0:01:52'
p407
aVsqrt(1/12)
p408
asg9
V2015-11-05 20:57:24
p409
sS'part2_incorrect_attempt'
p410
(lp411
(S'0:00:00'
p412
V1/12
p413
tp414
a(S'0:01:24'
p415
V1/144
p416
tp417
assVtstevens
p418
(dp419
S'part2_correct_attempt'
p420
(lp421
S'0:02:57'
p422
aV.288675135
p423
asg9
V2015-11-06 12:10:21
p424
sS'part2_incorrect_attempt'
p425
(lp426
(S'0:00:12'
p427
V.5
p428
tp429
a(S'0:02:11'
p430
V1/12
p431
tp432
a(S'0:02:32'
p433
V.0833333333333333333333
p434
tp435
assVtcuddy
p436
(dp437
S'part2_correct_attempt'
p438
(lp439
S'0:12:06'
p440
aV(1/12)**.5
p441
asg9
V2015-11-05 18:05:57
p442
sS'part2_incorrect_attempt'
p443
(lp444
(S'0:11:51'
p445
V1/12
p446
tp447
assVdando
p448
(dp449
S'part2_correct_attempt'
p450
(lp451
S'0:01:49'
p452
aVsqrt(1/12)
p453
asg9
V2015-11-06 23:46:43
p454
sS'part2_incorrect_attempt'
p455
(lp456
(S'0:00:00'
p457
V1/12
p458
tp459
assVdsriniva
p460
(dp461
S'part2_correct_attempt'
p462
(lp463
S'0:00:56'
p464
aVsqrt(1/12)
p465
asg9
V2015-11-05 16:57:53
p466
sS'part2_incorrect_attempt'
p467
(lp468
(S'0:00:00'
p469
V1/12
p470
tp471
assVabasu
p472
(dp473
S'part2_correct_attempt'
p474
(lp475
S'0:42:28'
p476
aVsqrt(1/12)
p477
asg9
V2015-11-05 04:56:21
p478
sS'part2_incorrect_attempt'
p479
(lp480
(S'0:01:21'
p481
V.5
p482
tp483
a(S'0:02:52'
p484
V.5
p485
tp486
a(S'0:35:42'
p487
V0.25
p488
tp489
assVsayao
p490
(dp491
S'part2_correct_attempt'
p492
(lp493
S'1 day, 22:04:00'
p494
aVsqrt((1/12))
p495
asg9
V2015-11-04 01:56:12
p496
sS'part2_incorrect_attempt'
p497
(lp498
(S'0:00:30'
p499
V.5
p500
tp501
a(S'0:03:12'
p502
V1/12
p503
tp504
a(S'1 day, 2:03:14'
p505
V.5
p506
tp507
a(S'1 day, 2:03:21'
p508
V.25
p509
tp510
a(S'1 day, 15:05:12'
p511
V1/12
p512
tp513
assVachava
p514
(dp515
S'part2_correct_attempt'
p516
(lp517
S'0:03:18'
p518
aVsqrt(1/12)
p519
asg9
V2015-11-06 08:21:51
p520
sS'part2_incorrect_attempt'
p521
(lp522
(S'0:00:14'
p523
V1/12
p524
tp525
assVmitopete
p526
(dp527
S'part2_correct_attempt'
p528
(lp529
S'0:00:47'
p530
aV((1/12)(1)^(2))^(1/2)
p531
asg9
V2015-11-04 05:20:00
p532
sS'part2_incorrect_attempt'
p533
(lp534
(S'0:00:00'
p535
V(1)^(1/2)
p536
tp537
assVstarinia
p538
(dp539
S'part2_correct_attempt'
p540
(lp541
S'1:21:40'
p542
aVsqrt(1/12)
p543
asg9
V2015-11-05 03:37:59
p544
sS'part2_incorrect_attempt'
p545
(lp546
(S'0:56:33'
p547
Vsqrt(90 * 1/2 *(1-1/2))
p548
tp549
assVm4salaza
p550
(dp551
S'part2_correct_attempt'
p552
(lp553
S'0:03:58'
p554
aV1/sqrt(12)
p555
asg9
V2015-11-05 05:39:08
p556
sS'part2_incorrect_attempt'
p557
(lp558
(S'0:01:00'
p559
Vsqrt(((-.5+.5)/2)*(1-1/12))
p560
tp561
assVyos017
p562
(dp563
S'part2_correct_attempt'
p564
(lp565
S'0:06:59'
p566
aV(1/12)^(1/2)
p567
asg9
V2015-11-06 09:42:21
p568
sS'part2_incorrect_attempt'
p569
(lp570
(S'0:00:00'
p571
V100/12
p572
tp573
a(S'0:01:06'
p574
V1/12
p575
tp576
assVhabuamar
p577
(dp578
S'part2_correct_attempt'
p579
(lp580
S'0:00:23'
p581
aVsqrt(1/12)
p582
asg9
V2015-11-03 00:33:33
p583
sS'part2_incorrect_attempt'
p584
(lp585
(S'0:00:00'
p586
V1/12
p587
tp588
assVakg009
p589
(dp590
S'part2_correct_attempt'
p591
(lp592
S'0:00:41'
p593
aVsqrt(1/12)
p594
asg9
V2015-11-06 21:08:58
p595
sS'part2_incorrect_attempt'
p596
(lp597
(S'0:00:00'
p598
V1/12
p599
tp600
assVjit002
p601
(dp602
S'part2_correct_attempt'
p603
(lp604
S'0:09:50'
p605
aV(1/12)^0.5
p606
asg9
V2015-11-05 18:29:03
p607
sS'part2_incorrect_attempt'
p608
(lp609
(S'0:00:33'
p610
V0.5
p611
tp612
a(S'0:09:24'
p613
V1/12
p614
tp615
assVb3hwang
p616
(dp617
S'part2_correct_attempt'
p618
(lp619
S'0:04:20'
p620
aV(1/12)^(1/2)
p621
asg9
V2015-11-05 19:43:51
p622
sS'part2_incorrect_attempt'
p623
(lp624
(S'0:00:11'
p625
V1/12
p626
tp627
assVjag028
p628
(dp629
S'part2_correct_attempt'
p630
(lp631
S'0:01:49'
p632
aVsqrt[1/12]
p633
asg9
V2015-11-03 21:50:42
p634
sS'part2_incorrect_attempt'
p635
(lp636
(S'0:00:21'
p637
V1/12
p638
tp639
assVquwong
p640
(dp641
S'part2_correct_attempt'
p642
(lp643
S'2:29:28'
p644
aV1/(12^0.5)
p645
asg9
V2015-11-02 23:11:22
p646
sS'part2_incorrect_attempt'
p647
(lp648
(S'0:00:00'
p649
V1/12
p650
tp651
a(S'0:00:20'
p652
V0.25/12
p653
tp654
assVasetters
p655
(dp656
S'part2_correct_attempt'
p657
(lp658
S'0:00:23'
p659
aVsqrt(1/12)
p660
asg9
V2015-11-05 20:24:36
p661
sS'part2_incorrect_attempt'
p662
(lp663
(S'0:00:00'
p664
V1/12
p665
tp666
assVatorr
p667
(dp668
S'part2_correct_attempt'
p669
(lp670
S'0:00:22'
p671
aV(1/12)^0.5
p672
asg9
V2015-11-05 20:29:27
p673
sS'part2_incorrect_attempt'
p674
(lp675
(S'-1 day, 23:59:40'
p676
V1/12
p677
tp678
assVcprafull
p679
(dp680
S'part2_correct_attempt'
p681
(lp682
S'0:01:07'
p683
aVsqrt(1/12)
p684
asg9
V2015-11-06 02:56:30
p685
sS'part2_incorrect_attempt'
p686
(lp687
(S'0:00:37'
p688
V1/12
p689
tp690
assVkrau
p691
(dp692
S'part2_correct_attempt'
p693
(lp694
S'6:55:53'
p695
aVsqrt(1/12)
p696
asg9
V2015-11-04 20:35:20
p697
sS'part2_incorrect_attempt'
p698
(lp699
(S'0:00:24'
p700
Vsqrt(.5)
p701
tp702
a(S'0:01:20'
p703
V1/12
p704
tp705
assVt2li
p706
(dp707
S'part2_correct_attempt'
p708
(lp709
S'0:05:58'
p710
aVsqrt(1/12)
p711
asg9
V2015-11-06 03:12:19
p712
sS'part2_incorrect_attempt'
p713
(lp714
(S'0:00:10'
p715
V1/12
p716
tp717
assVt1tran
p718
(dp719
S'part2_correct_attempt'
p720
(lp721
S'0:01:41'
p722
aVsqrt(1/12(.5+.5)^2)
p723
asg9
V2015-11-04 00:37:13
p724
sS'part2_incorrect_attempt'
p725
(lp726
(S'0:00:00'
p727
Vsqrt(1/2(.5-(-.5))^2)
p728
tp729
assVdsmonaha
p730
(dp731
S'part2_correct_attempt'
p732
(lp733
S'0:03:32'
p734
aV(1/12)^(1/2)
p735
asg9
V2015-11-04 16:46:52
p736
sS'part2_incorrect_attempt'
p737
(lp738
(S'0:00:27'
p739
V(1/12)
p740
tp741
assVedescobe
p742
(dp743
S'part2_correct_attempt'
p744
(lp745
S'0:13:07'
p746
aV1/12^(1/2)
p747
asg9
V2015-11-04 12:13:40
p748
sS'part2_incorrect_attempt'
p749
(lp750
(S'0:00:00'
p751
V1/12
p752
tp753
assVw4shin
p754
(dp755
S'part2_correct_attempt'
p756
(lp757
S'0:00:11'
p758
aVsqrt(1/12)
p759
asg9
V2015-11-06 23:46:03
p760
sS'part2_incorrect_attempt'
p761
(lp762
(S'0:00:00'
p763
V1/12
p764
tp765
assVbakang
p766
(dp767
S'part2_correct_attempt'
p768
(lp769
S'0:00:53'
p770
aVsqrt((1/12)*(1)^2)
p771
asg9
V2015-11-05 16:30:57
p772
sS'part2_incorrect_attempt'
p773
(lp774
(S'0:00:46'
p775
Vsqrt((1/12)*(0.9)^2)
p776
tp777
assVsmohiman
p778
(dp779
S'part2_correct_attempt'
p780
(lp781
S'0:01:18'
p782
aV(1/12)^(1/2)
p783
asg9
V2015-11-02 03:24:17
p784
sS'part2_incorrect_attempt'
p785
(lp786
(S'0:00:00'
p787
V1/12
p788
tp789
assVmuy002
p790
(dp791
S'part2_correct_attempt'
p792
(lp793
S'0:03:07'
p794
aVsqrt(1/12)
p795
asg9
V2015-11-06 04:43:41
p796
sS'part2_incorrect_attempt'
p797
(lp798
(S'0:02:58'
p799
V1/12
p800
tp801
assVjtfrankl
p802
(dp803
S'part2_correct_attempt'
p804
(lp805
S'0:00:27'
p806
aVsqrt(1/12)
p807
asg9
V2015-11-06 19:06:40
p808
sS'part2_incorrect_attempt'
p809
(lp810
(S'0:00:00'
p811
V1/12
p812
tp813
assVcstringh
p814
(dp815
S'part2_correct_attempt'
p816
(lp817
S'0:00:41'
p818
aVsqrt(1/12)
p819
asg9
V2015-11-04 07:24:44
p820
sS'part2_incorrect_attempt'
p821
(lp822
(S'0:00:00'
p823
V1/12
p824
tp825
a(S'0:00:09'
p826
V1/70
p827
tp828
assVdan029
p829
(dp830
S'part2_correct_attempt'
p831
(lp832
S'0:00:41'
p833
aV1/sqrt(12)
p834
asg9
V2015-11-05 09:34:22
p835
sS'part2_incorrect_attempt'
p836
(lp837
(S'0:00:00'
p838
V1/12
p839
tp840
assVralhadda
p841
(dp842
g9
V2015-10-31 22:13:59
p843
sS'part2_incorrect_attempt'
p844
(lp845
(S'0:00:59'
p846
V1/12
p847
tp848
a(S'3:22:43'
p849
V1/12
p850
tp851
a(S'3:33:00'
p852
V65/12
p853
tp854
a(S'3:35:00'
p855
V1/12
p856
tp857
assVyjshin
p858
(dp859
S'part2_correct_attempt'
p860
(lp861
S'0:02:50'
p862
aVsqrt(((.5+.5)^2)/12)
p863
asg9
V2015-11-06 23:24:16
p864
sS'part2_incorrect_attempt'
p865
(lp866
(S'0:01:07'
p867
V((.5+.5)^2)/12
p868
tp869
assVrohan
p870
(dp871
S'part2_correct_attempt'
p872
(lp873
S'0:02:16'
p874
aVsqrt(1/12)
p875
asg9
V2015-11-07 00:16:39
p876
sS'part2_incorrect_attempt'
p877
(lp878
(S'0:00:15'
p879
V1/12
p880
tp881
assVdcastlem
p882
(dp883
S'part2_correct_attempt'
p884
(lp885
S'1:33:42'
p886
aVsqrt(1/12)
p887
asg9
V2015-11-03 00:41:05
p888
sS'part2_incorrect_attempt'
p889
(lp890
(S'1:32:29'
p891
V1/12
p892
tp893
assVhsc052
p894
(dp895
S'part2_correct_attempt'
p896
(lp897
S'0:04:01'
p898
aVsqrt(1/12)
p899
asg9
V2015-11-06 23:07:48
p900
sS'part2_incorrect_attempt'
p901
(lp902
(S'0:03:21'
p903
V1/12
p904
tp905
assVxil109
p906
(dp907
S'part2_correct_attempt'
p908
(lp909
S'0:00:16'
p910
aVsqrt(1/12)
p911
asg9
V2015-11-06 01:32:47
p912
sS'part2_incorrect_attempt'
p913
(lp914
(S'0:00:00'
p915
V1/6
p916
tp917
assVzhz159
p918
(dp919
S'part2_correct_attempt'
p920
(lp921
S'0:12:38'
p922
aV0.288675
p923
asg9
V2015-11-05 23:37:06
p924
sS'part2_incorrect_attempt'
p925
(lp926
(S'0:00:00'
p927
V0.31622777
p928
tp929
assVwmiao
p930
(dp931
S'part2_correct_attempt'
p932
(lp933
S'0:05:26'
p934
aV(1/12*1^2)^0.5
p935
asg9
V2015-11-05 22:53:24
p936
sS'part2_incorrect_attempt'
p937
(lp938
(S'0:00:00'
p939
V(0.5*(1-0.5)*0)^0.5
p940
tp941
a(S'0:02:36'
p942
V(0.5*(1-0.5)*100)^0.5
p943
tp944
a(S'0:02:52'
p945
V(0.5*(1-0.5)*1)^0.5
p946
tp947
assVh4tu
p948
(dp949
S'part2_correct_attempt'
p950
(lp951
S'0:00:42'
p952
aVsqrt(1/12)
p953
asg9
V2015-11-06 23:48:34
p954
sS'part2_incorrect_attempt'
p955
(lp956
(S'0:00:14'
p957
V(1/12)
p958
tp959
assVlywong
p960
(dp961
S'part2_correct_attempt'
p962
(lp963
S'1 day, 16:27:35'
p964
aVsqrt((1/12))
p965
asg9
V2015-11-04 07:33:22
p966
sS'part2_incorrect_attempt'
p967
(lp968
(S'0:00:34'
p969
V3.31662
p970
tp971
a(S'0:01:39'
p972
V100/12
p973
tp974
a(S'1 day, 16:13:14'
p975
V(1)^(1/2)
p976
tp977
a(S'1 day, 16:26:42'
p978
Vsqrt((1/12)(10)^2)
p979
tp980
assVhkhodada
p981
(dp982
S'part2_correct_attempt'
p983
(lp984
S'1 day, 2:40:21'
p985
aV1/sqrt(12)
p986
asg9
V2015-11-03 01:20:13
p987
sS'part2_incorrect_attempt'
p988
(lp989
(S'-1 day, 23:26:51'
p990
V1/12
p991
tp992
a(S'-1 day, 23:56:31'
p993
V0.288
p994
tp995
a(S'-1 day, 23:58:07'
p996
V0.29
p997
tp998
a(S'0:00:00'
p999
V0.3
p1000
tp1001
assVglcohen
p1002
(dp1003
S'part2_correct_attempt'
p1004
(lp1005
S'9:30:54'
p1006
aVsqrt((1/12)((-.5-.5)^2))
p1007
asg9
V2015-11-03 22:16:17
p1008
sS'part2_incorrect_attempt'
p1009
(lp1010
(S'9:22:46'
p1011
Vsqrt(50)
p1012
tp1013
a(S'9:28:47'
p1014
V0.5
p1015
tp1016
assVacvuong
p1017
(dp1018
S'part2_correct_attempt'
p1019
(lp1020
S'0:01:36'
p1021
aV(1/12)^0.5
p1022
asg9
V2015-11-05 01:09:21
p1023
sS'part2_incorrect_attempt'
p1024
(lp1025
(S'0:00:00'
p1026
V1/12
p1027
tp1028
assVd6he
p1029
(dp1030
S'part2_correct_attempt'
p1031
(lp1032
S'0:06:27'
p1033
aVsqrt(1/12)
p1034
asg9
V2015-11-05 07:07:49
p1035
sS'part2_incorrect_attempt'
p1036
(lp1037
(S'0:01:42'
p1038
V 0.29
p1039
tp1040
a(S'0:04:08'
p1041
V0.08333333
p1042
tp1043
assVsachadal
p1044
(dp1045
S'part2_correct_attempt'
p1046
(lp1047
S'1 day, 1:50:53'
p1048
aV1/sqrt(12)
p1049
asg9
V2015-11-05 20:29:44
p1050
sS'part2_incorrect_attempt'
p1051
(lp1052
(S'1 day, 1:48:02'
p1053
V1/12
p1054
tp1055
assVpvl001
p1056
(dp1057
S'part2_correct_attempt'
p1058
(lp1059
S'6:46:43'
p1060
aVsqrt(1/12)
p1061
asg9
V2015-11-03 21:01:59
p1062
sS'part2_incorrect_attempt'
p1063
(lp1064
(S'0:00:10'
p1065
V.5
p1066
tp1067
a(S'6:41:29'
p1068
V.5 * .5
p1069
tp1070
a(S'6:41:49'
p1071
Vsqrt(.5 * .5)
p1072
tp1073
assVjcj006
p1074
(dp1075
S'part2_correct_attempt'
p1076
(lp1077
S'0:00:33'
p1078
aVsqrt(1/12)
p1079
asg9
V2015-11-04 22:41:00
p1080
sS'part2_incorrect_attempt'
p1081
(lp1082
(S'0:00:00'
p1083
V1/12
p1084
tp1085
assVmbl003
p1086
(dp1087
S'part2_correct_attempt'
p1088
(lp1089
S'0:01:05'
p1090
ag119
asg9
g120
sS'part2_incorrect_attempt'
p1091
(lp1092
(S'0:00:24'
p1093
Vsqrt((1/12)*(0)^2)
p1094
tp1095
assVn2patil
p1096
(dp1097
S'part2_correct_attempt'
p1098
(lp1099
S'0:21:12'
p1100
aV(1/12)^(1/2)
p1101
asg9
V2015-11-05 02:49:23
p1102
sS'part2_incorrect_attempt'
p1103
(lp1104
(S'0:00:22'
p1105
V1/12
p1106
tp1107
a(S'0:15:15'
p1108
V1/24
p1109
tp1110
assVksmurlo
p1111
(dp1112
S'part2_correct_attempt'
p1113
(lp1114
S'0:01:01'
p1115
aVsqrt[1/12(.5-(-.5))^2]
p1116
asg9
V2015-11-05 06:55:06
p1117
sS'part2_incorrect_attempt'
p1118
(lp1119
(S'0:00:11'
p1120
V1/12
p1121
tp1122
assVjblynch
p1123
(dp1124
S'part2_correct_attempt'
p1125
(lp1126
S'0:00:29'
p1127
aVsqrt(1/12)
p1128
asg9
V2015-11-04 21:10:13
p1129
sS'part2_incorrect_attempt'
p1130
(lp1131
(S'-1 day, 23:59:37'
p1132
Vsqrt((1/12)(75)^2)
p1133
tp1134
assVbeerye28
p1135
(dp1136
S'part2_correct_attempt'
p1137
(lp1138
S'0:00:39'
p1139
aV(1/12)^(.5)
p1140
asg9
V2015-11-03 06:39:44
p1141
sS'part2_incorrect_attempt'
p1142
(lp1143
(S'0:00:00'
p1144
V1/12
p1145
tp1146
assVaakumar
p1147
(dp1148
S'part2_correct_attempt'
p1149
(lp1150
S'0:14:52'
p1151
aV(1/12)^(1/2)
p1152
asg9
V2015-11-05 05:04:40
p1153
sS'part2_incorrect_attempt'
p1154
(lp1155
(S'0:00:11'
p1156
V.5
p1157
tp1158
a(S'0:00:23'
p1159
V.25
p1160
tp1161
assVhachrist
p1162
(dp1163
S'part2_correct_attempt'
p1164
(lp1165
S'0:00:27'
p1166
aVsqrt(1/12)
p1167
asg9
V2015-11-05 08:54:30
p1168
sS'part2_incorrect_attempt'
p1169
(lp1170
(S'-1 day, 23:22:55'
p1171
V1- Phi(2)
p1172
tp1173
assVkew017
p1174
(dp1175
S'part2_correct_attempt'
p1176
(lp1177
S'0:03:33'
p1178
aVsqrt(1/12)
p1179
asg9
V2015-11-06 01:26:23
p1180
sS'part2_incorrect_attempt'
p1181
(lp1182
(S'0:00:00'
p1183
V80/4
p1184
tp1185
a(S'0:00:21'
p1186
Vsqrt(80/4)
p1187
tp1188
assVyeh013
p1189
(dp1190
S'part2_correct_attempt'
p1191
(lp1192
S'0:15:54'
p1193
aV(1/12)^(1/2)
p1194
asg9
V2015-11-05 03:10:28
p1195
sS'part2_incorrect_attempt'
p1196
(lp1197
(S'0:02:17'
p1198
V1/12
p1199
tp1200
a(S'0:06:46'
p1201
V1/6
p1202
tp1203
a(S'0:13:55'
p1204
V90/12
p1205
tp1206
assVppanourg
p1207
(dp1208
S'part2_correct_attempt'
p1209
(lp1210
S'0:01:05'
p1211
aVsqrt(1/12)
p1212
asg9
V2015-11-06 21:10:40
p1213
sS'part2_incorrect_attempt'
p1214
(lp1215
(S'0:00:45'
p1216
V1/12
p1217
tp1218
assVksrijong
p1219
(dp1220
S'part2_correct_attempt'
p1221
(lp1222
S'1:47:36'
p1223
aVsqrt((0.5+0.5)^2/12)
p1224
asg9
V2015-11-06 20:48:49
p1225
sS'part2_incorrect_attempt'
p1226
(lp1227
(S'1:41:16'
p1228
V.5/3
p1229
tp1230
assVyhhan
p1231
(dp1232
g9
V2015-11-07 00:24:55
p1233
sS'part2_incorrect_attempt'
p1234
(lp1235
(S'0:00:25'
p1236
V1/12
p1237
tp1238
assVvolim
p1239
(dp1240
S'part2_correct_attempt'
p1241
(lp1242
S'0:01:27'
p1243
aV(1/12)^(1/2)
p1244
asg9
V2015-11-04 23:32:33
p1245
sS'part2_incorrect_attempt'
p1246
(lp1247
(S'0:00:36'
p1248
V.25
p1249
tp1250
a(S'0:00:41'
p1251
V.5
p1252
tp1253
a(S'0:01:08'
p1254
V1/12
p1255
tp1256
assVabjara
p1257
(dp1258
S'part2_correct_attempt'
p1259
(lp1260
S'0:00:12'
p1261
aVsqrt(1/12)
p1262
asg9
V2015-11-04 05:45:43
p1263
sS'part2_incorrect_attempt'
p1264
(lp1265
(S'0:00:00'
p1266
V1/12
p1267
tp1268
assVcagatep
p1269
(dp1270
S'part2_correct_attempt'
p1271
(lp1272
S'0:00:36'
p1273
aVsqrt(1/12)
p1274
asg9
V2015-11-05 07:53:35
p1275
sS'part2_incorrect_attempt'
p1276
(lp1277
(S'0:00:00'
p1278
V1/12
p1279
tp1280
assVany027
p1281
(dp1282
S'part2_correct_attempt'
p1283
(lp1284
S'0:01:57'
p1285
aVsqrt(1/12 ( .5 - (-.5) )^2)
p1286
asg9
V2015-11-01 22:12:56
p1287
sS'part2_incorrect_attempt'
p1288
(lp1289
(S'0:01:03'
p1290
V1/2 ( .5 - (-.5) )^2
p1291
tp1292
assVdmn009
p1293
(dp1294
S'part2_correct_attempt'
p1295
(lp1296
S'0:33:01'
p1297
aV.288675
p1298
asg9
V2015-11-05 09:23:52
p1299
sS'part2_incorrect_attempt'
p1300
(lp1301
(S'0:20:33'
p1302
V1/12
p1303
tp1304
assVkquong
p1305
(dp1306
S'part2_correct_attempt'
p1307
(lp1308
S'0:10:36'
p1309
aVsqrt(1/12)
p1310
asg9
V2015-11-05 03:15:05
p1311
sS'part2_incorrect_attempt'
p1312
(lp1313
(S'0:00:08'
p1314
V.5
p1315
tp1316
a(S'0:09:13'
p1317
V85/12
p1318
tp1319
assVjfalcone
p1320
(dp1321
S'part2_correct_attempt'
p1322
(lp1323
S'0:07:45'
p1324
aVsqrt(1/12)
p1325
asg9
V2015-11-05 05:43:34
p1326
sS'part2_incorrect_attempt'
p1327
(lp1328
(S'0:01:39'
p1329
V1/12
p1330
tp1331
a(S'0:05:55'
p1332
V1/12^2
p1333
tp1334
a(S'0:06:05'
p1335
V1/(12^2)
p1336
tp1337
assVfichoi
p1338
(dp1339
S'part2_correct_attempt'
p1340
(lp1341
S'0:00:17'
p1342
aVsqrt(1/12)
p1343
asg9
V2015-11-04 20:06:44
p1344
sS'part2_incorrect_attempt'
p1345
(lp1346
(S'0:00:00'
p1347
V1/12
p1348
tp1349
assVqtluong
p1350
(dp1351
S'part2_correct_attempt'
p1352
(lp1353
S'0:00:27'
p1354
aVsqrt(1/12)
p1355
asg9
V2015-11-04 06:40:26
p1356
sS'part2_incorrect_attempt'
p1357
(lp1358
(S'0:00:00'
p1359
V1/2
p1360
tp1361
a(S'0:00:14'
p1362
V1/12
p1363
tp1364
assVmasaro
p1365
(dp1366
S'part2_correct_attempt'
p1367
(lp1368
S'0:00:38'
p1369
aVsqrt(1/12)
p1370
asg9
V2015-11-03 17:26:43
p1371
sS'part2_incorrect_attempt'
p1372
(lp1373
(S'0:00:00'
p1374
V1/12
p1375
tp1376
assVrwthomps
p1377
(dp1378
S'part2_correct_attempt'
p1379
(lp1380
S'0:03:50'
p1381
aVsqrt(1/12 * (.5 + .5))
p1382
asg9
V2015-11-06 21:51:27
p1383
sS'part2_incorrect_attempt'
p1384
(lp1385
(S'0:03:41'
p1386
Vsqrt(65 * 1/12 * (.5 + .5))
p1387
tp1388
assVamquinte
p1389
(dp1390
S'part2_correct_attempt'
p1391
(lp1392
S'0:01:23'
p1393
aV.2887
p1394
asg9
V2015-11-05 06:40:14
p1395
sS'part2_incorrect_attempt'
p1396
(lp1397
(S'0:00:37'
p1398
V1/12
p1399
tp1400
assVjmiclat
p1401
(dp1402
S'part2_correct_attempt'
p1403
(lp1404
S'0:00:30'
p1405
aVsqrt(1/12)
p1406
asg9
V2015-11-06 23:39:28
p1407
sS'part2_incorrect_attempt'
p1408
(lp1409
(S'0:00:00'
p1410
V1/12
p1411
tp1412
assVgsrandha
p1413
(dp1414
S'part2_correct_attempt'
p1415
(lp1416
S'0:40:10'
p1417
aVsqrt(1/12(1))
p1418
asg9
V2015-11-05 08:25:58
p1419
sS'part2_incorrect_attempt'
p1420
(lp1421
(S'0:00:55'
p1422
Vsqrt(75*.5(1-.5))
p1423
tp1424
assVbmilton
p1425
(dp1426
S'part2_correct_attempt'
p1427
(lp1428
S'0:01:03'
p1429
ag87
asg9
g88
sS'part2_incorrect_attempt'
p1430
(lp1431
(S'0:00:12'
p1432
V1/2
p1433
tp1434
a(S'0:00:19'
p1435
V1/12
p1436
tp1437
a(S'0:00:26'
p1438
V1/4
p1439
tp1440
assVagarango
p1441
(dp1442
S'part2_correct_attempt'
p1443
(lp1444
S'0:33:55'
p1445
aVsqrt(1/12)
p1446
asg9
V2015-11-05 03:19:35
p1447
sS'part2_incorrect_attempt'
p1448
(lp1449
(S'0:01:22'
p1450
V0.5
p1451
tp1452
a(S'0:05:27'
p1453
V1/12
p1454
tp1455
a(S'0:05:50'
p1456
V55/12
p1457
tp1458
assVtwsalim
p1459
(dp1460
S'part2_correct_attempt'
p1461
(lp1462
S'0:44:48'
p1463
aV0.28867
p1464
asg9
V2015-11-06 03:14:40
p1465
sS'part2_incorrect_attempt'
p1466
(lp1467
(S'0:00:00'
p1468
V1/12
p1469
tp1470
a(S'0:16:31'
p1471
V0.5
p1472
tp1473
a(S'0:20:40'
p1474
V1/3
p1475
tp1476
a(S'0:27:34'
p1477
V0.25
p1478
tp1479
a(S'0:44:38'
p1480
V0.288
p1481
tp1482
assVs6deng
p1483
(dp1484
S'part2_correct_attempt'
p1485
(lp1486
S'0:01:22'
p1487
aVsqrt(1/12)
p1488
asg9
V2015-11-05 07:44:22
p1489
sS'part2_incorrect_attempt'
p1490
(lp1491
(S'0:00:39'
p1492
V1/12
p1493
tp1494
assVachinn
p1495
(dp1496
S'part2_correct_attempt'
p1497
(lp1498
S'0:00:41'
p1499
aVsqrt(1/12)
p1500
asg9
V2015-11-03 21:36:45
p1501
sS'part2_incorrect_attempt'
p1502
(lp1503
(S'0:00:00'
p1504
V1/144
p1505
tp1506
assVjap009
p1507
(dp1508
S'part2_correct_attempt'
p1509
(lp1510
S'0:00:15'
p1511
aV(1/12)^(1/2)
p1512
asg9
V2015-11-05 22:39:20
p1513
sS'part2_incorrect_attempt'
p1514
(lp1515
(S'0:00:00'
p1516
V1/12
p1517
tp1518
assVjcl084
p1519
(dp1520
S'part2_correct_attempt'
p1521
(lp1522
S'0:00:11'
p1523
aVsqrt (1/12)
p1524
asg9
V2015-11-02 20:43:41
p1525
sS'part2_incorrect_attempt'
p1526
(lp1527
(S'0:00:00'
p1528
Vsqrt (112)
p1529
tp1530
assVaalhaida
p1531
(dp1532
g9
V2015-11-05 23:52:07
p1533
sS'part2_incorrect_attempt'
p1534
(lp1535
(S'0:00:08'
p1536
V(1/12)
p1537
tp1538
assVajabasa
p1539
(dp1540
S'part2_correct_attempt'
p1541
(lp1542
S'0:02:24'
p1543
aV((1/12)(-.5-.5)^2)^(1/2)
p1544
asg9
V2015-11-05 22:24:29
p1545
sS'part2_incorrect_attempt'
p1546
(lp1547
(S'0:02:05'
p1548
V((1/12)(-.5-.5)^2)^1/2
p1549
tp1550
assVmcatozzi
p1551
(dp1552
S'part2_correct_attempt'
p1553
(lp1554
S'0:13:09'
p1555
aVsqrt(1/12)
p1556
asg9
V2015-11-03 20:47:04
p1557
sS'part2_incorrect_attempt'
p1558
(lp1559
(S'0:02:02'
p1560
V.5
p1561
tp1562
assVacs008
p1563
(dp1564
S'part2_correct_attempt'
p1565
(lp1566
S'0:00:45'
p1567
aVsqrt(1/12)
p1568
asg9
V2015-11-05 21:49:23
p1569
sS'part2_incorrect_attempt'
p1570
(lp1571
(S'0:00:13'
p1572
V1/12
p1573
tp1574
assVdpereira
p1575
(dp1576
S'part2_correct_attempt'
p1577
(lp1578
S'0:01:51'
p1579
aVsqrt(1/12)
p1580
asg9
V2015-11-05 22:44:04
p1581
sS'part2_incorrect_attempt'
p1582
(lp1583
(S'0:00:00'
p1584
V1/12
p1585
tp1586
assVhmshah
p1587
(dp1588
S'part2_correct_attempt'
p1589
(lp1590
S'11:34:19'
p1591
aVsqrt(1/12)
p1592
asg9
V2015-11-05 09:49:10
p1593
sS'part2_incorrect_attempt'
p1594
(lp1595
(S'11:23:29'
p1596
V.5
p1597
tp1598
assVaordookh
p1599
(dp1600
S'part2_correct_attempt'
p1601
(lp1602
S'0:15:19'
p1603
aV(1/12(.5-(-.5))^2)^(1/2)
p1604
asg9
V2015-11-06 06:07:32
p1605
sS'part2_incorrect_attempt'
p1606
(lp1607
(S'0:00:23'
p1608
V1/2
p1609
tp1610
assVyig015
p1611
(dp1612
S'part2_correct_attempt'
p1613
(lp1614
S'0:13:38'
p1615
aV0.288675
p1616
asg9
V2015-11-05 10:57:48
p1617
sS'part2_incorrect_attempt'
p1618
(lp1619
(S'0:00:00'
p1620
V1/12
p1621
tp1622
assVhpc001
p1623
(dp1624
S'part2_correct_attempt'
p1625
(lp1626
S'0:00:58'
p1627
aVsqrt(1/12)
p1628
asg9
V2015-11-06 23:33:33
p1629
sS'part2_incorrect_attempt'
p1630
(lp1631
(S'0:00:00'
p1632
V.5
p1633
tp1634
assVxweng
p1635
(dp1636
S'part2_correct_attempt'
p1637
(lp1638
S'3:44:48'
p1639
aV0.28867
p1640
asg9
V2015-11-06 01:03:22
p1641
sS'part2_incorrect_attempt'
p1642
(lp1643
(S'0:00:17'
p1644
V1/12
p1645
tp1646
a(S'1:01:40'
p1647
V2.04124
p1648
tp1649
a(S'1:01:58'
p1650
V1.46969
p1651
tp1652
a(S'1:04:51'
p1653
V0.92918 
p1654
tp1655
a(S'1:05:14'
p1656
V 25 / 6
p1657
tp1658
a(S'1:30:01'
p1659
V2.04124
p1660
tp1661
a(S'1:34:17'
p1662
V25/6
p1663
tp1664
a(S'1:35:02'
p1665
V1/2.04124
p1666
tp1667
a(S'3:34:41'
p1668
V0.5869
p1669
tp1670
assVs2chaudh
p1671
(dp1672
S'part2_correct_attempt'
p1673
(lp1674
S'0:03:01'
p1675
aV1/sqrt(12)
p1676
asg9
V2015-11-06 06:42:11
p1677
sS'part2_incorrect_attempt'
p1678
(lp1679
(S'0:00:45'
p1680
V1/(sqrt(12)*sqrt(80))
p1681
tp1682
assVc3chung
p1683
(dp1684
S'part2_correct_attempt'
p1685
(lp1686
S'0:01:05'
p1687
aVsqrt(1/12)
p1688
asg9
V2015-11-06 22:30:22
p1689
sS'part2_incorrect_attempt'
p1690
(lp1691
(S'0:00:00'
p1692
V1/12
p1693
tp1694
assVzig006
p1695
(dp1696
S'part2_correct_attempt'
p1697
(lp1698
S'0:22:50'
p1699
aV(1/12)^0.5
p1700
asg9
V2015-11-04 21:45:16
p1701
sS'part2_incorrect_attempt'
p1702
(lp1703
(S'0:00:00'
p1704
V1/12
p1705
tp1706
assVzhw110
p1707
(dp1708
S'part2_correct_attempt'
p1709
(lp1710
S'0:57:06'
p1711
aV(1/12)^0.5
p1712
asg9
V2015-11-06 23:08:09
p1713
sS'part2_incorrect_attempt'
p1714
(lp1715
(S'0:01:30'
p1716
V0.5
p1717
tp1718
a(S'0:01:36'
p1719
V0.25
p1720
tp1721
a(S'0:03:13'
p1722
V0.5^0.5
p1723
tp1724
a(S'0:03:24'
p1725
V0.25^0.5
p1726
tp1727
a(S'0:56:33'
p1728
V1/12
p1729
tp1730
assVkgrozav
p1731
(dp1732
S'part2_correct_attempt'
p1733
(lp1734
S'10:47:40'
p1735
aV0.2886751346
p1736
asg9
V2015-11-05 20:52:42
p1737
sS'part2_incorrect_attempt'
p1738
(lp1739
(S'0:00:42'
p1740
V(1/12)
p1741
tp1742
a(S'0:04:04'
p1743
V4.583333
p1744
tp1745
a(S'0:04:13'
p1746
V4.5833333
p1747
tp1748
a(S'0:04:34'
p1749
V2.140872
p1750
tp1751
a(S'0:07:21'
p1752
V1/12
p1753
tp1754
a(S'0:07:57'
p1755
V[(.5 - -.5)^2]/12
p1756
tp1757
a(S'0:11:23'
p1758
V60/12
p1759
tp1760
a(S'0:13:05'
p1761
V0.2673853
p1762
tp1763
a(S'0:15:27'
p1764
V0.0356912
p1765
tp1766
assVj2phung
p1767
(dp1768
S'part2_correct_attempt'
p1769
(lp1770
S'0:03:40'
p1771
aV(1/12)^(1/2)
p1772
asg9
V2015-11-05 11:00:11
p1773
sS'part2_incorrect_attempt'
p1774
(lp1775
(S'-1 day, 23:55:02'
p1776
V17/20
p1777
tp1778
a(S'0:00:31'
p1779
V1/12
p1780
tp1781
asssV5
p1782
(dp1783
Vdruble
p1784
(dp1785
S'part5_correct_attempt'
p1786
(lp1787
S'0:03:13'
p1788
aV(2 - 0) / (((1/12) * (0.5 + 0.5)^2 * 75)^(1/2))
p1789
asS'part5_incorrect_attempt'
p1790
(lp1791
(S'0:00:00'
p1792
V(2 - 0) / ((1/12)^(1/2) * (0.5 + 0.5) * 75)
p1793
tp1794
asg9
V2015-11-05 00:26:41
p1795
ssVhaw081
p1796
(dp1797
S'part5_correct_attempt'
p1798
(lp1799
S'1 day, 23:08:23'
p1800
aV3/sqrt(5)
p1801
asS'part5_incorrect_attempt'
p1802
(lp1803
(S'1 day, 23:03:19'
p1804
V3/sqrt(1/12(0.5--0.5)^2)
p1805
tp1806
asg9
V2015-11-03 02:22:53
p1807
ssVjfalcone
p1808
(dp1809
S'part5_correct_attempt'
p1810
(lp1811
S'0:16:22'
p1812
aV4/(sqrt(1/12) * sqrt(80))
p1813
asS'part5_incorrect_attempt'
p1814
(lp1815
(S'0:11:18'
p1816
V4/(sqrt(1/12))
p1817
tp1818
asg9
g1326
ssVccn001
p1819
(dp1820
S'part5_correct_attempt'
p1821
(lp1822
S'14:55:08'
p1823
aV2/((45/12)^(0.5))
p1824
asS'part5_incorrect_attempt'
p1825
(lp1826
(S'5:38:47'
p1827
V2-0/((1/45)^(0.5))
p1828
tp1829
a(S'5:57:13'
p1830
V2/((1/12)(22.5+22.5)^(0.5))
p1831
tp1832
a(S'5:58:51'
p1833
V2/(((1/12)(22.5+22.5)^(2))^(0.5))
p1834
tp1835
a(S'6:02:41'
p1836
V2/((1/12)^(0.5)(45))
p1837
tp1838
a(S'6:11:04'
p1839
V2/((1/12)^(0.5)(22.5))
p1840
tp1841
asg9
V2015-11-05 16:26:42
p1842
ssVlywong
p1843
(dp1844
S'part5_correct_attempt'
p1845
(lp1846
S'1 day, 16:33:33'
p1847
aV(3)/sqrt(50(1/12))
p1848
asS'part5_incorrect_attempt'
p1849
(lp1850
(S'1 day, 15:46:08'
p1851
VQ(3)
p1852
tp1853
asg9
g966
ssVkew060
p1854
(dp1855
S'part5_correct_attempt'
p1856
(lp1857
S'3 days, 20:52:44'
p1858
aV4/(65/12)^(1/2)
p1859
asS'part5_incorrect_attempt'
p1860
(lp1861
(S'1 day, 23:30:00'
p1862
V6.5
p1863
tp1864
a(S'3 days, 20:42:57'
p1865
V3/(sqrt(5))
p1866
tp1867
a(S'3 days, 20:43:55'
p1868
V4/(sqrt(5))
p1869
tp1870
a(S'3 days, 20:47:54'
p1871
V4/(sqrt(65))
p1872
tp1873
a(S'3 days, 20:48:01'
p1874
V4/(sqrt(2))
p1875
tp1876
a(S'3 days, 20:48:06'
p1877
V4/(sqrt(3))
p1878
tp1879
a(S'3 days, 20:48:12'
p1880
V4/(sqrt(4))
p1881
tp1882
a(S'3 days, 20:48:18'
p1883
V4/(sqrt(6))
p1884
tp1885
a(S'3 days, 20:48:23'
p1886
V4/(sqrt(7))
p1887
tp1888
a(S'3 days, 20:48:29'
p1889
V4/(sqrt(8))
p1890
tp1891
a(S'3 days, 20:48:34'
p1892
V4/(sqrt(9))
p1893
tp1894
a(S'3 days, 20:48:41'
p1895
V4/(sqrt(10))
p1896
tp1897
asg9
g189
ssVhkhodada
p1898
(dp1899
S'part5_correct_attempt'
p1900
(lp1901
S'2 days, 2:07:51'
p1902
aV3/sqrt(50/12)
p1903
asS'part5_incorrect_attempt'
p1904
(lp1905
(S'1 day, 2:42:51'
p1906
V3*sqrt(12)
p1907
tp1908
asg9
g987
ssVabasu
p1909
(dp1910
S'part5_correct_attempt'
p1911
(lp1912
S'0:58:16'
p1913
aV1.9365
p1914
asS'part5_incorrect_attempt'
p1915
(lp1916
(S'0:09:10'
p1917
V5-0
p1918
tp1919
asg9
g478
ssValakamsa
p1920
(dp1921
S'part5_correct_attempt'
p1922
(lp1923
S'2 days, 0:48:38'
p1924
aV1.4697
p1925
asS'part5_incorrect_attempt'
p1926
(lp1927
(S'1 day, 23:04:53'
p1928
V.9987
p1929
tp1930
a(S'1 day, 23:05:12'
p1931
V0.00135
p1932
tp1933
asg9
g249
ssVdgunawan
p1934
(dp1935
S'part5_correct_attempt'
p1936
(lp1937
S'15:34:04'
p1938
aV[5-((-.5+.5)/2 *85)]/[(85/12)^(1/2)]
p1939
asS'part5_incorrect_attempt'
p1940
(lp1941
(S'15:21:15'
p1942
V[5-((-.5+.5)/2)]/[(1/12)^(1/2)]
p1943
tp1944
asg9
g373
ssVmasaro
p1945
(dp1946
S'part5_correct_attempt'
p1947
(lp1948
S'0:04:10'
p1949
aV1.095
p1950
asS'part5_incorrect_attempt'
p1951
(lp1952
(S'0:02:28'
p1953
V0.9987
p1954
tp1955
a(S'0:02:35'
p1956
V1-0.9987
p1957
tp1958
a(S'0:02:56'
p1959
V1-0.00134989
p1960
tp1961
a(S'0:03:04'
p1962
V0.00134989
p1963
tp1964
asg9
g1371
ssVrwthomps
p1965
(dp1966
S'part5_correct_attempt'
p1967
(lp1968
S'0:05:30'
p1969
aV3/sqrt(65 * 1/12 * (.5 + .5))
p1970
asS'part5_incorrect_attempt'
p1971
(lp1972
(S'0:05:02'
p1973
VQ(3)
p1974
tp1975
asg9
g1383
ssVsachadal
p1976
(dp1977
S'part5_correct_attempt'
p1978
(lp1979
S'1 day, 2:12:59'
p1980
aV(4 - 0)/sqrt(75*(1/12))
p1981
asS'part5_incorrect_attempt'
p1982
(lp1983
(S'1 day, 1:57:11'
p1984
VQ(4)
p1985
tp1986
asg9
g1050
ssVkrau
p1987
(dp1988
S'part5_correct_attempt'
p1989
(lp1990
S'6:59:01'
p1991
aV2/sqrt(50/12)
p1992
asS'part5_incorrect_attempt'
p1993
(lp1994
(S'6:58:00'
p1995
V2/sqrt(2)
p1996
tp1997
a(S'6:58:10'
p1998
Vsqrt(2)
p1999
tp2000
a(S'6:58:40'
p2001
V2/sqrt(5)
p2002
tp2003
asg9
g697
ssVdcrume
p2004
(dp2005
S'part5_correct_attempt'
p2006
(lp2007
S'0:07:02'
p2008
aV(3-0)/2.88675
p2009
asS'part5_incorrect_attempt'
p2010
(lp2011
(S'0:05:39'
p2012
V3 - 0/2.88675
p2013
tp2014
asg9
V2015-11-06 21:13:25
p2015
ssVmroknich
p2016
(dp2017
S'part5_correct_attempt'
p2018
(lp2019
S'0:02:06'
p2020
aV(5)/(1/sqrt(12)*sqrt(55))
p2021
asS'part5_incorrect_attempt'
p2022
(lp2023
(S'0:00:56'
p2024
V(5)/(sqrt(1/12))
p2025
tp2026
asg9
V2015-11-01 20:00:23
p2027
ssVjcj006
p2028
(dp2029
S'part5_correct_attempt'
p2030
(lp2031
S'0:00:33'
p2032
aV2/sqrt(50/12)
p2033
asS'part5_incorrect_attempt'
p2034
(lp2035
(S'0:00:00'
p2036
V24/50
p2037
tp2038
asg9
g1080
ssVmbl003
p2039
(dp2040
S'part5_correct_attempt'
p2041
(lp2042
S'0:26:20'
p2043
aV5/sqrt(80*(1/12)*(1)^2)
p2044
asS'part5_incorrect_attempt'
p2045
(lp2046
(S'0:23:16'
p2047
VPhi(5)
p2048
tp2049
a(S'0:23:33'
p2050
V1-Phi(5)
p2051
tp2052
a(S'0:25:47'
p2053
Vsqrt(80*(1/12)*(1)^2)/5
p2054
tp2055
asg9
g120
ssVnhn018
p2056
(dp2057
S'part5_correct_attempt'
p2058
(lp2059
S'14:27:26'
p2060
aV4/(sqrt(1/12)*sqrt(45))
p2061
asS'part5_incorrect_attempt'
p2062
(lp2063
(S'0:14:22'
p2064
V4/(sqrt(12)*sqrt(50))
p2065
tp2066
a(S'0:15:06'
p2067
V4/(sqrt(12)*sqrt(45))
p2068
tp2069
a(S'14:26:45'
p2070
V4/(sqrt(12)*sqrt(45))
p2071
tp2072
asg9
g291
ssVarvenega
p2073
(dp2074
S'part5_correct_attempt'
p2075
(lp2076
S'0:00:20'
p2077
aV4/sqrt((1/12)*100)
p2078
asS'part5_incorrect_attempt'
p2079
(lp2080
(S'0:00:00'
p2081
V4/sqrt((1/12)*40)
p2082
tp2083
asg9
V2015-11-06 23:51:33
p2084
ssVj6quach
p2085
(dp2086
S'part5_correct_attempt'
p2087
(lp2088
S'4:31:38'
p2089
aV4/sqrt(100/12)
p2090
asS'part5_incorrect_attempt'
p2091
(lp2092
(S'0:00:00'
p2093
V4*sqrt(12)
p2094
tp2095
asg9
V2015-11-05 08:40:50
p2096
ssVgsrandha
p2097
(dp2098
S'part5_correct_attempt'
p2099
(lp2100
S'13:52:39'
p2101
aV3 / 2.5
p2102
asS'part5_incorrect_attempt'
p2103
(lp2104
(S'0:41:19'
p2105
VQ(3)
p2106
tp2107
a(S'13:14:20'
p2108
V1-Phi(3)
p2109
tp2110
a(S'13:17:14'
p2111
VQ(1-Phi(3))
p2112
tp2113
a(S'13:22:38'
p2114
VQ(3)
p2115
tp2116
a(S'13:50:12'
p2117
V(1-Phi(3)) * 2
p2118
tp2119
asg9
g1419
ssVjyc018
p2120
(dp2121
S'part5_correct_attempt'
p2122
(lp2123
S'1 day, 22:53:42'
p2124
aV3/sqrt(75/12)
p2125
asS'part5_incorrect_attempt'
p2126
(lp2127
(S'0:25:11'
p2128
V(3-0)/sqrt(1/12)
p2129
tp2130
a(S'23:11:56'
p2131
Vsqrt(75/12)
p2132
tp2133
asg9
V2015-11-05 00:14:14
p2134
ssVbmilton
p2135
(dp2136
S'part5_correct_attempt'
p2137
(lp2138
S'0:04:15'
p2139
aV4/ [sqrt(70 * (1/12))]
p2140
asS'part5_incorrect_attempt'
p2141
(lp2142
(S'0:04:06'
p2143
V4 - 0 / [sqrt(70 * (1/12))]
p2144
tp2145
asg9
g88
ssVjhc010
p2146
(dp2147
S'part5_correct_attempt'
p2148
(lp2149
S'0:04:35'
p2150
aV(3-0)/sqrt(55*(sqrt(1/12)^2))
p2151
asS'part5_incorrect_attempt'
p2152
(lp2153
(S'0:04:27'
p2154
V3-0/sqrt(55*(sqrt(1/12)^2))
p2155
tp2156
asg9
V2015-11-06 11:00:36
p2157
ssVjeqin
p2158
(dp2159
S'part5_correct_attempt'
p2160
(lp2161
S'0:02:33'
p2162
aV(2 - 0)/sqrt(90/12)
p2163
asS'part5_incorrect_attempt'
p2164
(lp2165
(S'0:01:54'
p2166
V(2 - 0)/sqrt(2/12)
p2167
tp2168
asg9
V2015-11-05 10:31:21
p2169
ssVmnrahman
p2170
(dp2171
S'part5_correct_attempt'
p2172
(lp2173
S'0:02:36'
p2174
aV3/(sqrt(85)/sqrt(12))
p2175
asS'part5_incorrect_attempt'
p2176
(lp2177
(S'0:01:20'
p2178
V3/(sqrt(100)/sqrt(12))
p2179
tp2180
asg9
g334
ssVr9jiang
p2181
(dp2182
S'part5_correct_attempt'
p2183
(lp2184
S'3 days, 1:46:43'
p2185
aV3/2.32737
p2186
asS'part5_incorrect_attempt'
p2187
(lp2188
(S'0:00:00'
p2189
V27^(1/2)
p2190
tp2191
a(S'0:04:17'
p2192
V1.5*3^0.5
p2193
tp2194
asg9
V2015-11-02 03:50:08
p2195
ssVyig015
p2196
(dp2197
S'part5_correct_attempt'
p2198
(lp2199
S'1 day, 1:55:34'
p2200
aV3/8.0622578/0.288675
p2201
asS'part5_incorrect_attempt'
p2202
(lp2203
(S'1 day, 1:50:32'
p2204
V2/8.0622578*0.288675
p2205
tp2206
asg9
g1617
ssVavasavad
p2207
(dp2208
S'part5_incorrect_attempt'
p2209
(lp2210
(S'0:00:00'
p2211
VQ(3)
p2212
tp2213
asg9
V2015-11-04 23:31:39
p2214
ssVs6deng
p2215
(dp2216
S'part5_incorrect_attempt'
p2217
(lp2218
(S'0:09:03'
p2219
V3/sqrt(1/12)
p2220
tp2221
asg9
g1489
ssVv3doan
p2222
(dp2223
S'part5_correct_attempt'
p2224
(lp2225
S'1 day, 8:31:35'
p2226
aV2 / sqrt(85/12)
p2227
asS'part5_incorrect_attempt'
p2228
(lp2229
(S'1 day, 8:30:30'
p2230
V2 / sqrt(2/12)
p2231
tp2232
asg9
V2015-11-05 16:26:50
p2233
ssVagian
p2234
(dp2235
S'part5_correct_attempt'
p2236
(lp2237
S'0:01:47'
p2238
aV4/(sqrt(65)/sqrt(12))
p2239
asS'part5_incorrect_attempt'
p2240
(lp2241
(S'0:01:05'
p2242
V3/(sqrt(100)/sqrt(12))
p2243
tp2244
asg9
V2015-11-07 00:34:24
p2245
ssVrraiyyan
p2246
(dp2247
S'part5_correct_attempt'
p2248
(lp2249
S'0:18:21'
p2250
aV5/sqrt(85/12)
p2251
asS'part5_incorrect_attempt'
p2252
(lp2253
(S'0:18:14'
p2254
V5/sqrt(85/4)
p2255
tp2256
asg9
V2015-11-07 00:00:13
p2257
ssVjcl084
p2258
(dp2259
S'part5_correct_attempt'
p2260
(lp2261
S'0:00:53'
p2262
aV(5-0)/(1/sqrt(12)*sqrt(80))
p2263
asS'part5_incorrect_attempt'
p2264
(lp2265
(S'0:00:00'
p2266
V(5-0)/(1/sqrt(12)*sqrt(50))
p2267
tp2268
asg9
g1525
ssVagarango
p2269
(dp2270
S'part5_correct_attempt'
p2271
(lp2272
S'1 day, 20:55:06'
p2273
aV2/sqrt(55/12)
p2274
asS'part5_incorrect_attempt'
p2275
(lp2276
(S'1 day, 20:54:08'
p2277
V2/sqrt(1/6)
p2278
tp2279
asg9
g1447
ssVmpanelo
p2280
(dp2281
S'part5_correct_attempt'
p2282
(lp2283
S'0:30:52'
p2284
aV5/sqrt(20/3)
p2285
asS'part5_incorrect_attempt'
p2286
(lp2287
(S'0:10:47'
p2288
V5/(20/3*sqrt(80))
p2289
tp2290
a(S'0:15:55'
p2291
V5/(2sqrt(400)/sqrt(3))
p2292
tp2293
asg9
g397
ssVkbielawi
p2294
(dp2295
S'part5_correct_attempt'
p2296
(lp2297
S'4:07:31'
p2298
aV3/sqrt(85/12)
p2299
asS'part5_incorrect_attempt'
p2300
(lp2301
(S'4:06:10'
p2302
V(sqrt(85/12))/sqrt(1/12)
p2303
tp2304
asg9
g210
ssVthwan
p2305
(dp2306
S'part5_incorrect_attempt'
p2307
(lp2308
(S'0:02:33'
p2309
V5/(2/(12)^(1/2))
p2310
tp2311
asg9
V2015-11-06 23:17:14
p2312
ssVkrkelkar
p2313
(dp2314
S'part5_correct_attempt'
p2315
(lp2316
S'2 days, 2:48:39'
p2317
aV[ (2)-(0) ]/ ((sqrt(85*(1/12))) )
p2318
asS'part5_incorrect_attempt'
p2319
(lp2320
(S'0:00:00'
p2321
V[ (2)-(0) ]/ ((1/12)( (85*0.5) - (85*-0.5) ) **2)
p2322
tp2323
a(S'2 days, 2:48:18'
p2324
V[ (2)-(0) ]/ ((sqrt(85*(1/12))) **2)
p2325
tp2326
asg9
V2015-10-31 21:49:34
p2327
ssVvsamant
p2328
(dp2329
S'part5_correct_attempt'
p2330
(lp2331
S'0:07:41'
p2332
aV2/(60^(1/2)(1/12(.5+.5)^2)^(1/2))
p2333
asS'part5_incorrect_attempt'
p2334
(lp2335
(S'0:07:22'
p2336
V2/((1/12(.5+.5)^2)^(1/2))
p2337
tp2338
asg9
V2015-11-04 01:25:35
p2339
ssVsmall
p2340
(dp2341
S'part5_correct_attempt'
p2342
(lp2343
S'0:04:19'
p2344
aV5/(sqrt(50*1/12))
p2345
asS'part5_incorrect_attempt'
p2346
(lp2347
(S'0:03:12'
p2348
V5/(sqrt(5*1/12))
p2349
tp2350
asg9
V2015-11-06 03:13:39
p2351
ssVajabasa
p2352
(dp2353
S'part5_correct_attempt'
p2354
(lp2355
S'0:37:18'
p2356
aV(4-((-.5+.5)/(2)*75))/((((1/12)(-.5-.5)^2)*75)^(1/2))
p2357
asS'part5_incorrect_attempt'
p2358
(lp2359
(S'0:36:00'
p2360
V(4-((-.5+.5)/(2)*75)/((1/12)(-.5-.5)^2)*75)^(1/2)
p2361
tp2362
a(S'0:36:55'
p2363
V4-((-.5+.5)/(2)*75)/((((1/12)(-.5-.5)^2)*75)^(1/2))
p2364
tp2365
asg9
g1545
ssVaadhakal
p2366
(dp2367
S'part5_correct_attempt'
p2368
(lp2369
S'0:01:12'
p2370
aV3/(sqrt(100)/sqrt(12))
p2371
asS'part5_incorrect_attempt'
p2372
(lp2373
(S'0:00:00'
p2374
V3/(sqrt(40)/sqrt(12))
p2375
tp2376
asg9
V2015-11-05 22:45:06
p2377
ssVedescobe
p2378
(dp2379
S'part5_correct_attempt'
p2380
(lp2381
S'0:48:10'
p2382
aV2/2.66145
p2383
asS'part5_incorrect_attempt'
p2384
(lp2385
(S'0:21:55'
p2386
V.77337
p2387
tp2388
asg9
g748
ssVasetters
p2389
(dp2390
S'part5_correct_attempt'
p2391
(lp2392
S'0:05:21'
p2393
aV4/(sqrt(85/12))
p2394
asS'part5_incorrect_attempt'
p2395
(lp2396
(S'0:02:08'
p2397
V4/(85*sqrt(1/12))
p2398
tp2399
a(S'0:02:22'
p2400
V4/(sqrt(1/12))
p2401
tp2402
a(S'0:03:55'
p2403
V4/(sqrt(1/12))
p2404
tp2405
asg9
g661
ssVetemlock
p2406
(dp2407
S'part5_correct_attempt'
p2408
(lp2409
S'0:24:43'
p2410
aV(3-0)/[((65/12)^.5)]
p2411
asS'part5_incorrect_attempt'
p2412
(lp2413
(S'0:13:30'
p2414
V(3-0)/[((65/12)^.5)(65^.5)]
p2415
tp2416
asg9
V2015-11-06 00:46:10
p2417
ssVpnquach
p2418
(dp2419
S'part5_correct_attempt'
p2420
(lp2421
S'0:05:13'
p2422
aV(4)/(sqrt(1/12*(1)^2*65))
p2423
asS'part5_incorrect_attempt'
p2424
(lp2425
(S'0:03:57'
p2426
V(4)/(sqrt(1/12*(1)^2)*65)
p2427
tp2428
asg9
V2015-11-06 05:50:54
p2429
ssVsmohiman
p2430
(dp2431
S'part5_correct_attempt'
p2432
(lp2433
S'0:10:20'
p2434
aV1/(5*(1/12)^(1/2))
p2435
asS'part5_incorrect_attempt'
p2436
(lp2437
(S'0:08:30'
p2438
V(1/6)^(1/2)
p2439
tp2440
asg9
g784
ssVacs008
p2441
(dp2442
S'part5_correct_attempt'
p2443
(lp2444
S'0:04:22'
p2445
aV4/sqrt(1/12*95)
p2446
asS'part5_incorrect_attempt'
p2447
(lp2448
(S'0:03:47'
p2449
V95/sqrt(1/12)
p2450
tp2451
a(S'0:04:11'
p2452
V4/sqrt(1/12)
p2453
tp2454
asg9
g1569
ssVhmshah
p2455
(dp2456
S'part5_correct_attempt'
p2457
(lp2458
S'11:36:26'
p2459
aV(4-0)/ 2.04124
p2460
asS'part5_incorrect_attempt'
p2461
(lp2462
(S'0:32:39'
p2463
V1-Phi(4)
p2464
tp2465
a(S'0:32:48'
p2466
V1-Q(4)
p2467
tp2468
asg9
g1593
ssVedcole
p2469
(dp2470
S'part5_correct_attempt'
p2471
(lp2472
S'0:47:52'
p2473
aV2/sqrt(75*75/(75*12))
p2474
asS'part5_incorrect_attempt'
p2475
(lp2476
(S'0:47:34'
p2477
V.9772
p2478
tp2479
asg9
V2015-11-06 23:53:13
p2480
ssVl8ngo
p2481
(dp2482
S'part5_correct_attempt'
p2483
(lp2484
S'5:07:49'
p2485
aV3/sqrt(40*1/12*[0.5+0.5]^2)
p2486
asS'part5_incorrect_attempt'
p2487
(lp2488
(S'4:46:58'
p2489
V3/sqrt(1/12*[0.5+0.5]^2)
p2490
tp2491
a(S'4:48:23'
p2492
V40/sqrt(1/12*[0.5+0.5]^2)
p2493
tp2494
asg9
V2015-11-05 23:17:21
p2495
ssVralhadda
p2496
(dp2497
S'part5_incorrect_attempt'
p2498
(lp2499
(S'3:33:00'
p2500
V65/12
p2501
tp2502
asg9
g843
ssVstarinia
p2503
(dp2504
S'part5_correct_attempt'
p2505
(lp2506
S'1:21:40'
p2507
aV4/(1/sqrt(12)*sqrt(90))
p2508
asS'part5_incorrect_attempt'
p2509
(lp2510
(S'1:17:51'
p2511
VQ(4)
p2512
tp2513
asg9
g544
ssVdcastlem
p2514
(dp2515
S'part5_correct_attempt'
p2516
(lp2517
S'3 days, 19:16:21'
p2518
aV4/((sqrt((1/12)*50)))
p2519
asS'part5_incorrect_attempt'
p2520
(lp2521
(S'3 days, 19:15:40'
p2522
V3/((sqrt(1/12)*50))
p2523
tp2524
asg9
g888
ssVxweng
p2525
(dp2526
S'part5_correct_attempt'
p2527
(lp2528
S'1:29:18'
p2529
aV3/2.04124
p2530
asS'part5_incorrect_attempt'
p2531
(lp2532
(S'1:01:08'
p2533
V0.14164
p2534
tp2535
a(S'1:01:35'
p2536
V2.04124
p2537
tp2538
a(S'1:04:45'
p2539
V0.92918 
p2540
tp2541
asg9
g1641
ssVhsc052
p2542
(dp2543
S'part5_correct_attempt'
p2544
(lp2545
S'0:14:06'
p2546
aV4/[sqrt(70)*sqrt(1/12)]
p2547
asS'part5_incorrect_attempt'
p2548
(lp2549
(S'0:03:21'
p2550
V4/[1/12]
p2551
tp2552
a(S'0:04:01'
p2553
V4/[sqrt(1/12)]
p2554
tp2555
asg9
g900
ssVzhz159
p2556
(dp2557
S'part5_correct_attempt'
p2558
(lp2559
S'0:12:38'
p2560
aV1.0954451
p2561
asS'part5_incorrect_attempt'
p2562
(lp2563
(S'0:00:00'
p2564
V0.21081851
p2565
tp2566
asg9
g924
ssVaordookh
p2567
(dp2568
S'part5_correct_attempt'
p2569
(lp2570
S'0:23:06'
p2571
aV(5-0)/(1/12(70))^(1/2)
p2572
asS'part5_incorrect_attempt'
p2573
(lp2574
(S'0:22:53'
p2575
V5-0/(1/12(70))^(1/2)
p2576
tp2577
asg9
g1605
ssVyil035
p2578
(dp2579
S'part5_correct_attempt'
p2580
(lp2581
S'1:15:36'
p2582
aV5/sqrt(100/12)
p2583
asS'part5_incorrect_attempt'
p2584
(lp2585
(S'0:00:00'
p2586
V5*sqrt(6)
p2587
tp2588
asg9
V2015-11-05 21:14:50
p2589
ssVhmnaing
p2590
(dp2591
S'part5_correct_attempt'
p2592
(lp2593
S'0:30:08'
p2594
aV(5-0)/sqrt(85/12)
p2595
asS'part5_incorrect_attempt'
p2596
(lp2597
(S'0:05:18'
p2598
V5* sqrt((0.5-(-0.5))^2 / 12)
p2599
tp2600
asg9
V2015-11-06 18:17:24
p2601
ssVcprafull
p2602
(dp2603
S'part5_correct_attempt'
p2604
(lp2605
S'0:04:52'
p2606
aV(3-0)/sqrt(80/12)
p2607
asS'part5_incorrect_attempt'
p2608
(lp2609
(S'0:04:40'
p2610
V(3-0)/sqrt(1/12)
p2611
tp2612
asg9
g685
ssVwmiao
p2613
(dp2614
S'part5_correct_attempt'
p2615
(lp2616
S'18:18:04'
p2617
aV(5-0)/((1/12*100)^0.5)
p2618
asS'part5_incorrect_attempt'
p2619
(lp2620
(S'0:09:12'
p2621
V(5-0)/((1/12*1^2)^0.5)
p2622
tp2623
asg9
g936
ssVkosung
p2624
(dp2625
S'part5_correct_attempt'
p2626
(lp2627
S'5:36:29'
p2628
aV3/2.32735
p2629
asS'part5_incorrect_attempt'
p2630
(lp2631
(S'4:55:33'
p2632
V0.159883
p2633
tp2634
a(S'4:57:07'
p2635
V3/((8.062257)*2.32735)
p2636
tp2637
asg9
V2015-11-05 20:29:32
p2638
ssVk3tan
p2639
(dp2640
S'part5_correct_attempt'
p2641
(lp2642
S'2 days, 2:04:28'
p2643
aV5/sqrt(65/12)
p2644
asS'part5_incorrect_attempt'
p2645
(lp2646
(S'2 days, 1:31:32'
p2647
V5/(65*sqrt(1/12))
p2648
tp2649
asg9
V2015-11-04 21:45:25
p2650
ssVskarimik
p2651
(dp2652
S'part5_correct_attempt'
p2653
(lp2654
S'1:37:24'
p2655
aV(3-0)/(sqrt(95)/sqrt(12))
p2656
asS'part5_incorrect_attempt'
p2657
(lp2658
(S'1:00:58'
p2659
V(3-0)
p2660
tp2661
asg9
V2015-11-05 05:20:09
p2662
sssV4
p2663
(dp2664
Vgthorn
p2665
(dp2666
S'part4_correct_attempt'
p2667
(lp2668
S'0:09:26'
p2669
aVsqrt(80/12 * (.5 + .5)^2)
p2670
asS'part3_correct_attempt'
p2671
(lp2672
S'0:01:32'
p2673
aV0
p2674
asS'part2_correct_attempt'
p2675
(lp2676
S'0:01:10'
p2677
ag152
asS'part4_incorrect_attempt'
p2678
(lp2679
(S'0:01:53'
p2680
V0.288675
p2681
tp2682
asg9
g153
ssVphodgson
p2683
(dp2684
S'part4_correct_attempt'
p2685
(lp2686
S'0:01:24'
p2687
aVsqrt(90/12)
p2688
asS'part3_correct_attempt'
p2689
(lp2690
S'0:00:00'
p2691
aV0
p2692
asS'part2_correct_attempt'
p2693
(lp2694
S'0:00:56'
p2695
ag164
asS'part4_incorrect_attempt'
p2696
(lp2697
(S'0:00:56'
p2698
V90*sqrt(1/12)
p2699
tp2700
asg9
g165
ssVapokhare
p2701
(dp2702
S'part4_correct_attempt'
p2703
(lp2704
S'0:02:44'
p2705
aVsqrt(40) / sqrt(12)
p2706
asS'part3_correct_attempt'
p2707
(lp2708
S'0:00:00'
p2709
aV0
p2710
asS'part2_correct_attempt'
p2711
(lp2712
S'0:00:00'
p2713
aVsqrt(1/12)
p2714
asS'part4_incorrect_attempt'
p2715
(lp2716
(S'0:00:00'
p2717
V1/(sqrt(12)*sqrt(40))
p2718
tp2719
asg9
V2015-11-05 22:11:10
p2720
ssVkew060
p2721
(dp2722
S'part4_correct_attempt'
p2723
(lp2724
S'3 days, 20:45:17'
p2725
aV(65/12)^(1/2)
p2726
asS'part3_correct_attempt'
p2727
(lp2728
S'0:00:28'
p2729
aV0
p2730
asS'part2_correct_attempt'
p2731
(lp2732
S'2 days, 21:33:22'
p2733
ag188
asS'part4_incorrect_attempt'
p2734
(lp2735
(S'3 days, 20:45:02'
p2736
V(60/12)^(1/2)
p2737
tp2738
asg9
g189
ssVkvass
p2739
(dp2740
S'part4_correct_attempt'
p2741
(lp2742
S'0:11:55'
p2743
aVsqrt(1/12 * 50)
p2744
asS'part3_correct_attempt'
p2745
(lp2746
S'0:08:11'
p2747
aV0
p2748
asS'part2_correct_attempt'
p2749
(lp2750
S'0:00:00'
p2751
aVsqrt(1/12)
p2752
asS'part4_incorrect_attempt'
p2753
(lp2754
(S'0:08:11'
p2755
V1/(sqrt(1/12 * 50))
p2756
tp2757
a(S'0:08:45'
p2758
V1/(sqrt(12 * 50))
p2759
tp2760
a(S'0:09:53'
p2761
V1/(sqrt(12) * sqrt(50))
p2762
tp2763
asg9
V2015-11-06 00:32:29
p2764
ssVkbielawi
p2765
(dp2766
S'part4_correct_attempt'
p2767
(lp2768
S'4:03:50'
p2769
aVsqrt(85/12)
p2770
asS'part3_correct_attempt'
p2771
(lp2772
S'0:01:19'
p2773
aV0
p2774
asS'part2_correct_attempt'
p2775
(lp2776
S'4:01:37'
p2777
ag209
asS'part4_incorrect_attempt'
p2778
(lp2779
(S'4:03:33'
p2780
V85*sqrt(1/12)
p2781
tp2782
asg9
g210
ssVjguanzho
p2783
(dp2784
S'part4_correct_attempt'
p2785
(lp2786
S'4:55:22'
p2787
aV(80/12)**0.5
p2788
asS'part3_correct_attempt'
p2789
(lp2790
S'0:00:00'
p2791
aV0
p2792
asS'part2_correct_attempt'
p2793
(lp2794
S'0:19:20'
p2795
ag233
asS'part4_incorrect_attempt'
p2796
(lp2797
(S'0:19:36'
p2798
V80 *(1/12)**0.5
p2799
tp2800
a(S'0:25:10'
p2801
V(0.25*80)**0.5
p2802
tp2803
a(S'0:25:49'
p2804
V40*(1/12)**0.5
p2805
tp2806
a(S'4:54:36'
p2807
V80*(1/12)**0.5
p2808
tp2809
asg9
g234
ssValakamsa
p2810
(dp2811
S'part4_correct_attempt'
p2812
(lp2813
S'2 days, 0:46:25'
p2814
aVsqrt(1/12 * 50)
p2815
asS'part3_correct_attempt'
p2816
(lp2817
S'0:00:00'
p2818
aV0
p2819
asS'part2_correct_attempt'
p2820
(lp2821
S'1 day, 23:50:40'
p2822
ag248
asS'part4_incorrect_attempt'
p2823
(lp2824
(S'1 day, 23:51:28'
p2825
Vsqrt((1/12) * 4)
p2826
tp2827
a(S'1 day, 23:52:15'
p2828
Vsqrt((1/12) * (50^2))
p2829
tp2830
a(S'1 day, 23:55:04'
p2831
Vsqrt((1/12) * 25^2)
p2832
tp2833
a(S'1 day, 23:55:37'
p2834
Vsqrt((1/12) * 2^2)
p2835
tp2836
a(S'2 days, 0:15:04'
p2837
Vsqrt((25^2)/12)
p2838
tp2839
a(S'2 days, 0:15:13'
p2840
Vsqrt((50^2)/12)
p2841
tp2842
a(S'2 days, 0:15:35'
p2843
Vsqrt((12.5^2)/12)
p2844
tp2845
a(S'2 days, 0:43:48'
p2846
Ve^25*(25^25/25!)
p2847
tp2848
a(S'2 days, 0:43:59'
p2849
Ve^-25*(25^25/25!)
p2850
tp2851
a(S'2 days, 0:44:14'
p2852
Vsqrt(e^-25*(25^25/25!))
p2853
tp2854
a(S'2 days, 0:45:00'
p2855
Vsqrt(25)
p2856
tp2857
a(S'2 days, 0:45:11'
p2858
Vsqrt(0)
p2859
tp2860
asg9
g249
ssVdcgriffi
p2861
(dp2862
S'part4_correct_attempt'
p2863
(lp2864
S'0:00:54'
p2865
aVsqrt(70/12)
p2866
asS'part3_correct_attempt'
p2867
(lp2868
S'0:00:00'
p2869
aV0
p2870
asS'part2_correct_attempt'
p2871
(lp2872
S'0:00:00'
p2873
aVsqrt(1/12)
p2874
asS'part4_incorrect_attempt'
p2875
(lp2876
(S'0:00:16'
p2877
V70*sqrt(1/12)
p2878
tp2879
asg9
V2015-11-07 00:08:24
p2880
ssVmhale
p2881
(dp2882
S'part4_correct_attempt'
p2883
(lp2884
S'0:04:26'
p2885
aV[75 * (1/12(1)^2)] ^ (1/2)
p2886
asS'part3_correct_attempt'
p2887
(lp2888
S'0:02:03'
p2889
aV0
p2890
asS'part2_correct_attempt'
p2891
(lp2892
S'0:00:57'
p2893
aV(1/12(1)^2)^(1/2)
p2894
asS'part4_incorrect_attempt'
p2895
(lp2896
(S'0:02:29'
p2897
V(75^2/12(1)^2)^(1/2)
p2898
tp2899
a(S'0:03:36'
p2900
V(1/12(1)^2)^(1/2)
p2901
tp2902
a(S'0:04:17'
p2903
V[75^2 * (1/12(1)^2)] ^ (1/2)
p2904
tp2905
asg9
V2015-11-05 20:36:39
p2906
ssVnhn018
p2907
(dp2908
S'part4_correct_attempt'
p2909
(lp2910
S'0:15:28'
p2911
aV1/sqrt(12)*sqrt(45)
p2912
asS'part3_correct_attempt'
p2913
(lp2914
S'0:13:00'
p2915
aV0
p2916
asS'part2_correct_attempt'
p2917
(lp2918
S'0:13:44'
p2919
ag290
asS'part4_incorrect_attempt'
p2920
(lp2921
(S'0:14:22'
p2922
V1/(sqrt(12)*sqrt(50))
p2923
tp2924
a(S'0:15:06'
p2925
V1/(sqrt(12)*sqrt(45))
p2926
tp2927
asg9
g291
ssVj5phung
p2928
(dp2929
S'part4_correct_attempt'
p2930
(lp2931
S'0:26:07'
p2932
aVsqrt(80/12)
p2933
asS'part3_correct_attempt'
p2934
(lp2935
S'0:14:34'
p2936
ag131
asS'part2_correct_attempt'
p2937
(lp2938
S'0:06:25'
p2939
ag135
asS'part4_incorrect_attempt'
p2940
(lp2941
(S'0:25:36'
p2942
Vsqrt(10/3)
p2943
tp2944
asg9
g136
ssVhaw081
p2945
(dp2946
S'part4_correct_attempt'
p2947
(lp2948
S'1 day, 23:02:41'
p2949
aVsqrt(60/12(0.5--0.5)^2)
p2950
asS'part3_correct_attempt'
p2951
(lp2952
S'0:01:58'
p2953
aV0
p2954
asS'part2_correct_attempt'
p2955
(lp2956
S'0:00:41'
p2957
aVsqrt(1/12(0.5--0.5)^2)
p2958
asS'part4_incorrect_attempt'
p2959
(lp2960
(S'0:02:09'
p2961
Vsqrt(1/12(0.5--0.5)^2)
p2962
tp2963
a(S'0:02:31'
p2964
V0.5
p2965
tp2966
a(S'1 day, 20:44:10'
p2967
Vsqrt(1/60(0.5--0.5)^2)
p2968
tp2969
asg9
g1807
ssVvqt004
p2970
(dp2971
S'part4_correct_attempt'
p2972
(lp2973
S'0:06:40'
p2974
aVsqrt(90/12)
p2975
asS'part3_correct_attempt'
p2976
(lp2977
S'0:00:32'
p2978
aV0
p2979
asS'part2_correct_attempt'
p2980
(lp2981
S'0:06:03'
p2982
ag315
asS'part4_incorrect_attempt'
p2983
(lp2984
(S'0:06:03'
p2985
V2*sqrt(1/12)
p2986
tp2987
a(S'0:06:28'
p2988
V90*sqrt(1/12)
p2989
tp2990
asg9
g316
ssVmnrahman
p2991
(dp2992
S'part4_correct_attempt'
p2993
(lp2994
S'0:02:20'
p2995
aVsqrt(85)/sqrt(12)
p2996
asS'part3_correct_attempt'
p2997
(lp2998
S'0:00:42'
p2999
aV0
p3000
asS'part2_correct_attempt'
p3001
(lp3002
S'0:00:21'
p3003
ag333
asS'part4_incorrect_attempt'
p3004
(lp3005
(S'0:00:42'
p3006
Vsqrt(100)/sqrt(12)
p3007
tp3008
asg9
g334
ssVr9jiang
p3009
(dp3010
S'part4_correct_attempt'
p3011
(lp3012
S'3 days, 1:23:13'
p3013
aV(65/12)^(1/2)
p3014
asS'part3_correct_attempt'
p3015
(lp3016
S'0:00:00'
p3017
aV0
p3018
asS'part2_correct_attempt'
p3019
(lp3020
S'0:00:00'
p3021
aV(1/12)^(1/2)
p3022
asS'part4_incorrect_attempt'
p3023
(lp3024
(S'0:04:17'
p3025
V(4/3)^(1/2)
p3026
tp3027
a(S'0:13:01'
p3028
V65*(1/12)^(1/2)
p3029
tp3030
a(S'0:14:14'
p3031
V65*65*((1/12)^(1/2))
p3032
tp3033
a(S'2 days, 2:05:46'
p3034
V65*(1/12)^(1/2)
p3035
tp3036
asg9
g2195
ssVrlhagen
p3037
(dp3038
S'part4_correct_attempt'
p3039
(lp3040
S'0:18:38'
p3041
aVsqrt((75*1/12)(0.5-(-0.5))^2)
p3042
asS'part3_correct_attempt'
p3043
(lp3044
S'0:13:41'
p3045
aV((-0.5+0.5)/2)/(sqrt((1/12)(0.5-(-0.5))^2))
p3046
asS'part2_correct_attempt'
p3047
(lp3048
S'0:01:07'
p3049
aVsqrt((1/12)(0.5-(-0.5))^2)
p3050
asS'part4_incorrect_attempt'
p3051
(lp3052
(S'0:14:14'
p3053
V((-0.5+0.5)/2)/(sqrt((1/12)(0.5-(-0.5))^2))
p3054
tp3055
a(S'0:15:45'
p3056
V(-0.5+0.5)/2
p3057
tp3058
asg9
V2015-10-31 19:49:30
p3059
ssVdgunawan
p3060
(dp3061
S'part4_correct_attempt'
p3062
(lp3063
S'15:30:45'
p3064
aV(85/12)^(1/2)
p3065
asS'part3_correct_attempt'
p3066
(lp3067
S'15:17:38'
p3068
aV(-.5+.5)/2 *85
p3069
asS'part2_correct_attempt'
p3070
(lp3071
S'15:18:43'
p3072
ag372
asS'part4_incorrect_attempt'
p3073
(lp3074
(S'15:20:20'
p3075
V((-.5+.5)/2 *85 (1-(-.5+.5)/2))^(1/2)
p3076
tp3077
asg9
g373
ssVaggouw
p3078
(dp3079
S'part4_correct_attempt'
p3080
(lp3081
S'0:05:01'
p3082
aVsqrt(45/12)
p3083
asS'part3_correct_attempt'
p3084
(lp3085
S'0:00:24'
p3086
aV0
p3087
asS'part2_correct_attempt'
p3088
(lp3089
S'0:00:19'
p3090
aVsqrt(1/12)
p3091
asS'part4_incorrect_attempt'
p3092
(lp3093
(S'0:00:37'
p3094
Vsqrt(40/12)
p3095
tp3096
a(S'0:00:50'
p3097
Vsqrt(20/12)
p3098
tp3099
a(S'0:00:53'
p3100
Vsqrt(30/12)
p3101
tp3102
a(S'0:02:53'
p3103
Vsqrt(10/12)
p3104
tp3105
a(S'0:03:01'
p3106
Vsqrt(0/12)
p3107
tp3108
a(S'0:03:23'
p3109
Vsqrt(5/12)
p3110
tp3111
a(S'0:03:29'
p3112
Vsqrt(2/12)
p3113
tp3114
a(S'0:03:33'
p3115
Vsqrt(3/12)
p3116
tp3117
a(S'0:03:37'
p3118
Vsqrt(4/12)
p3119
tp3120
a(S'0:03:41'
p3121
Vsqrt(5/12)
p3122
tp3123
a(S'0:03:45'
p3124
Vsqrt(6/12)
p3125
tp3126
a(S'0:03:50'
p3127
Vsqrt(7/12)
p3128
tp3129
a(S'0:03:59'
p3130
Vsqrt(8/12)
p3131
tp3132
a(S'0:04:04'
p3133
Vsqrt(9/12)
p3134
tp3135
a(S'0:04:07'
p3136
Vsqrt(10/12)
p3137
tp3138
a(S'0:04:13'
p3139
Vsqrt(11/12)
p3140
tp3141
a(S'0:04:18'
p3142
Vsqrt(12/12)
p3143
tp3144
a(S'0:04:22'
p3145
Vsqrt(13/12)
p3146
tp3147
a(S'0:04:26'
p3148
Vsqrt(14/12)
p3149
tp3150
a(S'0:04:32'
p3151
Vsqrt(80/12)
p3152
tp3153
a(S'0:04:38'
p3154
Vsqrt(13/12)
p3155
tp3156
a(S'0:04:42'
p3157
Vsqrt(14/12)
p3158
tp3159
a(S'0:04:45'
p3160
Vsqrt(15/12)
p3161
tp3162
a(S'0:04:49'
p3163
Vsqrt(16/12)
p3164
tp3165
a(S'0:04:53'
p3166
Vsqrt(17/12)
p3167
tp3168
asg9
V2015-11-04 09:07:52
p3169
ssVtcn013
p3170
(dp3171
S'part4_correct_attempt'
p3172
(lp3173
S'0:05:59'
p3174
aVsqrt(45/12)
p3175
asS'part3_correct_attempt'
p3176
(lp3177
S'0:02:06'
p3178
aV0
p3179
asS'part2_correct_attempt'
p3180
(lp3181
S'0:01:52'
p3182
ag408
asS'part4_incorrect_attempt'
p3183
(lp3184
(S'0:04:35'
p3185
V.5*45
p3186
tp3187
asg9
g409
ssVtstevens
p3188
(dp3189
S'part4_correct_attempt'
p3190
(lp3191
S'0:09:50'
p3192
aV2.813657164
p3193
asS'part3_correct_attempt'
p3194
(lp3195
S'0:03:18'
p3196
aV0
p3197
asS'part2_correct_attempt'
p3198
(lp3199
S'0:02:57'
p3200
ag423
asS'part4_incorrect_attempt'
p3201
(lp3202
(S'0:03:18'
p3203
V0.288675135
p3204
tp3205
a(S'0:03:56'
p3206
V0.288675135
p3207
tp3208
a(S'0:05:16'
p3209
V27.424137787
p3210
tp3211
a(S'0:07:45'
p3212
V54.848275573
p3213
tp3214
asg9
g424
ssVl8ngo
p3215
(dp3216
S'part4_correct_attempt'
p3217
(lp3218
S'5:06:25'
p3219
aVsqrt(40*1/12*[0.5+0.5]^2)
p3220
asS'part3_correct_attempt'
p3221
(lp3222
S'4:35:40'
p3223
aV0
p3224
asS'part2_correct_attempt'
p3225
(lp3226
S'0:00:00'
p3227
aVsqrt(1/12*[0.5+0.5]^2)
p3228
asS'part4_incorrect_attempt'
p3229
(lp3230
(S'4:36:22'
p3231
Vsqrt(1/12*[0.5+0.5]^2)
p3232
tp3233
a(S'5:01:17'
p3234
V40*sqrt(1/12*[0.5+0.5]^2)
p3235
tp3236
a(S'5:04:20'
p3237
Vsqrt([40^2]*1/12*[0.5+0.5]^2)
p3238
tp3239
asg9
g2495
ssVdjk006
p3240
(dp3241
S'part4_correct_attempt'
p3242
(lp3243
S'14:47:20'
p3244
aV(10/12^(1/2))
p3245
asS'part3_correct_attempt'
p3246
(lp3247
S'0:00:42'
p3248
aV0
p3249
asS'part2_correct_attempt'
p3250
(lp3251
S'0:00:00'
p3252
aV1/12^(1/2)
p3253
asS'part4_incorrect_attempt'
p3254
(lp3255
(S'0:01:43'
p3256
V100/12^(1/2)
p3257
tp3258
a(S'0:08:22'
p3259
V(1/12^(1/2))
p3260
tp3261
asg9
V2015-11-04 06:02:17
p3262
ssVdando
p3263
(dp3264
S'part4_correct_attempt'
p3265
(lp3266
S'0:50:57'
p3267
aVsqrt(80/12)
p3268
asS'part3_correct_attempt'
p3269
(lp3270
S'0:06:10'
p3271
aV0
p3272
asS'part2_correct_attempt'
p3273
(lp3274
S'0:01:49'
p3275
ag453
asS'part4_incorrect_attempt'
p3276
(lp3277
(S'0:06:55'
p3278
V1/2
p3279
tp3280
a(S'0:28:09'
p3281
V1/4
p3282
tp3283
asg9
g454
ssVglcohen
p3284
(dp3285
S'part4_correct_attempt'
p3286
(lp3287
S'9:41:13'
p3288
aVsqrt(50/12)
p3289
asS'part3_correct_attempt'
p3290
(lp3291
S'9:02:25'
p3292
aV0
p3293
asS'part2_correct_attempt'
p3294
(lp3295
S'9:30:54'
p3296
ag1007
asS'part4_incorrect_attempt'
p3297
(lp3298
(S'9:31:18'
p3299
Vsqrt((1/12)((-.5-.5)^2))
p3300
tp3301
a(S'9:32:34'
p3302
V0.5
p3303
tp3304
a(S'9:37:48'
p3305
Vsqrt((1/12)((-.5-.5)^2))50
p3306
tp3307
a(S'9:38:58'
p3308
V(sqrt((1/12)((-.5-.5)^2)))25
p3309
tp3310
asg9
g1008
ssVachava
p3311
(dp3312
S'part4_correct_attempt'
p3313
(lp3314
S'0:08:27'
p3315
aVsqrt(55/12)
p3316
asS'part3_correct_attempt'
p3317
(lp3318
S'0:06:04'
p3319
aV0
p3320
asS'part2_correct_attempt'
p3321
(lp3322
S'0:03:18'
p3323
ag519
asS'part4_incorrect_attempt'
p3324
(lp3325
(S'0:07:00'
p3326
V1/12
p3327
tp3328
a(S'0:07:25'
p3329
V0.5
p3330
tp3331
asg9
g520
ssVasp025
p3332
(dp3333
S'part4_correct_attempt'
p3334
(lp3335
S'0:11:19'
p3336
aV[85(.5+.5)^2/12]^(1/2)
p3337
asS'part3_correct_attempt'
p3338
(lp3339
S'0:01:25'
p3340
aV0
p3341
asS'part2_correct_attempt'
p3342
(lp3343
S'0:09:25'
p3344
aV[(.5+.5)^2/12]^(1/2)
p3345
asS'part4_incorrect_attempt'
p3346
(lp3347
(S'0:09:54'
p3348
V85[(.5+.5)^2/12]^(1/2)
p3349
tp3350
asg9
V2015-11-06 23:24:43
p3351
ssVssamudra
p3352
(dp3353
S'part4_correct_attempt'
p3354
(lp3355
S'0:01:37'
p3356
aVsqrt(75)/sqrt(12)
p3357
asS'part3_correct_attempt'
p3358
(lp3359
S'0:01:06'
p3360
aV0
p3361
asS'part2_correct_attempt'
p3362
(lp3363
S'0:00:00'
p3364
aV1/sqrt(12)
p3365
asS'part4_incorrect_attempt'
p3366
(lp3367
(S'0:01:06'
p3368
V75/sqrt(12)
p3369
tp3370
asg9
V2015-11-05 06:46:25
p3371
ssVflhernan
p3372
(dp3373
S'part4_correct_attempt'
p3374
(lp3375
S'0:05:35'
p3376
aVsqrt((1/12)*80)
p3377
asS'part3_correct_attempt'
p3378
(lp3379
S'0:02:31'
p3380
aV0
p3381
asS'part2_correct_attempt'
p3382
(lp3383
S'0:00:45'
p3384
aVsqrt(1/12)
p3385
asS'part4_incorrect_attempt'
p3386
(lp3387
(S'0:03:56'
p3388
Vsqrt((1/12)*80^2)
p3389
tp3390
a(S'0:04:59'
p3391
Vsqrt((1/12)*1^2)
p3392
tp3393
asg9
V2015-11-03 20:58:27
p3394
ssVc1wei
p3395
(dp3396
S'part4_correct_attempt'
p3397
(lp3398
S'0:09:29'
p3399
aVsqrt((1/12)*95)
p3400
asS'part3_correct_attempt'
p3401
(lp3402
S'0:00:21'
p3403
aV0
p3404
asS'part2_correct_attempt'
p3405
(lp3406
S'0:01:16'
p3407
aVsqrt(1/12)
p3408
asS'part4_incorrect_attempt'
p3409
(lp3410
(S'0:03:33'
p3411
V.5
p3412
tp3413
a(S'0:03:41'
p3414
Vsqrt(.5)
p3415
tp3416
a(S'0:04:04'
p3417
Vsqrt(.5)
p3418
tp3419
a(S'0:05:28'
p3420
V1/95
p3421
tp3422
a(S'0:07:15'
p3423
Vsqrt(95)
p3424
tp3425
a(S'0:08:56'
p3426
Vsqrt(0)
p3427
tp3428
a(S'0:09:09'
p3429
V1/12
p3430
tp3431
asg9
V2015-11-05 05:04:06
p3432
ssVmitopete
p3433
(dp3434
S'part4_correct_attempt'
p3435
(lp3436
S'2 days, 18:16:25'
p3437
aV(((1/12)*80)^(1/2))
p3438
asS'part3_correct_attempt'
p3439
(lp3440
S'2 days, 17:57:44'
p3441
aV0
p3442
asS'part2_correct_attempt'
p3443
(lp3444
S'0:00:47'
p3445
ag531
asS'part4_incorrect_attempt'
p3446
(lp3447
(S'2 days, 17:58:36'
p3448
V((1/12)(1)^(2))^(1/2)
p3449
tp3450
a(S'2 days, 18:05:05'
p3451
V1/12
p3452
tp3453
a(S'2 days, 18:05:17'
p3454
V1/(12)^(1/2)
p3455
tp3456
a(S'2 days, 18:06:09'
p3457
V1/(12)^(2)
p3458
tp3459
a(S'2 days, 18:14:12'
p3460
V(((1/12)(80)^(2))^(1/2))
p3461
tp3462
a(S'2 days, 18:15:06'
p3463
V(((1/12)(3240)^(2))^(1/2))
p3464
tp3465
asg9
g532
ssVm8woo
p3466
(dp3467
S'part4_correct_attempt'
p3468
(lp3469
S'0:11:59'
p3470
aVsqrt(75* 1/12 * (0.5 - -0.5)^2)
p3471
asS'part3_correct_attempt'
p3472
(lp3473
S'0:03:22'
p3474
aV0
p3475
asS'part2_correct_attempt'
p3476
(lp3477
S'0:02:05'
p3478
aVsqrt(1/12 * (0.5 - -0.5)^2)
p3479
asS'part4_incorrect_attempt'
p3480
(lp3481
(S'0:03:22'
p3482
Vsqrt(1/12 * (0.5 - -0.5)^2)
p3483
tp3484
asg9
V2015-11-06 18:40:07
p3485
ssVggaddi
p3486
(dp3487
S'part4_correct_attempt'
p3488
(lp3489
S'0:03:31'
p3490
aVsqrt(75/12)
p3491
asS'part3_correct_attempt'
p3492
(lp3493
S'0:01:40'
p3494
aV0
p3495
asS'part2_correct_attempt'
p3496
(lp3497
S'0:00:41'
p3498
aVsqrt(1/12)
p3499
asS'part4_incorrect_attempt'
p3500
(lp3501
(S'0:01:55'
p3502
Vsqrt((1/12)*(75*0.5+75*0.5)^2)
p3503
tp3504
a(S'0:03:18'
p3505
V75*sqrt(1/12)
p3506
tp3507
asg9
V2015-11-05 05:42:50
p3508
ssVjhp077
p3509
(dp3510
S'part4_correct_attempt'
p3511
(lp3512
S'0:10:57'
p3513
aV(80/12)^(1/2)
p3514
asS'part3_correct_attempt'
p3515
(lp3516
S'0:00:13'
p3517
aV0
p3518
asS'part2_correct_attempt'
p3519
(lp3520
S'0:00:00'
p3521
aV1/(12)^(1/2)
p3522
asS'part4_incorrect_attempt'
p3523
(lp3524
(S'0:00:40'
p3525
V2/(12)^(1/2)
p3526
tp3527
a(S'0:00:51'
p3528
V1/(12)^(1/2)
p3529
tp3530
a(S'0:02:46'
p3531
V1/(6)^(1/2)
p3532
tp3533
a(S'0:08:46'
p3534
V1/(3)^(1/2)
p3535
tp3536
a(S'0:08:53'
p3537
V1/(12)^(1/2)
p3538
tp3539
a(S'0:08:59'
p3540
V1/(24)^(1/2)
p3541
tp3542
a(S'0:10:06'
p3543
V1/(3)^(1/2)
p3544
tp3545
asg9
V2015-11-05 13:54:00
p3546
ssVjit002
p3547
(dp3548
S'part4_correct_attempt'
p3549
(lp3550
S'0:19:36'
p3551
aV((1/12)*60)^0.5
p3552
asS'part3_correct_attempt'
p3553
(lp3554
S'0:12:45'
p3555
aV0
p3556
asS'part2_correct_attempt'
p3557
(lp3558
S'0:09:50'
p3559
ag606
asS'part4_incorrect_attempt'
p3560
(lp3561
(S'0:12:45'
p3562
V(1/12*(60)^2)^0.5
p3563
tp3564
a(S'0:19:19'
p3565
V((1/12)*60)^1/2
p3566
tp3567
asg9
g607
ssVdruble
p3568
(dp3569
S'part4_correct_attempt'
p3570
(lp3571
S'0:03:13'
p3572
aV((1/12) * (0.5 + 0.5)^2 * 75)^(1/2)
p3573
asS'part3_correct_attempt'
p3574
(lp3575
S'0:00:00'
p3576
aV((-0.5 + 0.5) / 2) * 75
p3577
asS'part2_correct_attempt'
p3578
(lp3579
S'0:00:00'
p3580
aV(1/12)^(1/2) * (0.5 + 0.5)
p3581
asS'part4_incorrect_attempt'
p3582
(lp3583
(S'0:00:00'
p3584
V(1/12)^(1/2) * (0.5 + 0.5) * 75
p3585
tp3586
asg9
g1795
ssVh4tu
p3587
(dp3588
S'part4_correct_attempt'
p3589
(lp3590
S'0:04:44'
p3591
aVsqrt( 75/12)
p3592
asS'part3_correct_attempt'
p3593
(lp3594
S'0:03:30'
p3595
aV0
p3596
asS'part2_correct_attempt'
p3597
(lp3598
S'0:00:42'
p3599
ag953
asS'part4_incorrect_attempt'
p3600
(lp3601
(S'0:03:40'
p3602
V75*sqrt(1/12)
p3603
tp3604
a(S'0:04:18'
p3605
V75^2 * sqrt(1/12)
p3606
tp3607
asg9
g954
ssVjag028
p3608
(dp3609
S'part4_correct_attempt'
p3610
(lp3611
S'2 days, 19:41:42'
p3612
aVsqrt[1/12*90]
p3613
asS'part3_correct_attempt'
p3614
(lp3615
S'0:02:04'
p3616
aV0
p3617
asS'part2_correct_attempt'
p3618
(lp3619
S'0:01:49'
p3620
ag633
asS'part4_incorrect_attempt'
p3621
(lp3622
(S'0:02:30'
p3623
V1/12
p3624
tp3625
asg9
g634
ssVccn001
p3626
(dp3627
S'part4_correct_attempt'
p3628
(lp3629
S'14:53:54'
p3630
aV(45/12)^(0.5)
p3631
asS'part3_correct_attempt'
p3632
(lp3633
S'0:02:29'
p3634
aV0
p3635
asS'part2_correct_attempt'
p3636
(lp3637
S'-1 day, 23:59:26'
p3638
aV((1/12)(1))^(0.5)
p3639
asS'part4_incorrect_attempt'
p3640
(lp3641
(S'0:02:29'
p3642
V((1/12)(45)^2)^(0.5)
p3643
tp3644
a(S'0:02:50'
p3645
V((1/12)(1)^2)^(0.5)
p3646
tp3647
a(S'0:06:07'
p3648
V45*((1/12)(1)^2)^(0.5)
p3649
tp3650
a(S'0:09:05'
p3651
V((1/12)(50)^2)^(0.5)
p3652
tp3653
a(S'5:55:03'
p3654
V75*(((1/12)(1))^(0.5))
p3655
tp3656
a(S'5:55:11'
p3657
V45*(((1/12)(1))^(0.5))
p3658
tp3659
a(S'5:58:51'
p3660
V((1/12)(22.5+22.5)^(2))^(0.5)
p3661
tp3662
asg9
g1842
ssVasetters
p3663
(dp3664
S'part4_correct_attempt'
p3665
(lp3666
S'0:05:21'
p3667
aVsqrt(85/12)
p3668
asS'part3_correct_attempt'
p3669
(lp3670
S'0:00:43'
p3671
aV0
p3672
asS'part2_correct_attempt'
p3673
(lp3674
S'0:00:23'
p3675
ag660
asS'part4_incorrect_attempt'
p3676
(lp3677
(S'0:01:41'
p3678
V85*sqrt(1/12)
p3679
tp3680
asg9
g661
ssVatorr
p3681
(dp3682
S'part4_correct_attempt'
p3683
(lp3684
S'3:56:39'
p3685
aV(65 * (1/12))^0.5
p3686
asS'part3_correct_attempt'
p3687
(lp3688
S'0:00:56'
p3689
aV0
p3690
asS'part2_correct_attempt'
p3691
(lp3692
S'0:00:22'
p3693
ag672
asS'part4_incorrect_attempt'
p3694
(lp3695
(S'0:01:51'
p3696
V1/12
p3697
tp3698
a(S'0:02:21'
p3699
V1/12
p3700
tp3701
a(S'3:55:42'
p3702
V65 * (1/12)^0.5
p3703
tp3704
a(S'3:56:16'
p3705
V(65/2) * (1/12)^0.5
p3706
tp3707
a(S'3:56:28'
p3708
V65 * (1/12)^0.5
p3709
tp3710
asg9
g673
ssVskarimik
p3711
(dp3712
S'part4_correct_attempt'
p3713
(lp3714
S'1:37:24'
p3715
aVsqrt(95)/sqrt(12)
p3716
asS'part3_correct_attempt'
p3717
(lp3718
S'0:06:55'
p3719
aV0
p3720
asS'part2_correct_attempt'
p3721
(lp3722
S'0:00:00'
p3723
aV1/(12)^(1/2)
p3724
asS'part4_incorrect_attempt'
p3725
(lp3726
(S'0:06:55'
p3727
V1/(12)^(1/2)
p3728
tp3729
a(S'1:00:58'
p3730
V3/(12)^(1/2)
p3731
tp3732
a(S'1:01:22'
p3733
V95/(12)^(1/2)
p3734
tp3735
a(S'1:29:26'
p3736
V1/6
p3737
tp3738
a(S'1:29:52'
p3739
V2/(12)^(1/2)
p3740
tp3741
a(S'1:30:10'
p3742
V12/(12)^(1/2)
p3743
tp3744
asg9
g2662
ssVbeyounge
p3745
(dp3746
S'part4_correct_attempt'
p3747
(lp3748
S'0:08:53'
p3749
aVsqrt(100/12)
p3750
asS'part3_correct_attempt'
p3751
(lp3752
S'0:02:45'
p3753
aV0
p3754
asS'part2_correct_attempt'
p3755
(lp3756
S'0:00:00'
p3757
aVsqrt(1/12)
p3758
asS'part4_incorrect_attempt'
p3759
(lp3760
(S'0:06:18'
p3761
V100 * sqrt(1/12)
p3762
tp3763
a(S'0:06:29'
p3764
V50 * sqrt(1/12)
p3765
tp3766
asg9
V2015-10-30 06:12:24
p3767
ssVtpmach
p3768
(dp3769
S'part4_correct_attempt'
p3770
(lp3771
S'4:02:20'
p3772
aVsqrt(40*1/12(0.5+0.5)^2)
p3773
asS'part3_correct_attempt'
p3774
(lp3775
S'0:02:09'
p3776
aV0
p3777
asS'part2_correct_attempt'
p3778
(lp3779
S'0:01:03'
p3780
aVsqrt(1/12(0.5+0.5)^2)
p3781
asS'part4_incorrect_attempt'
p3782
(lp3783
(S'0:03:04'
p3784
Vsqrt(1/12(0.5+0.5)^2)
p3785
tp3786
a(S'0:03:33'
p3787
Vsqrt(1/12(40)^2)
p3788
tp3789
a(S'0:06:24'
p3790
Vsqrt(1/12(0.5)^2)
p3791
tp3792
a(S'3:54:50'
p3793
V1/6
p3794
tp3795
a(S'3:55:20'
p3796
V1/3
p3797
tp3798
asg9
V2015-11-04 23:21:18
p3799
ssVrraiyyan
p3800
(dp3801
S'part4_correct_attempt'
p3802
(lp3803
S'0:12:41'
p3804
aVsqrt(85/12)
p3805
asS'part3_correct_attempt'
p3806
(lp3807
S'0:04:28'
p3808
aV0
p3809
asS'part2_correct_attempt'
p3810
(lp3811
S'0:01:01'
p3812
aVsqrt(1/12)
p3813
asS'part4_incorrect_attempt'
p3814
(lp3815
(S'0:04:51'
p3816
V1/12
p3817
tp3818
a(S'0:05:07'
p3819
V0.5
p3820
tp3821
a(S'0:05:43'
p3822
V85/sqrt(1/12)
p3823
tp3824
a(S'0:05:54'
p3825
V85 * sqrt(1/12)
p3826
tp3827
a(S'0:06:18'
p3828
V1/12
p3829
tp3830
a(S'0:07:25'
p3831
V1/2
p3832
tp3833
a(S'0:09:04'
p3834
V85^2/2
p3835
tp3836
a(S'0:09:17'
p3837
V85^2/12
p3838
tp3839
a(S'0:09:44'
p3840
V1/12
p3841
tp3842
a(S'0:09:54'
p3843
V0.25/12
p3844
tp3845
a(S'0:11:03'
p3846
V85/2 * sqrt(1/12)
p3847
tp3848
a(S'0:11:12'
p3849
V85 * sqrt(1/12)
p3850
tp3851
a(S'0:11:32'
p3852
V85 * (1/12)^1/2
p3853
tp3854
a(S'0:11:42'
p3855
V85 * (1/12)^(1/2)
p3856
tp3857
asg9
g2257
ssVt1tran
p3858
(dp3859
S'part4_correct_attempt'
p3860
(lp3861
S'0:15:01'
p3862
aVsqrt(60*1/12(.5+.5)^2)
p3863
asS'part3_correct_attempt'
p3864
(lp3865
S'0:11:06'
p3866
aV60(-.5+.5)/2
p3867
asS'part2_correct_attempt'
p3868
(lp3869
S'0:01:41'
p3870
ag723
asS'part4_incorrect_attempt'
p3871
(lp3872
(S'0:11:06'
p3873
V60sqrt(1/12(.5+.5)^2)
p3874
tp3875
a(S'0:11:38'
p3876
V60^2sqrt(1/12(.5+.5)^2)
p3877
tp3878
a(S'0:11:59'
p3879
Vsqrt(1/12(.5+.5)^2)
p3880
tp3881
asg9
g724
ssVthwan
p3882
(dp3883
S'part3_correct_attempt'
p3884
(lp3885
S'0:00:00'
p3886
aV0
p3887
asS'part2_correct_attempt'
p3888
(lp3889
S'0:00:00'
p3890
aV1/(12)^(1/2)
p3891
asS'part4_incorrect_attempt'
p3892
(lp3893
(S'0:00:00'
p3894
V1/12
p3895
tp3896
a(S'0:02:33'
p3897
V2/(12)^(1/2)
p3898
tp3899
a(S'0:03:05'
p3900
V(2/12)^(1/2)
p3901
tp3902
a(S'0:06:42'
p3903
V(1/12+1/12)^(1/2)
p3904
tp3905
asg9
g2312
ssVz3meng
p3906
(dp3907
S'part4_correct_attempt'
p3908
(lp3909
S'0:12:48'
p3910
aV(90/12)^0.5
p3911
asS'part3_correct_attempt'
p3912
(lp3913
S'0:01:33'
p3914
aV0
p3915
asS'part2_correct_attempt'
p3916
(lp3917
S'0:00:47'
p3918
aV(1/12)^0.5
p3919
asS'part4_incorrect_attempt'
p3920
(lp3921
(S'0:03:09'
p3922
V90/(12)^2
p3923
tp3924
a(S'0:08:25'
p3925
V1/(12)^2
p3926
tp3927
asg9
V2015-11-05 09:55:04
p3928
ssVkrkelkar
p3929
(dp3930
S'part4_correct_attempt'
p3931
(lp3932
S'2 days, 2:46:54'
p3933
aVsqrt(85*(1/12))
p3934
asS'part3_correct_attempt'
p3935
(lp3936
S'0:00:00'
p3937
aV[(85*-0.5) + (85*0.5)]/2
p3938
asS'part2_correct_attempt'
p3939
(lp3940
S'2 days, 2:40:49'
p3941
aVsqrt((1/12)*(0.5-(-0.5))**2)
p3942
asS'part4_incorrect_attempt'
p3943
(lp3944
(S'2 days, 2:40:49'
p3945
Vsqrt((1/12)( (85*0.5) - (85*-0.5) ) **2)
p3946
tp3947
asg9
g2327
ssVcprafull
p3948
(dp3949
S'part4_correct_attempt'
p3950
(lp3951
S'0:03:15'
p3952
aVsqrt(80/12)
p3953
asS'part3_correct_attempt'
p3954
(lp3955
S'0:01:31'
p3956
aV0
p3957
asS'part2_correct_attempt'
p3958
(lp3959
S'0:01:07'
p3960
ag684
asS'part4_incorrect_attempt'
p3961
(lp3962
(S'0:03:06'
p3963
V80*sqrt(1/12)
p3964
tp3965
asg9
g685
ssVjel075
p3966
(dp3967
S'part4_correct_attempt'
p3968
(lp3969
S'0:02:54'
p3970
aVsqrt(85/12)
p3971
asS'part3_correct_attempt'
p3972
(lp3973
S'0:00:27'
p3974
aV0
p3975
asS'part2_correct_attempt'
p3976
(lp3977
S'0:00:27'
p3978
aVsqrt(1/12)
p3979
asS'part4_incorrect_attempt'
p3980
(lp3981
(S'0:02:22'
p3982
V85*sqrt(1/12)
p3983
tp3984
asg9
V2015-11-05 23:21:40
p3985
ssVedescobe
p3986
(dp3987
S'part4_correct_attempt'
p3988
(lp3989
S'0:19:21'
p3990
aV(85/12)^(1/2)
p3991
asS'part3_correct_attempt'
p3992
(lp3993
S'0:15:27'
p3994
aV0
p3995
asS'part2_correct_attempt'
p3996
(lp3997
S'0:13:07'
p3998
ag747
asS'part4_incorrect_attempt'
p3999
(lp4000
(S'0:15:38'
p4001
V1/12^(1/2)
p4002
tp4003
a(S'0:18:55'
p4004
V(80/12)^(1/2)
p4005
tp4006
asg9
g748
ssVetemlock
p4007
(dp4008
S'part4_correct_attempt'
p4009
(lp4010
S'0:04:05'
p4011
aV(65/12)^.5
p4012
asS'part3_correct_attempt'
p4013
(lp4014
S'0:02:28'
p4015
aV0
p4016
asS'part2_correct_attempt'
p4017
(lp4018
S'0:01:34'
p4019
aV(1/12)^.5
p4020
asS'part4_incorrect_attempt'
p4021
(lp4022
(S'0:03:11'
p4023
V65/(12)^.5
p4024
tp4025
a(S'0:03:36'
p4026
V65 * (1.12)^.5
p4027
tp4028
asg9
g2417
ssVakg009
p4029
(dp4030
S'part4_correct_attempt'
p4031
(lp4032
S'1:58:51'
p4033
aVsqrt((1/12)*90)
p4034
asS'part3_correct_attempt'
p4035
(lp4036
S'0:01:22'
p4037
aV0
p4038
asS'part2_correct_attempt'
p4039
(lp4040
S'0:00:41'
p4041
ag594
asS'part4_incorrect_attempt'
p4042
(lp4043
(S'0:03:15'
p4044
V90*sqrt(1/12)
p4045
tp4046
a(S'0:03:52'
p4047
V45sqrt(1/12)
p4048
tp4049
a(S'0:52:56'
p4050
V90*sqrt(1/12)
p4051
tp4052
a(S'1:58:43'
p4053
Vsqrt((1/12)*45)
p4054
tp4055
asg9
g595
ssVmuy002
p4056
(dp4057
S'part4_correct_attempt'
p4058
(lp4059
S'0:17:52'
p4060
aVsqrt(65/12)
p4061
asS'part3_correct_attempt'
p4062
(lp4063
S'0:03:18'
p4064
aV0
p4065
asS'part2_correct_attempt'
p4066
(lp4067
S'0:03:07'
p4068
ag795
asS'part4_incorrect_attempt'
p4069
(lp4070
(S'0:10:11'
p4071
Vsqrt(2/12)
p4072
tp4073
a(S'0:10:16'
p4074
Vsqrt(4/12)
p4075
tp4076
a(S'0:17:39'
p4077
V65*sqrt(1/12)
p4078
tp4079
asg9
g796
ssVcstringh
p4080
(dp4081
S'part4_correct_attempt'
p4082
(lp4083
S'0:03:33'
p4084
aV1/(sqrt(12))*sqrt(70)
p4085
asS'part3_correct_attempt'
p4086
(lp4087
S'0:01:23'
p4088
aV0
p4089
asS'part2_correct_attempt'
p4090
(lp4091
S'0:00:41'
p4092
ag819
asS'part4_incorrect_attempt'
p4093
(lp4094
(S'0:03:02'
p4095
V1/((sqrt(12))*sqrt(70))
p4096
tp4097
asg9
g820
ssVdan029
p4098
(dp4099
S'part4_correct_attempt'
p4100
(lp4101
S'0:26:07'
p4102
aVsqrt(60/12)
p4103
asS'part3_correct_attempt'
p4104
(lp4105
S'0:04:41'
p4106
aV0
p4107
asS'part2_correct_attempt'
p4108
(lp4109
S'0:00:41'
p4110
ag834
asS'part4_incorrect_attempt'
p4111
(lp4112
(S'0:04:41'
p4113
V1/sqrt(12)^60
p4114
tp4115
a(S'0:05:22'
p4116
V1/sqrt(12)
p4117
tp4118
a(S'0:06:24'
p4119
V60/sqrt(12)
p4120
tp4121
a(S'0:19:30'
p4122
V60/sqrt(12)
p4123
tp4124
a(S'0:20:18'
p4125
V120/sqrt(12)
p4126
tp4127
asg9
g835
ssVv4sharma
p4128
(dp4129
S'part4_correct_attempt'
p4130
(lp4131
S'23:32:59'
p4132
aVsqrt(40 * (1/12) * (.5 + .5)^2)
p4133
asS'part3_correct_attempt'
p4134
(lp4135
S'0:00:59'
p4136
aV0
p4137
asS'part2_correct_attempt'
p4138
(lp4139
S'0:00:27'
p4140
aVsqrt(1/12)
p4141
asS'part4_incorrect_attempt'
p4142
(lp4143
(S'22:42:01'
p4144
Vsqrt(75 * (1/12) * (.5 + .5)^2)
p4145
tp4146
a(S'22:44:22'
p4147
Vsqrt(75 * (1/12 * (.5 + .5)^2))
p4148
tp4149
a(S'22:57:01'
p4150
Vsqrt(75 * (1/12) * (.5 + .5)^2)
p4151
tp4152
a(S'23:30:36'
p4153
Vsqrt(75 * (1/12) * (.5 + .5)^2)
p4154
tp4155
asg9
V2015-11-05 23:23:24
p4156
ssVralhadda
p4157
(dp4158
S'part4_incorrect_attempt'
p4159
(lp4160
(S'3:33:00'
p4161
V65/12
p4162
tp4163
asg9
g843
ssVdcastlem
p4164
(dp4165
S'part4_correct_attempt'
p4166
(lp4167
S'3 days, 19:12:24'
p4168
aVsqrt(1/12*50)
p4169
asS'part3_correct_attempt'
p4170
(lp4171
S'0:00:00'
p4172
aV0
p4173
asS'part2_correct_attempt'
p4174
(lp4175
S'1:33:42'
p4176
ag887
asS'part4_incorrect_attempt'
p4177
(lp4178
(S'1:34:20'
p4179
Vsqrt(.5)
p4180
tp4181
a(S'1:34:30'
p4182
Vsqrt(.5*.5)
p4183
tp4184
a(S'1:34:38'
p4185
Vsqrt(.5*.5*1/12)
p4186
tp4187
a(S'1:36:25'
p4188
V1/12
p4189
tp4190
a(S'1:37:18'
p4191
V1/2
p4192
tp4193
a(S'1 day, 3:32:57'
p4194
V1/sqrt(12)
p4195
tp4196
a(S'3 days, 19:12:14'
p4197
Vsqrt(1/12*90)
p4198
tp4199
asg9
g888
ssVhsc052
p4200
(dp4201
S'part4_correct_attempt'
p4202
(lp4203
S'0:12:06'
p4204
aVsqrt(70)*sqrt(1/12)
p4205
asS'part3_correct_attempt'
p4206
(lp4207
S'0:00:00'
p4208
aV0
p4209
asS'part2_correct_attempt'
p4210
(lp4211
S'0:04:01'
p4212
ag899
asS'part4_incorrect_attempt'
p4213
(lp4214
(S'0:04:01'
p4215
V70*sqrt(1/12)
p4216
tp4217
a(S'0:07:51'
p4218
V70^2*sqrt(1/12)
p4219
tp4220
asg9
g900
ssVdac064
p4221
(dp4222
S'part4_correct_attempt'
p4223
(lp4224
S'0:25:04'
p4225
aV((90/12)(1))^(.5)
p4226
asS'part3_correct_attempt'
p4227
(lp4228
S'0:05:04'
p4229
aV0
p4230
asS'part2_correct_attempt'
p4231
(lp4232
S'0:00:48'
p4233
aV((1/12)(1))^(.5)
p4234
asS'part4_incorrect_attempt'
p4235
(lp4236
(S'0:12:13'
p4237
V((1/12)(1))^(.5)
p4238
tp4239
a(S'0:12:40'
p4240
V2*((1/12)(1))^(.5)
p4241
tp4242
a(S'0:19:45'
p4243
V((1/12)(1))^(.5)
p4244
tp4245
asg9
V2015-11-05 09:34:31
p4246
ssVv3doan
p4247
(dp4248
S'part4_correct_attempt'
p4249
(lp4250
S'1 day, 8:15:58'
p4251
aVsqrt(85/12)
p4252
asS'part3_correct_attempt'
p4253
(lp4254
S'0:00:56'
p4255
aV0
p4256
asS'part2_correct_attempt'
p4257
(lp4258
S'0:00:00'
p4259
aVsqrt(1/12)
p4260
asS'part4_incorrect_attempt'
p4261
(lp4262
(S'0:00:56'
p4263
V2sqrt(1/12)
p4264
tp4265
a(S'1 day, 8:15:28'
p4266
V85 sqrt(1/12)
p4267
tp4268
a(S'1 day, 8:15:52'
p4269
Vsqrt(75/12)
p4270
tp4271
asg9
g2233
ssVyil035
p4272
(dp4273
S'part4_correct_attempt'
p4274
(lp4275
S'1:15:36'
p4276
aVsqrt(100/12)
p4277
asS'part3_correct_attempt'
p4278
(lp4279
S'0:00:00'
p4280
aV0
p4281
asS'part2_correct_attempt'
p4282
(lp4283
S'0:00:00'
p4284
aV1/sqrt(12)
p4285
asS'part4_incorrect_attempt'
p4286
(lp4287
(S'0:00:00'
p4288
V1/sqrt(6)
p4289
tp4290
a(S'0:02:52'
p4291
V1/sqrt(3)
p4292
tp4293
a(S'0:06:39'
p4294
V1/sqrt(12)
p4295
tp4296
a(S'0:07:05'
p4297
Vsqrt(2/12)
p4298
tp4299
a(S'0:09:24'
p4300
V2/sqrt(12)
p4301
tp4302
a(S'0:09:39'
p4303
V2/sqrt(6)
p4304
tp4305
a(S'0:50:52'
p4306
V1/2
p4307
tp4308
asg9
g2589
ssVsghouse
p4309
(dp4310
S'part4_correct_attempt'
p4311
(lp4312
S'21:42:52'
p4313
aVsqrt(75/12)
p4314
asS'part3_correct_attempt'
p4315
(lp4316
S'0:00:00'
p4317
aV0
p4318
asS'part2_correct_attempt'
p4319
(lp4320
S'0:00:00'
p4321
aVsqrt(1/12)
p4322
asS'part4_incorrect_attempt'
p4323
(lp4324
(S'0:00:00'
p4325
V75*sqrt(1/12)
p4326
tp4327
a(S'0:04:55'
p4328
V1/3
p4329
tp4330
a(S'0:06:39'
p4331
V.5
p4332
tp4333
a(S'0:08:56'
p4334
Vsqrt(75^2/12)
p4335
tp4336
a(S'0:11:54'
p4337
Vsqrt(32.5^2 *2)
p4338
tp4339
a(S'0:13:31'
p4340
V32.5/sqrt(12)
p4341
tp4342
a(S'17:39:21'
p4343
Vsqrt(75^2/12)
p4344
tp4345
a(S'17:40:06'
p4346
V75*sqrt(1/12)
p4347
tp4348
asg9
V2015-11-05 03:11:28
p4349
ssVwmiao
p4350
(dp4351
S'part4_correct_attempt'
p4352
(lp4353
S'18:18:04'
p4354
aV(100/12)^0.5
p4355
asS'part3_correct_attempt'
p4356
(lp4357
S'0:03:37'
p4358
aV0
p4359
asS'part2_correct_attempt'
p4360
(lp4361
S'0:05:26'
p4362
ag935
asS'part4_incorrect_attempt'
p4363
(lp4364
(S'0:06:18'
p4365
V(1/12*1^2)^0.5
p4366
tp4367
asg9
g936
ssVk3tan
p4368
(dp4369
S'part4_correct_attempt'
p4370
(lp4371
S'2 days, 2:04:03'
p4372
aVsqrt(65/12)
p4373
asS'part3_correct_attempt'
p4374
(lp4375
S'0:01:01'
p4376
aV0
p4377
asS'part2_correct_attempt'
p4378
(lp4379
S'0:00:44'
p4380
aVsqrt(1/12)
p4381
asS'part4_incorrect_attempt'
p4382
(lp4383
(S'0:06:17'
p4384
V65*sqrt(1/12)
p4385
tp4386
a(S'2 days, 1:58:36'
p4387
V2.04124
p4388
tp4389
asg9
g2650
ssVjyc018
p4390
(dp4391
S'part4_correct_attempt'
p4392
(lp4393
S'23:12:13'
p4394
aVsqrt(75/12)
p4395
asS'part3_correct_attempt'
p4396
(lp4397
S'0:01:18'
p4398
aV0
p4399
asS'part2_correct_attempt'
p4400
(lp4401
S'0:03:22'
p4402
aVsqrt(1/12)
p4403
asS'part4_incorrect_attempt'
p4404
(lp4405
(S'0:15:09'
p4406
V.5
p4407
tp4408
a(S'0:21:43'
p4409
V2.887
p4410
tp4411
a(S'23:12:07'
p4412
Vsqrt(85/12)
p4413
tp4414
asg9
g2134
ssVjix029
p4415
(dp4416
S'part4_correct_attempt'
p4417
(lp4418
S'0:17:18'
p4419
aV(70/12)^.5
p4420
asS'part3_correct_attempt'
p4421
(lp4422
S'0:00:00'
p4423
aV0
p4424
asS'part2_correct_attempt'
p4425
(lp4426
S'0:00:00'
p4427
aV1/12^.5
p4428
asS'part4_incorrect_attempt'
p4429
(lp4430
(S'0:00:00'
p4431
V70/12^.5
p4432
tp4433
a(S'0:01:36'
p4434
V1/12^.5
p4435
tp4436
a(S'0:01:44'
p4437
V70/12^.5
p4438
tp4439
asg9
V2015-11-01 20:42:55
p4440
ssVhkhodada
p4441
(dp4442
S'part4_correct_attempt'
p4443
(lp4444
S'2 days, 2:04:57'
p4445
aVsqrt(50/12)
p4446
asS'part3_correct_attempt'
p4447
(lp4448
S'-3 days, 18:30:34'
p4449
aV0
p4450
asS'part2_correct_attempt'
p4451
(lp4452
S'1 day, 2:40:21'
p4453
ag986
asS'part4_incorrect_attempt'
p4454
(lp4455
(S'1 day, 4:01:47'
p4456
V1/sqrt(12)
p4457
tp4458
a(S'1 day, 20:25:10'
p4459
V50/sqrt(12)
p4460
tp4461
a(S'2 days, 1:55:08'
p4462
V1/sqrt(6)
p4463
tp4464
a(S'2 days, 1:56:07'
p4465
V1/sqrt(3)
p4466
tp4467
a(S'2 days, 1:56:39'
p4468
V1/3
p4469
tp4470
a(S'2 days, 2:03:52'
p4471
V50/12
p4472
tp4473
a(S'2 days, 2:04:31'
p4474
V100/12
p4475
tp4476
asg9
g987
ssVabasu
p4477
(dp4478
S'part4_correct_attempt'
p4479
(lp4480
S'0:57:54'
p4481
aVsqrt(80/12)
p4482
asS'part3_correct_attempt'
p4483
(lp4484
S'0:08:14'
p4485
aV0
p4486
asS'part2_correct_attempt'
p4487
(lp4488
S'0:42:28'
p4489
ag477
asS'part4_incorrect_attempt'
p4490
(lp4491
(S'0:57:43'
p4492
V80*sqrt(1/12)
p4493
tp4494
asg9
g478
ssVacvuong
p4495
(dp4496
S'part4_correct_attempt'
p4497
(lp4498
S'0:06:28'
p4499
aV(80/12)^0.5
p4500
asS'part3_correct_attempt'
p4501
(lp4502
S'0:01:36'
p4503
aV0
p4504
asS'part2_correct_attempt'
p4505
(lp4506
S'0:01:36'
p4507
ag1022
asS'part4_incorrect_attempt'
p4508
(lp4509
(S'0:01:48'
p4510
V80*(1/12)^0.5
p4511
tp4512
a(S'0:03:04'
p4513
V(64/12)^0.5
p4514
tp4515
asg9
g1023
ssVsachadal
p4516
(dp4517
S'part4_correct_attempt'
p4518
(lp4519
S'1 day, 1:59:25'
p4520
aVsqrt(75*(1/12))
p4521
asS'part3_correct_attempt'
p4522
(lp4523
S'1 day, 1:51:14'
p4524
aV0
p4525
asS'part2_correct_attempt'
p4526
(lp4527
S'1 day, 1:50:53'
p4528
ag1049
asS'part4_incorrect_attempt'
p4529
(lp4530
(S'1 day, 1:51:28'
p4531
V75/sqrt(12)
p4532
tp4533
a(S'1 day, 1:56:45'
p4534
V1/sqrt(12)
p4535
tp4536
a(S'1 day, 1:59:03'
p4537
V1/sqrt(75*12)
p4538
tp4539
asg9
g1050
ssVawollner
p4540
(dp4541
S'part4_correct_attempt'
p4542
(lp4543
S'1:03:03'
p4544
aVsqrt(100^2/1200)
p4545
asS'part3_correct_attempt'
p4546
(lp4547
S'0:04:49'
p4548
aV0
p4549
asS'part2_correct_attempt'
p4550
(lp4551
S'0:04:05'
p4552
aVsqrt(1/12)
p4553
asS'part4_incorrect_attempt'
p4554
(lp4555
(S'0:04:49'
p4556
V2*sqrt(1/12)
p4557
tp4558
a(S'1:02:17'
p4559
Vsqrt(100^2/12)
p4560
tp4561
asg9
V2015-11-06 23:36:23
p4562
ssVpvl001
p4563
(dp4564
S'part4_correct_attempt'
p4565
(lp4566
S'6:51:08'
p4567
aVsqrt(45/12)
p4568
asS'part3_correct_attempt'
p4569
(lp4570
S'6:46:59'
p4571
aV0
p4572
asS'part2_correct_attempt'
p4573
(lp4574
S'6:46:43'
p4575
ag1061
asS'part4_incorrect_attempt'
p4576
(lp4577
(S'6:48:22'
p4578
V46*sqrt(1/12)
p4579
tp4580
a(S'6:50:56'
p4581
V45*sqrt(1/12)
p4582
tp4583
asg9
g1062
ssVmbl003
p4584
(dp4585
S'part4_correct_attempt'
p4586
(lp4587
S'0:05:23'
p4588
aVsqrt(80*(1/12)*(1)^2)
p4589
asS'part3_correct_attempt'
p4590
(lp4591
S'0:05:01'
p4592
ag115
asS'part2_correct_attempt'
p4593
(lp4594
S'0:01:05'
p4595
ag119
asS'part4_incorrect_attempt'
p4596
(lp4597
(S'0:05:11'
p4598
Vsqrt((1/12)*(1)^2)
p4599
tp4600
asg9
g120
ssVn2patil
p4601
(dp4602
S'part4_correct_attempt'
p4603
(lp4604
S'0:36:00'
p4605
aV(100(1/12))^(1/2)
p4606
asS'part3_correct_attempt'
p4607
(lp4608
S'0:23:57'
p4609
aV0
p4610
asS'part2_correct_attempt'
p4611
(lp4612
S'0:21:12'
p4613
ag1101
asS'part4_incorrect_attempt'
p4614
(lp4615
(S'0:34:40'
p4616
V100(1/12)
p4617
tp4618
asg9
g1102
ssVttimmons
p4619
(dp4620
S'part4_correct_attempt'
p4621
(lp4622
S'0:02:40'
p4623
aVsqrt((80/12)(0.5-(-0.5))^2)
p4624
asS'part3_correct_attempt'
p4625
(lp4626
S'0:01:05'
p4627
aV0
p4628
asS'part2_correct_attempt'
p4629
(lp4630
S'0:00:27'
p4631
aVsqrt((1/12)(0.5-(-0.5))^2)
p4632
asS'part4_incorrect_attempt'
p4633
(lp4634
(S'0:01:05'
p4635
Vsqrt((1/12)(0.5-(-0.5))^2)
p4636
tp4637
asg9
V2015-11-03 18:57:52
p4638
ssVjblynch
p4639
(dp4640
S'part4_correct_attempt'
p4641
(lp4642
S'6:14:59'
p4643
aVsqrt(75(1/12))
p4644
asS'part3_correct_attempt'
p4645
(lp4646
S'6:03:59'
p4647
aV0
p4648
asS'part2_correct_attempt'
p4649
(lp4650
S'0:00:29'
p4651
ag1128
asS'part4_incorrect_attempt'
p4652
(lp4653
(S'6:11:05'
p4654
V(1/12)
p4655
tp4656
a(S'6:11:56'
p4657
V1/3
p4658
tp4659
a(S'6:12:03'
p4660
V1/6
p4661
tp4662
a(S'6:13:34'
p4663
V100(1/12)
p4664
tp4665
a(S'6:14:40'
p4666
V75(1/12)
p4667
tp4668
asg9
g1129
ssVganajera
p4669
(dp4670
S'part4_correct_attempt'
p4671
(lp4672
S'0:09:48'
p4673
aVsqrt(65/12)
p4674
asS'part3_correct_attempt'
p4675
(lp4676
S'0:03:49'
p4677
aV0
p4678
asS'part2_correct_attempt'
p4679
(lp4680
S'0:00:00'
p4681
aVsqrt(1/12)
p4682
asS'part4_incorrect_attempt'
p4683
(lp4684
(S'0:04:13'
p4685
Vsqrt(4225/12)
p4686
tp4687
asg9
V2015-11-06 03:30:10
p4688
ssVnnh002
p4689
(dp4690
S'part4_correct_attempt'
p4691
(lp4692
S'0:23:51'
p4693
aVsqrt(100/12)
p4694
asS'part3_correct_attempt'
p4695
(lp4696
S'0:23:17'
p4697
aV0
p4698
asS'part2_correct_attempt'
p4699
(lp4700
S'0:22:18'
p4701
aVsqrt(1/12(1))
p4702
asS'part4_incorrect_attempt'
p4703
(lp4704
(S'0:23:17'
p4705
Vsqrt(100(sqrt(1/12)))
p4706
tp4707
asg9
V2015-11-06 20:58:40
p4708
ssVagian
p4709
(dp4710
S'part4_correct_attempt'
p4711
(lp4712
S'0:01:27'
p4713
aVsqrt(65)/sqrt(12)
p4714
asS'part3_correct_attempt'
p4715
(lp4716
S'0:01:05'
p4717
aV0
p4718
asS'part2_correct_attempt'
p4719
(lp4720
S'0:00:16'
p4721
aVsqrt(1/12)
p4722
asS'part4_incorrect_attempt'
p4723
(lp4724
(S'0:01:05'
p4725
Vsqrt(100)/sqrt(12)
p4726
tp4727
asg9
g2245
ssVskodigal
p4728
(dp4729
S'part4_correct_attempt'
p4730
(lp4731
S'0:04:35'
p4732
aVsqrt(75 * (1/12 *(.5+.5)^2))
p4733
asS'part3_correct_attempt'
p4734
(lp4735
S'0:03:43'
p4736
aV75 * (-.5+.5)/2
p4737
asS'part2_correct_attempt'
p4738
(lp4739
S'0:00:47'
p4740
aVsqrt(1/12 *(.5+.5)^2)
p4741
asS'part4_incorrect_attempt'
p4742
(lp4743
(S'0:03:43'
p4744
V75 * sqrt(1/12 *(.5+.5)^2)
p4745
tp4746
asg9
V2015-11-06 04:44:04
p4747
ssVhachrist
p4748
(dp4749
S'part4_correct_attempt'
p4750
(lp4751
S'0:02:08'
p4752
aVsqrt(40/12)
p4753
asS'part3_correct_attempt'
p4754
(lp4755
S'0:00:42'
p4756
aV0
p4757
asS'part2_correct_attempt'
p4758
(lp4759
S'0:00:27'
p4760
ag1167
asS'part4_incorrect_attempt'
p4761
(lp4762
(S'0:01:11'
p4763
V40*sqrt(1/12)
p4764
tp4765
asg9
g1168
ssVkew017
p4766
(dp4767
S'part4_correct_attempt'
p4768
(lp4769
S'0:15:31'
p4770
aVsqrt(1/12 * 80)
p4771
asS'part3_correct_attempt'
p4772
(lp4773
S'0:12:04'
p4774
aV0
p4775
asS'part2_correct_attempt'
p4776
(lp4777
S'0:03:33'
p4778
ag1179
asS'part4_incorrect_attempt'
p4779
(lp4780
(S'0:12:04'
p4781
V80sqrt(1/12)
p4782
tp4783
asg9
g1180
ssVdtea
p4784
(dp4785
S'part3_correct_attempt'
p4786
(lp4787
S'0:01:02'
p4788
aV0
p4789
asS'part4_incorrect_attempt'
p4790
(lp4791
(S'0:01:55'
p4792
V(1/12)(.5--.5)^2
p4793
tp4794
asg9
V2015-11-07 00:51:11
p4795
ssVarvenega
p4796
(dp4797
S'part4_correct_attempt'
p4798
(lp4799
S'0:00:20'
p4800
aVsqrt((1/12)*100)
p4801
asS'part3_correct_attempt'
p4802
(lp4803
S'0:00:00'
p4804
aV0
p4805
asS'part2_correct_attempt'
p4806
(lp4807
S'0:00:00'
p4808
aVsqrt(1/12)
p4809
asS'part4_incorrect_attempt'
p4810
(lp4811
(S'0:00:00'
p4812
Vsqrt((1/12)*40)
p4813
tp4814
asg9
g2084
ssVtdurrer
p4815
(dp4816
S'part4_correct_attempt'
p4817
(lp4818
S'0:09:51'
p4819
aVsqrt( 65/12 )
p4820
asS'part3_correct_attempt'
p4821
(lp4822
S'0:00:00'
p4823
aV0
p4824
asS'part2_correct_attempt'
p4825
(lp4826
S'0:00:00'
p4827
aVsqrt(1/12)
p4828
asS'part4_incorrect_attempt'
p4829
(lp4830
(S'0:08:29'
p4831
Vsqrt((65^2)/12)
p4832
tp4833
asg9
V2015-11-06 06:18:50
p4834
ssVksrijong
p4835
(dp4836
S'part4_correct_attempt'
p4837
(lp4838
S'1:58:18'
p4839
aVsqrt(((0.5+0.5)^2/12)*80)
p4840
asS'part3_correct_attempt'
p4841
(lp4842
S'0:01:58'
p4843
aV0
p4844
asS'part2_correct_attempt'
p4845
(lp4846
S'1:47:36'
p4847
ag1224
asS'part4_incorrect_attempt'
p4848
(lp4849
(S'1:56:03'
p4850
Vsqrt((0.5^2+0.5^2)/2)
p4851
tp4852
a(S'1:57:37'
p4853
V80*sqrt((0.5+0.5)^2/12)
p4854
tp4855
asg9
g1225
ssVvolim
p4856
(dp4857
S'part4_correct_attempt'
p4858
(lp4859
S'0:02:43'
p4860
aV((1/12)*85)^(1/2)
p4861
asS'part3_correct_attempt'
p4862
(lp4863
S'0:01:42'
p4864
aV0
p4865
asS'part2_correct_attempt'
p4866
(lp4867
S'0:01:27'
p4868
ag1244
asS'part4_incorrect_attempt'
p4869
(lp4870
(S'0:02:00'
p4871
V85*((1/12)^(1/2))
p4872
tp4873
asg9
g1245
ssVrohan
p4874
(dp4875
S'part4_correct_attempt'
p4876
(lp4877
S'0:06:20'
p4878
aVsqrt(45/12)
p4879
asS'part3_correct_attempt'
p4880
(lp4881
S'0:02:34'
p4882
aV0
p4883
asS'part2_correct_attempt'
p4884
(lp4885
S'0:02:16'
p4886
ag875
asS'part4_incorrect_attempt'
p4887
(lp4888
(S'0:04:12'
p4889
Vsqrt(1/12)+sqrt(1/12)
p4890
tp4891
a(S'0:04:27'
p4892
Vsqrt(2/12)
p4893
tp4894
a(S'0:05:39'
p4895
Vsqrt(1035/12)
p4896
tp4897
asg9
g876
ssVtjke
p4898
(dp4899
S'part4_correct_attempt'
p4900
(lp4901
S'0:03:02'
p4902
aVsqrt(75*1/12*(.5-(-.5))^2)
p4903
asS'part3_correct_attempt'
p4904
(lp4905
S'0:02:50'
p4906
aV75*(-.5+.5)/2
p4907
asS'part2_correct_attempt'
p4908
(lp4909
S'0:02:50'
p4910
aVsqrt(1/12*(.5-(-.5))^2)
p4911
asS'part4_incorrect_attempt'
p4912
(lp4913
(S'0:02:50'
p4914
Vsqrt(75^2*1/12*(.5-(-.5))^2)
p4915
tp4916
asg9
V2015-11-06 17:29:09
p4917
ssVklala
p4918
(dp4919
S'part4_correct_attempt'
p4920
(lp4921
S'0:01:27'
p4922
aVsqrt((1/12)(0.5 + 0.5)(75))
p4923
asS'part3_correct_attempt'
p4924
(lp4925
S'0:00:31'
p4926
aV0
p4927
asS'part2_correct_attempt'
p4928
(lp4929
S'0:00:18'
p4930
aVsqrt(1/12(1))
p4931
asS'part4_incorrect_attempt'
p4932
(lp4933
(S'0:00:48'
p4934
Vsqrt(1/12(1))
p4935
tp4936
asg9
V2015-11-05 06:49:03
p4937
ssVb1yao
p4938
(dp4939
S'part4_correct_attempt'
p4940
(lp4941
S'22:33:45'
p4942
aV(90/12)^0.5
p4943
asS'part3_correct_attempt'
p4944
(lp4945
S'0:00:18'
p4946
aV0
p4947
asS'part2_correct_attempt'
p4948
(lp4949
S'0:01:17'
p4950
aV1/12^0.5
p4951
asS'part4_incorrect_attempt'
p4952
(lp4953
(S'0:01:29'
p4954
V1/12^0.5
p4955
tp4956
asg9
V2015-11-04 19:55:29
p4957
ssVdmn009
p4958
(dp4959
S'part4_correct_attempt'
p4960
(lp4961
S'0:35:43'
p4962
aV2.32737
p4963
asS'part3_correct_attempt'
p4964
(lp4965
S'0:20:33'
p4966
aV0
p4967
asS'part2_correct_attempt'
p4968
(lp4969
S'0:33:01'
p4970
ag1298
asS'part4_incorrect_attempt'
p4971
(lp4972
(S'0:33:01'
p4973
V.288675
p4974
tp4975
asg9
g1299
ssVdlgoldbe
p4976
(dp4977
S'part4_correct_attempt'
p4978
(lp4979
S'0:04:56'
p4980
aVsqrt((1/12)*((0.5+0.5)^2)*65)
p4981
asS'part3_correct_attempt'
p4982
(lp4983
S'0:01:13'
p4984
aV0
p4985
asS'part2_correct_attempt'
p4986
(lp4987
S'0:00:00'
p4988
aVsqrt((1/12)*((0.5+0.5)^2))
p4989
asS'part4_incorrect_attempt'
p4990
(lp4991
(S'0:04:10'
p4992
Vsqrt(((65^2)/12)*((1)^2))
p4993
tp4994
asg9
V2015-11-05 06:43:06
p4995
ssVvsamant
p4996
(dp4997
S'part4_correct_attempt'
p4998
(lp4999
S'0:06:33'
p5000
aV60^(1/2)(1/12(.5+.5)^2)^(1/2)
p5001
asS'part3_correct_attempt'
p5002
(lp5003
S'0:02:12'
p5004
aV0
p5005
asS'part2_correct_attempt'
p5006
(lp5007
S'0:01:33'
p5008
aV(1/12(.5+.5)^2)^(1/2)
p5009
asS'part4_incorrect_attempt'
p5010
(lp5011
(S'0:03:56'
p5012
V(1/12(.5+.5)^2)^(1/2)
p5013
tp5014
a(S'0:04:01'
p5015
V60(1/12(.5+.5)^2)^(1/2)
p5016
tp5017
asg9
g2339
ssVaportuga
p5018
(dp5019
S'part4_correct_attempt'
p5020
(lp5021
S'0:04:43'
p5022
aV2.4152294577
p5023
asS'part3_correct_attempt'
p5024
(lp5025
S'0:01:43'
p5026
aV0
p5027
asS'part2_correct_attempt'
p5028
(lp5029
S'0:01:25'
p5030
aV0.288675134595
p5031
asS'part4_incorrect_attempt'
p5032
(lp5033
(S'0:03:37'
p5034
V1/28.9827534924
p5035
tp5036
asg9
V2015-11-03 22:48:49
p5037
ssVqtluong
p5038
(dp5039
S'part4_correct_attempt'
p5040
(lp5041
S'0:01:43'
p5042
aVsqrt(60*1/12)
p5043
asS'part3_correct_attempt'
p5044
(lp5045
S'0:01:28'
p5046
aV0
p5047
asS'part2_correct_attempt'
p5048
(lp5049
S'0:00:27'
p5050
ag1355
asS'part4_incorrect_attempt'
p5051
(lp5052
(S'0:01:28'
p5053
V60*sqrt(1/12)
p5054
tp5055
asg9
g1356
ssVspw006
p5056
(dp5057
S'part4_correct_attempt'
p5058
(lp5059
S'0:00:00'
p5060
aV(1/sqrt(12)*sqrt(80) )
p5061
asS'part3_correct_attempt'
p5062
(lp5063
S'-1 day, 23:59:26'
p5064
aV0
p5065
asS'part2_correct_attempt'
p5066
(lp5067
S'-1 day, 23:59:26'
p5068
aVsqrt(1/12)
p5069
asS'part4_incorrect_attempt'
p5070
(lp5071
(S'-1 day, 23:59:26'
p5072
V80*(1/sqrt(12) )
p5073
tp5074
asg9
V2015-11-04 03:42:09
p5075
ssVany027
p5076
(dp5077
S'part4_correct_attempt'
p5078
(lp5079
S'0:05:48'
p5080
aVsqrt(1/12 ( .5 - (-.5) )^2 * 40)
p5081
asS'part3_correct_attempt'
p5082
(lp5083
S'0:02:58'
p5084
aV0
p5085
asS'part2_correct_attempt'
p5086
(lp5087
S'0:01:57'
p5088
ag1286
asS'part4_incorrect_attempt'
p5089
(lp5090
(S'0:03:39'
p5091
Vsqrt(1/12 ( .5 - (-.5) )^2)
p5092
tp5093
asg9
g1287
ssVk5law
p5094
(dp5095
S'part4_correct_attempt'
p5096
(lp5097
S'0:05:50'
p5098
aVsqrt(60*(1/12))
p5099
asS'part3_correct_attempt'
p5100
(lp5101
S'0:01:43'
p5102
aV0
p5103
asS'part2_correct_attempt'
p5104
(lp5105
S'0:00:00'
p5106
aVsqrt((1/12)(.5+.5)^2)
p5107
asS'part4_incorrect_attempt'
p5108
(lp5109
(S'0:02:23'
p5110
V60*(1/12)
p5111
tp5112
a(S'0:02:51'
p5113
V.5*(1/12)
p5114
tp5115
a(S'0:02:57'
p5116
V30*(1/12)
p5117
tp5118
asg9
V2015-11-04 08:28:10
p5119
ssVamquinte
p5120
(dp5121
S'part4_correct_attempt'
p5122
(lp5123
S'1 day, 17:21:32'
p5124
aV2.814
p5125
asS'part3_correct_attempt'
p5126
(lp5127
S'0:03:05'
p5128
aV0
p5129
asS'part2_correct_attempt'
p5130
(lp5131
S'0:01:23'
p5132
ag1394
asS'part4_incorrect_attempt'
p5133
(lp5134
(S'0:03:05'
p5135
V27.424
p5136
tp5137
a(S'0:05:17'
p5138
V.00304
p5139
tp5140
a(S'0:05:36'
p5141
V.0296
p5142
tp5143
a(S'1 day, 16:44:55'
p5144
V.2887
p5145
tp5146
a(S'1 day, 17:20:15'
p5147
V27.424
p5148
tp5149
asg9
g1395
ssVj6quach
p5150
(dp5151
S'part4_correct_attempt'
p5152
(lp5153
S'4:31:38'
p5154
aVsqrt(100/12)
p5155
asS'part3_correct_attempt'
p5156
(lp5157
S'0:00:00'
p5158
aV0
p5159
asS'part2_correct_attempt'
p5160
(lp5161
S'0:00:00'
p5162
aV1/sqrt(12)
p5163
asS'part4_incorrect_attempt'
p5164
(lp5165
(S'0:00:00'
p5166
V1/sqrt(12)
p5167
tp5168
a(S'3:37:50'
p5169
V100*sqrt(1/12)
p5170
tp5171
a(S'3:44:07'
p5172
V(100*101/2)*(1/sqrt(12))
p5173
tp5174
asg9
g2096
ssVsyc078
p5175
(dp5176
S'part4_correct_attempt'
p5177
(lp5178
S'0:13:55'
p5179
aVsqrt(95/12)
p5180
asS'part3_correct_attempt'
p5181
(lp5182
S'0:02:10'
p5183
aV0
p5184
asS'part2_correct_attempt'
p5185
(lp5186
S'0:01:20'
p5187
aVsqrt( (1/12)((0.5+0.5)^2) )
p5188
asS'part4_incorrect_attempt'
p5189
(lp5190
(S'0:02:10'
p5191
Vsqrt( (1/12)((0.5+0.5)^2) )
p5192
tp5193
a(S'0:02:19'
p5194
V95(sqrt( (1/12)((0.5+0.5)^2) ))
p5195
tp5196
a(S'0:11:53'
p5197
V95 (1/12)((0.5+0.5)^2)
p5198
tp5199
a(S'0:12:44'
p5200
V95 (1/12)
p5201
tp5202
a(S'0:13:11'
p5203
V95 sqrt(1/12)
p5204
tp5205
asg9
V2015-11-05 03:11:54
p5206
ssVbmilton
p5207
(dp5208
S'part4_correct_attempt'
p5209
(lp5210
S'0:03:43'
p5211
aVsqrt(70 * (1/12))
p5212
asS'part3_correct_attempt'
p5213
(lp5214
S'0:03:14'
p5215
ag83
asS'part2_correct_attempt'
p5216
(lp5217
S'0:01:03'
p5218
ag87
asS'part4_incorrect_attempt'
p5219
(lp5220
(S'0:03:14'
p5221
V70^2 * (sqrt((1/12) * (1)))
p5222
tp5223
a(S'0:03:25'
p5224
V70 * (sqrt((1/12) * (1)))
p5225
tp5226
asg9
g88
ssVc3chung
p5227
(dp5228
S'part4_correct_attempt'
p5229
(lp5230
S'0:02:54'
p5231
aVsqrt(95/12)
p5232
asS'part3_correct_attempt'
p5233
(lp5234
S'-1 day, 23:59:39'
p5235
aV0
p5236
asS'part2_correct_attempt'
p5237
(lp5238
S'0:01:05'
p5239
ag1688
asS'part4_incorrect_attempt'
p5240
(lp5241
(S'0:01:27'
p5242
Vsqrt(0)
p5243
tp5244
asg9
g1689
ssVjhc010
p5245
(dp5246
S'part4_correct_attempt'
p5247
(lp5248
S'0:03:44'
p5249
aVsqrt(55*(sqrt(1/12)^2))
p5250
asS'part3_correct_attempt'
p5251
(lp5252
S'0:00:20'
p5253
aV0
p5254
asS'part2_correct_attempt'
p5255
(lp5256
S'0:00:00'
p5257
aVsqrt(1/12)
p5258
asS'part4_incorrect_attempt'
p5259
(lp5260
(S'0:00:35'
p5261
V55*sqrt(1/12)
p5262
tp5263
a(S'0:00:42'
p5264
V2*sqrt(1/12)
p5265
tp5266
a(S'0:01:00'
p5267
V55*sqrt(1/12)
p5268
tp5269
a(S'0:01:56'
p5270
Vsqrt(55^2*(1/12))
p5271
tp5272
a(S'0:02:28'
p5273
V55*sqrt(1/12)
p5274
tp5275
asg9
g2157
ssVrsmurlo
p5276
(dp5277
S'part4_correct_attempt'
p5278
(lp5279
S'0:01:23'
p5280
aVsqrt(50/12)
p5281
asS'part3_correct_attempt'
p5282
(lp5283
S'0:00:49'
p5284
aV0
p5285
asS'part2_correct_attempt'
p5286
(lp5287
S'0:00:00'
p5288
aVsqrt((1/12)(.5+.5)^2)
p5289
asS'part4_incorrect_attempt'
p5290
(lp5291
(S'0:00:49'
p5292
Vsqrt(75/12)
p5293
tp5294
asg9
V2015-11-05 20:29:46
p5295
ssVpnquach
p5296
(dp5297
S'part4_correct_attempt'
p5298
(lp5299
S'0:05:13'
p5300
aVsqrt(1/12*(1)^2*65)
p5301
asS'part3_correct_attempt'
p5302
(lp5303
S'0:00:00'
p5304
aV0
p5305
asS'part2_correct_attempt'
p5306
(lp5307
S'0:01:11'
p5308
aVsqrt(1/12*(1)^2)
p5309
asS'part4_incorrect_attempt'
p5310
(lp5311
(S'0:01:11'
p5312
Vsqrt(1/12*(1)^2)
p5313
tp5314
asg9
g2429
ssVs6deng
p5315
(dp5316
S'part3_correct_attempt'
p5317
(lp5318
S'0:02:13'
p5319
aV0
p5320
asS'part2_correct_attempt'
p5321
(lp5322
S'0:01:22'
p5323
ag1488
asS'part4_incorrect_attempt'
p5324
(lp5325
(S'0:02:13'
p5326
V80*sqrt(1/12)
p5327
tp5328
asg9
g1489
ssVachinn
p5329
(dp5330
S'part4_correct_attempt'
p5331
(lp5332
S'0:01:02'
p5333
aVsqrt(40*1/12)
p5334
asS'part3_correct_attempt'
p5335
(lp5336
S'0:00:00'
p5337
aV0
p5338
asS'part2_correct_attempt'
p5339
(lp5340
S'0:00:41'
p5341
ag1500
asS'part4_incorrect_attempt'
p5342
(lp5343
(S'0:00:41'
p5344
V40*sqrt(1/12)
p5345
tp5346
asg9
g1501
ssVjdeon
p5347
(dp5348
S'part4_correct_attempt'
p5349
(lp5350
S'17:48:58'
p5351
aV(90*(1/12))^(.5)
p5352
asS'part3_correct_attempt'
p5353
(lp5354
S'0:12:57'
p5355
aV0
p5356
asS'part2_correct_attempt'
p5357
(lp5358
S'0:00:31'
p5359
aV(1/12)^(.5)
p5360
asS'part4_incorrect_attempt'
p5361
(lp5362
(S'17:48:12'
p5363
V90*(1/12)^(.5)
p5364
tp5365
asg9
V2015-11-04 05:41:59
p5366
ssVajabasa
p5367
(dp5368
S'part4_correct_attempt'
p5369
(lp5370
S'0:33:51'
p5371
aV(((1/12)(-.5-.5)^2)*75)^(1/2)
p5372
asS'part3_correct_attempt'
p5373
(lp5374
S'0:02:45'
p5375
aV((-.5+.5)/2)*75
p5376
asS'part2_correct_attempt'
p5377
(lp5378
S'0:02:24'
p5379
ag1544
asS'part4_incorrect_attempt'
p5380
(lp5381
(S'0:03:34'
p5382
V75*(((1/12)(-.5-.5)^2)^(1/2))
p5383
tp5384
a(S'0:04:00'
p5385
V75*((((1/12)(-.5-.5)^2)^(1/2)))
p5386
tp5387
a(S'0:04:55'
p5388
V((((1/12)(-.5-.5)^2)^(1/2)))*75
p5389
tp5390
asg9
g1545
ssVmcatozzi
p5391
(dp5392
S'part4_correct_attempt'
p5393
(lp5394
S'0:17:37'
p5395
aVsqrt(55*(1/12))
p5396
asS'part3_correct_attempt'
p5397
(lp5398
S'0:02:12'
p5399
aV0
p5400
asS'part2_correct_attempt'
p5401
(lp5402
S'0:13:09'
p5403
ag1556
asS'part4_incorrect_attempt'
p5404
(lp5405
(S'0:15:53'
p5406
Vsqrt(55*.5*.5)
p5407
tp5408
a(S'0:16:18'
p5409
Vsqrt(55)
p5410
tp5411
asg9
g1557
ssVaadhakal
p5412
(dp5413
S'part4_correct_attempt'
p5414
(lp5415
S'0:01:12'
p5416
aVsqrt(100)/sqrt(12)
p5417
asS'part3_correct_attempt'
p5418
(lp5419
S'0:00:00'
p5420
aV0
p5421
asS'part2_correct_attempt'
p5422
(lp5423
S'0:00:00'
p5424
aVsqrt(1/12)
p5425
asS'part4_incorrect_attempt'
p5426
(lp5427
(S'0:00:00'
p5428
Vsqrt(40)/sqrt(12)
p5429
tp5430
asg9
g2377
ssVgsrandha
p5431
(dp5432
S'part4_correct_attempt'
p5433
(lp5434
S'13:51:31'
p5435
aVsqrt(1/12 * 75)
p5436
asS'part3_correct_attempt'
p5437
(lp5438
S'0:00:00'
p5439
aV0
p5440
asS'part2_correct_attempt'
p5441
(lp5442
S'0:40:10'
p5443
ag1418
asS'part4_incorrect_attempt'
p5444
(lp5445
(S'0:40:10'
p5446
Vsqrt(1/12(1))
p5447
tp5448
a(S'13:15:07'
p5449
V1/12(1)
p5450
tp5451
asg9
g1419
ssVhaliew
p5452
(dp5453
S'part4_correct_attempt'
p5454
(lp5455
S'0:07:40'
p5456
aVsqrt(65(1/12)(.5+.5)^2)
p5457
asS'part3_correct_attempt'
p5458
(lp5459
S'0:00:28'
p5460
aV0
p5461
asS'part2_correct_attempt'
p5462
(lp5463
S'0:00:00'
p5464
aVsqrt((1/12)(.5+.5)^2)
p5465
asS'part4_incorrect_attempt'
p5466
(lp5467
(S'0:00:28'
p5468
Vsqrt((1/12)(.5+.5)^2)
p5469
tp5470
a(S'0:06:27'
p5471
V65(sqrt((1/12)(.5+.5)^2))
p5472
tp5473
a(S'0:07:12'
p5474
Vsqrt((1/12)(.5+.5)^2)
p5475
tp5476
asg9
V2015-11-06 23:36:10
p5477
ssVlahawkin
p5478
(dp5479
S'part3_correct_attempt'
p5480
(lp5481
S'0:00:00'
p5482
aV0
p5483
asS'part2_correct_attempt'
p5484
(lp5485
S'0:00:00'
p5486
aV(1/12)^(1/2)
p5487
asS'part4_incorrect_attempt'
p5488
(lp5489
(S'10:26:31'
p5490
V(85/12)^1/2
p5491
tp5492
a(S'10:26:50'
p5493
V(1/2)^1/2
p5494
tp5495
asg9
V2015-11-04 17:26:57
p5496
ssVedcole
p5497
(dp5498
S'part4_correct_attempt'
p5499
(lp5500
S'0:47:00'
p5501
aVsqrt(75*75/(75*12))
p5502
asS'part3_correct_attempt'
p5503
(lp5504
S'0:15:49'
p5505
aV0
p5506
asS'part2_correct_attempt'
p5507
(lp5508
S'0:15:06'
p5509
aVsqrt(1/12)
p5510
asS'part4_incorrect_attempt'
p5511
(lp5512
(S'0:43:15'
p5513
Vsqrt(1/12*2)
p5514
tp5515
a(S'0:43:25'
p5516
Vsqrt(1/12*4)
p5517
tp5518
a(S'0:43:52'
p5519
Vsqrt(1/12*.5)
p5520
tp5521
asg9
g2480
ssVyig015
p5522
(dp5523
S'part4_correct_attempt'
p5524
(lp5525
S'0:15:35'
p5526
aV8.0622578*0.288675
p5527
asS'part3_correct_attempt'
p5528
(lp5529
S'0:14:41'
p5530
aV0
p5531
asS'part2_correct_attempt'
p5532
(lp5533
S'0:13:38'
p5534
ag1616
asS'part4_incorrect_attempt'
p5535
(lp5536
(S'0:14:41'
p5537
V65^2*217*0.87
p5538
tp5539
asg9
g1617
ssVvasharma
p5540
(dp5541
S'part4_correct_attempt'
p5542
(lp5543
S'0:13:24'
p5544
aVsqrt(95*(1/12))
p5545
asS'part3_correct_attempt'
p5546
(lp5547
S'0:06:45'
p5548
aV0
p5549
asS'part2_correct_attempt'
p5550
(lp5551
S'0:00:34'
p5552
aVsqrt((1/12))
p5553
asS'part4_incorrect_attempt'
p5554
(lp5555
(S'0:07:21'
p5556
V95*sqrt((1/12))
p5557
tp5558
a(S'0:13:08'
p5559
V(95^2)*sqrt((1/12))
p5560
tp5561
asg9
V2015-11-05 21:38:45
p5562
ssVyypan
p5563
(dp5564
S'part4_correct_attempt'
p5565
(lp5566
S'0:02:11'
p5567
aVsqrt(1/12*(.5+.5)^2*45)
p5568
asS'part3_correct_attempt'
p5569
(lp5570
S'0:01:11'
p5571
aV(-.5+.5)/2
p5572
asS'part2_correct_attempt'
p5573
(lp5574
S'0:00:35'
p5575
aVsqrt(1/12*(.5+.5)^2)
p5576
asS'part4_incorrect_attempt'
p5577
(lp5578
(S'0:01:24'
p5579
Vsqrt(1/12*(.5+.5)^2)
p5580
tp5581
asg9
V2015-11-05 06:36:42
p5582
ssVzig006
p5583
(dp5584
S'part4_correct_attempt'
p5585
(lp5586
S'0:31:30'
p5587
aV(40)^0.5*((1/12)^0.5)
p5588
asS'part3_correct_attempt'
p5589
(lp5590
S'0:00:00'
p5591
aV0
p5592
asS'part2_correct_attempt'
p5593
(lp5594
S'0:22:50'
p5595
ag1700
asS'part4_incorrect_attempt'
p5596
(lp5597
(S'0:22:50'
p5598
V(40^2/12)^0.5
p5599
tp5600
a(S'0:28:59'
p5601
V40*((1/12)^0.5)
p5602
tp5603
asg9
g1701
ssVjmiclat
p5604
(dp5605
S'part4_correct_attempt'
p5606
(lp5607
S'0:05:56'
p5608
aVsqrt(95/12)
p5609
asS'part3_correct_attempt'
p5610
(lp5611
S'0:03:09'
p5612
aV0
p5613
asS'part2_correct_attempt'
p5614
(lp5615
S'0:00:30'
p5616
ag1406
asS'part4_incorrect_attempt'
p5617
(lp5618
(S'0:03:19'
p5619
V95*sqrt(1/12)
p5620
tp5621
a(S'0:03:57'
p5622
V95^2/12
p5623
tp5624
a(S'0:04:17'
p5625
Vsqrt(95^2/12)
p5626
tp5627
a(S'0:05:21'
p5628
V95*sqrt(95^2/12)
p5629
tp5630
asg9
g1407
ssVmjethani
p5631
(dp5632
S'part4_correct_attempt'
p5633
(lp5634
S'0:29:36'
p5635
aVsqrt((70)(1/12)((-0.5-0.5)^2))
p5636
asS'part3_correct_attempt'
p5637
(lp5638
S'0:24:11'
p5639
aV0
p5640
asS'part2_correct_attempt'
p5641
(lp5642
S'0:21:19'
p5643
aVsqrt((1/12)(1)^(2))
p5644
asS'part4_incorrect_attempt'
p5645
(lp5646
(S'0:29:06'
p5647
Vsqrt((1/12)((-0.5-0.5)^2))
p5648
tp5649
asg9
V2015-11-06 17:52:52
p5650
ssVkosung
p5651
(dp5652
S'part4_correct_attempt'
p5653
(lp5654
S'4:43:57'
p5655
aV2.32735
p5656
asS'part3_correct_attempt'
p5657
(lp5658
S'0:04:26'
p5659
aV0
p5660
asS'part2_correct_attempt'
p5661
(lp5662
S'0:01:21'
p5663
aV1/3.464
p5664
asS'part4_incorrect_attempt'
p5665
(lp5666
(S'0:04:44'
p5667
V1/3.464
p5668
tp5669
a(S'0:05:04'
p5670
V65/3.464
p5671
tp5672
a(S'0:11:03'
p5673
V65/3.464
p5674
tp5675
a(S'2:25:12'
p5676
V65^65/3.464
p5677
tp5678
a(S'2:25:18'
p5679
V65*65/3.464
p5680
tp5681
a(S'4:42:21'
p5682
V2.33
p5683
tp5684
asg9
g2638
sssV7
p5685
(dp5686
Vdruble
p5687
(dp5688
S'part5_correct_attempt'
p5689
(lp5690
S'0:03:13'
p5691
ag1789
asS'part7_incorrect_attempt'
p5692
(lp5693
(S'0:03:13'
p5694
VPhi((2 - 0) / (((1/12) * (0.5 + 0.5)^2 * 75)^(1/2)))
p5695
tp5696
asg9
g1795
sS'part7_correct_attempt'
p5697
(lp5698
S'0:05:13'
p5699
aV2 * Q((2-0) / ((1/12) * (0.5 + 0.5)^2 * 75)^(1/2))
p5700
asS'part6_correct_attempt'
p5701
(lp5702
S'0:03:13'
p5703
aVQ((2-0) / ((1/12) * (0.5 + 0.5)^2 * 75)^(1/2))
p5704
assVdlgoldbe
p5705
(dp5706
S'part5_correct_attempt'
p5707
(lp5708
S'0:05:27'
p5709
aV2/(sqrt((1/12)*((0.5+0.5)^2)*65))
p5710
asS'part7_incorrect_attempt'
p5711
(lp5712
(S'0:06:13'
p5713
VPhi(2/(sqrt((1/12)*((0.5+0.5)^2)*65)))
p5714
tp5715
a(S'0:07:47'
p5716
VQ(2/(sqrt((1/12)*((0.5+0.5)^2)*65)))+Phi(2/(sqrt((1/12)*((0.5+0.5)^2)*65)))
p5717
tp5718
a(S'0:08:17'
p5719
VQ(2/(sqrt((1/12)*((0.5+0.5)^2)*65)))*Phi(2/(sqrt((1/12)*((0.5+0.5)^2)*65)))
p5720
tp5721
a(S'0:13:03'
p5722
VQ(2/(sqrt((1/12)*((0.5+0.5)^2)*65)))+Q(-(2/(sqrt((1/12)*((0.5+0.5)^2)*65))))
p5723
tp5724
a(S'0:13:27'
p5725
VQ(2/(sqrt((1/12)*((0.5+0.5)^2)*65)))-Q((2/(sqrt((1/12)*((0.5+0.5)^2)*65))))
p5726
tp5727
asg9
g4995
sS'part7_correct_attempt'
p5728
(lp5729
S'0:13:41'
p5730
aVQ(2/(sqrt((1/12)*((0.5+0.5)^2)*65)))+Q((2/(sqrt((1/12)*((0.5+0.5)^2)*65))))
p5731
asS'part6_correct_attempt'
p5732
(lp5733
S'0:06:13'
p5734
aVQ(2/(sqrt((1/12)*((0.5+0.5)^2)*65)))
p5735
assVkew017
p5736
(dp5737
S'part5_correct_attempt'
p5738
(lp5739
S'0:30:25'
p5740
aV(4-0)/sqrt(1/12 * 80)
p5741
asS'part7_incorrect_attempt'
p5742
(lp5743
(S'0:32:17'
p5744
VQ((4-0)/sqrt(1/12 * 80))+(1-Q((4-0)/sqrt(1/12 * 80)))
p5745
tp5746
asg9
g1180
sS'part7_correct_attempt'
p5747
(lp5748
S'0:40:52'
p5749
aV2*(Q((4-0)/sqrt(1/12 * 80)))
p5750
asS'part6_correct_attempt'
p5751
(lp5752
S'0:31:39'
p5753
aVQ((4-0)/sqrt(1/12 * 80))
p5754
assVttimmons
p5755
(dp5756
S'part5_correct_attempt'
p5757
(lp5758
S'1 day, 0:53:53'
p5759
aV[3]/[sqrt((80/12)(0.5-(-0.5))^2)]
p5760
asS'part7_incorrect_attempt'
p5761
(lp5762
(S'1 day, 0:54:30'
p5763
VPhi([3]/[sqrt((80/12)(0.5-(-0.5))^2)])
p5764
tp5765
a(S'1 day, 1:13:21'
p5766
VPhi([3]/[sqrt((80/12)(0.5-(-0.5))^2)])
p5767
tp5768
asg9
g4638
sS'part7_correct_attempt'
p5769
(lp5770
S'1 day, 22:38:00'
p5771
aV2*Q([3]/[sqrt((80/12)(0.5-(-0.5))^2)])
p5772
asS'part6_correct_attempt'
p5773
(lp5774
S'1 day, 0:54:01'
p5775
aVQ([3]/[sqrt((80/12)(0.5-(-0.5))^2)])
p5776
assVb3hwang
p5777
(dp5778
S'part5_correct_attempt'
p5779
(lp5780
S'0:11:26'
p5781
aV(5-0)/2.41523
p5782
asS'part7_incorrect_attempt'
p5783
(lp5784
(S'0:12:25'
p5785
VQ(2.0702)
p5786
tp5787
a(S'0:12:38'
p5788
VPhi(2.0702)
p5789
tp5790
a(S'0:13:42'
p5791
V1-Q(2.0702)
p5792
tp5793
a(S'0:13:50'
p5794
V1-Phi(2.0702)
p5795
tp5796
asg9
g622
sS'part6_correct_attempt'
p5797
(lp5798
S'0:12:25'
p5799
aVQ(2.0702)
p5800
assVt2shin
p5801
(dp5802
S'part5_correct_attempt'
p5803
(lp5804
S'0:02:35'
p5805
aV4/sqrt(100(1/12)(.5+.5)^2)
p5806
asS'part7_incorrect_attempt'
p5807
(lp5808
(S'0:04:31'
p5809
VQ(9*4/sqrt(100(1/12)(.5+.5)^2))
p5810
tp5811
a(S'0:05:32'
p5812
VQ(1/sqrt(100(1/12)(.5+.5)^2))
p5813
tp5814
a(S'0:07:03'
p5815
VQ(Q(4/sqrt(100(1/12)(.5+.5)^2)))
p5816
tp5817
a(S'0:07:20'
p5818
VQ(4/sqrt(100(1/12)(.5+.5)^2))
p5819
tp5820
asg9
V2015-11-05 21:50:51
p5821
sS'part7_correct_attempt'
p5822
(lp5823
S'0:08:03'
p5824
aV2*Q(4/sqrt(100(1/12)(.5+.5)^2))
p5825
asS'part6_correct_attempt'
p5826
(lp5827
S'0:03:13'
p5828
aVQ(4/sqrt(100(1/12)(.5+.5)^2))
p5829
assVkebao
p5830
(dp5831
S'part5_correct_attempt'
p5832
(lp5833
S'0:01:09'
p5834
aV3/(1/sqrt(12)*sqrt(85))
p5835
asS'part7_incorrect_attempt'
p5836
(lp5837
(S'0:04:50'
p5838
VQ(3/(1/sqrt(12)*sqrt(85)))+2
p5839
tp5840
asg9
V2015-11-05 22:10:58
p5841
sS'part7_correct_attempt'
p5842
(lp5843
S'0:05:08'
p5844
aVQ(3/(1/sqrt(12)*sqrt(85)))*2
p5845
asS'part6_correct_attempt'
p5846
(lp5847
S'0:04:21'
p5848
aVQ(3/(1/sqrt(12)*sqrt(85)))
p5849
assVhkhodada
p5850
(dp5851
S'part5_correct_attempt'
p5852
(lp5853
S'2 days, 2:07:51'
p5854
ag1903
asS'part7_incorrect_attempt'
p5855
(lp5856
(S'2 days, 2:12:34'
p5857
VPhi(3/sqrt(50/12))
p5858
tp5859
asg9
g987
sS'part7_correct_attempt'
p5860
(lp5861
S'2 days, 2:34:25'
p5862
aV2*Q(3/sqrt(50/12))
p5863
asS'part6_correct_attempt'
p5864
(lp5865
S'2 days, 2:10:31'
p5866
aVQ(3/sqrt(50/12))
p5867
assVvasharma
p5868
(dp5869
S'part5_correct_attempt'
p5870
(lp5871
S'0:14:05'
p5872
aV0.7108
p5873
asS'part7_incorrect_attempt'
p5874
(lp5875
(S'0:14:36'
p5876
V1- 0.2386
p5877
tp5878
a(S'0:14:48'
p5879
V0.7614
p5880
tp5881
a(S'0:15:35'
p5882
V0.9224- 0.2386
p5883
tp5884
a(S'1:16:21'
p5885
V1-0.0776
p5886
tp5887
a(S'1:52:11'
p5888
V.7614 - 0.2386
p5889
tp5890
asg9
g5562
sS'part7_correct_attempt'
p5891
(lp5892
S'1:55:50'
p5893
aV2* 0.2386
p5894
asS'part6_correct_attempt'
p5895
(lp5896
S'0:14:27'
p5897
aV0.2386
p5898
assVfichoi
p5899
(dp5900
S'part5_correct_attempt'
p5901
(lp5902
S'1:41:44'
p5903
aV(5 - 0)/sqrt(1/12 * 80)
p5904
asS'part7_incorrect_attempt'
p5905
(lp5906
(S'1:42:27'
p5907
V1 - (1 - Phi((5 - 0)/sqrt(1/12 * 80)))
p5908
tp5909
a(S'1:43:04'
p5910
VPhi((5 - 0)/sqrt(1/12 * 80))
p5911
tp5912
a(S'1:49:34'
p5913
VPhi((5 - 0)/sqrt(1/12 * 80))
p5914
tp5915
asg9
g1344
sS'part6_correct_attempt'
p5916
(lp5917
S'1:42:27'
p5918
aV1 - Phi((5 - 0)/sqrt(1/12 * 80))
p5919
assVmasaro
p5920
(dp5921
S'part5_correct_attempt'
p5922
(lp5923
S'0:04:10'
p5924
ag1950
asS'part7_incorrect_attempt'
p5925
(lp5926
(S'1 day, 3:29:31'
p5927
V1-Phi(1.095)
p5928
tp5929
a(S'1 day, 3:29:51'
p5930
V1-Q(1.095)
p5931
tp5932
a(S'1 day, 3:30:18'
p5933
V1-Phi(1.095)
p5934
tp5935
asg9
g1371
sS'part7_correct_attempt'
p5936
(lp5937
S'1 day, 3:30:57'
p5938
aV2*(1-Phi(1.095))
p5939
asS'part6_correct_attempt'
p5940
(lp5941
S'0:08:33'
p5942
aV1-0.863242
p5943
assVmitopete
p5944
(dp5945
S'part5_correct_attempt'
p5946
(lp5947
S'2 days, 18:19:44'
p5948
aV3/((((1/12)*80)^(1/2)))
p5949
asS'part7_incorrect_attempt'
p5950
(lp5951
(S'2 days, 18:32:15'
p5952
VPhi(3/((((1/12)*80)^(1/2))))*2
p5953
tp5954
a(S'2 days, 18:32:40'
p5955
VPhi(3/((((1/12)*80)^(1/2))))
p5956
tp5957
a(S'2 days, 18:33:38'
p5958
V(Phi(3/((((1/12)*80)^(1/2)))))/2
p5959
tp5960
asg9
g532
sS'part7_correct_attempt'
p5961
(lp5962
S'2 days, 18:35:54'
p5963
aV(1-Phi(3/((((1/12)*80)^(1/2)))))*2
p5964
asS'part6_correct_attempt'
p5965
(lp5966
S'2 days, 18:31:56'
p5967
aV1-Phi(3/((((1/12)*80)^(1/2))))
p5968
assVsachadal
p5969
(dp5970
S'part5_correct_attempt'
p5971
(lp5972
S'1 day, 2:12:59'
p5973
ag1981
asS'part7_incorrect_attempt'
p5974
(lp5975
(S'1 day, 2:50:32'
p5976
VQ((4 - 0)/sqrt(75*(1/12)))
p5977
tp5978
asg9
g1050
sS'part7_correct_attempt'
p5979
(lp5980
S'1 day, 2:51:57'
p5981
aV2*(Q((4 - 0)/sqrt(75*(1/12))))
p5982
asS'part6_correct_attempt'
p5983
(lp5984
S'1 day, 2:49:57'
p5985
aVQ((4 - 0)/sqrt(75*(1/12)))
p5986
assVjhw015
p5987
(dp5988
S'part5_correct_attempt'
p5989
(lp5990
S'1 day, 20:40:37'
p5991
aV3/sqrt(60/12)
p5992
asS'part7_incorrect_attempt'
p5993
(lp5994
(S'1 day, 21:06:26'
p5995
V3(3/sqrt(60/12))
p5996
tp5997
asg9
V2015-11-04 21:42:40
p5998
sS'part7_correct_attempt'
p5999
(lp6000
S'1 day, 21:07:46'
p6001
aV2Q(3/sqrt(60/12))
p6002
asS'part6_correct_attempt'
p6003
(lp6004
S'1 day, 21:04:49'
p6005
aVQ(3/sqrt(60/12))
p6006
assVjyc018
p6007
(dp6008
S'part5_correct_attempt'
p6009
(lp6010
S'1 day, 22:53:42'
p6011
ag2125
asS'part7_incorrect_attempt'
p6012
(lp6013
(S'1 day, 22:55:52'
p6014
V.885
p6015
tp6016
asg9
g2134
sS'part7_correct_attempt'
p6017
(lp6018
S'1 day, 22:56:54'
p6019
aV2*(1-.885)
p6020
asS'part6_correct_attempt'
p6021
(lp6022
S'1 day, 22:55:52'
p6023
aV1-.885
p6024
assVpcdo
p6025
(dp6026
S'part5_correct_attempt'
p6027
(lp6028
S'0:00:52'
p6029
aV(2-0)/(1/sqrt(12)*sqrt(50))
p6030
asS'part7_incorrect_attempt'
p6031
(lp6032
(S'0:02:14'
p6033
V2*Q(2/1/sqrt(12)*sqrt(50))
p6034
tp6035
asg9
V2015-11-02 19:01:21
p6036
sS'part7_correct_attempt'
p6037
(lp6038
S'0:02:27'
p6039
aV2(Q(2/(1/sqrt(12)*sqrt(50))))
p6040
asS'part6_correct_attempt'
p6041
(lp6042
S'0:01:43'
p6043
aVQ(2/(1/sqrt(12)*sqrt(50)))
p6044
assVrraiyyan
p6045
(dp6046
S'part5_correct_attempt'
p6047
(lp6048
S'0:18:21'
p6049
ag2251
asS'part7_incorrect_attempt'
p6050
(lp6051
(S'0:18:47'
p6052
VPhi(5/sqrt(85/12))
p6053
tp6054
asg9
g2257
sS'part7_correct_attempt'
p6055
(lp6056
S'0:19:15'
p6057
aV2*Q(5/sqrt(85/12))
p6058
asS'part6_correct_attempt'
p6059
(lp6060
S'0:18:39'
p6061
aVQ(5/sqrt(85/12))
p6062
assVcrmirand
p6063
(dp6064
S'part5_correct_attempt'
p6065
(lp6066
S'0:03:30'
p6067
aV3/(45/12)^.5
p6068
asS'part7_incorrect_attempt'
p6069
(lp6070
(S'0:06:20'
p6071
V0.060668/2
p6072
tp6073
asg9
V2015-11-03 06:37:30
p6074
sS'part7_correct_attempt'
p6075
(lp6076
S'0:06:29'
p6077
aV0.060668*2
p6078
asS'part6_correct_attempt'
p6079
(lp6080
S'0:06:11'
p6081
aV0.060668
p6082
assVk5law
p6083
(dp6084
S'part5_correct_attempt'
p6085
(lp6086
S'1:24:15'
p6087
aV(5-0)/(1/sqrt(12)*sqrt(60))
p6088
asS'part7_incorrect_attempt'
p6089
(lp6090
(S'1:27:09'
p6091
VQ((5-0)/(1/sqrt(12)*sqrt(60)))
p6092
tp6093
asg9
g5119
sS'part7_correct_attempt'
p6094
(lp6095
S'1:27:32'
p6096
aV2*Q((5-0)/(1/sqrt(12)*sqrt(60)))
p6097
asS'part6_correct_attempt'
p6098
(lp6099
S'1:25:24'
p6100
aVQ((5-0)/(1/sqrt(12)*sqrt(60)))
p6101
assVv3doan
p6102
(dp6103
S'part5_correct_attempt'
p6104
(lp6105
S'1 day, 8:31:35'
p6106
ag2227
asS'part7_incorrect_attempt'
p6107
(lp6108
(S'1 day, 8:31:49'
p6109
VQ(2 / sqrt(85/12))
p6110
tp6111
asg9
g2233
sS'part7_correct_attempt'
p6112
(lp6113
S'1 day, 8:32:22'
p6114
aV2Q(2 / sqrt(85/12))
p6115
asS'part6_correct_attempt'
p6116
(lp6117
S'1 day, 8:31:49'
p6118
aVQ(2 / sqrt(85/12))
p6119
assVmbl003
p6120
(dp6121
S'part5_correct_attempt'
p6122
(lp6123
S'0:26:20'
p6124
ag2044
asS'part7_incorrect_attempt'
p6125
(lp6126
(S'0:28:21'
p6127
VQ(5/sqrt(80*(1/12)*(1)^2))
p6128
tp6129
asg9
g120
sS'part7_correct_attempt'
p6130
(lp6131
S'0:50:57'
p6132
aVPhi(-5/sqrt(80*(1/12)*(1)^2))+Q(5/sqrt(80*(1/12)*(1)^2))
p6133
asS'part6_correct_attempt'
p6134
(lp6135
S'0:26:45'
p6136
aVQ(5/sqrt(80*(1/12)*(1)^2))
p6137
assVpsable
p6138
(dp6139
S'part5_correct_attempt'
p6140
(lp6141
S'0:09:49'
p6142
aV1.46969
p6143
asS'part7_incorrect_attempt'
p6144
(lp6145
(S'0:11:55'
p6146
VPhi(1.46969)+Q(1.46969)
p6147
tp6148
a(S'0:12:12'
p6149
VPhi(1.46969)
p6150
tp6151
asg9
V2015-11-06 00:48:15
p6152
sS'part7_correct_attempt'
p6153
(lp6154
S'0:12:51'
p6155
aV2*Q(1.46969)
p6156
asS'part6_correct_attempt'
p6157
(lp6158
S'0:11:55'
p6159
aVQ(1.46969)
p6160
assVj5phung
p6161
(dp6162
S'part5_correct_attempt'
p6163
(lp6164
S'0:28:25'
p6165
aV3/(sqrt(80/12))
p6166
asS'part7_incorrect_attempt'
p6167
(lp6168
(S'0:42:37'
p6169
V1-6/80
p6170
tp6171
asg9
g136
sS'part7_correct_attempt'
p6172
(lp6173
S'0:46:27'
p6174
aV2*(1-[(1/2)+(1/2)erf((3/(sqrt(80/12)))/sqrt(2))])
p6175
asS'part6_correct_attempt'
p6176
(lp6177
S'0:31:39'
p6178
aV1-[(1/2)+(1/2)erf((3/(sqrt(80/12)))/sqrt(2))]
p6179
assVhsc052
p6180
(dp6181
S'part5_correct_attempt'
p6182
(lp6183
S'0:14:06'
p6184
ag2547
asS'part7_incorrect_attempt'
p6185
(lp6186
(S'0:14:06'
p6187
VPhi(4/[sqrt(70)*sqrt(1/12)])
p6188
tp6189
a(S'0:16:25'
p6190
VPhi(8/[sqrt(70)*sqrt(1/12)])*2
p6191
tp6192
a(S'0:16:36'
p6193
VPhi(0/[sqrt(70)*sqrt(1/12)])*2
p6194
tp6195
a(S'0:18:32'
p6196
VQ(8/[sqrt(70)*sqrt(1/12)]) + Phi(0)
p6197
tp6198
asg9
g900
sS'part7_correct_attempt'
p6199
(lp6200
S'0:20:17'
p6201
aVQ(4/[sqrt(70)*sqrt(1/12)])*2
p6202
asS'part6_correct_attempt'
p6203
(lp6204
S'0:14:06'
p6205
aVQ(4/[sqrt(70)*sqrt(1/12)])
p6206
assVh4tu
p6207
(dp6208
S'part5_correct_attempt'
p6209
(lp6210
S'0:25:50'
p6211
aV(2-0)/sqrt( 75/12)
p6212
asS'part7_incorrect_attempt'
p6213
(lp6214
(S'0:27:27'
p6215
V(2-0)/sqrt( 75/12)
p6216
tp6217
a(S'0:27:40'
p6218
VPhi((2-0)/sqrt( 75/12))
p6219
tp6220
asg9
g954
sS'part7_correct_attempt'
p6221
(lp6222
S'0:32:18'
p6223
aV(1-Phi((2-0)/sqrt( 75/12)))*2
p6224
asS'part6_correct_attempt'
p6225
(lp6226
S'0:26:59'
p6227
aV1-Phi((2-0)/sqrt( 75/12))
p6228
assVj6quach
p6229
(dp6230
S'part5_correct_attempt'
p6231
(lp6232
S'4:31:38'
p6233
ag2090
asS'part7_incorrect_attempt'
p6234
(lp6235
(S'4:37:18'
p6236
VPhi(4/sqrt(100/12))
p6237
tp6238
a(S'4:40:46'
p6239
VPhi(-4/sqrt(100/12))
p6240
tp6241
asg9
g2096
sS'part7_correct_attempt'
p6242
(lp6243
S'4:40:56'
p6244
aV2*Phi(-4/sqrt(100/12))
p6245
asS'part6_correct_attempt'
p6246
(lp6247
S'4:31:38'
p6248
aV1 - Phi(4/sqrt(100/12))
p6249
assVhaw081
p6250
(dp6251
S'part5_correct_attempt'
p6252
(lp6253
S'1 day, 23:08:23'
p6254
ag1801
asS'part7_incorrect_attempt'
p6255
(lp6256
(S'1 day, 23:11:45'
p6257
VPhi(3/sqrt(5))
p6258
tp6259
a(S'1 day, 23:11:52'
p6260
VQ(3/sqrt(5))
p6261
tp6262
asg9
g1807
sS'part7_correct_attempt'
p6263
(lp6264
S'1 day, 23:14:48'
p6265
aV2*Q(3/sqrt(5))
p6266
asS'part6_correct_attempt'
p6267
(lp6268
S'1 day, 23:11:29'
p6269
aV1-Phi(3/sqrt(5))
p6270
assVc3chung
p6271
(dp6272
S'part5_correct_attempt'
p6273
(lp6274
S'0:03:33'
p6275
aV3/2.81366
p6276
asg9
g1689
sS'part7_incorrect_attempt'
p6277
(lp6278
(S'0:04:48'
p6279
V0.8577
p6280
tp6281
a(S'0:04:58'
p6282
V1-0.8577
p6283
tp6284
assVjhc010
p6285
(dp6286
S'part5_correct_attempt'
p6287
(lp6288
S'0:04:35'
p6289
ag2151
asS'part7_incorrect_attempt'
p6290
(lp6291
(S'0:05:43'
p6292
VPhi((3-0)/sqrt(55*(sqrt(1/12)^2)))
p6293
tp6294
asg9
g2157
sS'part7_correct_attempt'
p6295
(lp6296
S'0:06:35'
p6297
aVQ((3-0)/sqrt(55*(sqrt(1/12)^2)))*2
p6298
asS'part6_correct_attempt'
p6299
(lp6300
S'0:04:57'
p6301
aVQ((3-0)/sqrt(55*(sqrt(1/12)^2)))
p6302
assVjblynch
p6303
(dp6304
S'part5_correct_attempt'
p6305
(lp6306
S'8:35:43'
p6307
aV(5 - 0)/sqrt(75(1/12))
p6308
asS'part7_incorrect_attempt'
p6309
(lp6310
(S'9:04:03'
p6311
V0.02275
p6312
tp6313
asg9
g1129
sS'part7_correct_attempt'
p6314
(lp6315
S'9:04:14'
p6316
aV2*0.02275
p6317
asS'part6_correct_attempt'
p6318
(lp6319
S'9:04:03'
p6320
aV0.02275
p6321
assVzhw110
p6322
(dp6323
S'part5_correct_attempt'
p6324
(lp6325
S'0:59:09'
p6326
aV5/((85/12)^0.5)
p6327
asS'part7_incorrect_attempt'
p6328
(lp6329
(S'0:59:51'
p6330
VPhi(5/((85/12)^0.5))
p6331
tp6332
asg9
g1713
sS'part7_correct_attempt'
p6333
(lp6334
S'1:02:08'
p6335
aV2Q(5/((85/12)^0.5))
p6336
asS'part6_correct_attempt'
p6337
(lp6338
S'0:59:51'
p6339
aVQ(5/((85/12)^0.5))
p6340
assVavasavad
p6341
(dp6342
g9
V2015-11-04 23:32:19
p6343
sS'part7_incorrect_attempt'
p6344
(lp6345
(S'0:00:00'
p6346
VPhi(3)
p6347
tp6348
assVk4ma
p6349
(dp6350
S'part5_correct_attempt'
p6351
(lp6352
S'0:16:41'
p6353
aV2/sqrt(1/12*50)
p6354
asS'part7_incorrect_attempt'
p6355
(lp6356
(S'0:21:06'
p6357
V[1-Phi(2/sqrt(1/12*50))]*[1-Phi(-2/sqrt(1/12*50))]
p6358
tp6359
a(S'0:21:29'
p6360
V[1-Phi(2/sqrt(1/12*50))]+[1-Phi(-2/sqrt(1/12*50))]
p6361
tp6362
asg9
V2015-11-06 21:42:17
p6363
sS'part7_correct_attempt'
p6364
(lp6365
S'0:22:06'
p6366
aV[1-Phi(2/sqrt(1/12*50))]*2
p6367
asS'part6_correct_attempt'
p6368
(lp6369
S'0:17:04'
p6370
aV1-Phi(2/sqrt(1/12*50))
p6371
assVachinn
p6372
(dp6373
S'part5_correct_attempt'
p6374
(lp6375
S'0:06:09'
p6376
aV4/sqrt(40*1/12)
p6377
asS'part7_incorrect_attempt'
p6378
(lp6379
(S'10:23:53'
p6380
VQ(0.0286)
p6381
tp6382
a(S'10:24:09'
p6383
VQ(4/sqrt(40*1/12)*2)
p6384
tp6385
a(S'10:24:25'
p6386
VQ(8/sqrt(40*1/12))
p6387
tp6388
asg9
g1501
sS'part7_correct_attempt'
p6389
(lp6390
S'10:24:34'
p6391
aV2*Q(4/sqrt(40*1/12))
p6392
asS'part6_correct_attempt'
p6393
(lp6394
S'10:23:53'
p6395
aVQ(4/sqrt(40*1/12))
p6396
assVjap009
p6397
(dp6398
S'part5_correct_attempt'
p6399
(lp6400
S'0:06:49'
p6401
aV4/((80/12)^(1/2))
p6402
asS'part7_incorrect_attempt'
p6403
(lp6404
(S'0:07:18'
p6405
VQ(4/(4/((80/12)^(1/2))))
p6406
tp6407
a(S'0:07:41'
p6408
VQ(4/((80/12)^(1/2)))
p6409
tp6410
asg9
g1513
sS'part7_correct_attempt'
p6411
(lp6412
S'0:08:19'
p6413
aV2*Q(4/((80/12)^(1/2)))
p6414
asS'part6_correct_attempt'
p6415
(lp6416
S'0:06:49'
p6417
aVQ((4/((80/12)^(1/2))))
p6418
assVtol003
p6419
(dp6420
S'part5_correct_attempt'
p6421
(lp6422
S'0:08:46'
p6423
aV3/2.88675
p6424
asS'part7_incorrect_attempt'
p6425
(lp6426
(S'0:31:47'
p6427
V1-[Phi(6/2.88675)-Phi(3/2.88675)]
p6428
tp6429
a(S'0:34:55'
p6430
V1+Phi(3/2.88675)-(1-Phi(6/2.88675))
p6431
tp6432
asg9
V2015-11-03 22:54:19
p6433
sS'part7_correct_attempt'
p6434
(lp6435
S'0:38:26'
p6436
aV2*(1-Phi(3/2.88675))
p6437
asS'part6_correct_attempt'
p6438
(lp6439
S'0:12:31'
p6440
aV1-Phi(3/2.88675)
p6441
assVdgunawan
p6442
(dp6443
S'part5_correct_attempt'
p6444
(lp6445
S'15:34:04'
p6446
ag1939
asS'part7_incorrect_attempt'
p6447
(lp6448
(S'15:57:05'
p6449
VPhi([5-((-.5+.5)/2 *85)]/[(85/12)^(1/2)])
p6450
tp6451
asg9
g373
sS'part6_correct_attempt'
p6452
(lp6453
S'15:56:48'
p6454
aV1-Phi([5-((-.5+.5)/2 *85)]/[(85/12)^(1/2)])
p6455
assVskodigal
p6456
(dp6457
S'part5_correct_attempt'
p6458
(lp6459
S'1:01:54'
p6460
aV(4- 75 * (-.5+.5)/2)/sqrt(75 * (1/12 *(.5+.5)^2))
p6461
asS'part7_incorrect_attempt'
p6462
(lp6463
(S'1:04:37'
p6464
VPhi(1.6)
p6465
tp6466
asg9
g4747
sS'part7_correct_attempt'
p6467
(lp6468
S'1:08:32'
p6469
aV2*Q(1.6)
p6470
asS'part6_correct_attempt'
p6471
(lp6472
S'1:02:49'
p6473
aVQ(1.6)
p6474
assVaakumar
p6475
(dp6476
S'part5_correct_attempt'
p6477
(lp6478
S'0:52:27'
p6479
aV1.5492
p6480
asS'part7_incorrect_attempt'
p6481
(lp6482
(S'0:56:07'
p6483
V1-Q(1.5492)
p6484
tp6485
asg9
g1153
sS'part7_correct_attempt'
p6486
(lp6487
S'0:56:23'
p6488
aV0.0606668*2
p6489
asS'part6_correct_attempt'
p6490
(lp6491
S'0:55:48'
p6492
aV1-Phi(1.5492)
p6493
assVhachrist
p6494
(dp6495
S'part5_correct_attempt'
p6496
(lp6497
S'0:02:41'
p6498
aV2/sqrt(40/12)
p6499
asS'part7_incorrect_attempt'
p6500
(lp6501
(S'0:03:15'
p6502
V1-(1- Phi(2/sqrt(40/12)))
p6503
tp6504
asg9
g1168
sS'part7_correct_attempt'
p6505
(lp6506
S'8:57:53'
p6507
aV(1- Phi(2/sqrt(40/12)))*2
p6508
asS'part6_correct_attempt'
p6509
(lp6510
S'0:02:56'
p6511
aV1- Phi(2/sqrt(40/12))
p6512
assVjdeon
p6513
(dp6514
S'part5_correct_attempt'
p6515
(lp6516
S'17:52:23'
p6517
aV(3)/(90*(1/12))^(.5)
p6518
asS'part7_incorrect_attempt'
p6519
(lp6520
(S'17:54:05'
p6521
VQ((3)/(90*(1/12))^(.5)) + Phi((3)/(90*(1/12))^(.5))
p6522
tp6523
a(S'17:55:13'
p6524
V1 - Q((3)/(90*(1/12))^(.5)) * Phi((3)/(90*(1/12))^(.5))
p6525
tp6526
a(S'17:56:06'
p6527
V(1 - Q((3)/(90*(1/12))^(.5))) *(1 - Phi((3)/(90*(1/12))^(.5)))
p6528
tp6529
a(S'17:56:37'
p6530
V1 - (1 - Q((3)/(90*(1/12))^(.5))) *(1 - Phi((3)/(90*(1/12))^(.5)))
p6531
tp6532
a(S'17:57:02'
p6533
VPhi((3)/(90*(1/12))^(.5))
p6534
tp6535
asg9
g5366
sS'part7_correct_attempt'
p6536
(lp6537
S'17:57:32'
p6538
aV2*Q((3)/(90*(1/12))^(.5))
p6539
asS'part6_correct_attempt'
p6540
(lp6541
S'17:53:16'
p6542
aVQ((3)/(90*(1/12))^(.5))
p6543
assVdsmonaha
p6544
(dp6545
S'part5_correct_attempt'
p6546
(lp6547
S'0:25:30'
p6548
aV5/2.5
p6549
asS'part7_incorrect_attempt'
p6550
(lp6551
(S'2 days, 2:56:32'
p6552
VPhi(5/2.5)
p6553
tp6554
asg9
g736
sS'part7_correct_attempt'
p6555
(lp6556
S'2 days, 2:58:36'
p6557
aV2(1-Phi(5/2.5))
p6558
asS'part6_correct_attempt'
p6559
(lp6560
S'2 days, 2:56:18'
p6561
aV(1-Phi(5/2.5))
p6562
assVtcn013
p6563
(dp6564
S'part5_correct_attempt'
p6565
(lp6566
S'0:07:16'
p6567
aV5/sqrt(45/12)
p6568
asS'part7_incorrect_attempt'
p6569
(lp6570
(S'0:07:43'
p6571
VPhi(2.58199)
p6572
tp6573
asg9
g409
sS'part7_correct_attempt'
p6574
(lp6575
S'0:09:07'
p6576
aV2*Q(2.58199)
p6577
asS'part6_correct_attempt'
p6578
(lp6579
S'0:07:43'
p6580
aVQ(2.58199)
p6581
assVyeh013
p6582
(dp6583
S'part5_correct_attempt'
p6584
(lp6585
S'4:02:42'
p6586
aV4/(90/12)^(1/2)
p6587
asS'part7_incorrect_attempt'
p6588
(lp6589
(S'4:03:14'
p6590
VPhi(4/(90/12)^(1/2))
p6591
tp6592
a(S'4:05:26'
p6593
V1-0.0720635
p6594
tp6595
asg9
g1195
sS'part7_correct_attempt'
p6596
(lp6597
S'4:06:35'
p6598
aV2*(1-Phi(4/(90/12)^(1/2)))
p6599
asS'part6_correct_attempt'
p6600
(lp6601
S'4:03:04'
p6602
aV1-Phi(4/(90/12)^(1/2))
p6603
assVjtfrankl
p6604
(dp6605
S'part5_correct_attempt'
p6606
(lp6607
S'0:06:10'
p6608
aV3/sqrt(80/12)
p6609
asS'part7_incorrect_attempt'
p6610
(lp6611
(S'0:06:23'
p6612
VQ(3/sqrt(80/12))
p6613
tp6614
asg9
g808
sS'part7_correct_attempt'
p6615
(lp6616
S'0:06:47'
p6617
aV2Q(3/sqrt(80/12))
p6618
asS'part6_correct_attempt'
p6619
(lp6620
S'0:06:23'
p6621
aVQ(3/sqrt(80/12))
p6622
assVtcuddy
p6623
(dp6624
S'part5_correct_attempt'
p6625
(lp6626
S'0:27:58'
p6627
aV2/((45(1/12))**.5)
p6628
asS'part7_incorrect_attempt'
p6629
(lp6630
(S'0:29:52'
p6631
VPhi(2/((45(1/12))**.5))
p6632
tp6633
asg9
g442
sS'part7_correct_attempt'
p6634
(lp6635
S'0:51:36'
p6636
aV2* Q(2/((45(1/12))**.5) )
p6637
asS'part6_correct_attempt'
p6638
(lp6639
S'0:29:43'
p6640
aVQ(2/((45(1/12))**.5) )
p6641
assVcagatep
p6642
(dp6643
S'part5_correct_attempt'
p6644
(lp6645
S'1 day, 11:58:04'
p6646
aV4/sqrt(90/12)
p6647
asS'part7_incorrect_attempt'
p6648
(lp6649
(S'1 day, 11:59:38'
p6650
VQ(4/sqrt(90/12))
p6651
tp6652
asg9
g1275
sS'part7_correct_attempt'
p6653
(lp6654
S'1 day, 11:59:57'
p6655
aVQ(4/sqrt(90/12)) * 2
p6656
asS'part6_correct_attempt'
p6657
(lp6658
S'1 day, 11:59:38'
p6659
aVQ(4/sqrt(90/12))
p6660
assVakg009
p6661
(dp6662
S'part5_correct_attempt'
p6663
(lp6664
S'0:12:27'
p6665
aV4/sqrt(30)
p6666
asS'part7_incorrect_attempt'
p6667
(lp6668
(S'0:51:00'
p6669
VQ(4/sqrt(30))
p6670
tp6671
asg9
g595
sS'part7_correct_attempt'
p6672
(lp6673
S'0:51:24'
p6674
aV2*Q(4/sqrt(30))
p6675
asS'part6_correct_attempt'
p6676
(lp6677
S'0:51:00'
p6678
aVQ(4/sqrt(30))
p6679
assVmcatozzi
p6680
(dp6681
S'part5_correct_attempt'
p6682
(lp6683
S'0:19:13'
p6684
aV4/2.14087
p6685
asS'part7_incorrect_attempt'
p6686
(lp6687
(S'2:36:20'
p6688
VPhi(4/2.14087)
p6689
tp6690
asg9
g1557
sS'part7_correct_attempt'
p6691
(lp6692
S'2:46:32'
p6693
aV2*(1 - Phi(4/2.14087))
p6694
asS'part6_correct_attempt'
p6695
(lp6696
S'2:22:32'
p6697
aV1 - Phi(4/2.14087)
p6698
assVaadhakal
p6699
(dp6700
S'part5_correct_attempt'
p6701
(lp6702
S'0:01:12'
p6703
ag2371
asS'part7_incorrect_attempt'
p6704
(lp6705
(S'0:01:12'
p6706
VQ(3/(sqrt(100)/sqrt(12)))
p6707
tp6708
asg9
g2377
sS'part7_correct_attempt'
p6709
(lp6710
S'0:01:29'
p6711
aVQ(3/(sqrt(100)/sqrt(12)))*2
p6712
asS'part6_correct_attempt'
p6713
(lp6714
S'0:01:12'
p6715
aVQ(3/(sqrt(100)/sqrt(12)))
p6716
assVw4shin
p6717
(dp6718
S'part5_correct_attempt'
p6719
(lp6720
S'0:03:46'
p6721
aV3/sqrt(80/12)
p6722
asS'part7_incorrect_attempt'
p6723
(lp6724
(S'0:04:20'
p6725
VPhi(3/sqrt(80/12))
p6726
tp6727
asg9
g760
sS'part7_correct_attempt'
p6728
(lp6729
S'0:04:33'
p6730
aV2*(1-Phi(3/sqrt(80/12)))
p6731
asS'part6_correct_attempt'
p6732
(lp6733
S'0:04:20'
p6734
aV1-Phi(3/sqrt(80/12))
p6735
assVsayao
p6736
(dp6737
S'part5_correct_attempt'
p6738
(lp6739
S'1 day, 22:10:53'
p6740
aV(4-0)/sqrt(70(1/12))
p6741
asS'part7_incorrect_attempt'
p6742
(lp6743
(S'1 day, 22:11:22'
p6744
VPhi((4-0)/sqrt(70(1/12)))
p6745
tp6746
asg9
g496
sS'part7_correct_attempt'
p6747
(lp6748
S'1 day, 22:16:21'
p6749
aV2*Q((4-0)/sqrt(70(1/12)))
p6750
asS'part6_correct_attempt'
p6751
(lp6752
S'1 day, 22:11:14'
p6753
aVQ((4-0)/sqrt(70(1/12)))
p6754
assVpnquach
p6755
(dp6756
S'part5_correct_attempt'
p6757
(lp6758
S'0:05:13'
p6759
ag2423
asS'part7_incorrect_attempt'
p6760
(lp6761
(S'0:05:13'
p6762
VPhi((4)/(sqrt(1/12*(1)^2*65)))
p6763
tp6764
asg9
g2429
sS'part7_correct_attempt'
p6765
(lp6766
S'0:09:57'
p6767
aVQ((4)/(sqrt(1/12*(1)^2*65)))*2
p6768
asS'part6_correct_attempt'
p6769
(lp6770
S'0:05:13'
p6771
aVQ((4)/(sqrt(1/12*(1)^2*65)))
p6772
assVsmohiman
p6773
(dp6774
S'part5_correct_attempt'
p6775
(lp6776
S'0:10:20'
p6777
ag2435
asS'part7_incorrect_attempt'
p6778
(lp6779
(S'0:16:38'
p6780
VPhi(1/(5*(1/12)^(1/2)))
p6781
tp6782
asg9
g784
sS'part7_correct_attempt'
p6783
(lp6784
S'0:47:55'
p6785
aV2-2Phi(1/(5*(1/12)^(1/2)))
p6786
asS'part6_correct_attempt'
p6787
(lp6788
S'0:16:11'
p6789
aV1-Phi(1/(5*(1/12)^(1/2)))
p6790
assVacs008
p6791
(dp6792
S'part5_correct_attempt'
p6793
(lp6794
S'0:04:22'
p6795
ag2446
asS'part7_incorrect_attempt'
p6796
(lp6797
(S'0:05:16'
p6798
V1-Q(1.42164)
p6799
tp6800
a(S'0:05:46'
p6801
VQ(1.42164)*sqrt(1/12*95)
p6802
tp6803
a(S'0:07:26'
p6804
V1-Q(1.42164)
p6805
tp6806
a(S'0:08:48'
p6807
VQ(4/sqrt(1/12*91))*Q(4/sqrt(1/12*99))
p6808
tp6809
asg9
g1569
sS'part7_correct_attempt'
p6810
(lp6811
S'0:09:19'
p6812
aV2*Q(1.42164)
p6813
asS'part6_correct_attempt'
p6814
(lp6815
S'0:05:07'
p6816
aVQ(1.42164)
p6817
assVasp025
p6818
(dp6819
S'part5_correct_attempt'
p6820
(lp6821
S'0:15:57'
p6822
aV(3-0)/[85(.5+.5)^2/12]^(1/2)
p6823
asS'part7_incorrect_attempt'
p6824
(lp6825
(S'0:17:00'
p6826
VPhi((3-0)/[85(.5+.5)^2/12]^(1/2))
p6827
tp6828
asg9
g3351
sS'part7_correct_attempt'
p6829
(lp6830
S'0:50:51'
p6831
aV2(1-Phi((3-0)/[85(.5+.5)^2/12]^(1/2)))
p6832
asS'part6_correct_attempt'
p6833
(lp6834
S'0:16:15'
p6835
aV1-Phi((3-0)/[85(.5+.5)^2/12]^(1/2))
p6836
assVjguanzho
p6837
(dp6838
S'part5_correct_attempt'
p6839
(lp6840
S'4:55:54'
p6841
aV4 / ((80/12)**0.5)
p6842
asS'part7_incorrect_attempt'
p6843
(lp6844
(S'4:55:54'
p6845
VPhi(4 / ((80/12)**0.5))
p6846
tp6847
asg9
g234
sS'part7_correct_attempt'
p6848
(lp6849
S'5:02:40'
p6850
aV2*Q(4 / ((80/12)**0.5))
p6851
asS'part6_correct_attempt'
p6852
(lp6853
S'4:55:54'
p6854
aVQ(4 / ((80/12)**0.5))
p6855
assVflhernan
p6856
(dp6857
S'part5_correct_attempt'
p6858
(lp6859
S'0:08:10'
p6860
aV5/sqrt((1/12)*80)
p6861
asS'part7_incorrect_attempt'
p6862
(lp6863
(S'1 day, 22:21:03'
p6864
V(1-0.97360)*0.97360
p6865
tp6866
a(S'2 days, 16:32:10'
p6867
V(1-0.97360)*0.97360
p6868
tp6869
asg9
g3394
sS'part7_correct_attempt'
p6870
(lp6871
S'2 days, 16:38:13'
p6872
aV(1-0.97360)*2
p6873
asS'part6_correct_attempt'
p6874
(lp6875
S'1 day, 22:08:03'
p6876
aV1-0.97360
p6877
assVsthapa
p6878
(dp6879
S'part5_correct_attempt'
p6880
(lp6881
S'0:01:20'
p6882
aV5/(sqrt(100)/sqrt(12))
p6883
asS'part7_incorrect_attempt'
p6884
(lp6885
(S'0:01:52'
p6886
VQ(5/(sqrt(100)/sqrt(12)))
p6887
tp6888
asg9
V2015-11-07 00:07:09
p6889
sS'part7_correct_attempt'
p6890
(lp6891
S'0:02:33'
p6892
aVQ(5/(sqrt(100)/sqrt(12)))*2
p6893
asS'part6_correct_attempt'
p6894
(lp6895
S'0:01:52'
p6896
aVQ(5/(sqrt(100)/sqrt(12)))
p6897
assVdan029
p6898
(dp6899
S'part5_correct_attempt'
p6900
(lp6901
S'0:27:02'
p6902
aV4/sqrt(60/12)
p6903
asS'part7_incorrect_attempt'
p6904
(lp6905
(S'0:28:01'
p6906
VQ(4/sqrt(60/12))
p6907
tp6908
asg9
g835
sS'part7_correct_attempt'
p6909
(lp6910
S'0:28:18'
p6911
aV2*Q(4/sqrt(60/12))
p6912
asS'part6_correct_attempt'
p6913
(lp6914
S'0:27:30'
p6915
aVQ(4/sqrt(60/12))
p6916
assVz2tan
p6917
(dp6918
S'part5_correct_attempt'
p6919
(lp6920
S'0:02:33'
p6921
aV5/(60/12)^0.5
p6922
asS'part7_incorrect_attempt'
p6923
(lp6924
(S'0:03:24'
p6925
VPhi(5/(60/12)^0.5)
p6926
tp6927
a(S'0:05:25'
p6928
V1-(1-Phi(5/(60/12)^0.5))*2
p6929
tp6930
a(S'0:06:22'
p6931
VPhi(5/(60/12)^0.5)
p6932
tp6933
a(S'0:07:02'
p6934
VPhi(5/(60/12)^0.5)*2
p6935
tp6936
a(S'0:07:22'
p6937
VPhi(5/(60/12)^0.5)
p6938
tp6939
asg9
V2015-11-02 06:14:19
p6940
sS'part7_correct_attempt'
p6941
(lp6942
S'0:09:42'
p6943
aV2*(1-Phi(5/(60/12)^0.5))
p6944
asS'part6_correct_attempt'
p6945
(lp6946
S'0:03:08'
p6947
aV1-Phi(5/(60/12)^0.5)
p6948
assVralhadda
p6949
(dp6950
g9
g843
sS'part7_incorrect_attempt'
p6951
(lp6952
(S'3:29:16'
p6953
V1/12
p6954
tp6955
a(S'3:33:00'
p6956
V65/12
p6957
tp6958
assVyig015
p6959
(dp6960
S'part5_correct_attempt'
p6961
(lp6962
S'1 day, 1:55:34'
p6963
ag2201
asS'part7_incorrect_attempt'
p6964
(lp6965
(S'1 day, 1:57:44'
p6966
V1-Q(1.28901)
p6967
tp6968
asg9
g1617
sS'part7_correct_attempt'
p6969
(lp6970
S'1 day, 1:58:35'
p6971
aV2*Q(1.28901)
p6972
asS'part6_correct_attempt'
p6973
(lp6974
S'1 day, 1:57:44'
p6975
aVQ(1.28901)
p6976
assVm4salaza
p6977
(dp6978
S'part5_correct_attempt'
p6979
(lp6980
S'0:04:46'
p6981
aV4/(1/sqrt(12)*sqrt(50))
p6982
asS'part7_incorrect_attempt'
p6983
(lp6984
(S'0:08:16'
p6985
VPhi(4/(1/sqrt(12)*sqrt(50)))
p6986
tp6987
asg9
g556
sS'part7_correct_attempt'
p6988
(lp6989
S'0:08:48'
p6990
aV2*Q(4/(1/sqrt(12)*sqrt(50)))
p6991
asS'part6_correct_attempt'
p6992
(lp6993
S'0:06:35'
p6994
aVQ(4/(1/sqrt(12)*sqrt(50)))
p6995
assVkgrozav
p6996
(dp6997
S'part5_correct_attempt'
p6998
(lp6999
S'10:52:00'
p7000
aV0.8944275
p7001
asS'part7_incorrect_attempt'
p7002
(lp7003
(S'10:59:20'
p7004
VQ(2 *0.8944275)
p7005
tp7006
a(S'10:59:43'
p7007
VQ(0.8944275)
p7008
tp7009
a(S'11:01:46'
p7010
V1-Q(0.8944275)
p7011
tp7012
a(S'11:03:28'
p7013
V1 - Phi(0.8944275)
p7014
tp7015
a(S'11:03:37'
p7016
VPhi(0.8944275)
p7017
tp7018
asg9
g1737
sS'part7_correct_attempt'
p7019
(lp7020
S'11:14:09'
p7021
aV2*Q(0.8944275)
p7022
asS'part6_correct_attempt'
p7023
(lp7024
S'10:58:44'
p7025
aVQ(0.8944275)
p7026
assVazkong
p7027
(dp7028
S'part5_correct_attempt'
p7029
(lp7030
S'0:07:33'
p7031
aV4/sqrt(85/12)
p7032
asS'part7_incorrect_attempt'
p7033
(lp7034
(S'0:08:58'
p7035
VPhi((4/sqrt(85/12)))
p7036
tp7037
asg9
V2015-11-06 20:13:02
p7038
sS'part7_correct_attempt'
p7039
(lp7040
S'0:09:31'
p7041
aV2*Q(4/sqrt(85/12))
p7042
asS'part6_correct_attempt'
p7043
(lp7044
S'0:08:31'
p7045
aVQ(4/sqrt(85/12))
p7046
assVyypan
p7047
(dp7048
S'part5_correct_attempt'
p7049
(lp7050
S'0:02:40'
p7051
aV(2-(-.5+.5)/2)/sqrt(1/12*(.5+.5)^2*45)
p7052
asS'part7_incorrect_attempt'
p7053
(lp7054
(S'0:05:28'
p7055
VPhi(2)
p7056
tp7057
a(S'0:05:39'
p7058
VQ(2)
p7059
tp7060
a(S'0:05:53'
p7061
V1-Phi(2)
p7062
tp7063
a(S'0:09:35'
p7064
VQ((2-(-.5+.5)/2)/sqrt(1/12*(.5+.5)^2*45))
p7065
tp7066
a(S'0:09:55'
p7067
VPhi((2-(-.5+.5)/2)/sqrt(1/12*(.5+.5)^2*45))
p7068
tp7069
asg9
g5582
sS'part7_correct_attempt'
p7070
(lp7071
S'0:13:20'
p7072
aV2*Q((2-(-.5+.5)/2)/sqrt(1/12*(.5+.5)^2*45))
p7073
asS'part6_correct_attempt'
p7074
(lp7075
S'0:03:25'
p7076
aV1-(0.5+0.5*erf((2-(-.5+.5)/2)/sqrt(1/12*(.5+.5)^2*45)/sqrt(2)))
p7077
assVxil109
p7078
(dp7079
S'part5_correct_attempt'
p7080
(lp7081
S'0:02:48'
p7082
aV4/sqrt(50/12)
p7083
asS'part7_incorrect_attempt'
p7084
(lp7085
(S'0:05:31'
p7086
V1-0.0250219-0.974978
p7087
tp7088
a(S'0:06:57'
p7089
V1-(0.0250219-0.974978)
p7090
tp7091
asg9
g912
sS'part7_correct_attempt'
p7092
(lp7093
S'0:07:27'
p7094
aV1-(0.974978-0.0250219)
p7095
asS'part6_correct_attempt'
p7096
(lp7097
S'0:04:37'
p7098
aV0.0250219
p7099
assVccn001
p7100
(dp7101
S'part5_correct_attempt'
p7102
(lp7103
S'14:55:08'
p7104
ag1824
asS'part7_incorrect_attempt'
p7105
(lp7106
(S'14:55:08'
p7107
VQ(2/((45/12)^(0.5)))+Phi(2/((1/12)^(0.5)(45)))
p7108
tp7109
asg9
g1842
sS'part7_correct_attempt'
p7110
(lp7111
S'14:55:52'
p7112
aV2*Q(2/((45/12)^(0.5)))
p7113
asS'part6_correct_attempt'
p7114
(lp7115
S'14:55:08'
p7116
aVQ(2/((45/12)^(0.5)))
p7117
assVk3tan
p7118
(dp7119
S'part5_correct_attempt'
p7120
(lp7121
S'2 days, 2:04:28'
p7122
ag2644
asg9
g2650
sS'part7_incorrect_attempt'
p7123
(lp7124
(S'2 days, 2:09:13'
p7125
V0.5-0.4842
p7126
tp7127
a(S'2 days, 2:09:20'
p7128
V0.4842
p7129
tp7130
a(S'2 days, 2:09:56'
p7131
V0.5-0.4842
p7132
tp7133
assVtpmach
p7134
(dp7135
S'part5_correct_attempt'
p7136
(lp7137
S'19:16:40'
p7138
aV5/sqrt(40*1/12(0.5+0.5)^2)
p7139
asS'part7_incorrect_attempt'
p7140
(lp7141
(S'19:18:16'
p7142
V(5/sqrt(40*1/12(0.5+0.5)^2))-(1-Phi(5/sqrt(40*1/12(0.5+0.5)^2)))
p7143
tp7144
a(S'19:18:58'
p7145
V(5/sqrt(40*1/12(0.5+0.5)^2))+(1-Phi(5/sqrt(40*1/12(0.5+0.5)^2)))
p7146
tp7147
a(S'19:19:33'
p7148
V2*5/sqrt(40*1/12(0.5+0.5)^2)
p7149
tp7150
asg9
g3799
sS'part7_correct_attempt'
p7151
(lp7152
S'19:19:50'
p7153
aV2*(1-Phi(5/sqrt(40*1/12(0.5+0.5)^2)))
p7154
asS'part6_correct_attempt'
p7155
(lp7156
S'19:17:06'
p7157
aV1-Phi(5/sqrt(40*1/12(0.5+0.5)^2))
p7158
assVsmall
p7159
(dp7160
S'part5_correct_attempt'
p7161
(lp7162
S'0:04:19'
p7163
ag2345
asg9
g2351
sS'part7_incorrect_attempt'
p7164
(lp7165
(S'0:07:07'
p7166
V5/(sqrt(50*1/12))
p7167
tp7168
assVggaddi
p7169
(dp7170
S'part5_correct_attempt'
p7171
(lp7172
S'12:16:32'
p7173
aV3/(sqrt(75/12))
p7174
asS'part7_incorrect_attempt'
p7175
(lp7176
(S'13:21:39'
p7177
VQ(3/(sqrt(75/12)))
p7178
tp7179
asg9
g3508
sS'part7_correct_attempt'
p7180
(lp7181
S'13:22:02'
p7182
aV2*Q(3/(sqrt(75/12)))
p7183
asS'part6_correct_attempt'
p7184
(lp7185
S'13:21:39'
p7186
aVQ(3/(sqrt(75/12)))
p7187
assVmuy002
p7188
(dp7189
S'part5_correct_attempt'
p7190
(lp7191
S'0:18:42'
p7192
aV2/sqrt(65/12)
p7193
asS'part7_incorrect_attempt'
p7194
(lp7195
(S'0:19:41'
p7196
VQ(1-(2/sqrt(65/12)))
p7197
tp7198
a(S'1:32:27'
p7199
VQ((2/sqrt(65/12)))
p7200
tp7201
a(S'1:32:34'
p7202
VQ(1-(2/sqrt(65/12)))
p7203
tp7204
asg9
g796
sS'part7_correct_attempt'
p7205
(lp7206
S'1:34:49'
p7207
aV2*Q(2/sqrt(65/12))
p7208
asS'part6_correct_attempt'
p7209
(lp7210
S'0:19:28'
p7211
aVQ(2/sqrt(65/12))
p7212
assVkosung
p7213
(dp7214
S'part5_correct_attempt'
p7215
(lp7216
S'5:36:29'
p7217
ag2629
asS'part7_incorrect_attempt'
p7218
(lp7219
(S'5:39:52'
p7220
V1-2Q(3/2.32735)
p7221
tp7222
a(S'5:40:39'
p7223
V1-2Q(3/2.32735)
p7224
tp7225
a(S'5:44:18'
p7226
VQ(3/2.32735)
p7227
tp7228
a(S'5:46:59'
p7229
VPhi(3/2.32735)
p7230
tp7231
a(S'5:48:13'
p7232
VPhi(3/2.32735) + Q(3/2.32735)
p7233
tp7234
asg9
g2638
sS'part7_correct_attempt'
p7235
(lp7236
S'5:54:43'
p7237
aV2Q(3/2.32735)
p7238
asS'part6_correct_attempt'
p7239
(lp7240
S'5:36:46'
p7241
aVQ(3/2.32735)
p7242
assVjhp077
p7243
(dp7244
S'part5_correct_attempt'
p7245
(lp7246
S'0:11:14'
p7247
aV4/((80/12)^(1/2))
p7248
asS'part7_incorrect_attempt'
p7249
(lp7250
(S'0:18:58'
p7251
VQ(4/(80/12)^(1/2)) + Q(1 - (4/(80/12)^(1/2)))
p7252
tp7253
a(S'0:26:17'
p7254
V0.939332
p7255
tp7256
asg9
g3546
sS'part7_correct_attempt'
p7257
(lp7258
S'0:27:45'
p7259
aV2*Q(4/(80/12)^(1/2))
p7260
asS'part6_correct_attempt'
p7261
(lp7262
S'0:15:47'
p7263
aVQ(4/(80/12)^(1/2))
p7264
assVj2phung
p7265
(dp7266
S'part5_correct_attempt'
p7267
(lp7268
S'0:05:24'
p7269
aV(3-0)/((80/12)^(1/2))
p7270
asS'part7_incorrect_attempt'
p7271
(lp7272
(S'0:21:08'
p7273
VPhi((3-0)/((80/12)^(1/2)))
p7274
tp7275
a(S'7:27:55'
p7276
V1 - .3770
p7277
tp7278
a(S'7:35:13'
p7279
V(1-.3770)*2
p7280
tp7281
asg9
g1773
sS'part7_correct_attempt'
p7282
(lp7283
S'7:37:50'
p7284
aV(1 - Phi(3/((80/12)^(1/2))))*2
p7285
asS'part6_correct_attempt'
p7286
(lp7287
S'0:16:34'
p7288
aV1 - Phi((3-0)/((80/12)^(1/2)))
p7289
asssV6
p7290
(dp7291
Vgthorn
p7292
(dp7293
S'part5_correct_attempt'
p7294
(lp7295
S'0:24:11'
p7296
aV2/2.58199
p7297
asS'part6_incorrect_attempt'
p7298
(lp7299
(S'0:25:15'
p7300
V(1-2/2.258199)/2
p7301
tp7302
asg9
g153
sS'part6_correct_attempt'
p7303
(lp7304
S'10:56:01'
p7305
aVQ(2/2.58199)
p7306
assVh4tu
p7307
(dp7308
S'part5_correct_attempt'
p7309
(lp7310
S'0:25:50'
p7311
ag6212
asS'part6_incorrect_attempt'
p7312
(lp7313
(S'0:26:44'
p7314
V1-Phi(sqrt( 75/12))
p7315
tp7316
asg9
g954
sS'part6_correct_attempt'
p7317
(lp7318
S'0:26:59'
p7319
ag6228
assVjyc018
p7320
(dp7321
S'part5_correct_attempt'
p7322
(lp7323
S'1 day, 22:53:42'
p7324
ag2125
asS'part6_incorrect_attempt'
p7325
(lp7326
(S'1 day, 22:55:42'
p7327
V.885
p7328
tp7329
asg9
g2134
sS'part6_correct_attempt'
p7330
(lp7331
S'1 day, 22:55:52'
p7332
ag6024
assVvsamant
p7333
(dp7334
S'part5_correct_attempt'
p7335
(lp7336
S'0:07:41'
p7337
ag2333
asS'part6_incorrect_attempt'
p7338
(lp7339
(S'0:23:37'
p7340
V.017218
p7341
tp7342
asg9
g2339
sS'part6_correct_attempt'
p7343
(lp7344
S'5:02:18'
p7345
aV1-Phi(2/(60^(1/2)(1/12(.5+.5)^2)^(1/2)))
p7346
assVkvass
p7347
(dp7348
S'part5_correct_attempt'
p7349
(lp7350
S'0:11:55'
p7351
aV5/sqrt(1/12 * 50)
p7352
asS'part6_incorrect_attempt'
p7353
(lp7354
(S'0:12:40'
p7355
VPhi(sqrt(1/12 * 50))
p7356
tp7357
a(S'0:13:20'
p7358
VQ(sqrt(1/12 * 50))
p7359
tp7360
asg9
g2764
sS'part6_correct_attempt'
p7361
(lp7362
S'0:14:35'
p7363
aVQ(5/sqrt(1/12 * 50))
p7364
assVlguintu
p7365
(dp7366
S'part5_correct_attempt'
p7367
(lp7368
S'0:05:45'
p7369
aV4/((80/12)^(1/2))
p7370
asS'part6_incorrect_attempt'
p7371
(lp7372
(S'0:10:02'
p7373
V1-0.72575
p7374
tp7375
a(S'0:10:23'
p7376
V0.72575
p7377
tp7378
a(S'0:13:44'
p7379
VPhi(5)
p7380
tp7381
asg9
V2015-11-03 05:25:56
p7382
sS'part6_correct_attempt'
p7383
(lp7384
S'0:13:59'
p7385
aV1-Phi(4/((80/12)^(1/2)))
p7386
assVssamudra
p7387
(dp7388
S'part5_correct_attempt'
p7389
(lp7390
S'0:03:18'
p7391
aV0.8
p7392
asS'part6_incorrect_attempt'
p7393
(lp7394
(S'0:03:18'
p7395
V0.211
p7396
tp7397
asg9
g3371
sS'part6_correct_attempt'
p7398
(lp7399
S'0:03:26'
p7400
aV0.212
p7401
assVmasaro
p7402
(dp7403
S'part5_correct_attempt'
p7404
(lp7405
S'0:04:10'
p7406
ag1950
asS'part6_incorrect_attempt'
p7407
(lp7408
(S'0:05:30'
p7409
V0.135666
p7410
tp7411
a(S'0:05:48'
p7412
V1-0.135666
p7413
tp7414
a(S'0:06:51'
p7415
V1-0.8621
p7416
tp7417
a(S'0:06:59'
p7418
V0.8621
p7419
tp7420
a(S'0:07:28'
p7421
V0.8632
p7422
tp7423
a(S'0:07:34'
p7424
V1-0.8632
p7425
tp7426
a(S'0:08:25'
p7427
V0.863242
p7428
tp7429
asg9
g1371
sS'part6_correct_attempt'
p7430
(lp7431
S'0:08:33'
p7432
ag5943
assVmitopete
p7433
(dp7434
S'part5_correct_attempt'
p7435
(lp7436
S'2 days, 18:19:44'
p7437
ag5949
asS'part6_incorrect_attempt'
p7438
(lp7439
(S'2 days, 18:23:34'
p7440
V0.877362
p7441
tp7442
a(S'2 days, 18:23:46'
p7443
V0.877362 * 2
p7444
tp7445
asg9
g532
sS'part6_correct_attempt'
p7446
(lp7447
S'2 days, 18:31:56'
p7448
ag5968
assVsachadal
p7449
(dp7450
S'part5_correct_attempt'
p7451
(lp7452
S'1 day, 2:12:59'
p7453
ag1981
asS'part6_incorrect_attempt'
p7454
(lp7455
(S'1 day, 2:24:20'
p7456
V4/1.6
p7457
tp7458
asg9
g1050
sS'part6_correct_attempt'
p7459
(lp7460
S'1 day, 2:49:57'
p7461
ag5986
assVasetters
p7462
(dp7463
S'part5_correct_attempt'
p7464
(lp7465
S'0:05:21'
p7466
ag2394
asS'part6_incorrect_attempt'
p7467
(lp7468
(S'0:09:09'
p7469
V(4+.5)
p7470
tp7471
a(S'0:11:45'
p7472
V.5(4/(sqrt(3)*sqrt(85/12))) + 1
p7473
tp7474
a(S'0:12:16'
p7475
V.5(4/(sqrt(3)*sqrt(85/12)) + 1)
p7476
tp7477
a(S'0:59:29'
p7478
V1-Phi(4)
p7479
tp7480
a(S'1:02:50'
p7481
V(1-Phi(4))/2
p7482
tp7483
a(S'1:03:06'
p7484
V(Phi(3))/2
p7485
tp7486
a(S'1:03:17'
p7487
V1- (Phi(3))/2
p7488
tp7489
asg9
g661
sS'part6_correct_attempt'
p7490
(lp7491
S'6:04:03'
p7492
aVQ(4/(sqrt(85/12)))
p7493
assVjic212
p7494
(dp7495
S'part5_correct_attempt'
p7496
(lp7497
S'1 day, 19:51:00'
p7498
aV5/(sqrt(50/12))
p7499
asS'part6_incorrect_attempt'
p7500
(lp7501
(S'1 day, 19:51:32'
p7502
V1-Phi(sqrt(50/12))
p7503
tp7504
asg9
V2015-11-05 03:25:43
p7505
sS'part6_correct_attempt'
p7506
(lp7507
S'1 day, 19:52:07'
p7508
aV1-Phi(5/(sqrt(50/12)))
p7509
assVjcj006
p7510
(dp7511
S'part5_correct_attempt'
p7512
(lp7513
S'0:00:33'
p7514
ag2033
asS'part6_incorrect_attempt'
p7515
(lp7516
(S'0:04:46'
p7517
V1-(2+50)/(100)
p7518
tp7519
a(S'0:05:17'
p7520
V1-(2+25)/(50)
p7521
tp7522
a(S'0:11:44'
p7523
V1-(2+5)/(sqrt(50))
p7524
tp7525
a(S'0:12:06'
p7526
V1-(sqrt(2)+5)/(sqrt(50))
p7527
tp7528
asg9
g1080
sS'part6_correct_attempt'
p7529
(lp7530
S'0:13:08'
p7531
aVQ(2/sqrt(50/12))
p7532
assVcrmirand
p7533
(dp7534
S'part5_correct_attempt'
p7535
(lp7536
S'0:03:30'
p7537
ag6068
asS'part6_incorrect_attempt'
p7538
(lp7539
(S'0:04:25'
p7540
V6.0667949
p7541
tp7542
a(S'0:04:38'
p7543
V2*6.0667949
p7544
tp7545
a(S'0:06:04'
p7546
V2*0.060668
p7547
tp7548
asg9
g6074
sS'part6_correct_attempt'
p7549
(lp7550
S'0:06:11'
p7551
ag6082
assVjdeon
p7552
(dp7553
S'part5_correct_attempt'
p7554
(lp7555
S'17:52:23'
p7556
ag6518
asS'part6_incorrect_attempt'
p7557
(lp7558
(S'17:52:39'
p7559
VQ(3)
p7560
tp7561
a(S'17:52:51'
p7562
VPhi(3)
p7563
tp7564
asg9
g5366
sS'part6_correct_attempt'
p7565
(lp7566
S'17:53:16'
p7567
ag6543
assVj5phung
p7568
(dp7569
S'part5_correct_attempt'
p7570
(lp7571
S'0:28:25'
p7572
ag6166
asS'part6_incorrect_attempt'
p7573
(lp7574
(S'0:31:04'
p7575
V1-[(1/2)+(1/2)*(3/(sqrt(80/12)))/sqrt(2)]
p7576
tp7577
asg9
g136
sS'part6_correct_attempt'
p7578
(lp7579
S'0:31:39'
p7580
ag6179
assVn2patil
p7581
(dp7582
S'part5_correct_attempt'
p7583
(lp7584
S'1:07:26'
p7585
aV5/((100(1/12))^(1/2))
p7586
asS'part6_incorrect_attempt'
p7587
(lp7588
(S'1:08:33'
p7589
VQ((100(1/12))^(1/2))
p7590
tp7591
a(S'1:09:16'
p7592
V1- Phi((100(1/12))^(1/2))
p7593
tp7594
a(S'1:09:31'
p7595
V1- Phi((5/100(1/12))^(1/2))
p7596
tp7597
asg9
g1102
sS'part6_correct_attempt'
p7598
(lp7599
S'1:09:52'
p7600
aV1- Phi(5/((100(1/12))^(1/2)))
p7601
assVs2chaudh
p7602
(dp7603
S'part5_correct_attempt'
p7604
(lp7605
S'0:03:01'
p7606
aV3/(1/sqrt(12)*sqrt(80))
p7607
asS'part6_incorrect_attempt'
p7608
(lp7609
(S'0:03:01'
p7610
V3/(1/sqrt(12)*sqrt(80))
p7611
tp7612
asg9
g1677
sS'part6_correct_attempt'
p7613
(lp7614
S'16:48:06'
p7615
aV1-(1/2+1/2erf(3/(1/sqrt(12)*sqrt(80))/sqrt(2)))
p7616
assVetemlock
p7617
(dp7618
S'part5_correct_attempt'
p7619
(lp7620
S'0:24:43'
p7621
ag2411
asS'part6_incorrect_attempt'
p7622
(lp7623
(S'0:24:56'
p7624
VQ(0.0013499)
p7625
tp7626
a(S'0:26:07'
p7627
V2*Q(0.0013499)
p7628
tp7629
asg9
g2417
sS'part6_correct_attempt'
p7630
(lp7631
S'0:27:15'
p7632
aVQ(1.28901)
p7633
assVgsrandha
p7634
(dp7635
S'part5_correct_attempt'
p7636
(lp7637
S'13:52:39'
p7638
ag2102
asS'part6_incorrect_attempt'
p7639
(lp7640
(S'13:52:39'
p7641
V3 / 2.5
p7642
tp7643
asg9
g1419
sS'part6_correct_attempt'
p7644
(lp7645
S'13:54:22'
p7646
aV1 - Phi(1.2)
p7647
assVmpanelo
p7648
(dp7649
S'part5_correct_attempt'
p7650
(lp7651
S'0:30:52'
p7652
ag2285
asS'part6_incorrect_attempt'
p7653
(lp7654
(S'0:33:58'
p7655
VQ(5)
p7656
tp7657
asg9
g397
sS'part6_correct_attempt'
p7658
(lp7659
S'0:34:19'
p7660
aVQ(5/sqrt(20/3))
p7661
assVjnatale
p7662
(dp7663
S'part5_correct_attempt'
p7664
(lp7665
S'0:05:07'
p7666
aV5/sqrt(95/12)
p7667
asS'part6_incorrect_attempt'
p7668
(lp7669
(S'0:06:02'
p7670
V1-1/(5/sqrt(95/12))
p7671
tp7672
a(S'0:06:11'
p7673
V1/(5/sqrt(95/12))
p7674
tp7675
a(S'0:07:04'
p7676
V.04006
p7677
tp7678
a(S'0:07:35'
p7679
V.03216
p7680
tp7681
asg9
V2015-11-05 01:30:25
p7682
sS'part6_correct_attempt'
p7683
(lp7684
S'1:11:56'
p7685
aVQ(5/sqrt(95/12))
p7686
assVr9jiang
p7687
(dp7688
S'part5_correct_attempt'
p7689
(lp7690
S'3 days, 1:46:43'
p7691
ag2186
asS'part6_incorrect_attempt'
p7692
(lp7693
(S'3 days, 1:48:31'
p7694
VQ(3)
p7695
tp7696
asg9
g2195
sS'part6_correct_attempt'
p7697
(lp7698
S'3 days, 1:50:13'
p7699
aVQ(3/2.32737)
p7700
assVavasavad
p7701
(dp7702
S'part6_incorrect_attempt'
p7703
(lp7704
(S'0:00:00'
p7705
V1-Phi(3)
p7706
tp7707
asg9
V2015-11-04 23:32:19
p7708
ssVbtn023
p7709
(dp7710
S'part5_correct_attempt'
p7711
(lp7712
S'7:05:38'
p7713
aV(5-0)/sqrt(75*1/12(1)^2)
p7714
asS'part6_incorrect_attempt'
p7715
(lp7716
(S'7:06:15'
p7717
V.97
p7718
tp7719
asg9
g346
sS'part6_correct_attempt'
p7720
(lp7721
S'7:06:47'
p7722
aV0.02275
p7723
assVs6deng
p7724
(dp7725
S'part6_incorrect_attempt'
p7726
(lp7727
(S'0:04:02'
p7728
V1-Phi(3)
p7729
tp7730
asg9
g1489
ssVachinn
p7731
(dp7732
S'part5_correct_attempt'
p7733
(lp7734
S'0:06:09'
p7735
ag6377
asS'part6_incorrect_attempt'
p7736
(lp7737
(S'0:09:59'
p7738
V0.0125
p7739
tp7740
a(S'0:10:42'
p7741
V0.0139
p7742
tp7743
a(S'0:28:54'
p7744
V0.0143
p7745
tp7746
a(S'0:30:24'
p7747
V0.00715
p7748
tp7749
a(S'4:10:35'
p7750
V0.0143
p7751
tp7752
asg9
g1501
sS'part6_correct_attempt'
p7753
(lp7754
S'10:23:53'
p7755
ag6396
assVdwzhang
p7756
(dp7757
S'part5_correct_attempt'
p7758
(lp7759
S'0:00:25'
p7760
aV4/(1/sqrt(12)*sqrt(90))
p7761
asS'part6_incorrect_attempt'
p7762
(lp7763
(S'0:00:47'
p7764
VQ(4/1/sqrt(12)*sqrt(90))
p7765
tp7766
asg9
V2015-11-06 21:39:06
p7767
sS'part6_correct_attempt'
p7768
(lp7769
S'0:01:37'
p7770
aVQ(4/(1/sqrt(12)*sqrt(90)))
p7771
assVppanourg
p7772
(dp7773
S'part5_correct_attempt'
p7774
(lp7775
S'0:08:26'
p7776
aV3/sqrt((1/12)*40)
p7777
asS'part6_incorrect_attempt'
p7778
(lp7779
(S'0:09:29'
p7780
V.9495
p7781
tp7782
a(S'0:09:50'
p7783
V1-.9495
p7784
tp7785
a(S'0:11:53'
p7786
V.4495
p7787
tp7788
a(S'0:13:25'
p7789
V1-.4495
p7790
tp7791
a(S'0:14:52'
p7792
V.9495
p7793
tp7794
a(S'0:15:03'
p7795
V1-.9495
p7796
tp7797
a(S'0:17:10'
p7798
V1-Phi(3)
p7799
tp7800
asg9
g1213
sS'part6_correct_attempt'
p7801
(lp7802
S'0:18:00'
p7803
aV1-Phi(3/sqrt((1/12)*40))
p7804
assVdgunawan
p7805
(dp7806
S'part5_correct_attempt'
p7807
(lp7808
S'15:34:04'
p7809
ag1939
asS'part6_incorrect_attempt'
p7810
(lp7811
(S'15:38:13'
p7812
V[5-((-.5+.5)/2 *85)]/[(85/12)^(1/2)]
p7813
tp7814
asg9
g373
sS'part6_correct_attempt'
p7815
(lp7816
S'15:56:48'
p7817
ag6455
assVdkurli
p7818
(dp7819
S'part5_correct_attempt'
p7820
(lp7821
S'0:03:46'
p7822
aVsqrt(5)
p7823
asS'part6_incorrect_attempt'
p7824
(lp7825
(S'0:05:24'
p7826
VPhi(2.23607)
p7827
tp7828
asg9
g273
sS'part6_correct_attempt'
p7829
(lp7830
S'0:05:31'
p7831
aVQ(2.23607)
p7832
assVjmiclat
p7833
(dp7834
S'part5_correct_attempt'
p7835
(lp7836
S'0:07:19'
p7837
aV5/sqrt(95/12)
p7838
asS'part6_incorrect_attempt'
p7839
(lp7840
(S'0:08:12'
p7841
V1-.9616
p7842
tp7843
a(S'0:08:49'
p7844
V1-.9625
p7845
tp7846
a(S'0:10:21'
p7847
V0.9625
p7848
tp7849
a(S'0:10:28'
p7850
V1-0.9625
p7851
tp7852
asg9
g1407
sS'part6_correct_attempt'
p7853
(lp7854
S'0:14:48'
p7855
aV1-Phi(1.77705)
p7856
assVdsmonaha
p7857
(dp7858
S'part5_correct_attempt'
p7859
(lp7860
S'0:25:30'
p7861
ag6549
asS'part6_incorrect_attempt'
p7862
(lp7863
(S'0:46:53'
p7864
V0.9938
p7865
tp7866
a(S'0:47:32'
p7867
V1-0.9938
p7868
tp7869
a(S'0:56:11'
p7870
V(1-.9772)
p7871
tp7872
a(S'0:56:31'
p7873
V2.5
p7874
tp7875
a(S'0:56:44'
p7876
V.25
p7877
tp7878
a(S'0:56:55'
p7879
V.025
p7880
tp7881
a(S'1:07:56'
p7882
V1-.9772
p7883
tp7884
a(S'1:22:28'
p7885
V.0456
p7886
tp7887
asg9
g736
sS'part6_correct_attempt'
p7888
(lp7889
S'2 days, 2:56:18'
p7890
ag6562
assVpthsu
p7891
(dp7892
S'part5_correct_attempt'
p7893
(lp7894
S'0:00:00'
p7895
aV(3-0)/(1/sqrt(12)*sqrt(60))
p7896
asS'part6_incorrect_attempt'
p7897
(lp7898
(S'0:00:37'
p7899
VQ(3/1/sqrt(12)*sqrt(60))
p7900
tp7901
a(S'0:00:58'
p7902
VQ(3/sqrt(12)*sqrt(60))
p7903
tp7904
asg9
V2015-10-31 04:00:32
p7905
sS'part6_correct_attempt'
p7906
(lp7907
S'0:01:20'
p7908
aVQ(3/(1/sqrt(12)*sqrt(60)))
p7909
assVhah008
p7910
(dp7911
S'part5_correct_attempt'
p7912
(lp7913
S'0:01:50'
p7914
aV2/(1/sqrt(12)*sqrt(70))
p7915
asS'part6_incorrect_attempt'
p7916
(lp7917
(S'0:02:24'
p7918
VQ(2/1/sqrt(12)*sqrt(70))
p7919
tp7920
asg9
V2015-11-06 23:13:40
p7921
sS'part6_correct_attempt'
p7922
(lp7923
S'0:03:00'
p7924
aVQ(2/(1/sqrt(12)*sqrt(70)))
p7925
assVb1yao
p7926
(dp7927
S'part5_correct_attempt'
p7928
(lp7929
S'22:35:17'
p7930
aV5/((90/12)^0.5)
p7931
asS'part6_incorrect_attempt'
p7932
(lp7933
(S'22:37:59'
p7934
V1-.9664
p7935
tp7936
a(S'22:42:24'
p7937
V.9664
p7938
tp7939
a(S'22:43:58'
p7940
V1-.9656
p7941
tp7942
a(S'22:44:41'
p7943
V2*(1-.9664)
p7944
tp7945
a(S'22:48:03'
p7946
V1-.9664
p7947
tp7948
a(S'22:49:42'
p7949
V(1-.9664)/2
p7950
tp7951
a(S'22:50:23'
p7952
V(1-.9664)*2
p7953
tp7954
a(S'22:52:21'
p7955
V0.1456
p7956
tp7957
a(S'22:56:49'
p7958
V.96638
p7959
tp7960
a(S'22:57:04'
p7961
V.96638/2
p7962
tp7963
asg9
g4957
sS'part6_correct_attempt'
p7964
(lp7965
S'23:02:52'
p7966
aVQ(5/((90/12)^0.5))
p7967
assVk3tan
p7968
(dp7969
S'part5_correct_attempt'
p7970
(lp7971
S'2 days, 2:04:28'
p7972
ag2644
asS'part6_incorrect_attempt'
p7973
(lp7974
(S'2 days, 2:09:56'
p7975
V0.5-0.4842
p7976
tp7977
asg9
g2650
ssVakg009
p7978
(dp7979
S'part5_correct_attempt'
p7980
(lp7981
S'0:12:27'
p7982
ag6666
asS'part6_incorrect_attempt'
p7983
(lp7984
(S'0:16:19'
p7985
VQ(2)
p7986
tp7987
a(S'0:50:31'
p7988
V1-Q(2)
p7989
tp7990
a(S'0:50:50'
p7991
V1-Q(4/sqrt(30))
p7992
tp7993
asg9
g595
sS'part6_correct_attempt'
p7994
(lp7995
S'0:51:00'
p7996
ag6679
assVedescobe
p7997
(dp7998
S'part5_correct_attempt'
p7999
(lp8000
S'0:48:10'
p8001
ag2383
asS'part6_incorrect_attempt'
p8002
(lp8003
(S'8:47:31'
p8004
V1-.77337
p8005
tp8006
a(S'8:47:45'
p8007
V.77337
p8008
tp8009
asg9
g748
sS'part6_correct_attempt'
p8010
(lp8011
S'1 day, 21:09:00'
p8012
aVQ(2/2.66145)
p8013
assVabasu
p8014
(dp8015
S'part5_correct_attempt'
p8016
(lp8017
S'0:58:16'
p8018
ag1914
asS'part6_incorrect_attempt'
p8019
(lp8020
(S'0:59:46'
p8021
V0.4732
p8022
tp8023
a(S'1:00:18'
p8024
V0.4761
p8025
tp8026
a(S'1:02:01'
p8027
V1/38
p8028
tp8029
a(S'1:02:51'
p8030
VQ(5)
p8031
tp8032
asg9
g478
sS'part6_correct_attempt'
p8033
(lp8034
S'1:03:48'
p8035
aV1-Phi(1.9365)
p8036
assVbakang
p8037
(dp8038
S'part5_correct_attempt'
p8039
(lp8040
S'0:07:22'
p8041
aV(2)/(sqrt((1/12)*(1)^2*100))
p8042
asS'part6_incorrect_attempt'
p8043
(lp8044
(S'0:07:52'
p8045
V1-(2)/(sqrt((1/12)*(1)^2*100))
p8046
tp8047
a(S'0:09:21'
p8048
VQ(2)
p8049
tp8050
asg9
g772
sS'part6_correct_attempt'
p8051
(lp8052
S'0:30:03'
p8053
aVQ((2)/(sqrt((1/12)*(1)^2*100)))
p8054
assVanvan
p8055
(dp8056
S'part5_correct_attempt'
p8057
(lp8058
S'0:50:17'
p8059
aV2/ sqrt(80/12)
p8060
asS'part6_incorrect_attempt'
p8061
(lp8062
(S'0:52:00'
p8063
V0.7794
p8064
tp8065
a(S'0:52:08'
p8066
V1 - 0.7794
p8067
tp8068
a(S'0:53:06'
p8069
V1 - .774597
p8070
tp8071
asg9
V2015-11-05 17:19:44
p8072
sS'part6_correct_attempt'
p8073
(lp8074
S'0:54:34'
p8075
aV.438578 / 2
p8076
assVachava
p8077
(dp8078
S'part5_correct_attempt'
p8079
(lp8080
S'0:10:49'
p8081
aV4/sqrt(55/12)
p8082
asS'part6_incorrect_attempt'
p8083
(lp8084
(S'0:11:11'
p8085
V2.871656*10^(-2)
p8086
tp8087
a(S'0:12:19'
p8088
V3.593032*10^(-2)
p8089
tp8090
asg9
g520
sS'part6_correct_attempt'
p8091
(lp8092
S'1:14:57'
p8093
aVQ(4/(sqrt(55/12)))
p8094
assVm4bui
p8095
(dp8096
S'part5_correct_attempt'
p8097
(lp8098
S'0:00:25'
p8099
aV2/(1/sqrt(12)*sqrt(100))
p8100
asS'part6_incorrect_attempt'
p8101
(lp8102
(S'0:01:03'
p8103
V2/(1/sqrt(12)*sqrt(100))
p8104
tp8105
asg9
V2015-11-06 04:28:16
p8106
ssVmuy002
p8107
(dp8108
S'part5_correct_attempt'
p8109
(lp8110
S'0:18:42'
p8111
ag7193
asS'part6_incorrect_attempt'
p8112
(lp8113
(S'0:19:00'
p8114
V2/sqrt(65/12)
p8115
tp8116
asg9
g796
sS'part6_correct_attempt'
p8117
(lp8118
S'0:19:28'
p8119
ag7212
assVtdurrer
p8120
(dp8121
S'part5_correct_attempt'
p8122
(lp8123
S'0:13:25'
p8124
aV(4-0)/(sqrt(65/12))
p8125
asS'part6_incorrect_attempt'
p8126
(lp8127
(S'0:16:14'
p8128
V.0436
p8129
tp8130
asg9
g4834
sS'part6_correct_attempt'
p8131
(lp8132
S'0:17:16'
p8133
aVQ(1.71868)
p8134
assVedcole
p8135
(dp8136
S'part5_correct_attempt'
p8137
(lp8138
S'0:47:52'
p8139
ag2474
asS'part6_incorrect_attempt'
p8140
(lp8141
(S'0:48:35'
p8142
V2/sqrt(75*75/(75*12))^3
p8143
tp8144
asg9
g2480
sS'part6_correct_attempt'
p8145
(lp8146
S'0:49:34'
p8147
aVQ(.8)
p8148
assVv4sharma
p8149
(dp8150
S'part5_correct_attempt'
p8151
(lp8152
S'23:33:12'
p8153
aV3/(sqrt(40 * (1/12 * (.5 + .5)^2)))
p8154
asS'part6_incorrect_attempt'
p8155
(lp8156
(S'1 day, 0:42:38'
p8157
VQ(1.8)
p8158
tp8159
a(S'1 day, 0:42:58'
p8160
VQ(1.6)
p8161
tp8162
a(S'1 day, 0:43:06'
p8163
VQ(0.2)
p8164
tp8165
a(S'1 day, 0:43:13'
p8166
VQ(0.3)
p8167
tp8168
a(S'1 day, 0:49:36'
p8169
VQ(0.4)
p8170
tp8171
a(S'1 day, 0:50:00'
p8172
VQ(6.0)
p8173
tp8174
a(S'1 day, 0:50:07'
p8175
VQ(6.1)
p8176
tp8177
a(S'1 day, 0:50:14'
p8178
VQ(6.2)
p8179
tp8180
a(S'1 day, 0:52:59'
p8181
VQ(1)
p8182
tp8183
a(S'1 day, 0:53:16'
p8184
VQ(1.1)
p8185
tp8186
a(S'1 day, 0:53:30'
p8187
VQ(-0.1)
p8188
tp8189
a(S'1 day, 0:53:41'
p8190
VQ(-0.2)
p8191
tp8192
a(S'1 day, 0:53:47'
p8193
VQ(-0.3)
p8194
tp8195
a(S'1 day, 0:53:54'
p8196
VQ(-0.4)
p8197
tp8198
a(S'1 day, 0:54:02'
p8199
VQ(-0.5)
p8200
tp8201
a(S'1 day, 0:54:09'
p8202
VQ(-0.6)
p8203
tp8204
a(S'1 day, 0:54:17'
p8205
VQ(-0.7)
p8206
tp8207
a(S'1 day, 0:54:23'
p8208
VQ(-0.8)
p8209
tp8210
a(S'1 day, 0:54:31'
p8211
VQ(-0.9)
p8212
tp8213
a(S'1 day, 0:54:39'
p8214
VQ(-1.0)
p8215
tp8216
a(S'1 day, 0:54:44'
p8217
VQ(-1.1)
p8218
tp8219
a(S'1 day, 0:54:50'
p8220
VQ(-1.2)
p8221
tp8222
a(S'1 day, 0:54:55'
p8223
VQ(-1.3)
p8224
tp8225
a(S'1 day, 0:55:01'
p8226
VQ(-1.4)
p8227
tp8228
a(S'1 day, 0:55:06'
p8229
VQ(-1.5)
p8230
tp8231
a(S'1 day, 0:55:12'
p8232
VQ(-1.6)
p8233
tp8234
a(S'1 day, 0:55:19'
p8235
VQ(-1.8)
p8236
tp8237
a(S'1 day, 0:55:26'
p8238
VQ(-1.9)
p8239
tp8240
a(S'1 day, 1:08:24'
p8241
VQ(1.6)
p8242
tp8243
a(S'1 day, 1:08:47'
p8244
V0.05
p8245
tp8246
a(S'1 day, 1:08:55'
p8247
V0.01
p8248
tp8249
a(S'1 day, 1:09:00'
p8250
V0.02
p8251
tp8252
a(S'1 day, 1:09:05'
p8253
V0.03
p8254
tp8255
a(S'1 day, 1:09:09'
p8256
V0.04
p8257
tp8258
a(S'1 day, 1:09:17'
p8259
V0.06
p8260
tp8261
a(S'1 day, 1:09:22'
p8262
V0.07
p8263
tp8264
a(S'1 day, 1:09:28'
p8265
V0.08
p8266
tp8267
a(S'1 day, 1:09:36'
p8268
V0.09
p8269
tp8270
a(S'1 day, 1:13:23'
p8271
VQ(0.9)
p8272
tp8273
a(S'1 day, 1:24:22'
p8274
V0.949826
p8275
tp8276
asg9
g4156
sS'part6_correct_attempt'
p8277
(lp8278
S'1 day, 1:24:40'
p8279
aV0.0501740
p8280
assVralhadda
p8281
(dp8282
S'part6_incorrect_attempt'
p8283
(lp8284
(S'3:29:16'
p8285
V1/12
p8286
tp8287
a(S'3:33:00'
p8288
V65/12
p8289
tp8290
asg9
g843
ssVyig015
p8291
(dp8292
S'part5_correct_attempt'
p8293
(lp8294
S'1 day, 1:55:34'
p8295
ag2201
asS'part6_incorrect_attempt'
p8296
(lp8297
(S'1 day, 1:57:32'
p8298
VPhi(1.28901)
p8299
tp8300
asg9
g1617
sS'part6_correct_attempt'
p8301
(lp8302
S'1 day, 1:57:44'
p8303
ag6976
assVaportuga
p8304
(dp8305
S'part5_correct_attempt'
p8306
(lp8307
S'0:06:09'
p8308
aV5/2.4152294577
p8309
asS'part6_incorrect_attempt'
p8310
(lp8311
(S'0:07:25'
p8312
V5/2.4152294577
p8313
tp8314
asg9
g5037
ssVxweng
p8315
(dp8316
S'part5_correct_attempt'
p8317
(lp8318
S'1:29:18'
p8319
ag2530
asS'part6_incorrect_attempt'
p8320
(lp8321
(S'22:52:29'
p8322
V0.5-0.4249
p8323
tp8324
asg9
g1641
sS'part6_correct_attempt'
p8325
(lp8326
S'22:52:46'
p8327
aV0.07082 
p8328
assVamquinte
p8329
(dp8330
S'part5_correct_attempt'
p8331
(lp8332
S'1 day, 17:22:55'
p8333
aV1.066
p8334
asS'part6_incorrect_attempt'
p8335
(lp8336
(S'1 day, 17:24:46'
p8337
V.143
p8338
tp8339
asg9
g1395
sS'part6_correct_attempt'
p8340
(lp8341
S'1 day, 17:25:16'
p8342
aV.14319
p8343
assVc3chung
p8344
(dp8345
S'part5_correct_attempt'
p8346
(lp8347
S'0:03:33'
p8348
ag6276
asS'part6_incorrect_attempt'
p8349
(lp8350
(S'0:04:48'
p8351
V1-0.8577
p8352
tp8353
a(S'0:04:58'
p8354
V0.8577
p8355
tp8356
a(S'0:05:46'
p8357
V0.8554
p8358
tp8359
a(S'0:05:51'
p8360
V1-0.8554
p8361
tp8362
a(S'0:06:23'
p8363
V1-0.85769
p8364
tp8365
a(S'0:06:26'
p8366
V0.85769
p8367
tp8368
a(S'0:08:23'
p8369
V0.9222
p8370
tp8371
a(S'0:08:28'
p8372
V1-0.9222
p8373
tp8374
a(S'0:12:39'
p8375
V1-0.92220
p8376
tp8377
a(S'0:15:37'
p8378
V1-0.8554
p8379
tp8380
a(S'0:16:04'
p8381
V1-0.8577
p8382
tp8383
a(S'0:16:12'
p8384
V0.8577
p8385
tp8386
asg9
g1689
ssVyos017
p8387
(dp8388
S'part5_correct_attempt'
p8389
(lp8390
S'0:15:12'
p8391
aV[3 - 0]/ (45/12)^(1/2)
p8392
asS'part6_incorrect_attempt'
p8393
(lp8394
(S'0:20:40'
p8395
V1 - Q([3 - 0]/ (45/12)^(1/2))
p8396
tp8397
asg9
g568
sS'part6_correct_attempt'
p8398
(lp8399
S'0:21:04'
p8400
aVQ([3 - 0]/ (45/12)^(1/2))
p8401
assVjhp077
p8402
(dp8403
S'part5_correct_attempt'
p8404
(lp8405
S'0:11:14'
p8406
ag7248
asS'part6_incorrect_attempt'
p8407
(lp8408
(S'0:13:13'
p8409
VQ(4)/4/((80/12)^(1/2))
p8410
tp8411
asg9
g3546
sS'part6_correct_attempt'
p8412
(lp8413
S'0:15:47'
p8414
ag7264
assVaordookh
p8415
(dp8416
S'part5_correct_attempt'
p8417
(lp8418
S'0:23:06'
p8419
ag2572
asS'part6_incorrect_attempt'
p8420
(lp8421
(S'0:29:44'
p8422
V(5-0)/(1/12(70))^(1/2)
p8423
tp8424
asg9
g1605
sS'part6_correct_attempt'
p8425
(lp8426
S'0:31:30'
p8427
aV1-Phi((5-0)/(1/12(70))^(1/2))
p8428
assVsmall
p8429
(dp8430
S'part5_correct_attempt'
p8431
(lp8432
S'0:04:19'
p8433
ag2345
asS'part6_incorrect_attempt'
p8434
(lp8435
(S'0:05:27'
p8436
V5/(sqrt(50*1/12))
p8437
tp8438
asg9
g2351
ssVsghouse
p8439
(dp8440
S'part5_correct_attempt'
p8441
(lp8442
S'21:43:40'
p8443
aV2
p8444
asS'part6_incorrect_attempt'
p8445
(lp8446
(S'21:43:40'
p8447
VQ(5)
p8448
tp8449
asg9
g4349
sS'part6_correct_attempt'
p8450
(lp8451
S'21:43:52'
p8452
aVQ(2)
p8453
assVtjke
p8454
(dp8455
S'part5_correct_attempt'
p8456
(lp8457
S'0:06:18'
p8458
aV(4-0)/sqrt(75*1/12*(.5-(-.5))^2)
p8459
asS'part6_incorrect_attempt'
p8460
(lp8461
(S'0:06:18'
p8462
VQ(sqrt(75*1/12*(.5-(-.5))^2))
p8463
tp8464
asg9
g4917
sS'part6_correct_attempt'
p8465
(lp8466
S'0:06:41'
p8467
aVQ((4-0)/sqrt(75*1/12*(.5-(-.5))^2))
p8468
assVjit002
p8469
(dp8470
S'part5_correct_attempt'
p8471
(lp8472
S'0:24:41'
p8473
aV2/((1/12)*60)^0.5
p8474
asS'part6_incorrect_attempt'
p8475
(lp8476
(S'0:24:41'
p8477
V2*(1-Phi(2*5^0.5))
p8478
tp8479
asg9
g607
sS'part6_correct_attempt'
p8480
(lp8481
S'12:00:57'
p8482
aV1-Phi(2/(((1/12)*60)^0.5))
p8483
assVsyc078
p8484
(dp8485
S'part5_correct_attempt'
p8486
(lp8487
S'23:16:25'
p8488
aV(5-0)/sqrt(95/12)
p8489
asS'part6_incorrect_attempt'
p8490
(lp8491
(S'23:17:29'
p8492
V0.0375
p8493
tp8494
a(S'23:17:38'
p8495
V1-0.0375
p8496
tp8497
asg9
g5206
sS'part6_correct_attempt'
p8498
(lp8499
S'1 day, 15:35:10'
p8500
aVQ((5-0)/sqrt(95/12))
p8501
assVklala
p8502
(dp8503
S'part5_correct_attempt'
p8504
(lp8505
S'0:02:51'
p8506
aV(3-0)/2.5
p8507
asS'part6_incorrect_attempt'
p8508
(lp8509
(S'0:03:49'
p8510
V0.00621
p8511
tp8512
a(S'0:07:36'
p8513
V0.006209
p8514
tp8515
asg9
g4937
sS'part6_correct_attempt'
p8516
(lp8517
S'0:09:57'
p8518
aV1-((1/2)+(1/2)*erf((((3-0)/2.5))/sqrt(2)))
p8519
assVj2phung
p8520
(dp8521
S'part5_correct_attempt'
p8522
(lp8523
S'0:05:24'
p8524
ag7270
asS'part6_incorrect_attempt'
p8525
(lp8526
(S'0:09:40'
p8527
V1-.8770
p8528
tp8529
a(S'0:13:03'
p8530
V(1-.8770)*2
p8531
tp8532
a(S'0:15:42'
p8533
V1 - Phi(.3770)
p8534
tp8535
asg9
g1773
sS'part6_correct_attempt'
p8536
(lp8537
S'0:16:34'
p8538
ag7289
asss.