(dp0
V1
p1
ccollections
defaultdict
p2
(c__builtin__
list
p3
tp4
Rp5
S'Digits'
p6
(lp7
(VQ(0.3)
p8
V0
p9
tp10
a(VQ(0.3)
p11
V5
p12
tp13
a(g11
V5
p14
tp15
a(g11
V5
p16
tp17
a(g11
V5
p18
tp19
a(g11
V5
p20
tp21
a(g11
V5
p22
tp23
a(g11
V5
p24
tp25
a(g11
V5
p26
tp27
a(g11
V5
p28
tp29
a(g11
V5
p30
tp31
a(g11
V5
p32
tp33
a(g11
V5
p34
tp35
a(g11
V5
p36
tp37
a(g11
V5
p38
tp39
a(VQ(0.3)
p40
V0
p41
tp42
a(VQ(0.3)
p43
V0
p44
tp45
a(g43
V1
p46
tp47
a(VQ(0.3)
p48
V0
p49
tp50
a(g48
V1
p51
tp52
a(VQ(0.3)
p53
V1
p54
tp55
a(g53
V0
p56
tp57
asS"['R.0']"
p58
(lp59
(VQ(0.3)
p60
VPhi(.3)
p61
(lp62
(S'R.0'
p63
F0.3
V0.3
p64
V.3)
p65
tp66
aVrsmurlo
p67
(lp68
(V$n
p69
V0.166667
p70
tp71
a(V$nc
p72
V4.5
p73
tp74
a(V$corr
p75
V0
p76
tp77
a(V$ans
p78
V0.0263676
p79
tp80
a(V$a
p81
V6
p82
tp83
a(V$mean
p84
V12
p85
tp86
a(V$low
p87
V9
p88
tp89
a(V$x
p90
V0.0263676
p91
tp92
a(V$phi
p93
V27
p94
tp95
a(V$std
p96
V28
p97
tp98
a(V$p
p99
V8
p100
tp101
a(V$high
p102
V1.93649
p103
tp104
aV2015-11-03 18:31:23
p105
tp106
a(VQ(0.3)
p107
VPhi(.3)
p108
(lp109
(S'R.0'
p110
F0.3
V0.3
p111
V.3)
p112
tp113
aVcagatep
p114
(lp115
(V$n
p116
V0.2
p117
tp118
a(V$nc
p119
V4.2
p120
tp121
a(V$corr
p122
V0
p123
tp124
a(V$ans
p125
V0.0430526
p126
tp127
a(V$a
p128
V5
p129
tp130
a(V$mean
p131
V12
p132
tp133
a(V$low
p134
V8
p135
tp136
a(V$x
p137
V0.0430526
p138
tp139
a(V$phi
p140
V21
p141
tp142
a(V$std
p143
V22
p144
tp145
a(V$p
p146
V8
p147
tp148
a(V$high
p149
V1.83303
p150
tp151
aV2015-11-05 07:44:04
p152
tp153
a(VQ(0.3)
p154
VPhi(0.3)
p155
(lp156
(S'R.0'
p157
F0.3
V0.3
p158
V0.3
p159
tp160
aVm4bui
p161
(lp162
(V$n
p163
V0.166667
p164
tp165
a(V$nc
p166
V3.5
p167
tp168
a(V$corr
p169
V0
p170
tp171
a(V$ans
p172
V0.0479195
p173
tp174
a(V$a
p175
V6
p176
tp177
a(V$mean
p178
V11
p179
tp180
a(V$low
p181
V7
p182
tp183
a(V$x
p184
V0.0479195
p185
tp186
a(V$phi
p187
V21
p188
tp189
a(V$std
p190
V22
p191
tp192
a(V$p
p193
V7
p194
tp195
a(V$high
p196
V1.70783
p197
tp198
aV2015-11-06 04:34:13
p199
tp200
asS'Wrong_Sign'
p201
(lp202
(VQ(0.3)
p203
V1-1/0.3
p204
tp205
a(VQ(0.3)
p206
V3.820886e-01
p207
tp208
a(VQ(0.3)
p209
V3.82e-0.1
p210
tp211
a(VQ(0.3)
p212
V3.820886e-01
p213
tp214
a(VQ(0.3)
p215
V3.820886e-01
p216
tp217
assV3
p218
g2
(g3
tp219
Rp220
g6
(lp221
(Vsqrt(28*1/6*(1-1/6))
p222
V0
p223
tp224
a(g222
V1
p225
tp226
a(Vsqrt(30*1/6*(1-1/6))
p227
V3
p228
tp229
a(Vsqrt(27*1/6*(1-1/6))
p230
V11
p231
tp232
a(g230
V1
p233
tp234
a(g230
V2
p235
tp236
a(g230
V6
p237
tp238
a(Vsqrt(30*1/6*(1-1/6))
p239
V0
p240
tp241
a(g239
V1
p242
tp243
a(g239
V5
p244
tp245
a(Vsqrt(25*1/5*(1-1/5))
p246
V117
p247
tp248
a(Vsqrt(26*1/5*(1-1/5))
p249
V1
p250
tp251
a(g249
V3
p252
tp253
a(g249
V1
p254
tp255
a(Vsqrt(22*1/4*(1-1/4))
p256
V1
p257
tp258
a(Vsqrt(26*1/5*(1-1/5))
p259
V10
p260
tp261
a(Vsqrt(29*1/6*(1-1/6))
p262
V1
p263
tp264
a(Vsqrt(24*1/4*(1-1/4))
p265
V0
p266
tp267
a(Vsqrt(30*1/4*(1-1/4))
p268
V1
p269
tp270
a(Vsqrt(21*1/5*(1-1/5))
p271
V1
p272
tp273
a(Vsqrt(20*1/4*(1-1/4))
p274
V1
p275
tp276
a(Vsqrt(28*1/4*(1-1/4))
p277
V0
p278
tp279
a(g277
V1
p280
tp281
a(g277
V14
p282
tp283
a(g277
V7
p284
tp285
a(g277
V1
p286
tp287
a(g277
V2
p288
tp289
a(g277
V3
p290
tp291
a(g277
V4
p292
tp293
a(g277
V5
p294
tp295
a(g277
V6
p296
tp297
a(g277
V7
p298
tp299
a(Vsqrt(22*1/5*(1-1/5))
p300
V14
p301
tp302
a(Vsqrt(25*1/6*(1-1/6))
p303
V1
p304
tp305
a(Vsqrt(28*1/4*(1-1/4))
p306
V1
p307
tp308
a(Vsqrt(30*1/5*(1-1/5))
p309
V1
p310
tp311
a(Vsqrt(27*1/6*(1-1/6))
p312
V1
p313
tp314
a(Vsqrt(29*1/6*(1-1/6))
p315
V0
p316
tp317
a(Vsqrt(28*1/4*(1-1/4))
p318
V1
p319
tp320
a(g318
V2
p321
tp322
a(Vsqrt(20*1/6*(1-1/6))
p323
V0
p324
tp325
a(Vsqrt(27*1/6*(1-1/6))
p326
V1
p327
tp328
a(Vsqrt(22*1/4*(1-1/4))
p329
V1
p330
tp331
a(g329
V22
p332
tp333
a(Vsqrt(29*1/5*(1-1/5))
p334
V11
p335
tp336
a(g329
V1
p337
tp338
a(Vsqrt(28*1/5*(1-1/5))
p339
V1
p340
tp341
a(g339
V9
p342
tp343
a(Vsqrt(22*1/4*(1-1/4))
p344
V1
p345
tp346
a(Vsqrt(29*1/5*(1-1/5))
p347
V1
p348
tp349
a(g347
V12
p350
tp351
a(g347
V1
p352
tp353
a(g347
V0
p354
tp355
a(Vsqrt(24*1/6*(1-1/6))
p356
V7
p357
tp358
a(g356
V1
p359
tp360
a(g356
V2
p361
tp362
a(g356
V3
p363
tp364
a(g356
V4
p365
tp366
a(g356
V5
p367
tp368
a(g356
V6
p369
tp370
a(g356
V7
p371
tp372
a(Vsqrt(28*1/6*(1-1/6))
p373
V0
p374
tp375
a(g373
V1
p376
tp377
a(Vsqrt(24*1/4*(1-1/4))
p378
V0
p379
tp380
a(Vsqrt(22*1/6*(1-1/6))
p381
V1
p382
tp383
a(g373
V0
p384
tp385
a(Vsqrt(29*1/4*(1-1/4))
p386
V0
p387
tp388
a(g386
V1
p389
tp390
a(Vsqrt(21*1/5*(1-1/5))
p391
V1
p392
tp393
a(Vsqrt(28*1/4*(1-1/4))
p394
V6
p395
tp396
a(g394
V1
p397
tp398
a(Vsqrt(30*1/4*(1-1/4))
p399
V1
p400
tp401
a(g399
V30
p402
tp403
a(g399
V1
p404
tp405
a(Vsqrt(20*1/4*(1-1/4))
p406
V75
p407
tp408
a(g406
V1
p409
tp410
a(Vsqrt(27*1/6*(1-1/6))
p411
V1
p412
tp413
a(Vsqrt(30*1/5*(1-1/5))
p414
V1
p415
tp416
a(Vsqrt(27*1/6*(1-1/6))
p417
V1
p418
tp419
a(Vsqrt(29*1/5*(1-1/5))
p420
V2
p421
tp422
a(g420
V1
p423
tp424
a(Vsqrt(26*1/5*(1-1/5))
p425
V1
p426
tp427
a(Vsqrt(20*1/5*(1-1/5))
p428
V1
p429
tp430
a(g428
V2
p431
tp432
a(g428
V3
p433
tp434
a(g428
V4
p435
tp436
a(g428
V5
p437
tp438
a(g428
V6
p439
tp440
a(g428
V7
p441
tp442
a(g428
V8
p443
tp444
a(Vsqrt(22*1/5*(1-1/5))
p445
V1
p446
tp447
a(g262
V0
p448
tp449
a(Vsqrt(30*1/5*(1-1/5))
p450
V0
p451
tp452
a(Vsqrt(29*1/6*(1-1/6))
p453
V1
p454
tp455
a(Vsqrt(25*1/4*(1-1/4))
p456
V1
p457
tp458
a(g456
V1
p459
tp460
a(Vsqrt(24*1/5*(1-1/5))
p461
V5
p462
tp463
a(Vsqrt(25*1/5*(1-1/5))
p464
V5
p465
tp466
a(Vsqrt(25*1/5*(1-1/5))
p467
V0
p468
tp469
a(g467
V1
p470
tp471
a(Vsqrt(20*1/5*(1-1/5))
p472
V2
p473
tp474
a(Vsqrt(21*1/4*(1-1/4))
p475
V1
p476
tp477
a(Vsqrt(28*1/4*(1-1/4))
p478
V1
p479
tp480
a(Vsqrt(23*1/5*(1-1/5))
p481
V1
p482
tp483
a(Vsqrt(30*1/6*(1-1/6))
p484
V0
p485
tp486
a(Vsqrt(21*1/6*(1-1/6))
p487
V1
p488
tp489
asS"['R.0.0']"
p490
(lp491
(g271
Vsqrt(4.2/21)
p492
(lp493
(S'R.0.0'
p494
F4.2
V21*1/5
p495
V4.2
p496
tp497
aVpvl001
p498
(lp499
(V$n
p500
V0.2
p501
tp502
a(V$nc
p503
V4.2
p504
tp505
a(V$corr
p506
V0
p507
tp508
a(V$ans
p509
V0.0430526
p510
tp511
a(V$a
p512
V5
p513
tp514
a(V$mean
p515
V12
p516
tp517
a(V$low
p518
V8
p519
tp520
a(V$x
p521
V0.0430526
p522
tp523
a(V$phi
p524
V21
p525
tp526
a(V$std
p527
V22
p528
tp529
a(V$p
p530
V8
p531
tp532
a(V$high
p533
V1.83303
p534
tp535
aV2015-11-03 21:23:09
p536
tp537
a(g271
Vsqrt(4.2)/sqrt(21)
p538
(lp539
(S'R.0.0'
p540
F4.2
V21*1/5
p541
V4.2
p542
tp543
aVpvl001
p544
g499
V2015-11-03 21:35:17
p545
tp546
a(g271
Vsqrt(4.2)/21
p547
(lp548
(S'R.0.0'
p549
F4.2
V21*1/5
p550
V4.2
p551
tp552
aVpvl001
p553
g499
V2015-11-03 21:35:24
p554
tp555
a(Vsqrt(27*1/6*(1-1/6))
p556
V((27/6)(1/26))^(1/2)
p557
(lp558
(S'R.0.0'
p559
F4.5
V27*1/6
p560
V27/6
p561
tp562
aVvsamant
p563
(lp564
(V$n
p565
V0.166667
p566
tp567
a(V$nc
p568
V4.5
p569
tp570
a(V$corr
p571
V0
p572
tp573
a(V$ans
p574
V0.00889915
p575
tp576
a(V$a
p577
V6
p578
tp579
a(V$mean
p580
V12
p581
tp582
a(V$low
p583
V10
p584
tp585
a(V$x
p586
V0.00889915
p587
tp588
a(V$phi
p589
V27
p590
tp591
a(V$std
p592
V28
p593
tp594
a(V$p
p595
V8
p596
tp597
a(V$high
p598
V1.93649
p599
tp600
aV2015-11-05 03:54:16
p601
tp602
a(Vsqrt(26*1/5*(1-1/5))
p603
Vsqrt(26/5)*(1-1/5)
p604
(lp605
(S'R.0.0'
p606
F5.2
V26*1/5
p607
V26/5
p608
tp609
aVm4salaza
p610
(lp611
(V$n
p612
V0.2
p613
tp614
a(V$nc
p615
V5.2
p616
tp617
a(V$corr
p618
V0
p619
tp620
a(V$ans
p621
V0.0232203
p622
tp623
a(V$a
p624
V5
p625
tp626
a(V$mean
p627
V13
p628
tp629
a(V$low
p630
V10
p631
tp632
a(V$x
p633
V0.0232203
p634
tp635
a(V$phi
p636
V26
p637
tp638
a(V$std
p639
V27
p640
tp641
a(V$p
p642
V9
p643
tp644
a(V$high
p645
V2.03961
p646
tp647
aV2015-11-05 05:35:34
p648
tp649
a(Vsqrt(22*1/4*(1-1/4))
p650
Vsqrt((22/4)*(22-13))
p651
(lp652
(S'R.0.0'
p653
F5.5
V22*1/4
p654
V22/4
p655
tp656
aVdlgoldbe
p657
(lp658
(V$n
p659
V0.25
p660
tp661
a(V$nc
p662
V5.5
p663
tp664
a(V$corr
p665
V0
p666
tp667
a(V$ans
p668
V0.000700489
p669
tp670
a(V$a
p671
V4
p672
tp673
a(V$mean
p674
V13
p675
tp676
a(V$low
p677
V13
p678
tp679
a(V$x
p680
V0.000700489
p681
tp682
a(V$phi
p683
V22
p684
tp685
a(V$std
p686
V23
p687
tp688
a(V$p
p689
V9
p690
tp691
a(V$high
p692
V2.03101
p693
tp694
aV2015-11-05 06:31:35
p695
tp696
a(Vsqrt(21*1/6*(1-1/6))
p697
Vsqrt((1/6*21)+(1/6*21)^2)
p698
(lp699
(S'R.0.0'
p700
F3.5
V21*1/6
p701
V1/6*21
p702
tp703
aVbakang
p704
(lp705
(V$n
p706
V0.166667
p707
tp708
a(V$nc
p709
V3.5
p710
tp711
a(V$corr
p712
V0
p713
tp714
a(V$ans
p715
V0.00424356
p716
tp717
a(V$a
p718
V6
p719
tp720
a(V$mean
p721
V11
p722
tp723
a(V$low
p724
V9
p725
tp726
a(V$x
p727
V0.00424356
p728
tp729
a(V$phi
p730
V21
p731
tp732
a(V$std
p733
V22
p734
tp735
a(V$p
p736
V7
p737
tp738
a(V$high
p739
V1.70783
p740
tp741
aV2015-11-05 09:10:05
p742
tp743
a(g420
V29*1/5*4/5
p744
(lp745
(S'R.0.0'
p746
F5.8
V29*1/5
p747
V29*1/5
p748
tp749
aVacs008
p750
(lp751
(V$n
p752
V0.2
p753
tp754
a(V$nc
p755
V5.8
p756
tp757
a(V$corr
p758
V0
p759
tp760
a(V$ans
p761
V0.00694029
p762
tp763
a(V$a
p764
V5
p765
tp766
a(V$mean
p767
V13
p768
tp769
a(V$low
p770
V12
p771
tp772
a(V$x
p773
V0.00694029
p774
tp775
a(V$phi
p776
V29
p777
tp778
a(V$std
p779
V30
p780
tp781
a(V$p
p782
V9
p783
tp784
a(V$high
p785
V2.15407
p786
tp787
aV2015-11-05 21:46:24
p788
tp789
a(g425
Vsqrt(26*(1/5)) * (1-1/5)
p790
(lp791
(S'R.0.0'
p792
F5.2
V26*1/5
p793
V26*(1/5)
p794
tp795
aVjel075
p796
(lp797
(V$n
p798
V0.2
p799
tp800
a(V$nc
p801
V5.2
p802
tp803
a(V$corr
p804
V0
p805
tp806
a(V$ans
p807
V0.059244
p808
tp809
a(V$a
p810
V5
p811
tp812
a(V$mean
p813
V13
p814
tp815
a(V$low
p816
V9
p817
tp818
a(V$x
p819
V0.059244
p820
tp821
a(V$phi
p822
V26
p823
tp824
a(V$std
p825
V27
p826
tp827
a(V$p
p828
V9
p829
tp830
a(V$high
p831
V2.03961
p832
tp833
aV2015-11-05 22:49:06
p834
tp835
a(g326
V(((1/6)27)((1/6)(5/6)27))^.5
p836
(lp837
(S'R.0.0'
p838
F4.5
V27*1/6
p839
V(1/6)27
p840
tp841
aVc1sorian
p842
(lp843
(V$n
p844
V0.166667
p845
tp846
a(V$nc
p847
V4.5
p848
tp849
a(V$corr
p850
V0
p851
tp852
a(V$ans
p853
V0.00889915
p854
tp855
a(V$a
p856
V6
p857
tp858
a(V$mean
p859
V12
p860
tp861
a(V$low
p862
V10
p863
tp864
a(V$x
p865
V0.00889915
p866
tp867
a(V$phi
p868
V27
p869
tp870
a(V$std
p871
V28
p872
tp873
a(V$p
p874
V8
p875
tp876
a(V$high
p877
V1.93649
p878
tp879
aV2015-11-06 03:58:17
p880
tp881
a(Vsqrt(21*1/6*(1-1/6))
p882
Vsqrt(3.5/20)
p883
(lp884
(S'R.0.0'
p885
F3.5
V21*1/6
p886
V3.5
p887
tp888
aVc3chung
p889
(lp890
(V$n
p891
V0.166667
p892
tp893
a(V$nc
p894
V3.5
p895
tp896
a(V$corr
p897
V0
p898
tp899
a(V$ans
p900
V0.00424356
p901
tp902
a(V$a
p903
V6
p904
tp905
a(V$mean
p906
V11
p907
tp908
a(V$low
p909
V9
p910
tp911
a(V$x
p912
V0.00424356
p913
tp914
a(V$phi
p915
V21
p916
tp917
a(V$std
p918
V22
p919
tp920
a(V$p
p921
V7
p922
tp923
a(V$high
p924
V1.70783
p925
tp926
aV2015-11-06 11:07:44
p927
tp928
a(g882
Vsqrt(3.5/8)
p929
(lp930
(S'R.0.0'
p931
F3.5
V21*1/6
p932
V3.5
p933
tp934
aVc3chung
p935
g890
V2015-11-06 11:07:54
p936
tp937
a(g882
Vsqrt(3.5/21)
p938
(lp939
(S'R.0.0'
p940
F3.5
V21*1/6
p941
V3.5
p942
tp943
aVc3chung
p944
g890
V2015-11-06 11:08:03
p945
tp946
a(Vsqrt(29*1/6*(1-1/6))
p947
Vsqrt((29/6) * 0.75)
p948
(lp949
(S'R.0.0'
p950
F4.833333333333333
V29*1/6
p951
V29/6
p952
tp953
aVjhw015
p954
(lp955
(V$n
p956
V0.166667
p957
tp958
a(V$nc
p959
V4.83333
p960
tp961
a(V$corr
p962
V0
p963
tp964
a(V$ans
p965
V0.015386
p966
tp967
a(V$a
p968
V6
p969
tp970
a(V$mean
p971
V12
p972
tp973
a(V$low
p974
V10
p975
tp976
a(V$x
p977
V0.015386
p978
tp979
a(V$phi
p980
V29
p981
tp982
a(V$std
p983
V30
p984
tp985
a(V$p
p986
V8
p987
tp988
a(V$high
p989
V2.00693
p990
tp991
aV2015-11-06 19:14:51
p992
tp993
a(Vsqrt(27*1/5*(1-1/5))
p994
V((5.4)-11)^2
p995
(lp996
(S'R.0.0'
p997
F5.4
V27*1/5
p998
V5.4
p999
tp1000
aVedcole
p1001
(lp1002
(V$n
p1003
V0.2
p1004
tp1005
a(V$nc
p1006
V5.4
p1007
tp1008
a(V$corr
p1009
V0
p1010
tp1011
a(V$ans
p1012
V0.0109723
p1013
tp1014
a(V$a
p1015
V5
p1016
tp1017
a(V$mean
p1018
V13
p1019
tp1020
a(V$low
p1021
V11
p1022
tp1023
a(V$x
p1024
V0.0109723
p1025
tp1026
a(V$phi
p1027
V27
p1028
tp1029
a(V$std
p1030
V28
p1031
tp1032
a(V$p
p1033
V9
p1034
tp1035
a(V$high
p1036
V2.07846
p1037
tp1038
aV2015-11-06 23:48:44
p1039
tp1040
a(Vsqrt(26*1/6*(1-1/6))
p1041
Vsqrt((26/6)/6)
p1042
(lp1043
(S'R.0.0'
p1044
F4.333333333333333
V26*1/6
p1045
V26/6
p1046
tp1047
aVsthapa
p1048
(lp1049
(V$n
p1050
V0.166667
p1051
tp1052
a(V$nc
p1053
V4.33333
p1054
tp1055
a(V$corr
p1056
V0
p1057
tp1058
a(V$ans
p1059
V0.000436364
p1060
tp1061
a(V$a
p1062
V6
p1063
tp1064
a(V$mean
p1065
V12
p1066
tp1067
a(V$low
p1068
V12
p1069
tp1070
a(V$x
p1071
V0.000436364
p1072
tp1073
a(V$phi
p1074
V26
p1075
tp1076
a(V$std
p1077
V27
p1078
tp1079
a(V$p
p1080
V8
p1081
tp1082
a(V$high
p1083
V1.90029
p1084
tp1085
aV2015-11-07 00:38:38
p1086
tp1087
a(Vsqrt(30*1/4*(1-1/4))
p1088
Vsqrt(7.5*5)
p1089
(lp1090
(S'R.0.0'
p1091
F7.5
V30*1/4
p1092
V7.5
p1093
tp1094
aVagian
p1095
(lp1096
(V$n
p1097
V0.25
p1098
tp1099
a(V$nc
p1100
V7.5
p1101
tp1102
a(V$corr
p1103
V0
p1104
tp1105
a(V$ans
p1106
V0.00274953
p1107
tp1108
a(V$a
p1109
V4
p1110
tp1111
a(V$mean
p1112
V15
p1113
tp1114
a(V$low
p1115
V15
p1116
tp1117
a(V$x
p1118
V0.00274953
p1119
tp1120
a(V$phi
p1121
V30
p1122
tp1123
a(V$std
p1124
V31
p1125
tp1126
a(V$p
p1127
V11
p1128
tp1129
a(V$high
p1130
V2.37171
p1131
tp1132
aV2015-11-07 00:44:23
p1133
tp1134
a(g1088
Vsqrt(7.5*4)
p1135
(lp1136
(S'R.0.0'
p1137
F7.5
V30*1/4
p1138
V7.5
p1139
tp1140
aVagian
p1141
g1096
V2015-11-07 00:44:28
p1142
tp1143
a(g484
Vsqrt((30/6)(1-(1/180)))
p1144
(lp1145
(S'R.0.0'
p1146
F5.0
V30*1/6
p1147
V30/6
p1148
tp1149
aVmjethani
p1150
(lp1151
(V$n
p1152
V0.166667
p1153
tp1154
a(V$nc
p1155
V5
p1156
tp1157
a(V$corr
p1158
V0
p1159
tp1160
a(V$ans
p1161
V0.00674539
p1162
tp1163
a(V$a
p1164
V6
p1165
tp1166
a(V$mean
p1167
V13
p1168
tp1169
a(V$low
p1170
V11
p1171
tp1172
a(V$x
p1173
V0.00674539
p1174
tp1175
a(V$phi
p1176
V30
p1177
tp1178
a(V$std
p1179
V31
p1180
tp1181
a(V$p
p1182
V9
p1183
tp1184
a(V$high
p1185
V2.04124
p1186
tp1187
aV2015-11-07 00:57:42
p1188
tp1189
a(g484
Vsqrt((30/6)(1-(1/5)))
p1190
(lp1191
(S'R.0.0'
p1192
F5.0
V30*1/6
p1193
V30/6
p1194
tp1195
aVmjethani
p1196
g1151
V2015-11-07 00:59:34
p1197
tp1198
asS"['R.0.0', 'R.0.1']"
p1199
(lp1200
(Vsqrt(30*1/4*(1-1/4))
p1201
V((30*.25)-.75)^(1/2)
p1202
(lp1203
(S'R.0.0'
p1204
F7.5
V30*1/4
p1205
V30*.25)
p1206
tp1207
a(S'R.0.1'
p1208
F0.75
V1-1/4
p1209
V.75)
p1210
tp1211
aVlahawkin
p1212
(lp1213
(V$n
p1214
V0.25
p1215
tp1216
a(V$nc
p1217
V7.5
p1218
tp1219
a(V$corr
p1220
V0
p1221
tp1222
a(V$ans
p1223
V0.105728
p1224
tp1225
a(V$a
p1226
V4
p1227
tp1228
a(V$mean
p1229
V15
p1230
tp1231
a(V$low
p1232
V11
p1233
tp1234
a(V$x
p1235
V0.105728
p1236
tp1237
a(V$phi
p1238
V30
p1239
tp1240
a(V$std
p1241
V31
p1242
tp1243
a(V$p
p1244
V11
p1245
tp1246
a(V$high
p1247
V2.37171
p1248
tp1249
aV2015-11-05 19:41:05
p1250
tp1251
asS'redirect'
p1252
(lp1253
(g256
V(10/22)^2
p1254
tp1255
a(g256
V(((-6)^2+(-5)^2+(-4)^2+(-3)^2+(-2)^2+1+0+1+4+9+16+25+36)/(13))^(0.5)
p1256
tp1257
a(g277
VPhi(7)
p1258
tp1259
a(g277
V1-Phi(7)
p1260
tp1261
a(g277
V1/7
p1262
tp1263
a(g277
V28(1/7)
p1264
tp1265
a(Vsqrt(23*1/6*(1-1/6))
p1266
VPhi(9/(23*6))
p1267
tp1268
a(g256
V(11(.25))
p1269
tp1270
a(Vsqrt(26*1/5*(1-1/5))
p1271
V4.3
p1272
tp1273
a(Vsqrt(30*1/4*(1-1/4))
p1274
V0.5
p1275
tp1276
a(Vsqrt(28*1/6*(1-1/6))
p1277
V(28*0.5)**0.5
p1278
tp1279
a(g256
V(11/2)(.25)
p1280
tp1281
a(g256
V(((10-11/2)^(2)+(11-11/2)^(2)+(12-11/2)^(2)+(13-11/2)^(2)+(14-11/2)^(2)+(15-11/2)^(2)+(16-11/2)^(2)+(17-11/2)^(2)+(18-11/2)^(2)+(19-11/2)^(2)+(20-11/2)^(2)+(21-11/2)^(2)+(22-11/2)^(2))/(11))^(0.5)
p1282
tp1283
a(g256
V(242-(5.5)^2)^(0.5)
p1284
tp1285
a(g256
V(11/2)(0.25)
p1286
tp1287
a(Vsqrt(21*1/4*(1-1/4))
p1288
V231/2
p1289
tp1290
a(Vsqrt(24*1/5*(1-1/5))
p1291
Vsqrt((4/25)/(24))
p1292
tp1293
a(g450
Vsqrt(1/4*30)
p1294
tp1295
a(Vsqrt(26*1/5*(1-1/5))
p1296
Vsqrt(20.84/6)
p1297
tp1298
a(g1041
Vsqrt(20.84/6)
p1299
tp1300
asS"['R.0']"
p1301
(lp1302
(g249
V(26*0.8*0.2)*0.5
p1303
(lp1304
(S'R.0'
p1305
F4.16
V26*1/5*(1-1/5)
p1306
V26*0.8*0.2
p1307
tp1308
aVz2tan
p1309
(lp1310
(V$n
p1311
V0.2
p1312
tp1313
a(V$nc
p1314
V5.2
p1315
tp1316
a(V$corr
p1317
V0
p1318
tp1319
a(V$ans
p1320
V0.00234303
p1321
tp1322
a(V$a
p1323
V5
p1324
tp1325
a(V$mean
p1326
V13
p1327
tp1328
a(V$low
p1329
V12
p1330
tp1331
a(V$x
p1332
V0.00234303
p1333
tp1334
a(V$phi
p1335
V26
p1336
tp1337
a(V$std
p1338
V27
p1339
tp1340
a(V$p
p1341
V9
p1342
tp1343
a(V$high
p1344
V2.03961
p1345
tp1346
aV2015-11-02 05:56:28
p1347
tp1348
a(Vsqrt(27*1/4*(1-1/4))
p1349
V(27(.25)(.75))^2
p1350
(lp1351
(S'R.0'
p1352
F5.0625
V27*1/4*(1-1/4)
p1353
V27(.25)(.75)
p1354
tp1355
aVdjk006
p1356
(lp1357
(V$n
p1358
V0.25
p1359
tp1360
a(V$nc
p1361
V6.75
p1362
tp1363
a(V$corr
p1364
V0
p1365
tp1366
a(V$ans
p1367
V0.00244997
p1368
tp1369
a(V$a
p1370
V4
p1371
tp1372
a(V$mean
p1373
V14
p1374
tp1375
a(V$low
p1376
V14
p1377
tp1378
a(V$x
p1379
V0.00244997
p1380
tp1381
a(V$phi
p1382
V27
p1383
tp1384
a(V$std
p1385
V28
p1386
tp1387
a(V$p
p1388
V10
p1389
tp1390
a(V$high
p1391
V2.25
p1392
tp1393
aV2015-11-04 02:13:53
p1394
tp1395
a(Vsqrt(29*1/5*(1-1/5))
p1396
V(29(1/5)*(4/5))^2
p1397
(lp1398
(S'R.0'
p1399
F4.64
V29*1/5*(1-1/5)
p1400
V29(1/5)*(4/5)
p1401
tp1402
aVakalathi
p1403
(lp1404
(V$n
p1405
V0.2
p1406
tp1407
a(V$nc
p1408
V5.8
p1409
tp1410
a(V$corr
p1411
V0
p1412
tp1413
a(V$ans
p1414
V0.00694029
p1415
tp1416
a(V$a
p1417
V5
p1418
tp1419
a(V$mean
p1420
V13
p1421
tp1422
a(V$low
p1423
V12
p1424
tp1425
a(V$x
p1426
V0.00694029
p1427
tp1428
a(V$phi
p1429
V29
p1430
tp1431
a(V$std
p1432
V30
p1433
tp1434
a(V$p
p1435
V9
p1436
tp1437
a(V$high
p1438
V2.15407
p1439
tp1440
aV2015-11-04 06:33:05
p1441
tp1442
a(Vsqrt(23*1/6*(1-1/6))
p1443
V(23*5/36)^1/2
p1444
(lp1445
(S'R.0'
p1446
F3.1944444444444446
V23*1/6*(1-1/6)
p1447
V(23*5/36)^1
p1448
tp1449
aVaakumar
p1450
(lp1451
(V$n
p1452
V0.166667
p1453
tp1454
a(V$nc
p1455
V3.83333
p1456
tp1457
a(V$corr
p1458
V0
p1459
tp1460
a(V$ans
p1461
V0.0749175
p1462
tp1463
a(V$a
p1464
V6
p1465
tp1466
a(V$mean
p1467
V11
p1468
tp1469
a(V$low
p1470
V7
p1471
tp1472
a(V$x
p1473
V0.0749175
p1474
tp1475
a(V$phi
p1476
V23
p1477
tp1478
a(V$std
p1479
V24
p1480
tp1481
a(V$p
p1482
V7
p1483
tp1484
a(V$high
p1485
V1.7873
p1486
tp1487
aV2015-11-05 05:23:13
p1488
tp1489
a(g1201
V((30*.25)*.75)^1/2
p1490
(lp1491
(S'R.0'
p1492
F5.625
V30*1/4*(1-1/4)
p1493
V((30*.25)*.75)^1
p1494
tp1495
aVlahawkin
p1496
g1213
V2015-11-05 19:24:47
p1497
tp1498
a(Vsqrt(22*1/6*(1-1/6))
p1499
V(22/6*(1-1/6))^1/2
p1500
(lp1501
(S'R.0'
p1502
F3.0555555555555554
V22*1/6*(1-1/6)
p1503
V(22/6*(1-1/6))^1
p1504
tp1505
aVanislam
p1506
(lp1507
(V$n
p1508
V0.166667
p1509
tp1510
a(V$nc
p1511
V3.66667
p1512
tp1513
a(V$corr
p1514
V0
p1515
tp1516
a(V$ans
p1517
V0.00613079
p1518
tp1519
a(V$a
p1520
V6
p1521
tp1522
a(V$mean
p1523
V11
p1524
tp1525
a(V$low
p1526
V9
p1527
tp1528
a(V$x
p1529
V0.00613079
p1530
tp1531
a(V$phi
p1532
V22
p1533
tp1534
a(V$std
p1535
V23
p1536
tp1537
a(V$p
p1538
V7
p1539
tp1540
a(V$high
p1541
V1.74801
p1542
tp1543
aV2015-11-05 23:43:32
p1544
tp1545
a(g394
V((1/4) * 28 (1-1/4))^1/2
p1546
(lp1547
(S'R.0'
p1548
F5.25
V28*1/4*(1-1/4)
p1549
V((1/4) * 28 (1-1/4))^1
p1550
tp1551
aVdgunawan
p1552
(lp1553
(V$n
p1554
V0.25
p1555
tp1556
a(V$nc
p1557
V7
p1558
tp1559
a(V$corr
p1560
V0
p1561
tp1562
a(V$ans
p1563
V0.0112373
p1564
tp1565
a(V$a
p1566
V4
p1567
tp1568
a(V$mean
p1569
V15
p1570
tp1571
a(V$low
p1572
V13
p1573
tp1574
a(V$x
p1575
V0.0112373
p1576
tp1577
a(V$phi
p1578
V28
p1579
tp1580
a(V$std
p1581
V29
p1582
tp1583
a(V$p
p1584
V11
p1585
tp1586
a(V$high
p1587
V2.29129
p1588
tp1589
aV2015-11-06 00:12:34
p1590
tp1591
a(Vsqrt(23*1/4*(1-1/4))
p1592
V(1/4 * (1 - 1/4 ) * 23 )^1/2
p1593
(lp1594
(S'R.0'
p1595
F4.3125
V23*1/4*(1-1/4)
p1596
V(1/4 * (1 - 1/4 ) * 23 )^1
p1597
tp1598
aVyos017
p1599
(lp1600
(V$n
p1601
V0.25
p1602
tp1603
a(V$nc
p1604
V5.75
p1605
tp1606
a(V$corr
p1607
V0
p1608
tp1609
a(V$ans
p1610
V0.0148581
p1611
tp1612
a(V$a
p1613
V4
p1614
tp1615
a(V$mean
p1616
V13
p1617
tp1618
a(V$low
p1619
V11
p1620
tp1621
a(V$x
p1622
V0.0148581
p1623
tp1624
a(V$phi
p1625
V23
p1626
tp1627
a(V$std
p1628
V24
p1629
tp1630
a(V$p
p1631
V9
p1632
tp1633
a(V$high
p1634
V2.07666
p1635
tp1636
aV2015-11-06 08:32:20
p1637
tp1638
a(Vsqrt(21*1/5*(1-1/5))
p1639
V(21*1/5*4/5)^1/2
p1640
(lp1641
(S'R.0'
p1642
F3.3600000000000003
V21*1/5*(1-1/5)
p1643
V(21*1/5*4/5)^1
p1644
tp1645
aVcfgutier
p1646
(lp1647
(V$n
p1648
V0.2
p1649
tp1650
a(V$nc
p1651
V4.2
p1652
tp1653
a(V$corr
p1654
V0
p1655
tp1656
a(V$ans
p1657
V0.000194066
p1658
tp1659
a(V$a
p1660
V5
p1661
tp1662
a(V$mean
p1663
V12
p1664
tp1665
a(V$low
p1666
V12
p1667
tp1668
a(V$x
p1669
V0.000194066
p1670
tp1671
a(V$phi
p1672
V21
p1673
tp1674
a(V$std
p1675
V22
p1676
tp1677
a(V$p
p1678
V8
p1679
tp1680
a(V$high
p1681
V1.83303
p1682
tp1683
aV2015-11-06 20:12:44
p1684
tp1685
a(g1639
V(21*(1/5)*(4/5))^1/2
p1686
(lp1687
(S'R.0'
p1688
F3.3600000000000003
V21*1/5*(1-1/5)
p1689
V(21*(1/5)*(4/5))^1
p1690
tp1691
aVcfgutier
p1692
g1647
V2015-11-06 20:13:09
p1693
tp1694
a(Vsqrt(24*1/6*(1-1/6))
p1695
V[24(1/6)(1-1/6)]^1/2
p1696
(lp1697
(S'R.0'
p1698
F3.3333333333333335
V24*1/6*(1-1/6)
p1699
V[24(1/6)(1-1/6)]^1
p1700
tp1701
aVasp025
p1702
(lp1703
(V$n
p1704
V0.166667
p1705
tp1706
a(V$nc
p1707
V4
p1708
tp1709
a(V$corr
p1710
V0
p1711
tp1712
a(V$ans
p1713
V0.000169699
p1714
tp1715
a(V$a
p1716
V6
p1717
tp1718
a(V$mean
p1719
V12
p1720
tp1721
a(V$low
p1722
V12
p1723
tp1724
a(V$x
p1725
V0.000169699
p1726
tp1727
a(V$phi
p1728
V24
p1729
tp1730
a(V$std
p1731
V25
p1732
tp1733
a(V$p
p1734
V8
p1735
tp1736
a(V$high
p1737
V1.82574
p1738
tp1739
aV2015-11-06 22:57:43
p1740
tp1741
asg201
(lp1742
(Vsqrt(20*1/5*(1-1/5))
p1743
V(1/5)(20+4)^2 - ((1/5)(20+4))^2
p1744
tp1745
a(g399
V1-30/4
p1746
tp1747
a(Vsqrt(30*1/4*(1-1/4))
p1748
V30*(1*(1/4)+0*(3/4)) - (30*(1*(1/4)+0*(3/4)))^2
p1749
tp1750
a(g1288
V21*[21/4]*[1-21/4]
p1751
tp1752
a(g1499
V(22/6*(1-6))^1/2
p1753
tp1754
a(Vsqrt(21*1/5*(1-1/5))
p1755
V(.2*21) * (1 - .2 * 21) * 21
p1756
tp1757
a(Vsqrt(27*1/5*(1-1/5))
p1758
V27/5-(27*(1/5))^2
p1759
tp1760
asS"['R.0.0.0.0']"
p1761
(lp1762
(g303
V(25(1/6)(1-(1/6)))^1/2
p1763
(lp1764
(S'R.0.0.0.0'
p1765
F25.0
V25
p1766
V25
p1767
tp1768
aVmitopete
p1769
(lp1770
(V$n
p1771
V0.166667
p1772
tp1773
a(V$nc
p1774
V4.16667
p1775
tp1776
a(V$corr
p1777
V0
p1778
tp1779
a(V$ans
p1780
V0.0157074
p1781
tp1782
a(V$a
p1783
V6
p1784
tp1785
a(V$mean
p1786
V12
p1787
tp1788
a(V$low
p1789
V9
p1790
tp1791
a(V$x
p1792
V0.0157074
p1793
tp1794
a(V$phi
p1795
V25
p1796
tp1797
a(V$std
p1798
V26
p1799
tp1800
a(V$p
p1801
V8
p1802
tp1803
a(V$high
p1804
V1.86339
p1805
tp1806
aV2015-11-04 05:09:08
p1807
tp1808
a(g1201
V((30*.25)^2-(30*(.25^2))^2)^(1/2)
p1809
(lp1810
(S'R.0.0.0.0'
p1811
F30.0
V30
p1812
V30
p1813
tp1814
aVlahawkin
p1815
g1213
V2015-11-04 17:23:49
p1816
tp1817
a(g373
Vsqrt((28^2/6) - ((28/6) ^ 2))
p1818
(lp1819
(S'R.0.0.0.0'
p1820
F28.0
V28
p1821
V28
p1822
tp1823
aVbeyounge
p1824
(lp1825
(V$n
p1826
V0.166667
p1827
tp1828
a(V$nc
p1829
V4.66667
p1830
tp1831
a(V$corr
p1832
V0
p1833
tp1834
a(V$ans
p1835
V0.0332631
p1836
tp1837
a(V$a
p1838
V6
p1839
tp1840
a(V$mean
p1841
V12
p1842
tp1843
a(V$low
p1844
V9
p1845
tp1846
a(V$x
p1847
V0.0332631
p1848
tp1849
a(V$phi
p1850
V28
p1851
tp1852
a(V$std
p1853
V29
p1854
tp1855
a(V$p
p1856
V8
p1857
tp1858
a(V$high
p1859
V1.97203
p1860
tp1861
aV2015-11-05 06:20:53
p1862
tp1863
a(g373
Vsqrt(((28/3)^2) - ((28/6) ^ 2))
p1864
(lp1865
(S'R.0.0.0.0'
p1866
F28.0
V28
p1867
V28
p1868
tp1869
aVbeyounge
p1870
g1825
V2015-11-05 06:25:09
p1871
tp1872
a(g373
Vsqrt(((28/2) ^ 2)- ((28/6) ^ 2))
p1873
(lp1874
(S'R.0.0.0.0'
p1875
F28.0
V28
p1876
V28
p1877
tp1878
aVbeyounge
p1879
g1825
V2015-11-05 06:28:52
p1880
tp1881
a(g373
Vsqrt(((28^2)/6)- ((28/6) ^ 2))
p1882
(lp1883
(S'R.0.0.0.0'
p1884
F28.0
V28
p1885
V28
p1886
tp1887
aVbeyounge
p1888
g1825
V2015-11-05 06:32:10
p1889
tp1890
a(g373
Vsqrt(((28^3)/36) - ((28/6)^2))
p1891
(lp1892
(S'R.0.0.0.0'
p1893
F28.0
V28
p1894
V28
p1895
tp1896
aVbeyounge
p1897
g1825
V2015-11-05 06:57:17
p1898
tp1899
a(g373
Vsqrt((28^2/6) - ((28/6)^2))
p1900
(lp1901
(S'R.0.0.0.0'
p1902
F28.0
V28
p1903
V28
p1904
tp1905
aVbeyounge
p1906
g1825
V2015-11-05 07:00:00
p1907
tp1908
a(g697
Vsqrt((0-3.5)^2+(1-3.5)^2+(2-3.5)^2+(3-3.5)^2+(4-3.5)^2+(5-3.5)^2+(6-3.5)^2)
p1909
(lp1910
(S'R.0.0.0.0'
p1911
F21.0
V21
p1912
V(0-3.5)^2+(1-3.5)^2+(2-3.5)^2+(3-3.5)^2
p1913
tp1914
aVbakang
p1915
g705
V2015-11-05 09:15:17
p1916
tp1917
a(g399
Vsqrt((30^2/4)-(30/4)^2)
p1918
(lp1919
(S'R.0.0.0.0'
p1920
F30.0
V30
p1921
V30
p1922
tp1923
aVj2phung
p1924
(lp1925
(V$n
p1926
V0.25
p1927
tp1928
a(V$nc
p1929
V7.5
p1930
tp1931
a(V$corr
p1932
V0
p1933
tp1934
a(V$ans
p1935
V0.105728
p1936
tp1937
a(V$a
p1938
V4
p1939
tp1940
a(V$mean
p1941
V15
p1942
tp1943
a(V$low
p1944
V11
p1945
tp1946
a(V$x
p1947
V0.105728
p1948
tp1949
a(V$phi
p1950
V30
p1951
tp1952
a(V$std
p1953
V31
p1954
tp1955
a(V$p
p1956
V11
p1957
tp1958
a(V$high
p1959
V2.37171
p1960
tp1961
aV2015-11-05 10:02:21
p1962
tp1963
a(g1201
V(((30*.25)-11)^2)^(1/2)
p1964
(lp1965
(S'R.0.0.0.0'
p1966
F30.0
V30
p1967
V30
p1968
tp1969
aVlahawkin
p1970
g1213
V2015-11-05 19:42:26
p1971
tp1972
a(Vsqrt(24*1/4*(1-1/4))
p1973
Vsqrt((24-6)^2)/4
p1974
(lp1975
(S'R.0.0.0.0'
p1976
F24.0
V24
p1977
V24
p1978
tp1979
aVt2shin
p1980
(lp1981
(V$n
p1982
V0.25
p1983
tp1984
a(V$nc
p1985
V6
p1986
tp1987
a(V$corr
p1988
V0
p1989
tp1990
a(V$ans
p1991
V0.00209405
p1992
tp1993
a(V$a
p1994
V4
p1995
tp1996
a(V$mean
p1997
V14
p1998
tp1999
a(V$low
p2000
V13
p2001
tp2002
a(V$x
p2003
V0.00209405
p2004
tp2005
a(V$phi
p2006
V24
p2007
tp2008
a(V$std
p2009
V25
p2010
tp2011
a(V$p
p2012
V10
p2013
tp2014
a(V$high
p2015
V2.12132
p2016
tp2017
aV2015-11-05 21:40:54
p2018
tp2019
a(g1973
Vsqrt(((24-6)^2)/4)
p2020
(lp2021
(S'R.0.0.0.0'
p2022
F24.0
V24
p2023
V24
p2024
tp2025
aVt2shin
p2026
g1981
V2015-11-05 21:41:07
p2027
tp2028
asS'Fraction'
p2029
(lp2030
(g246
V10.8167
p2031
tp2032
asS"['R.0.1']"
p2033
(lp2034
(Vsqrt(25*1/5*(1-1/5))
p2035
Vsqrt(25*5*(1-(1/5)))
p2036
(lp2037
(S'R.0.1'
p2038
F0.8
V1-1/5
p2039
V1-(1/5)
p2040
tp2041
aVrlhagen
p2042
(lp2043
(V$n
p2044
V0.2
p2045
tp2046
a(V$nc
p2047
V5
p2048
tp2049
a(V$corr
p2050
V0
p2051
tp2052
a(V$ans
p2053
V0.0173319
p2054
tp2055
a(V$a
p2056
V5
p2057
tp2058
a(V$mean
p2059
V13
p2060
tp2061
a(V$low
p2062
V10
p2063
tp2064
a(V$x
p2065
V0.0173319
p2066
tp2067
a(V$phi
p2068
V25
p2069
tp2070
a(V$std
p2071
V26
p2072
tp2073
a(V$p
p2074
V9
p2075
tp2076
a(V$high
p2077
V2
p2078
tp2079
aV2015-10-31 19:20:02
p2080
tp2081
a(g230
Vsqrt( (27*6)* (1-1/6) )
p2082
(lp2083
(S'R.0.1'
p2084
F0.8333333333333334
V1-1/6
p2085
V1-1/6
p2086
tp2087
aVany027
p2088
(lp2089
(V$n
p2090
V0.166667
p2091
tp2092
a(V$nc
p2093
V4.5
p2094
tp2095
a(V$corr
p2096
V0
p2097
tp2098
a(V$ans
p2099
V0.0026105
p2100
tp2101
a(V$a
p2102
V6
p2103
tp2104
a(V$mean
p2105
V12
p2106
tp2107
a(V$low
p2108
V11
p2109
tp2110
a(V$x
p2111
V0.0026105
p2112
tp2113
a(V$phi
p2114
V27
p2115
tp2116
a(V$std
p2117
V28
p2118
tp2119
a(V$p
p2120
V8
p2121
tp2122
a(V$high
p2123
V1.93649
p2124
tp2125
aV2015-11-01 22:08:54
p2126
tp2127
a(g265
V((1/4)(1-(1/4)))**(.5)
p2128
(lp2129
(S'R.0.1'
p2130
F0.75
V1-1/4
p2131
V1-(1/4)
p2132
tp2133
aVtcuddy
p2134
(lp2135
(V$n
p2136
V0.25
p2137
tp2138
a(V$nc
p2139
V6
p2140
tp2141
a(V$corr
p2142
V0
p2143
tp2144
a(V$ans
p2145
V0.00209405
p2146
tp2147
a(V$a
p2148
V4
p2149
tp2150
a(V$mean
p2151
V14
p2152
tp2153
a(V$low
p2154
V13
p2155
tp2156
a(V$x
p2157
V0.00209405
p2158
tp2159
a(V$phi
p2160
V24
p2161
tp2162
a(V$std
p2163
V25
p2164
tp2165
a(V$p
p2166
V10
p2167
tp2168
a(V$high
p2169
V2.12132
p2170
tp2171
aV2015-11-03 18:30:54
p2172
tp2173
a(g271
Vsqrt((.20*.80))
p2174
(lp2175
(S'R.0.1'
p2176
F0.8
V1-1/5
p2177
V.80
p2178
tp2179
aVpvl001
p2180
g499
V2015-11-03 21:41:03
p2181
tp2182
a(Vsqrt(25*1/6*(1-1/6))
p2183
V[(1/6)(5/6)]^2
p2184
(lp2185
(S'R.0.1'
p2186
F0.8333333333333334
V1-1/6
p2187
V5/6
p2188
tp2189
aVqtluong
p2190
(lp2191
(V$n
p2192
V0.166667
p2193
tp2194
a(V$nc
p2195
V4.16667
p2196
tp2197
a(V$corr
p2198
V0
p2199
tp2200
a(V$ans
p2201
V0.0157074
p2202
tp2203
a(V$a
p2204
V6
p2205
tp2206
a(V$mean
p2207
V12
p2208
tp2209
a(V$low
p2210
V9
p2211
tp2212
a(V$x
p2213
V0.0157074
p2214
tp2215
a(V$phi
p2216
V25
p2217
tp2218
a(V$std
p2219
V26
p2220
tp2221
a(V$p
p2222
V8
p2223
tp2224
a(V$high
p2225
V1.86339
p2226
tp2227
aV2015-11-04 06:31:41
p2228
tp2229
a(g1396
V((1/5)*(4/5))^2
p2230
(lp2231
(S'R.0.1'
p2232
F0.8
V1-1/5
p2233
V4/5
p2234
tp2235
aVakalathi
p2236
g1404
V2015-11-04 06:31:58
p2237
tp2238
a(Vsqrt(28*1/6*(1-1/6))
p2239
Vsqrt((1/6) * (5/6))
p2240
(lp2241
(S'R.0.1'
p2242
F0.8333333333333334
V1-1/6
p2243
V5/6
p2244
tp2245
aVklala
p2246
(lp2247
(V$n
p2248
V0.166667
p2249
tp2250
a(V$nc
p2251
V4.66667
p2252
tp2253
a(V$corr
p2254
V0
p2255
tp2256
a(V$ans
p2257
V0.000990697
p2258
tp2259
a(V$a
p2260
V6
p2261
tp2262
a(V$mean
p2263
V12
p2264
tp2265
a(V$low
p2266
V12
p2267
tp2268
a(V$x
p2269
V0.000990697
p2270
tp2271
a(V$phi
p2272
V28
p2273
tp2274
a(V$std
p2275
V29
p2276
tp2277
a(V$p
p2278
V8
p2279
tp2280
a(V$high
p2281
V1.97203
p2282
tp2283
aV2015-11-05 06:35:20
p2284
tp2285
a(Vsqrt(24*1/6*(1-1/6))
p2286
Vsqrt(1/6*(1-1/6))
p2287
(lp2288
(S'R.0.1'
p2289
F0.8333333333333334
V1-1/6
p2290
V1-1/6
p2291
tp2292
aVctroncos
p2293
(lp2294
(V$n
p2295
V0.166667
p2296
tp2297
a(V$nc
p2298
V4
p2299
tp2300
a(V$corr
p2301
V0
p2302
tp2303
a(V$ans
p2304
V0.00333905
p2305
tp2306
a(V$a
p2307
V6
p2308
tp2309
a(V$mean
p2310
V12
p2311
tp2312
a(V$low
p2313
V10
p2314
tp2315
a(V$x
p2316
V0.00333905
p2317
tp2318
a(V$phi
p2319
V24
p2320
tp2321
a(V$std
p2322
V25
p2323
tp2324
a(V$p
p2325
V8
p2326
tp2327
a(V$high
p2328
V1.82574
p2329
tp2330
aV2015-11-05 17:11:40
p2331
tp2332
a(Vsqrt(21*1/6*(1-1/6))
p2333
V(1/6)*(5/6)*21
p2334
(lp2335
(S'R.0.1'
p2336
F0.8333333333333334
V1-1/6
p2337
V5/6
p2338
tp2339
aVhpc001
p2340
(lp2341
(V$n
p2342
V0.166667
p2343
tp2344
a(V$nc
p2345
V3.5
p2346
tp2347
a(V$corr
p2348
V0
p2349
tp2350
a(V$ans
p2351
V0.0479195
p2352
tp2353
a(V$a
p2354
V6
p2355
tp2356
a(V$mean
p2357
V11
p2358
tp2359
a(V$low
p2360
V7
p2361
tp2362
a(V$x
p2363
V0.0479195
p2364
tp2365
a(V$phi
p2366
V21
p2367
tp2368
a(V$std
p2369
V22
p2370
tp2371
a(V$p
p2372
V7
p2373
tp2374
a(V$high
p2375
V1.70783
p2376
tp2377
aV2015-11-06 23:31:11
p2378
tp2379
a(g994
V(1/5)*(4/5)*27
p2380
(lp2381
(S'R.0.1'
p2382
F0.8
V1-1/5
p2383
V4/5
p2384
tp2385
aVedcole
p2386
g1002
V2015-11-06 23:50:04
p2387
tp2388
asS"['R.0.1.1']"
p2389
(lp2390
(Vsqrt(28*1/5*(1-1/5))
p2391
Vsqrt(28*(21.16*(1/5)))
p2392
(lp2393
(S'R.0.1.1'
p2394
F0.2
V1/5
p2395
V1/5
p2396
tp2397
aVtol003
p2398
(lp2399
(V$n
p2400
V0.2
p2401
tp2402
a(V$nc
p2403
V5.6
p2404
tp2405
a(V$corr
p2406
V0
p2407
tp2408
a(V$ans
p2409
V0.0900347
p2410
tp2411
a(V$a
p2412
V5
p2413
tp2414
a(V$mean
p2415
V13
p2416
tp2417
a(V$low
p2418
V9
p2419
tp2420
a(V$x
p2421
V0.0900347
p2422
tp2423
a(V$phi
p2424
V28
p2425
tp2426
a(V$std
p2427
V29
p2428
tp2429
a(V$p
p2430
V9
p2431
tp2432
a(V$high
p2433
V2.1166
p2434
tp2435
aV2015-11-03 20:12:26
p2436
tp2437
a(g271
V(8 - (21*0.2))^2
p2438
(lp2439
(S'R.0.1.1'
p2440
F0.2
V1/5
p2441
V0.2
p2442
tp2443
aVpvl001
p2444
g499
V2015-11-03 20:52:29
p2445
tp2446
assV2
p2447
g2
(g3
tp2448
Rp2449
g6
(lp2450
(V28*1/6
p2451
V0
p2452
tp2453
a(g2451
V28
p2454
tp2455
a(g2451
V9
p2456
tp2457
a(V22*1/4
p2458
V11
p2459
tp2460
a(g2458
V44
p2461
tp2462
a(g2458
V253
p2463
tp2464
a(V30*1/6
p2465
V6
p2466
tp2467
a(V24*1/4
p2468
V24
p2469
tp2470
a(V26*1/5
p2471
V10
p2472
tp2473
a(g2458
V11
p2474
tp2475
a(g2471
V10
p2476
tp2477
a(V30*1/4
p2478
V0
p2479
tp2480
a(V27*1/4
p2481
V0
p2482
tp2483
a(V28*1/4
p2484
V0
p2485
tp2486
a(g2484
V1
p2487
tp2488
a(g2484
V14
p2489
tp2490
a(V25*1/5
p2491
V0
p2492
tp2493
a(V25*1/6
p2494
V0
p2495
tp2496
a(g2458
V3
p2497
tp2498
a(V22*1/6
p2499
V1
p2500
tp2501
a(V20*1/6
p2502
V10
p2503
tp2504
a(g2502
V2
p2505
tp2506
a(V28*1/4
p2507
V14
p2508
tp2509
a(V27*1/6
p2510
V27
p2511
tp2512
a(V28*1/4
p2513
V4
p2514
tp2515
a(g2513
V13
p2516
tp2517
a(g2513
V28
p2518
tp2519
a(V28*1/4
p2520
V14
p2521
tp2522
a(V21*1/5
p2523
V11
p2524
tp2525
a(V27*1/6
p2526
V14
p2527
tp2528
a(V23*1/4
p2529
V0
p2530
tp2531
a(V28*1/5
p2532
V14
p2533
tp2534
a(V22*1/4
p2535
V5
p2536
tp2537
a(V28*1/5
p2538
V0
p2539
tp2540
a(g2538
V9
p2541
tp2542
a(V22*1/4
p2543
V0
p2544
tp2545
a(g2543
V11
p2546
tp2547
a(g2451
V28
p2548
tp2549
a(g2451
V9
p2550
tp2551
a(V24*1/6
p2552
V11
p2553
tp2554
a(g2552
V0
p2555
tp2556
a(g2552
V1
p2557
tp2558
a(g2552
V2
p2559
tp2560
a(g2552
V3
p2561
tp2562
a(V24*1/4
p2563
V10
p2564
tp2565
a(g2563
V0
p2566
tp2567
a(V22*1/4
p2568
V11
p2569
tp2570
a(V28*1/6
p2571
V14
p2572
tp2573
a(g2571
V0
p2574
tp2575
a(V22*1/6
p2576
V0
p2577
tp2578
a(V23*1/5
p2579
V23
p2580
tp2581
a(V21*1/5
p2582
V12
p2583
tp2584
a(V24*1/5
p2585
V12
p2586
tp2587
a(V30*1/4
p2588
V30
p2589
tp2590
a(g2588
V15
p2591
tp2592
a(g2588
V451
p2593
tp2594
a(V27*1/6
p2595
V167
p2596
tp2597
a(V21*1/4
p2598
V82
p2599
tp2600
a(V30*1/4
p2601
V0
p2602
tp2603
a(g2523
V55
p2604
tp2605
a(V30*1/6
p2606
V0
p2607
tp2608
a(V24*1/4
p2609
V1
p2610
tp2611
a(g2609
V2
p2612
tp2613
a(g2609
V3
p2614
tp2615
a(g2609
V15
p2616
tp2617
a(g2609
V16
p2618
tp2619
a(g2609
V17
p2620
tp2621
a(g2609
V18
p2622
tp2623
a(g2609
V19
p2624
tp2625
a(g2609
V20
p2626
tp2627
a(g2609
V21
p2628
tp2629
a(V25*1/5
p2630
V12
p2631
tp2632
a(V26*1/4
p2633
V13
p2634
tp2635
a(V23*1/6
p2636
V23
p2637
tp2638
a(g2636
V8
p2639
tp2640
a(g2636
V6
p2641
tp2642
a(V24*1/5
p2643
V12
p2644
tp2645
a(V20*1/5
p2646
V2
p2647
tp2648
a(V30*1/5
p2649
V13
p2650
tp2651
a(V29*1/6
p2652
V0
p2653
tp2654
a(V28*1/5
p2655
V11
p2656
tp2657
a(g2655
V14
p2658
tp2659
a(V25*1/5
p2660
V25
p2661
tp2662
a(V25*1/5
p2663
V10
p2664
tp2665
a(g2663
V1
p2666
tp2667
a(g2663
V0
p2668
tp2669
a(V21*1/4
p2670
V0
p2671
tp2672
a(V24*1/6
p2673
V12
p2674
tp2675
a(g2673
V24
p2676
tp2677
a(V28*1/4
p2678
V0
p2679
tp2680
a(g2678
V14
p2681
tp2682
a(g2673
V0
p2683
tp2684
a(V29*1/4
p2685
V11
p2686
tp2687
a(g2685
V0
p2688
tp2689
asS"['R.0.0']"
p2690
(lp2691
(g2451
V(28 * 6) / 2
p2692
(lp2693
(S'R.0.0'
p2694
F28.0
V28
p2695
V28
p2696
tp2697
aVbeyounge
p2698
g1825
V2015-10-30 06:07:25
p2699
tp2700
a(g2451
V(28-9)/2
p2701
(lp2702
(S'R.0.0'
p2703
F28.0
V28
p2704
V28
p2705
tp2706
aVbeyounge
p2707
g1825
V2015-10-31 00:17:25
p2708
tp2709
a(g2451
V(28-9) / 2
p2710
(lp2711
(S'R.0.0'
p2712
F28.0
V28
p2713
V28
p2714
tp2715
aVbeyounge
p2716
g1825
V2015-11-05 05:38:42
p2717
tp2718
a(g2451
V(28 * 6) / 2
p2719
(lp2720
(S'R.0.0'
p2721
F28.0
V28
p2722
V28
p2723
tp2724
aVbeyounge
p2725
g1825
V2015-11-05 05:43:31
p2726
tp2727
a(g2523
V21/2 / 11
p2728
(lp2729
(S'R.0.0'
p2730
F21.0
V21
p2731
V21
p2732
tp2733
aVhachrist
p2734
(lp2735
(V$n
p2736
V0.2
p2737
tp2738
a(V$nc
p2739
V4.2
p2740
tp2741
a(V$corr
p2742
V0
p2743
tp2744
a(V$ans
p2745
V0.000969696
p2746
tp2747
a(V$a
p2748
V5
p2749
tp2750
a(V$mean
p2751
V12
p2752
tp2753
a(V$low
p2754
V11
p2755
tp2756
a(V$x
p2757
V0.000969696
p2758
tp2759
a(V$phi
p2760
V21
p2761
tp2762
a(V$std
p2763
V22
p2764
tp2765
a(V$p
p2766
V8
p2767
tp2768
a(V$high
p2769
V1.83303
p2770
tp2771
aV2015-11-05 20:51:20
p2772
tp2773
a(g2523
V21/5-11/5
p2774
(lp2775
(S'R.0.0'
p2776
F21.0
V21
p2777
V21
p2778
tp2779
aVhachrist
p2780
g2735
V2015-11-05 21:04:22
p2781
tp2782
a(V21*1/5
p2783
V21*(8/21)*(13/21)
p2784
(lp2785
(S'R.0.0'
p2786
F21.0
V21
p2787
V21
p2788
tp2789
aVhmshah
p2790
(lp2791
(V$n
p2792
V0.2
p2793
tp2794
a(V$nc
p2795
V4.2
p2796
tp2797
a(V$corr
p2798
V0
p2799
tp2800
a(V$ans
p2801
V0.0430526
p2802
tp2803
a(V$a
p2804
V5
p2805
tp2806
a(V$mean
p2807
V12
p2808
tp2809
a(V$low
p2810
V8
p2811
tp2812
a(V$x
p2813
V0.0430526
p2814
tp2815
a(V$phi
p2816
V21
p2817
tp2818
a(V$std
p2819
V22
p2820
tp2821
a(V$p
p2822
V8
p2823
tp2824
a(V$high
p2825
V1.83303
p2826
tp2827
aV2015-11-05 21:39:34
p2828
tp2829
asS"['R.1']"
p2830
(lp2831
(V25*1/4
p2832
V1/4
p2833
(lp2834
(S'R.1'
p2835
F4.0
V4
p2836
g2836
tp2837
aVralhadda
p2838
(lp2839
(V$n
p2840
V0.25
p2841
tp2842
a(V$nc
p2843
V6.25
p2844
tp2845
a(V$corr
p2846
V0
p2847
tp2848
a(V$ans
p2849
V0.0713283
p2850
tp2851
a(V$a
p2852
V4
p2853
tp2854
a(V$mean
p2855
V14
p2856
tp2857
a(V$low
p2858
V10
p2859
tp2860
a(V$x
p2861
V0.0713283
p2862
tp2863
a(V$phi
p2864
V25
p2865
tp2866
a(V$std
p2867
V26
p2868
tp2869
a(V$p
p2870
V10
p2871
tp2872
a(V$high
p2873
V2.16506
p2874
tp2875
aV2015-10-31 21:05:46
p2876
tp2877
a(g2468
V24*4
p2878
(lp2879
(S'R.1'
p2880
F4.0
g2836
g2836
tp2881
aVjcl084
p2882
(lp2883
(V$n
p2884
V0.25
p2885
tp2886
a(V$nc
p2887
V6
p2888
tp2889
a(V$corr
p2890
V0
p2891
tp2892
a(V$ans
p2893
V0.0546649
p2894
tp2895
a(V$a
p2896
V4
p2897
tp2898
a(V$mean
p2899
V14
p2900
tp2901
a(V$low
p2902
V10
p2903
tp2904
a(V$x
p2905
V0.0546649
p2906
tp2907
a(V$phi
p2908
V24
p2909
tp2910
a(V$std
p2911
V25
p2912
tp2913
a(V$p
p2914
V10
p2915
tp2916
a(V$high
p2917
V2.12132
p2918
tp2919
aV2015-11-02 20:17:13
p2920
tp2921
a(V23*1/5
p2922
V1/5
p2923
(lp2924
(S'R.1'
p2925
F5.0
V5
p2926
g2926
tp2927
aVyypan
p2928
(lp2929
(V$n
p2930
V0.2
p2931
tp2932
a(V$nc
p2933
V4.6
p2934
tp2935
a(V$corr
p2936
V0
p2937
tp2938
a(V$ans
p2939
V0.0715058
p2940
tp2941
a(V$a
p2942
V5
p2943
tp2944
a(V$mean
p2945
V12
p2946
tp2947
a(V$low
p2948
V8
p2949
tp2950
a(V$x
p2951
V0.0715058
p2952
tp2953
a(V$phi
p2954
V23
p2955
tp2956
a(V$std
p2957
V24
p2958
tp2959
a(V$p
p2960
V8
p2961
tp2962
a(V$high
p2963
V1.91833
p2964
tp2965
aV2015-11-03 00:34:22
p2966
tp2967
a(g2471
VC(26, 5)
p2968
(lp2969
(S'R.1'
p2970
F5.0
g2926
g2926
tp2971
aVdcastlem
p2972
(lp2973
(V$n
p2974
V0.2
p2975
tp2976
a(V$nc
p2977
V5.2
p2978
tp2979
a(V$corr
p2980
V0
p2981
tp2982
a(V$ans
p2983
V0.0232203
p2984
tp2985
a(V$a
p2986
V5
p2987
tp2988
a(V$mean
p2989
V13
p2990
tp2991
a(V$low
p2992
V10
p2993
tp2994
a(V$x
p2995
V0.0232203
p2996
tp2997
a(V$phi
p2998
V26
p2999
tp3000
a(V$std
p3001
V27
p3002
tp3003
a(V$p
p3004
V9
p3005
tp3006
a(V$high
p3007
V2.03961
p3008
tp3009
aV2015-11-03 01:11:49
p3010
tp3011
a(g2478
V(15/30)*4
p3012
(lp3013
(S'R.1'
p3014
F4.0
g2836
g2836
tp3015
aVttimmons
p3016
(lp3017
(V$n
p3018
V0.25
p3019
tp3020
a(V$nc
p3021
V7.5
p3022
tp3023
a(V$corr
p3024
V0
p3025
tp3026
a(V$ans
p3027
V0.00274953
p3028
tp3029
a(V$a
p3030
V4
p3031
tp3032
a(V$mean
p3033
V15
p3034
tp3035
a(V$low
p3036
V15
p3037
tp3038
a(V$x
p3039
V0.00274953
p3040
tp3041
a(V$phi
p3042
V30
p3043
tp3044
a(V$std
p3045
V31
p3046
tp3047
a(V$p
p3048
V11
p3049
tp3050
a(V$high
p3051
V2.37171
p3052
tp3053
aV2015-11-03 18:45:05
p3054
tp3055
a(g2458
V13*6/4
p3056
(lp3057
(S'R.1'
p3058
F4.0
g2836
g2836
tp3059
aVhkhodada
p3060
(lp3061
(V$n
p3062
V0.25
p3063
tp3064
a(V$nc
p3065
V5.5
p3066
tp3067
a(V$corr
p3068
V0
p3069
tp3070
a(V$ans
p3071
V0.0745885
p3072
tp3073
a(V$a
p3074
V4
p3075
tp3076
a(V$mean
p3077
V13
p3078
tp3079
a(V$low
p3080
V9
p3081
tp3082
a(V$x
p3083
V0.0745885
p3084
tp3085
a(V$phi
p3086
V22
p3087
tp3088
a(V$std
p3089
V23
p3090
tp3091
a(V$p
p3092
V9
p3093
tp3094
a(V$high
p3095
V2.03101
p3096
tp3097
aV2015-11-04 05:27:27
p3098
tp3099
a(V24*1/5
p3100
V24*5
p3101
(lp3102
(S'R.1'
p3103
F5.0
g2926
g2926
tp3104
aVk5law
p3105
(lp3106
(V$n
p3107
V0.2
p3108
tp3109
a(V$nc
p3110
V4.8
p3111
tp3112
a(V$corr
p3113
V0
p3114
tp3115
a(V$ans
p3116
V0.00378838
p3117
tp3118
a(V$a
p3119
V5
p3120
tp3121
a(V$mean
p3122
V12
p3123
tp3124
a(V$low
p3125
V11
p3126
tp3127
a(V$x
p3128
V0.00378838
p3129
tp3130
a(V$phi
p3131
V24
p3132
tp3133
a(V$std
p3134
V25
p3135
tp3136
a(V$p
p3137
V8
p3138
tp3139
a(V$high
p3140
V1.95959
p3141
tp3142
aV2015-11-04 08:19:19
p3143
tp3144
a(V28*1/5
p3145
V10/5
p3146
(lp3147
(S'R.1'
p3148
F5.0
g2926
g2926
tp3149
aVagoldsht
p3150
(lp3151
(V$n
p3152
V0.2
p3153
tp3154
a(V$nc
p3155
V5.6
p3156
tp3157
a(V$corr
p3158
V0
p3159
tp3160
a(V$ans
p3161
V0.0390707
p3162
tp3163
a(V$a
p3164
V5
p3165
tp3166
a(V$mean
p3167
V13
p3168
tp3169
a(V$low
p3170
V10
p3171
tp3172
a(V$x
p3173
V0.0390707
p3174
tp3175
a(V$phi
p3176
V28
p3177
tp3178
a(V$std
p3179
V29
p3180
tp3181
a(V$p
p3182
V9
p3183
tp3184
a(V$high
p3185
V2.1166
p3186
tp3187
aV2015-11-04 20:03:49
p3188
tp3189
a(V23*1/6
p3190
V9/6
p3191
(lp3192
(S'R.1'
p3193
F6.0
V6
p3194
g3194
tp3195
aVvolim
p3196
(lp3197
(V$n
p3198
V0.166667
p3199
tp3200
a(V$nc
p3201
V3.83333
p3202
tp3203
a(V$corr
p3204
V0
p3205
tp3206
a(V$ans
p3207
V0.00860217
p3208
tp3209
a(V$a
p3210
V6
p3211
tp3212
a(V$mean
p3213
V11
p3214
tp3215
a(V$low
p3216
V9
p3217
tp3218
a(V$x
p3219
V0.00860217
p3220
tp3221
a(V$phi
p3222
V23
p3223
tp3224
a(V$std
p3225
V24
p3226
tp3227
a(V$p
p3228
V7
p3229
tp3230
a(V$high
p3231
V1.7873
p3232
tp3233
aV2015-11-04 23:31:22
p3234
tp3235
a(V28*1/6
p3236
V1/6
p3237
(lp3238
(S'R.1'
p3239
F6.0
g3194
g3194
tp3240
aVaordookh
p3241
(lp3242
(V$n
p3243
V0.166667
p3244
tp3245
a(V$nc
p3246
V4.66667
p3247
tp3248
a(V$corr
p3249
V0
p3250
tp3251
a(V$ans
p3252
V0.00365861
p3253
tp3254
a(V$a
p3255
V6
p3256
tp3257
a(V$mean
p3258
V12
p3259
tp3260
a(V$low
p3261
V11
p3262
tp3263
a(V$x
p3264
V0.00365861
p3265
tp3266
a(V$phi
p3267
V28
p3268
tp3269
a(V$std
p3270
V29
p3271
tp3272
a(V$p
p3273
V8
p3274
tp3275
a(V$high
p3276
V1.97203
p3277
tp3278
aV2015-11-04 23:58:14
p3279
tp3280
a(V29*1/5
p3281
V11/5
p3282
(lp3283
(S'R.1'
p3284
F5.0
g2926
g2926
tp3285
aVkrau
p3286
(lp3287
(V$n
p3288
V0.2
p3289
tp3290
a(V$nc
p3291
V5.8
p3292
tp3293
a(V$corr
p3294
V0
p3295
tp3296
a(V$ans
p3297
V0.0197044
p3298
tp3299
a(V$a
p3300
V5
p3301
tp3302
a(V$mean
p3303
V13
p3304
tp3305
a(V$low
p3306
V11
p3307
tp3308
a(V$x
p3309
V0.0197044
p3310
tp3311
a(V$phi
p3312
V29
p3313
tp3314
a(V$std
p3315
V30
p3316
tp3317
a(V$p
p3318
V9
p3319
tp3320
a(V$high
p3321
V2.15407
p3322
tp3323
aV2015-11-05 03:12:34
p3324
tp3325
a(V29*1/5
p3326
V29*5
p3327
(lp3328
(S'R.1'
p3329
F5.0
g2926
g2926
tp3330
aVabasu
p3331
(lp3332
(V$n
p3333
V0.2
p3334
tp3335
a(V$nc
p3336
V5.8
p3337
tp3338
a(V$corr
p3339
V0
p3340
tp3341
a(V$ans
p3342
V0.00694029
p3343
tp3344
a(V$a
p3345
V5
p3346
tp3347
a(V$mean
p3348
V13
p3349
tp3350
a(V$low
p3351
V12
p3352
tp3353
a(V$x
p3354
V0.00694029
p3355
tp3356
a(V$phi
p3357
V29
p3358
tp3359
a(V$std
p3360
V30
p3361
tp3362
a(V$p
p3363
V9
p3364
tp3365
a(V$high
p3366
V2.15407
p3367
tp3368
aV2015-11-05 03:12:46
p3369
tp3370
a(g2538
V28 * 5
p3371
(lp3372
(S'R.1'
p3373
F5.0
g2926
g2926
tp3374
aVstarinia
p3375
(lp3376
(V$n
p3377
V0.2
p3378
tp3379
a(V$nc
p3380
V5.6
p3381
tp3382
a(V$corr
p3383
V0
p3384
tp3385
a(V$ans
p3386
V0.0900347
p3387
tp3388
a(V$a
p3389
V5
p3390
tp3391
a(V$mean
p3392
V13
p3393
tp3394
a(V$low
p3395
V9
p3396
tp3397
a(V$x
p3398
V0.0900347
p3399
tp3400
a(V$phi
p3401
V28
p3402
tp3403
a(V$std
p3404
V29
p3405
tp3406
a(V$p
p3407
V9
p3408
tp3409
a(V$high
p3410
V2.1166
p3411
tp3412
aV2015-11-05 04:29:06
p3413
tp3414
a(g2451
V28*6
p3415
(lp3416
(S'R.1'
p3417
F6.0
g3194
g3194
tp3418
aVbeyounge
p3419
g1825
V2015-11-05 05:43:13
p3420
tp3421
a(g2451
V9/6
p3422
(lp3423
(S'R.1'
p3424
F6.0
g3194
g3194
tp3425
aVbeyounge
p3426
g1825
V2015-11-05 06:13:27
p3427
tp3428
a(V21*1/6
p3429
V(6+15+30+15+6+1)/21*6
p3430
(lp3431
(S'R.1'
p3432
F6.0
g3194
g3194
tp3433
aVbakang
p3434
g705
V2015-11-05 08:59:21
p3435
tp3436
a(g3429
V(6+30+90+60+30+6)/21*6
p3437
(lp3438
(S'R.1'
p3439
F6.0
g3194
g3194
tp3440
aVbakang
p3441
g705
V2015-11-05 09:00:03
p3442
tp3443
a(V26*1/5
p3444
V(1+2+3+4+5+6+7+8+9+10+11+12+13+14+15+16+17+18+19+20+21+22+23+24+25+26)/5
p3445
(lp3446
(S'R.1'
p3447
F5.0
g2926
g2926
tp3448
aVj6quach
p3449
(lp3450
(V$n
p3451
V0.2
p3452
tp3453
a(V$nc
p3454
V5.2
p3455
tp3456
a(V$corr
p3457
V0
p3458
tp3459
a(V$ans
p3460
V0.00234303
p3461
tp3462
a(V$a
p3463
V5
p3464
tp3465
a(V$mean
p3466
V13
p3467
tp3468
a(V$low
p3469
V12
p3470
tp3471
a(V$x
p3472
V0.00234303
p3473
tp3474
a(V$phi
p3475
V26
p3476
tp3477
a(V$std
p3478
V27
p3479
tp3480
a(V$p
p3481
V9
p3482
tp3483
a(V$high
p3484
V2.03961
p3485
tp3486
aV2015-11-05 09:30:45
p3487
tp3488
a(V26*1/6
p3489
V1/6
p3490
(lp3491
(S'R.1'
p3492
F6.0
g3194
g3194
tp3493
aVb3hwang
p3494
(lp3495
(V$n
p3496
V0.166667
p3497
tp3498
a(V$nc
p3499
V4.33333
p3500
tp3501
a(V$corr
p3502
V0
p3503
tp3504
a(V$ans
p3505
V0.0205448
p3506
tp3507
a(V$a
p3508
V6
p3509
tp3510
a(V$mean
p3511
V12
p3512
tp3513
a(V$low
p3514
V9
p3515
tp3516
a(V$x
p3517
V0.0205448
p3518
tp3519
a(V$phi
p3520
V26
p3521
tp3522
a(V$std
p3523
V27
p3524
tp3525
a(V$p
p3526
V8
p3527
tp3528
a(V$high
p3529
V1.90029
p3530
tp3531
aV2015-11-05 19:07:36
p3532
tp3533
a(g2523
V11/5
p3534
(lp3535
(S'R.1'
p3536
F5.0
g2926
g2926
tp3537
aVhachrist
p3538
g2735
V2015-11-05 20:52:52
p3539
tp3540
a(V24*1/5
p3541
V8/5
p3542
(lp3543
(S'R.1'
p3544
F5.0
g2926
g2926
tp3545
aVkbielawi
p3546
(lp3547
(V$n
p3548
V0.2
p3549
tp3550
a(V$nc
p3551
V4.8
p3552
tp3553
a(V$corr
p3554
V0
p3555
tp3556
a(V$ans
p3557
V0.0891713
p3558
tp3559
a(V$a
p3560
V5
p3561
tp3562
a(V$mean
p3563
V12
p3564
tp3565
a(V$low
p3566
V8
p3567
tp3568
a(V$x
p3569
V0.0891713
p3570
tp3571
a(V$phi
p3572
V24
p3573
tp3574
a(V$std
p3575
V25
p3576
tp3577
a(V$p
p3578
V8
p3579
tp3580
a(V$high
p3581
V1.95959
p3582
tp3583
aV2015-11-05 21:22:10
p3584
tp3585
a(V29*1/5
p3586
V1/5
p3587
(lp3588
(S'R.1'
p3589
F5.0
g2926
g2926
tp3590
aVacs008
p3591
g751
V2015-11-05 21:32:28
p3592
tp3593
a(g2783
V21*(8/21)*(13/21)*5
p3594
(lp3595
(S'R.1'
p3596
F5.0
g2926
g2926
tp3597
aVhmshah
p3598
g2791
V2015-11-05 21:39:56
p3599
tp3600
a(g2783
V21*(8/21)*(13/21)*5
p3601
(lp3602
(S'R.1'
p3603
F5.0
g2926
g2926
tp3604
aVhmshah
p3605
g2791
V2015-11-05 21:40:39
p3606
tp3607
a(g2523
V11/5
p3608
(lp3609
(S'R.1'
p3610
F5.0
g2926
g2926
tp3611
aVhachrist
p3612
g2735
V2015-11-05 22:13:22
p3613
tp3614
a(g2636
V1/6
p3615
(lp3616
(S'R.1'
p3617
F6.0
g3194
g3194
tp3618
aVpsable
p3619
(lp3620
(V$n
p3621
V0.166667
p3622
tp3623
a(V$nc
p3624
V3.83333
p3625
tp3626
a(V$corr
p3627
V0
p3628
tp3629
a(V$ans
p3630
V0.0275494
p3631
tp3632
a(V$a
p3633
V6
p3634
tp3635
a(V$mean
p3636
V11
p3637
tp3638
a(V$low
p3639
V8
p3640
tp3641
a(V$x
p3642
V0.0275494
p3643
tp3644
a(V$phi
p3645
V23
p3646
tp3647
a(V$std
p3648
V24
p3649
tp3650
a(V$p
p3651
V7
p3652
tp3653
a(V$high
p3654
V1.7873
p3655
tp3656
aV2015-11-06 00:34:23
p3657
tp3658
a(V22*1/5
p3659
V1/5
p3660
(lp3661
(S'R.1'
p3662
F5.0
g2926
g2926
tp3663
aVkew017
p3664
(lp3665
(V$n
p3666
V0.2
p3667
tp3668
a(V$nc
p3669
V4.4
p3670
tp3671
a(V$corr
p3672
V0
p3673
tp3674
a(V$ans
p3675
V0.000349192
p3676
tp3677
a(V$a
p3678
V5
p3679
tp3680
a(V$mean
p3681
V12
p3682
tp3683
a(V$low
p3684
V12
p3685
tp3686
a(V$x
p3687
V0.000349192
p3688
tp3689
a(V$phi
p3690
V22
p3691
tp3692
a(V$std
p3693
V23
p3694
tp3695
a(V$p
p3696
V8
p3697
tp3698
a(V$high
p3699
V1.87617
p3700
tp3701
aV2015-11-06 00:35:36
p3702
tp3703
a(g3659
V1/5
p3704
(lp3705
(S'R.1'
p3706
F5.0
g2926
g2926
tp3707
aVkew017
p3708
g3665
V2015-11-06 00:40:44
p3709
tp3710
a(V22*1/5
p3711
V1/5
p3712
(lp3713
(S'R.1'
p3714
F5.0
g2926
g2926
tp3715
aVxweng
p3716
(lp3717
(V$n
p3718
V0.2
p3719
tp3720
a(V$nc
p3721
V4.4
p3722
tp3723
a(V$corr
p3724
V0
p3725
tp3726
a(V$ans
p3727
V0.0201417
p3728
tp3729
a(V$a
p3730
V5
p3731
tp3732
a(V$mean
p3733
V12
p3734
tp3735
a(V$low
p3736
V9
p3737
tp3738
a(V$x
p3739
V0.0201417
p3740
tp3741
a(V$phi
p3742
V22
p3743
tp3744
a(V$std
p3745
V23
p3746
tp3747
a(V$p
p3748
V8
p3749
tp3750
a(V$high
p3751
V1.87617
p3752
tp3753
aV2015-11-06 00:40:47
p3754
tp3755
a(V26*1/4
p3756
V13/26*4
p3757
(lp3758
(S'R.1'
p3759
F4.0
g2836
g2836
tp3760
aVhmnaing
p3761
(lp3762
(V$n
p3763
V0.25
p3764
tp3765
a(V$nc
p3766
V6.5
p3767
tp3768
a(V$corr
p3769
V0
p3770
tp3771
a(V$ans
p3772
V0.00521141
p3773
tp3774
a(V$a
p3775
V4
p3776
tp3777
a(V$mean
p3778
V14
p3779
tp3780
a(V$low
p3781
V13
p3782
tp3783
a(V$x
p3784
V0.00521141
p3785
tp3786
a(V$phi
p3787
V26
p3788
tp3789
a(V$std
p3790
V27
p3791
tp3792
a(V$p
p3793
V10
p3794
tp3795
a(V$high
p3796
V2.20794
p3797
tp3798
aV2015-11-06 18:32:32
p3799
tp3800
a(g2655
V1/5
p3801
(lp3802
(S'R.1'
p3803
F5.0
g2926
g2926
tp3804
aVppanourg
p3805
(lp3806
(V$n
p3807
V0.2
p3808
tp3809
a(V$nc
p3810
V5.6
p3811
tp3812
a(V$corr
p3813
V0
p3814
tp3815
a(V$ans
p3816
V0.0148629
p3817
tp3818
a(V$a
p3819
V5
p3820
tp3821
a(V$mean
p3822
V13
p3823
tp3824
a(V$low
p3825
V11
p3826
tp3827
a(V$x
p3828
V0.0148629
p3829
tp3830
a(V$phi
p3831
V28
p3832
tp3833
a(V$std
p3834
V29
p3835
tp3836
a(V$p
p3837
V9
p3838
tp3839
a(V$high
p3840
V2.1166
p3841
tp3842
aV2015-11-06 19:23:05
p3843
tp3844
a(V25*1/6
p3845
V25*6
p3846
(lp3847
(S'R.1'
p3848
F6.0
g3194
g3194
tp3849
aVmrchin
p3850
(lp3851
(V$n
p3852
V0.166667
p3853
tp3854
a(V$nc
p3855
V4.16667
p3856
tp3857
a(V$corr
p3858
V0
p3859
tp3860
a(V$ans
p3861
V0.000276875
p3862
tp3863
a(V$a
p3864
V6
p3865
tp3866
a(V$mean
p3867
V12
p3868
tp3869
a(V$low
p3870
V12
p3871
tp3872
a(V$x
p3873
V0.000276875
p3874
tp3875
a(V$phi
p3876
V25
p3877
tp3878
a(V$std
p3879
V26
p3880
tp3881
a(V$p
p3882
V8
p3883
tp3884
a(V$high
p3885
V1.86339
p3886
tp3887
aV2015-11-06 19:55:02
p3888
tp3889
a(V27*1/4
p3890
V27*4
p3891
(lp3892
(S'R.1'
p3893
F4.0
g2836
g2836
tp3894
aVk4ma
p3895
(lp3896
(V$n
p3897
V0.25
p3898
tp3899
a(V$nc
p3900
V6.75
p3901
tp3902
a(V$corr
p3903
V0
p3904
tp3905
a(V$ans
p3906
V0.0216223
p3907
tp3908
a(V$a
p3909
V4
p3910
tp3911
a(V$mean
p3912
V14
p3913
tp3914
a(V$low
p3915
V12
p3916
tp3917
a(V$x
p3918
V0.0216223
p3919
tp3920
a(V$phi
p3921
V27
p3922
tp3923
a(V$std
p3924
V28
p3925
tp3926
a(V$p
p3927
V10
p3928
tp3929
a(V$high
p3930
V2.25
p3931
tp3932
aV2015-11-06 21:32:19
p3933
tp3934
a(g3756
V26*4
p3935
(lp3936
(S'R.1'
p3937
F4.0
g2836
g2836
tp3938
aVhmnaing
p3939
g3762
V2015-11-06 22:11:58
p3940
tp3941
a(V25*1/6
p3942
V17 / 6
p3943
(lp3944
(S'R.1'
p3945
F6.0
g3194
g3194
tp3946
aVv3doan
p3947
(lp3948
(V$n
p3949
V0.166667
p3950
tp3951
a(V$nc
p3952
V4.16667
p3953
tp3954
a(V$corr
p3955
V0
p3956
tp3957
a(V$ans
p3958
V0.0447319
p3959
tp3960
a(V$a
p3961
V6
p3962
tp3963
a(V$mean
p3964
V12
p3965
tp3966
a(V$low
p3967
V8
p3968
tp3969
a(V$x
p3970
V0.0447319
p3971
tp3972
a(V$phi
p3973
V25
p3974
tp3975
a(V$std
p3976
V26
p3977
tp3978
a(V$p
p3979
V8
p3980
tp3981
a(V$high
p3982
V1.86339
p3983
tp3984
aV2015-11-07 00:33:44
p3985
tp3986
asS"['R.0.1', 'R.1']"
p3987
(lp3988
(g2538
V(1/5 + 2/5 + 3/5 + 4/5 + 1)/5
p3989
(lp3990
(S'R.0.1'
p3991
F1.0
V1
p3992
g3992
tp3993
a(S'R.1'
p3994
F5.0
g2926
g2926
tp3995
aVstarinia
p3996
g3376
V2015-11-05 04:17:58
p3997
tp3998
a(V22*1/5
p3999
V22*5*1/5
p4000
(lp4001
(S'R.0.1'
p4002
F1.0
g3992
g3992
tp4003
a(S'R.1'
p4004
F5.0
g2926
g2926
tp4005
aVtpmach
p4006
(lp4007
(V$n
p4008
V0.2
p4009
tp4010
a(V$nc
p4011
V4.4
p4012
tp4013
a(V$corr
p4014
V0
p4015
tp4016
a(V$ans
p4017
V0.0201417
p4018
tp4019
a(V$a
p4020
V5
p4021
tp4022
a(V$mean
p4023
V12
p4024
tp4025
a(V$low
p4026
V9
p4027
tp4028
a(V$x
p4029
V0.0201417
p4030
tp4031
a(V$phi
p4032
V22
p4033
tp4034
a(V$std
p4035
V23
p4036
tp4037
a(V$p
p4038
V8
p4039
tp4040
a(V$high
p4041
V1.87617
p4042
tp4043
aV2015-11-05 16:49:38
p4044
tp4045
a(g2783
V21*(8/21)*(13/21)*1/5
p4046
(lp4047
(S'R.0.1'
p4048
F1.0
g3992
g3992
tp4049
a(S'R.1'
p4050
F5.0
g2926
g2926
tp4051
aVhmshah
p4052
g2791
V2015-11-05 21:40:24
p4053
tp4054
a(V27*1/6
p4055
V12*1/6
p4056
(lp4057
(S'R.0.1'
p4058
F1.0
g3992
g3992
tp4059
a(S'R.1'
p4060
F6.0
g3194
g3194
tp4061
aVskodigal
p4062
(lp4063
(V$n
p4064
V0.166667
p4065
tp4066
a(V$nc
p4067
V4.5
p4068
tp4069
a(V$corr
p4070
V0
p4071
tp4072
a(V$ans
p4073
V0.000666736
p4074
tp4075
a(V$a
p4076
V6
p4077
tp4078
a(V$mean
p4079
V12
p4080
tp4081
a(V$low
p4082
V12
p4083
tp4084
a(V$x
p4085
V0.000666736
p4086
tp4087
a(V$phi
p4088
V27
p4089
tp4090
a(V$std
p4091
V28
p4092
tp4093
a(V$p
p4094
V8
p4095
tp4096
a(V$high
p4097
V1.93649
p4098
tp4099
aV2015-11-06 05:36:40
p4100
tp4101
asg201
(lp4102
(V21*1/5
p4103
V21-(1+2+3+4+5+6+7+8+9+10)*0.8
p4104
tp4105
a(g4055
VC(27,12)(1/6)^12 * (1-1/6)^27-12
p4106
tp4107
a(g4055
V17383860(1/6)^12 * (1-1/6)^27-12
p4108
tp4109
asg2029
(lp4110
(V25*1/5
p4111
V25*(1/10)
p4112
tp4113
a(g2465
V5.5
p4114
tp4115
a(V25*1/5
p4116
V12.5
p4117
tp4118
a(g2491
V10/25
p4119
tp4120
a(g2491
V.2
p4121
tp4122
a(g2513
V1/4
p4123
tp4124
a(V24*1/6
p4125
V.5
p4126
tp4127
a(g4125
V1/6
p4128
tp4129
a(g2507
V28/13
p4130
tp4131
a(g2513
V(1/4)^13
p4132
tp4133
a(g2513
V13/28
p4134
tp4135
a(g2513
V(13+14+15+16+17+18+19+20+21+22+23+24+25+26+27+28)/16
p4136
tp4137
a(g2513
V(13+14+15+16+17+18+19+20+21+22+23+24+25+26+27+28)/28
p4138
tp4139
a(g2513
V(1/4)^28
p4140
tp4141
a(g2513
V13/28
p4142
tp4143
a(g2513
V(28*29)/2*(1/4)^28
p4144
tp4145
a(g2513
V(28*29)/2*(1/4)
p4146
tp4147
a(g2563
V10/24
p4148
tp4149
a(g2563
V10/96
p4150
tp4151
a(g2563
V1/4
p4152
tp4153
a(g2563
V1/24
p4154
tp4155
a(g2563
V1/96
p4156
tp4157
a(V24*1/6
p4158
V1/6
p4159
tp4160
a(g4158
VQ(.3)
p4161
tp4162
a(V30*1/5
p4163
V(30-12)/5
p4164
tp4165
a(g4163
V(12)/5
p4166
tp4167
a(g2630
V12/25
p4168
tp4169
a(g2630
V25*(C(25,12)(1/5)^12(1-1/5)^13)
p4170
tp4171
a(g2630
V25*((25!/(12!13!))(1/5)^12(1-1/5)^13)
p4172
tp4173
a(g2630
V4.16
p4174
tp4175
a(g2630
V35/12
p4176
tp4177
a(g2630
V25/12
p4178
tp4179
a(V30*1/6
p4180
Vsqrt(5 * (1-(1/6)))
p4181
tp4182
a(g2507
V13*1/4
p4183
tp4184
a(g2507
V13*(1/4)
p4185
tp4186
a(g2507
V1/4
p4187
tp4188
a(g2663
V25*.5
p4189
tp4190
a(g2663
V25((1/5)/25)
p4191
tp4192
a(g2673
V12/24
p4193
tp4194
a(g2673
V1/12
p4195
tp4196
a(g2673
V6/24
p4197
tp4198
a(V24*1/4
p4199
V4*(11/24)
p4200
tp4201
a(g4199
V11/24
p4202
tp4203
a(g4199
V11/(24*4)
p4204
tp4205
a(g4199
V(1/4)^11 * 24
p4206
tp4207
a(V28*1/4
p4208
V1/4
p4209
tp4210
a(V28*1/4
p4211
V15/28
p4212
tp4213
a(g4211
V406/4
p4214
tp4215
a(g4180
V30/180
p4216
tp4217
asS"['R.0.1']"
p4218
(lp4219
(g3999
V22*5*1/2
p4220
(lp4221
(S'R.0.1'
p4222
F1.0
g3992
g3992
tp4223
aVtpmach
p4224
g4007
V2015-11-05 16:49:04
p4225
tp4226
a(g2649
V30*1/2
p4227
(lp4228
(S'R.0.1'
p4229
F1.0
g3992
g3992
tp4230
aVvqt004
p4231
(lp4232
(V$n
p4233
V0.2
p4234
tp4235
a(V$nc
p4236
V6
p4237
tp4238
a(V$corr
p4239
V0
p4240
tp4241
a(V$ans
p4242
V0.00311105
p4243
tp4244
a(V$a
p4245
V5
p4246
tp4247
a(V$mean
p4248
V14
p4249
tp4250
a(V$low
p4251
V13
p4252
tp4253
a(V$x
p4254
V0.00311105
p4255
tp4256
a(V$phi
p4257
V30
p4258
tp4259
a(V$std
p4260
V31
p4261
tp4262
a(V$p
p4263
V10
p4264
tp4265
a(V$high
p4266
V2.19089
p4267
tp4268
aV2015-11-06 06:07:27
p4269
tp4270
assV5
p4271
g2
(g3
tp4272
Rp4273
g6
(lp4274
(VQ((13-30*1/6)/[sqrt(30/6*(1-1/6))])
p4275
V1
p4276
tp4277
a(g4275
V0
p4278
tp4279
a(VQ((14-28*1/4)/[sqrt(28/4*(1-1/4))])
p4280
V0
p4281
tp4282
a(g4280
V1
p4283
tp4284
a(g4280
V7
p4285
tp4286
a(VQ((9-22*1/4)/[sqrt(22/4*(1-1/4))])
p4287
V1
p4288
tp4289
a(VQ((14-30*1/5)/[sqrt(30/5*(1-1/5))])
p4290
V0
p4291
tp4292
a(g4290
V1
p4293
tp4294
a(g4290
V1
p4295
tp4296
a(g4290
V0
p4297
tp4298
a(VQ((11-30*1/4)/[sqrt(30/4*(1-1/4))])
p4299
V1
p4300
tp4301
a(VQ((11-27*1/6)/[sqrt(27/6*(1-1/6))])
p4302
V0
p4303
tp4304
asS"['R.0.0']"
p4305
(lp4306
(VQ((10-27*1/6)/[sqrt(27/6*(1-1/6))])
p4307
VQ((10-27/6)/(26/7)^(1/2))
p4308
(lp4309
(S'R.0.0'
p4310
F5.5
V10-27*1/6
p4311
V10-27/6
p4312
tp4313
aVvsamant
p4314
g564
V2015-11-04 06:20:15
p4315
tp4316
a(g4307
VQ((10-27/6)/(26/7)^(1/2))
p4317
(lp4318
(S'R.0.0'
p4319
F5.5
V10-27*1/6
p4320
V10-27/6
p4321
tp4322
aVvsamant
p4323
g564
V2015-11-04 18:47:05
p4324
tp4325
a(VQ((12-26*1/6)/[sqrt(26/6*(1-1/6))])
p4326
VQ(12-(26*(1/6))) / ( sqrt( 26 / 6 * (1-1/ 6)))
p4327
(lp4328
(S'R.0.0'
p4329
F7.666666666666667
V12-26*1/6
p4330
V12-(26*(1/6))
p4331
tp4332
aVjew037
p4333
(lp4334
(V$n
p4335
V0.166667
p4336
tp4337
a(V$nc
p4338
V4.33333
p4339
tp4340
a(V$corr
p4341
V0
p4342
tp4343
a(V$ans
p4344
V0.000436364
p4345
tp4346
a(V$a
p4347
V6
p4348
tp4349
a(V$mean
p4350
V12
p4351
tp4352
a(V$low
p4353
V12
p4354
tp4355
a(V$x
p4356
V0.000436364
p4357
tp4358
a(V$phi
p4359
V26
p4360
tp4361
a(V$std
p4362
V27
p4363
tp4364
a(V$p
p4365
V8
p4366
tp4367
a(V$high
p4368
V1.90029
p4369
tp4370
aV2015-11-05 00:33:26
p4371
tp4372
a(VQ((11-29*1/5)/[sqrt(29/5*(1-1/5))])
p4373
Vsqrt((11-29/5)/29)
p4374
(lp4375
(S'R.0.0'
p4376
F5.2
V11-29*1/5
p4377
V11-29/5
p4378
tp4379
aVkrau
p4380
g3287
V2015-11-05 03:24:57
p4381
tp4382
a(VQ((9-28*1/5)/[sqrt(28/5*(1-1/5))])
p4383
VQ((9-5.6)/((9-5.6)/(sqrt(28 * 1/5 *(1-1/5)))))
p4384
(lp4385
(S'R.0.0'
p4386
F3.4000000000000004
V9-28*1/5
p4387
V9-5.6
p4388
tp4389
aVstarinia
p4390
g3376
V2015-11-05 04:31:21
p4391
tp4392
a(VQ((11-27*1/4)/[sqrt(27/4*(1-1/4))])
p4393
VQ(11-6.75)/[sqrt((1/4)[3/4][27])]
p4394
(lp4395
(S'R.0.0'
p4396
F4.25
V11-27*1/4
p4397
V11-6.75
p4398
tp4399
aVjag028
p4400
(lp4401
(V$n
p4402
V0.25
p4403
tp4404
a(V$nc
p4405
V6.75
p4406
tp4407
a(V$corr
p4408
V0
p4409
tp4410
a(V$ans
p4411
V0.0527773
p4412
tp4413
a(V$a
p4414
V4
p4415
tp4416
a(V$mean
p4417
V14
p4418
tp4419
a(V$low
p4420
V11
p4421
tp4422
a(V$x
p4423
V0.0527773
p4424
tp4425
a(V$phi
p4426
V27
p4427
tp4428
a(V$std
p4429
V28
p4430
tp4431
a(V$p
p4432
V10
p4433
tp4434
a(V$high
p4435
V2.25
p4436
tp4437
aV2015-11-06 05:51:37
p4438
tp4439
a(VQ((11-24*1/4)/[sqrt(24/4*(1-1/4))])
p4440
VQ(11 - (24 * 1/4)) / sqrt(24*1/4*(1-1/4))
p4441
(lp4442
(S'R.0.0'
p4443
F5.0
V11-24*1/4
p4444
V11 - (24 * 1/4)
p4445
tp4446
aVaurodrig
p4447
(lp4448
(V$n
p4449
V0.25
p4450
tp4451
a(V$nc
p4452
V6
p4453
tp4454
a(V$corr
p4455
V0
p4456
tp4457
a(V$ans
p4458
V0.0213382
p4459
tp4460
a(V$a
p4461
V4
p4462
tp4463
a(V$mean
p4464
V14
p4465
tp4466
a(V$low
p4467
V11
p4468
tp4469
a(V$x
p4470
V0.0213382
p4471
tp4472
a(V$phi
p4473
V24
p4474
tp4475
a(V$std
p4476
V25
p4477
tp4478
a(V$p
p4479
V10
p4480
tp4481
a(V$high
p4482
V2.12132
p4483
tp4484
aV2015-11-06 23:57:44
p4485
tp4486
asg1252
(lp4487
(VQ((8-28*1/6)/[sqrt(28/6*(1-1/6))])
p4488
V1-Phi(8)
p4489
tp4490
a(g4488
VQ(8)
p4491
tp4492
a(VQ((12-25*1/5)/[sqrt(25/5*(1-1/5))])
p4493
V1-Phi(12)
p4494
tp4495
a(g4493
V1-Phi(0.6472)
p4496
tp4497
a(VQ((10-20*1/4)/[sqrt(20/4*(1-1/4))])
p4498
VPhi(10)
p4499
tp4500
a(g4280
V.5
p4501
tp4502
a(g4280
VPhi(7)
p4503
tp4504
a(g4280
V1-Phi(7)
p4505
tp4506
a(g4307
V1-0.9975
p4507
tp4508
a(g4307
V0.9975
p4509
tp4510
a(VQ((8-21*1/5)/[sqrt(21/5*(1-1/5))])
p4511
V1 - Phi(8)
p4512
tp4513
a(g4307
V1-Phi((10-27/6)/(26/7)^(1/2))
p4514
tp4515
a(VQ((13-28*1/4)/[sqrt(28/4*(1-1/4))])
p4516
VQ(13)
p4517
tp4518
a(VQ((8-27*1/6)/[sqrt(27/6*(1-1/6))])
p4519
V0.04137
p4520
tp4521
a(VQ((11-28*1/4)/[sqrt(28/4*(1-1/4))])
p4522
VQ(11)
p4523
tp4524
a(VQ((10-27*1/6)/[sqrt(27/6*(1-1/6))])
p4525
V1-Phi(10)
p4526
tp4527
a(g4525
VQ(10)
p4528
tp4529
a(g4383
V1-Phi(9)
p4530
tp4531
a(g4383
VQ(9)
p4532
tp4533
a(VQ((10-24*1/4)/[sqrt(24/4*(1-1/4))])
p4534
V1-Phi(10)
p4535
tp4536
a(VQ((11-29*1/4)/[sqrt(29/4*(1-1/4))])
p4537
VQ(11)
p4538
tp4539
a(VQ((11-21*1/5)/[sqrt(21/5*(1-1/5))])
p4540
V0.000969696438262946
p4541
tp4542
a(g4540
V0.0969696438262946
p4543
tp4544
a(g4540
V0.00096969
p4545
tp4546
a(VQ((11-30*1/4)/[sqrt(30/4*(1-1/4))])
p4547
V0.7
p4548
tp4549
a(VQ((9-23*1/6)/[sqrt(23/6*(1-1/6))])
p4550
VQ(9)
p4551
tp4552
a(VQ((9-26*1/6)/[sqrt(26/6*(1-1/6))])
p4553
VQ(84/65)
p4554
tp4555
a(VQ((9-22*1/6)/[sqrt(22/6*(1-1/6))])
p4556
VQ((9-22/6)/(22/6*(1-1/6))^1/2)
p4557
tp4558
a(g4556
VQ((9-22/6)/(22/6*(1-6))^1/2)
p4559
tp4560
a(VQ((9-20*1/6)/[sqrt(20/6*(1-1/6))])
p4561
VQ(0.76026)
p4562
tp4563
a(g4561
VQ(0.262)
p4564
tp4565
a(VQ((11-28*1/5)/[sqrt(28/5*(1-1/5))])
p4566
VQ(11)
p4567
tp4568
a(VQ((9-22*1/4)/[sqrt(22/4*(1-1/4))])
p4569
VQ(1/4)
p4570
tp4571
a(VQ((9-24*1/5)/[sqrt(24/5*(1-1/5))])
p4572
V0.036174988028838
p4573
tp4574
a(VQ((10-28*1/5)/[sqrt(28/5*(1-1/5))])
p4575
V1-Q(10)
p4576
tp4577
a(VQ((10-25*1/5)/[sqrt(25/5*(1-1/5))])
p4578
VPhi(10)
p4579
tp4580
a(VQ((11-28*1/5)/[sqrt(28/5*(1-1/5))])
p4581
VQ([11-[28*(1/5)]/[sqrt((28*(1/5))*(1-(1/5)))]])
p4582
tp4583
a(VQ((10-27*1/5)/[sqrt(27/5*(1-1/5))])
p4584
VQ(10)
p4585
tp4586
a(g4584
VPhi(10)
p4587
tp4588
a(g4584
VQ(9)
p4589
tp4590
a(VQ((11-24*1/6)/[sqrt(24/6*(1-1/6))])
p4591
VQ(-78/19)
p4592
tp4593
a(VQ((12-24*1/6)/[sqrt(24/6*(1-1/6))])
p4594
V1-Phi(6/12)
p4595
tp4596
a(g4594
V1-Phi(12)
p4597
tp4598
a(VQ((13-27*1/5)/[sqrt(27/5*(1-1/5))])
p4599
V1-Phi(13)
p4600
tp4601
a(g4599
VPhi(13)
p4602
tp4603
a(VQ((9-29*1/5)/[sqrt(29/5*(1-1/5))])
p4604
V1-.9946
p4605
tp4606
a(VQ((10-24*1/5)/[sqrt(24/5*(1-1/5))])
p4607
V1/100
p4608
tp4609
asg201
(lp4610
(g4275
V1-(13-5)/sqrt(30(1/6)(5/6))
p4611
tp4612
a(VQ((10-26*1/5)/[sqrt(26/5*(1-1/5))])
p4613
V1-2.35339
p4614
tp4615
a(VQ((11-24*1/5)/[sqrt(24/5*(1-1/5))])
p4616
V1-(1+2+3+4+5+6+7+8+9+10)/24
p4617
tp4618
a(VQ((12-27*1/5)/[sqrt(27/5*(1-1/5))])
p4619
V(12-(27/5))/(27*4/25)^.5-(27-(27/5))/(27*4/25)^.5
p4620
tp4621
a(VQ((11-26*1/5)/[sqrt(26/5*(1-1/5))])
p4622
V1-(11-26/5)/sqrt(26/5*(4/5))
p4623
tp4624
a(VQ((9-28*1/5)/[sqrt(28/5*(1-1/5))])
p4625
V1-[9-(28/5)]/[sqrt(28*(1/5)*(1-(1/5)))]
p4626
tp4627
a(g4625
V1-[9-(28/5)]/2.1166
p4628
tp4629
a(g4625
V1-[8-(28/5)]/2.1166
p4630
tp4631
a(g4307
V1-(10-27/6)/(26/7)^(1/2)
p4632
tp4633
a(VQ((8-22*1/5)/[sqrt(22/5*(1-1/5))])
p4634
V1-[(8-4.4)/[sqrt(4.4*(1-(1/5)))]]
p4635
tp4636
a(VQ((9-22*1/4)/[sqrt(22/4*(1-1/4))])
p4637
V1-(14/sqrt(66))
p4638
tp4639
a(VQ((9-25*1/6)/[sqrt(25/6*(1-1/6))])
p4640
V1 - ((9 - (25/6))/sqrt(125/36))
p4641
tp4642
a(VQ((9-22*1/5)/[sqrt(22/5*(1-1/5))])
p4643
V1-((9-22/5)/(sqrt(1/5(1-1/5)22)))
p4644
tp4645
a(g4643
V1-2*((9-22/5)/(sqrt(1/5(1-1/5)22)))
p4646
tp4647
a(VQ((10-30*1/5)/[sqrt(30/5*(1-1/5))])
p4648
V1 - (10 - 6)/((30 * 0.2 * 0.8)^0.5)
p4649
tp4650
a(VQ((11-28*1/5)/[sqrt(28/5*(1-1/5))])
p4651
V1-2.55126146
p4652
tp4653
a(VQ((11-21*1/6)/[sqrt(21/6*(1-1/6))])
p4654
V0.5412542e-06
p4655
tp4656
a(VQ((13-28*1/4)/[sqrt(28/4*(1-1/4))])
p4657
V3.466973e-03
p4658
tp4659
a(VQ((12-24*1/6)/[sqrt(24/6*(1-1/6))])
p4660
V1-[12-4]/sqrt(1/6*(1-1/6)*24)
p4661
tp4662
a(g4594
V1-24/6
p4663
tp4664
a(g4302
V0.5-0.9996
p4665
tp4666
a(g4302
V0.4996-0.5
p4667
tp4668
a(g4302
V-.00039
p4669
tp4670
asS"['R.0.0.0']"
p4671
(lp4672
(g4307
VQ((10-26/7)/(26/7)^(1/2))
p4673
(lp4674
(S'R.0.0.0'
p4675
F10.0
V10
p4676
V10
p4677
tp4678
aVvsamant
p4679
g564
V2015-11-04 18:46:45
p4680
tp4681
a(VQ((12-26*1/6)/[sqrt(26/6*(1-1/6))])
p4682
VQ((12-4.33)/sqrt((5*4.33)/6))
p4683
(lp4684
(S'R.0.0.0'
p4685
F12.0
V12
p4686
V12
p4687
tp4688
aVsthapa
p4689
g1049
V2015-11-07 00:46:48
p4690
tp4691
a(g4682
VQ(12-4.33)/sqrt((5*4.33)/6)
p4692
(lp4693
(S'R.0.0.0'
p4694
F12.0
V12
p4695
V12
p4696
tp4697
aVsthapa
p4698
g1049
V2015-11-07 00:47:27
p4699
tp4700
a(g4682
VQ((12-4.33)/sqrt((5*4.33)/6))
p4701
(lp4702
(S'R.0.0.0'
p4703
F12.0
V12
p4704
V12
p4705
tp4706
aVsthapa
p4707
g1049
V2015-11-07 00:47:54
p4708
tp4709
asS"['R.0']"
p4710
(lp4711
(VQ((12-24*1/6)/[sqrt(24/6*(1-1/6))])
p4712
V(((12)-(24*1/6))/(sqrt(24*1/6*(1-1/6))))/12
p4713
(lp4714
(S'R.0'
p4715
F4.381780460041329
V(12-24*1/6)/[sqrt(24/6*(1-1/6))]
p4716
V((12)-(24*1/6))/(sqrt(24*1/6*(1-1/6)))
p4717
tp4718
aVcstringh
p4719
(lp4720
(V$n
p4721
V0.166667
p4722
tp4723
a(V$nc
p4724
V4
p4725
tp4726
a(V$corr
p4727
V0
p4728
tp4729
a(V$ans
p4730
V0.000169699
p4731
tp4732
a(V$a
p4733
V6
p4734
tp4735
a(V$mean
p4736
V12
p4737
tp4738
a(V$low
p4739
V12
p4740
tp4741
a(V$x
p4742
V0.000169699
p4743
tp4744
a(V$phi
p4745
V24
p4746
tp4747
a(V$std
p4748
V25
p4749
tp4750
a(V$p
p4751
V8
p4752
tp4753
a(V$high
p4754
V1.82574
p4755
tp4756
aV2015-11-04 07:20:58
p4757
tp4758
a(VQ((13-22*1/4)/[sqrt(22/4*(1-1/4))])
p4759
V(13-(22/4))/(sqrt((22/4)*(1-(1/4))))+Q((13-(22/4))/(sqrt((22/4)*(1-(1/4)))))
p4760
(lp4761
(S'R.0'
p4762
F3.6927447293799815
V(13-22*1/4)/[sqrt(22/4*(1-1/4))]
p4763
V(13-(22/4))/(sqrt((22/4)*(1-(1/4))))
p4764
tp4765
aVdlgoldbe
p4766
g658
V2015-11-05 06:39:07
p4767
tp4768
a(g4525
VPhi((10-4.5)/(((1/6)(5/6)27))^.5)
p4769
(lp4770
(S'R.0'
p4771
F2.840187787218772
V(10-27*1/6)/[sqrt(27/6*(1-1/6))]
p4772
V(10-4.5)/(((1/6)(5/6)27))^.5)
p4773
tp4774
aVc1sorian
p4775
g843
V2015-11-06 04:05:21
p4776
tp4777
a(g4599
VPhi((13-27*(1/5))/sqrt(27*(1/5)*(4/5)))
p4778
(lp4779
(S'R.0'
p4780
F3.656551704867629
V(13-27*1/5)/[sqrt(27/5*(1-1/5))]
p4781
V(13-27*(1/5))/sqrt(27*(1/5)*(4/5))
p4782
tp4783
aVw4shin
p4784
(lp4785
(V$n
p4786
V0.2
p4787
tp4788
a(V$nc
p4789
V5.4
p4790
tp4791
a(V$corr
p4792
V0
p4793
tp4794
a(V$ans
p4795
V0.000951204
p4796
tp4797
a(V$a
p4798
V5
p4799
tp4800
a(V$mean
p4801
V13
p4802
tp4803
a(V$low
p4804
V13
p4805
tp4806
a(V$x
p4807
V0.000951204
p4808
tp4809
a(V$phi
p4810
V27
p4811
tp4812
a(V$std
p4813
V28
p4814
tp4815
a(V$p
p4816
V9
p4817
tp4818
a(V$high
p4819
V2.07846
p4820
tp4821
aV2015-11-06 23:43:55
p4822
tp4823
a(VQ((9-23*1/5)/[sqrt(23/5*(1-1/5))])
p4824
VPhi((9 - 4.6)/(sqrt((1/5)(4/5)23)))
p4825
(lp4826
(S'R.0'
p4827
F2.293658554627823
V(9-23*1/5)/[sqrt(23/5*(1-1/5))]
p4828
V(9 - 4.6)/(sqrt((1/5)(4/5)23))
p4829
tp4830
aVdando
p4831
(lp4832
(V$n
p4833
V0.2
p4834
tp4835
a(V$nc
p4836
V4.6
p4837
tp4838
a(V$corr
p4839
V0
p4840
tp4841
a(V$ans
p4842
V0.0273423
p4843
tp4844
a(V$a
p4845
V5
p4846
tp4847
a(V$mean
p4848
V12
p4849
tp4850
a(V$low
p4851
V9
p4852
tp4853
a(V$x
p4854
V0.0273423
p4855
tp4856
a(V$phi
p4857
V23
p4858
tp4859
a(V$std
p4860
V24
p4861
tp4862
a(V$p
p4863
V8
p4864
tp4865
a(V$high
p4866
V1.91833
p4867
tp4868
aV2015-11-06 23:44:57
p4869
tp4870
a(VQ((15-28*1/4)/[sqrt(28/4*(1-1/4))])
p4871
V8/((.25*.75*28)^.5)/28
p4872
(lp4873
(S'R.0'
p4874
F3.4914862437758782
V(15-28*1/4)/[sqrt(28/4*(1-1/4))]
p4875
V8/((.25*.75*28)^.5)
p4876
tp4877
aVyhhan
p4878
(lp4879
(V$n
p4880
V0.25
p4881
tp4882
a(V$nc
p4883
V7
p4884
tp4885
a(V$corr
p4886
V0
p4887
tp4888
a(V$ans
p4889
V0.00111856
p4890
tp4891
a(V$a
p4892
V4
p4893
tp4894
a(V$mean
p4895
V15
p4896
tp4897
a(V$low
p4898
V15
p4899
tp4900
a(V$x
p4901
V0.00111856
p4902
tp4903
a(V$phi
p4904
V28
p4905
tp4906
a(V$std
p4907
V29
p4908
tp4909
a(V$p
p4910
V11
p4911
tp4912
a(V$high
p4913
V2.29129
p4914
tp4915
aV2015-11-07 00:11:58
p4916
tp4917
asS"['R.0.0', 'R.0.1']"
p4918
(lp4919
(g4634
VQ((8-4.4)*[sqrt(4.4*(1-(1/5)))])
p4920
(lp4921
(S'R.0.0'
p4922
F3.5999999999999996
V8-22*1/5
p4923
V8-4.4
p4924
tp4925
a(S'R.0.1'
p4926
F1.876166303929372
Vsqrt(22/5*(1-1/5))
p4927
Vsqrt(4.4*(1-(1/5)))
p4928
tp4929
aVabjara
p4930
(lp4931
(V$n
p4932
V0.2
p4933
tp4934
a(V$nc
p4935
V4.4
p4936
tp4937
a(V$corr
p4938
V0
p4939
tp4940
a(V$ans
p4941
V0.0561446
p4942
tp4943
a(V$a
p4944
V5
p4945
tp4946
a(V$mean
p4947
V12
p4948
tp4949
a(V$low
p4950
V8
p4951
tp4952
a(V$x
p4953
V0.0561446
p4954
tp4955
a(V$phi
p4956
V22
p4957
tp4958
a(V$std
p4959
V23
p4960
tp4961
a(V$p
p4962
V8
p4963
tp4964
a(V$high
p4965
V1.87617
p4966
tp4967
aV2015-11-04 03:27:05
p4968
tp4969
asS"['R.0.1']"
p4970
(lp4971
(g4625
V[10-(28/5)]/[sqrt(28*(1/5)*(1-(1/5)))]-[9-(28/5)]/2.1166
p4972
(lp4973
(S'R.0.1'
p4974
F2.116601048851672
Vsqrt(28/5*(1-1/5))
p4975
Vsqrt(28*(1/5)*(1-(1/5)))
p4976
tp4977
aVtol003
p4978
g2399
V2015-11-03 20:57:13
p4979
tp4980
a(g4613
VQ(10/sqrt(26/5*4/5))
p4981
(lp4982
(S'R.0.1'
p4983
F2.039607805437114
Vsqrt(26/5*(1-1/5))
p4984
Vsqrt(26/5*4/5)
p4985
tp4986
aVdcastlem
p4987
g2973
V2015-11-05 00:35:18
p4988
tp4989
a(g4613
VQ(10/(sqrt(26*1/5*4/5)))
p4990
(lp4991
(S'R.0.1'
p4992
F2.039607805437114
Vsqrt(26/5*(1-1/5))
p4993
Vsqrt(26*1/5*4/5)
p4994
tp4995
aVdcastlem
p4996
g2973
V2015-11-05 00:36:18
p4997
tp4998
a(g4613
VQ(26/(sqrt(26*1/5*4/5)))
p4999
(lp5000
(S'R.0.1'
p5001
F2.039607805437114
Vsqrt(26/5*(1-1/5))
p5002
Vsqrt(26*1/5*4/5)
p5003
tp5004
aVdcastlem
p5005
g2973
V2015-11-05 00:38:22
p5006
tp5007
a(VQ((10-30*1/5)/[sqrt(30/5*(1-1/5))])
p5008
VQ((10 - 6)/(sqrt(30/5 * (4/5)))/(sqrt(30/5 * (4/5))))
p5009
(lp5010
(S'R.0.1'
p5011
F2.1908902300206647
Vsqrt(30/5*(1-1/5))
p5012
Vsqrt(30/5 * (4/5))
p5013
tp5014
aVcprafull
p5015
(lp5016
(V$n
p5017
V0.2
p5018
tp5019
a(V$nc
p5020
V6
p5021
tp5022
a(V$corr
p5023
V0
p5024
tp5025
a(V$ans
p5026
V0.0610872
p5027
tp5028
a(V$a
p5029
V5
p5030
tp5031
a(V$mean
p5032
V14
p5033
tp5034
a(V$low
p5035
V10
p5036
tp5037
a(V$x
p5038
V0.0610872
p5039
tp5040
a(V$phi
p5041
V30
p5042
tp5043
a(V$std
p5044
V31
p5045
tp5046
a(V$p
p5047
V10
p5048
tp5049
a(V$high
p5050
V2.19089
p5051
tp5052
aV2015-11-06 03:04:10
p5053
tp5054
assV4
p5055
g2
(g3
tp5056
Rp5057
g6
(lp5058
(V(8-28*1/6)/[sqrt(28/6*(1-1/6))]
p5059
V2
p5060
tp5061
a(V(12-26*1/5)/[sqrt(26/5*(1-1/5))]
p5062
V0
p5063
tp5064
a(V(14-28*1/4)/[sqrt(28/4*(1-1/4))]
p5065
V0
p5066
tp5067
a(g5065
V1
p5068
tp5069
a(g5065
V14
p5070
tp5071
a(g5065
V7
p5072
tp5073
a(V(11-30*1/4)/[sqrt(30/4*(1-1/4))]
p5074
V1
p5075
tp5076
a(V(11-28*1/5)/[sqrt(28/5*(1-1/5))]
p5077
V3
p5078
tp5079
a(V(10-27*1/6)/[sqrt(27/6*(1-1/6))]
p5080
V1
p5081
tp5082
a(V(9-28*1/5)/[sqrt(28/5*(1-1/5))]
p5083
V9
p5084
tp5085
a(V(12-28*1/6)/[sqrt(28/6*(1-1/6))]
p5086
V4
p5087
tp5088
a(V(10-20*1/5)/[sqrt(20/5*(1-1/5))]
p5089
V0
p5090
tp5091
a(V(11-23*1/4)/[sqrt(23/4*(1-1/4))]
p5092
V3
p5093
tp5094
a(g5092
V2
p5095
tp5096
a(g5092
V4
p5097
tp5098
a(g5092
V1
p5099
tp5100
a(V(9-24*1/5)/[sqrt(24/5*(1-1/5))]
p5101
V0
p5102
tp5103
a(V(13-24*1/4)/[sqrt(24/4*(1-1/4))]
p5104
V13
p5105
tp5106
a(V(10-25*1/5)/[sqrt(25/5*(1-1/5))]
p5107
V10
p5108
tp5109
a(V(10-24*1/5)/[sqrt(24/5*(1-1/5))]
p5110
V24
p5111
tp5112
a(V(15-28*1/4)/[sqrt(28/4*(1-1/4))]
p5113
V2
p5114
tp5115
a(g5113
V3
p5116
tp5117
a(g5113
V4
p5118
tp5119
a(g5113
V5
p5120
tp5121
asS"['R.0.0']"
p5122
(lp5123
(V(10-22*1/4)/[sqrt(22/4*(1-1/4))]
p5124
V(10-(10/22))/1
p5125
(lp5126
(S'R.0.0'
p5127
F10.0
V10
p5128
V10
p5129
tp5130
aVccn001
p5131
(lp5132
(V$n
p5133
V0.25
p5134
tp5135
a(V$nc
p5136
V5.5
p5137
tp5138
a(V$corr
p5139
V0
p5140
tp5141
a(V$ans
p5142
V0.0295089
p5143
tp5144
a(V$a
p5145
V4
p5146
tp5147
a(V$mean
p5148
V13
p5149
tp5150
a(V$low
p5151
V10
p5152
tp5153
a(V$x
p5154
V0.0295089
p5155
tp5156
a(V$phi
p5157
V22
p5158
tp5159
a(V$std
p5160
V23
p5161
tp5162
a(V$p
p5163
V9
p5164
tp5165
a(V$high
p5166
V2.03101
p5167
tp5168
aV2015-11-03 17:36:18
p5169
tp5170
a(V(10-27*1/6)/[sqrt(27/6*(1-1/6))]
p5171
V(10-26/7)/(26/7)^(1/2)
p5172
(lp5173
(S'R.0.0'
p5174
F10.0
V10
p5175
V10
p5176
tp5177
aVvsamant
p5178
g564
V2015-11-04 01:13:16
p5179
tp5180
a(V(9-23*1/6)/[sqrt(23/6*(1-1/6))]
p5181
VQ(9/23)
p5182
(lp5183
(S'R.0.0'
p5184
F9.0
V9
p5185
g5185
tp5186
aVvolim
p5187
g3197
V2015-11-05 00:10:35
p5188
tp5189
a(V(12-21*1/5)/[sqrt(21/5*(1-1/5))]
p5190
VQ(12-4.2/(1.83303))
p5191
(lp5192
(S'R.0.0'
p5193
F12.0
V12
p5194
V12
p5195
tp5196
aVgsrandha
p5197
(lp5198
(V$n
p5199
V0.2
p5200
tp5201
a(V$nc
p5202
V4.2
p5203
tp5204
a(V$corr
p5205
V0
p5206
tp5207
a(V$ans
p5208
V0.000194066
p5209
tp5210
a(V$a
p5211
V5
p5212
tp5213
a(V$mean
p5214
V12
p5215
tp5216
a(V$low
p5217
V12
p5218
tp5219
a(V$x
p5220
V0.000194066
p5221
tp5222
a(V$phi
p5223
V21
p5224
tp5225
a(V$std
p5226
V22
p5227
tp5228
a(V$p
p5229
V8
p5230
tp5231
a(V$high
p5232
V1.83303
p5233
tp5234
aV2015-11-05 08:23:19
p5235
tp5236
a(V(12-20*1/4)/[sqrt(20/4*(1-1/4))]
p5237
VPhi(12/20)
p5238
(lp5239
(S'R.0.0'
p5240
F12.0
V12
p5241
V12
p5242
tp5243
aVdan029
p5244
(lp5245
(V$n
p5246
V0.25
p5247
tp5248
a(V$nc
p5249
V5
p5250
tp5251
a(V$corr
p5252
V0
p5253
tp5254
a(V$ans
p5255
V0.000935392
p5256
tp5257
a(V$a
p5258
V4
p5259
tp5260
a(V$mean
p5261
V13
p5262
tp5263
a(V$low
p5264
V12
p5265
tp5266
a(V$x
p5267
V0.000935392
p5268
tp5269
a(V$phi
p5270
V20
p5271
tp5272
a(V$std
p5273
V21
p5274
tp5275
a(V$p
p5276
V9
p5277
tp5278
a(V$high
p5279
V1.93649
p5280
tp5281
aV2015-11-05 09:26:08
p5282
tp5283
a(V(8-25*1/6)/[sqrt(25/6*(1-1/6))]
p5284
V(8-4.16)/sqrt(25/6)
p5285
(lp5286
(S'R.0.0'
p5287
F8.0
V8
p5288
g5288
tp5289
aVaadhakal
p5290
(lp5291
(V$n
p5292
V0.166667
p5293
tp5294
a(V$nc
p5295
V4.16667
p5296
tp5297
a(V$corr
p5298
V0
p5299
tp5300
a(V$ans
p5301
V0.0447319
p5302
tp5303
a(V$a
p5304
V6
p5305
tp5306
a(V$mean
p5307
V12
p5308
tp5309
a(V$low
p5310
V8
p5311
tp5312
a(V$x
p5313
V0.0447319
p5314
tp5315
a(V$phi
p5316
V25
p5317
tp5318
a(V$std
p5319
V26
p5320
tp5321
a(V$p
p5322
V8
p5323
tp5324
a(V$high
p5325
V1.86339
p5326
tp5327
aV2015-11-05 23:02:48
p5328
tp5329
a(g5284
V(8-4.16)/sqrt(21.84/6)
p5330
(lp5331
(S'R.0.0'
p5332
F8.0
g5288
g5288
tp5333
aVaadhakal
p5334
g5291
V2015-11-05 23:03:24
p5335
tp5336
a(V(9-22*1/6)/[sqrt(22/6*(1-1/6))]
p5337
V(9-(22/6*(1-1/6))^1/2)/(22/6)
p5338
(lp5339
(S'R.0.0'
p5340
F9.0
g5185
g5185
tp5341
aVanislam
p5342
g1507
V2015-11-05 23:43:32
p5343
tp5344
a(g5337
V(9-(22/6*(1-6))^1/2)/(22/6)
p5345
(lp5346
(S'R.0.0'
p5347
F9.0
g5185
g5185
tp5348
aVanislam
p5349
g1507
V2015-11-05 23:44:28
p5350
tp5351
a(g5337
V(9-(22/6*(1-1/6))^(1/2))/(22/6)
p5352
(lp5353
(S'R.0.0'
p5354
F9.0
g5185
g5185
tp5355
aVanislam
p5356
g1507
V2015-11-05 23:45:35
p5357
tp5358
a(V(8-24*1/6)/[sqrt(24/6*(1-1/6))]
p5359
VQ(8/(24/6))
p5360
(lp5361
(S'R.0.0'
p5362
F8.0
g5288
g5288
tp5363
aVmbl003
p5364
(lp5365
(V$n
p5366
V0.166667
p5367
tp5368
a(V$nc
p5369
V4
p5370
tp5371
a(V$corr
p5372
V0
p5373
tp5374
a(V$ans
p5375
V0.0354441
p5376
tp5377
a(V$a
p5378
V6
p5379
tp5380
a(V$mean
p5381
V12
p5382
tp5383
a(V$low
p5384
V8
p5385
tp5386
a(V$x
p5387
V0.0354441
p5388
tp5389
a(V$phi
p5390
V24
p5391
tp5392
a(V$std
p5393
V25
p5394
tp5395
a(V$p
p5396
V8
p5397
tp5398
a(V$high
p5399
V1.82574
p5400
tp5401
aV2015-11-06 21:03:45
p5402
tp5403
a(V(12-25*1/4)/[sqrt(25/4*(1-1/4))]
p5404
VQ(12/6.5)
p5405
(lp5406
(S'R.0.0'
p5407
F12.0
V12
p5408
V12
p5409
tp5410
aVawollner
p5411
(lp5412
(V$n
p5413
V0.25
p5414
tp5415
a(V$nc
p5416
V6.25
p5417
tp5418
a(V$corr
p5419
V0
p5420
tp5421
a(V$ans
p5422
V0.0107343
p5423
tp5424
a(V$a
p5425
V4
p5426
tp5427
a(V$mean
p5428
V14
p5429
tp5430
a(V$low
p5431
V12
p5432
tp5433
a(V$x
p5434
V0.0107343
p5435
tp5436
a(V$phi
p5437
V25
p5438
tp5439
a(V$std
p5440
V26
p5441
tp5442
a(V$p
p5443
V10
p5444
tp5445
a(V$high
p5446
V2.16506
p5447
tp5448
aV2015-11-06 23:56:26
p5449
tp5450
a(g5404
VQ(12-6.25/2.16506)
p5451
(lp5452
(S'R.0.0'
p5453
F12.0
V12
p5454
V12
p5455
tp5456
aVawollner
p5457
g5412
V2015-11-06 23:59:17
p5458
tp5459
a(V(8-25*1/6)/[sqrt(25/6*(1-1/6))]
p5460
VQ(8/25)
p5461
(lp5462
(S'R.0.0'
p5463
F8.0
g5288
g5288
tp5464
aVv3doan
p5465
g3948
V2015-11-07 00:36:58
p5466
tp5467
a(V(12-26*1/6)/[sqrt(26/6*(1-1/6))]
p5468
V(12-4.33)/sqrt((6*4.33)/6)
p5469
(lp5470
(S'R.0.0'
p5471
F12.0
V12
p5472
V12
p5473
tp5474
aVsthapa
p5475
g1049
V2015-11-07 00:45:13
p5476
tp5477
asg1252
(lp5478
(V(9-22*1/4)/[sqrt(22/4*(1-1/4))]
p5479
V1-Phi(9)
p5480
tp5481
a(V(12-25*1/5)/[sqrt(25/5*(1-1/5))]
p5482
V0.6472
p5483
tp5484
a(g5065
VPhi(7)
p5485
tp5486
a(g5065
V1-Phi(7)
p5487
tp5488
a(V(8-22*1/5)/[sqrt(22/5*(1-1/5))]
p5489
Vsqrt(4.4*(4/5))
p5490
tp5491
a(g5489
Vsqrt(4.4*(1-(1/5)))
p5492
tp5493
a(g5065
Vsqrt((.25)(28)(.75))
p5494
tp5495
a(V(8-29*1/6)/[sqrt(29/6*(1-1/6))]
p5496
VPhi(8)
p5497
tp5498
a(V(8-27*1/6)/[sqrt(27/6*(1-1/6))]
p5499
V0.04137
p5500
tp5501
a(V(11-28*1/4)/[sqrt(28/4*(1-1/4))]
p5502
V((21)^0.5)/2
p5503
tp5504
a(V(9-29*1/5)/[sqrt(29/5*(1-1/5))]
p5505
V1.16
p5506
tp5507
a(V(9-25*1/6)/[sqrt(25/6*(1-1/6))]
p5508
V9 - (25/6)sqrt(125/36)
p5509
tp5510
a(g5181
VQ(9)
p5511
tp5512
a(g5083
VPhi(9)
p5513
tp5514
a(g5083
V1-Phi(9)
p5515
tp5516
a(g5083
VQ(9)
p5517
tp5518
a(V(7-23*1/6)/[sqrt(23/6*(1-1/6))]
p5519
V6.913
p5520
tp5521
a(V(11-29*1/4)/[sqrt(29/4*(1-1/4))]
p5522
VC(29,11)(.25^11)(.75^18)
p5523
tp5524
a(g5522
VQ(11)
p5525
tp5526
a(g5190
VQ(12)
p5527
tp5528
a(V(11-30*1/4)/[sqrt(30/4*(1-1/4))]
p5529
V11/30
p5530
tp5531
a(V(11-30*1/4)/[sqrt(30/4*(1-1/4))]
p5532
V0.0585207071
p5533
tp5534
a(g5124
V1-7.26*10^-24
p5535
tp5536
a(g5124
VQ(10)
p5537
tp5538
a(V(10-24*1/6)/[sqrt(24/6*(1-1/6))]
p5539
Vsqrt(1/6*(1-1/6))
p5540
tp5541
a(g5539
Vsqrt(1/6*(1-1/6))
p5542
tp5543
a(V(9-23*1/4)/[sqrt(23/4*(1-1/4))]
p5544
VQ(9)
p5545
tp5546
a(V(9-23*1/6)/[sqrt(23/6*(1-1/6))]
p5547
VQ(9)
p5548
tp5549
a(V(9-26*1/6)/[sqrt(26/6*(1-1/6))]
p5550
V84/65
p5551
tp5552
a(g5544
VQ(1-9)
p5553
tp5554
a(V(9-20*1/6)/[sqrt(20/6*(1-1/6))]
p5555
V0.76026
p5556
tp5557
a(g5555
V0.262
p5558
tp5559
a(V(11-25*1/4)/[sqrt(25/4*(1-1/4))]
p5560
Vsqrt(sqrt(1076.66))
p5561
tp5562
a(g5560
VQ(25/4)
p5563
tp5564
a(V(12-24*1/6)/[sqrt(24/6*(1-1/6))]
p5565
V1-Phi(12)
p5566
tp5567
a(g5565
VQ(12)
p5568
tp5569
a(V(10-26*1/5)/[sqrt(26/5*(1-1/5))]
p5570
V(8-4.16)/sqrt(20.84/6)
p5571
tp5572
a(V(9-21*1/6)/[sqrt(21/6*(1-1/6))]
p5573
V3.5/sqrt(21)
p5574
tp5575
asS"['R.1']"
p5576
(lp5577
(V(12-24*1/4)/[sqrt(24/4*(1-1/4))]
p5578
V(24-12)/((24(1/4)(1-1/4))^(1/2))
p5579
(lp5580
(S'R.1'
p5581
F2.1213203435596424
Vsqrt(24/4*(1-1/4))
p5582
V(24(1/4)(1-1/4))^(1/2)
p5583
tp5584
aVt1tran
p5585
(lp5586
(V$n
p5587
V0.25
p5588
tp5589
a(V$nc
p5590
V6
p5591
tp5592
a(V$corr
p5593
V0
p5594
tp5595
a(V$ans
p5596
V0.00719965
p5597
tp5598
a(V$a
p5599
V4
p5600
tp5601
a(V$mean
p5602
V14
p5603
tp5604
a(V$low
p5605
V12
p5606
tp5607
a(V$x
p5608
V0.00719965
p5609
tp5610
a(V$phi
p5611
V24
p5612
tp5613
a(V$std
p5614
V25
p5615
tp5616
a(V$p
p5617
V10
p5618
tp5619
a(V$high
p5620
V2.12132
p5621
tp5622
aV2015-11-03 19:54:56
p5623
tp5624
a(V(9-28*1/5)/[sqrt(28/5*(1-1/5))]
p5625
V(28-5.6)/2.1166
p5626
(lp5627
(S'R.1'
p5628
F2.116601048851672
Vsqrt(28/5*(1-1/5))
p5629
V2.1166
p5630
tp5631
aVmcatozzi
p5632
(lp5633
(V$n
p5634
V0.2
p5635
tp5636
a(V$nc
p5637
V5.6
p5638
tp5639
a(V$corr
p5640
V0
p5641
tp5642
a(V$ans
p5643
V0.0900347
p5644
tp5645
a(V$a
p5646
V5
p5647
tp5648
a(V$mean
p5649
V13
p5650
tp5651
a(V$low
p5652
V9
p5653
tp5654
a(V$x
p5655
V0.0900347
p5656
tp5657
a(V$phi
p5658
V28
p5659
tp5660
a(V$std
p5661
V29
p5662
tp5663
a(V$p
p5664
V9
p5665
tp5666
a(V$high
p5667
V2.1166
p5668
tp5669
aV2015-11-03 20:44:47
p5670
tp5671
a(g5489
V(5-4.4)/[sqrt(4.4*(1-(1/5)))]
p5672
(lp5673
(S'R.1'
p5674
F1.876166303929372
Vsqrt(22/5*(1-1/5))
p5675
Vsqrt(4.4*(1-(1/5)))
p5676
tp5677
aVabjara
p5678
g4931
V2015-11-04 03:21:31
p5679
tp5680
a(V(9-28*1/5)/[sqrt(28/5*(1-1/5))]
p5681
V2.9/(2.1166)
p5682
(lp5683
(S'R.1'
p5684
F2.116601048851672
Vsqrt(28/5*(1-1/5))
p5685
V2.1166
p5686
tp5687
aVn2patil
p5688
(lp5689
(V$n
p5690
V0.2
p5691
tp5692
a(V$nc
p5693
V5.6
p5694
tp5695
a(V$corr
p5696
V0
p5697
tp5698
a(V$ans
p5699
V0.0900347
p5700
tp5701
a(V$a
p5702
V5
p5703
tp5704
a(V$mean
p5705
V13
p5706
tp5707
a(V$low
p5708
V9
p5709
tp5710
a(V$x
p5711
V0.0900347
p5712
tp5713
a(V$phi
p5714
V28
p5715
tp5716
a(V$std
p5717
V29
p5718
tp5719
a(V$p
p5720
V9
p5721
tp5722
a(V$high
p5723
V2.1166
p5724
tp5725
aV2015-11-05 02:21:06
p5726
tp5727
a(g5681
V2.9/4.48^(1/2)
p5728
(lp5729
(S'R.1'
p5730
F2.116601048851672
Vsqrt(28/5*(1-1/5))
p5731
V4.48^(1/2)
p5732
tp5733
aVn2patil
p5734
g5689
V2015-11-05 02:24:18
p5735
tp5736
a(g5681
V3.9/4.48^(1/2)
p5737
(lp5738
(S'R.1'
p5739
F2.116601048851672
Vsqrt(28/5*(1-1/5))
p5740
V4.48^(1/2)
p5741
tp5742
aVn2patil
p5743
g5689
V2015-11-05 02:25:00
p5744
tp5745
a(g5681
V(8.5-5.6)/4.48^(1/2)
p5746
(lp5747
(S'R.1'
p5748
F2.116601048851672
Vsqrt(28/5*(1-1/5))
p5749
V4.48^(1/2)
p5750
tp5751
aVn2patil
p5752
g5689
V2015-11-05 02:28:04
p5753
tp5754
a(g5681
V(9.5-5.6)/4.48^(1/2)
p5755
(lp5756
(S'R.1'
p5757
F2.116601048851672
Vsqrt(28/5*(1-1/5))
p5758
V4.48^(1/2)
p5759
tp5760
aVn2patil
p5761
g5689
V2015-11-05 02:29:08
p5762
tp5763
a(g5681
V(8.5-5.6)/2.1166
p5764
(lp5765
(S'R.1'
p5766
F2.116601048851672
Vsqrt(28/5*(1-1/5))
p5767
V2.1166
p5768
tp5769
aVn2patil
p5770
g5689
V2015-11-05 02:29:44
p5771
tp5772
a(V(11-29*1/5)/[sqrt(29/5*(1-1/5))]
p5773
V29/5((29*4/25)^.5)
p5774
(lp5775
(S'R.1'
p5776
F2.1540659228538015
Vsqrt(29/5*(1-1/5))
p5777
V(29*4/25)^.5)
p5778
tp5779
aVkrau
p5780
g3287
V2015-11-05 03:27:39
p5781
tp5782
a(g5519
V[(23/6)/(23*5/36)^(1/2)]
p5783
(lp5784
(S'R.1'
p5785
F1.7873008824606014
Vsqrt(23/6*(1-1/6))
p5786
V(23*5/36)^(1/2)
p5787
tp5788
aVaakumar
p5789
g1451
V2015-11-05 05:28:49
p5790
tp5791
a(V(10-24*1/4)/[sqrt(24/4*(1-1/4))]
p5792
V2*4.5^(1/2)
p5793
(lp5794
(S'R.1'
p5795
F2.1213203435596424
Vsqrt(24/4*(1-1/4))
p5796
V4.5^(1/2)
p5797
tp5798
aVyeh013
p5799
(lp5800
(V$n
p5801
V0.25
p5802
tp5803
a(V$nc
p5804
V6
p5805
tp5806
a(V$corr
p5807
V0
p5808
tp5809
a(V$ans
p5810
V0.0546649
p5811
tp5812
a(V$a
p5813
V4
p5814
tp5815
a(V$mean
p5816
V14
p5817
tp5818
a(V$low
p5819
V10
p5820
tp5821
a(V$x
p5822
V0.0546649
p5823
tp5824
a(V$phi
p5825
V24
p5826
tp5827
a(V$std
p5828
V25
p5829
tp5830
a(V$p
p5831
V10
p5832
tp5833
a(V$high
p5834
V2.12132
p5835
tp5836
aV2015-11-05 07:08:54
p5837
tp5838
a(V(13-20*1/4)/[sqrt(20/4*(1-1/4))]
p5839
V(20-5)/ ((15)^(1/2) / 2)
p5840
(lp5841
(S'R.1'
p5842
F1.9364916731037085
Vsqrt(20/4*(1-1/4))
p5843
V(15)^(1/2) / 2
p5844
tp5845
aVjhp077
p5846
(lp5847
(V$n
p5848
V0.25
p5849
tp5850
a(V$nc
p5851
V5
p5852
tp5853
a(V$corr
p5854
V0
p5855
tp5856
a(V$ans
p5857
V0.000183704
p5858
tp5859
a(V$a
p5860
V4
p5861
tp5862
a(V$mean
p5863
V13
p5864
tp5865
a(V$low
p5866
V13
p5867
tp5868
a(V$x
p5869
V0.000183704
p5870
tp5871
a(V$phi
p5872
V20
p5873
tp5874
a(V$std
p5875
V21
p5876
tp5877
a(V$p
p5878
V9
p5879
tp5880
a(V$high
p5881
V1.93649
p5882
tp5883
aV2015-11-05 13:43:02
p5884
tp5885
a(V(11-21*1/5)/[sqrt(21/5*(1-1/5))]
p5886
V(6-[21*1/5])/[sqrt(21*1/5*(1-1/5))]
p5887
(lp5888
(S'R.1'
p5889
F1.8330302779823362
Vsqrt(21/5*(1-1/5))
p5890
Vsqrt(21*1/5*(1-1/5))
p5891
tp5892
aVffhaddad
p5893
(lp5894
(V$n
p5895
V0.2
p5896
tp5897
a(V$nc
p5898
V4.2
p5899
tp5900
a(V$corr
p5901
V0
p5902
tp5903
a(V$ans
p5904
V0.000969696
p5905
tp5906
a(V$a
p5907
V5
p5908
tp5909
a(V$mean
p5910
V12
p5911
tp5912
a(V$low
p5913
V11
p5914
tp5915
a(V$x
p5916
V0.000969696
p5917
tp5918
a(V$phi
p5919
V21
p5920
tp5921
a(V$std
p5922
V22
p5923
tp5924
a(V$p
p5925
V8
p5926
tp5927
a(V$high
p5928
V1.83303
p5929
tp5930
aV2015-11-05 21:03:45
p5931
tp5932
a(V(9-22*1/5)/[sqrt(22/5*(1-1/5))]
p5933
V(22-22/5)/1.876166
p5934
(lp5935
(S'R.1'
p5936
F1.876166303929372
Vsqrt(22/5*(1-1/5))
p5937
V1.876166
p5938
tp5939
aVxweng
p5940
g3717
V2015-11-06 00:57:51
p5941
tp5942
a(g5933
V(22-22/5)/1.8761669
p5943
(lp5944
(S'R.1'
p5945
F1.876166303929372
Vsqrt(22/5*(1-1/5))
p5946
V1.8761669
p5947
tp5948
aVxweng
p5949
g3717
V2015-11-06 00:58:31
p5950
tp5951
a(V(9-22*1/4)/[sqrt(22/4*(1-1/4))]
p5952
V(22/4)/(sqrt(22*(1/4)*(3/4)))
p5953
(lp5954
(S'R.1'
p5955
F2.03100960115899
Vsqrt(22/4*(1-1/4))
p5956
Vsqrt(22*(1/4)*(3/4))
p5957
tp5958
aVpnquach
p5959
(lp5960
(V$n
p5961
V0.25
p5962
tp5963
a(V$nc
p5964
V5.5
p5965
tp5966
a(V$corr
p5967
V0
p5968
tp5969
a(V$ans
p5970
V0.0745885
p5971
tp5972
a(V$a
p5973
V4
p5974
tp5975
a(V$mean
p5976
V13
p5977
tp5978
a(V$low
p5979
V9
p5980
tp5981
a(V$x
p5982
V0.0745885
p5983
tp5984
a(V$phi
p5985
V22
p5986
tp5987
a(V$std
p5988
V23
p5989
tp5990
a(V$p
p5991
V9
p5992
tp5993
a(V$high
p5994
V2.03101
p5995
tp5996
aV2015-11-06 05:48:28
p5997
tp5998
a(g5359
V5/sqrt(1/6(1-1/6)24)
p5999
(lp6000
(S'R.1'
p6001
F1.8257418583505538
Vsqrt(24/6*(1-1/6))
p6002
Vsqrt(1/6(1-1/6)24)
p6003
tp6004
aVmbl003
p6005
g5365
V2015-11-06 21:06:34
p6006
tp6007
a(g5359
V8/sqrt(1/6(1-1/6)24)
p6008
(lp6009
(S'R.1'
p6010
F1.8257418583505538
Vsqrt(24/6*(1-1/6))
p6011
Vsqrt(1/6(1-1/6)24)
p6012
tp6013
aVmbl003
p6014
g5365
V2015-11-06 21:06:43
p6015
tp6016
a(g5565
V(6-4)/([24(1/6)(1-1/6)]^(1/2))
p6017
(lp6018
(S'R.1'
p6019
F1.8257418583505538
Vsqrt(24/6*(1-1/6))
p6020
V[24(1/6)(1-1/6)]^(1/2)
p6021
tp6022
aVasp025
p6023
g1703
V2015-11-06 23:01:01
p6024
tp6025
a(g5565
V(24-4)/([24(1/6)(1-1/6)]^(1/2))
p6026
(lp6027
(S'R.1'
p6028
F1.8257418583505538
Vsqrt(24/6*(1-1/6))
p6029
V[24(1/6)(1-1/6)]^(1/2)
p6030
tp6031
aVasp025
p6032
g1703
V2015-11-06 23:12:04
p6033
tp6034
a(V(13-27*1/5)/[sqrt(27/5*(1-1/5))]
p6035
V13/sqrt(27*(1/5)*(4/5))
p6036
(lp6037
(S'R.1'
p6038
F2.078460969082653
Vsqrt(27/5*(1-1/5))
p6039
Vsqrt(27*(1/5)*(4/5))
p6040
tp6041
aVw4shin
p6042
g4785
V2015-11-06 23:42:49
p6043
tp6044
a(g6035
V27/sqrt(27*(1/5)*(4/5))
p6045
(lp6046
(S'R.1'
p6047
F2.078460969082653
Vsqrt(27/5*(1-1/5))
p6048
Vsqrt(27*(1/5)*(4/5))
p6049
tp6050
aVw4shin
p6051
g4785
V2015-11-06 23:42:57
p6052
tp6053
a(g5110
V10 * sqrt(4*24/25)
p6054
(lp6055
(S'R.1'
p6056
F1.9595917942265424
Vsqrt(24/5*(1-1/5))
p6057
Vsqrt(4*24/25)
p6058
tp6059
aVrraiyyan
p6060
(lp6061
(V$n
p6062
V0.2
p6063
tp6064
a(V$nc
p6065
V4.8
p6066
tp6067
a(V$corr
p6068
V0
p6069
tp6070
a(V$ans
p6071
V0.0126211
p6072
tp6073
a(V$a
p6074
V5
p6075
tp6076
a(V$mean
p6077
V12
p6078
tp6079
a(V$low
p6080
V10
p6081
tp6082
a(V$x
p6083
V0.0126211
p6084
tp6085
a(V$phi
p6086
V24
p6087
tp6088
a(V$std
p6089
V25
p6090
tp6091
a(V$p
p6092
V8
p6093
tp6094
a(V$high
p6095
V1.95959
p6096
tp6097
aV2015-11-06 23:47:29
p6098
tp6099
a(g5110
V10 * sqrt(4*24/25)
p6100
(lp6101
(S'R.1'
p6102
F1.9595917942265424
Vsqrt(24/5*(1-1/5))
p6103
Vsqrt(4*24/25)
p6104
tp6105
aVrraiyyan
p6106
g6061
V2015-11-06 23:48:14
p6107
tp6108
a(g5110
V10 * sqrt(4*24/25)
p6109
(lp6110
(S'R.1'
p6111
F1.9595917942265424
Vsqrt(24/5*(1-1/5))
p6112
Vsqrt(4*24/25)
p6113
tp6114
aVrraiyyan
p6115
g6061
V2015-11-06 23:51:03
p6116
tp6117
a(g5110
V5 sqrt(4*24/25)
p6118
(lp6119
(S'R.1'
p6120
F1.9595917942265424
Vsqrt(24/5*(1-1/5))
p6121
Vsqrt(4*24/25)
p6122
tp6123
aVrraiyyan
p6124
g6061
V2015-11-06 23:54:05
p6125
tp6126
a(V(11-27*1/5)/[sqrt(27/5*(1-1/5))]
p6127
V11/sqrt(1/5*4/5*27)
p6128
(lp6129
(S'R.1'
p6130
F2.078460969082653
Vsqrt(27/5*(1-1/5))
p6131
Vsqrt(1/5*4/5*27)
p6132
tp6133
aVedcole
p6134
g1002
V2015-11-07 00:43:24
p6135
tp6136
asS"['R.0.0', 'R.1']"
p6137
(lp6138
(g5773
V(11-19/5)/(29*4/25)^.5
p6139
(lp6140
(S'R.0.0'
p6141
F11.0
V11
p6142
V11
p6143
tp6144
a(S'R.1'
p6145
F2.1540659228538015
Vsqrt(29/5*(1-1/5))
p6146
V(29*4/25)^.5
p6147
tp6148
aVkrau
p6149
g3287
V2015-11-05 03:28:07
p6150
tp6151
a(V(11-27*1/6)/[sqrt(27/6*(1-1/6))]
p6152
V(11-27/8)/sqrt(27*5/36)
p6153
(lp6154
(S'R.0.0'
p6155
F11.0
V11
p6156
V11
p6157
tp6158
a(S'R.1'
p6159
F1.9364916731037085
Vsqrt(27/6*(1-1/6))
p6160
Vsqrt(27*5/36)
p6161
tp6162
aVk3tan
p6163
(lp6164
(V$n
p6165
V0.166667
p6166
tp6167
a(V$nc
p6168
V4.5
p6169
tp6170
a(V$corr
p6171
V0
p6172
tp6173
a(V$ans
p6174
V0.0026105
p6175
tp6176
a(V$a
p6177
V6
p6178
tp6179
a(V$mean
p6180
V12
p6181
tp6182
a(V$low
p6183
V11
p6184
tp6185
a(V$x
p6186
V0.0026105
p6187
tp6188
a(V$phi
p6189
V27
p6190
tp6191
a(V$std
p6192
V28
p6193
tp6194
a(V$p
p6195
V8
p6196
tp6197
a(V$high
p6198
V1.93649
p6199
tp6200
aV2015-11-06 23:28:09
p6201
tp6202
asS"['R.0']"
p6203
(lp6204
(g5171
V(10-27/6)/(27/6)^(1/2)
p6205
(lp6206
(S'R.0'
p6207
F5.5
V10-27*1/6
p6208
V10-27/6
p6209
tp6210
aVvsamant
p6211
g564
V2015-11-04 01:13:41
p6212
tp6213
a(g5496
V(8-(29/6))/((29*1*5/36)^0.5/(29)^0.5)
p6214
(lp6215
(S'R.0'
p6216
F3.166666666666667
V8-29*1/6
p6217
V8-(29/6)
p6218
tp6219
aVb1yao
p6220
(lp6221
(V$n
p6222
V0.166667
p6223
tp6224
a(V$nc
p6225
V4.83333
p6226
tp6227
a(V$corr
p6228
V0
p6229
tp6230
a(V$ans
p6231
V0.0968545
p6232
tp6233
a(V$a
p6234
V6
p6235
tp6236
a(V$mean
p6237
V12
p6238
tp6239
a(V$low
p6240
V8
p6241
tp6242
a(V$x
p6243
V0.0968545
p6244
tp6245
a(V$phi
p6246
V29
p6247
tp6248
a(V$std
p6249
V30
p6250
tp6251
a(V$p
p6252
V8
p6253
tp6254
a(V$high
p6255
V2.00693
p6256
tp6257
aV2015-11-04 19:43:28
p6258
tp6259
a(g5237
VQ(12-5)
p6260
(lp6261
(S'R.0'
p6262
F7.0
V12-20*1/4
p6263
V12-5
p6264
tp6265
aVdan029
p6266
g5245
V2015-11-05 09:30:48
p6267
tp6268
a(V(11-28*1/5)/[sqrt(28/5*(1-1/5))]
p6269
V(11-28/5)/sqrt(5*(4/25))
p6270
(lp6271
(S'R.0'
p6272
F5.4
V11-28*1/5
p6273
V11-28/5
p6274
tp6275
aVqfu
p6276
(lp6277
(V$n
p6278
V0.2
p6279
tp6280
a(V$nc
p6281
V5.6
p6282
tp6283
a(V$corr
p6284
V0
p6285
tp6286
a(V$ans
p6287
V0.0148629
p6288
tp6289
a(V$a
p6290
V5
p6291
tp6292
a(V$mean
p6293
V13
p6294
tp6295
a(V$low
p6296
V11
p6297
tp6298
a(V$x
p6299
V0.0148629
p6300
tp6301
a(V$phi
p6302
V28
p6303
tp6304
a(V$std
p6305
V29
p6306
tp6307
a(V$p
p6308
V9
p6309
tp6310
a(V$high
p6311
V2.1166
p6312
tp6313
aV2015-11-06 03:05:16
p6314
tp6315
a(V(12-25*1/6)/[sqrt(25/6*(1-1/6))]
p6316
V(12 - (25/6)) / [(25/6)*((1 - (1/6)))]
p6317
(lp6318
(S'R.0'
p6319
F7.833333333333333
V12-25*1/6
p6320
V12 - (25/6)
p6321
tp6322
aVmrchin
p6323
g3851
V2015-11-06 20:01:48
p6324
tp6325
a(V(15-28*1/4)/[sqrt(28/4*(1-1/4))]
p6326
V[15 - (28 * (1/4))]/[(sqrt((1/4)(3/4)*28))*sqrt(28)]
p6327
(lp6328
(S'R.0'
p6329
F8.0
V15-28*1/4
p6330
V15 - (28 * (1/4))
p6331
tp6332
aVbmilton
p6333
(lp6334
(V$n
p6335
V0.25
p6336
tp6337
a(V$nc
p6338
V7
p6339
tp6340
a(V$corr
p6341
V0
p6342
tp6343
a(V$ans
p6344
V0.00111856
p6345
tp6346
a(V$a
p6347
V4
p6348
tp6349
a(V$mean
p6350
V15
p6351
tp6352
a(V$low
p6353
V15
p6354
tp6355
a(V$x
p6356
V0.00111856
p6357
tp6358
a(V$phi
p6359
V28
p6360
tp6361
a(V$std
p6362
V29
p6363
tp6364
a(V$p
p6365
V11
p6366
tp6367
a(V$high
p6368
V2.29129
p6369
tp6370
aV2015-11-06 22:44:19
p6371
tp6372
a(V(13-27*1/5)/[sqrt(27/5*(1-1/5))]
p6373
V(13-(27/5))/((13-(27/5))^2)
p6374
(lp6375
(S'R.0'
p6376
F7.6
V13-27*1/5
p6377
V13-(27/5)
p6378
tp6379
aVhaliew
p6380
(lp6381
(V$n
p6382
V0.2
p6383
tp6384
a(V$nc
p6385
V5.4
p6386
tp6387
a(V$corr
p6388
V0
p6389
tp6390
a(V$ans
p6391
V0.000951204
p6392
tp6393
a(V$a
p6394
V5
p6395
tp6396
a(V$mean
p6397
V13
p6398
tp6399
a(V$low
p6400
V13
p6401
tp6402
a(V$x
p6403
V0.000951204
p6404
tp6405
a(V$phi
p6406
V27
p6407
tp6408
a(V$std
p6409
V28
p6410
tp6411
a(V$p
p6412
V9
p6413
tp6414
a(V$high
p6415
V2.07846
p6416
tp6417
aV2015-11-06 23:56:38
p6418
tp6419
a(g5570
V(10-5.2)/sqrt(20.84/6)
p6420
(lp6421
(S'R.0'
p6422
F4.8
V10-26*1/5
p6423
V10-5.2
p6424
tp6425
aVmnrahman
p6426
(lp6427
(V$n
p6428
V0.2
p6429
tp6430
a(V$nc
p6431
V5.2
p6432
tp6433
a(V$corr
p6434
V0
p6435
tp6436
a(V$ans
p6437
V0.0232203
p6438
tp6439
a(V$a
p6440
V5
p6441
tp6442
a(V$mean
p6443
V13
p6444
tp6445
a(V$low
p6446
V10
p6447
tp6448
a(V$x
p6449
V0.0232203
p6450
tp6451
a(V$phi
p6452
V26
p6453
tp6454
a(V$std
p6455
V27
p6456
tp6457
a(V$p
p6458
V9
p6459
tp6460
a(V$high
p6461
V2.03961
p6462
tp6463
aV2015-11-07 00:37:09
p6464
tp6465
a(g5460
VQ(8 - 25 / 6)
p6466
(lp6467
(S'R.0'
p6468
F3.833333333333333
V8-25*1/6
p6469
V8 - 25 / 6
p6470
tp6471
aVv3doan
p6472
g3948
V2015-11-07 00:37:41
p6473
tp6474
a(g5570
V(10-5.2)/sqrt(26/6)
p6475
(lp6476
(S'R.0'
p6477
F4.8
V10-26*1/5
p6478
V10-5.2
p6479
tp6480
aVmnrahman
p6481
g6427
V2015-11-07 00:44:20
p6482
tp6483
a(g5570
V(10-5.2)/sqrt(26/5)
p6484
(lp6485
(S'R.0'
p6486
F4.8
V10-26*1/5
p6487
V10-5.2
p6488
tp6489
aVmnrahman
p6490
g6427
V2015-11-07 00:45:30
p6491
tp6492
asg201
(lp6493
(g5124
V(10-11.5)/1
p6494
tp6495
a(g5578
V(24(1/4)-12)/((24(1/4)(1-1/4))^(1/2))
p6496
tp6497
a(V(8-21*1/5)/[sqrt(21/5*(1-1/5))]
p6498
V(8 - 21)/ sqrt(21 * .2 * .8)
p6499
tp6500
a(g6498
V(8 - 21)/ (sqrt(21 * .2 * .8)/sqrt(21))
p6501
tp6502
a(V(15-30*1/4)/[sqrt(30/4*(1-1/4))]
p6503
V[(1/15)*(30) - 15*(1/4)*30]/[sqrt(30*(1/4)*(1-(1/4)))*sqrt(15)]
p6504
tp6505
a(g6503
V[(1/15)*(30*4) - 15*(1/4)*30]/[sqrt(30*(1/4)*(1-(1/4)))*sqrt(15)]
p6506
tp6507
a(g6503
V[(1/15)*(30*15) - 15*(1/4)*30]/[sqrt(30*(1/4)*(1-(1/4)))*sqrt(15)]
p6508
tp6509
a(g6503
V[15 - 15*(1/4)*30]/[sqrt(30*(1/4)*(1-(1/4)))]
p6510
tp6511
a(V(12-26*1/6)/[sqrt(26/6*(1-1/6))]
p6512
V12-(26/(1/6))/(sqrt(26*(1/6)*(1-(1/6))))
p6513
tp6514
a(g6512
V(12-(26/(1/6))/(sqrt(26*(1/6)*(1-(1/6)))))
p6515
tp6516
a(g6512
V12-(26/(1/6))/ (sqrt( 26 / 6 * (1-1/ 6)))
p6517
tp6518
a(g5181
V(23*(1/6)-9)/([23*(1/6)*(1-(1/6))]^(1/2))
p6519
tp6520
a(V(12-29*1/5)/[sqrt(29/5*(1-1/5))]
p6521
V12-(5.8/(2.15406592285/sqrt(23)))
p6522
tp6523
a(g5519
V1-[(23/6)/(23*5/36)^(1/2)]
p6524
tp6525
a(g5086
V-1
p6526
tp6527
a(V(9-22*1/4)/[sqrt(22/4*(1-1/4))]
p6528
V(5.5-22)/sqrt(.25*.75*22)
p6529
tp6530
a(g6528
V(5.5-9)/sqrt(.25*.75*22)
p6531
tp6532
a(V(7-21*1/6)/[sqrt(21/6*(1-1/6))]
p6533
V7-(21.6)/sqrt(21*(1/6)*(1-1/6))
p6534
tp6535
a(g6533
V(7-21.6)/sqrt(21*(1/6)*(1-1/6))
p6536
tp6537
a(g6533
V(7-21.6)/sqrt( 21/6* (1-1/6))
p6538
tp6539
a(g5092
V-1
p6540
tp6541
a(g5092
V-2
p6542
tp6543
a(g5092
V-3
p6544
tp6545
a(g5101
V-2.3474
p6546
tp6547
a(V(11-24*1/6)/[sqrt(24/6*(1-1/6))]
p6548
V-78/19
p6549
tp6550
a(g6326
V[15 - 28* (28 * (1/4))]/[(sqrt((1/4)(3/4)*28))*sqrt(28)]
p6551
tp6552
a(V(12-25*1/4)/[sqrt(25/4*(1-1/4))]
p6553
V-13/(5(3^0.5)/4)
p6554
tp6555
asS"['R.1.0.0']"
p6556
(lp6557
(g6521
V12-(5.8/2.15406592285/sqrt(23))
p6558
(lp6559
(S'R.1.0.0'
p6560
F5.8
V29/5
p6561
V5.8
p6562
tp6563
aVabasu
p6564
g3332
V2015-11-05 05:24:30
p6565
tp6566
asS"['R.0.0', 'R.1.0.0']"
p6567
(lp6568
(g5468
V(12-4.33)/sqrt((26/6)6)
p6569
(lp6570
(S'R.0.0'
p6571
F12.0
V12
p6572
V12
p6573
tp6574
a(S'R.1.0.0'
p6575
F4.333333333333333
V26/6
p6576
V26/6
p6577
tp6578
aVsthapa
p6579
g1049
V2015-11-07 00:43:31
p6580
tp6581
ass.