(dp0
V1
p1
(dp2
Vyjshin
p3
(dp4
S'part1_correct_attempt'
p5
(lp6
S'0:00:26'
p7
aV(314.5)
p8
asS'first_attempt'
p9
V2015-11-06 23:35:02
p10
sS'part1_incorrect_attempt'
p11
(lp12
(S'0:00:00'
p13
V(314.5+280.5)/2
p14
tp15
a(S'0:00:20'
p16
V(314.5)/2
p17
tp18
assVagoldsht
p19
(dp20
S'part1_correct_attempt'
p21
(lp22
S'0:03:15'
p23
aV152*.87
p24
asg9
V2015-11-04 20:43:52
p25
sS'part1_incorrect_attempt'
p26
(lp27
(S'0:00:00'
p28
V150/152
p29
tp30
a(S'0:00:55'
p31
V150/152
p32
tp33
assVhkhodada
p34
(dp35
S'part1_correct_attempt'
p36
(lp37
S'0:00:38'
p38
aV0.81*332
p39
asg9
V2015-11-03 01:24:27
p40
sS'part1_incorrect_attempt'
p41
(lp42
(S'0:00:00'
p43
V81/100
p44
tp45
assVglcohen
p46
(dp47
S'part1_correct_attempt'
p48
(lp49
S'0:15:07'
p50
aV(172*.85)
p51
asg9
V2015-11-03 22:18:15
p52
sS'part1_incorrect_attempt'
p53
(lp54
(S'0:00:00'
p55
V170/2
p56
tp57
assVfichoi
p58
(dp59
S'part1_correct_attempt'
p60
(lp61
S'0:23:23'
p62
aV.84 * 384
p63
asg9
V2015-11-04 23:35:23
p64
sS'part1_incorrect_attempt'
p65
(lp66
(S'0:00:00'
p67
V322.56/384
p68
tp69
a(S'0:00:00'
p70
V294/350
p71
tp72
a(S'0:07:20'
p73
V350/294
p74
tp75
a(S'0:08:47'
p76
V.84 * 350
p77
tp78
assVd6he
p79
(dp80
S'part1_correct_attempt'
p81
(lp82
S'0:00:49'
p83
aV346.72
p84
asg9
V2015-11-05 07:20:50
p85
sS'part1_incorrect_attempt'
p86
(lp87
(S'0:00:00'
p88
V358.36
p89
tp90
assVasp025
p91
(dp92
S'part1_correct_attempt'
p93
(lp94
S'0:04:12'
p95
aV.84*284
p96
asg9
V2015-11-06 23:49:39
p97
sS'part1_incorrect_attempt'
p98
(lp99
(S'0:00:00'
p100
V1/260
p101
tp102
assVjjm019
p103
(dp104
S'part1_correct_attempt'
p105
(lp106
S'2:31:53'
p107
aV.80(260)
p108
asg9
V2015-11-05 03:44:24
p109
sS'part1_incorrect_attempt'
p110
(lp111
(S'0:00:00'
p112
V(208+230)/2
p113
tp114
assVmhale
p115
(dp116
S'part1_correct_attempt'
p117
(lp118
S'0:00:07'
p119
aV.82 * 321
p120
asg9
V2015-11-05 20:42:55
p121
sS'part1_incorrect_attempt'
p122
(lp123
(S'0:00:00'
p124
V.82 * 312
p125
tp126
assVthk002
p127
(dp128
S'part1_correct_attempt'
p129
(lp130
S'0:38:43'
p131
aV174*.82
p132
asg9
V2015-11-05 06:20:22
p133
sS'part1_incorrect_attempt'
p134
(lp135
(S'0:00:00'
p136
V131.2
p137
tp138
assVmitopete
p139
(dp140
S'part1_correct_attempt'
p141
(lp142
S'0:02:26'
p143
aV0.84(241)
p144
asg9
V2015-11-07 00:18:55
p145
sS'part1_incorrect_attempt'
p146
(lp147
(S'0:00:00'
p148
V(220+241)/2
p149
tp150
a(S'0:02:14'
p151
V0.84(220)
p152
tp153
assVsachadal
p154
(dp155
S'part1_correct_attempt'
p156
(lp157
S'0:00:07'
p158
aV0.85*201
p159
asg9
V2015-11-05 21:29:37
p160
sS'part1_incorrect_attempt'
p161
(lp162
(S'0:00:00'
p163
V0.85*190
p164
tp165
assVmroknich
p166
(dp167
S'part1_correct_attempt'
p168
(lp169
S'0:00:25'
p170
aV.88*293
p171
asg9
V2015-11-01 21:37:25
p172
sS'part1_incorrect_attempt'
p173
(lp174
(S'0:00:00'
p175
V.88*280
p176
tp177
assVbeyounge
p178
(dp179
S'part1_correct_attempt'
p180
(lp181
S'0:00:28'
p182
aV0.86 * 356
p183
asg9
V2015-10-30 06:38:00
p184
sS'part1_incorrect_attempt'
p185
(lp186
(S'0:00:00'
p187
V0.43 * 356
p188
tp189
a(S'0:00:08'
p190
V0.43 * 330
p191
tp192
assVdlt009
p193
(dp194
S'part1_correct_attempt'
p195
(lp196
S'0:00:27'
p197
aV.82*244
p198
asg9
V2015-11-05 08:55:41
p199
sS'part1_incorrect_attempt'
p200
(lp201
(S'0:00:00'
p202
V.82*220
p203
tp204
assVmbl003
p205
(dp206
S'part1_correct_attempt'
p207
(lp208
S'0:00:31'
p209
aV282*.85
p210
asg9
V2015-11-06 21:12:44
p211
sS'part1_incorrect_attempt'
p212
(lp213
(S'0:00:00'
p214
V286/260
p215
tp216
a(S'0:00:09'
p217
V260/282
p218
tp219
assVdan029
p220
(dp221
S'part1_correct_attempt'
p222
(lp223
S'0:00:10'
p224
aV.81*220
p225
asg9
V2015-11-05 10:03:16
p226
sS'part1_incorrect_attempt'
p227
(lp228
(S'0:00:00'
p229
V.81*200
p230
tp231
assVtpmach
p232
(dp233
S'part1_correct_attempt'
p234
(lp235
S'0:00:53'
p236
aV0.84*334
p237
asg9
V2015-11-05 17:19:15
p238
sS'part1_incorrect_attempt'
p239
(lp240
(S'0:00:00'
p241
V300/334
p242
tp243
a(S'0:00:29'
p244
V0.84(300/334)
p245
tp246
assVcfgutier
p247
(dp248
S'part1_correct_attempt'
p249
(lp250
S'0:00:25'
p251
aV.83 * 234
p252
asg9
V2015-11-06 20:31:36
p253
sS'part1_incorrect_attempt'
p254
(lp255
(S'0:00:00'
p256
V.83 * 210
p257
tp258
assVdkostins
p259
(dp260
S'part1_correct_attempt'
p261
(lp262
S'0:01:43'
p263
aV.86 * 166
p264
asg9
V2015-11-06 05:22:54
p265
sS'part1_incorrect_attempt'
p266
(lp267
(S'0:00:00'
p268
V.86
p269
tp270
a(S'0:00:10'
p271
V160/166
p272
tp273
assVjnatale
p274
(dp275
S'part1_correct_attempt'
p276
(lp277
S'0:01:07'
p278
aV226*.81
p279
asg9
V2015-11-04 08:48:43
p280
sS'part1_incorrect_attempt'
p281
(lp282
(S'0:00:00'
p283
V200/226
p284
tp285
assVk4ma
p286
(dp287
S'part1_correct_attempt'
p288
(lp289
S'0:01:36'
p290
aV314
p291
asg9
V2015-11-06 22:04:58
p292
sS'part1_incorrect_attempt'
p293
(lp294
(S'0:00:00'
p295
V(365+330)/2
p296
tp297
assVrlhagen
p298
(dp299
S'part1_correct_attempt'
p300
(lp301
S'0:02:54'
p302
aV0.83*285
p303
asg9
V2015-10-31 20:23:40
p304
sS'part1_incorrect_attempt'
p305
(lp306
(S'0:00:00'
p307
V(260+285)/2
p308
tp309
a(S'0:02:29'
p310
V0.83
p311
tp312
a(S'0:02:47'
p313
V0.83*260
p314
tp315
assVnnh002
p316
(dp317
S'part1_correct_attempt'
p318
(lp319
S'0:03:33'
p320
aV(0.85*397)
p321
asg9
V2015-11-06 21:28:02
p322
sS'part1_incorrect_attempt'
p323
(lp324
(S'0:00:00'
p325
V(0.85*397+397)/2
p326
tp327
assVdcrume
p328
(dp329
S'part1_correct_attempt'
p330
(lp331
S'0:00:13'
p332
aV.86*331
p333
asg9
V2015-11-06 21:02:05
p334
sS'part1_incorrect_attempt'
p335
(lp336
(S'0:00:00'
p337
V.86
p338
tp339
assVr1gu
p340
(dp341
S'part1_correct_attempt'
p342
(lp343
S'0:00:07'
p344
aV333*0.85
p345
asg9
V2015-11-05 12:27:04
p346
sS'part1_incorrect_attempt'
p347
(lp348
(S'0:00:00'
p349
V3330.85
p350
tp351
assVhaliew
p352
(dp353
S'part1_correct_attempt'
p354
(lp355
S'0:00:20'
p356
aV223*.87
p357
asg9
V2015-11-07 00:33:52
p358
sS'part1_incorrect_attempt'
p359
(lp360
(S'0:00:00'
p361
V210/223
p362
tp363
assVl8ngo
p364
(dp365
S'part1_correct_attempt'
p366
(lp367
S'0:00:39'
p368
aV381*0.84
p369
asg9
V2015-10-30 16:44:01
p370
sS'part1_incorrect_attempt'
p371
(lp372
(S'0:00:00'
p373
V340/381
p374
tp375
assVajabasa
p376
(dp377
S'part1_correct_attempt'
p378
(lp379
S'0:00:06'
p380
aV.81*222
p381
asg9
V2015-11-05 22:37:24
p382
sS'part1_incorrect_attempt'
p383
(lp384
(S'0:00:00'
p385
V.81*200
p386
tp387
assVa2ahmed
p388
(dp389
S'part1_correct_attempt'
p390
(lp391
S'0:00:14'
p392
aV189.66
p393
asg9
V2015-11-07 00:53:49
p394
sS'part1_incorrect_attempt'
p395
(lp396
(S'0:00:00'
p397
V182.7
p398
tp399
assVdsriniva
p400
(dp401
S'part1_correct_attempt'
p402
(lp403
S'0:00:06'
p404
aV.86*320
p405
asg9
V2015-11-05 17:04:31
p406
sS'part1_incorrect_attempt'
p407
(lp408
(S'0:00:00'
p409
V86*320
p410
tp411
assVaurodrig
p412
(dp413
S'part1_correct_attempt'
p414
(lp415
S'0:00:38'
p416
aV283*.89
p417
asg9
V2015-11-07 00:11:29
p418
sS'part1_incorrect_attempt'
p419
(lp420
(S'0:00:00'
p421
V270*89
p422
tp423
assVetemlock
p424
(dp425
S'part1_correct_attempt'
p426
(lp427
S'0:01:07'
p428
aV319*.81
p429
asg9
V2015-11-05 03:28:17
p430
sS'part1_incorrect_attempt'
p431
(lp432
(S'0:00:00'
p433
V(319*.81)/280
p434
tp435
assVjguanzho
p436
(dp437
S'part1_correct_attempt'
p438
(lp439
S'0:00:12'
p440
aV0.8*273
p441
asg9
V2015-11-05 17:48:20
p442
sS'part1_incorrect_attempt'
p443
(lp444
(S'0:00:00'
p445
V0.8*240
p446
tp447
assVflhernan
p448
(dp449
S'part1_correct_attempt'
p450
(lp451
S'20:30:20'
p452
aV162*.82
p453
asg9
V2015-11-05 17:25:05
p454
sS'part1_incorrect_attempt'
p455
(lp456
(S'0:00:00'
p457
V141.42
p458
tp459
assVlahawkin
p460
(dp461
S'part1_correct_attempt'
p462
(lp463
S'0:00:11'
p464
aV(89/100)303
p465
asg9
V2015-11-04 04:59:22
p466
sS'part1_incorrect_attempt'
p467
(lp468
(S'0:00:00'
p469
V(89/100)290
p470
tp471
assVcstringh
p472
(dp473
S'part1_correct_attempt'
p474
(lp475
S'0:00:39'
p476
aV392 * .89
p477
asg9
V2015-11-04 07:33:36
p478
sS'part1_incorrect_attempt'
p479
(lp480
(S'0:00:00'
p481
V360/89
p482
tp483
assVralhadda
p484
(dp485
S'part1_correct_attempt'
p486
(lp487
S'0:06:48'
p488
aV241.08
p489
asg9
V2015-10-31 22:30:19
p490
sS'part1_incorrect_attempt'
p491
(lp492
(S'0:00:00'
p493
V1-.9990356
p494
tp495
a(S'0:03:05'
p496
V9.643*10^-4
p497
tp498
a(S'0:04:05'
p499
V0.999
p500
tp501
a(S'0:04:24'
p502
V0.000964
p503
tp504
assVstarinia
p505
(dp506
S'part1_correct_attempt'
p507
(lp508
S'0:04:38'
p509
aV.84 * 285
p510
asg9
V2015-11-05 03:48:29
p511
sS'part1_incorrect_attempt'
p512
(lp513
(S'0:00:00'
p514
V260 + 218.4 / 2
p515
tp516
a(S'0:00:08'
p517
V218.4
p518
tp519
assVm4salaza
p520
(dp521
S'part1_correct_attempt'
p522
(lp523
S'0:01:06'
p524
aV.81*293
p525
asg9
V2015-11-05 05:50:45
p526
sS'part1_incorrect_attempt'
p527
(lp528
(S'0:00:00'
p529
V.81*260
p530
tp531
assVvolim
p532
(dp533
S'part1_correct_attempt'
p534
(lp535
S'0:00:17'
p536
aV(317)*.84
p537
asg9
V2015-11-04 23:36:41
p538
sS'part1_incorrect_attempt'
p539
(lp540
(S'0:00:00'
p541
V290/317
p542
tp543
a(S'0:00:08'
p544
V.84
p545
tp546
assVyypan
p547
(dp548
S'part1_correct_attempt'
p549
(lp550
S'0:00:20'
p551
aV390*0.85
p552
asg9
V2015-11-03 01:30:52
p553
sS'part1_incorrect_attempt'
p554
(lp555
(S'0:00:00'
p556
V0.85
p557
tp558
assVatorr
p559
(dp560
S'part1_correct_attempt'
p561
(lp562
S'0:00:12'
p563
aV386 * .83
p564
asg9
V2015-11-06 00:45:09
p565
sS'part1_incorrect_attempt'
p566
(lp567
(S'0:00:00'
p568
V320.38/386
p569
tp570
assVaordookh
p571
(dp572
S'part1_correct_attempt'
p573
(lp574
S'0:11:40'
p575
aV290-(.89*18)
p576
asg9
V2015-11-06 06:40:25
p577
sS'part1_incorrect_attempt'
p578
(lp579
(S'0:00:00'
p580
V.89(290)/290
p581
tp582
a(S'0:00:34'
p583
V.89(290)
p584
tp585
a(S'0:00:47'
p586
V290/.89(290)
p587
tp588
a(S'0:01:03'
p589
V290/(.89(290))
p590
tp591
a(S'0:06:09'
p592
V290/(.11*290)
p593
tp594
a(S'0:06:25'
p595
V(.11*290)/290
p596
tp597
assVytc012
p598
(dp599
S'part1_correct_attempt'
p600
(lp601
S'0:00:11'
p602
aV0.85*369
p603
asg9
V2015-11-05 22:08:44
p604
sS'part1_incorrect_attempt'
p605
(lp606
(S'0:00:00'
p607
V0.85*340
p608
tp609
assVmtrafeca
p610
(dp611
S'part1_correct_attempt'
p612
(lp613
S'0:00:58'
p614
aV223*.89
p615
asg9
V2015-11-05 21:43:21
p616
sS'part1_incorrect_attempt'
p617
(lp618
(S'0:00:00'
p619
V.89
p620
tp621
a(S'0:00:13'
p622
V210/223
p623
tp624
assVj2phung
p625
(dp626
S'part1_correct_attempt'
p627
(lp628
S'0:19:11'
p629
aV.86 * 330
p630
asg9
V2015-11-05 18:33:17
p631
sS'part1_incorrect_attempt'
p632
(lp633
(S'0:00:00'
p634
V300/330
p635
tp636
asssV3
p637
(dp638
Vv4zhang
p639
(dp640
S'part3_correct_attempt'
p641
(lp642
S'0:41:02'
p643
aVQ([260-(.89*265)]/sqrt[.89(1-.89)265])
p644
asS'part2_correct_attempt'
p645
(lp646
S'0:00:00'
p647
aVsqrt[.89(1-.89)265]
p648
asS'part1_correct_attempt'
p649
(lp650
S'0:00:00'
p651
aV.89*265
p652
asg9
V2015-11-06 07:56:40
p653
sS'part3_incorrect_attempt'
p654
(lp655
(S'0:03:07'
p656
VQ(.89*265)
p657
tp658
a(S'0:12:21'
p659
VQ(5)
p660
tp661
assVkew060
p662
(dp663
S'part3_correct_attempt'
p664
(lp665
S'22:09:08'
p666
aVQ((150-132.6)/4.46)
p667
asS'part2_correct_attempt'
p668
(lp669
S'0:00:12'
p670
aV4.46
p671
asS'part1_correct_attempt'
p672
(lp673
S'0:00:00'
p674
aV132.6
p675
asg9
V2015-11-05 01:40:27
p676
sS'part3_incorrect_attempt'
p677
(lp678
(S'0:00:25'
p679
V.000048
p680
tp681
a(S'0:01:20'
p682
V0.00048
p683
tp684
a(S'22:08:35'
p685
VQ((156-132.6)/4.46)
p686
tp687
assVkbielawi
p688
(dp689
S'part3_correct_attempt'
p690
(lp691
S'18:46:47'
p692
aVQ((280-264.48)/5.86365)
p693
asS'part2_correct_attempt'
p694
(lp695
S'17:55:43'
p696
aVsqrt(.87*(1-.87)*304)
p697
asS'part1_correct_attempt'
p698
(lp699
S'0:00:00'
p700
aV304*.87
p701
asg9
V2015-11-06 00:39:46
p702
sS'part3_incorrect_attempt'
p703
(lp704
(S'17:56:06'
p705
V.13
p706
tp707
a(S'17:59:02'
p708
V1-Q((304-(304*.87))/5.86365)
p709
tp710
a(S'18:00:16'
p711
V1-Q((304-280)/5.86365)
p712
tp713
a(S'18:45:31'
p714
V2*Q((304-280)/5.86365)
p715
tp716
assVjguanzho
p717
(dp718
S'part3_correct_attempt'
p719
(lp720
S'0:14:20'
p721
aV1-Phi((240-0.8*273)/(0.8*0.2*273)**0.5)
p722
asS'part2_correct_attempt'
p723
(lp724
S'0:00:00'
p725
aV(0.8*0.2*273)**0.5
p726
asS'part1_correct_attempt'
p727
(lp728
S'0:00:00'
p729
ag441
asg9
V2015-11-05 17:48:32
p730
sS'part3_incorrect_attempt'
p731
(lp732
(S'0:00:18'
p733
VQ((273-0.8*273)/(0.8*0.2*240)**0.5)
p734
tp735
a(S'0:02:46'
p736
VQ((241-0.8*273)/(0.8*0.2*240)**0.5)
p737
tp738
a(S'0:04:24'
p739
V1-Q((240-0.8*273)/(0.8*0.2*240)**0.5)
p740
tp741
a(S'0:04:40'
p742
V1-Phi((240-0.8*273)/(0.8*0.2*240)**0.5)
p743
tp744
a(S'0:13:41'
p745
V1-Phi((241-0.8*273)/(0.8*0.2*240)**0.5)
p746
tp747
assVdcgriffi
p748
(dp749
S'part2_correct_attempt'
p750
(lp751
S'0:00:00'
p752
aVsqrt(335*.8*.2)
p753
asS'part1_correct_attempt'
p754
(lp755
S'0:00:00'
p756
aV268
p757
asg9
V2015-11-07 00:15:04
p758
sS'part3_incorrect_attempt'
p759
(lp760
(S'0:01:25'
p761
V.003
p762
tp763
a(S'0:09:02'
p764
V.0015
p765
tp766
a(S'0:12:17'
p767
V1/(sqrt(2*3.1415926535)*sqrt(335*.8*.2))*e^(-(32^2)/2(sqrt(335*.8*.2))^2)
p768
tp769
a(S'0:13:08'
p770
V1/(sqrt(2*3.1415926535)*sqrt(335*.8*.2))*e^(-(32^2)/(2(sqrt(335*.8*.2))^2))
p771
tp772
a(S'0:14:47'
p773
V1/(sqrt(2*3.1415926535)*sqrt(335*.8*.2))*e^(-(32^2))/(2(sqrt(335*.8*.2))^2)
p774
tp775
a(S'0:15:42'
p776
V1/(sqrt(2*3.1415926535)*sqrt(335*.8*.2))*e^(-(32^2)/(2*335*.8*.2))
p777
tp778
a(S'0:16:23'
p779
V.0027
p780
tp781
a(S'0:16:28'
p782
V1/(sqrt(2*3.1415926535)*sqrt(335*.8*.2))*e^(-(32^2)/2(sqrt(335*.8*.2))^2)
p783
tp784
a(S'0:17:38'
p785
V1/(sqrt(2*3.1415926535)*sqrt(335*.8*.2))*e^(-(32^2)/(2(335*.8*.2)))
p786
tp787
a(S'0:35:32'
p788
V0.000657670233796037
p789
tp790
a(S'0:36:46'
p791
V0.001101565
p792
tp793
a(S'0:42:15'
p794
V.00131
p795
tp796
a(S'0:43:36'
p797
V.00087
p798
tp799
a(S'0:43:48'
p800
V.00094
p801
tp802
a(S'0:43:59'
p803
V.00181
p804
tp805
a(S'0:44:05'
p806
V.00131
p807
tp808
a(S'0:44:26'
p809
V.00135
p810
tp811
a(S'0:44:33'
p812
V.00126
p813
tp814
a(S'0:44:40'
p815
V.00131
p816
tp817
assVmhale
p818
(dp819
S'part3_correct_attempt'
p820
(lp821
S'0:03:37'
p822
aVQ((290 - 263.22) / 6.88328)
p823
asS'part2_correct_attempt'
p824
(lp825
S'0:00:31'
p826
aV(263.22 * (1 - .82))^(1/2)
p827
asS'part1_correct_attempt'
p828
(lp829
S'0:00:00'
p830
ag120
asg9
V2015-11-05 20:43:02
p831
sS'part3_incorrect_attempt'
p832
(lp833
(S'0:01:54'
p834
V(321 - 263.22) / 6.88328
p835
tp836
a(S'0:02:15'
p837
VQ(8.39425)
p838
tp839
assVcfgutier
p840
(dp841
S'part3_correct_attempt'
p842
(lp843
S'0:02:08'
p844
aV1 - Phi((210-.83*234)/((234 * (1 - .83) * .83)) ^ (1/2))
p845
asS'part2_correct_attempt'
p846
(lp847
S'0:00:33'
p848
aV((234 * (1 - .83) * .83)) ^ (1/2)
p849
asS'part1_correct_attempt'
p850
(lp851
S'0:00:00'
p852
ag252
asg9
V2015-11-06 20:32:01
p853
sS'part3_incorrect_attempt'
p854
(lp855
(S'0:01:38'
p856
V1 - Phi((234-.83*234)/((234 * (1 - .83) * .83)) ^ (1/2))
p857
tp858
assVj5phung
p859
(dp860
S'part3_correct_attempt'
p861
(lp862
S'3:27:27'
p863
aV1-((1/2)+(1/2)erf(((270-311(0.8))/sqrt(311*.8*.2))/sqrt(2)))
p864
asS'part2_correct_attempt'
p865
(lp866
S'0:04:00'
p867
aVsqrt(311*.8*.2)
p868
asS'part1_correct_attempt'
p869
(lp870
S'0:00:00'
p871
aV311(0.8)
p872
asg9
V2015-11-04 22:10:17
p873
sS'part3_incorrect_attempt'
p874
(lp875
(S'0:12:04'
p876
VC(311,270)(.8)^270*(.2)^41
p877
tp878
assVhaw081
p879
(dp880
S'part3_correct_attempt'
p881
(lp882
S'0:10:38'
p883
aVQ((240-215.86)/5.49731)
p884
asS'part2_correct_attempt'
p885
(lp886
S'0:01:07'
p887
aVsqrt(251*0.86*(1-0.86))
p888
asS'part1_correct_attempt'
p889
(lp890
S'0:00:00'
p891
aV0.86*251
p892
asg9
V2015-11-02 02:29:14
p893
sS'part3_incorrect_attempt'
p894
(lp895
(S'0:07:34'
p896
VQ(4.39)
p897
tp898
a(S'0:08:39'
p899
V1-Q(4.39)
p900
tp901
a(S'0:08:52'
p902
V1-Q(-4.39)
p903
tp904
assVvqt004
p905
(dp906
S'part3_correct_attempt'
p907
(lp908
S'0:03:35'
p909
aVQ((210-214*0.88)/sqrt(0.88*0.12*214))
p910
asS'part2_correct_attempt'
p911
(lp912
S'0:00:00'
p913
aVsqrt(0.88*0.12*214)
p914
asS'part1_correct_attempt'
p915
(lp916
S'0:00:00'
p917
aV214*0.88
p918
asg9
V2015-11-06 06:35:42
p919
sS'part3_incorrect_attempt'
p920
(lp921
(S'0:01:45'
p922
V2*Q((214-214*0.88)/sqrt(0.88*0.12*214))
p923
tp924
a(S'0:03:13'
p925
V1-Q((214-214*0.88)/sqrt(0.88*0.12*214))
p926
tp927
assVrlhagen
p928
(dp929
S'part3_correct_attempt'
p930
(lp931
S'1:12:51'
p932
aV0.000108688
p933
asS'part2_correct_attempt'
p934
(lp935
S'0:05:03'
p936
aVsqrt (285 * 0.83 * (1 - 0.83))
p937
asS'part1_correct_attempt'
p938
(lp939
S'0:00:00'
p940
ag303
asg9
V2015-10-31 20:26:34
p941
sS'part3_incorrect_attempt'
p942
(lp943
(S'0:16:54'
p944
V(0.83*285)/(sqrt (285 * 0.83 * (1 - 0.83)))
p945
tp946
a(S'0:37:12'
p947
V2.70E-05
p948
tp949
a(S'0:37:19'
p950
V1-2.70E-05
p951
tp952
a(S'0:39:17'
p953
V1-0.99997775
p954
tp955
a(S'0:39:47'
p956
V0.99997775
p957
tp958
a(S'0:39:56'
p959
V0.99
p960
tp961
a(S'0:40:01'
p962
V0.98
p963
tp964
a(S'0:40:05'
p965
V0.97
p966
tp967
a(S'0:40:08'
p968
V0.96
p969
tp970
a(S'0:40:14'
p971
V0.90
p972
tp973
a(S'0:40:19'
p974
V0.80
p975
tp976
a(S'0:40:24'
p977
V0.75
p978
tp979
a(S'0:40:29'
p980
V0.50
p981
tp982
a(S'0:41:55'
p983
VC(285,260)(0.83)(1-0.83)^(285-260)
p984
tp985
a(S'0:42:10'
p986
VC(285,260)*(0.83)(1-0.83)^(285-260)
p987
tp988
a(S'0:42:32'
p989
VC(285,260)
p990
tp991
a(S'0:42:44'
p992
VC(10,2)
p993
tp994
a(S'0:49:40'
p995
V0.0000222456
p996
tp997
a(S'0:52:05'
p998
V0.0000226
p999
tp1000
a(S'0:52:08'
p1001
V0.000022
p1002
tp1003
a(S'0:52:11'
p1004
V0.00002
p1005
tp1006
a(S'0:54:15'
p1007
V0.01
p1008
tp1009
a(S'0:54:22'
p1010
V0.02
p1011
tp1012
a(S'0:54:26'
p1013
V0.03
p1014
tp1015
a(S'0:54:30'
p1016
V0.04
p1017
tp1018
a(S'0:54:34'
p1019
V0.05
p1020
tp1021
a(S'0:54:38'
p1022
V0.06
p1023
tp1024
a(S'0:54:41'
p1025
V0.07
p1026
tp1027
a(S'0:54:45'
p1028
V0.08
p1029
tp1030
a(S'0:54:55'
p1031
V0.1
p1032
tp1033
a(S'0:54:59'
p1034
V0.2
p1035
tp1036
a(S'0:55:03'
p1037
V0.3
p1038
tp1039
a(S'0:55:06'
p1040
V0.4
p1041
tp1042
a(S'0:55:11'
p1043
V0.5
p1044
tp1045
a(S'0:55:14'
p1046
V0.6
p1047
tp1048
a(S'0:55:18'
p1049
V0.7
p1050
tp1051
a(S'0:55:22'
p1052
V0.8
p1053
tp1054
a(S'0:56:53'
p1055
V0.0708
p1056
tp1057
a(S'0:57:01'
p1058
V0.08
p1059
tp1060
a(S'0:57:06'
p1061
V0.09
p1062
tp1063
a(S'0:57:10'
p1064
V0.01
p1065
tp1066
a(S'0:57:15'
p1067
V0.02
p1068
tp1069
a(S'0:57:19'
p1070
V0.03
p1071
tp1072
a(S'0:57:23'
p1073
V0.04
p1074
tp1075
a(S'0:57:26'
p1076
V0.05
p1077
tp1078
a(S'0:57:30'
p1079
V0.06
p1080
tp1081
a(S'0:57:33'
p1082
V0.07
p1083
tp1084
a(S'0:57:38'
p1085
V0.08
p1086
tp1087
a(S'0:57:41'
p1088
V0.09
p1089
tp1090
a(S'0:57:48'
p1091
V0.001
p1092
tp1093
a(S'0:57:52'
p1094
V0.002
p1095
tp1096
a(S'0:57:56'
p1097
V0.003
p1098
tp1099
a(S'1:02:24'
p1100
V0.00002225
p1101
tp1102
a(S'1:02:34'
p1103
V0.000023
p1104
tp1105
a(S'1:02:39'
p1106
V0.000024
p1107
tp1108
a(S'1:02:43'
p1109
V0.000021
p1110
tp1111
a(S'1:02:48'
p1112
V0.00001
p1113
tp1114
a(S'1:02:53'
p1115
V0.00002
p1116
tp1117
a(S'1:02:56'
p1118
V0.00003
p1119
tp1120
a(S'1:03:00'
p1121
V0.00004
p1122
tp1123
a(S'1:03:05'
p1124
V0.00005
p1125
tp1126
a(S'1:03:08'
p1127
V0.00008
p1128
tp1129
a(S'1:03:12'
p1130
V0.00009
p1131
tp1132
a(S'1:03:16'
p1133
V0.0001
p1134
tp1135
a(S'1:03:20'
p1136
V0.0002
p1137
tp1138
a(S'1:03:24'
p1139
V0.0003
p1140
tp1141
a(S'1:03:27'
p1142
V0.0004
p1143
tp1144
a(S'1:03:31'
p1145
V0.0005
p1146
tp1147
a(S'1:03:36'
p1148
V0.0006
p1149
tp1150
a(S'1:03:40'
p1151
V0.0007
p1152
tp1153
a(S'1:03:44'
p1154
V0.0008
p1155
tp1156
a(S'1:03:48'
p1157
V0.0009
p1158
tp1159
a(S'1:03:52'
p1160
V0.0010
p1161
tp1162
a(S'1:03:56'
p1163
V0.0011
p1164
tp1165
a(S'1:04:00'
p1166
V0.0012
p1167
tp1168
a(S'1:04:03'
p1169
V0.0013
p1170
tp1171
a(S'1:04:41'
p1172
V0.0000222456
p1173
tp1174
a(S'1:06:40'
p1175
V1-0.83
p1176
tp1177
assVbtn023
p1178
(dp1179
S'part3_correct_attempt'
p1180
(lp1181
S'0:01:51'
p1182
aV0.00079
p1183
asS'part2_correct_attempt'
p1184
(lp1185
S'0:00:00'
p1186
aVsqrt(334*.87*.13)
p1187
asS'part1_correct_attempt'
p1188
(lp1189
S'0:00:00'
p1190
aV334*.87
p1191
asg9
V2015-11-06 11:36:16
p1192
sS'part3_incorrect_attempt'
p1193
(lp1194
(S'0:01:26'
p1195
V(310-334*.87)/sqrt(334*.87*.13)
p1196
tp1197
assVdgunawan
p1198
(dp1199
S'part3_correct_attempt'
p1200
(lp1201
S'15:31:22'
p1202
aV1-Phi([250-227.84]/[((.89)*(256)(1-.89))^(1/2)])
p1203
asS'part2_correct_attempt'
p1204
(lp1205
S'14:51:47'
p1206
aV((.89)*(256)(1-.89))^(1/2)
p1207
asS'part1_correct_attempt'
p1208
(lp1209
S'0:00:00'
p1210
aV(.89)*(256)
p1211
asg9
V2015-11-05 09:22:36
p1212
sS'part3_incorrect_attempt'
p1213
(lp1214
(S'14:52:07'
p1215
V(1 - (0.89))
p1216
tp1217
a(S'14:59:34'
p1218
V256(1 - (0.89))
p1219
tp1220
a(S'14:59:41'
p1221
V256( (0.89))
p1222
tp1223
a(S'14:59:48'
p1224
V0.89
p1225
tp1226
a(S'15:23:47'
p1227
V[256-250]/[((.89)*(256)(1-.89))^(1/2)]
p1228
tp1229
a(S'15:24:24'
p1230
V[256-227.84]/[((.89)*(256)(1-.89))^(1/2)]
p1231
tp1232
a(S'15:27:55'
p1233
V[250-227.84]/[((.89)*(256)(1-.89))^(1/2)]
p1234
tp1235
assVmpanelo
p1236
(dp1237
S'part3_correct_attempt'
p1238
(lp1239
S'0:01:45'
p1240
aVQ((330 - 304.22)/sqrt( .82 * .18 * 371))
p1241
asS'part2_correct_attempt'
p1242
(lp1243
S'0:00:00'
p1244
aVsqrt( .82 * .18 * 371)
p1245
asS'part1_correct_attempt'
p1246
(lp1247
S'0:00:00'
p1248
aV304.22
p1249
asg9
V2015-11-05 23:56:14
p1250
sS'part3_incorrect_attempt'
p1251
(lp1252
(S'0:00:00'
p1253
V(330 - 304.22)/sqrt( .82 * .18 * 371)
p1254
tp1255
assVtstevens
p1256
(dp1257
S'part3_correct_attempt'
p1258
(lp1259
S'0:12:49'
p1260
aVQ(3.233511626)
p1261
asS'part2_correct_attempt'
p1262
(lp1263
S'0:02:46'
p1264
aV7.61710575
p1265
asS'part1_correct_attempt'
p1266
(lp1267
S'0:00:00'
p1268
aV377*.81
p1269
asg9
V2015-11-06 12:21:35
p1270
sS'part3_incorrect_attempt'
p1271
(lp1272
(S'0:03:50'
p1273
V0.000267937342225966
p1274
tp1275
a(S'0:04:08'
p1276
V0.00045715260934398
p1277
tp1278
assVtcuddy
p1279
(dp1280
S'part3_correct_attempt'
p1281
(lp1282
S'2 days, 1:39:51'
p1283
aVQ [ [(250) -(258(.89)) ] /([ 258(.89(1-.89))]**.5 )]
p1284
asS'part2_correct_attempt'
p1285
(lp1286
S'2 days, 1:26:20'
p1287
aV[ 258(.89(1-.89))]**.5
p1288
asS'part1_correct_attempt'
p1289
(lp1290
S'0:00:00'
p1291
aV258(.89)
p1292
asg9
V2015-11-03 17:40:00
p1293
sS'part3_incorrect_attempt'
p1294
(lp1295
(S'2 days, 1:36:38'
p1296
V[ (258) -(258(.89)) ] /([ 258(.89(1-.89))]**.5 )
p1297
tp1298
assVdjk006
p1299
(dp1300
S'part3_correct_attempt'
p1301
(lp1302
S'0:03:20'
p1303
aVQ((280-298*.88)/((298(.88)(.12))^(1/2)))
p1304
asS'part2_correct_attempt'
p1305
(lp1306
S'0:00:12'
p1307
aV(298(.88)(.12))^(1/2)
p1308
asS'part1_correct_attempt'
p1309
(lp1310
S'0:00:00'
p1311
aV298*.88
p1312
asg9
V2015-11-04 06:15:40
p1313
sS'part3_incorrect_attempt'
p1314
(lp1315
(S'0:00:51'
p1316
V298*.88/((298(.88)(.12))^(1/2))
p1317
tp1318
a(S'0:01:38'
p1319
V(298-298*.88)/((298(.88)(.12))^(1/2))
p1320
tp1321
assVdando
p1322
(dp1323
S'part3_correct_attempt'
p1324
(lp1325
S'0:11:21'
p1326
aV1 - Q((248 * .8 - 220)/sqrt((4/5)(1/5)(248)))
p1327
asS'part2_correct_attempt'
p1328
(lp1329
S'0:03:35'
p1330
aVsqrt((4/5)(1/5)(248))
p1331
asS'part1_correct_attempt'
p1332
(lp1333
S'0:00:00'
p1334
aV248 * .8
p1335
asg9
V2015-11-07 00:00:54
p1336
sS'part3_incorrect_attempt'
p1337
(lp1338
(S'0:04:15'
p1339
V1 - Phi(sqrt((4/5)(1/5)(248)))
p1340
tp1341
a(S'0:04:26'
p1342
VPhi(sqrt((4/5)(1/5)(248)))
p1343
tp1344
assVdsriniva
p1345
(dp1346
S'part3_correct_attempt'
p1347
(lp1348
S'3:00:38'
p1349
aVQ(14.8/sqrt(320*0.86*0.14))
p1350
asS'part2_correct_attempt'
p1351
(lp1352
S'2:39:01'
p1353
aVsqrt(320*0.86*0.14)
p1354
asS'part1_correct_attempt'
p1355
(lp1356
S'0:00:00'
p1357
ag405
asg9
V2015-11-05 17:04:37
p1358
sS'part3_incorrect_attempt'
p1359
(lp1360
(S'2:43:32'
p1361
VQ(5)
p1362
tp1363
a(S'2:43:41'
p1364
VQ(4.99428660282)
p1365
tp1366
assVabasu
p1367
(dp1368
S'part3_correct_attempt'
p1369
(lp1370
S'0:18:32'
p1371
aVQ(2.5254)
p1372
asS'part2_correct_attempt'
p1373
(lp1374
S'0:04:38'
p1375
aV(317*0.83*0.17)^0.5
p1376
asS'part1_correct_attempt'
p1377
(lp1378
S'0:00:00'
p1379
aV317*0.83
p1380
asg9
V2015-11-05 06:01:45
p1381
sS'part3_incorrect_attempt'
p1382
(lp1383
(S'0:06:24'
p1384
V1-Phi(8.0578)
p1385
tp1386
a(S'0:06:31'
p1387
VPhi(8.0578)
p1388
tp1389
a(S'0:08:19'
p1390
VQ(8.0578)
p1391
tp1392
a(S'0:08:44'
p1393
VQ(2.675)
p1394
tp1395
a(S'0:13:20'
p1396
VQ(2.8411)
p1397
tp1398
a(S'0:15:41'
p1399
VQ(8.0578)
p1400
tp1401
a(S'0:16:12'
p1402
V1-Phi(8.0578)
p1403
tp1404
a(S'0:16:19'
p1405
VPhi(8.0578)
p1406
tp1407
a(S'0:17:46'
p1408
VQ(-1.9602)
p1409
tp1410
a(S'0:17:54'
p1411
V1-Q(-1.9602)
p1412
tp1413
a(S'0:17:59'
p1414
V1-Phi(-1.9602)
p1415
tp1416
assVsayao
p1417
(dp1418
S'part3_correct_attempt'
p1419
(lp1420
S'1 day, 21:57:32'
p1421
aVQ((170-182*0.83)/sqrt(182*.83*(1-.83)))
p1422
asS'part2_correct_attempt'
p1423
(lp1424
S'1 day, 2:02:44'
p1425
aVsqrt(182*.83*(1-.83))
p1426
asS'part1_correct_attempt'
p1427
(lp1428
S'0:00:00'
p1429
aV182*.83
p1430
asg9
V2015-11-04 02:01:34
p1431
sS'part3_incorrect_attempt'
p1432
(lp1433
(S'1 day, 2:03:58'
p1434
V(182-151.06)/(sqrt(182*.83*(1-.83)))
p1435
tp1436
a(S'1 day, 2:05:20'
p1437
V30.94/5.06756
p1438
tp1439
a(S'1 day, 2:11:36'
p1440
VC(182,170)*(.83)^170*(1-.83)^(182-170)
p1441
tp1442
a(S'1 day, 2:12:40'
p1443
V1903717178010268530*(.83)^170*(1-.83)^(182-170)
p1444
tp1445
a(S'1 day, 2:13:59'
p1446
VC(182, 170)
p1447
tp1448
a(S'1 day, 3:13:47'
p1449
V0.00000950672
p1450
tp1451
a(S'1 day, 3:13:57'
p1452
V0.0000950672
p1453
tp1454
a(S'1 day, 3:14:01'
p1455
V0.000950672
p1456
tp1457
a(S'1 day, 3:19:09'
p1458
V(182-170)/5.06756
p1459
tp1460
a(S'1 day, 3:19:56'
p1461
V0.49111
p1462
tp1463
a(S'1 day, 3:20:01'
p1464
V0.49
p1465
tp1466
a(S'1 day, 3:21:39'
p1467
V.9909
p1468
tp1469
a(S'1 day, 3:21:53'
p1470
V.0091
p1471
tp1472
a(S'1 day, 3:22:31'
p1473
V.0089
p1474
tp1475
a(S'1 day, 3:23:45'
p1476
V1-.9909
p1477
tp1478
a(S'1 day, 3:23:51'
p1479
V1-.9911
p1480
tp1481
a(S'1 day, 3:24:04'
p1482
V1-.9913
p1483
tp1484
a(S'1 day, 3:24:14'
p1485
V1-.9916
p1486
tp1487
a(S'1 day, 3:25:37'
p1488
V1-.9911
p1489
tp1490
a(S'1 day, 3:27:11'
p1491
V.00089
p1492
tp1493
a(S'1 day, 3:28:34'
p1494
V1-.9911
p1495
tp1496
a(S'1 day, 3:28:48'
p1497
V(182-170)/5.06756
p1498
tp1499
a(S'1 day, 14:36:33'
p1500
VQ(2.368)
p1501
tp1502
a(S'1 day, 14:36:53'
p1503
VQ(2.37)
p1504
tp1505
a(S'1 day, 14:37:37'
p1506
VPhi(2.37)
p1507
tp1508
a(S'1 day, 14:37:46'
p1509
VQ(2.68)
p1510
tp1511
a(S'1 day, 14:38:39'
p1512
VQ(2.6)
p1513
tp1514
a(S'1 day, 14:40:32'
p1515
VQ(2)
p1516
tp1517
a(S'1 day, 14:41:34'
p1518
V182-151.06/5.06756
p1519
tp1520
a(S'1 day, 14:41:43'
p1521
V(182-151.06)/5.06756
p1522
tp1523
a(S'1 day, 14:41:55'
p1524
VQ(6.1055)
p1525
tp1526
a(S'1 day, 14:55:37'
p1527
VPhi(6.1055)
p1528
tp1529
a(S'1 day, 14:55:46'
p1530
VQ(6.1)
p1531
tp1532
a(S'1 day, 14:56:28'
p1533
V1-Q(6.1)
p1534
tp1535
a(S'1 day, 14:56:39'
p1536
VQ(6)
p1537
tp1538
a(S'1 day, 14:56:47'
p1539
VQ(6.1)
p1540
tp1541
a(S'1 day, 14:57:00'
p1542
VQ(6.105)
p1543
tp1544
assVanvan
p1545
(dp1546
S'part3_correct_attempt'
p1547
(lp1548
S'23:58:46'
p1549
aV1 - Phi(3.949)
p1550
asS'part2_correct_attempt'
p1551
(lp1552
S'23:26:00'
p1553
aVsqrt ( .89 * .11 * 345)
p1554
asS'part1_correct_attempt'
p1555
(lp1556
S'0:00:00'
p1557
aV.89(345)
p1558
asg9
V2015-11-05 15:39:51
p1559
sS'part3_incorrect_attempt'
p1560
(lp1561
(S'23:43:49'
p1562
VQ(6.453)
p1563
tp1564
a(S'23:45:27'
p1565
VQ(4.121)
p1566
tp1567
a(S'23:54:16'
p1568
V1 - Q(4.121)
p1569
tp1570
a(S'23:55:06'
p1571
VPhi(4.121)
p1572
tp1573
a(S'23:55:13'
p1574
V1 - Phi(4.121)
p1575
tp1576
assVm4bui
p1577
(dp1578
S'part2_correct_attempt'
p1579
(lp1580
S'0:00:34'
p1581
aVsqrt(212*.87*(1-.87))
p1582
asS'part1_correct_attempt'
p1583
(lp1584
S'0:00:00'
p1585
aV212*.87
p1586
asg9
V2015-11-06 04:21:23
p1587
sS'part3_incorrect_attempt'
p1588
(lp1589
(S'0:03:51'
p1590
V(212-184.44)/4.89665
p1591
tp1592
assVflhernan
p1593
(dp1594
S'part2_correct_attempt'
p1595
(lp1596
S'9:10:30'
p1597
aVsqrt(162*.82*(1-.82))
p1598
asS'part1_correct_attempt'
p1599
(lp1600
S'0:00:00'
p1601
ag453
asg9
V2015-11-06 13:55:25
p1602
sS'part3_incorrect_attempt'
p1603
(lp1604
(S'9:12:39'
p1605
V(150 - 162*.82)/sqrt(162*.82*(1-.82))
p1606
tp1607
a(S'9:13:56'
p1608
V1-0.99978
p1609
tp1610
a(S'9:19:43'
p1611
V(162-162*.85)/(sqrt(162*.82*(1-.82)))
p1612
tp1613
a(S'9:20:14'
p1614
V1-0.99997
p1615
tp1616
a(S'9:21:45'
p1617
V(162-162*.82)/(sqrt(162*.82*(1-.82)))
p1618
tp1619
assVm4salaza
p1620
(dp1621
S'part3_correct_attempt'
p1622
(lp1623
S'0:02:38'
p1624
aVQ((260-.81*293)/sqrt(.81*293*(1-.81)))
p1625
asS'part2_correct_attempt'
p1626
(lp1627
S'0:00:00'
p1628
aVsqrt(.81*293*(1-.81))
p1629
asS'part1_correct_attempt'
p1630
(lp1631
S'0:00:00'
p1632
ag525
asg9
V2015-11-05 05:51:51
p1633
sS'part3_incorrect_attempt'
p1634
(lp1635
(S'0:01:04'
p1636
VQ(293-.81*293)
p1637
tp1638
a(S'0:01:21'
p1639
VQ(260-.81*293)
p1640
tp1641
assVyos017
p1642
(dp1643
S'part3_correct_attempt'
p1644
(lp1645
S'0:26:55'
p1646
aVQ([320 - 301.71]/5.76091)
p1647
asS'part2_correct_attempt'
p1648
(lp1649
S'0:00:40'
p1650
aV(339*0.89*0.11)^0.5
p1651
asS'part1_correct_attempt'
p1652
(lp1653
S'0:00:00'
p1654
aV339* 0.89
p1655
asg9
V2015-11-06 10:06:25
p1656
sS'part3_incorrect_attempt'
p1657
(lp1658
(S'0:10:12'
p1659
V[(339-301.71)/5.76091]
p1660
tp1661
a(S'0:12:37'
p1662
VPhi(6.47294)
p1663
tp1664
a(S'0:13:18'
p1665
VQ(6.47294)
p1666
tp1667
assVb3hwang
p1668
(dp1669
S'part3_correct_attempt'
p1670
(lp1671
S'10:30:57'
p1672
aV1-Phi((160-147.9)/4.7101)
p1673
asS'part2_correct_attempt'
p1674
(lp1675
S'10:28:28'
p1676
aV((.85*174)(1-.85))^(1/2)
p1677
asS'part1_correct_attempt'
p1678
(lp1679
S'0:00:00'
p1680
aV174 * .85
p1681
asg9
V2015-11-05 09:54:14
p1682
sS'part3_incorrect_attempt'
p1683
(lp1684
(S'10:30:03'
p1685
V1-Phi((174-147.9)/4.7101)
p1686
tp1687
a(S'10:30:46'
p1688
V((160-147.9)/4.7101)
p1689
tp1690
assVccn001
p1691
(dp1692
S'part3_correct_attempt'
p1693
(lp1694
S'7:16:57'
p1695
aVQ((230-259(.81))/((.81)(1-.81)(259))^(0.5))
p1696
asS'part2_correct_attempt'
p1697
(lp1698
S'4:20:35'
p1699
aV((.81)(1-.81)(259))^(0.5)
p1700
asS'part1_correct_attempt'
p1701
(lp1702
S'0:00:00'
p1703
aV259(.81)
p1704
asg9
V2015-11-05 17:45:58
p1705
sS'part3_incorrect_attempt'
p1706
(lp1707
(S'4:20:35'
p1708
VQ(((.81)(1-.81)(259))^(0.5))
p1709
tp1710
a(S'4:20:40'
p1711
V1- Q(((.81)(1-.81)(259))^(0.5))
p1712
tp1713
a(S'4:22:15'
p1714
VQ(((.81)(1-.81)(259))^(0.5))
p1715
tp1716
a(S'4:25:12'
p1717
VQ(((.81)(1-.81)(230))^(0.5))
p1718
tp1719
a(S'4:25:21'
p1720
VQ(((.81)(1-.81)(231))^(0.5))
p1721
tp1722
a(S'4:27:32'
p1723
VQ(((.88)(1-.88)(259))^(0.5))
p1724
tp1725
a(S'4:27:42'
p1726
VQ(((.89)(1-.89)(259))^(0.5))
p1727
tp1728
a(S'4:30:02'
p1729
VQ(0)
p1730
tp1731
a(S'4:33:22'
p1732
VQ(((.90)(1-.90)(259))^(0.5))
p1733
tp1734
a(S'4:47:12'
p1735
VQ(((230/259)(1-(230/259))(259))^(0.5))
p1736
tp1737
a(S'4:49:37'
p1738
VQ(((231/259)(1-(231/259))(259))^(0.5))
p1739
tp1740
a(S'4:50:30'
p1741
VQ(((231/259)(1-(231/259))/(259))^(0.5))
p1742
tp1743
a(S'4:50:50'
p1744
VQ(((.81)(1-.81)/(259))^(0.5))
p1745
tp1746
assVquwong
p1747
(dp1748
S'part3_correct_attempt'
p1749
(lp1750
S'0:10:30'
p1751
aV0.00727
p1752
asS'part2_correct_attempt'
p1753
(lp1754
S'0:00:00'
p1755
aV(186*0.85*(1-0.85))^0.5
p1756
asS'part1_correct_attempt'
p1757
(lp1758
S'0:00:00'
p1759
aV186*0.85
p1760
asg9
V2015-11-02 05:22:40
p1761
sS'part3_incorrect_attempt'
p1762
(lp1763
(S'0:02:08'
p1764
V5.586289 * 10^(-7)
p1765
tp1766
a(S'0:03:55'
p1767
V1-(5.586289 * 10^(-7))
p1768
tp1769
a(S'0:07:58'
p1770
V5.050816*10^(-9)
p1771
tp1772
a(S'0:08:26'
p1773
V1/197987815
p1774
tp1775
a(S'0:09:02'
p1776
V1-1/197987815
p1777
tp1778
assVasetters
p1779
(dp1780
S'part3_correct_attempt'
p1781
(lp1782
S'5:45:41'
p1783
aVQ((290-308*.86)/sqrt(.86(1-.86)*308))
p1784
asS'part2_correct_attempt'
p1785
(lp1786
S'0:45:14'
p1787
aVsqrt(.86(1-.86)*308)
p1788
asS'part1_correct_attempt'
p1789
(lp1790
S'0:00:00'
p1791
aV308*.86
p1792
asg9
V2015-11-05 20:41:16
p1793
sS'part3_incorrect_attempt'
p1794
(lp1795
(S'0:47:03'
p1796
VQ(290)
p1797
tp1798
assVc1sorian
p1799
(dp1800
S'part3_correct_attempt'
p1801
(lp1802
S'1 day, 3:00:50'
p1803
aVQ(((350-330.88)/((.88*.12*376)^.5)))
p1804
asS'part2_correct_attempt'
p1805
(lp1806
S'1 day, 2:59:08'
p1807
aV(.88*.12*376)^.5
p1808
asS'part1_correct_attempt'
p1809
(lp1810
S'0:00:00'
p1811
aV.88*376
p1812
asg9
V2015-11-05 01:11:52
p1813
sS'part3_incorrect_attempt'
p1814
(lp1815
(S'1 day, 3:00:36'
p1816
V((350-330.88)/((.88*.12*376)^.5))
p1817
tp1818
assVabjara
p1819
(dp1820
S'part3_correct_attempt'
p1821
(lp1822
S'0:05:54'
p1823
aVQ((230-204.18)/[sqrt(246*.83*(1-.83))])
p1824
asS'part2_correct_attempt'
p1825
(lp1826
S'0:03:43'
p1827
aVsqrt(246*.83*(1-.83))
p1828
asS'part1_correct_attempt'
p1829
(lp1830
S'0:00:00'
p1831
aV204.18
p1832
asg9
V2015-11-04 06:00:23
p1833
sS'part3_incorrect_attempt'
p1834
(lp1835
(S'0:05:37'
p1836
V(230-204.18)/[sqrt(246*.83*(1-.83))]
p1837
tp1838
assVskarimik
p1839
(dp1840
S'part3_correct_attempt'
p1841
(lp1842
S'1:12:54'
p1843
aV1-Phi(((290-327*(83/100))/sqrt(327*(83/100)(1-(83/100)))))
p1844
asS'part2_correct_attempt'
p1845
(lp1846
S'0:06:03'
p1847
aVsqrt(327*(83/100)(1-(83/100)))
p1848
asS'part1_correct_attempt'
p1849
(lp1850
S'0:00:00'
p1851
aV327*(83/100)
p1852
asg9
V2015-11-06 03:11:16
p1853
sS'part3_incorrect_attempt'
p1854
(lp1855
(S'0:12:37'
p1856
V(1/(327*(83/100)))/327
p1857
tp1858
a(S'0:15:00'
p1859
V1/(327*(83/100))
p1860
tp1861
a(S'0:15:09'
p1862
V1-1/(327*(83/100))
p1863
tp1864
a(S'0:20:48'
p1865
V1-83/100
p1866
tp1867
a(S'0:21:08'
p1868
V327(1-83/100)
p1869
tp1870
a(S'0:27:01'
p1871
VC(327,290)(83/100)^(290)(17/100)^(37)
p1872
tp1873
a(S'0:27:26'
p1874
VC(327,290)*(83/100)^(290)(17/100)^(37)
p1875
tp1876
a(S'0:32:16'
p1877
V.0010949
p1878
tp1879
a(S'0:32:36'
p1880
V.001094915
p1881
tp1882
a(S'0:40:31'
p1883
V.1/((327-271.41)/6.79262)^2
p1884
tp1885
a(S'0:40:49'
p1886
V1/((327-271.41)/6.79262)^2
p1887
tp1888
a(S'0:44:53'
p1889
V17/100
p1890
tp1891
a(S'0:45:13'
p1892
V327(17/100)
p1893
tp1894
a(S'0:45:32'
p1895
V37(17/100)
p1896
tp1897
a(S'0:49:22'
p1898
V0.00161238
p1899
tp1900
a(S'0:54:35'
p1901
V0.001612
p1902
tp1903
assVsachadal
p1904
(dp1905
S'part3_correct_attempt'
p1906
(lp1907
S'1 day, 1:41:56'
p1908
aVQ((190 - (0.85*201))/(sqrt((0.85)*(0.15)*201)))
p1909
asS'part2_correct_attempt'
p1910
(lp1911
S'1 day, 1:27:04'
p1912
aVsqrt((0.85)*(0.15)*201)
p1913
asS'part1_correct_attempt'
p1914
(lp1915
S'0:00:00'
p1916
ag159
asg9
V2015-11-05 21:29:44
p1917
sS'part3_incorrect_attempt'
p1918
(lp1919
(S'1 day, 1:27:36'
p1920
V(201 - (0.85*201))/(sqrt((0.85)*(0.15)*201))
p1921
tp1922
a(S'1 day, 1:28:14'
p1923
V(190 - (0.85*201))/(sqrt((0.85)*(0.15)*201))
p1924
tp1925
a(S'1 day, 1:29:38'
p1926
V(201 - (0.85*201))/(sqrt((0.85)*(0.15)*201))
p1927
tp1928
assVkrau
p1929
(dp1930
S'part3_correct_attempt'
p1931
(lp1932
S'7:41:28'
p1933
aVQ((290-.81*327)/sqrt(327*.81*.19))
p1934
asS'part2_correct_attempt'
p1935
(lp1936
S'7:40:32'
p1937
aVsqrt(327*.81*.19)
p1938
asS'part1_correct_attempt'
p1939
(lp1940
S'0:00:00'
p1941
aV.81*327
p1942
asg9
V2015-11-04 19:56:43
p1943
sS'part3_incorrect_attempt'
p1944
(lp1945
(S'7:41:20'
p1946
VQ(290-.81*327/sqrt(327*.81*.19))
p1947
tp1948
assVcrmirand
p1949
(dp1950
S'part3_correct_attempt'
p1951
(lp1952
S'1:01:44'
p1953
aV1 - Phi((200 - .86*208)/(.86*208*.14)^.5)
p1954
asS'part2_correct_attempt'
p1955
(lp1956
S'0:01:41'
p1957
aV(.86*208*.14)^.5
p1958
asS'part1_correct_attempt'
p1959
(lp1960
S'0:00:00'
p1961
aV.86*208
p1962
asg9
V2015-11-03 06:45:04
p1963
sS'part3_incorrect_attempt'
p1964
(lp1965
(S'0:02:34'
p1966
V(200 - (.86*208))/(.86*208*.14)^.5
p1967
tp1968
a(S'0:02:57'
p1969
V0.000012
p1970
tp1971
a(S'0:04:22'
p1972
V0.000005
p1973
tp1974
a(S'0:04:28'
p1975
V0.000005*2
p1976
tp1977
a(S'0:04:42'
p1978
V0.000012*2
p1979
tp1980
a(S'0:05:28'
p1981
V200 - 178.88
p1982
tp1983
a(S'0:05:45'
p1984
V21.12/5.00432
p1985
tp1986
a(S'0:06:06'
p1987
V0.000012
p1988
tp1989
a(S'0:08:24'
p1990
V0.000005
p1991
tp1992
a(S'0:11:30'
p1993
V1.1614E-6
p1994
tp1995
a(S'0:20:43'
p1996
V(.86*208/2)^.5
p1997
tp1998
a(S'0:22:41'
p1999
V0.000012 - C(208,200) *.86^200*.14^8
p2000
tp2001
a(S'0:24:37'
p2002
V2.945842E-9
p2003
tp2004
a(S'0:53:36'
p2005
VQ(200)
p2006
tp2007
a(S'0:53:42'
p2008
VQ(201)
p2009
tp2010
a(S'0:53:48'
p2011
V-Q(201)
p2012
tp2013
a(S'0:56:25'
p2014
VPhi(201)
p2015
tp2016
a(S'0:56:32'
p2017
VPhi(200)
p2018
tp2019
a(S'0:56:37'
p2020
V1 - Phi(200)
p2021
tp2022
a(S'0:56:43'
p2023
V1 - Phi(201)
p2024
tp2025
a(S'0:58:17'
p2026
VPhi(201)
p2027
tp2028
a(S'0:58:29'
p2029
V1 - Phi (208)
p2030
tp2031
a(S'0:58:39'
p2032
V1 - Phi (200)
p2033
tp2034
a(S'0:59:48'
p2035
VPhi(200)
p2036
tp2037
a(S'0:59:56'
p2038
V1 - Phi(200)
p2039
tp2040
assVbeyounge
p2041
(dp2042
S'part3_correct_attempt'
p2043
(lp2044
S'6 days, 0:30:36'
p2045
aV1- [0.5 + 0.5*erf((330 - (0.86 * 356))/sqrt((0.86 * 356) - (0.86^2 * 356))/sqrt(2))]
p2046
asS'part2_correct_attempt'
p2047
(lp2048
S'0:20:40'
p2049
aVsqrt((0.86 * 356) - (0.86^2 * 356))
p2050
asS'part1_correct_attempt'
p2051
(lp2052
S'0:00:00'
p2053
ag183
asg9
V2015-10-30 06:38:28
p2054
sS'part3_incorrect_attempt'
p2055
(lp2056
(S'0:28:41'
p2057
V((0.86 * 356 - 0.86^2 * 356) / (330 - 0.86 * 356) ^ 2)
p2058
tp2059
a(S'17:45:00'
p2060
V1- (0.86^2 * 330) / (0.86 * 330)
p2061
tp2062
a(S'18:25:11'
p2063
V[((0.86 * 356) - (0.86^2 * 356))/ (330 ^ 2)]
p2064
tp2065
a(S'18:25:41'
p2066
V[((0.86 * 356) - (0.86^2 * 356))/ (26 ^ 2)]
p2067
tp2068
a(S'18:26:28'
p2069
V[((0.86 * 356) - (0.86^2 * 356))/ ((0.86*356) ^ 2)]
p2070
tp2071
a(S'18:27:05'
p2072
V[((0.86 * 356) - (0.86^2 * 356))/ (26 ^ 2)]
p2073
tp2074
a(S'18:27:15'
p2075
V[((0.86 * 356) - (0.86^2 * 356))/ (26 ^ 2)]/2
p2076
tp2077
a(S'18:36:26'
p2078
V1 - (330/356)
p2079
tp2080
a(S'18:36:44'
p2081
V1 - (331/356)
p2082
tp2083
assVpsable
p2084
(dp2085
S'part3_correct_attempt'
p2086
(lp2087
S'0:05:43'
p2088
aVQ(1.787321)
p2089
asS'part2_correct_attempt'
p2090
(lp2091
S'0:02:45'
p2092
aV5.53342
p2093
asS'part1_correct_attempt'
p2094
(lp2095
S'0:00:00'
p2096
aV180.11
p2097
asg9
V2015-11-06 01:02:30
p2098
sS'part3_incorrect_attempt'
p2099
(lp2100
(S'0:04:32'
p2101
VQ(6.66676)
p2102
tp2103
assVtpmach
p2104
(dp2105
S'part3_correct_attempt'
p2106
(lp2107
S'8:44:28'
p2108
aV1-Phi((300-0.84*334)/sqrt(0.84(1-0.84)334))
p2109
asS'part2_correct_attempt'
p2110
(lp2111
S'0:38:36'
p2112
aVsqrt(0.84(1-0.84)334)
p2113
asS'part1_correct_attempt'
p2114
(lp2115
S'0:00:00'
p2116
ag237
asg9
V2015-11-05 17:20:08
p2117
sS'part3_incorrect_attempt'
p2118
(lp2119
(S'1:08:07'
p2120
V1-Phi(sqrt(0.84(1-0.84)334))
p2121
tp2122
a(S'1:09:36'
p2123
V(334-0.84*334)/(sqrt(0.84(1-0.84)334))
p2124
tp2125
a(S'1:11:01'
p2126
V1-Phi(2*sqrt(0.84(1-0.84)334))
p2127
tp2128
a(S'1:11:07'
p2129
V1-Phi(sqrt(0.84(1-0.84)334))
p2130
tp2131
a(S'1:14:39'
p2132
V1-Phi((334-0.84*334)/sqrt(0.84(1-0.84)334))
p2133
tp2134
a(S'8:43:41'
p2135
V1-(Phi((300)84*334)/sqrt(0.84(1-0.84)334))
p2136
tp2137
a(S'8:44:10'
p2138
V1-Phi((300-84*334)/sqrt(0.84(1-0.84)334))
p2139
tp2140
assVk4ma
p2141
(dp2142
S'part2_correct_attempt'
p2143
(lp2144
S'0:04:32'
p2145
aVsqrt(.86*(1-.86)*365)
p2146
asS'part1_correct_attempt'
p2147
(lp2148
S'0:00:00'
p2149
ag291
asg9
V2015-11-06 22:06:34
p2150
sS'part3_incorrect_attempt'
p2151
(lp2152
(S'0:04:45'
p2153
V1-Phi(sqrt(.86*(1-.86)*365))
p2154
tp2155
a(S'0:08:12'
p2156
V1-Phi((365-314)/sqrt(.86*(1-.86)*365))
p2157
tp2158
a(S'0:09:52'
p2159
V1-Phi((330-314)/sqrt(.86*(1-.86)*365))
p2160
tp2161
a(S'0:10:13'
p2162
V1-Phi((365-314)/sqrt(.86*(1-.86)*365))
p2163
tp2164
a(S'0:10:44'
p2165
V1-Phi((330-284)/sqrt(.86*(1-.86)*330))
p2166
tp2167
a(S'0:12:19'
p2168
V1-Phi((365-314)/sqrt(.86*(1-.86)*365))
p2169
tp2170
a(S'0:15:23'
p2171
V1-Phi((330-284)/sqrt(.86*(1-.86)*330))
p2172
tp2173
a(S'0:15:32'
p2174
V1-Phi((330-283)/sqrt(.86*(1-.86)*330))
p2175
tp2176
a(S'0:17:38'
p2177
V1-Phi((365-314)/sqrt(.86*(1-.86)*365))
p2178
tp2179
a(S'0:18:14'
p2180
V1-[[1-Phi((365-314)/sqrt(.86*(1-.86)*365))]*2]
p2181
tp2182
a(S'0:18:57'
p2183
V1-Phi((365-314)/sqrt(.86*(1-.86)*365))
p2184
tp2185
a(S'0:19:14'
p2186
V2*(1-Phi((365-314)/sqrt(.86*(1-.86)*365)))
p2187
tp2188
a(S'0:19:25'
p2189
V1-(2*(1-Phi((365-314)/sqrt(.86*(1-.86)*365))))
p2190
tp2191
a(S'0:20:55'
p2192
V1-Phi((365-314)/sqrt(.86*(1-.86)*365))
p2193
tp2194
assVdwzhang
p2195
(dp2196
S'part3_correct_attempt'
p2197
(lp2198
S'0:13:23'
p2199
aV1 - Phi ( (270-0.83*301) / (sqrt(301* 0.83 * (1-0.83))))
p2200
asS'part2_correct_attempt'
p2201
(lp2202
S'0:00:00'
p2203
aVsqrt(301* 0.83 * (1-0.83))
p2204
asS'part1_correct_attempt'
p2205
(lp2206
S'0:00:00'
p2207
aV301*.83
p2208
asg9
V2015-11-06 21:43:17
p2209
sS'part3_incorrect_attempt'
p2210
(lp2211
(S'0:06:29'
p2212
V(290 - 301*.83) / sqrt(301* 0.83 * (1-0.83))
p2213
tp2214
a(S'0:06:40'
p2215
V301*.83 / (sqrt(301* 0.83 * (1-0.83)))
p2216
tp2217
a(S'0:06:55'
p2218
V(290 - 301*.83) / (sqrt(301* 0.83 * (1-0.83)))
p2219
tp2220
assVrraiyyan
p2221
(dp2222
S'part3_correct_attempt'
p2223
(lp2224
S'0:07:29'
p2225
aVQ((300-333*0.84)/(sqrt(0.84 * (1-0.84) * 333)))
p2226
asS'part2_correct_attempt'
p2227
(lp2228
S'0:02:42'
p2229
aVsqrt(0.84 * (1-0.84) * 333)
p2230
asS'part1_correct_attempt'
p2231
(lp2232
S'0:00:00'
p2233
aV333*0.84
p2234
asg9
V2015-11-07 00:19:59
p2235
sS'part3_incorrect_attempt'
p2236
(lp2237
(S'0:02:52'
p2238
V1- Q(sqrt(0.84 * (1-0.84) * 333))
p2239
tp2240
a(S'0:03:03'
p2241
VQ(sqrt(0.84 * (1-0.84) * 333))
p2242
tp2243
a(S'0:03:52'
p2244
V333-333*0.84/(sqrt(0.84 * (1-0.84) * 333))
p2245
tp2246
a(S'0:04:14'
p2247
V(333-333*0.84)/(sqrt(0.84 * (1-0.84) * 333))
p2248
tp2249
a(S'0:06:20'
p2250
V1 - Q((333-333*0.84)/(sqrt(0.84 * (1-0.84) * 333)))
p2251
tp2252
a(S'0:06:48'
p2253
V333 - 333*0.84
p2254
tp2255
assVjhw015
p2256
(dp2257
S'part3_correct_attempt'
p2258
(lp2259
S'1 day, 21:32:42'
p2260
aVQ((190-201*0.85)/sqrt(201*0.85*0.15))
p2261
asS'part2_correct_attempt'
p2262
(lp2263
S'0:02:47'
p2264
aVsqrt(201 * 0.85(0.15))
p2265
asS'part1_correct_attempt'
p2266
(lp2267
S'0:00:00'
p2268
aV0.85*201
p2269
asg9
V2015-11-04 21:36:37
p2270
sS'part3_incorrect_attempt'
p2271
(lp2272
(S'1 day, 21:32:21'
p2273
VQ(190-201*0.85/sqrt(201*0.85*0.15))
p2274
tp2275
assVdsmonaha
p2276
(dp2277
S'part3_incorrect_attempt'
p2278
(lp2279
(S'0:16:09'
p2280
V(.88)^361
p2281
tp2282
a(S'0:20:56'
p2283
V1-.984476
p2284
tp2285
a(S'0:24:19'
p2286
V1-.984476
p2287
tp2288
a(S'0:25:00'
p2289
V.015524
p2290
tp2291
a(S'0:59:06'
p2292
V.008428
p2293
tp2294
a(S'0:59:30'
p2295
V1-.008428
p2296
tp2297
asS'part1_correct_attempt'
p2298
(lp2299
S'0:00:00'
p2300
aV361*.88
p2301
asg9
V2015-11-04 18:20:29
p2302
ssVkrkelkar
p2303
(dp2304
S'part3_correct_attempt'
p2305
(lp2306
S'1:22:46'
p2307
aVQ( (200 - (.86*209))/(sqrt(209*.86*.14)))
p2308
asS'part2_correct_attempt'
p2309
(lp2310
S'0:00:31'
p2311
aVsqrt( 209 * .86 * (1-.86) )
p2312
asS'part1_correct_attempt'
p2313
(lp2314
S'0:00:00'
p2315
aV209 * .86
p2316
asg9
V2015-11-02 23:25:52
p2317
sS'part3_incorrect_attempt'
p2318
(lp2319
(S'0:13:01'
p2320
VQ ( (209-.86*209)/(.86*209*.14))
p2321
tp2322
a(S'1:01:14'
p2323
VQ ( (200-.86*209)/(.86*209*.14)) - Q ( (209-.86*209)/(.86*209*.14))
p2324
tp2325
a(S'1:01:44'
p2326
V0.5(Q ( (200-.86*209)/(.86*209*.14)) - Q ( (209-.86*209)/(.86*209*.14)))
p2327
tp2328
a(S'1:02:24'
p2329
VQ ( (201-.86*209)/(.86*209*.14)) - Q ( (209-.86*209)/(.86*209*.14))
p2330
tp2331
a(S'1:03:01'
p2332
VQ ( (201-.86*209)/(.86*209*.14)) - Q ( (210-.86*209)/(.86*209*.14))
p2333
tp2334
a(S'1:18:22'
p2335
V.087914
p2336
tp2337
a(S'1:20:53'
p2338
V.2103719
p2339
tp2340
assVjel075
p2341
(dp2342
S'part3_correct_attempt'
p2343
(lp2344
S'0:02:45'
p2345
aV1-Phi((370-351.12)/6.4911)
p2346
asS'part2_correct_attempt'
p2347
(lp2348
S'0:00:43'
p2349
aVsqrt(399*(0.88) * (1-0.88))
p2350
asS'part1_correct_attempt'
p2351
(lp2352
S'0:00:00'
p2353
aV351.12
p2354
asg9
V2015-11-05 23:00:20
p2355
sS'part3_incorrect_attempt'
p2356
(lp2357
(S'0:00:55'
p2358
V1-Phi(sqrt(399*(0.88) * (1-0.88)))
p2359
tp2360
a(S'0:02:19'
p2361
V1-Phi((399-351.12)/6.4911)
p2362
tp2363
a(S'0:02:40'
p2364
V1-Phi((371-351.12)/6.4911)
p2365
tp2366
assVedescobe
p2367
(dp2368
S'part3_correct_attempt'
p2369
(lp2370
S'4 days, 22:55:04'
p2371
aVQ((350-333.52)/6.32633)
p2372
asS'part2_correct_attempt'
p2373
(lp2374
S'0:00:00'
p2375
aV(379*.88*.12)^(1/2)
p2376
asS'part1_correct_attempt'
p2377
(lp2378
S'0:00:00'
p2379
aV379*.88
p2380
asg9
V2015-11-01 10:10:23
p2381
sS'part3_incorrect_attempt'
p2382
(lp2383
(S'0:03:05'
p2384
V1-.99534
p2385
tp2386
a(S'0:04:06'
p2387
V1-.99547
p2388
tp2389
a(S'1:13:50'
p2390
V1-.99547
p2391
tp2392
a(S'1:54:01'
p2393
V1-.99598
p2394
tp2395
a(S'1:54:33'
p2396
V1-.99534
p2397
tp2398
a(S'1:55:15'
p2399
V1-.99632
p2400
tp2401
a(S'2:00:19'
p2402
V1-.996
p2403
tp2404
a(S'4 days, 22:47:40'
p2405
V(350-379*.88)/((379*.88*.12)^(1/2))
p2406
tp2407
a(S'4 days, 22:47:45'
p2408
V1-.99547
p2409
tp2410
a(S'4 days, 22:47:59'
p2411
V1-.99534
p2412
tp2413
a(S'4 days, 22:51:16'
p2414
V1-.995
p2415
tp2416
assVw4shin
p2417
(dp2418
S'part3_correct_attempt'
p2419
(lp2420
S'0:01:27'
p2421
aV1-Phi((310-335*.88)/sqrt(335*.88*.12))
p2422
asS'part2_correct_attempt'
p2423
(lp2424
S'0:00:00'
p2425
aVsqrt(335*.88*.12)
p2426
asS'part1_correct_attempt'
p2427
(lp2428
S'0:00:00'
p2429
aV335*.88
p2430
asg9
V2015-11-06 23:52:56
p2431
sS'part3_incorrect_attempt'
p2432
(lp2433
(S'0:00:00'
p2434
V1-Phi(310/sqrt(335*.88*.12))
p2435
tp2436
assVmuy002
p2437
(dp2438
S'part3_correct_attempt'
p2439
(lp2440
S'1:54:25'
p2441
aVQ((200-228*80/100)/(sqrt(80/100*(20/100)*228)))
p2442
asS'part2_correct_attempt'
p2443
(lp2444
S'0:00:37'
p2445
aVsqrt(80/100*(20/100)*228)
p2446
asS'part1_correct_attempt'
p2447
(lp2448
S'0:00:00'
p2449
aV228*80/100
p2450
asg9
V2015-11-06 05:04:53
p2451
sS'part3_incorrect_attempt'
p2452
(lp2453
(S'0:01:24'
p2454
VQ(sqrt(80/100*(20/100)*228))
p2455
tp2456
a(S'0:22:02'
p2457
V(228-228*80/100)/sqrt(80/100*(20/100)*228)
p2458
tp2459
a(S'0:23:04'
p2460
V(200-228*80/100)/sqrt(80/100*(20/100)*228)
p2461
tp2462
a(S'1:08:57'
p2463
V(228*80/100)*(sqrt(80/100*(20/100)*228))
p2464
tp2465
a(S'1:12:30'
p2466
V2*Q(sqrt(80/100*(20/100)*228))
p2467
tp2468
a(S'1:22:27'
p2469
VQ(sqrt(20/100*(80/100)*228))
p2470
tp2471
a(S'1:28:16'
p2472
V(228*80/100)/(sqrt(80/100*(20/100)*228))
p2473
tp2474
a(S'1:29:34'
p2475
V(228-228*80/100)/(sqrt(80/100*(20/100)*228))
p2476
tp2477
a(S'1:32:04'
p2478
V((200-228*80/100)/(sqrt(80/100*(20/100)*228)))
p2479
tp2480
a(S'1:52:20'
p2481
V((201-228*80/100)/(sqrt(80/100*(20/100)*228)))
p2482
tp2483
assVdan029
p2484
(dp2485
S'part3_correct_attempt'
p2486
(lp2487
S'0:14:23'
p2488
aVQ(21.8/sqrt(220*.81*.19))
p2489
asS'part2_correct_attempt'
p2490
(lp2491
S'0:01:47'
p2492
aVsqrt(220*.81*.19)
p2493
asS'part1_correct_attempt'
p2494
(lp2495
S'0:00:00'
p2496
ag225
asg9
V2015-11-05 10:03:26
p2497
sS'part3_incorrect_attempt'
p2498
(lp2499
(S'0:09:06'
p2500
V1.8/sqrt(220*.81*.19)
p2501
tp2502
a(S'0:09:15'
p2503
V1-1.8/sqrt(220*.81*.19)
p2504
tp2505
a(S'0:09:55'
p2506
V2.8/sqrt(220*.81*.19)
p2507
tp2508
a(S'0:11:26'
p2509
VQ(-2.8/sqrt(220*.81*.19))
p2510
tp2511
a(S'0:13:44'
p2512
VQ(.81*220-200/sqrt(220*.81*.19))
p2513
tp2514
assVqfu
p2515
(dp2516
S'part3_correct_attempt'
p2517
(lp2518
S'0:02:25'
p2519
aVQ((290-324*0.82)/sqrt(324*0.82*0.18))
p2520
asS'part2_correct_attempt'
p2521
(lp2522
S'0:00:00'
p2523
aVsqrt(324*0.82*0.18)
p2524
asS'part1_correct_attempt'
p2525
(lp2526
S'0:00:00'
p2527
aV324*0.82
p2528
asg9
V2015-11-06 03:21:34
p2529
sS'part3_incorrect_attempt'
p2530
(lp2531
(S'0:00:00'
p2532
V(290-324*0.82)/sqrt(324*0.82*0.18)
p2533
tp2534
a(S'0:01:13'
p2535
V(324-324*0.82)/sqrt(324*0.82*0.18)
p2536
tp2537
assVdcastlem
p2538
(dp2539
S'part3_correct_attempt'
p2540
(lp2541
S'1 day, 23:09:24'
p2542
aVQ((160-.8*182)/sqrt(.8*.2*182))
p2543
asS'part2_correct_attempt'
p2544
(lp2545
S'0:01:34'
p2546
aVsqrt(.8*.2*182)
p2547
asS'part1_correct_attempt'
p2548
(lp2549
S'0:00:00'
p2550
aV182*.8
p2551
asg9
V2015-11-03 01:28:34
p2552
sS'part3_incorrect_attempt'
p2553
(lp2554
(S'0:03:56'
p2555
V145.6/5.3963
p2556
tp2557
a(S'0:04:03'
p2558
V145.6*5.3963
p2559
tp2560
a(S'0:04:15'
p2561
V5.3963/145.6
p2562
tp2563
a(S'0:12:03'
p2564
V.80^182
p2565
tp2566
a(S'0:12:12'
p2567
V.80^160
p2568
tp2569
a(S'0:12:20'
p2570
V.80^161
p2571
tp2572
a(S'0:15:25'
p2573
V(.8)^182*.4
p2574
tp2575
a(S'0:15:36'
p2576
V(.8)^160*.4
p2577
tp2578
a(S'0:15:59'
p2579
V.8^182*.4
p2580
tp2581
a(S'0:21:56'
p2582
VC(182,182)*.8^182*.2^0
p2583
tp2584
a(S'0:24:58'
p2585
V.8^182
p2586
tp2587
a(S'0:58:09'
p2588
V.8^160
p2589
tp2590
a(S'0:58:18'
p2591
V.8^145.6
p2592
tp2593
a(S'0:58:35'
p2594
V.8^5.3963
p2595
tp2596
assVbpandayk
p2597
(dp2598
S'part3_correct_attempt'
p2599
(lp2600
S'0:01:29'
p2601
aVQ((290-(323*83/100))/sqrt((323*83/100)*(1-83/100)))
p2602
asS'part2_correct_attempt'
p2603
(lp2604
S'0:00:00'
p2605
aVsqrt((323*83/100)*(1-83/100))
p2606
asS'part1_correct_attempt'
p2607
(lp2608
S'0:00:00'
p2609
aV323*83/100
p2610
asg9
V2015-11-06 21:37:06
p2611
sS'part3_incorrect_attempt'
p2612
(lp2613
(S'0:00:00'
p2614
VQ(sqrt((323*83/100)*(1-83/100)))
p2615
tp2616
assVhsc052
p2617
(dp2618
S'part3_correct_attempt'
p2619
(lp2620
S'0:00:44'
p2621
aVQ([200-229*0.82]/sqrt(229*0.82(1-0.82)))
p2622
asS'part2_correct_attempt'
p2623
(lp2624
S'0:00:00'
p2625
aVsqrt(229*0.82(1-0.82))
p2626
asS'part1_correct_attempt'
p2627
(lp2628
S'0:00:00'
p2629
aV229*0.82
p2630
asg9
V2015-11-06 23:37:11
p2631
sS'part3_incorrect_attempt'
p2632
(lp2633
(S'0:00:00'
p2634
V[229-229*0.82]/sqrt(229*0.82(1-0.82))
p2635
tp2636
assVxil109
p2637
(dp2638
S'part3_correct_attempt'
p2639
(lp2640
S'0:02:38'
p2641
aV0.000759419
p2642
asS'part2_correct_attempt'
p2643
(lp2644
S'0:00:29'
p2645
aVsqrt(312*0.83*(1-0.83))
p2646
asS'part1_correct_attempt'
p2647
(lp2648
S'0:00:00'
p2649
aV312*0.83
p2650
asg9
V2015-11-06 01:41:45
p2651
sS'part3_incorrect_attempt'
p2652
(lp2653
(S'0:01:58'
p2654
V(280-312*0.83)/sqrt(312*0.83*(1-0.83))
p2655
tp2656
assVzhz159
p2657
(dp2658
S'part3_correct_attempt'
p2659
(lp2660
S'0:28:43'
p2661
aV0.000135153
p2662
asS'part2_correct_attempt'
p2663
(lp2664
S'0:27:24'
p2665
aV7.6162195
p2666
asS'part1_correct_attempt'
p2667
(lp2668
S'0:00:00'
p2669
aV322.26
p2670
asg9
V2015-11-06 00:01:34
p2671
sS'part3_incorrect_attempt'
p2672
(lp2673
(S'0:27:24'
p2674
V8.261E-9
p2675
tp2676
assVsghouse
p2677
(dp2678
S'part3_correct_attempt'
p2679
(lp2680
S'5:18:25'
p2681
aVQ(22.21/sqrt(.89*(1-.89)*211))
p2682
asS'part2_correct_attempt'
p2683
(lp2684
S'0:00:00'
p2685
aVsqrt(.89*(1-.89)*211)
p2686
asS'part1_correct_attempt'
p2687
(lp2688
S'0:00:00'
p2689
aV187.79
p2690
asg9
V2015-11-05 21:06:52
p2691
sS'part3_incorrect_attempt'
p2692
(lp2693
(S'0:05:11'
p2694
V.11^211
p2695
tp2696
a(S'0:05:30'
p2697
V.89^211
p2698
tp2699
a(S'0:16:51'
p2700
V.89^211
p2701
tp2702
a(S'3:11:13'
p2703
VQ(5)
p2704
tp2705
a(S'3:12:29'
p2706
VQ(5.10673)
p2707
tp2708
assVk3tan
p2709
(dp2710
S'part2_correct_attempt'
p2711
(lp2712
S'0:22:42'
p2713
aV5.149
p2714
asS'part1_correct_attempt'
p2715
(lp2716
S'0:00:00'
p2717
aV176.8
p2718
asg9
V2015-11-04 18:16:12
p2719
sS'part3_incorrect_attempt'
p2720
(lp2721
(S'2 days, 5:23:44'
p2722
V0.002275
p2723
tp2724
a(S'2 days, 5:24:13'
p2725
V0.00227504608
p2726
tp2727
assVjyc018
p2728
(dp2729
S'part3_correct_attempt'
p2730
(lp2731
S'0:02:22'
p2732
aV1-Phi((350-333.48)/7.304)
p2733
asS'part2_correct_attempt'
p2734
(lp2735
S'0:01:05'
p2736
aVsqrt(397*.84*.16)
p2737
asS'part1_correct_attempt'
p2738
(lp2739
S'0:00:00'
p2740
aV397*.84
p2741
asg9
V2015-11-06 23:23:19
p2742
sS'part3_incorrect_attempt'
p2743
(lp2744
(S'0:01:56'
p2745
V1-Phi((397-333.48)/7.3)
p2746
tp2747
assVh4tu
p2748
(dp2749
S'part3_correct_attempt'
p2750
(lp2751
S'0:22:02'
p2752
aV1-Phi((270-287*0.86)/sqrt(0.86*0.14*287))
p2753
asS'part2_correct_attempt'
p2754
(lp2755
S'0:00:35'
p2756
aVsqrt(0.86*0.14*287)
p2757
asS'part1_correct_attempt'
p2758
(lp2759
S'0:00:00'
p2760
aV287*0.86
p2761
asg9
V2015-11-07 00:26:32
p2762
sS'part3_incorrect_attempt'
p2763
(lp2764
(S'0:01:54'
p2765
V(280-287*0.86)/sqrt(0.86*0.14*287)
p2766
tp2767
a(S'0:02:21'
p2768
V1-Phi((280-287*0.86)/sqrt(0.86*0.14*287))
p2769
tp2770
a(S'0:21:51'
p2771
V1-Phi((287*0.86)/sqrt(0.86*0.14*287))
p2772
tp2773
assVlywong
p2774
(dp2775
S'part3_correct_attempt'
p2776
(lp2777
S'3 days, 19:04:00'
p2778
aVQ((360-348.88)/(sqrt(392*0.89(1-0.89))))
p2779
asS'part2_correct_attempt'
p2780
(lp2781
S'3 days, 18:56:59'
p2782
aVsqrt(392*0.89(1-0.89))
p2783
asS'part1_correct_attempt'
p2784
(lp2785
S'0:00:00'
p2786
aV348.88
p2787
asg9
V2015-11-02 04:55:04
p2788
sS'part3_incorrect_attempt'
p2789
(lp2790
(S'3 days, 18:59:28'
p2791
Vsqrt(392-348.88/sqrt(392*0.89(1-0.89)))
p2792
tp2793
a(S'3 days, 18:59:54'
p2794
VQ(sqrt((392-348.88)/sqrt(392*0.89(1-0.89))))
p2795
tp2796
a(S'3 days, 19:01:05'
p2797
V1-Q(sqrt((392-348.88)/sqrt(392*0.89(1-0.89))))
p2798
tp2799
a(S'3 days, 19:01:51'
p2800
VQ(sqrt((392-348.88)/sqrt(392*0.89(1-0.89))))
p2801
tp2802
a(S'3 days, 19:02:40'
p2803
V(392-348.88)/(sqrt(392*0.89(1-0.89)))
p2804
tp2805
assVjix029
p2806
(dp2807
S'part3_correct_attempt'
p2808
(lp2809
S'4 days, 1:54:09'
p2810
aV.0000845
p2811
asS'part2_correct_attempt'
p2812
(lp2813
S'0:03:29'
p2814
aV(162*.81(1-.81))^.5
p2815
asS'part1_correct_attempt'
p2816
(lp2817
S'0:00:00'
p2818
aV162*.81
p2819
asg9
V2015-11-01 21:03:16
p2820
sS'part3_incorrect_attempt'
p2821
(lp2822
(S'0:06:03'
p2823
V3.747^10-5
p2824
tp2825
a(S'0:06:15'
p2826
V3.747^10^-5
p2827
tp2828
a(S'0:08:40'
p2829
V3.747*10^-5
p2830
tp2831
a(S'1:54:48'
p2832
V1-.99991504
p2833
tp2834
a(S'1:56:15'
p2835
V.0000368
p2836
tp2837
a(S'1:56:43'
p2838
V.0000837665
p2839
tp2840
a(S'2:03:05'
p2841
V8.97638528096767E-06
p2842
tp2843
a(S'2:04:11'
p2844
V2.76128185879854E-05
p2845
tp2846
a(S'2:05:52'
p2847
V8.97638528096767E-06
p2848
tp2849
a(S'2:37:34'
p2850
V8.97E-06
p2851
tp2852
a(S'2 days, 8:51:15'
p2853
V.00008
p2854
tp2855
a(S'2 days, 8:51:55'
p2856
V.00004
p2857
tp2858
a(S'2 days, 8:51:59'
p2859
V.00005
p2860
tp2861
a(S'2 days, 8:52:03'
p2862
V.00003
p2863
tp2864
a(S'4 days, 0:56:49'
p2865
V(162!/(150!*12!))*.81^150*.19^12
p2866
tp2867
a(S'4 days, 1:00:03'
p2868
V8.97638528096767E-06
p2869
tp2870
a(S'4 days, 1:52:39'
p2871
V.02
p2872
tp2873
assVhkhodada
p2874
(dp2875
S'part3_correct_attempt'
p2876
(lp2877
S'1 day, 18:21:53'
p2878
aVQ((290-0.81*332)/sqrt(51.094))
p2879
asS'part2_correct_attempt'
p2880
(lp2881
S'0:07:07'
p2882
aVsqrt(51.0948)
p2883
asS'part1_correct_attempt'
p2884
(lp2885
S'0:00:00'
p2886
ag39
asg9
V2015-11-03 01:25:05
p2887
sS'part3_incorrect_attempt'
p2888
(lp2889
(S'0:08:21'
p2890
V(0.81*332)/290
p2891
tp2892
a(S'0:12:08'
p2893
V(0.81*290)/332
p2894
tp2895
a(S'0:50:27'
p2896
V(332*0.81)/290
p2897
tp2898
a(S'0:54:39'
p2899
V7.14806/268.92
p2900
tp2901
a(S'1 day, 18:20:30'
p2902
VQ(2.952)
p2903
tp2904
a(S'1 day, 18:21:27'
p2905
VQ(290-0.81*332/sqrt(51.094))
p2906
tp2907
assVglcohen
p2908
(dp2909
S'part3_correct_attempt'
p2910
(lp2911
S'22:24:28'
p2912
aVQ((170-146.2)/sqrt(172*.85*.15))
p2913
asS'part2_correct_attempt'
p2914
(lp2915
S'9:29:00'
p2916
aVsqrt(172*.85*.15)
p2917
asS'part1_correct_attempt'
p2918
(lp2919
S'0:00:00'
p2920
ag51
asg9
V2015-11-03 22:33:22
p2921
sS'part3_incorrect_attempt'
p2922
(lp2923
(S'9:30:44'
p2924
V((172-146.2)/sqrt(172*.85*.15))
p2925
tp2926
a(S'21:47:32'
p2927
V(170-142.6)/sqrt(172*.85*.15)
p2928
tp2929
a(S'21:47:47'
p2930
V(171-142.6)/sqrt(172*.85*.15)
p2931
tp2932
a(S'21:47:52'
p2933
V(172-142.6)/sqrt(172*.85*.15)
p2934
tp2935
a(S'22:13:12'
p2936
V((170-142.6)/sqrt(172*.85*.15))
p2937
tp2938
assVachava
p2939
(dp2940
S'part3_correct_attempt'
p2941
(lp2942
S'0:59:13'
p2943
aVQ((300-268.8)/(sqrt((.8)(.2)336)))
p2944
asS'part2_correct_attempt'
p2945
(lp2946
S'0:00:32'
p2947
aVsqrt((.8)(.2)336)
p2948
asS'part1_correct_attempt'
p2949
(lp2950
S'0:00:00'
p2951
aV336*.8
p2952
asg9
V2015-11-06 08:36:09
p2953
sS'part3_incorrect_attempt'
p2954
(lp2955
(S'0:01:59'
p2956
V(336-268.8)/7.33212
p2957
tp2958
a(S'0:11:49'
p2959
V(300-268.8)/7.33212
p2960
tp2961
a(S'0:13:07'
p2962
V8.539898*10^(-6)
p2963
tp2964
a(S'0:13:28'
p2965
V2.334576*10^(-6)
p2966
tp2967
a(S'0:25:00'
p2968
V0.9999982695
p2969
tp2970
a(S'0:25:25'
p2971
V1-0.9999982695
p2972
tp2973
a(S'0:26:10'
p2974
V1.73047602*10^(-6)
p2975
tp2976
a(S'0:55:52'
p2977
VQ(4.25)
p2978
tp2979
a(S'0:57:05'
p2980
VQ(9.17)
p2981
tp2982
a(S'0:57:35'
p2983
VQ(4.255)
p2984
tp2985
assVthk002
p2986
(dp2987
S'part3_correct_attempt'
p2988
(lp2989
S'1:05:29'
p2990
aVQ((160- 142.68)/5.06778)
p2991
asS'part2_correct_attempt'
p2992
(lp2993
S'0:00:29'
p2994
aVsqrt(174*.82*.18)
p2995
asS'part1_correct_attempt'
p2996
(lp2997
S'0:00:00'
p2998
ag132
asg9
V2015-11-05 06:59:05
p2999
sS'part3_incorrect_attempt'
p3000
(lp3001
(S'0:02:10'
p3002
V(160-142.68)/(sqrt(174*.82*.18))
p3003
tp3004
a(S'0:04:13'
p3005
V(160-(174*.82))/(sqrt(174*.82*.18))
p3006
tp3007
a(S'0:04:34'
p3008
V(160-(174*.82))/5.06778
p3009
tp3010
a(S'0:05:09'
p3011
V(174-(174*.82))/5.06778
p3012
tp3013
a(S'0:05:58'
p3014
VQ(6.18022)
p3015
tp3016
a(S'0:06:09'
p3017
VPhi(6.18022)
p3018
tp3019
a(S'0:08:05'
p3020
V(160- 142.68)/6.06778
p3021
tp3022
a(S'0:10:51'
p3023
V((160- 142.68)/6.06778)
p3024
tp3025
assVpvl001
p3026
(dp3027
S'part3_correct_attempt'
p3028
(lp3029
S'7:12:14'
p3030
aV1 - Phi((380 - (.89 * 397))/(sqrt(397 * .89 * .11)))
p3031
asS'part2_correct_attempt'
p3032
(lp3033
S'6:58:22'
p3034
aVsqrt(397 * .89 * .11)
p3035
asS'part1_correct_attempt'
p3036
(lp3037
S'0:00:00'
p3038
aV.89 * 397
p3039
asg9
V2015-11-03 21:02:38
p3040
sS'part3_incorrect_attempt'
p3041
(lp3042
(S'6:59:34'
p3043
V1 - Phi((397 - (.89 * 397))/sqrt(397 * .89 * .11))
p3044
tp3045
a(S'6:59:52'
p3046
V(397 - (.89 * 397))/sqrt(397 * .89 * .11)
p3047
tp3048
a(S'7:10:08'
p3049
V.11
p3050
tp3051
assVdlt009
p3052
(dp3053
S'part3_correct_attempt'
p3054
(lp3055
S'0:17:42'
p3056
aV1-Phi[ (220-(244*.82)) /(sqrt[244*.82*.18]) ]
p3057
asS'part2_correct_attempt'
p3058
(lp3059
S'-1 day, 23:59:33'
p3060
aVsqrt[244*.82*.18]
p3061
asS'part1_correct_attempt'
p3062
(lp3063
S'0:00:00'
p3064
ag198
asg9
V2015-11-05 08:56:08
p3065
sS'part3_incorrect_attempt'
p3066
(lp3067
(S'0:01:16'
p3068
V1-[(.82)(244)/220]
p3069
tp3070
a(S'0:02:34'
p3071
V1/82
p3072
tp3073
assVmbl003
p3074
(dp3075
S'part3_correct_attempt'
p3076
(lp3077
S'0:15:03'
p3078
aVQ((260-(282*.85))/(sqrt(.85(1-.85)282)))
p3079
asS'part2_correct_attempt'
p3080
(lp3081
S'0:03:06'
p3082
aVsqrt(.85(1-.85)282)
p3083
asS'part1_correct_attempt'
p3084
(lp3085
S'0:00:00'
p3086
ag210
asg9
V2015-11-06 21:13:15
p3087
sS'part3_incorrect_attempt'
p3088
(lp3089
(S'0:04:36'
p3090
V(282-(282*.85))/(sqrt(.85(1-.85)282))
p3091
tp3092
a(S'0:14:32'
p3093
VQ(260-282*.85/(sqrt(.85(1-.85)282)))
p3094
tp3095
assVn2patil
p3096
(dp3097
S'part3_correct_attempt'
p3098
(lp3099
S'1:21:37'
p3100
aV1-Phi((180-165.6)/33.12^(1/2))
p3101
asS'part2_correct_attempt'
p3102
(lp3103
S'0:00:44'
p3104
aV33.12^(1/2)
p3105
asS'part1_correct_attempt'
p3106
(lp3107
S'0:00:00'
p3108
aV165.6
p3109
asg9
V2015-11-05 02:39:48
p3110
sS'part3_incorrect_attempt'
p3111
(lp3112
(S'0:04:14'
p3113
V0.9938
p3114
tp3115
a(S'1:20:50'
p3116
V1-Phi((207-165.6)/33.12^(1/2))
p3117
tp3118
assVttimmons
p3119
(dp3120
S'part3_correct_attempt'
p3121
(lp3122
S'1 day, 1:15:59'
p3123
aVQ([160-165*0.87]/[sqrt(165*(0.87)*(1-0.87))])
p3124
asS'part2_correct_attempt'
p3125
(lp3126
S'0:04:45'
p3127
aVsqrt(165*(0.87)*(1-0.87))
p3128
asS'part1_correct_attempt'
p3129
(lp3130
S'0:00:00'
p3131
aV165*0.87
p3132
asg9
V2015-11-03 18:51:59
p3133
sS'part3_incorrect_attempt'
p3134
(lp3135
(S'1 day, 1:11:25'
p3136
V[165-165*0.87]/[sqrt(165*(0.87)*(1-0.87))]
p3137
tp3138
a(S'1 day, 1:12:12'
p3139
V1-Q([165-165*0.87]/[sqrt(165*(0.87)*(1-0.87))])
p3140
tp3141
assVjnatale
p3142
(dp3143
S'part3_correct_attempt'
p3144
(lp3145
S'17:55:17'
p3146
aVQ((200-(226*.81))/(sqrt(226*.81*(1-.81))))
p3147
asS'part2_correct_attempt'
p3148
(lp3149
S'0:00:50'
p3150
aVsqrt(226*.81*(1-.81))
p3151
asS'part1_correct_attempt'
p3152
(lp3153
S'0:00:00'
p3154
ag279
asg9
V2015-11-04 08:49:50
p3155
sS'part3_incorrect_attempt'
p3156
(lp3157
(S'0:02:45'
p3158
V200-(226*.81)
p3159
tp3160
a(S'0:02:53'
p3161
V1/(200-(226*.81))
p3162
tp3163
a(S'0:03:08'
p3164
V(200-(226*.81))/(sqrt(226*.81*(1-.81)))
p3165
tp3166
a(S'0:07:49'
p3167
V1/(200-(226*.81))/(sqrt(226*.81*(1-.81)))
p3168
tp3169
a(S'0:07:59'
p3170
V1/((200-(226*.81))/(sqrt(226*.81*(1-.81))))
p3171
tp3172
a(S'0:08:19'
p3173
V1-(1/((200-(226*.81))/(sqrt(226*.81*(1-.81)))))
p3174
tp3175
a(S'0:08:38'
p3176
V(200-(226*.81))/(sqrt(226*.81*(1-.81)))
p3177
tp3178
a(S'0:25:25'
p3179
V(226-(226*.81))/(sqrt(226*.81*(1-.81)))
p3180
tp3181
a(S'0:27:40'
p3182
V.00008
p3183
tp3184
a(S'0:30:58'
p3185
V.00219
p3186
tp3187
a(S'0:31:11'
p3188
V.00159
p3189
tp3190
a(S'0:31:27'
p3191
V.00226
p3192
tp3193
a(S'0:31:38'
p3194
V.00233
p3195
tp3196
a(S'0:31:45'
p3197
V.00240
p3198
tp3199
a(S'0:31:54'
p3200
V.00248
p3201
tp3202
a(S'0:32:08'
p3203
V.00256
p3204
tp3205
a(S'0:32:20'
p3206
V.00212
p3207
tp3208
a(S'0:32:29'
p3209
V.00205
p3210
tp3211
a(S'0:32:39'
p3212
V.00199
p3213
tp3214
a(S'0:32:43'
p3215
V.00193
p3216
tp3217
a(S'0:33:52'
p3218
V.00175
p3219
tp3220
a(S'0:34:00'
p3221
V.00169
p3222
tp3223
a(S'0:34:09'
p3224
V.00181
p3225
tp3226
a(S'0:34:16'
p3227
V.00187
p3228
tp3229
a(S'0:34:30'
p3230
V.00154
p3231
tp3232
a(S'0:34:39'
p3233
V.00149
p3234
tp3235
a(S'0:34:46'
p3236
V.00144
p3237
tp3238
a(S'0:34:51'
p3239
V.00139
p3240
tp3241
a(S'0:36:59'
p3242
V.00154
p3243
tp3244
assVjblynch
p3245
(dp3246
S'part3_correct_attempt'
p3247
(lp3248
S'20:15:56'
p3249
aVQ((260 - 240.12)/5.58709)
p3250
asS'part2_correct_attempt'
p3251
(lp3252
S'9:47:31'
p3253
aVsqrt((.87)(276)(1-.87))
p3254
asS'part1_correct_attempt'
p3255
(lp3256
S'0:00:00'
p3257
aV.87*276
p3258
asg9
V2015-11-04 20:33:29
p3259
sS'part3_incorrect_attempt'
p3260
(lp3261
(S'9:54:37'
p3262
V1 - 0.99981
p3263
tp3264
a(S'9:57:28'
p3265
V0.99981
p3266
tp3267
a(S'10:00:56'
p3268
VQ(260) + 1
p3269
tp3270
a(S'10:01:03'
p3271
VQ(261) + 1
p3272
tp3273
a(S'10:01:10'
p3274
VQ(260)
p3275
tp3276
a(S'10:01:15'
p3277
VQ(261)
p3278
tp3279
a(S'10:02:44'
p3280
V(1 - Q(261))
p3281
tp3282
a(S'19:40:19'
p3283
V0.99981
p3284
tp3285
a(S'19:40:57'
p3286
V0.99990
p3287
tp3288
a(S'19:42:55'
p3289
V1 - 0.99990
p3290
tp3291
a(S'19:43:23'
p3292
V1 - 0.99981
p3293
tp3294
a(S'19:47:04'
p3295
V1- 0.000187
p3296
tp3297
a(S'19:47:49'
p3298
V0.000187
p3299
tp3300
a(S'19:48:28'
p3301
V0.000093
p3302
tp3303
a(S'19:59:36'
p3304
V1 - 0.99981
p3305
tp3306
a(S'20:00:41'
p3307
V1 - 0.99991
p3308
tp3309
a(S'20:06:00'
p3310
V0.000187
p3311
tp3312
a(S'20:06:26'
p3313
V0.00019
p3314
tp3315
a(S'20:07:11'
p3316
V0.000093
p3317
tp3318
a(S'20:10:14'
p3319
V0.025749
p3320
tp3321
a(S'20:11:37'
p3322
V0.000093
p3323
tp3324
a(S'20:11:50'
p3325
V1/10748
p3326
tp3327
a(S'20:14:57'
p3328
VQ(3.7372)
p3329
tp3330
assVtol003
p3331
(dp3332
S'part3_correct_attempt'
p3333
(lp3334
S'0:11:24'
p3335
aV1-Phi((150-(167*.82))/sqrt(167*.82(1-.82)))
p3336
asS'part2_correct_attempt'
p3337
(lp3338
S'0:03:55'
p3339
aVsqrt(167*.82(1-.82))
p3340
asS'part1_correct_attempt'
p3341
(lp3342
S'0:00:00'
p3343
aV167*.82
p3344
asg9
V2015-11-03 23:35:13
p3345
sS'part3_incorrect_attempt'
p3346
(lp3347
(S'0:03:55'
p3348
V1-Phi(17/4.9468)
p3349
tp3350
a(S'0:04:14'
p3351
VPhi(17/4.9468)
p3352
tp3353
a(S'0:05:59'
p3354
V(167-167*.82)/sqrt(167*.82(1-.82))
p3355
tp3356
a(S'0:07:54'
p3357
V1-Phi(150)
p3358
tp3359
assVskodigal
p3360
(dp3361
S'part3_correct_attempt'
p3362
(lp3363
S'0:27:26'
p3364
aVQ((200-182.32)/(5.05221))
p3365
asS'part2_correct_attempt'
p3366
(lp3367
S'0:00:00'
p3368
aVsqrt(212*(.86)(1-.86))
p3369
asS'part1_correct_attempt'
p3370
(lp3371
S'0:00:00'
p3372
aV212*(.86)
p3373
asg9
V2015-11-06 20:28:19
p3374
sS'part3_incorrect_attempt'
p3375
(lp3376
(S'0:10:04'
p3377
V[212 - (212*.86)]/(sqrt(212*(.86)(1-.86)))
p3378
tp3379
a(S'0:11:40'
p3380
VQ([212 - (212*.86)]/(sqrt(212*(.86)(1-.86)))) + .50
p3381
tp3382
a(S'0:16:40'
p3383
V.495306844
p3384
tp3385
a(S'0:17:56'
p3386
V(212-182)/(5.05221)
p3387
tp3388
a(S'0:18:21'
p3389
V(212-182)/(5.05221)
p3390
tp3391
a(S'0:27:06'
p3392
V(200-182)/(5.05221)
p3393
tp3394
a(S'0:27:17'
p3395
V(200-182.32)/(5.05221)
p3396
tp3397
assVaakumar
p3398
(dp3399
S'part3_correct_attempt'
p3400
(lp3401
S'0:17:48'
p3402
aVQ(3.134)
p3403
asS'part2_correct_attempt'
p3404
(lp3405
S'0:05:17'
p3406
aVsqrt(286*.8*.2)
p3407
asS'part1_correct_attempt'
p3408
(lp3409
S'0:00:00'
p3410
aV286*.8
p3411
asg9
V2015-11-05 06:01:56
p3412
sS'part3_incorrect_attempt'
p3413
(lp3414
(S'0:07:28'
p3415
V286*.2
p3416
tp3417
a(S'0:14:46'
p3418
VQ(3.2818)
p3419
tp3420
assVq3wen
p3421
(dp3422
S'part3_correct_attempt'
p3423
(lp3424
S'0:57:19'
p3425
aVQ(2.656445335)
p3426
asS'part2_correct_attempt'
p3427
(lp3428
S'0:00:00'
p3429
aV5.57
p3430
asS'part1_correct_attempt'
p3431
(lp3432
S'0:00:00'
p3433
aV155.2
p3434
asg9
V2015-11-06 19:48:14
p3435
sS'part3_incorrect_attempt'
p3436
(lp3437
(S'0:00:00'
p3438
VQ(5.57)
p3439
tp3440
a(S'0:00:08'
p3441
V1-Q(5.57)
p3442
tp3443
a(S'0:03:39'
p3444
VQ(5.21)
p3445
tp3446
a(S'0:06:01'
p3447
VQ(2.66)
p3448
tp3449
a(S'0:06:52'
p3450
VQ(2.656)
p3451
tp3452
a(S'0:09:38'
p3453
VQ(2.657091)
p3454
tp3455
a(S'0:10:34'
p3456
VQ(6.9658)
p3457
tp3458
a(S'0:55:01'
p3459
V1-Q(6.964)
p3460
tp3461
assVlguintu
p3462
(dp3463
S'part3_correct_attempt'
p3464
(lp3465
S'0:04:09'
p3466
aV1-Phi((230-244*.85)/(244*.85*.15)^(1/2))
p3467
asS'part2_correct_attempt'
p3468
(lp3469
S'0:01:43'
p3470
aV(244*.85*.15)^(1/2)
p3471
asS'part1_correct_attempt'
p3472
(lp3473
S'0:00:00'
p3474
aV244*.85
p3475
asg9
V2015-11-03 05:41:25
p3476
sS'part3_incorrect_attempt'
p3477
(lp3478
(S'0:03:46'
p3479
V1-Phi((244*.85-230)/(244*.85*.15)^(1/2))
p3480
tp3481
assVcsl030
p3482
(dp3483
S'part3_correct_attempt'
p3484
(lp3485
S'0:52:02'
p3486
aVQ(3.006)
p3487
asS'part2_correct_attempt'
p3488
(lp3489
S'0:07:25'
p3490
aVsqrt(277.6 * .2)
p3491
asS'part1_correct_attempt'
p3492
(lp3493
S'0:00:00'
p3494
aV347 * .8
p3495
asg9
V2015-11-06 00:26:22
p3496
sS'part3_incorrect_attempt'
p3497
(lp3498
(S'0:11:19'
p3499
V(347 - 277.6) / 7.45
p3500
tp3501
a(S'0:38:32'
p3502
V(300 - 277.6) / 7.45
p3503
tp3504
a(S'0:39:34'
p3505
V.9985
p3506
tp3507
a(S'0:41:56'
p3508
V(300 - 277.6) / 7.45
p3509
tp3510
a(S'0:47:43'
p3511
V1 - .9986
p3512
tp3513
a(S'0:48:48'
p3514
V1 - .9988
p3515
tp3516
a(S'0:51:04'
p3517
V1 - .9986
p3518
tp3519
assVazkong
p3520
(dp3521
S'part3_correct_attempt'
p3522
(lp3523
S'0:26:05'
p3524
aVQ([210-236(0.81)]/sqrt(236(0.81)(1-0.81)))
p3525
asS'part2_correct_attempt'
p3526
(lp3527
S'0:01:08'
p3528
aVsqrt(236(0.81)(1-0.81))
p3529
asS'part1_correct_attempt'
p3530
(lp3531
S'0:00:00'
p3532
aV236(0.81)
p3533
asg9
V2015-11-06 20:23:24
p3534
sS'part3_incorrect_attempt'
p3535
(lp3536
(S'0:08:34'
p3537
VQ(236(0.81)/sqrt(236(0.81)(1-0.81)))
p3538
tp3539
assVvolim
p3540
(dp3541
S'part3_correct_attempt'
p3542
(lp3543
S'1:17:57'
p3544
aVQ((290-((317)*.84))/[(((317)*.84)*(1-.84))^(1/2)])
p3545
asS'part2_correct_attempt'
p3546
(lp3547
S'0:23:08'
p3548
aV[(((317)*.84)*(1-.84))^(1/2)]
p3549
asS'part1_correct_attempt'
p3550
(lp3551
S'0:00:00'
p3552
ag537
asg9
V2015-11-04 23:36:58
p3553
sS'part3_incorrect_attempt'
p3554
(lp3555
(S'0:23:31'
p3556
Ve^[-[(((317)*.84)*(1-.84))^(1/2)]/((317)*.84)]
p3557
tp3558
a(S'1:17:29'
p3559
VQ(260-((317)*.84)/[(((317)*.84)*(1-.84))^(1/2)])
p3560
tp3561
assVatorr
p3562
(dp3563
S'part3_incorrect_attempt'
p3564
(lp3565
(S'0:05:38'
p3566
V(386 - 350)/350
p3567
tp3568
asS'part1_correct_attempt'
p3569
(lp3570
S'0:00:00'
p3571
ag564
asg9
V2015-11-06 00:45:21
p3572
ssVaurodrig
p3573
(dp3574
S'part3_correct_attempt'
p3575
(lp3576
S'0:03:05'
p3577
aVQ((270-(283*.89))/5.26362042704)
p3578
asS'part2_correct_attempt'
p3579
(lp3580
S'0:00:46'
p3581
aVsqrt(283*.89*(1-.89))
p3582
asS'part1_correct_attempt'
p3583
(lp3584
S'0:00:00'
p3585
ag417
asg9
V2015-11-07 00:12:07
p3586
sS'part3_incorrect_attempt'
p3587
(lp3588
(S'0:02:33'
p3589
VQ(270-283*.89/5.26362042704)
p3590
tp3591
a(S'0:02:55'
p3592
VQ(270-(283*.89)/5.26362042704)
p3593
tp3594
assVhmnaing
p3595
(dp3596
S'part3_correct_attempt'
p3597
(lp3598
S'0:12:10'
p3599
aVQ((330 - (390*.80)) / (sqrt(390*.8 (1-.8))) )
p3600
asS'part2_correct_attempt'
p3601
(lp3602
S'0:00:58'
p3603
aVsqrt(390*.8 (1-.8))
p3604
asS'part1_correct_attempt'
p3605
(lp3606
S'0:00:00'
p3607
aV390*.80
p3608
asg9
V2015-11-06 18:54:43
p3609
sS'part3_incorrect_attempt'
p3610
(lp3611
(S'0:11:54'
p3612
VQ(330 - (390*.80) / (sqrt(390*.8 (1-.8))) )
p3613
tp3614
assVasp025
p3615
(dp3616
S'part3_correct_attempt'
p3617
(lp3618
S'0:52:32'
p3619
aV 1-Phi((260-.84*284)/(284*.84(1-.84))^(1/2))
p3620
asS'part2_correct_attempt'
p3621
(lp3622
S'0:01:22'
p3623
aV[.16*.84*284]^(1/2)
p3624
asS'part1_correct_attempt'
p3625
(lp3626
S'0:00:00'
p3627
ag96
asg9
V2015-11-06 23:53:51
p3628
sS'part3_incorrect_attempt'
p3629
(lp3630
(S'0:03:19'
p3631
V(284-.84*284)/[.16*.84*284]^(1/2)
p3632
tp3633
a(S'0:03:46'
p3634
V(284-(.84*284))/[.16*.84*284]^(1/2)
p3635
tp3636
a(S'0:26:30'
p3637
V(1-Phi((3-0)/[85(.5+.5)^2/12]^(1/2)))
p3638
tp3639
a(S'0:51:50'
p3640
V 1-Phi((260-.81*337)/(284*.84(1-.84))^(1/2))
p3641
tp3642
a(S'0:52:10'
p3643
V 1-Phi((260-.84*337)/(284*.84(1-.84))^(1/2))
p3644
tp3645
assVdmn009
p3646
(dp3647
S'part3_correct_attempt'
p3648
(lp3649
S'0:24:36'
p3650
aV.0000178174
p3651
asS'part2_correct_attempt'
p3652
(lp3653
S'0:00:55'
p3654
aV6.94226
p3655
asS'part1_correct_attempt'
p3656
(lp3657
S'0:00:00'
p3658
aV321.3
p3659
asg9
V2015-11-05 10:04:38
p3660
sS'part3_incorrect_attempt'
p3661
(lp3662
(S'0:01:42'
p3663
V2.03325
p3664
tp3665
a(S'0:02:17'
p3666
V.0210136
p3667
tp3668
assVdlgoldbe
p3669
(dp3670
S'part3_correct_attempt'
p3671
(lp3672
S'1 day, 0:34:49'
p3673
aVQ((200-(226*0.8))/(sqrt((226*(0.8))*(1-(0.8)))))
p3674
asS'part2_correct_attempt'
p3675
(lp3676
S'0:00:56'
p3677
aVsqrt((226*(0.8))*(1-(0.8)))
p3678
asS'part1_correct_attempt'
p3679
(lp3680
S'0:00:00'
p3681
aV226*(0.8)
p3682
asg9
V2015-11-05 07:02:17
p3683
sS'part3_incorrect_attempt'
p3684
(lp3685
(S'10:01:57'
p3686
V(226-226*(0.8))/sqrt((226*(0.8))*(1-(0.8)))
p3687
tp3688
a(S'10:02:10'
p3689
V(226-(226*(0.8)))/sqrt((226*(0.8))*(1-(0.8)))
p3690
tp3691
a(S'10:06:00'
p3692
V((201)-(226*(0.8)))/(sqrt((226*(0.8))*(1-(0.8))))
p3693
tp3694
a(S'10:06:08'
p3695
VQ((201)-(226*(0.8)))/(sqrt((226*(0.8))*(1-(0.8))))
p3696
tp3697
a(S'1 day, 0:32:57'
p3698
VQ(4)
p3699
tp3700
a(S'1 day, 0:33:20'
p3701
VQ(3)
p3702
tp3703
assVyig015
p3704
(dp3705
S'part3_correct_attempt'
p3706
(lp3707
S'1 day, 0:35:41'
p3708
aVQ((210-0.87*217)/sqrt(0.87*0.13*217))
p3709
asS'part2_correct_attempt'
p3710
(lp3711
S'0:04:55'
p3712
aV4.954058942
p3713
asS'part1_correct_attempt'
p3714
(lp3715
S'0:00:00'
p3716
aV217*0.87
p3717
asg9
V2015-11-05 11:03:16
p3718
sS'part3_incorrect_attempt'
p3719
(lp3720
(S'1 day, 0:16:49'
p3721
V7.038063327
p3722
tp3723
a(S'1 day, 0:19:15'
p3724
V(217-0.87*210)/sqrt(0.87*0.13*210)
p3725
tp3726
a(S'1 day, 0:19:39'
p3727
V(217-0.87/210)/sqrt(0.87*0.13*210)
p3728
tp3729
a(S'1 day, 0:19:57'
p3730
V(217-0.87*210)/sqrt(0.87*0.13/210)
p3731
tp3732
a(S'1 day, 0:23:58'
p3733
VQ((217*0.87-210)/sqrt(0.87*0.13*210))
p3734
tp3735
a(S'1 day, 0:24:39'
p3736
VQ((217-0.87*210)/sqrt(0.87*0.13*210))
p3737
tp3738
assVt2shin
p3739
(dp3740
S'part3_correct_attempt'
p3741
(lp3742
S'0:32:13'
p3743
aVQ((290-272.34)/5.47334)
p3744
asS'part2_correct_attempt'
p3745
(lp3746
S'0:01:13'
p3747
aVsqrt(306*.89*.11)
p3748
asS'part1_correct_attempt'
p3749
(lp3750
S'0:00:00'
p3751
aV306*.89
p3752
asg9
V2015-11-05 21:59:16
p3753
sS'part3_incorrect_attempt'
p3754
(lp3755
(S'0:05:56'
p3756
V1-0.99986464
p3757
tp3758
a(S'0:11:03'
p3759
V1-(189522596370757120325902215*(.89^290)*(.11^16))
p3760
tp3761
a(S'0:11:29'
p3762
V1-(189522596370757120325902215*(.89^306)*(.11^16))
p3763
tp3764
a(S'0:13:07'
p3765
V1-((.89^290)*(.11^16))
p3766
tp3767
a(S'0:14:38'
p3768
V(290.5-272.34)/5.47334
p3769
tp3770
a(S'0:15:09'
p3771
V(290-272.34)/5.47334
p3772
tp3773
a(S'0:22:37'
p3774
V.99999999
p3775
tp3776
a(S'0:24:41'
p3777
V.0002
p3778
tp3779
a(S'0:24:46'
p3780
V1-.0002
p3781
tp3782
a(S'0:25:55'
p3783
V.0003
p3784
tp3785
a(S'0:26:00'
p3786
V1-.0003
p3787
tp3788
a(S'0:26:41'
p3789
V1-.0003186
p3790
tp3791
a(S'0:26:48'
p3792
V.0003186
p3793
tp3794
a(S'0:27:33'
p3795
VQ(.0003186)
p3796
tp3797
a(S'0:28:44'
p3798
V1-Q(16/sqrt(306*.89*.11))
p3799
tp3800
assVaportuga
p3801
(dp3802
S'part2_correct_attempt'
p3803
(lp3804
S'0:01:24'
p3805
aV6.15526603812
p3806
asS'part1_correct_attempt'
p3807
(lp3808
S'0:00:00'
p3809
aV344.43
p3810
asg9
V2015-11-03 22:31:17
p3811
sS'part3_incorrect_attempt'
p3812
(lp3813
(S'0:06:15'
p3814
V25.57/6.15526603812
p3815
tp3816
a(S'0:09:15'
p3817
V42.57/6.15526603812
p3818
tp3819
a(S'0:09:22'
p3820
V25.57/6.15526603812
p3821
tp3822
assVppanourg
p3823
(dp3824
S'part3_correct_attempt'
p3825
(lp3826
S'1:41:26'
p3827
aVQ(((350 - 378*(.88))/sqrt((378*.88)(1 - .88))))
p3828
asS'part2_correct_attempt'
p3829
(lp3830
S'0:13:50'
p3831
aVsqrt((378*.88)(1 - .88))
p3832
asS'part1_correct_attempt'
p3833
(lp3834
S'0:00:00'
p3835
aV378*.88
p3836
asg9
V2015-11-06 21:30:59
p3837
sS'part3_incorrect_attempt'
p3838
(lp3839
(S'0:17:57'
p3840
V(378 - 378*(.88))/sqrt((378*.88)(1 - .88))
p3841
tp3842
a(S'0:19:22'
p3843
V(378 - 378*(.88))/sqrt((378*.88)(1 - .88))
p3844
tp3845
a(S'1:14:52'
p3846
V(378 - 378*(.88))/sqrt((378*.88)(1 - .88))
p3847
tp3848
a(S'1:18:35'
p3849
V.0001
p3850
tp3851
a(S'1:19:48'
p3852
V1 - Q((378 - 378*(.88))/sqrt((378*.88)(1 - .88)))
p3853
tp3854
a(S'1:21:39'
p3855
V1-Q((378 - 378*(.88))/sqrt((378*.88)(1 - .88)))
p3856
tp3857
a(S'1:32:59'
p3858
V((378 - 378*(.88))/sqrt((378*.88)(1 - .88)))
p3859
tp3860
a(S'1:34:35'
p3861
V((378 - 378*(.88))/sqrt((378*.88)(1 - .88)))
p3862
tp3863
a(S'1:34:57'
p3864
V1 - Phi(((378 - 378*(.88))/sqrt((378*.88)(1 - .88))))
p3865
tp3866
a(S'1:35:06'
p3867
V1 - Q(((378 - 378*(.88))/sqrt((378*.88)(1 - .88))))
p3868
tp3869
a(S'1:40:23'
p3870
V1 - Q(((379 - 378*(.88))/sqrt((378*.88)(1 - .88))))
p3871
tp3872
a(S'1:40:30'
p3873
V1 - Phi(((379 - 378*(.88))/sqrt((378*.88)(1 - .88))))
p3874
tp3875
assVrohan
p3876
(dp3877
S'part3_incorrect_attempt'
p3878
(lp3879
(S'0:04:28'
p3880
V.14
p3881
tp3882
a(S'0:30:16'
p3883
V199*.14
p3884
tp3885
asS'part1_correct_attempt'
p3886
(lp3887
S'0:00:00'
p3888
aV199*.86
p3889
asg9
V2015-11-07 00:25:00
p3890
ssVspw006
p3891
(dp3892
S'part3_correct_attempt'
p3893
(lp3894
S'0:07:26'
p3895
aV1-Phi((270-291*.83)/(sqrt((291*0.83*0.17))))
p3896
asS'part2_correct_attempt'
p3897
(lp3898
S'0:00:27'
p3899
aVsqrt((291*0.83*0.17))
p3900
asS'part1_correct_attempt'
p3901
(lp3902
S'0:00:00'
p3903
aV291*.83
p3904
asg9
V2015-11-04 03:30:12
p3905
sS'part3_incorrect_attempt'
p3906
(lp3907
(S'0:00:53'
p3908
V1-Phi((sqrt((291*0.83*0.17))))
p3909
tp3910
a(S'0:06:11'
p3911
V1-Phi((291-91*.83)/(sqrt((291*0.83*0.17))))
p3912
tp3913
a(S'0:06:53'
p3914
V1-Phi((291-291*.83)/(sqrt((291*0.83*0.17))))
p3915
tp3916
assVmasaro
p3917
(dp3918
S'part3_correct_attempt'
p3919
(lp3920
S'1 day, 3:17:08'
p3921
aVQ([280-296*.86]/sqrt(296*.86*(1-.86)))
p3922
asS'part2_correct_attempt'
p3923
(lp3924
S'0:02:56'
p3925
aVsqrt(296*.86*(1-.86))
p3926
asS'part1_correct_attempt'
p3927
(lp3928
S'0:00:00'
p3929
aV296*.86
p3930
asg9
V2015-11-03 17:38:11
p3931
sS'part3_incorrect_attempt'
p3932
(lp3933
(S'0:04:23'
p3934
V1-0.877543
p3935
tp3936
a(S'0:04:29'
p3937
V0.877543
p3938
tp3939
a(S'0:14:47'
p3940
V0.99999
p3941
tp3942
a(S'0:15:13'
p3943
V0.999999999
p3944
tp3945
a(S'0:17:09'
p3946
V1-0.99999
p3947
tp3948
a(S'0:17:21'
p3949
V0.99
p3950
tp3951
assVrwthomps
p3952
(dp3953
S'part3_correct_attempt'
p3954
(lp3955
S'1:12:39'
p3956
aVQ((340 - (376 * .85))/sqrt(376 * .85 * .15))
p3957
asS'part2_correct_attempt'
p3958
(lp3959
S'1:07:51'
p3960
aVsqrt(376 * .85 * .15)
p3961
asS'part1_correct_attempt'
p3962
(lp3963
S'0:00:00'
p3964
aV376 * .85
p3965
asg9
V2015-11-06 21:59:09
p3966
sS'part3_incorrect_attempt'
p3967
(lp3968
(S'1:08:03'
p3969
VQ(sqrt(376 * .85 * .15))
p3970
tp3971
assVvsosnovs
p3972
(dp3973
S'part3_incorrect_attempt'
p3974
(lp3975
(S'0:02:32'
p3976
V.20
p3977
tp3978
a(S'1 day, 1:23:12'
p3979
V.1
p3980
tp3981
asS'part1_correct_attempt'
p3982
(lp3983
S'0:00:00'
p3984
aV.80(155)
p3985
asg9
V2015-11-05 22:13:07
p3986
ssVk5law
p3987
(dp3988
S'part3_correct_attempt'
p3989
(lp3990
S'1:06:06'
p3991
aVQ((260-(.88*282))/sqrt(.88*282*.12))
p3992
asS'part2_correct_attempt'
p3993
(lp3994
S'0:01:15'
p3995
aVsqrt(.88*282*.12)
p3996
asS'part1_correct_attempt'
p3997
(lp3998
S'0:00:00'
p3999
aV.88*282
p4000
asg9
V2015-11-04 08:41:27
p4001
sS'part3_incorrect_attempt'
p4002
(lp4003
(S'0:04:20'
p4004
V(282-260)/sqrt(.88*282*.12)
p4005
tp4006
a(S'0:07:26'
p4007
V(260-(.88*282))/sqrt(.88*282*.12)
p4008
tp4009
a(S'0:07:32'
p4010
V(282-(.88*282))/sqrt(.88*282*.12)
p4011
tp4012
a(S'0:10:07'
p4013
V(260-(.88*282))/sqrt(.88*282*.12)
p4014
tp4015
a(S'0:11:53'
p4016
V(260-(.88*282))/[sqrt(.88*282*.12)/282]
p4017
tp4018
a(S'0:12:07'
p4019
V(282-(.88*282))/[sqrt(.88*282*.12)/260]
p4020
tp4021
a(S'0:12:14'
p4022
V(282-(.88*282))/[sqrt(.88*282*.12)/282]
p4023
tp4024
a(S'0:12:36'
p4025
V.015
p4026
tp4027
a(S'0:54:17'
p4028
V1-.96164
p4029
tp4030
a(S'0:55:09'
p4031
V(260-(.88*282))/sqrt(.88*282*.12)
p4032
tp4033
a(S'0:56:39'
p4034
V.88*282
p4035
tp4036
a(S'0:57:43'
p4037
V1-.98500
p4038
tp4039
a(S'0:59:31'
p4040
V.88^282
p4041
tp4042
a(S'0:59:44'
p4043
V.88^22
p4044
tp4045
a(S'1:01:47'
p4046
V.88^282
p4047
tp4048
assVs2chaudh
p4049
(dp4050
S'part3_correct_attempt'
p4051
(lp4052
S'16:35:01'
p4053
aV1-(1/2+1/2erf((((170-(188*.84))/sqrt(188*.84*(1-.84))) )/sqrt(2)))
p4054
asS'part2_correct_attempt'
p4055
(lp4056
S'0:00:45'
p4057
aVsqrt(188*.84*(1-.84))
p4058
asS'part1_correct_attempt'
p4059
(lp4060
S'0:00:00'
p4061
aV188*.84
p4062
asg9
V2015-11-06 06:53:40
p4063
sS'part3_incorrect_attempt'
p4064
(lp4065
(S'0:02:18'
p4066
V((170-(188*.84))/sqrt(188*.84*(1-.84)))
p4067
tp4068
a(S'0:02:25'
p4069
V1/((170-(188*.84))/sqrt(188*.84*(1-.84)))
p4070
tp4071
a(S'0:03:37'
p4072
V((170-(188*.84))/sqrt(188*.84*(1-.84)))
p4073
tp4074
a(S'16:33:13'
p4075
V((170-(188*.84))/sqrt(188*.84*(1-.84)))
p4076
tp4077
assVjmiclat
p4078
(dp4079
S'part3_correct_attempt'
p4080
(lp4081
S'14:25:56'
p4082
aV1-Phi((240-218.12)/6.26591)
p4083
asS'part2_correct_attempt'
p4084
(lp4085
S'14:23:37'
p4086
aVsqrt[(1-0.82)0.82*266]
p4087
asS'part1_correct_attempt'
p4088
(lp4089
S'0:00:00'
p4090
aV.82*266
p4091
asg9
V2015-11-06 09:32:38
p4092
sS'part3_incorrect_attempt'
p4093
(lp4094
(S'14:24:55'
p4095
V1-Phi((266-218.12)/6.26591)
p4096
tp4097
a(S'14:25:39'
p4098
V1-Phi((266-240)/6.26591)
p4099
tp4100
assVc3chung
p4101
(dp4102
S'part2_correct_attempt'
p4103
(lp4104
S'1:48:57'
p4105
aVsqrt(281*.81*.19)
p4106
asS'part1_correct_attempt'
p4107
(lp4108
S'0:00:00'
p4109
aV.81(281)
p4110
asg9
V2015-11-06 22:52:08
p4111
sS'part3_incorrect_attempt'
p4112
(lp4113
(S'1:49:36'
p4114
V(250-227.61)/6.57616
p4115
tp4116
a(S'1:50:10'
p4117
V1-.9997
p4118
tp4119
a(S'1:50:32'
p4120
V0.0004
p4121
tp4122
a(S'1:50:35'
p4123
V0.0005
p4124
tp4125
a(S'1:50:37'
p4126
V0.0006
p4127
tp4128
a(S'1:50:41'
p4129
V0.0003
p4130
tp4131
a(S'1:50:43'
p4132
V0.0002
p4133
tp4134
a(S'1:50:46'
p4135
V0.0001
p4136
tp4137
a(S'1:50:50'
p4138
V0.0007
p4139
tp4140
a(S'1:50:52'
p4141
V0.0008
p4142
tp4143
a(S'1:50:54'
p4144
V0.0009
p4145
tp4146
a(S'1:50:58'
p4147
V0.001
p4148
tp4149
a(S'1:51:00'
p4150
V0.002
p4151
tp4152
a(S'1:53:04'
p4153
V(250-227.61)/6.57616
p4154
tp4155
a(S'1:53:23'
p4156
V1-0.9997
p4157
tp4158
a(S'1:53:40'
p4159
V1-0.99966
p4160
tp4161
a(S'1:53:50'
p4162
V1-0.99968
p4163
tp4164
a(S'1:54:57'
p4165
V(281-227.61)/6.57616
p4166
tp4167
a(S'1:56:32'
p4168
V(250-227.61)/6.57616
p4169
tp4170
assVjhc010
p4171
(dp4172
S'part3_correct_attempt'
p4173
(lp4174
S'0:05:48'
p4175
aVQ((240-277*.82)/sqrt(.82*.18*277))
p4176
asS'part2_correct_attempt'
p4177
(lp4178
S'0:01:25'
p4179
aVsqrt(.82*.18*277)
p4180
asS'part1_correct_attempt'
p4181
(lp4182
S'0:00:00'
p4183
aV277*.82
p4184
asg9
V2015-11-06 11:07:36
p4185
sS'part3_incorrect_attempt'
p4186
(lp4187
(S'0:04:59'
p4188
V(277-277*.82)/sqrt(.82*.18*277)
p4189
tp4190
assVrsmurlo
p4191
(dp4192
S'part3_correct_attempt'
p4193
(lp4194
S'0:06:16'
p4195
aVQ((310-299.2)/5.99199)
p4196
asS'part2_correct_attempt'
p4197
(lp4198
S'0:00:40'
p4199
aVsqrt(.88(.12)(340))
p4200
asS'part1_correct_attempt'
p4201
(lp4202
S'0:00:00'
p4203
aV.88*340
p4204
asg9
V2015-11-05 18:25:02
p4205
sS'part3_incorrect_attempt'
p4206
(lp4207
(S'0:02:31'
p4208
V(311-299.2)/5.99199
p4209
tp4210
assVdkostins
p4211
(dp4212
S'part3_correct_attempt'
p4213
(lp4214
S'15:38:40'
p4215
aV1 - Phi((160 - (0.86 * 166)) / sqrt(166 * 0.86 * 0.14))
p4216
asS'part2_correct_attempt'
p4217
(lp4218
S'0:20:51'
p4219
aVsqrt(166*.86*.14)
p4220
asS'part1_correct_attempt'
p4221
(lp4222
S'0:00:00'
p4223
ag264
asg9
V2015-11-06 05:24:37
p4224
sS'part3_incorrect_attempt'
p4225
(lp4226
(S'0:28:57'
p4227
V(166-.86 * 166)/sqrt(166*.86*.14)
p4228
tp4229
a(S'0:29:58'
p4230
V1-Phi((166-.86 * 166)/sqrt(166*.86*.14))
p4231
tp4232
a(S'0:30:22'
p4233
V2(1-Phi((166-.86 * 166)/sqrt(166*.86*.14)))
p4234
tp4235
a(S'0:36:04'
p4236
V1-(Phi((166-.24 * 166)/sqrt(166*.86*.14)))
p4237
tp4238
a(S'0:36:20'
p4239
V1-(Phi((165)/sqrt(166*.86*.14)))
p4240
tp4241
a(S'0:36:29'
p4242
V1-(Phi((164)/sqrt(166*.86*.14)))
p4243
tp4244
a(S'0:36:34'
p4245
V1-(Phi((163)/sqrt(166*.86*.14)))
p4246
tp4247
a(S'0:36:38'
p4248
V1-(Phi((162)/sqrt(166*.86*.14)))
p4249
tp4250
a(S'0:36:42'
p4251
V1-(Phi((161)/sqrt(166*.86*.14)))
p4252
tp4253
a(S'0:36:47'
p4254
V1-(Phi((160)/sqrt(166*.86*.14)))
p4255
tp4256
a(S'0:36:53'
p4257
V1-(Phi((159)/sqrt(166*.86*.14)))
p4258
tp4259
a(S'0:36:57'
p4260
V1-(Phi((158)/sqrt(166*.86*.14)))
p4261
tp4262
a(S'0:37:01'
p4263
V1-(Phi((157)/sqrt(166*.86*.14)))
p4264
tp4265
a(S'0:37:05'
p4266
V1-(Phi((156)/sqrt(166*.86*.14)))
p4267
tp4268
a(S'0:37:08'
p4269
V1-(Phi((155)/sqrt(166*.86*.14)))
p4270
tp4271
a(S'0:37:34'
p4272
V1-(Phi((154)/sqrt(166*.86*.14)))
p4273
tp4274
a(S'0:37:38'
p4275
V1-(Phi((153)/sqrt(166*.86*.14)))
p4276
tp4277
a(S'0:37:43'
p4278
V1-(Phi((152)/sqrt(166*.86*.14)))
p4279
tp4280
a(S'0:37:47'
p4281
V1-(Phi((151)/sqrt(166*.86*.14)))
p4282
tp4283
a(S'0:37:51'
p4284
V1-(Phi((150)/sqrt(166*.86*.14)))
p4285
tp4286
a(S'0:37:56'
p4287
V1-(Phi((149)/sqrt(166*.86*.14)))
p4288
tp4289
a(S'0:37:59'
p4290
V1-(Phi((148)/sqrt(166*.86*.14)))
p4291
tp4292
a(S'0:38:03'
p4293
V1-(Phi((147)/sqrt(166*.86*.14)))
p4294
tp4295
a(S'0:38:07'
p4296
V1-(Phi((146)/sqrt(166*.86*.14)))
p4297
tp4298
a(S'0:38:11'
p4299
V1-(Phi((145)/sqrt(166*.86*.14)))
p4300
tp4301
a(S'0:38:14'
p4302
V1-(Phi((144)/sqrt(166*.86*.14)))
p4303
tp4304
a(S'0:38:18'
p4305
V1-(Phi((143)/sqrt(166*.86*.14)))
p4306
tp4307
a(S'0:38:22'
p4308
V1-(Phi((142)/sqrt(166*.86*.14)))
p4309
tp4310
a(S'0:38:25'
p4311
V1-(Phi((141)/sqrt(166*.86*.14)))
p4312
tp4313
a(S'0:38:29'
p4314
V1-(Phi((140)/sqrt(166*.86*.14)))
p4315
tp4316
a(S'0:38:35'
p4317
V1-(Phi((139)/sqrt(166*.86*.14)))
p4318
tp4319
a(S'0:38:40'
p4320
V1-(Phi((138)/sqrt(166*.86*.14)))
p4321
tp4322
a(S'0:38:43'
p4323
V1-(Phi((137)/sqrt(166*.86*.14)))
p4324
tp4325
a(S'0:38:49'
p4326
V1-(Phi((136)/sqrt(166*.86*.14)))
p4327
tp4328
a(S'0:38:53'
p4329
V1-(Phi((135)/sqrt(166*.86*.14)))
p4330
tp4331
a(S'0:38:56'
p4332
V1-(Phi((134)/sqrt(166*.86*.14)))
p4333
tp4334
a(S'0:39:00'
p4335
V1-(Phi((133)/sqrt(166*.86*.14)))
p4336
tp4337
a(S'0:39:04'
p4338
V1-(Phi((132)/sqrt(166*.86*.14)))
p4339
tp4340
a(S'0:39:07'
p4341
V1-(Phi((131)/sqrt(166*.86*.14)))
p4342
tp4343
a(S'0:39:11'
p4344
V1-(Phi((130)/sqrt(166*.86*.14)))
p4345
tp4346
a(S'0:39:15'
p4347
V1-(Phi((129)/sqrt(166*.86*.14)))
p4348
tp4349
a(S'0:39:20'
p4350
V1-(Phi((128)/sqrt(166*.86*.14)))
p4351
tp4352
a(S'0:39:48'
p4353
V1-(Phi((127)/sqrt(166*.86*.14)))
p4354
tp4355
a(S'0:43:57'
p4356
VC(166,160)*.86^160*.14^(166-160)
p4357
tp4358
a(S'0:46:34'
p4359
V1-Phi((166-160)/sqrt(166*.86*.14))
p4360
tp4361
a(S'0:46:48'
p4362
V2(1-Phi((166-160)/sqrt(166*.86*.14)))
p4363
tp4364
a(S'0:48:27'
p4365
V2(1-Phi((166-.86*166)/sqrt(166*.86*.14)))
p4366
tp4367
a(S'0:48:35'
p4368
V(1-Phi((166-.86*166)/sqrt(166*.86*.14)))
p4369
tp4370
a(S'0:49:39'
p4371
V1-Q(((166-.86*166)/sqrt(166*.86*.14)))
p4372
tp4373
a(S'0:52:48'
p4374
V1-Phi(((166-.86*166)/sqrt(166*.86*.14)))
p4375
tp4376
a(S'1:09:03'
p4377
V(((166-.86*166)/sqrt(166*.86*.14)))
p4378
tp4379
a(S'1:09:54'
p4380
V(((166-.86*166)/sqrt(166*.86*.14)))
p4381
tp4382
a(S'1:15:50'
p4383
V(166-142.76)/4.47062
p4384
tp4385
a(S'1:16:11'
p4386
VPhi((166-142.76)/4.47062)
p4387
tp4388
a(S'1:16:20'
p4389
V1-Phi((166-142.76)/4.47062)
p4390
tp4391
a(S'1:16:34'
p4392
VQ((166-142.76)/4.47062)
p4393
tp4394
a(S'1:16:41'
p4395
V1-Q((166-142.76)/4.47062)
p4396
tp4397
a(S'1:16:47'
p4398
VQ((166-142.76)/4.47062)
p4399
tp4400
a(S'1:17:49'
p4401
VQ((166-.14*166)/4.47062)
p4402
tp4403
a(S'1:18:02'
p4404
V1-Q((166-.14*166)/4.47062)
p4405
tp4406
a(S'1:18:36'
p4407
VQ((166-.86*160)/4.47062)
p4408
tp4409
a(S'1:19:50'
p4410
VQ((166-.86*166)/4.47062)
p4411
tp4412
a(S'1:20:53'
p4413
V1-Phi((166-.86*166)/4.47062)
p4414
tp4415
a(S'1:21:07'
p4416
V1-(Phi((166-.86*166)/4.47062))^2
p4417
tp4418
a(S'1:21:59'
p4419
V1-(Phi(((166-.86*166)/4.47062))^2)
p4420
tp4421
a(S'1:24:05'
p4422
V((166-.86*166)/4.47062)^2
p4423
tp4424
a(S'1:26:20'
p4425
V((166-.86*166)/4.47062)
p4426
tp4427
a(S'1:26:36'
p4428
Vsqrt(((166-.86*166)/4.47062))
p4429
tp4430
a(S'1:26:57'
p4431
VPhi(sqrt(((166-.86*166)/4.47062)))
p4432
tp4433
a(S'1:27:02'
p4434
V1-Phi(sqrt(((166-.86*166)/4.47062)))
p4435
tp4436
a(S'1:28:48'
p4437
V1-Phi(sqrt(((166-.86*166))/4.47062))
p4438
tp4439
a(S'1:29:20'
p4440
Vsqrt(166-.86*166)
p4441
tp4442
a(S'1:29:38'
p4443
Vsqrt(166-.86*166)/4.47062
p4444
tp4445
a(S'1:30:02'
p4446
V1-Phi(sqrt(166-.86*166)/4.47062)
p4447
tp4448
a(S'12:30:31'
p4449
V0.99
p4450
tp4451
a(S'12:30:40'
p4452
V0.97
p4453
tp4454
a(S'12:33:55'
p4455
V0.12
p4456
tp4457
a(S'12:39:03'
p4458
VQ(3)
p4459
tp4460
a(S'12:42:17'
p4461
VQ(3.32177)
p4462
tp4463
a(S'12:44:48'
p4464
VPhi(166-(.86 * 166) / sqrt(166*.86*.14))
p4465
tp4466
a(S'12:44:56'
p4467
V1 - Phi(166-(.86 * 166) / sqrt(166*.86*.14))
p4468
tp4469
a(S'12:45:14'
p4470
V3.321 * (1 - Phi(166-(.86 * 166) / sqrt(166*.86*.14)))
p4471
tp4472
a(S'12:45:27'
p4473
V3 * (1 - Phi(166-(.86 * 166) / sqrt(166*.86*.14)))
p4474
tp4475
a(S'12:48:21'
p4476
V1 - Phi(17 / sqrt(166*.86*.14))
p4477
tp4478
a(S'12:48:32'
p4479
V1 - Phi(18 / sqrt(166*.86*.14))
p4480
tp4481
a(S'12:49:05'
p4482
VPhi(166-(.86 * 166) / sqrt(166*.86*.14))
p4483
tp4484
a(S'12:49:14'
p4485
V1 - Phi(166-(.86 * 166) / sqrt(166*.86*.14))
p4486
tp4487
a(S'12:49:25'
p4488
V2 * (1 - Phi(166-(.86 * 166) / sqrt(166*.86*.14)))
p4489
tp4490
a(S'12:49:47'
p4491
V1 - Phi(166-(.86 * 166) / sqrt(166*.86*.14))
p4492
tp4493
a(S'12:53:17'
p4494
VC(5,2)
p4495
tp4496
a(S'14:10:42'
p4497
V1 - Phi(161 - (0.86 * 166) / sqrt(166 * 0.86 * 0.14))
p4498
tp4499
a(S'14:12:24'
p4500
V1 - (Phi(161 - (0.86 * 166)) / sqrt(166 * 0.86 * 0.14))
p4501
tp4502
a(S'14:12:39'
p4503
V1 - Phi((161 - (0.86 * 166)) / sqrt(166 * 0.86 * 0.14))
p4504
tp4505
a(S'14:13:12'
p4506
V1 - Phi((161 - (0.86 * 166)) / sqrt(161 * 0.86 * 0.14))
p4507
tp4508
a(S'14:13:33'
p4509
V1 - Phi((161 - (0.86 * 160)) / sqrt(166 * 0.86 * 0.14))
p4510
tp4511
a(S'14:57:00'
p4512
V1 - Phi((160 - (0.86 * 160)) / sqrt(166 * 0.86 * 0.14))
p4513
tp4514
assVtwsalim
p4515
(dp4516
S'part3_correct_attempt'
p4517
(lp4518
S'0:13:21'
p4519
aVQ(2.99879)
p4520
asS'part2_correct_attempt'
p4521
(lp4522
S'0:10:26'
p4523
aV6.7494
p4524
asS'part1_correct_attempt'
p4525
(lp4526
S'0:00:00'
p4527
aV239.76
p4528
asg9
V2015-11-06 03:44:10
p4529
sS'part3_incorrect_attempt'
p4530
(lp4531
(S'0:10:26'
p4532
VQ(8.3563)
p4533
tp4534
a(S'0:11:49'
p4535
VQ(6.32566)
p4536
tp4537
a(S'0:11:55'
p4538
VQ(6.3256)
p4539
tp4540
assVs6deng
p4541
(dp4542
S'part2_correct_attempt'
p4543
(lp4544
S'0:01:01'
p4545
aVsqrt(172*.86*.14)
p4546
asS'part1_correct_attempt'
p4547
(lp4548
S'0:00:00'
p4549
aV.86*172
p4550
asg9
V2015-11-05 07:56:44
p4551
sS'part3_incorrect_attempt'
p4552
(lp4553
(S'0:07:08'
p4554
V0.3302
p4555
tp4556
a(S'0:08:32'
p4557
V0.43949357326
p4558
tp4559
assVachinn
p4560
(dp4561
S'part3_correct_attempt'
p4562
(lp4563
S'9:55:39'
p4564
aVQ((350-(0.86*381))/(sqrt(0.86*381*0.14)))
p4565
asS'part2_correct_attempt'
p4566
(lp4567
S'0:00:00'
p4568
aVsqrt(0.86*381*0.14)
p4569
asS'part1_correct_attempt'
p4570
(lp4571
S'0:00:00'
p4572
aV0.86*381
p4573
asg9
V2015-11-03 22:08:56
p4574
sS'part3_incorrect_attempt'
p4575
(lp4576
(S'0:00:00'
p4577
V(350-(0.86*381))/(sqrt(0.86*381*0.14))
p4578
tp4579
a(S'0:00:24'
p4580
V0.0005
p4581
tp4582
a(S'0:01:49'
p4583
V0.0003
p4584
tp4585
a(S'0:38:21'
p4586
V0.03
p4587
tp4588
a(S'9:54:20'
p4589
VQ(351-(0.86*381))/(sqrt(0.86*381*0.14))
p4590
tp4591
assVaalhaida
p4592
(dp4593
S'part3_incorrect_attempt'
p4594
(lp4595
(S'0:02:02'
p4596
V.25
p4597
tp4598
asS'part1_correct_attempt'
p4599
(lp4600
S'0:00:00'
p4601
aV.85*201
p4602
asg9
V2015-11-05 23:56:50
p4603
ssVjdeon
p4604
(dp4605
S'part3_correct_attempt'
p4606
(lp4607
S'0:21:50'
p4608
aVQ((320-301)/(6.4915))
p4609
asS'part2_correct_attempt'
p4610
(lp4611
S'0:02:42'
p4612
aV6.4915
p4613
asS'part1_correct_attempt'
p4614
(lp4615
S'0:00:00'
p4616
aV301
p4617
asg9
V2015-11-04 23:41:21
p4618
sS'part3_incorrect_attempt'
p4619
(lp4620
(S'0:07:54'
p4621
VQ((350-301)/(6.4915))
p4622
tp4623
a(S'0:08:10'
p4624
VQ((350-320)/(6.4915))
p4625
tp4626
a(S'0:08:28'
p4627
VPhi((350-301)/(6.4915))
p4628
tp4629
a(S'0:12:16'
p4630
VPhi((49-19)/(6.4915))
p4631
tp4632
a(S'0:12:22'
p4633
VQ((49-19)/(6.4915))
p4634
tp4635
a(S'0:12:34'
p4636
VQ((50-19)/(6.4915))
p4637
tp4638
a(S'0:12:47'
p4639
VPhi((50-19)/(6.4915))
p4640
tp4641
a(S'0:16:01'
p4642
VPhi((351-301)/(6.4915))
p4643
tp4644
a(S'0:16:18'
p4645
VQ((351-301)/(6.4915))
p4646
tp4647
a(S'0:20:45'
p4648
VQ((321-301)/(6.4915))
p4649
tp4650
a(S'0:21:09'
p4651
VPhi((321-301)/(6.4915))
p4652
tp4653
assVhah008
p4654
(dp4655
S'part2_correct_attempt'
p4656
(lp4657
S'0:00:36'
p4658
aVsqrt(312*(1-0.8))
p4659
asS'part1_correct_attempt'
p4660
(lp4661
S'0:00:00'
p4662
aV390 * 0.8
p4663
asg9
V2015-11-06 23:17:33
p4664
sS'part3_incorrect_attempt'
p4665
(lp4666
(S'0:47:18'
p4667
V0.00804601
p4668
tp4669
a(S'0:47:26'
p4670
V1-0.00804601
p4671
tp4672
a(S'0:47:40'
p4673
V0.00351161
p4674
tp4675
a(S'0:48:25'
p4676
V0.988442
p4677
tp4678
a(S'1:02:39'
p4679
V1-0.988442
p4680
tp4681
a(S'1:02:52'
p4682
V1-0.00351161
p4683
tp4684
a(S'1:03:04'
p4685
V1-0.00804601
p4686
tp4687
a(S'1:03:30'
p4688
V0.00351161
p4689
tp4690
a(S'1:03:38'
p4691
V0.00804601
p4692
tp4693
a(S'1:03:46'
p4694
V0.988442
p4695
tp4696
a(S'1:07:07'
p4697
V0.8^390
p4698
tp4699
a(S'1:18:38'
p4700
VQ(390-312)/(sqrt(312*(1-0.8)))
p4701
tp4702
assVmcatozzi
p4703
(dp4704
S'part3_correct_attempt'
p4705
(lp4706
S'0:14:40'
p4707
aV1 -Phi((360-333.75)/sqrt(375*(.89)*(.11)))
p4708
asS'part2_correct_attempt'
p4709
(lp4710
S'0:01:07'
p4711
aVsqrt(375*(.89)*(.11))
p4712
asS'part1_correct_attempt'
p4713
(lp4714
S'0:00:00'
p4715
aV.89*375
p4716
asg9
V2015-11-03 23:35:17
p4717
sS'part3_incorrect_attempt'
p4718
(lp4719
(S'0:02:42'
p4720
V15/375
p4721
tp4722
a(S'0:02:50'
p4723
V15/360
p4724
tp4725
a(S'0:04:21'
p4726
V15/(.89*375)
p4727
tp4728
a(S'0:05:54'
p4729
V(.89*375)/375
p4730
tp4731
a(S'0:05:58'
p4732
V(.89*375)/360
p4733
tp4734
a(S'0:07:12'
p4735
V1 -(.89*375)/360
p4736
tp4737
a(S'0:07:18'
p4738
V1 -(.89*375)/375
p4739
tp4740
assVacs008
p4741
(dp4742
S'part3_correct_attempt'
p4743
(lp4744
S'0:32:38'
p4745
aVQ((360-339.98)/6.11537)
p4746
asS'part2_correct_attempt'
p4747
(lp4748
S'0:00:24'
p4749
aVsqrt(382*0.89*0.11)
p4750
asS'part1_correct_attempt'
p4751
(lp4752
S'0:00:00'
p4753
aV382*0.89
p4754
asg9
V2015-11-05 21:59:52
p4755
sS'part3_incorrect_attempt'
p4756
(lp4757
(S'0:03:52'
p4758
V(382-339.98)/6.11547
p4759
tp4760
a(S'0:04:08'
p4761
V2*Q((382-339.98)/6.11547)
p4762
tp4763
a(S'0:04:18'
p4764
V2*Q((360-339.98)/6.11547)
p4765
tp4766
a(S'0:04:34'
p4767
VQ((382-339.98)/6.11547)
p4768
tp4769
a(S'0:11:19'
p4770
V1-0.52543690
p4771
tp4772
a(S'0:11:39'
p4773
V1-0.99986463
p4774
tp4775
a(S'0:13:20'
p4776
V(1-Q(6.11537))*(Q(6.11537))
p4777
tp4778
a(S'0:14:40'
p4779
V1-Q(6.87121)*2
p4780
tp4781
a(S'0:15:29'
p4782
V(360-339.98)/6.11537
p4783
tp4784
a(S'0:15:48'
p4785
V1-Q(3.27372)*2
p4786
tp4787
assVhmshah
p4788
(dp4789
S'part2_correct_attempt'
p4790
(lp4791
S'0:00:47'
p4792
aVsqrt(366*.87* .13)
p4793
asS'part1_correct_attempt'
p4794
(lp4795
S'0:00:00'
p4796
aV366*.87
p4797
asg9
V2015-11-05 09:54:46
p4798
sS'part3_incorrect_attempt'
p4799
(lp4800
(S'0:22:32'
p4801
V0.000108134009137006
p4802
tp4803
a(S'0:24:14'
p4804
V(1-0.999891865990863)
p4805
tp4806
assVlahawkin
p4807
(dp4808
S'part2_correct_attempt'
p4809
(lp4810
S'2 days, 0:07:02'
p4811
aV((89/100)(303)(.11))^(1/2)
p4812
asS'part1_correct_attempt'
p4813
(lp4814
S'0:00:00'
p4815
ag465
asg9
V2015-11-04 04:59:33
p4816
sS'part3_incorrect_attempt'
p4817
(lp4818
(S'2 days, 0:07:56'
p4819
V.000023
p4820
tp4821
a(S'2 days, 0:22:24'
p4822
V1/(((89/100)(303)(.11))^(1/2))
p4823
tp4824
assVaordookh
p4825
(dp4826
S'part3_correct_attempt'
p4827
(lp4828
S'0:41:19'
p4829
aVQ((290-(308*.89))/(308*.89*.11)^(1/2))
p4830
asS'part2_correct_attempt'
p4831
(lp4832
S'0:17:08'
p4833
aV(308*.89*.11)^(1/2)
p4834
asS'part1_correct_attempt'
p4835
(lp4836
S'0:00:00'
p4837
ag576
asg9
V2015-11-06 06:52:05
p4838
sS'part3_incorrect_attempt'
p4839
(lp4840
(S'0:17:50'
p4841
V(290-(290-(.89*18)))/(308*.89*.11)^(1/2)
p4842
tp4843
a(S'0:24:20'
p4844
V1-Phi(290)
p4845
tp4846
a(S'0:24:40'
p4847
VQ(290)
p4848
tp4849
a(S'0:26:26'
p4850
VQ((308*.89*.11)^(1/2))
p4851
tp4852
a(S'0:26:42'
p4853
V1-Phi((308*.89*.11)^(1/2))
p4854
tp4855
a(S'0:29:51'
p4856
V1-Phi((308-(308*.89))(308*.89*.11)^(1/2))
p4857
tp4858
a(S'0:30:14'
p4859
V1-Phi((308-(308*.89))/(308*.89*.11)^(1/2))
p4860
tp4861
a(S'0:37:01'
p4862
VQ(308-(308*.89)/(308*.89*.11)^(1/2))
p4863
tp4864
assVkquong
p4865
(dp4866
S'part3_correct_attempt'
p4867
(lp4868
S'1 day, 17:43:04'
p4869
aV Q((250 - 234.96) / (sqrt(264 * .89 * .11)))
p4870
asS'part2_correct_attempt'
p4871
(lp4872
S'0:05:35'
p4873
aVsqrt(264 * .89 * .11)
p4874
asS'part1_correct_attempt'
p4875
(lp4876
S'0:00:00'
p4877
aV264 * .89
p4878
asg9
V2015-11-04 23:56:32
p4879
sS'part3_incorrect_attempt'
p4880
(lp4881
(S'0:08:58'
p4882
V(264 - 234.96)/(sqrt(264 * .89 * .11))
p4883
tp4884
a(S'0:09:23'
p4885
V(250 - 234.96)/(sqrt(264 * .89 * .11))
p4886
tp4887
a(S'3:55:41'
p4888
VQ(sqrt(264 * .89 * .11))
p4889
tp4890
a(S'5:12:33'
p4891
VQ(sqrt(264 * .89 * .11))
p4892
tp4893
a(S'5:39:12'
p4894
V(250.5 - 234.96) / (sqrt(264 * .89 * .11))
p4895
tp4896
a(S'5:41:32'
p4897
V0.0011
p4898
tp4899
a(S'5:51:03'
p4900
V(250.5 - 234.96) / (sqrt(264 * .89 * .11))
p4901
tp4902
a(S'5:56:25'
p4903
V.0015
p4904
tp4905
a(S'6:18:44'
p4906
V (250.5 - 234.96) / (sqrt(265 * .89 * .11))
p4907
tp4908
a(S'8:25:12'
p4909
V 1-Q((250.5 - 234.96) / (sqrt(264 * .89 * .11)))
p4910
tp4911
a(S'8:25:25'
p4912
V 1-Q((251 - 234.96) / (sqrt(264 * .89 * .11)))
p4913
tp4914
a(S'8:27:45'
p4915
V 1-Q((250.5 - 234.96) / (sqrt(264 * .89 * .11)))
p4916
tp4917
a(S'8:48:19'
p4918
V 1 - Q((250 - 234.96) / (sqrt(264 * .89 * .11)))
p4919
tp4920
assVvasharma
p4921
(dp4922
S'part3_correct_attempt'
p4923
(lp4924
S'0:37:48'
p4925
aVQ((150-159*.80)/sqrt(159*.8(1-.8)) )
p4926
asS'part2_correct_attempt'
p4927
(lp4928
S'0:00:23'
p4929
aVsqrt(159*.8(1-.8))
p4930
asS'part1_correct_attempt'
p4931
(lp4932
S'0:00:00'
p4933
aV159*.80
p4934
asg9
V2015-11-05 22:56:17
p4935
sS'part3_incorrect_attempt'
p4936
(lp4937
(S'0:04:15'
p4938
V6.3048
p4939
tp4940
assVhpc001
p4941
(dp4942
S'part3_correct_attempt'
p4943
(lp4944
S'5 days, 22:16:37'
p4945
aVQ((320-296.65)/6.67064)
p4946
asS'part2_correct_attempt'
p4947
(lp4948
S'0:04:53'
p4949
aVsqrt(349*.85*.15)
p4950
asS'part1_correct_attempt'
p4951
(lp4952
S'0:00:00'
p4953
aV349*.85
p4954
asg9
V2015-11-01 01:21:31
p4955
sS'part3_incorrect_attempt'
p4956
(lp4957
(S'0:06:18'
p4958
V(320-296.65)/6.67064
p4959
tp4960
a(S'0:07:54'
p4961
V0.00023
p4962
tp4963
a(S'0:08:39'
p4964
V1/85
p4965
tp4966
assVxweng
p4967
(dp4968
S'part2_correct_attempt'
p4969
(lp4970
S'0:00:59'
p4971
aV4.7195
p4972
asS'part1_correct_attempt'
p4973
(lp4974
S'0:00:00'
p4975
aV185*0.86
p4976
asg9
V2015-11-06 01:16:42
p4977
sS'part3_incorrect_attempt'
p4978
(lp4979
(S'0:02:21'
p4980
V0.0004664
p4981
tp4982
a(S'3:35:16'
p4983
VC(120,1)*(1/1200)^1*(1199/1200)^119
p4984
tp4985
a(S'3:37:06'
p4986
V1-0.00494923037219612
p4987
tp4988
a(S'3:37:11'
p4989
V0.00494923037219612
p4990
tp4991
a(S'3:37:21'
p4992
V0.00997656868661001
p4993
tp4994
a(S'3:37:25'
p4995
V0.009976568686610010.00502733831441404
p4996
tp4997
a(S'3:37:29'
p4998
V0.00502733831441404
p4999
tp5000
a(S'3:37:34'
p5001
V0.00997656868661001
p5002
tp5003
a(S'3:37:44'
p5004
V1-0.00502733831441404
p5005
tp5006
a(S'3:37:56'
p5007
V1-0.00494923037219612
p5008
tp5009
a(S'3:40:33'
p5010
V0.00502733831441404
p5011
tp5012
a(S'3:41:11'
p5013
V0.005
p5014
tp5015
a(S'4:27:27'
p5016
V(185-159.1)/4.7195
p5017
tp5018
a(S'4:29:15'
p5019
V(185-159.1)4.7195
p5020
tp5021
a(S'4:33:56'
p5022
V0.00503
p5023
tp5024
a(S'4:34:27'
p5025
V0.004949
p5026
tp5027
a(S'4:34:56'
p5028
V0.002666878
p5029
tp5030
a(S'4:37:18'
p5031
V1-0.86^185
p5032
tp5033
a(S'4:37:33'
p5034
V0.86^185
p5035
tp5036
a(S'4:38:55'
p5037
V0.000001
p5038
tp5039
a(S'4:39:08'
p5040
V0.00502733831441404
p5041
tp5042
a(S'4:39:13'
p5043
V1-0.00502733831441404
p5044
tp5045
a(S'4:40:52'
p5046
V1-0.99497266
p5047
tp5048
a(S'5:04:56'
p5049
V0.00502734
p5050
tp5051
a(S'5:05:13'
p5052
V4.7195/185*0.86
p5053
tp5054
a(S'5:05:24'
p5055
V4.7195/159.1
p5056
tp5057
assVamquinte
p5058
(dp5059
S'part2_correct_attempt'
p5060
(lp5061
S'0:04:05'
p5062
aV6.61
p5063
asS'part1_correct_attempt'
p5064
(lp5065
S'0:00:00'
p5066
aV218.4
p5067
asg9
V2015-11-05 06:46:40
p5068
sS'part3_incorrect_attempt'
p5069
(lp5070
(S'0:05:46'
p5071
V2.013E-4
p5072
tp5073
a(S'1 day, 16:19:00'
p5074
V3.142E-4
p5075
tp5076
a(S'1 day, 16:19:47'
p5077
V2.013E-4
p5078
tp5079
a(S'1 day, 17:21:59'
p5080
V3.14237E-4
p5081
tp5082
a(S'1 day, 17:31:50'
p5083
V.99966
p5084
tp5085
a(S'1 day, 17:36:01'
p5086
V5.420E-4
p5087
tp5088
a(S'1 day, 17:38:04'
p5089
V4.834E-4
p5090
tp5091
a(S'1 day, 17:42:15'
p5092
V3.369E-4
p5093
tp5094
assVyypan
p5095
(dp5096
S'part3_correct_attempt'
p5097
(lp5098
S'2 days, 5:02:56'
p5099
aV1-[0.5+0.5*erf(((360-390*0.85)/sqrt((390*0.85)*(390*0.15)/390))/sqrt(2))]
p5100
asS'part2_correct_attempt'
p5101
(lp5102
S'0:18:36'
p5103
aVsqrt((390*0.85)*(390*0.15)/390)
p5104
asS'part1_correct_attempt'
p5105
(lp5106
S'0:00:00'
p5107
ag552
asg9
V2015-11-03 01:31:12
p5108
sS'part3_incorrect_attempt'
p5109
(lp5110
(S'0:27:02'
p5111
V1-[C(21,21)*0.85^390*0.15*0]
p5112
tp5113
a(S'0:29:12'
p5114
V1-[1*0.85^390*0.15*0]
p5115
tp5116
a(S'0:30:43'
p5117
V1-[1*0.85^390*0.15^0]
p5118
tp5119
a(S'0:31:01'
p5120
V[1*0.85^390*0.15^0]
p5121
tp5122
a(S'0:32:07'
p5123
V1-[1*0.85^360*0.15^0]
p5124
tp5125
a(S'0:36:02'
p5126
V1-[C(390,360)*0.85^360*0.15^30]
p5127
tp5128
assVmtrafeca
p5129
(dp5130
S'part2_correct_attempt'
p5131
(lp5132
S'0:02:24'
p5133
aVsqrt(.89*.11*223)
p5134
asS'part1_correct_attempt'
p5135
(lp5136
S'0:00:00'
p5137
ag615
asg9
V2015-11-05 21:44:19
p5138
sS'part3_incorrect_attempt'
p5139
(lp5140
(S'0:02:57'
p5141
V210/223
p5142
tp5143
a(S'0:03:12'
p5144
V1-(210/223)
p5145
tp5146
assVkosung
p5147
(dp5148
S'part3_correct_attempt'
p5149
(lp5150
S'4:47:12'
p5151
aVQ((340-327.52)/6.0023)
p5152
asS'part2_correct_attempt'
p5153
(lp5154
S'0:01:06'
p5155
aV(368*0.89*0.11)^(1/2)
p5156
asS'part1_correct_attempt'
p5157
(lp5158
S'0:00:00'
p5159
aV368*0.89
p5160
asg9
V2015-11-05 20:53:32
p5161
sS'part3_incorrect_attempt'
p5162
(lp5163
(S'0:25:28'
p5164
V7.9*e^-7
p5165
tp5166
a(S'0:26:48'
p5167
V5.2*e^-12
p5168
tp5169
a(S'0:28:59'
p5170
VQ((368-327.52)/6.0023)
p5171
tp5172
assVj2phung
p5173
(dp5174
S'part3_correct_attempt'
p5175
(lp5176
S'1:14:08'
p5177
aV1-Phi((300-(.86 * 330))/((330*(1-.86)*(.86))^(1/2)))
p5178
asS'part2_correct_attempt'
p5179
(lp5180
S'0:44:21'
p5181
aV(330*(1-.86)*(.86))^(1/2)
p5182
asS'part1_correct_attempt'
p5183
(lp5184
S'0:00:00'
p5185
ag630
asg9
V2015-11-05 18:52:28
p5186
sS'part3_incorrect_attempt'
p5187
(lp5188
(S'0:47:43'
p5189
V(330-(.86 * 330))/((330*(1-.86)*(.86))^(1/2))
p5190
tp5191
a(S'1:03:47'
p5192
V(330.5-(.86 * 330))/((330*(1-.86)*(.86))^(1/2))
p5193
tp5194
a(S'1:09:33'
p5195
V1-Phi((330.5-(.86 * 330))/((330*(1-.86)*(.86))^(1/2)))
p5196
tp5197
a(S'1:10:40'
p5198
V1-Phi((330-(.86 * 330))/((330*(1-.86)*(.86))^(1/2)))
p5199
tp5200
a(S'1:11:04'
p5201
V1-Phi((331-(.86 * 330))/((330*(1-.86)*(.86))^(1/2)))
p5202
tp5203
asssV2
p5204
(dp5205
Vgthorn
p5206
(dp5207
S'part2_correct_attempt'
p5208
(lp5209
S'10:52:45'
p5210
aVsqrt(.85 * .15 * 178)
p5211
asS'part1_correct_attempt'
p5212
(lp5213
S'0:00:00'
p5214
aV178 * .85
p5215
asg9
V2015-11-05 07:20:09
p5216
sS'part2_incorrect_attempt'
p5217
(lp5218
(S'0:01:37'
p5219
Vsqrt((178-151.3)^2 * .85)
p5220
tp5221
assVapokhare
p5222
(dp5223
S'part2_correct_attempt'
p5224
(lp5225
S'0:02:17'
p5226
aVsqrt(1.66*81*.19)
p5227
asS'part1_correct_attempt'
p5228
(lp5229
S'0:00:00'
p5230
aV1.66*81
p5231
asg9
V2015-11-05 22:19:38
p5232
sS'part2_incorrect_attempt'
p5233
(lp5234
(S'0:00:00'
p5235
V1.66*81*.19
p5236
tp5237
assValakamsa
p5238
(dp5239
S'part2_correct_attempt'
p5240
(lp5241
S'1 day, 23:14:30'
p5242
aVsqrt(.8*.2*255)
p5243
asS'part1_correct_attempt'
p5244
(lp5245
S'0:00:00'
p5246
aV.8*255
p5247
asg9
V2015-11-02 19:38:11
p5248
sS'part2_incorrect_attempt'
p5249
(lp5250
(S'0:01:33'
p5251
V51^2
p5252
tp5253
assVnhn018
p5254
(dp5255
S'part2_correct_attempt'
p5256
(lp5257
S'0:22:21'
p5258
aVsqrt(.89*213*(1-.89))
p5259
asS'part1_correct_attempt'
p5260
(lp5261
S'0:00:00'
p5262
aV213*.89
p5263
asg9
V2015-11-05 05:43:40
p5264
sS'part2_incorrect_attempt'
p5265
(lp5266
(S'0:00:44'
p5267
V(213-189.57)/2
p5268
tp5269
a(S'0:00:55'
p5270
V(213-190)/2
p5271
tp5272
assVjyc018
p5273
(dp5274
S'part2_correct_attempt'
p5275
(lp5276
S'0:01:05'
p5277
ag2737
asS'part1_correct_attempt'
p5278
(lp5279
S'0:00:00'
p5280
ag2741
asg9
g2742
sS'part2_incorrect_attempt'
p5281
(lp5282
(S'0:00:16'
p5283
V6.49
p5284
tp5285
assVr9jiang
p5286
(dp5287
S'part2_correct_attempt'
p5288
(lp5289
S'3 days, 1:35:09'
p5290
aV((0.82-(0.82^2))*263)^(1/2)
p5291
asS'part1_correct_attempt'
p5292
(lp5293
S'0:00:00'
p5294
aV263*0.82
p5295
asg9
V2015-11-02 04:16:09
p5296
sS'part2_incorrect_attempt'
p5297
(lp5298
(S'0:01:52'
p5299
V(0.82*(263-215.66)^2)^(1/2)
p5300
tp5301
a(S'3 days, 1:34:02'
p5302
V0.1476*263
p5303
tp5304
a(S'3 days, 1:34:50'
p5305
V(0.82-(0.82^2))*263
p5306
tp5307
assVrlhagen
p5308
(dp5309
S'part2_correct_attempt'
p5310
(lp5311
S'0:05:03'
p5312
ag937
asS'part1_correct_attempt'
p5313
(lp5314
S'0:00:00'
p5315
ag303
asg9
g941
sS'part2_incorrect_attempt'
p5316
(lp5317
(S'0:00:18'
p5318
Vsqrt((1/12)(285)^2)
p5319
tp5320
a(S'0:00:49'
p5321
Vsqrt((1/12)(285-260)^2)
p5322
tp5323
a(S'0:01:08'
p5324
Vsqrt((1/12)(0.83*285)^2)
p5325
tp5326
assVdgunawan
p5327
(dp5328
S'part2_correct_attempt'
p5329
(lp5330
S'14:51:47'
p5331
ag1207
asS'part1_correct_attempt'
p5332
(lp5333
S'0:00:00'
p5334
ag1211
asg9
g1212
sS'part2_incorrect_attempt'
p5335
(lp5336
(S'0:01:20'
p5337
V(((.89)*(256))^2)^(1/2)
p5338
tp5339
a(S'0:01:50'
p5340
V((250-[(.89)*(256)])^2)^(1/2)
p5341
tp5342
a(S'0:02:18'
p5343
V(([(.89)*(256)]-250)^2)^(1/2)
p5344
tp5345
a(S'0:02:25'
p5346
V(([(.89)*(256)]-256)^2)^(1/2)
p5347
tp5348
a(S'0:03:07'
p5349
V(([(.89)*(256)]-256)^2/2)^(1/2)
p5350
tp5351
a(S'0:38:47'
p5352
V((256-[(.89)*(256)])^2/2)^(1/2)
p5353
tp5354
assVtcn013
p5355
(dp5356
S'part2_correct_attempt'
p5357
(lp5358
S'0:07:55'
p5359
aVsqrt(.81*.19*242)
p5360
asS'part1_correct_attempt'
p5361
(lp5362
S'0:00:00'
p5363
aV242*.81
p5364
asg9
V2015-11-05 21:07:21
p5365
sS'part2_incorrect_attempt'
p5366
(lp5367
(S'0:02:56'
p5368
Vsqrt(.81*.09*242)
p5369
tp5370
assVtstevens
p5371
(dp5372
S'part2_correct_attempt'
p5373
(lp5374
S'0:02:46'
p5375
ag1265
asS'part1_correct_attempt'
p5376
(lp5377
S'0:00:00'
p5378
ag1269
asg9
g1270
sS'part2_incorrect_attempt'
p5379
(lp5380
(S'0:01:48'
p5381
V0.240874033
p5382
tp5383
assVl8ngo
p5384
(dp5385
S'part2_correct_attempt'
p5386
(lp5387
S'6 days, 7:11:52'
p5388
aVsqrt[381*0.84*0.16]
p5389
asS'part1_correct_attempt'
p5390
(lp5391
S'0:00:00'
p5392
ag369
asg9
V2015-10-30 16:44:40
p5393
sS'part2_incorrect_attempt'
p5394
(lp5395
(S'0:07:30'
p5396
Vsqrt([381^2]*0.84-381*0.84)
p5397
tp5398
assVdjk006
p5399
(dp5400
S'part2_correct_attempt'
p5401
(lp5402
S'0:00:12'
p5403
ag1308
asS'part1_correct_attempt'
p5404
(lp5405
S'0:00:00'
p5406
ag1312
asg9
g1313
sS'part2_incorrect_attempt'
p5407
(lp5408
(S'0:00:00'
p5409
V298(.88)(.12)^(1/2)
p5410
tp5411
assVdsriniva
p5412
(dp5413
S'part2_correct_attempt'
p5414
(lp5415
S'2:39:01'
p5416
ag1354
asS'part1_correct_attempt'
p5417
(lp5418
S'0:00:00'
p5419
ag405
asg9
g1358
sS'part2_incorrect_attempt'
p5420
(lp5421
(S'2:37:20'
p5422
V1/sqrt(320)*(.86*32)
p5423
tp5424
a(S'2:37:48'
p5425
V1/sqrt(320)*(.86*320)
p5426
tp5427
a(S'2:38:06'
p5428
V275.2/sqrt(320)
p5429
tp5430
assVchc286
p5431
(dp5432
S'part1_correct_attempt'
p5433
(lp5434
S'0:00:00'
p5435
aV194*0.83
p5436
asg9
V2015-11-01 02:05:21
p5437
sS'part2_incorrect_attempt'
p5438
(lp5439
(S'0:04:53'
p5440
Vsqrt(194*0.83)
p5441
tp5442
assVsayao
p5443
(dp5444
S'part2_correct_attempt'
p5445
(lp5446
S'1 day, 2:02:44'
p5447
ag1426
asS'part1_correct_attempt'
p5448
(lp5449
S'0:00:00'
p5450
ag1430
asg9
g1431
sS'part2_incorrect_attempt'
p5451
(lp5452
(S'0:00:18'
p5453
V182-151.06
p5454
tp5455
assVanvan
p5456
(dp5457
S'part2_correct_attempt'
p5458
(lp5459
S'23:26:00'
p5460
ag1554
asS'part1_correct_attempt'
p5461
(lp5462
S'0:00:00'
p5463
ag1558
asg9
g1559
sS'part2_incorrect_attempt'
p5464
(lp5465
(S'3:17:50'
p5466
V(345 - 307.05)
p5467
tp5468
assVflhernan
p5469
(dp5470
S'part2_correct_attempt'
p5471
(lp5472
S'9:10:30'
p5473
ag1598
asS'part1_correct_attempt'
p5474
(lp5475
S'0:00:00'
p5476
ag453
asg9
g1602
sS'part2_incorrect_attempt'
p5477
(lp5478
(S'0:00:00'
p5479
Vsqrt(132.84)
p5480
tp5481
a(S'0:00:37'
p5482
Vsqrt(150/132.84)
p5483
tp5484
a(S'0:00:46'
p5485
Vsqrt(162/132.84)
p5486
tp5487
a(S'0:00:54'
p5488
Vsqrt(162-132.84)
p5489
tp5490
a(S'0:15:43'
p5491
V24.26790473
p5492
tp5493
a(S'0:20:20'
p5494
V54.4
p5495
tp5496
a(S'0:22:27'
p5497
V18.4688
p5498
tp5499
a(S'0:25:04'
p5500
V18.6624
p5501
tp5502
a(S'0:27:00'
p5503
V19.44
p5504
tp5505
a(S'0:31:02'
p5506
V19.116
p5507
tp5508
assVc1wei
p5509
(dp5510
S'part2_correct_attempt'
p5511
(lp5512
S'0:10:15'
p5513
aVsqrt(237.38*.17)
p5514
asS'part1_correct_attempt'
p5515
(lp5516
S'0:00:00'
p5517
aV.83*286
p5518
asg9
V2015-11-05 05:17:04
p5519
sS'part2_incorrect_attempt'
p5520
(lp5521
(S'0:00:10'
p5522
V286-237.38
p5523
tp5524
a(S'0:00:34'
p5525
Vsqrt(.83*286)
p5526
tp5527
a(S'0:00:40'
p5528
Vsqrt(.83*250)
p5529
tp5530
a(S'0:00:49'
p5531
Vsqrt(.83*.83*286)
p5532
tp5533
a(S'0:00:53'
p5534
Vsqrt(.83*286)
p5535
tp5536
a(S'0:01:47'
p5537
Vsqrt(.83*237.38)
p5538
tp5539
a(S'0:01:52'
p5540
Vsqrt(.83*237)
p5541
tp5542
a(S'0:04:22'
p5543
Vsqrt(237.38)
p5544
tp5545
a(S'0:04:57'
p5546
Vsqrt(250-237.38)
p5547
tp5548
a(S'0:05:03'
p5549
Vsqrt(286-237.38)
p5550
tp5551
a(S'0:05:11'
p5552
Vsqrt(286-250)
p5553
tp5554
a(S'0:05:33'
p5555
V286-237.38
p5556
tp5557
a(S'0:05:39'
p5558
V250-237.38
p5559
tp5560
a(S'0:05:58'
p5561
Vsqrt(250-237.38)
p5562
tp5563
a(S'0:06:05'
p5564
Vsqrt(286-237.38)
p5565
tp5566
a(S'0:07:13'
p5567
Vsqrt((1/12)*286)
p5568
tp5569
a(S'0:07:22'
p5570
Vsqrt((1/12)*250)
p5571
tp5572
assVmitopete
p5573
(dp5574
S'part2_correct_attempt'
p5575
(lp5576
S'0:25:08'
p5577
aV(241*0.84*(1-0.84))^(1/2)
p5578
asS'part1_correct_attempt'
p5579
(lp5580
S'0:00:00'
p5581
ag144
asg9
V2015-11-07 00:21:21
p5582
sS'part2_incorrect_attempt'
p5583
(lp5584
(S'0:03:16'
p5585
V(1/4*241)^(1/2)
p5586
tp5587
a(S'0:04:33'
p5588
V((1/4)*(0.84(241)))^(1/2)
p5589
tp5590
a(S'0:06:44'
p5591
V(0.25*241)^(1/2)
p5592
tp5593
a(S'0:07:07'
p5594
V(0.25*220)^(1/2)
p5595
tp5596
a(S'0:08:51'
p5597
V(0.25*241)^(1/2)
p5598
tp5599
a(S'0:14:07'
p5600
V(0.25*220)^(1/2)
p5601
tp5602
a(S'0:14:13'
p5603
V(0.25*241)^(1/2)
p5604
tp5605
a(S'0:14:50'
p5606
V(0.25*0.84(241))^(1/2)
p5607
tp5608
a(S'0:16:59'
p5609
V(0.25*0.84(220))^(1/2)
p5610
tp5611
assVakg009
p5612
(dp5613
S'part2_correct_attempt'
p5614
(lp5615
S'3:19:16'
p5616
aVsqrt(.16*.84*382)
p5617
asS'part1_correct_attempt'
p5618
(lp5619
S'0:00:00'
p5620
aV320.88
p5621
asg9
V2015-11-06 18:46:09
p5622
sS'part2_incorrect_attempt'
p5623
(lp5624
(S'0:03:42'
p5625
V0.018757
p5626
tp5627
a(S'0:04:22'
p5628
V0.02046578
p5629
tp5630
a(S'0:06:16'
p5631
V.019882
p5632
tp5633
assVjit002
p5634
(dp5635
S'part2_correct_attempt'
p5636
(lp5637
S'0:05:36'
p5638
aV(337*0.87*(1-0.87))^0.5
p5639
asS'part1_correct_attempt'
p5640
(lp5641
S'0:00:00'
p5642
aV337*0.87
p5643
asg9
V2015-11-06 06:51:51
p5644
sS'part2_incorrect_attempt'
p5645
(lp5646
(S'0:04:52'
p5647
V337*0.85*(1-0.85)
p5648
tp5649
a(S'0:05:07'
p5650
V337*0.87*(1-0.87)
p5651
tp5652
assVb3hwang
p5653
(dp5654
S'part2_correct_attempt'
p5655
(lp5656
S'10:28:28'
p5657
ag1677
asS'part1_correct_attempt'
p5658
(lp5659
S'0:00:00'
p5660
ag1681
asg9
g1682
sS'part2_incorrect_attempt'
p5661
(lp5662
(S'0:04:32'
p5663
V(174-147.9)^2
p5664
tp5665
assVjag028
p5666
(dp5667
S'part2_correct_attempt'
p5668
(lp5669
S'0:01:06'
p5670
aVsqrt((1-.8)322*.8)
p5671
asS'part1_correct_attempt'
p5672
(lp5673
S'0:00:00'
p5674
aV322*.8
p5675
asg9
V2015-11-03 21:55:17
p5676
sS'part2_incorrect_attempt'
p5677
(lp5678
(S'0:00:41'
p5679
Vsqrt(322*.8)
p5680
tp5681
assVlguintu
p5682
(dp5683
S'part2_correct_attempt'
p5684
(lp5685
S'0:01:43'
p5686
ag3471
asS'part1_correct_attempt'
p5687
(lp5688
S'0:00:00'
p5689
ag3475
asg9
g3476
sS'part2_incorrect_attempt'
p5690
(lp5691
(S'0:00:26'
p5692
V244*.85*.15
p5693
tp5694
assVc1sorian
p5695
(dp5696
S'part2_correct_attempt'
p5697
(lp5698
S'1 day, 2:59:08'
p5699
ag1808
asS'part1_correct_attempt'
p5700
(lp5701
S'0:00:00'
p5702
ag1812
asg9
g1813
sS'part2_incorrect_attempt'
p5703
(lp5704
(S'0:06:10'
p5705
V((1324314/25)/387)^.5
p5706
tp5707
a(S'0:35:03'
p5708
V0.5
p5709
tp5710
a(S'0:35:08'
p5711
V0.05
p5712
tp5713
a(S'0:35:14'
p5714
V0.005
p5715
tp5716
assVatorr
p5717
(dp5718
S'part1_correct_attempt'
p5719
(lp5720
S'0:00:00'
p5721
ag564
asg9
g3572
sS'part2_incorrect_attempt'
p5722
(lp5723
(S'0:00:39'
p5724
V320.38
p5725
tp5726
a(S'0:01:16'
p5727
V320.38 ^ 0.5
p5728
tp5729
a(S'0:01:27'
p5730
V320.38^2
p5731
tp5732
a(S'0:01:56'
p5733
V(368 - 320.38)
p5734
tp5735
a(S'0:02:03'
p5736
V(368 - 320.38)^0.5
p5737
tp5738
a(S'0:02:09'
p5739
V(368 - 320.38)^2
p5740
tp5741
a(S'0:02:15'
p5742
V(368 - 320.38)^0.5
p5743
tp5744
a(S'0:04:51'
p5745
V((368 - 320.38)^2)^0.5
p5746
tp5747
assVcprafull
p5748
(dp5749
S'part2_correct_attempt'
p5750
(lp5751
S'17:59:41'
p5752
aVsqrt((207*.8) * (1-.8))
p5753
asS'part1_correct_attempt'
p5754
(lp5755
S'0:00:00'
p5756
aV207*.8
p5757
asg9
V2015-11-05 09:20:11
p5758
sS'part2_incorrect_attempt'
p5759
(lp5760
(S'0:00:46'
p5761
Vsqrt(165.6)
p5762
tp5763
a(S'0:08:38'
p5764
V180-165.6
p5765
tp5766
a(S'0:09:05'
p5767
V(180-165.6)^2
p5768
tp5769
a(S'0:10:13'
p5770
V(207-165.6)
p5771
tp5772
a(S'0:25:36'
p5773
V180-165.6
p5774
tp5775
a(S'0:25:47'
p5776
V(180-165.6)/180
p5777
tp5778
a(S'0:26:05'
p5779
V(180-165.6)/165.6
p5780
tp5781
a(S'0:26:14'
p5782
V207 - 165.6
p5783
tp5784
assVkrau
p5785
(dp5786
S'part2_correct_attempt'
p5787
(lp5788
S'7:40:32'
p5789
ag1938
asS'part1_correct_attempt'
p5790
(lp5791
S'0:00:00'
p5792
ag1942
asg9
g1943
sS'part2_incorrect_attempt'
p5793
(lp5794
(S'0:01:33'
p5795
V(327-.81*327)^2
p5796
tp5797
a(S'0:03:36'
p5798
V((327-.81*327)^2 + (327-290)^2) / 2
p5799
tp5800
a(S'0:05:41'
p5801
Vsqrt(((327-.81*327)^2 + (327-290)^2) / 2)
p5802
tp5803
a(S'0:06:05'
p5804
Vsqrt(((327-.81*327)^2 + (290-.81*327)^2) / 2)
p5805
tp5806
assVcrmirand
p5807
(dp5808
S'part2_correct_attempt'
p5809
(lp5810
S'0:01:41'
p5811
ag1958
asS'part1_correct_attempt'
p5812
(lp5813
S'0:00:00'
p5814
ag1962
asg9
g1963
sS'part2_incorrect_attempt'
p5815
(lp5816
(S'0:00:51'
p5817
V(.86*208*.86*.14)^1/2
p5818
tp5819
assVbeyounge
p5820
(dp5821
S'part2_correct_attempt'
p5822
(lp5823
S'0:20:40'
p5824
ag2050
asS'part1_correct_attempt'
p5825
(lp5826
S'0:00:00'
p5827
ag183
asg9
g2054
sS'part2_incorrect_attempt'
p5828
(lp5829
(S'0:03:55'
p5830
Vsqrt(0.86 * 356)
p5831
tp5832
a(S'0:07:53'
p5833
Vsqrt((330 ^ 2) - (0.86 * 356) ^ 2)
p5834
tp5835
a(S'0:08:18'
p5836
Vsqrt(330 - (0.86 * 356))
p5837
tp5838
assVjhw015
p5839
(dp5840
S'part2_correct_attempt'
p5841
(lp5842
S'0:02:47'
p5843
ag2265
asS'part1_correct_attempt'
p5844
(lp5845
S'0:00:00'
p5846
ag2269
asg9
g2270
sS'part2_incorrect_attempt'
p5847
(lp5848
(S'0:01:23'
p5849
V50.61
p5850
tp5851
a(S'0:01:56'
p5852
V50.6236110921
p5853
tp5854
assVt1tran
p5855
(dp5856
S'part2_correct_attempt'
p5857
(lp5858
S'0:01:30'
p5859
aVsqrt(177(83/100)(1-83/100))
p5860
asS'part1_correct_attempt'
p5861
(lp5862
S'0:00:00'
p5863
aV177(83/100)
p5864
asg9
V2015-11-04 01:18:46
p5865
sS'part2_incorrect_attempt'
p5866
(lp5867
(S'0:00:00'
p5868
V177(83/100)(1-83/100)
p5869
tp5870
a(S'0:00:32'
p5871
V160(83/100)(1-83/100)
p5872
tp5873
assVdsmonaha
p5874
(dp5875
S'part1_correct_attempt'
p5876
(lp5877
S'0:00:00'
p5878
ag2301
asg9
g2302
sS'part2_incorrect_attempt'
p5879
(lp5880
(S'0:06:53'
p5881
V41.5
p5882
tp5883
a(S'0:08:17'
p5884
V43.32
p5885
tp5886
a(S'2 days, 2:59:56'
p5887
V43.32
p5888
tp5889
a(S'2 days, 3:05:20'
p5890
V1876.62
p5891
tp5892
a(S'2 days, 3:06:49'
p5893
V45.0378
p5894
tp5895
assVkrkelkar
p5896
(dp5897
S'part2_correct_attempt'
p5898
(lp5899
S'0:00:31'
p5900
ag2312
asS'part1_correct_attempt'
p5901
(lp5902
S'0:00:00'
p5903
ag2316
asg9
g2317
sS'part2_incorrect_attempt'
p5904
(lp5905
(S'0:00:00'
p5906
V209 * .86 * (1-.86)
p5907
tp5908
assVggaddi
p5909
(dp5910
S'part2_correct_attempt'
p5911
(lp5912
S'12:15:32'
p5913
aV(sqrt((4/25)*266))
p5914
asS'part1_correct_attempt'
p5915
(lp5916
S'0:00:00'
p5917
aV0.8*266
p5918
asg9
V2015-11-05 05:47:26
p5919
sS'part2_incorrect_attempt'
p5920
(lp5921
(S'12:15:01'
p5922
V(266-(0.8*266))/(sqrt((4/25)*266))
p5923
tp5924
assVjtfrankl
p5925
(dp5926
S'part1_correct_attempt'
p5927
(lp5928
S'0:00:00'
p5929
aV.8*370
p5930
asg9
V2015-11-06 19:14:23
p5931
sS'part2_incorrect_attempt'
p5932
(lp5933
(S'0:02:45'
p5934
V50**.5
p5935
tp5936
a(S'0:03:52'
p5937
Vsqrt(.8*370**2-50**2)
p5938
tp5939
assVcstringh
p5940
(dp5941
S'part2_correct_attempt'
p5942
(lp5943
S'0:02:15'
p5944
aVsqrt (392 * .89 * (1 - .89))
p5945
asS'part1_correct_attempt'
p5946
(lp5947
S'0:00:00'
p5948
ag477
asg9
V2015-11-04 07:34:15
p5949
sS'part2_incorrect_attempt'
p5950
(lp5951
(S'0:00:25'
p5952
Vsqrt(392 * .89)
p5953
tp5954
assVv4sharma
p5955
(dp5956
S'part2_correct_attempt'
p5957
(lp5958
S'22:48:52'
p5959
aVsqrt((262)(.80)(.20))
p5960
asS'part1_correct_attempt'
p5961
(lp5962
S'0:00:00'
p5963
aV209.6
p5964
asg9
V2015-11-05 23:44:05
p5965
sS'part2_incorrect_attempt'
p5966
(lp5967
(S'0:01:52'
p5968
V(262)(0.8)(0.2)
p5969
tp5970
a(S'0:02:00'
p5971
V(230)(0.8)(0.2)
p5972
tp5973
assVyjshin
p5974
(dp5975
S'part1_correct_attempt'
p5976
(lp5977
S'0:00:00'
p5978
ag8
asg9
V2015-11-06 23:35:28
p5979
sS'part2_incorrect_attempt'
p5980
(lp5981
(S'0:01:31'
p5982
Vsqrt(314.5)
p5983
tp5984
a(S'0:02:41'
p5985
Vsqrt(314.5^2)
p5986
tp5987
a(S'0:11:59'
p5988
Vsqrt(314.5^2)
p5989
tp5990
a(S'0:14:24'
p5991
Vsqrt((1-314.5)^2)
p5992
tp5993
a(S'0:20:39'
p5994
V2^2(314.5)+2^2*314.5
p5995
tp5996
a(S'0:20:59'
p5997
Vsqrt(2^2(314.5)+2^2*314.5)
p5998
tp5999
assVdcastlem
p6000
(dp6001
S'part2_correct_attempt'
p6002
(lp6003
S'0:01:34'
p6004
ag2547
asS'part1_correct_attempt'
p6005
(lp6006
S'0:00:00'
p6007
ag2551
asg9
g2552
sS'part2_incorrect_attempt'
p6008
(lp6009
(S'0:01:22'
p6010
Vsqrt(.8*.2*160)
p6011
tp6012
assVzhz159
p6013
(dp6014
S'part2_correct_attempt'
p6015
(lp6016
S'0:27:24'
p6017
ag2666
asS'part1_correct_attempt'
p6018
(lp6019
S'0:00:00'
p6020
ag2670
asg9
g2671
sS'part2_incorrect_attempt'
p6021
(lp6022
(S'0:00:00'
p6023
V58.0068
p6024
tp6025
assVwmiao
p6026
(dp6027
S'part2_correct_attempt'
p6028
(lp6029
S'0:00:29'
p6030
aV(166*0.86*0.14)^0.5
p6031
asS'part1_correct_attempt'
p6032
(lp6033
S'0:00:00'
p6034
aV166*0.86
p6035
asg9
V2015-11-06 17:12:50
p6036
sS'part2_incorrect_attempt'
p6037
(lp6038
(S'0:00:00'
p6039
V(166*0.86)^0.5
p6040
tp6041
assVlywong
p6042
(dp6043
S'part2_correct_attempt'
p6044
(lp6045
S'3 days, 18:56:59'
p6046
ag2783
asS'part1_correct_attempt'
p6047
(lp6048
S'0:00:00'
p6049
ag2787
asg9
g2788
sS'part2_incorrect_attempt'
p6050
(lp6051
(S'0:01:02'
p6052
V30.49044
p6053
tp6054
a(S'3 days, 18:26:30'
p6055
V43.12
p6056
tp6057
a(S'3 days, 18:27:45'
p6058
V(1713.7472)^(1/2)
p6059
tp6060
a(S'3 days, 18:27:53'
p6061
Vsqrt(1)
p6062
tp6063
assVjix029
p6064
(dp6065
S'part2_correct_attempt'
p6066
(lp6067
S'0:03:29'
p6068
ag2815
asS'part1_correct_attempt'
p6069
(lp6070
S'0:00:00'
p6071
ag2819
asg9
g2820
sS'part2_incorrect_attempt'
p6072
(lp6073
(S'0:02:46'
p6074
V162*.81(1-.81)
p6075
tp6076
assVabasu
p6077
(dp6078
S'part2_correct_attempt'
p6079
(lp6080
S'0:04:38'
p6081
ag1376
asS'part1_correct_attempt'
p6082
(lp6083
S'0:00:00'
p6084
ag1380
asg9
g1381
sS'part2_incorrect_attempt'
p6085
(lp6086
(S'0:01:12'
p6087
V317*0.83*0.17
p6088
tp6089
a(S'0:01:30'
p6090
V263.11*0.83*0.83*0.17
p6091
tp6092
assVacvuong
p6093
(dp6094
S'part2_correct_attempt'
p6095
(lp6096
S'0:00:12'
p6097
aV(.86*195*.14)^0.5
p6098
asS'part1_correct_attempt'
p6099
(lp6100
S'0:00:00'
p6101
aV0.86*195
p6102
asg9
V2015-11-05 01:20:45
p6103
sS'part2_incorrect_attempt'
p6104
(lp6105
(S'0:00:00'
p6106
V.86*195*.14
p6107
tp6108
assVthk002
p6109
(dp6110
S'part2_correct_attempt'
p6111
(lp6112
S'0:00:29'
p6113
ag2995
asS'part1_correct_attempt'
p6114
(lp6115
S'0:00:00'
p6116
ag132
asg9
g2999
sS'part2_incorrect_attempt'
p6117
(lp6118
(S'0:00:13'
p6119
Vsqrt(174*.82)
p6120
tp6121
assVt2li
p6122
(dp6123
S'part2_correct_attempt'
p6124
(lp6125
S'0:05:10'
p6126
aVsqrt(0.83*0.17*217)
p6127
asS'part1_correct_attempt'
p6128
(lp6129
S'0:00:00'
p6130
aV217 * 0.83
p6131
asg9
V2015-11-06 03:22:11
p6132
sS'part2_incorrect_attempt'
p6133
(lp6134
(S'0:01:48'
p6135
Vsqrt(0.83*0.17/217)
p6136
tp6137
assVksmurlo
p6138
(dp6139
S'part2_correct_attempt'
p6140
(lp6141
S'8:15:58'
p6142
aVsqrt(370*.83*.17)
p6143
asS'part1_correct_attempt'
p6144
(lp6145
S'0:00:00'
p6146
aV370*.83
p6147
asg9
V2015-11-05 07:02:28
p6148
sS'part2_incorrect_attempt'
p6149
(lp6150
(S'8:15:09'
p6151
V370*.83*.17
p6152
tp6153
assVttimmons
p6154
(dp6155
S'part2_correct_attempt'
p6156
(lp6157
S'0:04:45'
p6158
ag3128
asS'part1_correct_attempt'
p6159
(lp6160
S'0:00:00'
p6161
ag3132
asg9
g3133
sS'part2_incorrect_attempt'
p6162
(lp6163
(S'0:00:26'
p6164
Vsqrt(165^2*0.87-[165*0.87]^2)
p6165
tp6166
a(S'0:04:38'
p6167
V165*(0.87)*(1-0.87)
p6168
tp6169
assVjeqin
p6170
(dp6171
S'part2_correct_attempt'
p6172
(lp6173
S'0:15:58'
p6174
aVsqrt(0.88*320*(1-0.88))
p6175
asS'part1_correct_attempt'
p6176
(lp6177
S'0:00:00'
p6178
aV.88*320
p6179
asg9
V2015-11-05 10:41:04
p6180
sS'part2_incorrect_attempt'
p6181
(lp6182
(S'0:14:06'
p6183
Vsqrt((320^2)*0.88 - (0.88*320)^2)
p6184
tp6185
assVjblynch
p6186
(dp6187
S'part2_correct_attempt'
p6188
(lp6189
S'9:47:31'
p6190
ag3254
asS'part1_correct_attempt'
p6191
(lp6192
S'0:00:00'
p6193
ag3258
asg9
g3259
sS'part2_incorrect_attempt'
p6194
(lp6195
(S'0:01:26'
p6196
V260 - (.87*276)
p6197
tp6198
a(S'0:01:43'
p6199
V276 - (.87*276)
p6200
tp6201
a(S'0:02:16'
p6202
V.87(260 - (.87*276))
p6203
tp6204
a(S'0:04:35'
p6205
V(260 - (.87*276))^2
p6206
tp6207
a(S'9:18:54'
p6208
Vsqrt(.87*260*13)
p6209
tp6210
a(S'9:23:12'
p6211
V276/4
p6212
tp6213
a(S'9:36:03'
p6214
Vsqrt(.87*(267-240.12)^2)
p6215
tp6216
a(S'9:36:24'
p6217
V.87*(267-240.12)
p6218
tp6219
a(S'9:36:32'
p6220
V.87*(267-240.12)^2
p6221
tp6222
assVganajera
p6223
(dp6224
S'part2_correct_attempt'
p6225
(lp6226
S'5 days, 5:20:32'
p6227
aVsqrt(.89*.11*175)
p6228
asS'part1_correct_attempt'
p6229
(lp6230
S'0:00:00'
p6231
aV175*.89
p6232
asg9
V2015-11-01 00:09:59
p6233
sS'part2_incorrect_attempt'
p6234
(lp6235
(S'0:03:54'
p6236
Vsqrt(2998.1875)
p6237
tp6238
assVtol003
p6239
(dp6240
S'part2_correct_attempt'
p6241
(lp6242
S'0:03:55'
p6243
ag3340
asS'part1_correct_attempt'
p6244
(lp6245
S'0:00:00'
p6246
ag3344
asg9
g3345
sS'part2_incorrect_attempt'
p6247
(lp6248
(S'0:02:48'
p6249
V4.946479
p6250
tp6251
assVhachrist
p6252
(dp6253
S'part2_correct_attempt'
p6254
(lp6255
S'14:41:46'
p6256
aVsqrt(0.82(1-0.82)*367)
p6257
asS'part1_correct_attempt'
p6258
(lp6259
S'0:00:00'
p6260
aV0.82 * 367
p6261
asg9
V2015-11-05 07:56:14
p6262
sS'part2_incorrect_attempt'
p6263
(lp6264
(S'0:08:54'
p6265
Vsqrt((367-300.94)^2 + (320-300.94)^2)/2
p6266
tp6267
a(S'0:09:13'
p6268
Vsqrt(((367-300.94)^2 + (320-300.94)^2)/2)
p6269
tp6270
a(S'13:16:36'
p6271
Vsqrt((320-300.94)^2 + (367-300.94)^2)
p6272
tp6273
a(S'13:18:07'
p6274
Vsqrt((320-300.94)^2)
p6275
tp6276
a(S'14:41:21'
p6277
Vsqrt(0.82(1-0.82)*320)
p6278
tp6279
assVyeh013
p6280
(dp6281
S'part2_correct_attempt'
p6282
(lp6283
S'0:58:54'
p6284
aV(347*81/100*19/100)^(1/2)
p6285
asS'part1_correct_attempt'
p6286
(lp6287
S'0:00:00'
p6288
aV347*81/100
p6289
asg9
V2015-11-05 06:21:17
p6290
sS'part2_incorrect_attempt'
p6291
(lp6292
(S'0:43:41'
p6293
V300-281.7
p6294
tp6295
a(S'0:44:05'
p6296
V300*81/100
p6297
tp6298
a(S'0:44:19'
p6299
V(300*81/100)^(1/2)
p6300
tp6301
assVarvenega
p6302
(dp6303
S'part2_correct_attempt'
p6304
(lp6305
S'0:00:56'
p6306
aV((202*.8)*(1-.8))^(1/2)
p6307
asS'part1_correct_attempt'
p6308
(lp6309
S'0:00:00'
p6310
aV202*.8
p6311
asg9
V2015-11-06 23:42:59
p6312
sS'part2_incorrect_attempt'
p6313
(lp6314
(S'0:00:00'
p6315
V((202*.8)*(1-.8))6(1/2)
p6316
tp6317
assVcsl030
p6318
(dp6319
S'part2_correct_attempt'
p6320
(lp6321
S'0:07:25'
p6322
ag3491
asS'part1_correct_attempt'
p6323
(lp6324
S'0:00:00'
p6325
ag3495
asg9
g3496
sS'part2_incorrect_attempt'
p6326
(lp6327
(S'0:00:23'
p6328
V(347 - 277.6)^2
p6329
tp6330
a(S'0:00:44'
p6331
V347 - 277.6
p6332
tp6333
a(S'0:02:47'
p6334
Vsqrt((300 - 277.6)^2)
p6335
tp6336
assVvolim
p6337
(dp6338
S'part2_correct_attempt'
p6339
(lp6340
S'0:23:08'
p6341
ag3549
asS'part1_correct_attempt'
p6342
(lp6343
S'0:00:00'
p6344
ag537
asg9
g3553
sS'part2_incorrect_attempt'
p6345
(lp6346
(S'0:00:35'
p6347
V(.25*317)^(1/2)
p6348
tp6349
a(S'0:01:47'
p6350
V(.84)^(1/2)
p6351
tp6352
a(S'0:02:03'
p6353
V(.25)^(1/2)
p6354
tp6355
a(S'0:02:15'
p6356
V(.25*317)^(1/2)
p6357
tp6358
a(S'0:03:41'
p6359
V317-((317)*.84)
p6360
tp6361
a(S'0:05:48'
p6362
V(317)*.84
p6363
tp6364
a(S'0:06:00'
p6365
V290-((317)*.84)
p6366
tp6367
a(S'0:10:41'
p6368
V(.25)^(1/2)
p6369
tp6370
a(S'0:10:50'
p6371
V(.5)
p6372
tp6373
assVcagatep
p6374
(dp6375
S'part2_correct_attempt'
p6376
(lp6377
S'1 day, 11:58:15'
p6378
aVsqrt(249 * .86 * .14)
p6379
asS'part1_correct_attempt'
p6380
(lp6381
S'0:00:00'
p6382
aV249 * .86
p6383
asg9
V2015-11-05 07:56:02
p6384
sS'part2_incorrect_attempt'
p6385
(lp6386
(S'0:06:43'
p6387
V230-214.14
p6388
tp6389
a(S'1 day, 11:58:04'
p6390
V249 * .86 * .14
p6391
tp6392
assVytc012
p6393
(dp6394
S'part2_correct_attempt'
p6395
(lp6396
S'0:52:08'
p6397
aVsqrt(0.85(1-0.85)369)
p6398
asS'part1_correct_attempt'
p6399
(lp6400
S'0:00:00'
p6401
ag603
asg9
V2015-11-05 22:08:55
p6402
sS'part2_incorrect_attempt'
p6403
(lp6404
(S'0:00:56'
p6405
Vsqrt(((369-313.65)^2 + (340-313.65)^2)/2)
p6406
tp6407
a(S'0:02:02'
p6408
Vsqrt(((369-0.85*369)^2 + (340-0.85*369)^2)/2)
p6409
tp6410
assVkquong
p6411
(dp6412
S'part2_correct_attempt'
p6413
(lp6414
S'0:05:35'
p6415
ag4874
asS'part1_correct_attempt'
p6416
(lp6417
S'0:00:00'
p6418
ag4878
asg9
g4879
sS'part2_incorrect_attempt'
p6419
(lp6420
(S'0:01:39'
p6421
V264- 234.96
p6422
tp6423
a(S'0:03:16'
p6424
Vsqrt(((264- 234.96)^2/250))
p6425
tp6426
assVjfalcone
p6427
(dp6428
S'part2_correct_attempt'
p6429
(lp6430
S'0:04:12'
p6431
aVsqrt(.81 * 339 * (1 -.81))
p6432
asS'part1_correct_attempt'
p6433
(lp6434
S'0:00:00'
p6435
aV.81 * 339
p6436
asg9
V2015-11-05 05:59:21
p6437
sS'part2_incorrect_attempt'
p6438
(lp6439
(S'0:01:38'
p6440
Vsqrt(.81 * 339)
p6441
tp6442
assVeyhu
p6443
(dp6444
S'part2_correct_attempt'
p6445
(lp6446
S'0:01:01'
p6447
aV(275*(0.84)*(1-0.84))^(1/2)
p6448
asS'part1_correct_attempt'
p6449
(lp6450
S'0:00:00'
p6451
aV275*(0.84)
p6452
asg9
V2015-10-30 08:44:05
p6453
sS'part2_incorrect_attempt'
p6454
(lp6455
(S'0:00:00'
p6456
V275*(0.84)*(1-0.84)
p6457
tp6458
assVppanourg
p6459
(dp6460
S'part2_correct_attempt'
p6461
(lp6462
S'0:13:50'
p6463
ag3832
asS'part1_correct_attempt'
p6464
(lp6465
S'0:00:00'
p6466
ag3836
asg9
g3837
sS'part2_incorrect_attempt'
p6467
(lp6468
(S'0:09:32'
p6469
Vsqrt(((378)^2(.88)) - ((378)(.88))^2)
p6470
tp6471
a(S'0:11:55'
p6472
V378 - 378*.88
p6473
tp6474
a(S'0:12:13'
p6475
V350 - 378*.88
p6476
tp6477
assVrohan
p6478
(dp6479
S'part1_correct_attempt'
p6480
(lp6481
S'0:00:00'
p6482
ag3889
asg9
g3890
sS'part2_incorrect_attempt'
p6483
(lp6484
(S'0:00:14'
p6485
Vsqrt(199*.86)
p6486
tp6487
assVrwthomps
p6488
(dp6489
S'part2_correct_attempt'
p6490
(lp6491
S'1:07:51'
p6492
ag3961
asS'part1_correct_attempt'
p6493
(lp6494
S'0:00:00'
p6495
ag3965
asg9
g3966
sS'part2_incorrect_attempt'
p6496
(lp6497
(S'0:48:13'
p6498
Vsqrt(0.5 * 0.5 *376)
p6499
tp6500
a(S'0:49:30'
p6501
Vsqrt(0.5 *376 * .85)
p6502
tp6503
a(S'0:50:56'
p6504
Vsqrt(0.5 *0.5 * 340)
p6505
tp6506
a(S'0:51:22'
p6507
Vsqrt(376 * .85)
p6508
tp6509
a(S'0:54:05'
p6510
Vsqrt(376 * 0.25)
p6511
tp6512
a(S'0:55:35'
p6513
Vsqrt(340 * (1/340) * (1 - (1/340)))
p6514
tp6515
a(S'1:04:05'
p6516
Vsqrt(340 * .25)
p6517
tp6518
assVvsosnovs
p6519
(dp6520
S'part1_correct_attempt'
p6521
(lp6522
S'0:00:00'
p6523
ag3985
asg9
g3986
sS'part2_incorrect_attempt'
p6524
(lp6525
(S'0:00:49'
p6526
V140-124
p6527
tp6528
a(S'0:00:56'
p6529
V155-124
p6530
tp6531
a(S'0:01:01'
p6532
V155-124/2
p6533
tp6534
a(S'0:01:10'
p6535
V(155-124)/2
p6536
tp6537
assVjdeon
p6538
(dp6539
S'part2_correct_attempt'
p6540
(lp6541
S'0:02:42'
p6542
ag4613
asS'part1_correct_attempt'
p6543
(lp6544
S'0:00:00'
p6545
ag4617
asg9
g4618
sS'part2_incorrect_attempt'
p6546
(lp6547
(S'0:01:24'
p6548
V121.445
p6549
tp6550
assVj6quach
p6551
(dp6552
S'part2_correct_attempt'
p6553
(lp6554
S'0:08:45'
p6555
aVsqrt(295*.85*.15)
p6556
asS'part1_correct_attempt'
p6557
(lp6558
S'0:00:00'
p6559
aV250.75
p6560
asg9
V2015-11-05 12:06:09
p6561
sS'part2_incorrect_attempt'
p6562
(lp6563
(S'0:03:50'
p6564
V14.75
p6565
tp6566
assVsyc078
p6567
(dp6568
S'part2_correct_attempt'
p6569
(lp6570
S'23:27:49'
p6571
aVsqrt((0.8*393)*(1-0.8))
p6572
asS'part1_correct_attempt'
p6573
(lp6574
S'0:00:00'
p6575
aV0.8*393
p6576
asg9
V2015-11-05 03:02:30
p6577
sS'part2_incorrect_attempt'
p6578
(lp6579
(S'0:00:25'
p6580
V393-(0.8*393)
p6581
tp6582
a(S'0:00:35'
p6583
V(393-(0.8*393))^2
p6584
tp6585
assVyypan
p6586
(dp6587
S'part2_correct_attempt'
p6588
(lp6589
S'0:18:36'
p6590
ag5104
asS'part1_correct_attempt'
p6591
(lp6592
S'0:00:00'
p6593
ag552
asg9
g5108
sS'part2_incorrect_attempt'
p6594
(lp6595
(S'0:05:13'
p6596
Vsqrt(0.85-0.85^2)
p6597
tp6598
a(S'0:16:47'
p6599
Vsqrt((0.85*0.15)/360)
p6600
tp6601
a(S'0:16:57'
p6602
Vsqrt((0.85*0.15)/390)
p6603
tp6604
assVjhc010
p6605
(dp6606
S'part2_correct_attempt'
p6607
(lp6608
S'0:01:25'
p6609
ag4180
asS'part1_correct_attempt'
p6610
(lp6611
S'0:00:00'
p6612
ag4184
asg9
g4185
sS'part2_incorrect_attempt'
p6613
(lp6614
(S'0:00:42'
p6615
Vsqrt(.18/(.82^2))
p6616
tp6617
assVagarango
p6618
(dp6619
S'part1_correct_attempt'
p6620
(lp6621
S'0:00:00'
p6622
aV284*0.82
p6623
asg9
V2015-11-06 00:02:31
p6624
sS'part2_incorrect_attempt'
p6625
(lp6626
(S'0:00:17'
p6627
Vsqrt(284*0.82)
p6628
tp6629
a(S'0:00:26'
p6630
Vsqrt(284)
p6631
tp6632
a(S'9:05:59'
p6633
Vsqrt((1/284)(284*.82))
p6634
tp6635
a(S'9:06:48'
p6636
Vsqrt((1/284)(284*.82)^2)
p6637
tp6638
a(S'9:07:51'
p6639
Vsqrt((1/284)(284-(284*.82))^2)
p6640
tp6641
a(S'9:10:45'
p6642
Vsqrt((1/284)(284-232.88)^2)
p6643
tp6644
a(S'9:14:46'
p6645
Vsqrt((1/283)(284-232.88)^2)
p6646
tp6647
a(S'9:16:25'
p6648
Vsqrt((1/260)(284-232.88)^2)
p6649
tp6650
a(S'9:16:39'
p6651
Vsqrt((1/260)(260-232.88)^2)
p6652
tp6653
a(S'9:21:19'
p6654
Vsqrt(260-232.88)
p6655
tp6656
a(S'9:21:27'
p6657
Vsqrt(284-232.88)
p6658
tp6659
a(S'9:25:01'
p6660
Vsqrt(232.88)
p6661
tp6662
a(S'9:25:07'
p6663
Vsqrt(232.88^2)
p6664
tp6665
a(S'9:28:11'
p6666
Vsqrt((260-232.88)^2)
p6667
tp6668
a(S'19:27:14'
p6669
Vsqrt((1/284)(2642938506/625))
p6670
tp6671
a(S'19:52:34'
p6672
Vsqrt(260/232.88)
p6673
tp6674
a(S'19:52:40'
p6675
Vsqrt(260-232.88)
p6676
tp6677
a(S'19:52:53'
p6678
Vsqrt((260-232.88)^2)
p6679
tp6680
a(S'19:53:23'
p6681
Vsqrt(((260-232.88)^2)/284)
p6682
tp6683
a(S'23:55:31'
p6684
Vsqrt(((260-232.88)^2))/284
p6685
tp6686
a(S'23:55:40'
p6687
Vsqrt(((260-232.88)))/284
p6688
tp6689
a(S'1 day, 0:00:30'
p6690
Vsqrt(232.88*260)/284
p6691
tp6692
a(S'1 day, 0:00:38'
p6693
Vsqrt(232.88*284)/284
p6694
tp6695
a(S'1 day, 0:02:56'
p6696
Vsqrt(284-232.88)/284
p6697
tp6698
a(S'1 day, 0:03:15'
p6699
Vsqrt((284-232.88)*284)/284
p6700
tp6701
a(S'1 day, 0:04:08'
p6702
Vsqrt((260-232.88)*284)/284
p6703
tp6704
a(S'1 day, 0:04:16'
p6705
Vsqrt((260-232.88)*284)/260
p6706
tp6707
a(S'1 day, 0:21:56'
p6708
Vsqrt((284-232.88)*284)/284
p6709
tp6710
a(S'1 day, 0:27:26'
p6711
Vsqrt(((284-232.88)*284)/284)
p6712
tp6713
a(S'1 day, 0:55:19'
p6714
V3.039
p6715
tp6716
assVv3doan
p6717
(dp6718
S'part2_correct_attempt'
p6719
(lp6720
S'0:02:46'
p6721
aVsqrt ( .87 * .13 * 297)
p6722
asS'part1_correct_attempt'
p6723
(lp6724
S'0:00:00'
p6725
aV297 * .87
p6726
asg9
V2015-11-07 00:45:23
p6727
sS'part2_incorrect_attempt'
p6728
(lp6729
(S'0:01:57'
p6730
V270 - 297 * .87
p6731
tp6732
assVajabasa
p6733
(dp6734
S'part2_correct_attempt'
p6735
(lp6736
S'0:03:30'
p6737
aV(.81*.19*222)^(1/2)
p6738
asS'part1_correct_attempt'
p6739
(lp6740
S'0:00:00'
p6741
ag381
asg9
V2015-11-05 22:37:30
p6742
sS'part2_incorrect_attempt'
p6743
(lp6744
(S'0:01:52'
p6745
V((179.82-222))^2/222
p6746
tp6747
a(S'0:03:08'
p6748
V(.81*.29*222)^(1/2)
p6749
tp6750
a(S'0:03:21'
p6751
V(.81*.29*200)^(1/2)
p6752
tp6753
assVaadhakal
p6754
(dp6755
S'part2_correct_attempt'
p6756
(lp6757
S'0:01:07'
p6758
aVsqrt(3.26*84*0.16)
p6759
asS'part1_correct_attempt'
p6760
(lp6761
S'0:00:00'
p6762
aV3.26*84
p6763
asg9
V2015-11-05 22:47:50
p6764
sS'part2_incorrect_attempt'
p6765
(lp6766
(S'0:00:11'
p6767
Vsqrt(3.26*84)
p6768
tp6769
assVgsrandha
p6770
(dp6771
S'part2_correct_attempt'
p6772
(lp6773
S'0:02:28'
p6774
aVsqrt(219 * .86 * .14)
p6775
asS'part1_correct_attempt'
p6776
(lp6777
S'0:00:00'
p6778
aV219 * .86
p6779
asg9
V2015-11-05 09:01:50
p6780
sS'part2_incorrect_attempt'
p6781
(lp6782
(S'0:02:20'
p6783
Vsqrt(219 * .86 * .14)21^2/2
p6784
tp6785
assVdpereira
p6786
(dp6787
S'part2_correct_attempt'
p6788
(lp6789
S'0:02:29'
p6790
aVsqrt((.82 * (1-.82) * 323))
p6791
asS'part1_correct_attempt'
p6792
(lp6793
S'0:00:00'
p6794
aV323*.82
p6795
asg9
V2015-11-05 22:56:10
p6796
sS'part2_incorrect_attempt'
p6797
(lp6798
(S'0:00:51'
p6799
Vsqrt((323^2 * .82) - (323 * .82)^2)
p6800
tp6801
assVhmshah
p6802
(dp6803
S'part2_correct_attempt'
p6804
(lp6805
S'0:00:47'
p6806
ag4793
asS'part1_correct_attempt'
p6807
(lp6808
S'0:00:00'
p6809
ag4797
asg9
g4798
sS'part2_incorrect_attempt'
p6810
(lp6811
(S'0:00:30'
p6812
V(366*.87) * .13
p6813
tp6814
assVlahawkin
p6815
(dp6816
S'part2_correct_attempt'
p6817
(lp6818
S'2 days, 0:07:02'
p6819
ag4812
asS'part1_correct_attempt'
p6820
(lp6821
S'0:00:00'
p6822
ag465
asg9
g4816
sS'part2_incorrect_attempt'
p6823
(lp6824
(S'0:00:23'
p6825
V((89/100)303)^1/2
p6826
tp6827
a(S'0:00:35'
p6828
V((89/100)303)^(1/2)
p6829
tp6830
a(S'0:08:41'
p6831
V(((89/100)303-290)^2)^1/2
p6832
tp6833
a(S'1 day, 14:51:21'
p6834
V(((.89)303-290)^2)(1/2)
p6835
tp6836
a(S'1 day, 14:51:33'
p6837
V(((.89)303-290)^2)^(1/2)
p6838
tp6839
a(S'1 day, 14:52:18'
p6840
V((((.89)303*290)^2))^(1/2)
p6841
tp6842
assVaordookh
p6843
(dp6844
S'part2_correct_attempt'
p6845
(lp6846
S'0:17:08'
p6847
ag4834
asS'part1_correct_attempt'
p6848
(lp6849
S'0:00:00'
p6850
ag576
asg9
g4838
sS'part2_incorrect_attempt'
p6851
(lp6852
(S'0:01:47'
p6853
V308-290
p6854
tp6855
a(S'0:02:51'
p6856
V.11(290)
p6857
tp6858
a(S'0:03:18'
p6859
V.11(290)/2
p6860
tp6861
a(S'0:05:08'
p6862
V(.11(.89)290)^(1/2)
p6863
tp6864
a(S'0:12:32'
p6865
V(290-(290-(.89*18)))/.89
p6866
tp6867
assVyig015
p6868
(dp6869
S'part2_correct_attempt'
p6870
(lp6871
S'0:04:55'
p6872
ag3713
asS'part1_correct_attempt'
p6873
(lp6874
S'0:00:00'
p6875
ag3717
asg9
g3718
sS'part2_incorrect_attempt'
p6876
(lp6877
(S'0:03:09'
p6878
V217*0.87*0.13
p6879
tp6880
assVxweng
p6881
(dp6882
S'part2_correct_attempt'
p6883
(lp6884
S'0:00:59'
p6885
ag4972
asS'part1_correct_attempt'
p6886
(lp6887
S'0:00:00'
p6888
ag4976
asg9
g4977
sS'part2_incorrect_attempt'
p6889
(lp6890
(S'0:00:13'
p6891
V185*0.86*0.14
p6892
tp6893
a(S'0:00:22'
p6894
V170*0.86*0.14
p6895
tp6896
assVc3chung
p6897
(dp6898
S'part2_correct_attempt'
p6899
(lp6900
S'1:48:57'
p6901
ag4106
asS'part1_correct_attempt'
p6902
(lp6903
S'0:00:00'
p6904
ag4110
asg9
g4111
sS'part2_incorrect_attempt'
p6905
(lp6906
(S'0:00:00'
p6907
Vsqrt(.81(281)/25)
p6908
tp6909
a(S'0:02:09'
p6910
Vsqrt((227.61-250)^2/281)
p6911
tp6912
a(S'0:02:15'
p6913
Vsqrt((227.61-250)^2/280)
p6914
tp6915
a(S'1:39:33'
p6916
V(250-227.61)
p6917
tp6918
a(S'1:41:05'
p6919
V(250-227.61)^2
p6920
tp6921
a(S'1:42:45'
p6922
V(281-227.61)^2
p6923
tp6924
a(S'1:42:50'
p6925
V(281-227.61)
p6926
tp6927
a(S'1:44:36'
p6928
V(250-202.5)
p6929
tp6930
a(S'1:45:06'
p6931
V(227.61-202.5)
p6932
tp6933
assVajvanega
p6934
(dp6935
S'part2_correct_attempt'
p6936
(lp6937
S'7:03:16'
p6938
aVsqrt((161*.81)*(1-.81))
p6939
asS'part1_correct_attempt'
p6940
(lp6941
S'0:00:00'
p6942
aV161*.81
p6943
asg9
V2015-11-05 19:27:27
p6944
sS'part2_incorrect_attempt'
p6945
(lp6946
(S'0:13:07'
p6947
V((150-(161*.81))^2)/161
p6948
tp6949
a(S'0:13:24'
p6950
V((150-(161*.81))^2)/150
p6951
tp6952
a(S'0:15:07'
p6953
V((161-(161*.81))^2)/161
p6954
tp6955
a(S'0:19:23'
p6956
V(161-(161*.81))
p6957
tp6958
assVjmiclat
p6959
(dp6960
S'part2_correct_attempt'
p6961
(lp6962
S'14:23:37'
p6963
ag4087
asS'part1_correct_attempt'
p6964
(lp6965
S'0:00:00'
p6966
ag4091
asg9
g4092
sS'part2_incorrect_attempt'
p6967
(lp6968
(S'0:00:10'
p6969
V218.12^2
p6970
tp6971
a(S'0:01:57'
p6972
V(266-(.82*266))^2
p6973
tp6974
a(S'14:23:17'
p6975
Vsqrt(1-0.82)0.82*266
p6976
tp6977
assVmtrafeca
p6978
(dp6979
S'part2_correct_attempt'
p6980
(lp6981
S'0:02:24'
p6982
ag5134
asS'part1_correct_attempt'
p6983
(lp6984
S'0:00:00'
p6985
ag615
asg9
g5138
sS'part2_incorrect_attempt'
p6986
(lp6987
(S'0:01:56'
p6988
V.89*.19*223
p6989
tp6990
a(S'0:02:15'
p6991
Vsqrt(.89*.19*223)
p6992
tp6993
assVkgrozav
p6994
(dp6995
S'part2_correct_attempt'
p6996
(lp6997
S'0:00:44'
p6998
aVsqrt(284*.89*.11)
p6999
asS'part1_correct_attempt'
p7000
(lp7001
S'0:00:00'
p7002
aV284*.89
p7003
asg9
V2015-11-06 08:10:44
p7004
sS'part2_incorrect_attempt'
p7005
(lp7006
(S'0:00:26'
p7007
V284*.89*11
p7008
tp7009
assVj2phung
p7010
(dp7011
S'part2_correct_attempt'
p7012
(lp7013
S'0:44:21'
p7014
ag5182
asS'part1_correct_attempt'
p7015
(lp7016
S'0:00:00'
p7017
ag630
asg9
g5186
sS'part2_incorrect_attempt'
p7018
(lp7019
(S'0:29:38'
p7020
V(300*(1/2)*(1/2))^(1/2)
p7021
tp7022
asss.